ARM GAS  C:\Users\RECEPC~1\AppData\Local\Temp\ccvxjDo6.s 			page 1


   1              		.syntax unified
   2              		.cpu cortex-m3
   3              		.fpu softvfp
   4              		.eabi_attribute 20, 1
   5              		.eabi_attribute 21, 1
   6              		.eabi_attribute 23, 3
   7              		.eabi_attribute 24, 1
   8              		.eabi_attribute 25, 1
   9              		.eabi_attribute 26, 1
  10              		.eabi_attribute 30, 6
  11              		.eabi_attribute 34, 1
  12              		.eabi_attribute 18, 4
  13              		.thumb
  14              		.file	"PrimeImpl.c"
  15              		.text
  16              	.Ltext0:
  17              		.cfi_sections	.debug_frame
  18              		.comm	HoseDispenser,1,1
  19              		.global	errorCounter
  20              		.bss
  21              		.type	errorCounter, %object
  22              		.size	errorCounter, 1
  23              	errorCounter:
  24 0000 00       		.space	1
  25              		.section	.text.AcquirePumpStateResponse,"ax",%progbits
  26              		.align	2
  27              		.global	AcquirePumpStateResponse
  28              		.thumb
  29              		.thumb_func
  30              		.type	AcquirePumpStateResponse, %function
  31              	AcquirePumpStateResponse:
  32              	.LFB63:
  33              		.file 1 ".\\PrimeImpl.c"
   1:.\PrimeImpl.c **** /* ========================================
   2:.\PrimeImpl.c ****  *
   3:.\PrimeImpl.c ****  * Copyright INSEPET SISTEMAS, 2016
   4:.\PrimeImpl.c ****  * All Rights Reserved
   5:.\PrimeImpl.c ****  * UNPUBLISHED, LICENSED SOFTWARE.
   6:.\PrimeImpl.c ****  *
   7:.\PrimeImpl.c ****  * CONFIDENTIAL AND PROPRIETARY INFORMATION
   8:.\PrimeImpl.c ****  * WHICH IS THE PROPERTY OF your company.
   9:.\PrimeImpl.c ****  *
  10:.\PrimeImpl.c ****  * ========================================
  11:.\PrimeImpl.c **** @Created By: HIJH
  12:.\PrimeImpl.c **** @Date: Septembre de 2016
  13:.\PrimeImpl.c **** */
  14:.\PrimeImpl.c **** 
  15:.\PrimeImpl.c **** #include <project.h>
  16:.\PrimeImpl.c **** #include "GlobalDefinitions.h"
  17:.\PrimeImpl.c **** #include "SinkManager.h"
  18:.\PrimeImpl.c **** #include "SinkObservables.h"
  19:.\PrimeImpl.c **** #include "UARTManager.h"
  20:.\PrimeImpl.c **** #include "Display.h"
  21:.\PrimeImpl.c **** #include "Dispenser.h"
  22:.\PrimeImpl.c **** #include "Eeprom.h"
  23:.\PrimeImpl.c **** #include "RFLink.h"
  24:.\PrimeImpl.c **** #include "Printer.h"
ARM GAS  C:\Users\RECEPC~1\AppData\Local\Temp\ccvxjDo6.s 			page 2


  25:.\PrimeImpl.c **** #include "Rtc.h"
  26:.\PrimeImpl.c **** 
  27:.\PrimeImpl.c **** #ifdef PRIME_PROTOCOL
  28:.\PrimeImpl.c **** 
  29:.\PrimeImpl.c **** uint8_t FindLRC(char8 *_pbuffer);
  30:.\PrimeImpl.c **** uint8_t GetLRC(char8 *_pbuffer);
  31:.\PrimeImpl.c **** uint8 errorCounter = 0;
  32:.\PrimeImpl.c **** 
  33:.\PrimeImpl.c **** void ComplementaryCreditTransactionOnHose(LPVOID pparam);
  34:.\PrimeImpl.c **** void PrimeActivateProgramming(LPVOID pparam);
  35:.\PrimeImpl.c **** extern PNEARDISPENSERACTIVATEPROGRAMMING _g_ptractprogramming;
  36:.\PrimeImpl.c **** 
  37:.\PrimeImpl.c **** ///////////////////////////////////////////////////////////////////////////////////////////////////
  38:.\PrimeImpl.c **** //////////////////////                 BLOCK OF AVAILABLE RESPONSE HANDLERS
  39:.\PrimeImpl.c **** ///////////////////////////////////////////////////////////////////////////////////////////////////
  40:.\PrimeImpl.c **** 
  41:.\PrimeImpl.c **** //@Created By: HIJH
  42:.\PrimeImpl.c **** //@Date: Septembre de 2016
  43:.\PrimeImpl.c **** //Updates the pump state into the pump structure
  44:.\PrimeImpl.c **** void AcquirePumpStateResponse(void *pparam)
  45:.\PrimeImpl.c **** {
  34              		.loc 1 45 0
  35              		.cfi_startproc
  36              		@ args = 0, pretend = 0, frame = 16
  37              		@ frame_needed = 1, uses_anonymous_args = 0
  38 0000 80B5     		push	{r7, lr}
  39              		.cfi_def_cfa_offset 8
  40              		.cfi_offset 7, -8
  41              		.cfi_offset 14, -4
  42 0002 84B0     		sub	sp, sp, #16
  43              		.cfi_def_cfa_offset 24
  44 0004 00AF     		add	r7, sp, #0
  45              		.cfi_def_cfa_register 7
  46 0006 7860     		str	r0, [r7, #4]
  46:.\PrimeImpl.c ****     PPUMPTRANSACTIONJOBCONTEXTPTR pjob = (PPUMPTRANSACTIONJOBCONTEXTPTR)pparam;
  47              		.loc 1 46 0
  48 0008 7B68     		ldr	r3, [r7, #4]
  49 000a FB60     		str	r3, [r7, #12]
  47:.\PrimeImpl.c ****     if(pjob)
  50              		.loc 1 47 0
  51 000c FB68     		ldr	r3, [r7, #12]
  52 000e 002B     		cmp	r3, #0
  53 0010 00F08A80 		beq	.L1
  54              	.LBB2:
  48:.\PrimeImpl.c ****     {
  49:.\PrimeImpl.c ****         uint8 prevstate = pjob->_ppump->_pumpstate;
  55              		.loc 1 49 0
  56 0014 FB68     		ldr	r3, [r7, #12]
  57 0016 DB69     		ldr	r3, [r3, #28]
  58 0018 9B78     		ldrb	r3, [r3, #2]
  59 001a FB72     		strb	r3, [r7, #11]
  50:.\PrimeImpl.c ****         uint8 prevrfstate = pjob->_ppump->_pumprftransstate;
  60              		.loc 1 50 0
  61 001c FB68     		ldr	r3, [r7, #12]
  62 001e DB69     		ldr	r3, [r3, #28]
  63 0020 9B7B     		ldrb	r3, [r3, #14]
  64 0022 BB72     		strb	r3, [r7, #10]
ARM GAS  C:\Users\RECEPC~1\AppData\Local\Temp\ccvxjDo6.s 			page 3


  51:.\PrimeImpl.c ****         pjob->_ppump->_pumpstate = ((pjob->_ppump->_rxbuffer[0x00] & 0xF0) >> 4);
  65              		.loc 1 51 0
  66 0024 FB68     		ldr	r3, [r7, #12]
  67 0026 DB69     		ldr	r3, [r3, #28]
  68 0028 FA68     		ldr	r2, [r7, #12]
  69 002a D269     		ldr	r2, [r2, #28]
  70 002c 92F88821 		ldrb	r2, [r2, #392]	@ zero_extendqisi2
  71 0030 1209     		lsrs	r2, r2, #4
  72 0032 D2B2     		uxtb	r2, r2
  73 0034 9A70     		strb	r2, [r3, #2]
  52:.\PrimeImpl.c ****         if(pjob->_ppump->PumpValidState(pjob->_ppump) && ((pjob->_ppump->_rxbuffer[0x00] & 0x0F)) =
  74              		.loc 1 52 0
  75 0036 FB68     		ldr	r3, [r7, #12]
  76 0038 DB69     		ldr	r3, [r3, #28]
  77 003a D3F8303B 		ldr	r3, [r3, #2864]
  78 003e FA68     		ldr	r2, [r7, #12]
  79 0040 D269     		ldr	r2, [r2, #28]
  80 0042 1046     		mov	r0, r2
  81 0044 9847     		blx	r3
  82 0046 0346     		mov	r3, r0
  83 0048 002B     		cmp	r3, #0
  84 004a 17D0     		beq	.L3
  85              		.loc 1 52 0 is_stmt 0 discriminator 1
  86 004c FB68     		ldr	r3, [r7, #12]
  87 004e DB69     		ldr	r3, [r3, #28]
  88 0050 93F88831 		ldrb	r3, [r3, #392]	@ zero_extendqisi2
  89 0054 03F00F03 		and	r3, r3, #15
  90 0058 FA68     		ldr	r2, [r7, #12]
  91 005a D269     		ldr	r2, [r2, #28]
  92 005c 1278     		ldrb	r2, [r2]	@ zero_extendqisi2
  93 005e 9342     		cmp	r3, r2
  94 0060 0CD1     		bne	.L3
  53:.\PrimeImpl.c ****             errorCounter = 0;
  95              		.loc 1 53 0 is_stmt 1
  96 0062 334B     		ldr	r3, .L12
  97 0064 0022     		movs	r2, #0
  98 0066 1A70     		strb	r2, [r3]
  54:.\PrimeImpl.c ****             if(errorCounter == 0){
  99              		.loc 1 54 0
 100 0068 314B     		ldr	r3, .L12
 101 006a 1B78     		ldrb	r3, [r3]	@ zero_extendqisi2
 102 006c 002B     		cmp	r3, #0
 103 006e 04D1     		bne	.L4
  55:.\PrimeImpl.c ****                 pjob->_ppump->_transhealth = _PUMP_OK_;  
 104              		.loc 1 55 0
 105 0070 FB68     		ldr	r3, [r7, #12]
 106 0072 DB69     		ldr	r3, [r3, #28]
 107 0074 0122     		movs	r2, #1
 108 0076 1A76     		strb	r2, [r3, #24]
  54:.\PrimeImpl.c ****             if(errorCounter == 0){
 109              		.loc 1 54 0
 110 0078 15E0     		b	.L5
 111              	.L4:
 112 007a 14E0     		b	.L5
 113              	.L3:
  56:.\PrimeImpl.c ****             }
  57:.\PrimeImpl.c ****         }
ARM GAS  C:\Users\RECEPC~1\AppData\Local\Temp\ccvxjDo6.s 			page 4


  58:.\PrimeImpl.c ****         else
  59:.\PrimeImpl.c ****         {
  60:.\PrimeImpl.c ****             errorCounter = errorCounter + 1;
 114              		.loc 1 60 0
 115 007c 2C4B     		ldr	r3, .L12
 116 007e 1B78     		ldrb	r3, [r3]	@ zero_extendqisi2
 117 0080 0133     		adds	r3, r3, #1
 118 0082 DAB2     		uxtb	r2, r3
 119 0084 2A4B     		ldr	r3, .L12
 120 0086 1A70     		strb	r2, [r3]
  61:.\PrimeImpl.c ****             if(errorCounter == 3){
 121              		.loc 1 61 0
 122 0088 294B     		ldr	r3, .L12
 123 008a 1B78     		ldrb	r3, [r3]	@ zero_extendqisi2
 124 008c 032B     		cmp	r3, #3
 125 008e 0AD1     		bne	.L5
  62:.\PrimeImpl.c ****                 pjob->_ppump->_transhealth = _PUMP_FAIL_;
 126              		.loc 1 62 0
 127 0090 FB68     		ldr	r3, [r7, #12]
 128 0092 DB69     		ldr	r3, [r3, #28]
 129 0094 0222     		movs	r2, #2
 130 0096 1A76     		strb	r2, [r3, #24]
  63:.\PrimeImpl.c ****                 pjob->_ppump->_pumpstate = PUMP_FAIL;
 131              		.loc 1 63 0
 132 0098 FB68     		ldr	r3, [r7, #12]
 133 009a DB69     		ldr	r3, [r3, #28]
 134 009c 0022     		movs	r2, #0
 135 009e 9A70     		strb	r2, [r3, #2]
  64:.\PrimeImpl.c ****                 errorCounter = 1;
 136              		.loc 1 64 0
 137 00a0 234B     		ldr	r3, .L12
 138 00a2 0122     		movs	r2, #1
 139 00a4 1A70     		strb	r2, [r3]
 140              	.L5:
  65:.\PrimeImpl.c ****             }
  66:.\PrimeImpl.c ****         }   
  67:.\PrimeImpl.c ****         
  68:.\PrimeImpl.c ****         if(pjob->_ppump->_pumpstate == PUMP_CALLING)
 141              		.loc 1 68 0
 142 00a6 FB68     		ldr	r3, [r7, #12]
 143 00a8 DB69     		ldr	r3, [r3, #28]
 144 00aa 9B78     		ldrb	r3, [r3, #2]
 145 00ac DBB2     		uxtb	r3, r3
 146 00ae 072B     		cmp	r3, #7
 147 00b0 03D1     		bne	.L6
  69:.\PrimeImpl.c ****             pjob->_ppump->_pumplocked = false;                
 148              		.loc 1 69 0
 149 00b2 FB68     		ldr	r3, [r7, #12]
 150 00b4 DB69     		ldr	r3, [r3, #28]
 151 00b6 0022     		movs	r2, #0
 152 00b8 DA72     		strb	r2, [r3, #11]
 153              	.L6:
  70:.\PrimeImpl.c ****         
  71:.\PrimeImpl.c ****         if((pjob->_ppump->_pumpstate == PUMP_IDLE || pjob->_ppump->_pumpstate == PUMP_CALLING) && 
 154              		.loc 1 71 0
 155 00ba FB68     		ldr	r3, [r7, #12]
 156 00bc DB69     		ldr	r3, [r3, #28]
ARM GAS  C:\Users\RECEPC~1\AppData\Local\Temp\ccvxjDo6.s 			page 5


 157 00be 9B78     		ldrb	r3, [r3, #2]
 158 00c0 DBB2     		uxtb	r3, r3
 159 00c2 062B     		cmp	r3, #6
 160 00c4 05D0     		beq	.L7
 161              		.loc 1 71 0 is_stmt 0 discriminator 2
 162 00c6 FB68     		ldr	r3, [r7, #12]
 163 00c8 DB69     		ldr	r3, [r3, #28]
 164 00ca 9B78     		ldrb	r3, [r3, #2]
 165 00cc DBB2     		uxtb	r3, r3
 166 00ce 072B     		cmp	r3, #7
 167 00d0 09D1     		bne	.L8
 168              	.L7:
 169              		.loc 1 71 0 discriminator 3
 170 00d2 FB7A     		ldrb	r3, [r7, #11]	@ zero_extendqisi2
 171 00d4 092B     		cmp	r3, #9
 172 00d6 02D0     		beq	.L9
  72:.\PrimeImpl.c ****             (prevstate == PUMP_BUSY || prevstate == PUMP_AUTHORIZED))
 173              		.loc 1 72 0 is_stmt 1
 174 00d8 FB7A     		ldrb	r3, [r7, #11]	@ zero_extendqisi2
 175 00da 082B     		cmp	r3, #8
 176 00dc 03D1     		bne	.L8
 177              	.L9:
  73:.\PrimeImpl.c ****             pjob->_ppump->_pumprftransstate = RF_ZERO_SALE; 
 178              		.loc 1 73 0
 179 00de FB68     		ldr	r3, [r7, #12]
 180 00e0 DB69     		ldr	r3, [r3, #28]
 181 00e2 0C22     		movs	r2, #12
 182 00e4 9A73     		strb	r2, [r3, #14]
 183              	.L8:
  74:.\PrimeImpl.c ****         
  75:.\PrimeImpl.c ****         if((pjob->_ppump->_pumpstate == PUMP_IDLE ) && 
 184              		.loc 1 75 0
 185 00e6 FB68     		ldr	r3, [r7, #12]
 186 00e8 DB69     		ldr	r3, [r3, #28]
 187 00ea 9B78     		ldrb	r3, [r3, #2]
 188 00ec DBB2     		uxtb	r3, r3
 189 00ee 062B     		cmp	r3, #6
 190 00f0 06D1     		bne	.L10
 191              		.loc 1 75 0 is_stmt 0 discriminator 1
 192 00f2 BB7A     		ldrb	r3, [r7, #10]	@ zero_extendqisi2
 193 00f4 0C2B     		cmp	r3, #12
 194 00f6 03D1     		bne	.L10
  76:.\PrimeImpl.c ****             (prevrfstate == RF_ZERO_SALE ))
  77:.\PrimeImpl.c ****             pjob->_ppump->_pumprftransstate = RF_IDLE; 
 195              		.loc 1 77 0 is_stmt 1
 196 00f8 FB68     		ldr	r3, [r7, #12]
 197 00fa DB69     		ldr	r3, [r3, #28]
 198 00fc 0822     		movs	r2, #8
 199 00fe 9A73     		strb	r2, [r3, #14]
 200              	.L10:
  78:.\PrimeImpl.c ****         
  79:.\PrimeImpl.c ****         if((pjob->_ppump->_pumpstate == PUMP_IDLE   ) && 
 201              		.loc 1 79 0
 202 0100 FB68     		ldr	r3, [r7, #12]
 203 0102 DB69     		ldr	r3, [r3, #28]
 204 0104 9B78     		ldrb	r3, [r3, #2]
 205 0106 DBB2     		uxtb	r3, r3
ARM GAS  C:\Users\RECEPC~1\AppData\Local\Temp\ccvxjDo6.s 			page 6


 206 0108 062B     		cmp	r3, #6
 207 010a 09D1     		bne	.L11
  80:.\PrimeImpl.c ****             (pjob->_ppump->_pumprftransstate == RF_COPY_RECEIPT ))
 208              		.loc 1 80 0 discriminator 1
 209 010c FB68     		ldr	r3, [r7, #12]
 210 010e DB69     		ldr	r3, [r3, #28]
 211 0110 9B7B     		ldrb	r3, [r3, #14]
 212 0112 DBB2     		uxtb	r3, r3
  79:.\PrimeImpl.c ****             (pjob->_ppump->_pumprftransstate == RF_COPY_RECEIPT ))
 213              		.loc 1 79 0 discriminator 1
 214 0114 0B2B     		cmp	r3, #11
 215 0116 03D1     		bne	.L11
  81:.\PrimeImpl.c ****             pjob->_ppump->_pumprftransstate = RF_IDLE;
 216              		.loc 1 81 0
 217 0118 FB68     		ldr	r3, [r7, #12]
 218 011a DB69     		ldr	r3, [r3, #28]
 219 011c 0822     		movs	r2, #8
 220 011e 9A73     		strb	r2, [r3, #14]
 221              	.L11:
  82:.\PrimeImpl.c ****                 
  83:.\PrimeImpl.c ****                 
  84:.\PrimeImpl.c ****         pjob->_ppump->_acquiringstate = false;
 222              		.loc 1 84 0
 223 0120 FB68     		ldr	r3, [r7, #12]
 224 0122 DB69     		ldr	r3, [r3, #28]
 225 0124 0022     		movs	r2, #0
 226 0126 5A71     		strb	r2, [r3, #5]
 227              	.L1:
 228              	.LBE2:
  85:.\PrimeImpl.c ****     }
  86:.\PrimeImpl.c **** }
 229              		.loc 1 86 0
 230 0128 1037     		adds	r7, r7, #16
 231              		.cfi_def_cfa_offset 8
 232 012a BD46     		mov	sp, r7
 233              		.cfi_def_cfa_register 13
 234              		@ sp needed
 235 012c 80BD     		pop	{r7, pc}
 236              	.L13:
 237 012e 00BF     		.align	2
 238              	.L12:
 239 0130 00000000 		.word	errorCounter
 240              		.cfi_endproc
 241              	.LFE63:
 242              		.size	AcquirePumpStateResponse, .-AcquirePumpStateResponse
 243              		.section	.text.AcquireDatatoPumpResponse,"ax",%progbits
 244              		.align	2
 245              		.global	AcquireDatatoPumpResponse
 246              		.thumb
 247              		.thumb_func
 248              		.type	AcquireDatatoPumpResponse, %function
 249              	AcquireDatatoPumpResponse:
 250              	.LFB64:
  87:.\PrimeImpl.c **** 
  88:.\PrimeImpl.c **** //@Created By: HIJH
  89:.\PrimeImpl.c **** //@Date: Septembre de 2016
  90:.\PrimeImpl.c **** //Validates the response from the pump previous batch transfer (0xDp)
ARM GAS  C:\Users\RECEPC~1\AppData\Local\Temp\ccvxjDo6.s 			page 7


  91:.\PrimeImpl.c **** void AcquireDatatoPumpResponse(void *pparam)
  92:.\PrimeImpl.c **** {
 251              		.loc 1 92 0
 252              		.cfi_startproc
 253              		@ args = 0, pretend = 0, frame = 16
 254              		@ frame_needed = 1, uses_anonymous_args = 0
 255              		@ link register save eliminated.
 256 0000 80B4     		push	{r7}
 257              		.cfi_def_cfa_offset 4
 258              		.cfi_offset 7, -4
 259 0002 85B0     		sub	sp, sp, #20
 260              		.cfi_def_cfa_offset 24
 261 0004 00AF     		add	r7, sp, #0
 262              		.cfi_def_cfa_register 7
 263 0006 7860     		str	r0, [r7, #4]
  93:.\PrimeImpl.c ****     PPUMPTRANSACTIONJOBCONTEXTPTR pjob = (PPUMPTRANSACTIONJOBCONTEXTPTR)pparam;
 264              		.loc 1 93 0
 265 0008 7B68     		ldr	r3, [r7, #4]
 266 000a FB60     		str	r3, [r7, #12]
  94:.\PrimeImpl.c ****     if(pjob)
 267              		.loc 1 94 0
 268 000c FB68     		ldr	r3, [r7, #12]
 269 000e 002B     		cmp	r3, #0
 270 0010 15D0     		beq	.L14
  95:.\PrimeImpl.c ****     {
  96:.\PrimeImpl.c ****         if((0x0F & pjob->_ppump->_pumpid) == (pjob->_ppump->_rxbuffer[0x00] & 0x0F))
 271              		.loc 1 96 0
 272 0012 FB68     		ldr	r3, [r7, #12]
 273 0014 DB69     		ldr	r3, [r3, #28]
 274 0016 1B78     		ldrb	r3, [r3]	@ zero_extendqisi2
 275 0018 1A46     		mov	r2, r3
 276 001a FB68     		ldr	r3, [r7, #12]
 277 001c DB69     		ldr	r3, [r3, #28]
 278 001e 93F88831 		ldrb	r3, [r3, #392]	@ zero_extendqisi2
 279 0022 5340     		eors	r3, r3, r2
 280 0024 03F00F03 		and	r3, r3, #15
 281 0028 002B     		cmp	r3, #0
 282 002a 08D1     		bne	.L14
  97:.\PrimeImpl.c ****             pjob->_ppump->_pumpstate = ((pjob->_ppump->_rxbuffer[0x00] & 0xF0) >> 4);
 283              		.loc 1 97 0
 284 002c FB68     		ldr	r3, [r7, #12]
 285 002e DB69     		ldr	r3, [r3, #28]
 286 0030 FA68     		ldr	r2, [r7, #12]
 287 0032 D269     		ldr	r2, [r2, #28]
 288 0034 92F88821 		ldrb	r2, [r2, #392]	@ zero_extendqisi2
 289 0038 1209     		lsrs	r2, r2, #4
 290 003a D2B2     		uxtb	r2, r2
 291 003c 9A70     		strb	r2, [r3, #2]
 292              	.L14:
  98:.\PrimeImpl.c ****     }
  99:.\PrimeImpl.c **** }
 293              		.loc 1 99 0
 294 003e 1437     		adds	r7, r7, #20
 295              		.cfi_def_cfa_offset 4
 296 0040 BD46     		mov	sp, r7
 297              		.cfi_def_cfa_register 13
 298              		@ sp needed
ARM GAS  C:\Users\RECEPC~1\AppData\Local\Temp\ccvxjDo6.s 			page 8


 299 0042 5DF8047B 		ldr	r7, [sp], #4
 300              		.cfi_restore 7
 301              		.cfi_def_cfa_offset 0
 302 0046 7047     		bx	lr
 303              		.cfi_endproc
 304              	.LFE64:
 305              		.size	AcquireDatatoPumpResponse, .-AcquireDatatoPumpResponse
 306              		.section	.text.ProcessPumpRTMoneyRequest,"ax",%progbits
 307              		.align	2
 308              		.global	ProcessPumpRTMoneyRequest
 309              		.thumb
 310              		.thumb_func
 311              		.type	ProcessPumpRTMoneyRequest, %function
 312              	ProcessPumpRTMoneyRequest:
 313              	.LFB65:
 100:.\PrimeImpl.c **** 
 101:.\PrimeImpl.c **** void ProcessPumpRTMoneyRequest(void *pparam)
 102:.\PrimeImpl.c **** {
 314              		.loc 1 102 0
 315              		.cfi_startproc
 316              		@ args = 0, pretend = 0, frame = 16
 317              		@ frame_needed = 1, uses_anonymous_args = 0
 318 0000 90B5     		push	{r4, r7, lr}
 319              		.cfi_def_cfa_offset 12
 320              		.cfi_offset 4, -12
 321              		.cfi_offset 7, -8
 322              		.cfi_offset 14, -4
 323 0002 85B0     		sub	sp, sp, #20
 324              		.cfi_def_cfa_offset 32
 325 0004 00AF     		add	r7, sp, #0
 326              		.cfi_def_cfa_register 7
 327 0006 7860     		str	r0, [r7, #4]
 103:.\PrimeImpl.c ****     PPUMPTRANSACTIONJOBCONTEXTPTR pjob = (PPUMPTRANSACTIONJOBCONTEXTPTR)pparam;
 328              		.loc 1 103 0
 329 0008 7B68     		ldr	r3, [r7, #4]
 330 000a FB60     		str	r3, [r7, #12]
 104:.\PrimeImpl.c ****     if(pjob)
 331              		.loc 1 104 0
 332 000c FB68     		ldr	r3, [r7, #12]
 333 000e 002B     		cmp	r3, #0
 334 0010 63D0     		beq	.L16
 105:.\PrimeImpl.c ****     {
 106:.\PrimeImpl.c ****         //Bytes from index 0 to 7 are the digits for the Real Time Money Data in BCD format
 107:.\PrimeImpl.c ****         pjob->_ppump->_rxbuffer[0x00] = (pjob->_ppump->_rxbuffer[0x00] & 0x0F);
 335              		.loc 1 107 0
 336 0012 FB68     		ldr	r3, [r7, #12]
 337 0014 DB69     		ldr	r3, [r3, #28]
 338 0016 FA68     		ldr	r2, [r7, #12]
 339 0018 D269     		ldr	r2, [r2, #28]
 340 001a 92F88821 		ldrb	r2, [r2, #392]	@ zero_extendqisi2
 341 001e 02F00F02 		and	r2, r2, #15
 342 0022 D2B2     		uxtb	r2, r2
 343 0024 83F88821 		strb	r2, [r3, #392]
 108:.\PrimeImpl.c ****         pjob->_ppump->_rxbuffer[0x01] = (pjob->_ppump->_rxbuffer[0x01] & 0x0F);
 344              		.loc 1 108 0
 345 0028 FB68     		ldr	r3, [r7, #12]
 346 002a DB69     		ldr	r3, [r3, #28]
ARM GAS  C:\Users\RECEPC~1\AppData\Local\Temp\ccvxjDo6.s 			page 9


 347 002c FA68     		ldr	r2, [r7, #12]
 348 002e D269     		ldr	r2, [r2, #28]
 349 0030 92F88921 		ldrb	r2, [r2, #393]	@ zero_extendqisi2
 350 0034 02F00F02 		and	r2, r2, #15
 351 0038 D2B2     		uxtb	r2, r2
 352 003a 83F88921 		strb	r2, [r3, #393]
 109:.\PrimeImpl.c ****         pjob->_ppump->_rxbuffer[0x02] = (pjob->_ppump->_rxbuffer[0x02] & 0x0F);
 353              		.loc 1 109 0
 354 003e FB68     		ldr	r3, [r7, #12]
 355 0040 DB69     		ldr	r3, [r3, #28]
 356 0042 FA68     		ldr	r2, [r7, #12]
 357 0044 D269     		ldr	r2, [r2, #28]
 358 0046 92F88A21 		ldrb	r2, [r2, #394]	@ zero_extendqisi2
 359 004a 02F00F02 		and	r2, r2, #15
 360 004e D2B2     		uxtb	r2, r2
 361 0050 83F88A21 		strb	r2, [r3, #394]
 110:.\PrimeImpl.c ****         pjob->_ppump->_rxbuffer[0x03] = (pjob->_ppump->_rxbuffer[0x03] & 0x0F);
 362              		.loc 1 110 0
 363 0054 FB68     		ldr	r3, [r7, #12]
 364 0056 DB69     		ldr	r3, [r3, #28]
 365 0058 FA68     		ldr	r2, [r7, #12]
 366 005a D269     		ldr	r2, [r2, #28]
 367 005c 92F88B21 		ldrb	r2, [r2, #395]	@ zero_extendqisi2
 368 0060 02F00F02 		and	r2, r2, #15
 369 0064 D2B2     		uxtb	r2, r2
 370 0066 83F88B21 		strb	r2, [r3, #395]
 111:.\PrimeImpl.c ****         pjob->_ppump->_rxbuffer[0x04] = (pjob->_ppump->_rxbuffer[0x04] & 0x0F);
 371              		.loc 1 111 0
 372 006a FB68     		ldr	r3, [r7, #12]
 373 006c DB69     		ldr	r3, [r3, #28]
 374 006e FA68     		ldr	r2, [r7, #12]
 375 0070 D269     		ldr	r2, [r2, #28]
 376 0072 92F88C21 		ldrb	r2, [r2, #396]	@ zero_extendqisi2
 377 0076 02F00F02 		and	r2, r2, #15
 378 007a D2B2     		uxtb	r2, r2
 379 007c 83F88C21 		strb	r2, [r3, #396]
 112:.\PrimeImpl.c ****         pjob->_ppump->_rxbuffer[0x05] = (pjob->_ppump->_rxbuffer[0x05] & 0x0F);
 380              		.loc 1 112 0
 381 0080 FB68     		ldr	r3, [r7, #12]
 382 0082 DB69     		ldr	r3, [r3, #28]
 383 0084 FA68     		ldr	r2, [r7, #12]
 384 0086 D269     		ldr	r2, [r2, #28]
 385 0088 92F88D21 		ldrb	r2, [r2, #397]	@ zero_extendqisi2
 386 008c 02F00F02 		and	r2, r2, #15
 387 0090 D2B2     		uxtb	r2, r2
 388 0092 83F88D21 		strb	r2, [r3, #397]
 113:.\PrimeImpl.c ****         pjob->_ppump->_rxbuffer[0x06] = (pjob->_ppump->_rxbuffer[0x06] & 0x0F);
 389              		.loc 1 113 0
 390 0096 FB68     		ldr	r3, [r7, #12]
 391 0098 DB69     		ldr	r3, [r3, #28]
 392 009a FA68     		ldr	r2, [r7, #12]
 393 009c D269     		ldr	r2, [r2, #28]
 394 009e 92F88E21 		ldrb	r2, [r2, #398]	@ zero_extendqisi2
 395 00a2 02F00F02 		and	r2, r2, #15
 396 00a6 D2B2     		uxtb	r2, r2
 397 00a8 83F88E21 		strb	r2, [r3, #398]
 114:.\PrimeImpl.c ****         pjob->_ppump->_rxbuffer[0x07] = (pjob->_ppump->_rxbuffer[0x07] & 0x0F);
ARM GAS  C:\Users\RECEPC~1\AppData\Local\Temp\ccvxjDo6.s 			page 10


 398              		.loc 1 114 0
 399 00ac FB68     		ldr	r3, [r7, #12]
 400 00ae DB69     		ldr	r3, [r3, #28]
 401 00b0 FA68     		ldr	r2, [r7, #12]
 402 00b2 D269     		ldr	r2, [r2, #28]
 403 00b4 92F88F21 		ldrb	r2, [r2, #399]	@ zero_extendqisi2
 404 00b8 02F00F02 		and	r2, r2, #15
 405 00bc D2B2     		uxtb	r2, r2
 406 00be 83F88F21 		strb	r2, [r3, #399]
 115:.\PrimeImpl.c ****         pjob->_ppump->_rtmoneyamount = LSDBCDBUFF2HEX(PBYTECAST(&pjob->_ppump->_rxbuffer[0x00]), 0x
 407              		.loc 1 115 0
 408 00c2 FB68     		ldr	r3, [r7, #12]
 409 00c4 DC69     		ldr	r4, [r3, #28]
 410 00c6 FB68     		ldr	r3, [r7, #12]
 411 00c8 DB69     		ldr	r3, [r3, #28]
 412 00ca 03F5C473 		add	r3, r3, #392
 413 00ce 1846     		mov	r0, r3
 414 00d0 0821     		movs	r1, #8
 415 00d2 FFF7FEFF 		bl	LSDBCDBUFF2HEX
 416 00d6 0346     		mov	r3, r0
 417 00d8 2361     		str	r3, [r4, #16]
 418              	.L16:
 116:.\PrimeImpl.c ****     }
 117:.\PrimeImpl.c **** }
 419              		.loc 1 117 0
 420 00da 1437     		adds	r7, r7, #20
 421              		.cfi_def_cfa_offset 12
 422 00dc BD46     		mov	sp, r7
 423              		.cfi_def_cfa_register 13
 424              		@ sp needed
 425 00de 90BD     		pop	{r4, r7, pc}
 426              		.cfi_endproc
 427              	.LFE65:
 428              		.size	ProcessPumpRTMoneyRequest, .-ProcessPumpRTMoneyRequest
 429              		.section	.text.ProcessPumpRTHoseVolumeRequest,"ax",%progbits
 430              		.align	2
 431              		.global	ProcessPumpRTHoseVolumeRequest
 432              		.thumb
 433              		.thumb_func
 434              		.type	ProcessPumpRTHoseVolumeRequest, %function
 435              	ProcessPumpRTHoseVolumeRequest:
 436              	.LFB66:
 118:.\PrimeImpl.c **** 
 119:.\PrimeImpl.c **** void ProcessPumpRTHoseVolumeRequest(void *pparam)
 120:.\PrimeImpl.c **** {
 437              		.loc 1 120 0
 438              		.cfi_startproc
 439              		@ args = 0, pretend = 0, frame = 16
 440              		@ frame_needed = 1, uses_anonymous_args = 0
 441 0000 90B5     		push	{r4, r7, lr}
 442              		.cfi_def_cfa_offset 12
 443              		.cfi_offset 4, -12
 444              		.cfi_offset 7, -8
 445              		.cfi_offset 14, -4
 446 0002 85B0     		sub	sp, sp, #20
 447              		.cfi_def_cfa_offset 32
 448 0004 00AF     		add	r7, sp, #0
ARM GAS  C:\Users\RECEPC~1\AppData\Local\Temp\ccvxjDo6.s 			page 11


 449              		.cfi_def_cfa_register 7
 450 0006 7860     		str	r0, [r7, #4]
 121:.\PrimeImpl.c ****     PPUMPTRANSACTIONJOBCONTEXTPTR pjob = (PPUMPTRANSACTIONJOBCONTEXTPTR)pparam;
 451              		.loc 1 121 0
 452 0008 7B68     		ldr	r3, [r7, #4]
 453 000a FB60     		str	r3, [r7, #12]
 122:.\PrimeImpl.c ****     if(pjob)
 454              		.loc 1 122 0
 455 000c FB68     		ldr	r3, [r7, #12]
 456 000e 002B     		cmp	r3, #0
 457 0010 6DD0     		beq	.L18
 123:.\PrimeImpl.c ****     {
 124:.\PrimeImpl.c ****         pjob->_ppump->_currenthose = (pjob->_ppump->_rxbuffer[0x00] & 0x0F);//Real Time Hose Data
 458              		.loc 1 124 0
 459 0012 FB68     		ldr	r3, [r7, #12]
 460 0014 DB69     		ldr	r3, [r3, #28]
 461 0016 FA68     		ldr	r2, [r7, #12]
 462 0018 D269     		ldr	r2, [r2, #28]
 463 001a 92F88821 		ldrb	r2, [r2, #392]	@ zero_extendqisi2
 464 001e 02F00F02 		and	r2, r2, #15
 465 0022 D2B2     		uxtb	r2, r2
 466 0024 DA70     		strb	r2, [r3, #3]
 125:.\PrimeImpl.c ****         
 126:.\PrimeImpl.c ****         //Bytes from index 1 to 8 are the digits for the Real Time Volume Data in BCD format
 127:.\PrimeImpl.c ****         pjob->_ppump->_rxbuffer[0x01] = (pjob->_ppump->_rxbuffer[0x01] & 0x0F);
 467              		.loc 1 127 0
 468 0026 FB68     		ldr	r3, [r7, #12]
 469 0028 DB69     		ldr	r3, [r3, #28]
 470 002a FA68     		ldr	r2, [r7, #12]
 471 002c D269     		ldr	r2, [r2, #28]
 472 002e 92F88921 		ldrb	r2, [r2, #393]	@ zero_extendqisi2
 473 0032 02F00F02 		and	r2, r2, #15
 474 0036 D2B2     		uxtb	r2, r2
 475 0038 83F88921 		strb	r2, [r3, #393]
 128:.\PrimeImpl.c ****         pjob->_ppump->_rxbuffer[0x02] = (pjob->_ppump->_rxbuffer[0x02] & 0x0F);
 476              		.loc 1 128 0
 477 003c FB68     		ldr	r3, [r7, #12]
 478 003e DB69     		ldr	r3, [r3, #28]
 479 0040 FA68     		ldr	r2, [r7, #12]
 480 0042 D269     		ldr	r2, [r2, #28]
 481 0044 92F88A21 		ldrb	r2, [r2, #394]	@ zero_extendqisi2
 482 0048 02F00F02 		and	r2, r2, #15
 483 004c D2B2     		uxtb	r2, r2
 484 004e 83F88A21 		strb	r2, [r3, #394]
 129:.\PrimeImpl.c ****         pjob->_ppump->_rxbuffer[0x03] = (pjob->_ppump->_rxbuffer[0x03] & 0x0F);
 485              		.loc 1 129 0
 486 0052 FB68     		ldr	r3, [r7, #12]
 487 0054 DB69     		ldr	r3, [r3, #28]
 488 0056 FA68     		ldr	r2, [r7, #12]
 489 0058 D269     		ldr	r2, [r2, #28]
 490 005a 92F88B21 		ldrb	r2, [r2, #395]	@ zero_extendqisi2
 491 005e 02F00F02 		and	r2, r2, #15
 492 0062 D2B2     		uxtb	r2, r2
 493 0064 83F88B21 		strb	r2, [r3, #395]
 130:.\PrimeImpl.c ****         pjob->_ppump->_rxbuffer[0x04] = (pjob->_ppump->_rxbuffer[0x04] & 0x0F);
 494              		.loc 1 130 0
 495 0068 FB68     		ldr	r3, [r7, #12]
ARM GAS  C:\Users\RECEPC~1\AppData\Local\Temp\ccvxjDo6.s 			page 12


 496 006a DB69     		ldr	r3, [r3, #28]
 497 006c FA68     		ldr	r2, [r7, #12]
 498 006e D269     		ldr	r2, [r2, #28]
 499 0070 92F88C21 		ldrb	r2, [r2, #396]	@ zero_extendqisi2
 500 0074 02F00F02 		and	r2, r2, #15
 501 0078 D2B2     		uxtb	r2, r2
 502 007a 83F88C21 		strb	r2, [r3, #396]
 131:.\PrimeImpl.c ****         pjob->_ppump->_rxbuffer[0x05] = (pjob->_ppump->_rxbuffer[0x05] & 0x0F);
 503              		.loc 1 131 0
 504 007e FB68     		ldr	r3, [r7, #12]
 505 0080 DB69     		ldr	r3, [r3, #28]
 506 0082 FA68     		ldr	r2, [r7, #12]
 507 0084 D269     		ldr	r2, [r2, #28]
 508 0086 92F88D21 		ldrb	r2, [r2, #397]	@ zero_extendqisi2
 509 008a 02F00F02 		and	r2, r2, #15
 510 008e D2B2     		uxtb	r2, r2
 511 0090 83F88D21 		strb	r2, [r3, #397]
 132:.\PrimeImpl.c ****         pjob->_ppump->_rxbuffer[0x06] = (pjob->_ppump->_rxbuffer[0x06] & 0x0F);
 512              		.loc 1 132 0
 513 0094 FB68     		ldr	r3, [r7, #12]
 514 0096 DB69     		ldr	r3, [r3, #28]
 515 0098 FA68     		ldr	r2, [r7, #12]
 516 009a D269     		ldr	r2, [r2, #28]
 517 009c 92F88E21 		ldrb	r2, [r2, #398]	@ zero_extendqisi2
 518 00a0 02F00F02 		and	r2, r2, #15
 519 00a4 D2B2     		uxtb	r2, r2
 520 00a6 83F88E21 		strb	r2, [r3, #398]
 133:.\PrimeImpl.c ****         pjob->_ppump->_rxbuffer[0x07] = (pjob->_ppump->_rxbuffer[0x07] & 0x0F);
 521              		.loc 1 133 0
 522 00aa FB68     		ldr	r3, [r7, #12]
 523 00ac DB69     		ldr	r3, [r3, #28]
 524 00ae FA68     		ldr	r2, [r7, #12]
 525 00b0 D269     		ldr	r2, [r2, #28]
 526 00b2 92F88F21 		ldrb	r2, [r2, #399]	@ zero_extendqisi2
 527 00b6 02F00F02 		and	r2, r2, #15
 528 00ba D2B2     		uxtb	r2, r2
 529 00bc 83F88F21 		strb	r2, [r3, #399]
 134:.\PrimeImpl.c ****         pjob->_ppump->_rxbuffer[0x08] = (pjob->_ppump->_rxbuffer[0x08] & 0x0F);
 530              		.loc 1 134 0
 531 00c0 FB68     		ldr	r3, [r7, #12]
 532 00c2 DB69     		ldr	r3, [r3, #28]
 533 00c4 FA68     		ldr	r2, [r7, #12]
 534 00c6 D269     		ldr	r2, [r2, #28]
 535 00c8 92F89021 		ldrb	r2, [r2, #400]	@ zero_extendqisi2
 536 00cc 02F00F02 		and	r2, r2, #15
 537 00d0 D2B2     		uxtb	r2, r2
 538 00d2 83F89021 		strb	r2, [r3, #400]
 135:.\PrimeImpl.c ****         pjob->_ppump->_rtvolumeamount = LSDBCDBUFF2HEX(PBYTECAST(&pjob->_ppump->_rxbuffer[0x01]), 0
 539              		.loc 1 135 0
 540 00d6 FB68     		ldr	r3, [r7, #12]
 541 00d8 DC69     		ldr	r4, [r3, #28]
 542 00da FB68     		ldr	r3, [r7, #12]
 543 00dc DB69     		ldr	r3, [r3, #28]
 544 00de 03F28913 		addw	r3, r3, #393
 545 00e2 1846     		mov	r0, r3
 546 00e4 0821     		movs	r1, #8
 547 00e6 FFF7FEFF 		bl	LSDBCDBUFF2HEX
ARM GAS  C:\Users\RECEPC~1\AppData\Local\Temp\ccvxjDo6.s 			page 13


 548 00ea 0346     		mov	r3, r0
 549 00ec 6361     		str	r3, [r4, #20]
 550              	.L18:
 136:.\PrimeImpl.c ****     }
 137:.\PrimeImpl.c **** }
 551              		.loc 1 137 0
 552 00ee 1437     		adds	r7, r7, #20
 553              		.cfi_def_cfa_offset 12
 554 00f0 BD46     		mov	sp, r7
 555              		.cfi_def_cfa_register 13
 556              		@ sp needed
 557 00f2 90BD     		pop	{r4, r7, pc}
 558              		.cfi_endproc
 559              	.LFE66:
 560              		.size	ProcessPumpRTHoseVolumeRequest, .-ProcessPumpRTHoseVolumeRequest
 561              		.section	.text.ProcessPumpRTHoseVolumeRequestGlobal,"ax",%progbits
 562              		.align	2
 563              		.global	ProcessPumpRTHoseVolumeRequestGlobal
 564              		.thumb
 565              		.thumb_func
 566              		.type	ProcessPumpRTHoseVolumeRequestGlobal, %function
 567              	ProcessPumpRTHoseVolumeRequestGlobal:
 568              	.LFB67:
 138:.\PrimeImpl.c **** 
 139:.\PrimeImpl.c **** void ProcessPumpRTHoseVolumeRequestGlobal(void *pparam)
 140:.\PrimeImpl.c **** {
 569              		.loc 1 140 0
 570              		.cfi_startproc
 571              		@ args = 0, pretend = 0, frame = 16
 572              		@ frame_needed = 1, uses_anonymous_args = 0
 573 0000 80B5     		push	{r7, lr}
 574              		.cfi_def_cfa_offset 8
 575              		.cfi_offset 7, -8
 576              		.cfi_offset 14, -4
 577 0002 84B0     		sub	sp, sp, #16
 578              		.cfi_def_cfa_offset 24
 579 0004 00AF     		add	r7, sp, #0
 580              		.cfi_def_cfa_register 7
 581 0006 7860     		str	r0, [r7, #4]
 141:.\PrimeImpl.c ****     PPUMPTRANSACTIONJOBCONTEXTPTR pjob = (PPUMPTRANSACTIONJOBCONTEXTPTR)pparam;
 582              		.loc 1 141 0
 583 0008 7B68     		ldr	r3, [r7, #4]
 584 000a FB60     		str	r3, [r7, #12]
 142:.\PrimeImpl.c ****     if(pjob)
 585              		.loc 1 142 0
 586 000c FB68     		ldr	r3, [r7, #12]
 587 000e 002B     		cmp	r3, #0
 588 0010 20D0     		beq	.L20
 143:.\PrimeImpl.c ****     {
 144:.\PrimeImpl.c ****         pjob->_ppump->_currenthose = (pjob->_ppump->_rxbuffer[0x00] & 0x0F);//Real Time Hose Data
 589              		.loc 1 144 0
 590 0012 FB68     		ldr	r3, [r7, #12]
 591 0014 DB69     		ldr	r3, [r3, #28]
 592 0016 FA68     		ldr	r2, [r7, #12]
 593 0018 D269     		ldr	r2, [r2, #28]
 594 001a 92F88821 		ldrb	r2, [r2, #392]	@ zero_extendqisi2
 595 001e 02F00F02 		and	r2, r2, #15
ARM GAS  C:\Users\RECEPC~1\AppData\Local\Temp\ccvxjDo6.s 			page 14


 596 0022 D2B2     		uxtb	r2, r2
 597 0024 DA70     		strb	r2, [r3, #3]
 145:.\PrimeImpl.c ****         
 146:.\PrimeImpl.c ****         if(pjob->_ppump->_authorizationinfo._hoseid != pjob->_ppump->_currenthose)
 598              		.loc 1 146 0
 599 0026 FB68     		ldr	r3, [r7, #12]
 600 0028 DB69     		ldr	r3, [r3, #28]
 601 002a 93F87A3B 		ldrb	r3, [r3, #2938]
 602 002e DAB2     		uxtb	r2, r3
 603 0030 FB68     		ldr	r3, [r7, #12]
 604 0032 DB69     		ldr	r3, [r3, #28]
 605 0034 DB78     		ldrb	r3, [r3, #3]
 606 0036 DBB2     		uxtb	r3, r3
 607 0038 9A42     		cmp	r2, r3
 608 003a 08D0     		beq	.L22
 147:.\PrimeImpl.c ****         {
 148:.\PrimeImpl.c ****             pjob->_reenqueue = false;
 609              		.loc 1 148 0
 610 003c FB68     		ldr	r3, [r7, #12]
 611 003e 0022     		movs	r2, #0
 612 0040 1A70     		strb	r2, [r3]
 149:.\PrimeImpl.c ****             ComplementaryCreditTransactionOnHose(pjob->_ppump);
 613              		.loc 1 149 0
 614 0042 FB68     		ldr	r3, [r7, #12]
 615 0044 DB69     		ldr	r3, [r3, #28]
 616 0046 1846     		mov	r0, r3
 617 0048 FFF7FEFF 		bl	ComplementaryCreditTransactionOnHose
 618 004c 02E0     		b	.L20
 619              	.L22:
 150:.\PrimeImpl.c ****         }else
 151:.\PrimeImpl.c ****             pjob->_reenqueue = true;
 620              		.loc 1 151 0
 621 004e FB68     		ldr	r3, [r7, #12]
 622 0050 0122     		movs	r2, #1
 623 0052 1A70     		strb	r2, [r3]
 624              	.L20:
 152:.\PrimeImpl.c ****     }
 153:.\PrimeImpl.c **** }
 625              		.loc 1 153 0
 626 0054 1037     		adds	r7, r7, #16
 627              		.cfi_def_cfa_offset 8
 628 0056 BD46     		mov	sp, r7
 629              		.cfi_def_cfa_register 13
 630              		@ sp needed
 631 0058 80BD     		pop	{r7, pc}
 632              		.cfi_endproc
 633              	.LFE67:
 634              		.size	ProcessPumpRTHoseVolumeRequestGlobal, .-ProcessPumpRTHoseVolumeRequestGlobal
 635 005a 00BF     		.section	.text.ProcessPumpTransactionData,"ax",%progbits
 636              		.align	2
 637              		.global	ProcessPumpTransactionData
 638              		.thumb
 639              		.thumb_func
 640              		.type	ProcessPumpTransactionData, %function
 641              	ProcessPumpTransactionData:
 642              	.LFB68:
 154:.\PrimeImpl.c **** 
ARM GAS  C:\Users\RECEPC~1\AppData\Local\Temp\ccvxjDo6.s 			page 15


 155:.\PrimeImpl.c **** void ProcessPumpTransactionData(void *pparam)
 156:.\PrimeImpl.c **** {
 643              		.loc 1 156 0
 644              		.cfi_startproc
 645              		@ args = 0, pretend = 0, frame = 24
 646              		@ frame_needed = 1, uses_anonymous_args = 0
 647 0000 B0B5     		push	{r4, r5, r7, lr}
 648              		.cfi_def_cfa_offset 16
 649              		.cfi_offset 4, -16
 650              		.cfi_offset 5, -12
 651              		.cfi_offset 7, -8
 652              		.cfi_offset 14, -4
 653 0002 86B0     		sub	sp, sp, #24
 654              		.cfi_def_cfa_offset 40
 655 0004 00AF     		add	r7, sp, #0
 656              		.cfi_def_cfa_register 7
 657 0006 7860     		str	r0, [r7, #4]
 157:.\PrimeImpl.c ****     PPUMPTRANSACTIONJOBCONTEXTPTR pjob = (PPUMPTRANSACTIONJOBCONTEXTPTR)pparam;
 658              		.loc 1 157 0
 659 0008 7B68     		ldr	r3, [r7, #4]
 660 000a 7B61     		str	r3, [r7, #20]
 158:.\PrimeImpl.c ****     if(pjob)
 661              		.loc 1 158 0
 662 000c 7B69     		ldr	r3, [r7, #20]
 663 000e 002B     		cmp	r3, #0
 664 0010 00F06D84 		beq	.L23
 665              	.LBB3:
 159:.\PrimeImpl.c ****     {        
 160:.\PrimeImpl.c ****         {
 161:.\PrimeImpl.c ****             pjob->_ppump->_rxbuffer[0x09] = (pjob->_ppump->_rxbuffer[0x09] & 0x0F);//Hose id
 666              		.loc 1 161 0
 667 0014 7B69     		ldr	r3, [r7, #20]
 668 0016 DB69     		ldr	r3, [r3, #28]
 669 0018 7A69     		ldr	r2, [r7, #20]
 670 001a D269     		ldr	r2, [r2, #28]
 671 001c 92F89121 		ldrb	r2, [r2, #401]	@ zero_extendqisi2
 672 0020 02F00F02 		and	r2, r2, #15
 673 0024 D2B2     		uxtb	r2, r2
 674 0026 83F89121 		strb	r2, [r3, #401]
 162:.\PrimeImpl.c ****             pjob->_ppump->_authorizationinfo._hoseid = pjob->_ppump->_rxbuffer[0x09];//Hose id
 675              		.loc 1 162 0
 676 002a 7B69     		ldr	r3, [r7, #20]
 677 002c DB69     		ldr	r3, [r3, #28]
 678 002e 7A69     		ldr	r2, [r7, #20]
 679 0030 D269     		ldr	r2, [r2, #28]
 680 0032 92F89121 		ldrb	r2, [r2, #401]	@ zero_extendqisi2
 681 0036 83F87A2B 		strb	r2, [r3, #2938]
 163:.\PrimeImpl.c ****             
 164:.\PrimeImpl.c ****             //In this position is located the payment type (CREDIT: 0x0E , CASH:0x0D)
 165:.\PrimeImpl.c ****             if(pjob->_ppump->_trasactionbuffer[0x00] == 0x0D)
 682              		.loc 1 165 0
 683 003a 7B69     		ldr	r3, [r7, #20]
 684 003c DB69     		ldr	r3, [r3, #28]
 685 003e 93F82030 		ldrb	r3, [r3, #32]	@ zero_extendqisi2
 686 0042 0D2B     		cmp	r3, #13
 687 0044 40F0E080 		bne	.L25
 688              	.LBB4:
ARM GAS  C:\Users\RECEPC~1\AppData\Local\Temp\ccvxjDo6.s 			page 16


 166:.\PrimeImpl.c ****             {
 167:.\PrimeImpl.c ****                 I2CBusLock();
 689              		.loc 1 167 0
 690 0048 FFF7FEFF 		bl	I2CBusLock
 168:.\PrimeImpl.c ****                 ClearEepromBuffer();
 691              		.loc 1 168 0
 692 004c FFF7FEFF 		bl	ClearEepromBuffer
 169:.\PrimeImpl.c ****                 uint16 eeprompage = DispenserGetEepromPPUPageFromPumpID(pjob->_ppump->_pumpid);
 693              		.loc 1 169 0
 694 0050 7B69     		ldr	r3, [r7, #20]
 695 0052 DB69     		ldr	r3, [r3, #28]
 696 0054 1B78     		ldrb	r3, [r3]	@ zero_extendqisi2
 697 0056 1846     		mov	r0, r3
 698 0058 FFF7FEFF 		bl	DispenserGetEepromPPUPageFromPumpID
 699 005c 0346     		mov	r3, r0
 700 005e 7B82     		strh	r3, [r7, #18]	@ movhi
 170:.\PrimeImpl.c ****                 LoadEepromPage(eeprompage);
 701              		.loc 1 170 0
 702 0060 7B8A     		ldrh	r3, [r7, #18]
 703 0062 1846     		mov	r0, r3
 704 0064 FFF7FEFF 		bl	LoadEepromPage
 171:.\PrimeImpl.c ****                 switch(pjob->_ppump->_authorizationinfo._hoseid)
 705              		.loc 1 171 0
 706 0068 7B69     		ldr	r3, [r7, #20]
 707 006a DB69     		ldr	r3, [r3, #28]
 708 006c 93F87A3B 		ldrb	r3, [r3, #2938]
 709 0070 DBB2     		uxtb	r3, r3
 710 0072 032B     		cmp	r3, #3
 711 0074 64D8     		bhi	.L26
 712 0076 01A2     		adr	r2, .L28
 713 0078 52F823F0 		ldr	pc, [r2, r3, lsl #2]
 714              		.p2align 2
 715              	.L28:
 716 007c 8D000000 		.word	.L27+1
 717 0080 B7000000 		.word	.L29+1
 718 0084 E5000000 		.word	.L30+1
 719 0088 13010000 		.word	.L31+1
 720              		.p2align 1
 721              	.L27:
 172:.\PrimeImpl.c ****                 {
 173:.\PrimeImpl.c ****                     case 0x00:
 174:.\PrimeImpl.c ****                     //Six bytes only since the PPU is constrained to this length
 175:.\PrimeImpl.c ****                     memcpy(PBYTECAST(&pjob->_ppump->_trasactionbuffer[GetBufferIndexFromDisplayID(D
 722              		.loc 1 175 0
 723 008c 7B69     		ldr	r3, [r7, #20]
 724 008e DC69     		ldr	r4, [r3, #28]
 725 0090 6520     		movs	r0, #101
 726 0092 FFF7FEFF 		bl	GetBufferIndexFromDisplayID
 727 0096 0346     		mov	r3, r0
 728 0098 2033     		adds	r3, r3, #32
 729 009a 1C44     		add	r4, r4, r3
 730 009c FFF7FEFF 		bl	GetEepromBuffer
 731 00a0 0546     		mov	r5, r0
 732 00a2 6520     		movs	r0, #101
 733 00a4 FFF7FEFF 		bl	GetBufferLengthFromDisplayID
 734 00a8 0346     		mov	r3, r0
 735 00aa 2046     		mov	r0, r4
ARM GAS  C:\Users\RECEPC~1\AppData\Local\Temp\ccvxjDo6.s 			page 17


 736 00ac 2946     		mov	r1, r5
 737 00ae 1A46     		mov	r2, r3
 738 00b0 FFF7FEFF 		bl	memcpy
 176:.\PrimeImpl.c ****                     break;
 739              		.loc 1 176 0
 740 00b4 44E0     		b	.L26
 741              	.L29:
 177:.\PrimeImpl.c ****                     case 0x01:
 178:.\PrimeImpl.c ****                     //Six bytes only since the PPU is constrained to this length
 179:.\PrimeImpl.c ****                     memcpy(PBYTECAST(&pjob->_ppump->_trasactionbuffer[GetBufferIndexFromDisplayID(D
 742              		.loc 1 179 0
 743 00b6 7B69     		ldr	r3, [r7, #20]
 744 00b8 DC69     		ldr	r4, [r3, #28]
 745 00ba 6520     		movs	r0, #101
 746 00bc FFF7FEFF 		bl	GetBufferIndexFromDisplayID
 747 00c0 0346     		mov	r3, r0
 748 00c2 2033     		adds	r3, r3, #32
 749 00c4 E518     		adds	r5, r4, r3
 750 00c6 FFF7FEFF 		bl	GetEepromBuffer
 751 00ca 0346     		mov	r3, r0
 752 00cc 03F11004 		add	r4, r3, #16
 753 00d0 6520     		movs	r0, #101
 754 00d2 FFF7FEFF 		bl	GetBufferLengthFromDisplayID
 755 00d6 0346     		mov	r3, r0
 756 00d8 2846     		mov	r0, r5
 757 00da 2146     		mov	r1, r4
 758 00dc 1A46     		mov	r2, r3
 759 00de FFF7FEFF 		bl	memcpy
 180:.\PrimeImpl.c ****                     break;
 760              		.loc 1 180 0
 761 00e2 2DE0     		b	.L26
 762              	.L30:
 181:.\PrimeImpl.c ****                     case 0x02:
 182:.\PrimeImpl.c ****                     //Six bytes only since the PPU is constrained to this length
 183:.\PrimeImpl.c ****                     memcpy(PBYTECAST(&pjob->_ppump->_trasactionbuffer[GetBufferIndexFromDisplayID(D
 763              		.loc 1 183 0
 764 00e4 7B69     		ldr	r3, [r7, #20]
 765 00e6 DC69     		ldr	r4, [r3, #28]
 766 00e8 6520     		movs	r0, #101
 767 00ea FFF7FEFF 		bl	GetBufferIndexFromDisplayID
 768 00ee 0346     		mov	r3, r0
 769 00f0 2033     		adds	r3, r3, #32
 770 00f2 E518     		adds	r5, r4, r3
 771 00f4 FFF7FEFF 		bl	GetEepromBuffer
 772 00f8 0346     		mov	r3, r0
 773 00fa 03F12004 		add	r4, r3, #32
 774 00fe 6520     		movs	r0, #101
 775 0100 FFF7FEFF 		bl	GetBufferLengthFromDisplayID
 776 0104 0346     		mov	r3, r0
 777 0106 2846     		mov	r0, r5
 778 0108 2146     		mov	r1, r4
 779 010a 1A46     		mov	r2, r3
 780 010c FFF7FEFF 		bl	memcpy
 184:.\PrimeImpl.c ****                     break;
 781              		.loc 1 184 0
 782 0110 16E0     		b	.L26
 783              	.L31:
ARM GAS  C:\Users\RECEPC~1\AppData\Local\Temp\ccvxjDo6.s 			page 18


 185:.\PrimeImpl.c ****                     case 0x03:
 186:.\PrimeImpl.c ****                     //Six bytes only since the PPU is constrained to this length
 187:.\PrimeImpl.c ****                     memcpy(PBYTECAST(&pjob->_ppump->_trasactionbuffer[GetBufferIndexFromDisplayID(D
 784              		.loc 1 187 0
 785 0112 7B69     		ldr	r3, [r7, #20]
 786 0114 DC69     		ldr	r4, [r3, #28]
 787 0116 6520     		movs	r0, #101
 788 0118 FFF7FEFF 		bl	GetBufferIndexFromDisplayID
 789 011c 0346     		mov	r3, r0
 790 011e 2033     		adds	r3, r3, #32
 791 0120 E518     		adds	r5, r4, r3
 792 0122 FFF7FEFF 		bl	GetEepromBuffer
 793 0126 0346     		mov	r3, r0
 794 0128 03F13004 		add	r4, r3, #48
 795 012c 6520     		movs	r0, #101
 796 012e FFF7FEFF 		bl	GetBufferLengthFromDisplayID
 797 0132 0346     		mov	r3, r0
 798 0134 2846     		mov	r0, r5
 799 0136 2146     		mov	r1, r4
 800 0138 1A46     		mov	r2, r3
 801 013a FFF7FEFF 		bl	memcpy
 188:.\PrimeImpl.c ****                     break;
 802              		.loc 1 188 0
 803 013e 00BF     		nop
 804              	.L26:
 189:.\PrimeImpl.c ****                 }
 190:.\PrimeImpl.c ****                 I2CBusUnlock();
 805              		.loc 1 190 0
 806 0140 FFF7FEFF 		bl	I2CBusUnlock
 191:.\PrimeImpl.c ****                 
 192:.\PrimeImpl.c ****                 memcpy(PBYTECAST(&pjob->_ppump->_rxbuffer[0x0C]), PBYTECAST(&pjob->_ppump->_trasact
 807              		.loc 1 192 0
 808 0144 7B69     		ldr	r3, [r7, #20]
 809 0146 DB69     		ldr	r3, [r3, #28]
 810 0148 03F5CA75 		add	r5, r3, #404
 811 014c 7B69     		ldr	r3, [r7, #20]
 812 014e DC69     		ldr	r4, [r3, #28]
 813 0150 6520     		movs	r0, #101
 814 0152 FFF7FEFF 		bl	GetBufferIndexFromDisplayID
 815 0156 0346     		mov	r3, r0
 816 0158 2033     		adds	r3, r3, #32
 817 015a 2344     		add	r3, r3, r4
 818 015c 2846     		mov	r0, r5
 819 015e 1946     		mov	r1, r3
 820 0160 0622     		movs	r2, #6
 821 0162 FFF7FEFF 		bl	memcpy
 193:.\PrimeImpl.c ****                 
 194:.\PrimeImpl.c ****                 //Bytes from index 12 to 17 are the digits for the PPU used for the transaction
 195:.\PrimeImpl.c ****                 //Digits are in BCD format
 196:.\PrimeImpl.c ****                 pjob->_ppump->_rxbuffer[0x0C] = (pjob->_ppump->_rxbuffer[0x0C] & 0x0F);
 822              		.loc 1 196 0
 823 0166 7B69     		ldr	r3, [r7, #20]
 824 0168 DB69     		ldr	r3, [r3, #28]
 825 016a 7A69     		ldr	r2, [r7, #20]
 826 016c D269     		ldr	r2, [r2, #28]
 827 016e 92F89421 		ldrb	r2, [r2, #404]	@ zero_extendqisi2
 828 0172 02F00F02 		and	r2, r2, #15
ARM GAS  C:\Users\RECEPC~1\AppData\Local\Temp\ccvxjDo6.s 			page 19


 829 0176 D2B2     		uxtb	r2, r2
 830 0178 83F89421 		strb	r2, [r3, #404]
 197:.\PrimeImpl.c ****                 pjob->_ppump->_rxbuffer[0x0D] = (pjob->_ppump->_rxbuffer[0x0D] & 0x0F);
 831              		.loc 1 197 0
 832 017c 7B69     		ldr	r3, [r7, #20]
 833 017e DB69     		ldr	r3, [r3, #28]
 834 0180 7A69     		ldr	r2, [r7, #20]
 835 0182 D269     		ldr	r2, [r2, #28]
 836 0184 92F89521 		ldrb	r2, [r2, #405]	@ zero_extendqisi2
 837 0188 02F00F02 		and	r2, r2, #15
 838 018c D2B2     		uxtb	r2, r2
 839 018e 83F89521 		strb	r2, [r3, #405]
 198:.\PrimeImpl.c ****                 pjob->_ppump->_rxbuffer[0x0E] = (pjob->_ppump->_rxbuffer[0x0E] & 0x0F);
 840              		.loc 1 198 0
 841 0192 7B69     		ldr	r3, [r7, #20]
 842 0194 DB69     		ldr	r3, [r3, #28]
 843 0196 7A69     		ldr	r2, [r7, #20]
 844 0198 D269     		ldr	r2, [r2, #28]
 845 019a 92F89621 		ldrb	r2, [r2, #406]	@ zero_extendqisi2
 846 019e 02F00F02 		and	r2, r2, #15
 847 01a2 D2B2     		uxtb	r2, r2
 848 01a4 83F89621 		strb	r2, [r3, #406]
 199:.\PrimeImpl.c ****                 pjob->_ppump->_rxbuffer[0x0F] = (pjob->_ppump->_rxbuffer[0x0F] & 0x0F);
 849              		.loc 1 199 0
 850 01a8 7B69     		ldr	r3, [r7, #20]
 851 01aa DB69     		ldr	r3, [r3, #28]
 852 01ac 7A69     		ldr	r2, [r7, #20]
 853 01ae D269     		ldr	r2, [r2, #28]
 854 01b0 92F89721 		ldrb	r2, [r2, #407]	@ zero_extendqisi2
 855 01b4 02F00F02 		and	r2, r2, #15
 856 01b8 D2B2     		uxtb	r2, r2
 857 01ba 83F89721 		strb	r2, [r3, #407]
 200:.\PrimeImpl.c ****                 pjob->_ppump->_rxbuffer[0x10] = (pjob->_ppump->_rxbuffer[0x10] & 0x0F);
 858              		.loc 1 200 0
 859 01be 7B69     		ldr	r3, [r7, #20]
 860 01c0 DB69     		ldr	r3, [r3, #28]
 861 01c2 7A69     		ldr	r2, [r7, #20]
 862 01c4 D269     		ldr	r2, [r2, #28]
 863 01c6 92F89821 		ldrb	r2, [r2, #408]	@ zero_extendqisi2
 864 01ca 02F00F02 		and	r2, r2, #15
 865 01ce D2B2     		uxtb	r2, r2
 866 01d0 83F89821 		strb	r2, [r3, #408]
 201:.\PrimeImpl.c ****                 pjob->_ppump->_rxbuffer[0x11] = (pjob->_ppump->_rxbuffer[0x11] & 0x0F);
 867              		.loc 1 201 0
 868 01d4 7B69     		ldr	r3, [r7, #20]
 869 01d6 DB69     		ldr	r3, [r3, #28]
 870 01d8 7A69     		ldr	r2, [r7, #20]
 871 01da D269     		ldr	r2, [r2, #28]
 872 01dc 92F89921 		ldrb	r2, [r2, #409]	@ zero_extendqisi2
 873 01e0 02F00F02 		and	r2, r2, #15
 874 01e4 D2B2     		uxtb	r2, r2
 875 01e6 83F89921 		strb	r2, [r3, #409]
 202:.\PrimeImpl.c ****                 pjob->_ppump->_authorizationinfo._price = LSDBCDBUFF2HEX(PBYTECAST(&pjob->_ppump->_
 876              		.loc 1 202 0
 877 01ea 7B69     		ldr	r3, [r7, #20]
 878 01ec DC69     		ldr	r4, [r3, #28]
 879 01ee 7B69     		ldr	r3, [r7, #20]
ARM GAS  C:\Users\RECEPC~1\AppData\Local\Temp\ccvxjDo6.s 			page 20


 880 01f0 DB69     		ldr	r3, [r3, #28]
 881 01f2 03F5CA73 		add	r3, r3, #404
 882 01f6 1846     		mov	r0, r3
 883 01f8 0621     		movs	r1, #6
 884 01fa FFF7FEFF 		bl	LSDBCDBUFF2HEX
 885 01fe 0346     		mov	r3, r0
 886 0200 9BB2     		uxth	r3, r3
 887 0202 A4F87C3B 		strh	r3, [r4, #2940]	@ movhi
 888              	.LBE4:
 889 0206 41E0     		b	.L32
 890              	.L25:
 203:.\PrimeImpl.c ****                 
 204:.\PrimeImpl.c ****             }
 205:.\PrimeImpl.c ****             else
 206:.\PrimeImpl.c ****             {
 207:.\PrimeImpl.c ****                 pjob->_ppump->_rxbuffer[0x0C] = (pjob->_ppump->_rxbuffer[0x0C] & 0x0F);
 891              		.loc 1 207 0
 892 0208 7B69     		ldr	r3, [r7, #20]
 893 020a DB69     		ldr	r3, [r3, #28]
 894 020c 7A69     		ldr	r2, [r7, #20]
 895 020e D269     		ldr	r2, [r2, #28]
 896 0210 92F89421 		ldrb	r2, [r2, #404]	@ zero_extendqisi2
 897 0214 02F00F02 		and	r2, r2, #15
 898 0218 D2B2     		uxtb	r2, r2
 899 021a 83F89421 		strb	r2, [r3, #404]
 208:.\PrimeImpl.c ****                 pjob->_ppump->_rxbuffer[0x0D] = (pjob->_ppump->_rxbuffer[0x0D] & 0x0F);
 900              		.loc 1 208 0
 901 021e 7B69     		ldr	r3, [r7, #20]
 902 0220 DB69     		ldr	r3, [r3, #28]
 903 0222 7A69     		ldr	r2, [r7, #20]
 904 0224 D269     		ldr	r2, [r2, #28]
 905 0226 92F89521 		ldrb	r2, [r2, #405]	@ zero_extendqisi2
 906 022a 02F00F02 		and	r2, r2, #15
 907 022e D2B2     		uxtb	r2, r2
 908 0230 83F89521 		strb	r2, [r3, #405]
 209:.\PrimeImpl.c ****                 pjob->_ppump->_rxbuffer[0x0E] = (pjob->_ppump->_rxbuffer[0x0E] & 0x0F);
 909              		.loc 1 209 0
 910 0234 7B69     		ldr	r3, [r7, #20]
 911 0236 DB69     		ldr	r3, [r3, #28]
 912 0238 7A69     		ldr	r2, [r7, #20]
 913 023a D269     		ldr	r2, [r2, #28]
 914 023c 92F89621 		ldrb	r2, [r2, #406]	@ zero_extendqisi2
 915 0240 02F00F02 		and	r2, r2, #15
 916 0244 D2B2     		uxtb	r2, r2
 917 0246 83F89621 		strb	r2, [r3, #406]
 210:.\PrimeImpl.c ****                 pjob->_ppump->_rxbuffer[0x0F] = (pjob->_ppump->_rxbuffer[0x0F] & 0x0F);
 918              		.loc 1 210 0
 919 024a 7B69     		ldr	r3, [r7, #20]
 920 024c DB69     		ldr	r3, [r3, #28]
 921 024e 7A69     		ldr	r2, [r7, #20]
 922 0250 D269     		ldr	r2, [r2, #28]
 923 0252 92F89721 		ldrb	r2, [r2, #407]	@ zero_extendqisi2
 924 0256 02F00F02 		and	r2, r2, #15
 925 025a D2B2     		uxtb	r2, r2
 926 025c 83F89721 		strb	r2, [r3, #407]
 211:.\PrimeImpl.c ****                 pjob->_ppump->_rxbuffer[0x10] = (pjob->_ppump->_rxbuffer[0x10] & 0x0F);
 927              		.loc 1 211 0
ARM GAS  C:\Users\RECEPC~1\AppData\Local\Temp\ccvxjDo6.s 			page 21


 928 0260 7B69     		ldr	r3, [r7, #20]
 929 0262 DB69     		ldr	r3, [r3, #28]
 930 0264 7A69     		ldr	r2, [r7, #20]
 931 0266 D269     		ldr	r2, [r2, #28]
 932 0268 92F89821 		ldrb	r2, [r2, #408]	@ zero_extendqisi2
 933 026c 02F00F02 		and	r2, r2, #15
 934 0270 D2B2     		uxtb	r2, r2
 935 0272 83F89821 		strb	r2, [r3, #408]
 212:.\PrimeImpl.c ****                 pjob->_ppump->_rxbuffer[0x11] = (pjob->_ppump->_rxbuffer[0x11] & 0x0F);
 936              		.loc 1 212 0
 937 0276 7B69     		ldr	r3, [r7, #20]
 938 0278 DB69     		ldr	r3, [r3, #28]
 939 027a 7A69     		ldr	r2, [r7, #20]
 940 027c D269     		ldr	r2, [r2, #28]
 941 027e 92F89921 		ldrb	r2, [r2, #409]	@ zero_extendqisi2
 942 0282 02F00F02 		and	r2, r2, #15
 943 0286 D2B2     		uxtb	r2, r2
 944 0288 83F89921 		strb	r2, [r3, #409]
 945              	.L32:
 213:.\PrimeImpl.c ****             }
 214:.\PrimeImpl.c ****             
 215:.\PrimeImpl.c ****             #ifdef _FDBD65F5_2FFE_4AA7_9C5F_F70414D772FF_
 216:.\PrimeImpl.c ****             memset(&pjob->_ppump->_rxbuffer[0x13], 0x00, 0x08);
 946              		.loc 1 216 0
 947 028c 7B69     		ldr	r3, [r7, #20]
 948 028e DB69     		ldr	r3, [r3, #28]
 949 0290 03F29B13 		addw	r3, r3, #411
 950 0294 1846     		mov	r0, r3
 951 0296 0021     		movs	r1, #0
 952 0298 0822     		movs	r2, #8
 953 029a FFF7FEFF 		bl	memset
 217:.\PrimeImpl.c ****             B78AD90CF552D9B30A(pjob->_ppump->_rtvolumeamount, (PNEAR_BYTE_PTR)&pjob->_ppump->_rxbuf
 954              		.loc 1 217 0
 955 029e 7B69     		ldr	r3, [r7, #20]
 956 02a0 DB69     		ldr	r3, [r3, #28]
 957 02a2 5B69     		ldr	r3, [r3, #20]
 958 02a4 1A46     		mov	r2, r3
 959 02a6 4FF00003 		mov	r3, #0
 960 02aa 7969     		ldr	r1, [r7, #20]
 961 02ac C969     		ldr	r1, [r1, #28]
 962 02ae 01F29B14 		addw	r4, r1, #411
 963 02b2 1046     		mov	r0, r2
 964 02b4 1946     		mov	r1, r3
 965 02b6 2246     		mov	r2, r4
 966 02b8 FFF7FEFF 		bl	B78AD90CF552D9B30A
 218:.\PrimeImpl.c ****             memset(&pjob->_ppump->_rxbuffer[0x1C], 0x00, 0x08);
 967              		.loc 1 218 0
 968 02bc 7B69     		ldr	r3, [r7, #20]
 969 02be DB69     		ldr	r3, [r3, #28]
 970 02c0 03F5D273 		add	r3, r3, #420
 971 02c4 1846     		mov	r0, r3
 972 02c6 0021     		movs	r1, #0
 973 02c8 0822     		movs	r2, #8
 974 02ca FFF7FEFF 		bl	memset
 219:.\PrimeImpl.c ****             B78AD90CF552D9B30A(pjob->_ppump->_rtmoneyamount, (PNEAR_BYTE_PTR)&pjob->_ppump->_rxbuff
 975              		.loc 1 219 0
 976 02ce 7B69     		ldr	r3, [r7, #20]
ARM GAS  C:\Users\RECEPC~1\AppData\Local\Temp\ccvxjDo6.s 			page 22


 977 02d0 DB69     		ldr	r3, [r3, #28]
 978 02d2 1B69     		ldr	r3, [r3, #16]
 979 02d4 1A46     		mov	r2, r3
 980 02d6 4FF00003 		mov	r3, #0
 981 02da 7969     		ldr	r1, [r7, #20]
 982 02dc C969     		ldr	r1, [r1, #28]
 983 02de 01F2A514 		addw	r4, r1, #421
 984 02e2 1046     		mov	r0, r2
 985 02e4 1946     		mov	r1, r3
 986 02e6 2246     		mov	r2, r4
 987 02e8 FFF7FEFF 		bl	B78AD90CF552D9B30A
 220:.\PrimeImpl.c ****             #endif
 221:.\PrimeImpl.c **** 
 222:.\PrimeImpl.c ****             //Bytes from index 19 to 26 are the digits for the fuel volume delivered in the transac
 223:.\PrimeImpl.c ****             //Digits are in BCD format
 224:.\PrimeImpl.c ****             pjob->_ppump->_rxbuffer[0x13] = (pjob->_ppump->_rxbuffer[0x13] & 0x0F);
 988              		.loc 1 224 0
 989 02ec 7B69     		ldr	r3, [r7, #20]
 990 02ee DB69     		ldr	r3, [r3, #28]
 991 02f0 7A69     		ldr	r2, [r7, #20]
 992 02f2 D269     		ldr	r2, [r2, #28]
 993 02f4 92F89B21 		ldrb	r2, [r2, #411]	@ zero_extendqisi2
 994 02f8 02F00F02 		and	r2, r2, #15
 995 02fc D2B2     		uxtb	r2, r2
 996 02fe 83F89B21 		strb	r2, [r3, #411]
 225:.\PrimeImpl.c ****             pjob->_ppump->_rxbuffer[0x14] = (pjob->_ppump->_rxbuffer[0x14] & 0x0F);
 997              		.loc 1 225 0
 998 0302 7B69     		ldr	r3, [r7, #20]
 999 0304 DB69     		ldr	r3, [r3, #28]
 1000 0306 7A69     		ldr	r2, [r7, #20]
 1001 0308 D269     		ldr	r2, [r2, #28]
 1002 030a 92F89C21 		ldrb	r2, [r2, #412]	@ zero_extendqisi2
 1003 030e 02F00F02 		and	r2, r2, #15
 1004 0312 D2B2     		uxtb	r2, r2
 1005 0314 83F89C21 		strb	r2, [r3, #412]
 226:.\PrimeImpl.c ****             pjob->_ppump->_rxbuffer[0x15] = (pjob->_ppump->_rxbuffer[0x15] & 0x0F);
 1006              		.loc 1 226 0
 1007 0318 7B69     		ldr	r3, [r7, #20]
 1008 031a DB69     		ldr	r3, [r3, #28]
 1009 031c 7A69     		ldr	r2, [r7, #20]
 1010 031e D269     		ldr	r2, [r2, #28]
 1011 0320 92F89D21 		ldrb	r2, [r2, #413]	@ zero_extendqisi2
 1012 0324 02F00F02 		and	r2, r2, #15
 1013 0328 D2B2     		uxtb	r2, r2
 1014 032a 83F89D21 		strb	r2, [r3, #413]
 227:.\PrimeImpl.c ****             pjob->_ppump->_rxbuffer[0x16] = (pjob->_ppump->_rxbuffer[0x16] & 0x0F);
 1015              		.loc 1 227 0
 1016 032e 7B69     		ldr	r3, [r7, #20]
 1017 0330 DB69     		ldr	r3, [r3, #28]
 1018 0332 7A69     		ldr	r2, [r7, #20]
 1019 0334 D269     		ldr	r2, [r2, #28]
 1020 0336 92F89E21 		ldrb	r2, [r2, #414]	@ zero_extendqisi2
 1021 033a 02F00F02 		and	r2, r2, #15
 1022 033e D2B2     		uxtb	r2, r2
 1023 0340 83F89E21 		strb	r2, [r3, #414]
 228:.\PrimeImpl.c ****             pjob->_ppump->_rxbuffer[0x17] = (pjob->_ppump->_rxbuffer[0x17] & 0x0F);
 1024              		.loc 1 228 0
ARM GAS  C:\Users\RECEPC~1\AppData\Local\Temp\ccvxjDo6.s 			page 23


 1025 0344 7B69     		ldr	r3, [r7, #20]
 1026 0346 DB69     		ldr	r3, [r3, #28]
 1027 0348 7A69     		ldr	r2, [r7, #20]
 1028 034a D269     		ldr	r2, [r2, #28]
 1029 034c 92F89F21 		ldrb	r2, [r2, #415]	@ zero_extendqisi2
 1030 0350 02F00F02 		and	r2, r2, #15
 1031 0354 D2B2     		uxtb	r2, r2
 1032 0356 83F89F21 		strb	r2, [r3, #415]
 229:.\PrimeImpl.c ****             pjob->_ppump->_rxbuffer[0x18] = (pjob->_ppump->_rxbuffer[0x18] & 0x0F);
 1033              		.loc 1 229 0
 1034 035a 7B69     		ldr	r3, [r7, #20]
 1035 035c DB69     		ldr	r3, [r3, #28]
 1036 035e 7A69     		ldr	r2, [r7, #20]
 1037 0360 D269     		ldr	r2, [r2, #28]
 1038 0362 92F8A021 		ldrb	r2, [r2, #416]	@ zero_extendqisi2
 1039 0366 02F00F02 		and	r2, r2, #15
 1040 036a D2B2     		uxtb	r2, r2
 1041 036c 83F8A021 		strb	r2, [r3, #416]
 230:.\PrimeImpl.c ****             pjob->_ppump->_rxbuffer[0x19] = (pjob->_ppump->_rxbuffer[0x19] & 0x0F);
 1042              		.loc 1 230 0
 1043 0370 7B69     		ldr	r3, [r7, #20]
 1044 0372 DB69     		ldr	r3, [r3, #28]
 1045 0374 7A69     		ldr	r2, [r7, #20]
 1046 0376 D269     		ldr	r2, [r2, #28]
 1047 0378 92F8A121 		ldrb	r2, [r2, #417]	@ zero_extendqisi2
 1048 037c 02F00F02 		and	r2, r2, #15
 1049 0380 D2B2     		uxtb	r2, r2
 1050 0382 83F8A121 		strb	r2, [r3, #417]
 231:.\PrimeImpl.c ****             pjob->_ppump->_rxbuffer[0x1A] = (pjob->_ppump->_rxbuffer[0x1A] & 0x0F);
 1051              		.loc 1 231 0
 1052 0386 7B69     		ldr	r3, [r7, #20]
 1053 0388 DB69     		ldr	r3, [r3, #28]
 1054 038a 7A69     		ldr	r2, [r7, #20]
 1055 038c D269     		ldr	r2, [r2, #28]
 1056 038e 92F8A221 		ldrb	r2, [r2, #418]	@ zero_extendqisi2
 1057 0392 02F00F02 		and	r2, r2, #15
 1058 0396 D2B2     		uxtb	r2, r2
 1059 0398 83F8A221 		strb	r2, [r3, #418]
 232:.\PrimeImpl.c ****             pjob->_ppump->_authorizationinfo._volumeamount = LSDBCDBUFF2HEX(PBYTECAST(&pjob->_ppump
 1060              		.loc 1 232 0
 1061 039c 7B69     		ldr	r3, [r7, #20]
 1062 039e DC69     		ldr	r4, [r3, #28]
 1063 03a0 7B69     		ldr	r3, [r7, #20]
 1064 03a2 DB69     		ldr	r3, [r3, #28]
 1065 03a4 03F29B13 		addw	r3, r3, #411
 1066 03a8 1846     		mov	r0, r3
 1067 03aa 0821     		movs	r1, #8
 1068 03ac FFF7FEFF 		bl	LSDBCDBUFF2HEX
 1069 03b0 0346     		mov	r3, r0
 1070 03b2 C4F8843B 		str	r3, [r4, #2948]
 233:.\PrimeImpl.c ****             
 234:.\PrimeImpl.c ****             ////////////////////////////////////////////////////////////////////////////////
 235:.\PrimeImpl.c ****             ////////////////////////////////////////////////////////////////////////////////
 236:.\PrimeImpl.c ****             
 237:.\PrimeImpl.c ****             //Bytes from index 28 to 35 are the digits for the money charged to the transaction
 238:.\PrimeImpl.c ****             //Digits are in BCD format
 239:.\PrimeImpl.c ****             if(_g_dispenserlayoutinfo._displaydigitsmode == 0x07)
ARM GAS  C:\Users\RECEPC~1\AppData\Local\Temp\ccvxjDo6.s 			page 24


 1071              		.loc 1 239 0
 1072 03b6 B74B     		ldr	r3, .L46
 1073 03b8 1B7C     		ldrb	r3, [r3, #16]	@ zero_extendqisi2
 1074 03ba 072B     		cmp	r3, #7
 1075 03bc 05D1     		bne	.L33
 240:.\PrimeImpl.c ****                 pjob->_ppump->_rxbuffer[0x1C] = (pjob->_ppump->_rxbuffer[0x1C] & 0x00);//Zero to ma
 1076              		.loc 1 240 0
 1077 03be 7B69     		ldr	r3, [r7, #20]
 1078 03c0 DB69     		ldr	r3, [r3, #28]
 1079 03c2 0022     		movs	r2, #0
 1080 03c4 83F8A421 		strb	r2, [r3, #420]
 1081 03c8 0AE0     		b	.L34
 1082              	.L33:
 241:.\PrimeImpl.c ****             else
 242:.\PrimeImpl.c ****                 pjob->_ppump->_rxbuffer[0x1C] = (pjob->_ppump->_rxbuffer[0x1C] & 0x0F);
 1083              		.loc 1 242 0
 1084 03ca 7B69     		ldr	r3, [r7, #20]
 1085 03cc DB69     		ldr	r3, [r3, #28]
 1086 03ce 7A69     		ldr	r2, [r7, #20]
 1087 03d0 D269     		ldr	r2, [r2, #28]
 1088 03d2 92F8A421 		ldrb	r2, [r2, #420]	@ zero_extendqisi2
 1089 03d6 02F00F02 		and	r2, r2, #15
 1090 03da D2B2     		uxtb	r2, r2
 1091 03dc 83F8A421 		strb	r2, [r3, #420]
 1092              	.L34:
 243:.\PrimeImpl.c ****             
 244:.\PrimeImpl.c ****             pjob->_ppump->_rxbuffer[0x1D] = (pjob->_ppump->_rxbuffer[0x1D] & 0x0F);
 1093              		.loc 1 244 0
 1094 03e0 7B69     		ldr	r3, [r7, #20]
 1095 03e2 DB69     		ldr	r3, [r3, #28]
 1096 03e4 7A69     		ldr	r2, [r7, #20]
 1097 03e6 D269     		ldr	r2, [r2, #28]
 1098 03e8 92F8A521 		ldrb	r2, [r2, #421]	@ zero_extendqisi2
 1099 03ec 02F00F02 		and	r2, r2, #15
 1100 03f0 D2B2     		uxtb	r2, r2
 1101 03f2 83F8A521 		strb	r2, [r3, #421]
 245:.\PrimeImpl.c ****             pjob->_ppump->_rxbuffer[0x1E] = (pjob->_ppump->_rxbuffer[0x1E] & 0x0F);
 1102              		.loc 1 245 0
 1103 03f6 7B69     		ldr	r3, [r7, #20]
 1104 03f8 DB69     		ldr	r3, [r3, #28]
 1105 03fa 7A69     		ldr	r2, [r7, #20]
 1106 03fc D269     		ldr	r2, [r2, #28]
 1107 03fe 92F8A621 		ldrb	r2, [r2, #422]	@ zero_extendqisi2
 1108 0402 02F00F02 		and	r2, r2, #15
 1109 0406 D2B2     		uxtb	r2, r2
 1110 0408 83F8A621 		strb	r2, [r3, #422]
 246:.\PrimeImpl.c ****             pjob->_ppump->_rxbuffer[0x1F] = (pjob->_ppump->_rxbuffer[0x1F] & 0x0F);
 1111              		.loc 1 246 0
 1112 040c 7B69     		ldr	r3, [r7, #20]
 1113 040e DB69     		ldr	r3, [r3, #28]
 1114 0410 7A69     		ldr	r2, [r7, #20]
 1115 0412 D269     		ldr	r2, [r2, #28]
 1116 0414 92F8A721 		ldrb	r2, [r2, #423]	@ zero_extendqisi2
 1117 0418 02F00F02 		and	r2, r2, #15
 1118 041c D2B2     		uxtb	r2, r2
 1119 041e 83F8A721 		strb	r2, [r3, #423]
 247:.\PrimeImpl.c ****             pjob->_ppump->_rxbuffer[0x20] = (pjob->_ppump->_rxbuffer[0x20] & 0x0F);
ARM GAS  C:\Users\RECEPC~1\AppData\Local\Temp\ccvxjDo6.s 			page 25


 1120              		.loc 1 247 0
 1121 0422 7B69     		ldr	r3, [r7, #20]
 1122 0424 DB69     		ldr	r3, [r3, #28]
 1123 0426 7A69     		ldr	r2, [r7, #20]
 1124 0428 D269     		ldr	r2, [r2, #28]
 1125 042a 92F8A821 		ldrb	r2, [r2, #424]	@ zero_extendqisi2
 1126 042e 02F00F02 		and	r2, r2, #15
 1127 0432 D2B2     		uxtb	r2, r2
 1128 0434 83F8A821 		strb	r2, [r3, #424]
 248:.\PrimeImpl.c ****             pjob->_ppump->_rxbuffer[0x21] = (pjob->_ppump->_rxbuffer[0x21] & 0x0F);
 1129              		.loc 1 248 0
 1130 0438 7B69     		ldr	r3, [r7, #20]
 1131 043a DB69     		ldr	r3, [r3, #28]
 1132 043c 7A69     		ldr	r2, [r7, #20]
 1133 043e D269     		ldr	r2, [r2, #28]
 1134 0440 92F8A921 		ldrb	r2, [r2, #425]	@ zero_extendqisi2
 1135 0444 02F00F02 		and	r2, r2, #15
 1136 0448 D2B2     		uxtb	r2, r2
 1137 044a 83F8A921 		strb	r2, [r3, #425]
 249:.\PrimeImpl.c ****             pjob->_ppump->_rxbuffer[0x22] = (pjob->_ppump->_rxbuffer[0x22] & 0x0F);
 1138              		.loc 1 249 0
 1139 044e 7B69     		ldr	r3, [r7, #20]
 1140 0450 DB69     		ldr	r3, [r3, #28]
 1141 0452 7A69     		ldr	r2, [r7, #20]
 1142 0454 D269     		ldr	r2, [r2, #28]
 1143 0456 92F8AA21 		ldrb	r2, [r2, #426]	@ zero_extendqisi2
 1144 045a 02F00F02 		and	r2, r2, #15
 1145 045e D2B2     		uxtb	r2, r2
 1146 0460 83F8AA21 		strb	r2, [r3, #426]
 250:.\PrimeImpl.c ****             pjob->_ppump->_rxbuffer[0x23] = (pjob->_ppump->_rxbuffer[0x23] & 0x0F);
 1147              		.loc 1 250 0
 1148 0464 7B69     		ldr	r3, [r7, #20]
 1149 0466 DB69     		ldr	r3, [r3, #28]
 1150 0468 7A69     		ldr	r2, [r7, #20]
 1151 046a D269     		ldr	r2, [r2, #28]
 1152 046c 92F8AB21 		ldrb	r2, [r2, #427]	@ zero_extendqisi2
 1153 0470 02F00F02 		and	r2, r2, #15
 1154 0474 D2B2     		uxtb	r2, r2
 1155 0476 83F8AB21 		strb	r2, [r3, #427]
 251:.\PrimeImpl.c ****             //INQUIRY ABOUT THE EXTRA x10 RESULT SINCE THERE IS AN EXTRA 0 IN THE RESPONSE FOR THE 
 252:.\PrimeImpl.c ****             //MEANWHILE DIVIDING BY 10 TO REMOVE THE ZERO
 253:.\PrimeImpl.c ****             if(_g_dispenserlayoutinfo._displaydigitsmode == 0x07)
 1156              		.loc 1 253 0
 1157 047a 864B     		ldr	r3, .L46
 1158 047c 1B7C     		ldrb	r3, [r3, #16]	@ zero_extendqisi2
 1159 047e 072B     		cmp	r3, #7
 1160 0480 11D1     		bne	.L35
 254:.\PrimeImpl.c ****                 pjob->_ppump->_authorizationinfo._presetamount = (LSDBCDBUFF2HEX(PBYTECAST(&pjob->_
 1161              		.loc 1 254 0
 1162 0482 7B69     		ldr	r3, [r7, #20]
 1163 0484 DC69     		ldr	r4, [r3, #28]
 1164 0486 7B69     		ldr	r3, [r7, #20]
 1165 0488 DB69     		ldr	r3, [r3, #28]
 1166 048a 03F5D273 		add	r3, r3, #420
 1167 048e 1846     		mov	r0, r3
 1168 0490 0821     		movs	r1, #8
 1169 0492 FFF7FEFF 		bl	LSDBCDBUFF2HEX
ARM GAS  C:\Users\RECEPC~1\AppData\Local\Temp\ccvxjDo6.s 			page 26


 1170 0496 0246     		mov	r2, r0
 1171 0498 7F4B     		ldr	r3, .L46+4
 1172 049a A3FB0223 		umull	r2, r3, r3, r2
 1173 049e DB08     		lsrs	r3, r3, #3
 1174 04a0 C4F8803B 		str	r3, [r4, #2944]
 1175 04a4 0CE0     		b	.L36
 1176              	.L35:
 255:.\PrimeImpl.c ****             else
 256:.\PrimeImpl.c ****                 pjob->_ppump->_authorizationinfo._presetamount = LSDBCDBUFF2HEX(PBYTECAST(&pjob->_p
 1177              		.loc 1 256 0
 1178 04a6 7B69     		ldr	r3, [r7, #20]
 1179 04a8 DC69     		ldr	r4, [r3, #28]
 1180 04aa 7B69     		ldr	r3, [r7, #20]
 1181 04ac DB69     		ldr	r3, [r3, #28]
 1182 04ae 03F5D273 		add	r3, r3, #420
 1183 04b2 1846     		mov	r0, r3
 1184 04b4 0821     		movs	r1, #8
 1185 04b6 FFF7FEFF 		bl	LSDBCDBUFF2HEX
 1186 04ba 0346     		mov	r3, r0
 1187 04bc C4F8803B 		str	r3, [r4, #2944]
 1188              	.L36:
 257:.\PrimeImpl.c ****                 
 258:.\PrimeImpl.c ****             //CAREFUL WITH RETURNS BETWEEN THE LOCK/UNLOCK CALLS
 259:.\PrimeImpl.c ****             //AND RECURSIVE CALLS THAT WOULD DEADLOCK!
 260:.\PrimeImpl.c ****             I2CBusLock();
 1189              		.loc 1 260 0
 1190 04c0 FFF7FEFF 		bl	I2CBusLock
 261:.\PrimeImpl.c ****             ClearRtcBuffer();
 1191              		.loc 1 261 0
 1192 04c4 FFF7FEFF 		bl	ClearRtcBuffer
 262:.\PrimeImpl.c ****             ReadRTC();
 1193              		.loc 1 262 0
 1194 04c8 FFF7FEFF 		bl	ReadRTC
 263:.\PrimeImpl.c ****         
 264:.\PrimeImpl.c ****             ClearEepromBuffer();
 1195              		.loc 1 264 0
 1196 04cc FFF7FEFF 		bl	ClearEepromBuffer
 265:.\PrimeImpl.c ****             //In this position is located the payment type (CREDIT: 0x0E , CASH:0x0D)
 266:.\PrimeImpl.c ****             if(pjob->_ppump->_trasactionbuffer[0x00] == 0x0D)
 1197              		.loc 1 266 0
 1198 04d0 7B69     		ldr	r3, [r7, #20]
 1199 04d2 DB69     		ldr	r3, [r3, #28]
 1200 04d4 93F82030 		ldrb	r3, [r3, #32]	@ zero_extendqisi2
 1201 04d8 0D2B     		cmp	r3, #13
 1202 04da 40F0DF80 		bne	.L37
 267:.\PrimeImpl.c ****             {
 268:.\PrimeImpl.c ****                 //HERE WE STORE THE LAST TRANSACTION IN EEPROM! ALWAYS THE PREVIOUS TRANSACTION REP
 269:.\PrimeImpl.c ****                 //WILL BE OVERWRITTEN AND LOST.
 270:.\PrimeImpl.c ****                 //IN CASE OF A "CREDIT SALE", THE WHOLE DATA WILL BE STORED IN A SEPARATE MEMORY RE
 271:.\PrimeImpl.c ****                 //SINCE IN CASE OF A RF LINK DROP, THE STATE OF THE SALE COULD BE RECOVERED BY THE 
 272:.\PrimeImpl.c ****                 LoadEepromPage(EEPROM_DISPENSER_PUMP1_LAYOUT_PAGE);
 1203              		.loc 1 272 0
 1204 04de 4FF40070 		mov	r0, #512
 1205 04e2 FFF7FEFF 		bl	LoadEepromPage
 273:.\PrimeImpl.c ****                 if(GetEepromBuffer()[0] == ((pjob->_ppump->_rxbuffer[0x04] & 0x0F) + 1))
 1206              		.loc 1 273 0
 1207 04e6 FFF7FEFF 		bl	GetEepromBuffer
ARM GAS  C:\Users\RECEPC~1\AppData\Local\Temp\ccvxjDo6.s 			page 27


 1208 04ea 0346     		mov	r3, r0
 1209 04ec 1B78     		ldrb	r3, [r3]	@ zero_extendqisi2
 1210 04ee 1A46     		mov	r2, r3
 1211 04f0 7B69     		ldr	r3, [r7, #20]
 1212 04f2 DB69     		ldr	r3, [r3, #28]
 1213 04f4 93F88C31 		ldrb	r3, [r3, #396]	@ zero_extendqisi2
 1214 04f8 03F00F03 		and	r3, r3, #15
 1215 04fc 0133     		adds	r3, r3, #1
 1216 04fe 9A42     		cmp	r2, r3
 1217 0500 22D1     		bne	.L38
 274:.\PrimeImpl.c ****                 {
 275:.\PrimeImpl.c ****                     ClearEepromBuffer();
 1218              		.loc 1 275 0
 1219 0502 FFF7FEFF 		bl	ClearEepromBuffer
 276:.\PrimeImpl.c ****                     //Storing the current Date/Time for this transaction
 277:.\PrimeImpl.c ****                     memcpy(GetEepromBuffer(), GetRtcBuffer(), 0x07);
 1220              		.loc 1 277 0
 1221 0506 FFF7FEFF 		bl	GetEepromBuffer
 1222 050a 0446     		mov	r4, r0
 1223 050c FFF7FEFF 		bl	GetRtcBuffer
 1224 0510 0346     		mov	r3, r0
 1225 0512 2046     		mov	r0, r4
 1226 0514 1946     		mov	r1, r3
 1227 0516 0722     		movs	r2, #7
 1228 0518 FFF7FEFF 		bl	memcpy
 278:.\PrimeImpl.c ****                     memcpy(&GetEepromBuffer()[0x07], pjob->_ppump->_rxbuffer, pjob->_ppump->_rxbuff
 1229              		.loc 1 278 0
 1230 051c FFF7FEFF 		bl	GetEepromBuffer
 1231 0520 0346     		mov	r3, r0
 1232 0522 D91D     		adds	r1, r3, #7
 1233 0524 7B69     		ldr	r3, [r7, #20]
 1234 0526 DB69     		ldr	r3, [r3, #28]
 1235 0528 03F5C472 		add	r2, r3, #392
 1236 052c 7B69     		ldr	r3, [r7, #20]
 1237 052e DB69     		ldr	r3, [r3, #28]
 1238 0530 B3F8F032 		ldrh	r3, [r3, #752]
 1239 0534 0846     		mov	r0, r1
 1240 0536 1146     		mov	r1, r2
 1241 0538 1A46     		mov	r2, r3
 1242 053a FFF7FEFF 		bl	memcpy
 279:.\PrimeImpl.c ****                     StoreEepromPage(EEPROM_DISPENSER_PUMP12_TRANSACTION_PAGE);
 1243              		.loc 1 279 0
 1244 053e 4FF4C860 		mov	r0, #1600
 1245 0542 FFF7FEFF 		bl	StoreEepromPage
 1246 0546 82E1     		b	.L42
 1247              	.L38:
 280:.\PrimeImpl.c ****                 }
 281:.\PrimeImpl.c ****                 else
 282:.\PrimeImpl.c ****                 {
 283:.\PrimeImpl.c ****                     ClearEepromBuffer();
 1248              		.loc 1 283 0
 1249 0548 FFF7FEFF 		bl	ClearEepromBuffer
 284:.\PrimeImpl.c ****                     LoadEepromPage(EEPROM_DISPENSER_PUMP2_LAYOUT_PAGE);
 1250              		.loc 1 284 0
 1251 054c 4FF41070 		mov	r0, #576
 1252 0550 FFF7FEFF 		bl	LoadEepromPage
 285:.\PrimeImpl.c ****                     if(GetEepromBuffer()[0] == ((pjob->_ppump->_rxbuffer[0x04] & 0x0F) + 1))
ARM GAS  C:\Users\RECEPC~1\AppData\Local\Temp\ccvxjDo6.s 			page 28


 1253              		.loc 1 285 0
 1254 0554 FFF7FEFF 		bl	GetEepromBuffer
 1255 0558 0346     		mov	r3, r0
 1256 055a 1B78     		ldrb	r3, [r3]	@ zero_extendqisi2
 1257 055c 1A46     		mov	r2, r3
 1258 055e 7B69     		ldr	r3, [r7, #20]
 1259 0560 DB69     		ldr	r3, [r3, #28]
 1260 0562 93F88C31 		ldrb	r3, [r3, #396]	@ zero_extendqisi2
 1261 0566 03F00F03 		and	r3, r3, #15
 1262 056a 0133     		adds	r3, r3, #1
 1263 056c 9A42     		cmp	r2, r3
 1264 056e 22D1     		bne	.L40
 286:.\PrimeImpl.c ****                     {
 287:.\PrimeImpl.c ****                         ClearEepromBuffer();
 1265              		.loc 1 287 0
 1266 0570 FFF7FEFF 		bl	ClearEepromBuffer
 288:.\PrimeImpl.c ****                         //Storing the current Date/Time for this transaction
 289:.\PrimeImpl.c ****                         memcpy(GetEepromBuffer(), GetRtcBuffer(), 0x07);
 1267              		.loc 1 289 0
 1268 0574 FFF7FEFF 		bl	GetEepromBuffer
 1269 0578 0446     		mov	r4, r0
 1270 057a FFF7FEFF 		bl	GetRtcBuffer
 1271 057e 0346     		mov	r3, r0
 1272 0580 2046     		mov	r0, r4
 1273 0582 1946     		mov	r1, r3
 1274 0584 0722     		movs	r2, #7
 1275 0586 FFF7FEFF 		bl	memcpy
 290:.\PrimeImpl.c ****                         memcpy(&GetEepromBuffer()[0x07], pjob->_ppump->_rxbuffer, pjob->_ppump->_rx
 1276              		.loc 1 290 0
 1277 058a FFF7FEFF 		bl	GetEepromBuffer
 1278 058e 0346     		mov	r3, r0
 1279 0590 D91D     		adds	r1, r3, #7
 1280 0592 7B69     		ldr	r3, [r7, #20]
 1281 0594 DB69     		ldr	r3, [r3, #28]
 1282 0596 03F5C472 		add	r2, r3, #392
 1283 059a 7B69     		ldr	r3, [r7, #20]
 1284 059c DB69     		ldr	r3, [r3, #28]
 1285 059e B3F8F032 		ldrh	r3, [r3, #752]
 1286 05a2 0846     		mov	r0, r1
 1287 05a4 1146     		mov	r1, r2
 1288 05a6 1A46     		mov	r2, r3
 1289 05a8 FFF7FEFF 		bl	memcpy
 291:.\PrimeImpl.c ****                         StoreEepromPage(EEPROM_DISPENSER_PUMP22_TRANSACTION_PAGE);
 1290              		.loc 1 291 0
 1291 05ac 4FF4E860 		mov	r0, #1856
 1292 05b0 FFF7FEFF 		bl	StoreEepromPage
 1293 05b4 4BE1     		b	.L42
 1294              	.L40:
 292:.\PrimeImpl.c ****                     }
 293:.\PrimeImpl.c ****                     else
 294:.\PrimeImpl.c ****                     {
 295:.\PrimeImpl.c ****                         ClearEepromBuffer();
 1295              		.loc 1 295 0
 1296 05b6 FFF7FEFF 		bl	ClearEepromBuffer
 296:.\PrimeImpl.c ****                         LoadEepromPage(EEPROM_DISPENSER_PUMP3_LAYOUT_PAGE);
 1297              		.loc 1 296 0
 1298 05ba 4FF42070 		mov	r0, #640
ARM GAS  C:\Users\RECEPC~1\AppData\Local\Temp\ccvxjDo6.s 			page 29


 1299 05be FFF7FEFF 		bl	LoadEepromPage
 297:.\PrimeImpl.c ****                         if(GetEepromBuffer()[0] == ((pjob->_ppump->_rxbuffer[0x04] & 0x0F) + 1))
 1300              		.loc 1 297 0
 1301 05c2 FFF7FEFF 		bl	GetEepromBuffer
 1302 05c6 0346     		mov	r3, r0
 1303 05c8 1B78     		ldrb	r3, [r3]	@ zero_extendqisi2
 1304 05ca 1A46     		mov	r2, r3
 1305 05cc 7B69     		ldr	r3, [r7, #20]
 1306 05ce DB69     		ldr	r3, [r3, #28]
 1307 05d0 93F88C31 		ldrb	r3, [r3, #396]	@ zero_extendqisi2
 1308 05d4 03F00F03 		and	r3, r3, #15
 1309 05d8 0133     		adds	r3, r3, #1
 1310 05da 9A42     		cmp	r2, r3
 1311 05dc 22D1     		bne	.L41
 298:.\PrimeImpl.c ****                         {
 299:.\PrimeImpl.c ****                             ClearEepromBuffer();
 1312              		.loc 1 299 0
 1313 05de FFF7FEFF 		bl	ClearEepromBuffer
 300:.\PrimeImpl.c ****                             //Storing the current Date/Time for this transaction
 301:.\PrimeImpl.c ****                             memcpy(GetEepromBuffer(), GetRtcBuffer(), 0x07);
 1314              		.loc 1 301 0
 1315 05e2 FFF7FEFF 		bl	GetEepromBuffer
 1316 05e6 0446     		mov	r4, r0
 1317 05e8 FFF7FEFF 		bl	GetRtcBuffer
 1318 05ec 0346     		mov	r3, r0
 1319 05ee 2046     		mov	r0, r4
 1320 05f0 1946     		mov	r1, r3
 1321 05f2 0722     		movs	r2, #7
 1322 05f4 FFF7FEFF 		bl	memcpy
 302:.\PrimeImpl.c ****                             memcpy(&GetEepromBuffer()[0x07], pjob->_ppump->_rxbuffer, pjob->_ppump-
 1323              		.loc 1 302 0
 1324 05f8 FFF7FEFF 		bl	GetEepromBuffer
 1325 05fc 0346     		mov	r3, r0
 1326 05fe D91D     		adds	r1, r3, #7
 1327 0600 7B69     		ldr	r3, [r7, #20]
 1328 0602 DB69     		ldr	r3, [r3, #28]
 1329 0604 03F5C472 		add	r2, r3, #392
 1330 0608 7B69     		ldr	r3, [r7, #20]
 1331 060a DB69     		ldr	r3, [r3, #28]
 1332 060c B3F8F032 		ldrh	r3, [r3, #752]
 1333 0610 0846     		mov	r0, r1
 1334 0612 1146     		mov	r1, r2
 1335 0614 1A46     		mov	r2, r3
 1336 0616 FFF7FEFF 		bl	memcpy
 303:.\PrimeImpl.c ****                             StoreEepromPage(EEPROM_DISPENSER_PUMP32_TRANSACTION_PAGE);
 1337              		.loc 1 303 0
 1338 061a 4FF40460 		mov	r0, #2112
 1339 061e FFF7FEFF 		bl	StoreEepromPage
 1340 0622 14E1     		b	.L42
 1341              	.L41:
 304:.\PrimeImpl.c ****                         }
 305:.\PrimeImpl.c ****                         else
 306:.\PrimeImpl.c ****                         {
 307:.\PrimeImpl.c ****                             ClearEepromBuffer();
 1342              		.loc 1 307 0
 1343 0624 FFF7FEFF 		bl	ClearEepromBuffer
 308:.\PrimeImpl.c ****                             LoadEepromPage(EEPROM_DISPENSER_PUMP4_LAYOUT_PAGE);
ARM GAS  C:\Users\RECEPC~1\AppData\Local\Temp\ccvxjDo6.s 			page 30


 1344              		.loc 1 308 0
 1345 0628 4FF43070 		mov	r0, #704
 1346 062c FFF7FEFF 		bl	LoadEepromPage
 309:.\PrimeImpl.c ****                             if(GetEepromBuffer()[0] == ((pjob->_ppump->_rxbuffer[0x04] & 0x0F) + 1)
 1347              		.loc 1 309 0
 1348 0630 FFF7FEFF 		bl	GetEepromBuffer
 1349 0634 0346     		mov	r3, r0
 1350 0636 1B78     		ldrb	r3, [r3]	@ zero_extendqisi2
 1351 0638 1A46     		mov	r2, r3
 1352 063a 7B69     		ldr	r3, [r7, #20]
 1353 063c DB69     		ldr	r3, [r3, #28]
 1354 063e 93F88C31 		ldrb	r3, [r3, #396]	@ zero_extendqisi2
 1355 0642 03F00F03 		and	r3, r3, #15
 1356 0646 0133     		adds	r3, r3, #1
 1357 0648 9A42     		cmp	r2, r3
 1358 064a 40F00081 		bne	.L42
 310:.\PrimeImpl.c ****                             {
 311:.\PrimeImpl.c ****                                 ClearEepromBuffer();
 1359              		.loc 1 311 0
 1360 064e FFF7FEFF 		bl	ClearEepromBuffer
 312:.\PrimeImpl.c ****                                 //Storing the current Date/Time for this transaction
 313:.\PrimeImpl.c ****                                 memcpy(GetEepromBuffer(), GetRtcBuffer(), 0x07);
 1361              		.loc 1 313 0
 1362 0652 FFF7FEFF 		bl	GetEepromBuffer
 1363 0656 0446     		mov	r4, r0
 1364 0658 FFF7FEFF 		bl	GetRtcBuffer
 1365 065c 0346     		mov	r3, r0
 1366 065e 2046     		mov	r0, r4
 1367 0660 1946     		mov	r1, r3
 1368 0662 0722     		movs	r2, #7
 1369 0664 FFF7FEFF 		bl	memcpy
 314:.\PrimeImpl.c ****                                 memcpy(&GetEepromBuffer()[0x07], pjob->_ppump->_rxbuffer, pjob->_pp
 1370              		.loc 1 314 0
 1371 0668 FFF7FEFF 		bl	GetEepromBuffer
 1372 066c 0346     		mov	r3, r0
 1373 066e D91D     		adds	r1, r3, #7
 1374 0670 7B69     		ldr	r3, [r7, #20]
 1375 0672 DB69     		ldr	r3, [r3, #28]
 1376 0674 03F5C472 		add	r2, r3, #392
 1377 0678 7B69     		ldr	r3, [r7, #20]
 1378 067a DB69     		ldr	r3, [r3, #28]
 1379 067c B3F8F032 		ldrh	r3, [r3, #752]
 1380 0680 0846     		mov	r0, r1
 1381 0682 1146     		mov	r1, r2
 1382 0684 1A46     		mov	r2, r3
 1383 0686 FFF7FEFF 		bl	memcpy
 315:.\PrimeImpl.c ****                                 StoreEepromPage(EEPROM_DISPENSER_PUMP42_TRANSACTION_PAGE);
 1384              		.loc 1 315 0
 1385 068a 4FF41460 		mov	r0, #2368
 1386 068e FFF7FEFF 		bl	StoreEepromPage
 1387 0692 DCE0     		b	.L42
 1388              	.L47:
 1389              		.align	2
 1390              	.L46:
 1391 0694 00000000 		.word	_g_dispenserlayoutinfo
 1392 0698 CDCCCCCC 		.word	-858993459
 1393              	.L37:
ARM GAS  C:\Users\RECEPC~1\AppData\Local\Temp\ccvxjDo6.s 			page 31


 316:.\PrimeImpl.c ****                             }
 317:.\PrimeImpl.c ****                         }
 318:.\PrimeImpl.c ****                     }
 319:.\PrimeImpl.c ****                 }
 320:.\PrimeImpl.c ****             }else{//CREDIT TRANSACTION
 321:.\PrimeImpl.c ****                 //HERE WE STORE THE LAST TRANSACTION IN EEPROM! ALWAYS THE PREVIOUS TRANSACTION REP
 322:.\PrimeImpl.c ****                 //WILL BE OVERWRITTEN AND LOST.
 323:.\PrimeImpl.c ****                 //IN CASE OF A "CREDIT SALE", THE WHOLE DATA WILL BE STORED IN A SEPARATE MEMORY RE
 324:.\PrimeImpl.c ****                 //SINCE IN CASE OF A RF LINK DROP, THE STATE OF THE SALE COULD BE RECOVERED BY THE 
 325:.\PrimeImpl.c ****                 LoadEepromPage(EEPROM_DISPENSER_PUMP1_LAYOUT_PAGE);
 1394              		.loc 1 325 0
 1395 069c 4FF40070 		mov	r0, #512
 1396 06a0 FFF7FEFF 		bl	LoadEepromPage
 326:.\PrimeImpl.c ****                 if(GetEepromBuffer()[0] == ((pjob->_ppump->_rxbuffer[0x04] & 0x0F) + 1))
 1397              		.loc 1 326 0
 1398 06a4 FFF7FEFF 		bl	GetEepromBuffer
 1399 06a8 0346     		mov	r3, r0
 1400 06aa 1B78     		ldrb	r3, [r3]	@ zero_extendqisi2
 1401 06ac 1A46     		mov	r2, r3
 1402 06ae 7B69     		ldr	r3, [r7, #20]
 1403 06b0 DB69     		ldr	r3, [r3, #28]
 1404 06b2 93F88C31 		ldrb	r3, [r3, #396]	@ zero_extendqisi2
 1405 06b6 03F00F03 		and	r3, r3, #15
 1406 06ba 0133     		adds	r3, r3, #1
 1407 06bc 9A42     		cmp	r2, r3
 1408 06be 22D1     		bne	.L43
 327:.\PrimeImpl.c ****                 {
 328:.\PrimeImpl.c ****                     ClearEepromBuffer();
 1409              		.loc 1 328 0
 1410 06c0 FFF7FEFF 		bl	ClearEepromBuffer
 329:.\PrimeImpl.c ****                     //Storing the current Date/Time for this transaction
 330:.\PrimeImpl.c ****                     memcpy(GetEepromBuffer(), GetRtcBuffer(), 0x07);
 1411              		.loc 1 330 0
 1412 06c4 FFF7FEFF 		bl	GetEepromBuffer
 1413 06c8 0446     		mov	r4, r0
 1414 06ca FFF7FEFF 		bl	GetRtcBuffer
 1415 06ce 0346     		mov	r3, r0
 1416 06d0 2046     		mov	r0, r4
 1417 06d2 1946     		mov	r1, r3
 1418 06d4 0722     		movs	r2, #7
 1419 06d6 FFF7FEFF 		bl	memcpy
 331:.\PrimeImpl.c ****                     memcpy(&GetEepromBuffer()[0x07], pjob->_ppump->_rxbuffer, pjob->_ppump->_rxbuff
 1420              		.loc 1 331 0
 1421 06da FFF7FEFF 		bl	GetEepromBuffer
 1422 06de 0346     		mov	r3, r0
 1423 06e0 D91D     		adds	r1, r3, #7
 1424 06e2 7B69     		ldr	r3, [r7, #20]
 1425 06e4 DB69     		ldr	r3, [r3, #28]
 1426 06e6 03F5C472 		add	r2, r3, #392
 1427 06ea 7B69     		ldr	r3, [r7, #20]
 1428 06ec DB69     		ldr	r3, [r3, #28]
 1429 06ee B3F8F032 		ldrh	r3, [r3, #752]
 1430 06f2 0846     		mov	r0, r1
 1431 06f4 1146     		mov	r1, r2
 1432 06f6 1A46     		mov	r2, r3
 1433 06f8 FFF7FEFF 		bl	memcpy
 332:.\PrimeImpl.c ****                     StoreEepromPage(EEPROM_DISPENSER_PUMP14_TRANSACTION_PAGE);
ARM GAS  C:\Users\RECEPC~1\AppData\Local\Temp\ccvxjDo6.s 			page 32


 1434              		.loc 1 332 0
 1435 06fc 4FF4D860 		mov	r0, #1728
 1436 0700 FFF7FEFF 		bl	StoreEepromPage
 1437 0704 A3E0     		b	.L42
 1438              	.L43:
 333:.\PrimeImpl.c ****                 }
 334:.\PrimeImpl.c ****                 else
 335:.\PrimeImpl.c ****                 {
 336:.\PrimeImpl.c ****                     ClearEepromBuffer();
 1439              		.loc 1 336 0
 1440 0706 FFF7FEFF 		bl	ClearEepromBuffer
 337:.\PrimeImpl.c ****                     LoadEepromPage(EEPROM_DISPENSER_PUMP2_LAYOUT_PAGE);
 1441              		.loc 1 337 0
 1442 070a 4FF41070 		mov	r0, #576
 1443 070e FFF7FEFF 		bl	LoadEepromPage
 338:.\PrimeImpl.c ****                     if(GetEepromBuffer()[0] == ((pjob->_ppump->_rxbuffer[0x04] & 0x0F) + 1))
 1444              		.loc 1 338 0
 1445 0712 FFF7FEFF 		bl	GetEepromBuffer
 1446 0716 0346     		mov	r3, r0
 1447 0718 1B78     		ldrb	r3, [r3]	@ zero_extendqisi2
 1448 071a 1A46     		mov	r2, r3
 1449 071c 7B69     		ldr	r3, [r7, #20]
 1450 071e DB69     		ldr	r3, [r3, #28]
 1451 0720 93F88C31 		ldrb	r3, [r3, #396]	@ zero_extendqisi2
 1452 0724 03F00F03 		and	r3, r3, #15
 1453 0728 0133     		adds	r3, r3, #1
 1454 072a 9A42     		cmp	r2, r3
 1455 072c 22D1     		bne	.L44
 339:.\PrimeImpl.c ****                     {
 340:.\PrimeImpl.c ****                         ClearEepromBuffer();
 1456              		.loc 1 340 0
 1457 072e FFF7FEFF 		bl	ClearEepromBuffer
 341:.\PrimeImpl.c ****                         //Storing the current Date/Time for this transaction
 342:.\PrimeImpl.c ****                         memcpy(GetEepromBuffer(), GetRtcBuffer(), 0x07);
 1458              		.loc 1 342 0
 1459 0732 FFF7FEFF 		bl	GetEepromBuffer
 1460 0736 0446     		mov	r4, r0
 1461 0738 FFF7FEFF 		bl	GetRtcBuffer
 1462 073c 0346     		mov	r3, r0
 1463 073e 2046     		mov	r0, r4
 1464 0740 1946     		mov	r1, r3
 1465 0742 0722     		movs	r2, #7
 1466 0744 FFF7FEFF 		bl	memcpy
 343:.\PrimeImpl.c ****                         memcpy(&GetEepromBuffer()[0x07], pjob->_ppump->_rxbuffer, pjob->_ppump->_rx
 1467              		.loc 1 343 0
 1468 0748 FFF7FEFF 		bl	GetEepromBuffer
 1469 074c 0346     		mov	r3, r0
 1470 074e D91D     		adds	r1, r3, #7
 1471 0750 7B69     		ldr	r3, [r7, #20]
 1472 0752 DB69     		ldr	r3, [r3, #28]
 1473 0754 03F5C472 		add	r2, r3, #392
 1474 0758 7B69     		ldr	r3, [r7, #20]
 1475 075a DB69     		ldr	r3, [r3, #28]
 1476 075c B3F8F032 		ldrh	r3, [r3, #752]
 1477 0760 0846     		mov	r0, r1
 1478 0762 1146     		mov	r1, r2
 1479 0764 1A46     		mov	r2, r3
ARM GAS  C:\Users\RECEPC~1\AppData\Local\Temp\ccvxjDo6.s 			page 33


 1480 0766 FFF7FEFF 		bl	memcpy
 344:.\PrimeImpl.c ****                         StoreEepromPage(EEPROM_DISPENSER_PUMP24_TRANSACTION_PAGE);
 1481              		.loc 1 344 0
 1482 076a 4FF4F860 		mov	r0, #1984
 1483 076e FFF7FEFF 		bl	StoreEepromPage
 1484 0772 6CE0     		b	.L42
 1485              	.L44:
 345:.\PrimeImpl.c ****                     }
 346:.\PrimeImpl.c ****                     else
 347:.\PrimeImpl.c ****                     {
 348:.\PrimeImpl.c ****                         ClearEepromBuffer();
 1486              		.loc 1 348 0
 1487 0774 FFF7FEFF 		bl	ClearEepromBuffer
 349:.\PrimeImpl.c ****                         LoadEepromPage(EEPROM_DISPENSER_PUMP3_LAYOUT_PAGE);
 1488              		.loc 1 349 0
 1489 0778 4FF42070 		mov	r0, #640
 1490 077c FFF7FEFF 		bl	LoadEepromPage
 350:.\PrimeImpl.c ****                         if(GetEepromBuffer()[0] == ((pjob->_ppump->_rxbuffer[0x04] & 0x0F) + 1))
 1491              		.loc 1 350 0
 1492 0780 FFF7FEFF 		bl	GetEepromBuffer
 1493 0784 0346     		mov	r3, r0
 1494 0786 1B78     		ldrb	r3, [r3]	@ zero_extendqisi2
 1495 0788 1A46     		mov	r2, r3
 1496 078a 7B69     		ldr	r3, [r7, #20]
 1497 078c DB69     		ldr	r3, [r3, #28]
 1498 078e 93F88C31 		ldrb	r3, [r3, #396]	@ zero_extendqisi2
 1499 0792 03F00F03 		and	r3, r3, #15
 1500 0796 0133     		adds	r3, r3, #1
 1501 0798 9A42     		cmp	r2, r3
 1502 079a 22D1     		bne	.L45
 351:.\PrimeImpl.c ****                         {
 352:.\PrimeImpl.c ****                             ClearEepromBuffer();
 1503              		.loc 1 352 0
 1504 079c FFF7FEFF 		bl	ClearEepromBuffer
 353:.\PrimeImpl.c ****                             //Storing the current Date/Time for this transaction
 354:.\PrimeImpl.c ****                             memcpy(GetEepromBuffer(), GetRtcBuffer(), 0x07);
 1505              		.loc 1 354 0
 1506 07a0 FFF7FEFF 		bl	GetEepromBuffer
 1507 07a4 0446     		mov	r4, r0
 1508 07a6 FFF7FEFF 		bl	GetRtcBuffer
 1509 07aa 0346     		mov	r3, r0
 1510 07ac 2046     		mov	r0, r4
 1511 07ae 1946     		mov	r1, r3
 1512 07b0 0722     		movs	r2, #7
 1513 07b2 FFF7FEFF 		bl	memcpy
 355:.\PrimeImpl.c ****                             memcpy(&GetEepromBuffer()[0x07], pjob->_ppump->_rxbuffer, pjob->_ppump-
 1514              		.loc 1 355 0
 1515 07b6 FFF7FEFF 		bl	GetEepromBuffer
 1516 07ba 0346     		mov	r3, r0
 1517 07bc D91D     		adds	r1, r3, #7
 1518 07be 7B69     		ldr	r3, [r7, #20]
 1519 07c0 DB69     		ldr	r3, [r3, #28]
 1520 07c2 03F5C472 		add	r2, r3, #392
 1521 07c6 7B69     		ldr	r3, [r7, #20]
 1522 07c8 DB69     		ldr	r3, [r3, #28]
 1523 07ca B3F8F032 		ldrh	r3, [r3, #752]
 1524 07ce 0846     		mov	r0, r1
ARM GAS  C:\Users\RECEPC~1\AppData\Local\Temp\ccvxjDo6.s 			page 34


 1525 07d0 1146     		mov	r1, r2
 1526 07d2 1A46     		mov	r2, r3
 1527 07d4 FFF7FEFF 		bl	memcpy
 356:.\PrimeImpl.c ****                             StoreEepromPage(EEPROM_DISPENSER_PUMP34_TRANSACTION_PAGE);
 1528              		.loc 1 356 0
 1529 07d8 4FF40C60 		mov	r0, #2240
 1530 07dc FFF7FEFF 		bl	StoreEepromPage
 1531 07e0 35E0     		b	.L42
 1532              	.L45:
 357:.\PrimeImpl.c ****                         }
 358:.\PrimeImpl.c ****                         else
 359:.\PrimeImpl.c ****                         {
 360:.\PrimeImpl.c ****                             ClearEepromBuffer();
 1533              		.loc 1 360 0
 1534 07e2 FFF7FEFF 		bl	ClearEepromBuffer
 361:.\PrimeImpl.c ****                             LoadEepromPage(EEPROM_DISPENSER_PUMP4_LAYOUT_PAGE);
 1535              		.loc 1 361 0
 1536 07e6 4FF43070 		mov	r0, #704
 1537 07ea FFF7FEFF 		bl	LoadEepromPage
 362:.\PrimeImpl.c ****                             if(GetEepromBuffer()[0] == ((pjob->_ppump->_rxbuffer[0x04] & 0x0F) + 1)
 1538              		.loc 1 362 0
 1539 07ee FFF7FEFF 		bl	GetEepromBuffer
 1540 07f2 0346     		mov	r3, r0
 1541 07f4 1B78     		ldrb	r3, [r3]	@ zero_extendqisi2
 1542 07f6 1A46     		mov	r2, r3
 1543 07f8 7B69     		ldr	r3, [r7, #20]
 1544 07fa DB69     		ldr	r3, [r3, #28]
 1545 07fc 93F88C31 		ldrb	r3, [r3, #396]	@ zero_extendqisi2
 1546 0800 03F00F03 		and	r3, r3, #15
 1547 0804 0133     		adds	r3, r3, #1
 1548 0806 9A42     		cmp	r2, r3
 1549 0808 21D1     		bne	.L42
 363:.\PrimeImpl.c ****                             {
 364:.\PrimeImpl.c ****                                 ClearEepromBuffer();
 1550              		.loc 1 364 0
 1551 080a FFF7FEFF 		bl	ClearEepromBuffer
 365:.\PrimeImpl.c ****                                 //Storing the current Date/Time for this transaction
 366:.\PrimeImpl.c ****                                 memcpy(GetEepromBuffer(), GetRtcBuffer(), 0x07);
 1552              		.loc 1 366 0
 1553 080e FFF7FEFF 		bl	GetEepromBuffer
 1554 0812 0446     		mov	r4, r0
 1555 0814 FFF7FEFF 		bl	GetRtcBuffer
 1556 0818 0346     		mov	r3, r0
 1557 081a 2046     		mov	r0, r4
 1558 081c 1946     		mov	r1, r3
 1559 081e 0722     		movs	r2, #7
 1560 0820 FFF7FEFF 		bl	memcpy
 367:.\PrimeImpl.c ****                                 memcpy(&GetEepromBuffer()[0x07], pjob->_ppump->_rxbuffer, pjob->_pp
 1561              		.loc 1 367 0
 1562 0824 FFF7FEFF 		bl	GetEepromBuffer
 1563 0828 0346     		mov	r3, r0
 1564 082a D91D     		adds	r1, r3, #7
 1565 082c 7B69     		ldr	r3, [r7, #20]
 1566 082e DB69     		ldr	r3, [r3, #28]
 1567 0830 03F5C472 		add	r2, r3, #392
 1568 0834 7B69     		ldr	r3, [r7, #20]
 1569 0836 DB69     		ldr	r3, [r3, #28]
ARM GAS  C:\Users\RECEPC~1\AppData\Local\Temp\ccvxjDo6.s 			page 35


 1570 0838 B3F8F032 		ldrh	r3, [r3, #752]
 1571 083c 0846     		mov	r0, r1
 1572 083e 1146     		mov	r1, r2
 1573 0840 1A46     		mov	r2, r3
 1574 0842 FFF7FEFF 		bl	memcpy
 368:.\PrimeImpl.c ****                                 StoreEepromPage(EEPROM_DISPENSER_PUMP44_TRANSACTION_PAGE);
 1575              		.loc 1 368 0
 1576 0846 4FF41C60 		mov	r0, #2496
 1577 084a FFF7FEFF 		bl	StoreEepromPage
 1578              	.L42:
 369:.\PrimeImpl.c ****                             }
 370:.\PrimeImpl.c ****                         }
 371:.\PrimeImpl.c ****                     }
 372:.\PrimeImpl.c ****                 }
 373:.\PrimeImpl.c ****             }
 374:.\PrimeImpl.c ****             I2CBusUnlock();
 1579              		.loc 1 374 0
 1580 084e FFF7FEFF 		bl	I2CBusUnlock
 375:.\PrimeImpl.c ****                 
 376:.\PrimeImpl.c ****             //HERE WE ATTEMPT TO PUSH THE TRANSACTION INTO THE PUMP'S TRANSACTIONAL QUEUE.
 377:.\PrimeImpl.c ****             //THIS IS DONE ONLY IF THERE IS ROOM IN THE QUEUE, OTHERWISE THIS STATE WON'T
 378:.\PrimeImpl.c ****             //BE REPORTED TO THE REMOTE PEER.
 379:.\PrimeImpl.c ****             pjob->_ppump->PumpTransQueueLock(pjob->_ppump);
 1581              		.loc 1 379 0
 1582 0852 7B69     		ldr	r3, [r7, #20]
 1583 0854 DB69     		ldr	r3, [r3, #28]
 1584 0856 D3F8143B 		ldr	r3, [r3, #2836]
 1585 085a 7A69     		ldr	r2, [r7, #20]
 1586 085c D269     		ldr	r2, [r2, #28]
 1587 085e 1046     		mov	r0, r2
 1588 0860 9847     		blx	r3
 380:.\PrimeImpl.c ****             PNEAR_PUMPTRANSACTIONALSTATEPTR pts = pjob->_ppump->PumpTransQueueAllocate(pjob->_ppump
 1589              		.loc 1 380 0
 1590 0862 7B69     		ldr	r3, [r7, #20]
 1591 0864 DB69     		ldr	r3, [r3, #28]
 1592 0866 D3F8283B 		ldr	r3, [r3, #2856]
 1593 086a 7A69     		ldr	r2, [r7, #20]
 1594 086c D269     		ldr	r2, [r2, #28]
 1595 086e 1046     		mov	r0, r2
 1596 0870 9847     		blx	r3
 1597 0872 F860     		str	r0, [r7, #12]
 381:.\PrimeImpl.c ****             pjob->_ppump->PumpTransQueueUnlock(pjob->_ppump);
 1598              		.loc 1 381 0
 1599 0874 7B69     		ldr	r3, [r7, #20]
 1600 0876 DB69     		ldr	r3, [r3, #28]
 1601 0878 D3F8183B 		ldr	r3, [r3, #2840]
 1602 087c 7A69     		ldr	r2, [r7, #20]
 1603 087e D269     		ldr	r2, [r2, #28]
 1604 0880 1046     		mov	r0, r2
 1605 0882 9847     		blx	r3
 382:.\PrimeImpl.c ****             if(pts)
 1606              		.loc 1 382 0
 1607 0884 FB68     		ldr	r3, [r7, #12]
 1608 0886 002B     		cmp	r3, #0
 1609 0888 31D0     		beq	.L23
 383:.\PrimeImpl.c ****             {
 384:.\PrimeImpl.c ****                 pts->_transtate = RF_MUX_CASH_SALE_END_REPORT_RESPONSE;
ARM GAS  C:\Users\RECEPC~1\AppData\Local\Temp\ccvxjDo6.s 			page 36


 1610              		.loc 1 384 0
 1611 088a FB68     		ldr	r3, [r7, #12]
 1612 088c A422     		movs	r2, #164
 1613 088e 5A70     		strb	r2, [r3, #1]
 385:.\PrimeImpl.c ****                 memcpy(pts->_buffer, pjob->_ppump->_rxbuffer, pjob->_ppump->_rxbuffersize);
 1614              		.loc 1 385 0
 1615 0890 FB68     		ldr	r3, [r7, #12]
 1616 0892 991C     		adds	r1, r3, #2
 1617 0894 7B69     		ldr	r3, [r7, #20]
 1618 0896 DB69     		ldr	r3, [r3, #28]
 1619 0898 03F5C472 		add	r2, r3, #392
 1620 089c 7B69     		ldr	r3, [r7, #20]
 1621 089e DB69     		ldr	r3, [r3, #28]
 1622 08a0 B3F8F032 		ldrh	r3, [r3, #752]
 1623 08a4 0846     		mov	r0, r1
 1624 08a6 1146     		mov	r1, r2
 1625 08a8 1A46     		mov	r2, r3
 1626 08aa FFF7FEFF 		bl	memcpy
 386:.\PrimeImpl.c ****                 pts->_buffersize = pjob->_ppump->_rxbuffersize;
 1627              		.loc 1 386 0
 1628 08ae 7B69     		ldr	r3, [r7, #20]
 1629 08b0 DB69     		ldr	r3, [r3, #28]
 1630 08b2 B3F8F022 		ldrh	r2, [r3, #752]
 1631 08b6 FB68     		ldr	r3, [r7, #12]
 1632 08b8 A3F80221 		strh	r2, [r3, #258]	@ movhi
 387:.\PrimeImpl.c ****                 
 388:.\PrimeImpl.c ****                 pjob->_ppump->PumpTransQueueLock(pjob->_ppump);
 1633              		.loc 1 388 0
 1634 08bc 7B69     		ldr	r3, [r7, #20]
 1635 08be DB69     		ldr	r3, [r3, #28]
 1636 08c0 D3F8143B 		ldr	r3, [r3, #2836]
 1637 08c4 7A69     		ldr	r2, [r7, #20]
 1638 08c6 D269     		ldr	r2, [r2, #28]
 1639 08c8 1046     		mov	r0, r2
 1640 08ca 9847     		blx	r3
 389:.\PrimeImpl.c ****                 pjob->_ppump->PumpTransQueueEnqueue(pjob->_ppump, pts);
 1641              		.loc 1 389 0
 1642 08cc 7B69     		ldr	r3, [r7, #20]
 1643 08ce DB69     		ldr	r3, [r3, #28]
 1644 08d0 D3F8203B 		ldr	r3, [r3, #2848]
 1645 08d4 7A69     		ldr	r2, [r7, #20]
 1646 08d6 D269     		ldr	r2, [r2, #28]
 1647 08d8 1046     		mov	r0, r2
 1648 08da F968     		ldr	r1, [r7, #12]
 1649 08dc 9847     		blx	r3
 390:.\PrimeImpl.c ****                 pjob->_ppump->PumpTransQueueUnlock(pjob->_ppump);
 1650              		.loc 1 390 0
 1651 08de 7B69     		ldr	r3, [r7, #20]
 1652 08e0 DB69     		ldr	r3, [r3, #28]
 1653 08e2 D3F8183B 		ldr	r3, [r3, #2840]
 1654 08e6 7A69     		ldr	r2, [r7, #20]
 1655 08e8 D269     		ldr	r2, [r2, #28]
 1656 08ea 1046     		mov	r0, r2
 1657 08ec 9847     		blx	r3
 1658              	.L23:
 1659              	.LBE3:
 391:.\PrimeImpl.c ****             }
ARM GAS  C:\Users\RECEPC~1\AppData\Local\Temp\ccvxjDo6.s 			page 37


 392:.\PrimeImpl.c ****             
 393:.\PrimeImpl.c ****         }  
 394:.\PrimeImpl.c ****     }
 395:.\PrimeImpl.c **** }
 1660              		.loc 1 395 0
 1661 08ee 1837     		adds	r7, r7, #24
 1662              		.cfi_def_cfa_offset 16
 1663 08f0 BD46     		mov	sp, r7
 1664              		.cfi_def_cfa_register 13
 1665              		@ sp needed
 1666 08f2 B0BD     		pop	{r4, r5, r7, pc}
 1667              		.cfi_endproc
 1668              	.LFE68:
 1669              		.size	ProcessPumpTransactionData, .-ProcessPumpTransactionData
 1670              		.section	.text.ProcessPumpTotalsDataStart,"ax",%progbits
 1671              		.align	2
 1672              		.global	ProcessPumpTotalsDataStart
 1673              		.thumb
 1674              		.thumb_func
 1675              		.type	ProcessPumpTotalsDataStart, %function
 1676              	ProcessPumpTotalsDataStart:
 1677              	.LFB69:
 396:.\PrimeImpl.c **** 
 397:.\PrimeImpl.c **** 
 398:.\PrimeImpl.c **** //@Created By: HIJH
 399:.\PrimeImpl.c **** //@Date: Septembre de 2016
 400:.\PrimeImpl.c **** //Processes the totals data buffer dynamically since it changes its size
 401:.\PrimeImpl.c **** //depending on the Pump-Hose layout
 402:.\PrimeImpl.c **** void ProcessPumpTotalsDataStart(void *pparam)
 403:.\PrimeImpl.c **** {
 1678              		.loc 1 403 0
 1679              		.cfi_startproc
 1680              		@ args = 0, pretend = 0, frame = 16
 1681              		@ frame_needed = 1, uses_anonymous_args = 0
 1682 0000 90B5     		push	{r4, r7, lr}
 1683              		.cfi_def_cfa_offset 12
 1684              		.cfi_offset 4, -12
 1685              		.cfi_offset 7, -8
 1686              		.cfi_offset 14, -4
 1687 0002 85B0     		sub	sp, sp, #20
 1688              		.cfi_def_cfa_offset 32
 1689 0004 00AF     		add	r7, sp, #0
 1690              		.cfi_def_cfa_register 7
 1691 0006 7860     		str	r0, [r7, #4]
 404:.\PrimeImpl.c ****     PPUMPTRANSACTIONJOBCONTEXTPTR pjob = (PPUMPTRANSACTIONJOBCONTEXTPTR)pparam;
 1692              		.loc 1 404 0
 1693 0008 7B68     		ldr	r3, [r7, #4]
 1694 000a BB60     		str	r3, [r7, #8]
 405:.\PrimeImpl.c ****     if(pjob)
 1695              		.loc 1 405 0
 1696 000c BB68     		ldr	r3, [r7, #8]
 1697 000e 002B     		cmp	r3, #0
 1698 0010 00F0B580 		beq	.L48
 1699              	.LBB5:
 406:.\PrimeImpl.c ****     {        
 407:.\PrimeImpl.c ****         uint8 hosecount = 0x00;
 1700              		.loc 1 407 0
ARM GAS  C:\Users\RECEPC~1\AppData\Local\Temp\ccvxjDo6.s 			page 38


 1701 0014 0023     		movs	r3, #0
 1702 0016 FB73     		strb	r3, [r7, #15]
 408:.\PrimeImpl.c ****         FOR(uint8 index = 0, index < _g_dispenserlayoutinfo._numpositions, index++)
 1703              		.loc 1 408 0
 1704 0018 0023     		movs	r3, #0
 1705 001a BB73     		strb	r3, [r7, #14]
 1706 001c 30E0     		b	.L50
 1707              	.L59:
 409:.\PrimeImpl.c ****         {
 410:.\PrimeImpl.c ****             if(pjob->_ppump->_pumpid == _g_pumps[index]._pumpid)
 1708              		.loc 1 410 0
 1709 001e BB68     		ldr	r3, [r7, #8]
 1710 0020 DB69     		ldr	r3, [r3, #28]
 1711 0022 1A78     		ldrb	r2, [r3]	@ zero_extendqisi2
 1712 0024 BB7B     		ldrb	r3, [r7, #14]	@ zero_extendqisi2
 1713 0026 5749     		ldr	r1, .L66
 1714 0028 40F69830 		movw	r0, #2968
 1715 002c 00FB03F3 		mul	r3, r0, r3
 1716 0030 0B44     		add	r3, r3, r1
 1717 0032 1B78     		ldrb	r3, [r3]	@ zero_extendqisi2
 1718 0034 9A42     		cmp	r2, r3
 1719 0036 20D1     		bne	.L51
 411:.\PrimeImpl.c ****             {
 412:.\PrimeImpl.c ****                 switch(index)
 1720              		.loc 1 412 0
 1721 0038 BB7B     		ldrb	r3, [r7, #14]	@ zero_extendqisi2
 1722 003a 042B     		cmp	r3, #4
 1723 003c 26D8     		bhi	.L65
 1724 003e 01A2     		adr	r2, .L54
 1725 0040 52F823F0 		ldr	pc, [r2, r3, lsl #2]
 1726              		.p2align 2
 1727              	.L54:
 1728 0044 59000000 		.word	.L53+1
 1729 0048 61000000 		.word	.L55+1
 1730 004c 69000000 		.word	.L56+1
 1731 0050 8D000000 		.word	.L65+1
 1732 0054 71000000 		.word	.L57+1
 1733              		.p2align 1
 1734              	.L53:
 413:.\PrimeImpl.c ****                 {
 414:.\PrimeImpl.c ****                     case 0x0:
 415:.\PrimeImpl.c ****                     hosecount = _g_dispenserlayoutinfo._hosesposition1;
 1735              		.loc 1 415 0
 1736 0058 4B4B     		ldr	r3, .L66+4
 1737 005a DB78     		ldrb	r3, [r3, #3]
 1738 005c FB73     		strb	r3, [r7, #15]
 416:.\PrimeImpl.c ****                     break;
 1739              		.loc 1 416 0
 1740 005e 0BE0     		b	.L52
 1741              	.L55:
 417:.\PrimeImpl.c ****                     case 0x1:
 418:.\PrimeImpl.c ****                     hosecount = _g_dispenserlayoutinfo._hosesposition2;
 1742              		.loc 1 418 0
 1743 0060 494B     		ldr	r3, .L66+4
 1744 0062 1B79     		ldrb	r3, [r3, #4]
 1745 0064 FB73     		strb	r3, [r7, #15]
 419:.\PrimeImpl.c ****                     break;
ARM GAS  C:\Users\RECEPC~1\AppData\Local\Temp\ccvxjDo6.s 			page 39


 1746              		.loc 1 419 0
 1747 0066 07E0     		b	.L52
 1748              	.L56:
 420:.\PrimeImpl.c ****                     case 0x2:
 421:.\PrimeImpl.c ****                     hosecount = _g_dispenserlayoutinfo._hosesposition3;
 1749              		.loc 1 421 0
 1750 0068 474B     		ldr	r3, .L66+4
 1751 006a 5B79     		ldrb	r3, [r3, #5]
 1752 006c FB73     		strb	r3, [r7, #15]
 422:.\PrimeImpl.c ****                     break;
 1753              		.loc 1 422 0
 1754 006e 03E0     		b	.L52
 1755              	.L57:
 423:.\PrimeImpl.c ****                     case 0x4:
 424:.\PrimeImpl.c ****                     hosecount = _g_dispenserlayoutinfo._hosesposition4;
 1756              		.loc 1 424 0
 1757 0070 454B     		ldr	r3, .L66+4
 1758 0072 9B79     		ldrb	r3, [r3, #6]
 1759 0074 FB73     		strb	r3, [r7, #15]
 425:.\PrimeImpl.c ****                     break;
 1760              		.loc 1 425 0
 1761 0076 00BF     		nop
 1762              	.L52:
 426:.\PrimeImpl.c ****                 }
 427:.\PrimeImpl.c ****                 break;
 1763              		.loc 1 427 0
 1764 0078 08E0     		b	.L65
 1765              	.L51:
 408:.\PrimeImpl.c ****         {
 1766              		.loc 1 408 0 discriminator 2
 1767 007a BB7B     		ldrb	r3, [r7, #14]	@ zero_extendqisi2
 1768 007c 0133     		adds	r3, r3, #1
 1769 007e BB73     		strb	r3, [r7, #14]
 1770              	.L50:
 408:.\PrimeImpl.c ****         {
 1771              		.loc 1 408 0 is_stmt 0 discriminator 1
 1772 0080 414B     		ldr	r3, .L66+4
 1773 0082 9B78     		ldrb	r3, [r3, #2]	@ zero_extendqisi2
 1774 0084 BA7B     		ldrb	r2, [r7, #14]	@ zero_extendqisi2
 1775 0086 9A42     		cmp	r2, r3
 1776 0088 C9D3     		bcc	.L59
 1777 008a 00E0     		b	.L58
 1778              	.L65:
 1779              		.loc 1 427 0 is_stmt 1
 1780 008c 00BF     		nop
 1781              	.L58:
 428:.\PrimeImpl.c ****             }
 429:.\PrimeImpl.c ****         }
 430:.\PrimeImpl.c ****         
 431:.\PrimeImpl.c ****         //All indexes were taken according to the documentation
 432:.\PrimeImpl.c ****         FOR(index = 0, index < hosecount, index++)
 1782              		.loc 1 432 0
 1783 008e 0023     		movs	r3, #0
 1784 0090 BB73     		strb	r3, [r7, #14]
 1785 0092 66E0     		b	.L60
 1786              	.L64:
 433:.\PrimeImpl.c ****         {
ARM GAS  C:\Users\RECEPC~1\AppData\Local\Temp\ccvxjDo6.s 			page 40


 434:.\PrimeImpl.c ****             switch(index)
 1787              		.loc 1 434 0
 1788 0094 BB7B     		ldrb	r3, [r7, #14]	@ zero_extendqisi2
 1789 0096 002B     		cmp	r3, #0
 1790 0098 02D0     		beq	.L62
 1791 009a 012B     		cmp	r3, #1
 1792 009c 2FD0     		beq	.L63
 1793 009e 5DE0     		b	.L61
 1794              	.L62:
 435:.\PrimeImpl.c ****             {
 436:.\PrimeImpl.c ****             case 0x00:
 437:.\PrimeImpl.c ****                 pjob->_ppump->_datacontainer._var6 = BCDPositiveValueToUInt((LPRAWPTR)&pjob->_ppump
 1795              		.loc 1 437 0
 1796 00a0 BB68     		ldr	r3, [r7, #8]
 1797 00a2 DC69     		ldr	r4, [r3, #28]
 1798 00a4 BB68     		ldr	r3, [r7, #8]
 1799 00a6 DA69     		ldr	r2, [r3, #28]
 1800 00a8 BB7B     		ldrb	r3, [r7, #14]	@ zero_extendqisi2
 1801 00aa 2A21     		movs	r1, #42
 1802 00ac 01FB03F3 		mul	r3, r1, r3
 1803 00b0 0233     		adds	r3, r3, #2
 1804 00b2 03F5C473 		add	r3, r3, #392
 1805 00b6 1344     		add	r3, r3, r2
 1806 00b8 1846     		mov	r0, r3
 1807 00ba 0C21     		movs	r1, #12
 1808 00bc 0F22     		movs	r2, #15
 1809 00be FFF7FEFF 		bl	BCDPositiveValueToUInt
 1810 00c2 0246     		mov	r2, r0
 1811 00c4 0B46     		mov	r3, r1
 1812 00c6 04F64831 		addw	r1, r4, #2888
 1813 00ca C1E90023 		strd	r2, [r1]
 438:.\PrimeImpl.c ****                 pjob->_ppump->_datacontainer._var7 = BCDPositiveValueToUInt((LPRAWPTR)&pjob->_ppump
 1814              		.loc 1 438 0
 1815 00ce BB68     		ldr	r3, [r7, #8]
 1816 00d0 DC69     		ldr	r4, [r3, #28]
 1817 00d2 BB68     		ldr	r3, [r7, #8]
 1818 00d4 DA69     		ldr	r2, [r3, #28]
 1819 00d6 BB7B     		ldrb	r3, [r7, #14]	@ zero_extendqisi2
 1820 00d8 2A21     		movs	r1, #42
 1821 00da 01FB03F3 		mul	r3, r1, r3
 1822 00de 1133     		adds	r3, r3, #17
 1823 00e0 03F5C473 		add	r3, r3, #392
 1824 00e4 1344     		add	r3, r3, r2
 1825 00e6 1846     		mov	r0, r3
 1826 00e8 0C21     		movs	r1, #12
 1827 00ea 0F22     		movs	r2, #15
 1828 00ec FFF7FEFF 		bl	BCDPositiveValueToUInt
 1829 00f0 0246     		mov	r2, r0
 1830 00f2 0B46     		mov	r3, r1
 1831 00f4 04F53561 		add	r1, r4, #2896
 1832 00f8 C1E90023 		strd	r2, [r1]
 439:.\PrimeImpl.c ****                 break;
 1833              		.loc 1 439 0
 1834 00fc 2EE0     		b	.L61
 1835              	.L63:
 440:.\PrimeImpl.c ****             case 0x01:
 441:.\PrimeImpl.c ****                 pjob->_ppump->_datacontainer._var8 = BCDPositiveValueToUInt((LPRAWPTR)&pjob->_ppump
ARM GAS  C:\Users\RECEPC~1\AppData\Local\Temp\ccvxjDo6.s 			page 41


 1836              		.loc 1 441 0
 1837 00fe BB68     		ldr	r3, [r7, #8]
 1838 0100 DC69     		ldr	r4, [r3, #28]
 1839 0102 BB68     		ldr	r3, [r7, #8]
 1840 0104 DA69     		ldr	r2, [r3, #28]
 1841 0106 BB7B     		ldrb	r3, [r7, #14]	@ zero_extendqisi2
 1842 0108 2A21     		movs	r1, #42
 1843 010a 01FB03F3 		mul	r3, r1, r3
 1844 010e 0233     		adds	r3, r3, #2
 1845 0110 03F5C473 		add	r3, r3, #392
 1846 0114 1344     		add	r3, r3, r2
 1847 0116 1846     		mov	r0, r3
 1848 0118 0C21     		movs	r1, #12
 1849 011a 0F22     		movs	r2, #15
 1850 011c FFF7FEFF 		bl	BCDPositiveValueToUInt
 1851 0120 0246     		mov	r2, r0
 1852 0122 0B46     		mov	r3, r1
 1853 0124 04F65831 		addw	r1, r4, #2904
 1854 0128 C1E90023 		strd	r2, [r1]
 442:.\PrimeImpl.c ****                 pjob->_ppump->_datacontainer._var9 = BCDPositiveValueToUInt((LPRAWPTR)&pjob->_ppump
 1855              		.loc 1 442 0
 1856 012c BB68     		ldr	r3, [r7, #8]
 1857 012e DC69     		ldr	r4, [r3, #28]
 1858 0130 BB68     		ldr	r3, [r7, #8]
 1859 0132 DA69     		ldr	r2, [r3, #28]
 1860 0134 BB7B     		ldrb	r3, [r7, #14]	@ zero_extendqisi2
 1861 0136 2A21     		movs	r1, #42
 1862 0138 01FB03F3 		mul	r3, r1, r3
 1863 013c 1133     		adds	r3, r3, #17
 1864 013e 03F5C473 		add	r3, r3, #392
 1865 0142 1344     		add	r3, r3, r2
 1866 0144 1846     		mov	r0, r3
 1867 0146 0C21     		movs	r1, #12
 1868 0148 0F22     		movs	r2, #15
 1869 014a FFF7FEFF 		bl	BCDPositiveValueToUInt
 1870 014e 0246     		mov	r2, r0
 1871 0150 0B46     		mov	r3, r1
 1872 0152 04F53661 		add	r1, r4, #2912
 1873 0156 C1E90023 		strd	r2, [r1]
 443:.\PrimeImpl.c ****                 break;
 1874              		.loc 1 443 0
 1875 015a 00BF     		nop
 1876              	.L61:
 432:.\PrimeImpl.c ****         {
 1877              		.loc 1 432 0 discriminator 2
 1878 015c BB7B     		ldrb	r3, [r7, #14]	@ zero_extendqisi2
 1879 015e 0133     		adds	r3, r3, #1
 1880 0160 BB73     		strb	r3, [r7, #14]
 1881              	.L60:
 432:.\PrimeImpl.c ****         {
 1882              		.loc 1 432 0 is_stmt 0 discriminator 1
 1883 0162 BA7B     		ldrb	r2, [r7, #14]	@ zero_extendqisi2
 1884 0164 FB7B     		ldrb	r3, [r7, #15]	@ zero_extendqisi2
 1885 0166 9A42     		cmp	r2, r3
 1886 0168 94D3     		bcc	.L64
 444:.\PrimeImpl.c ****             //WARNING: IN CASE OF AN ENCORE DISPENSER OR ANOTHER WITH MORE THAN TWO HOSES PER POSIT
 445:.\PrimeImpl.c ****             }
ARM GAS  C:\Users\RECEPC~1\AppData\Local\Temp\ccvxjDo6.s 			page 42


 446:.\PrimeImpl.c ****         }
 447:.\PrimeImpl.c ****         
 448:.\PrimeImpl.c ****         memset(pjob->_ppump->_rxbuffer, 0x00, _PUMP_RX_BUFFER_SIZE_);
 1887              		.loc 1 448 0 is_stmt 1
 1888 016a BB68     		ldr	r3, [r7, #8]
 1889 016c DB69     		ldr	r3, [r3, #28]
 1890 016e 03F5C473 		add	r3, r3, #392
 1891 0172 1846     		mov	r0, r3
 1892 0174 0021     		movs	r1, #0
 1893 0176 4FF4B472 		mov	r2, #360
 1894 017a FFF7FEFF 		bl	memset
 1895              	.L48:
 1896              	.LBE5:
 449:.\PrimeImpl.c ****     }
 450:.\PrimeImpl.c **** }
 1897              		.loc 1 450 0
 1898 017e 1437     		adds	r7, r7, #20
 1899              		.cfi_def_cfa_offset 12
 1900 0180 BD46     		mov	sp, r7
 1901              		.cfi_def_cfa_register 13
 1902              		@ sp needed
 1903 0182 90BD     		pop	{r4, r7, pc}
 1904              	.L67:
 1905              		.align	2
 1906              	.L66:
 1907 0184 00000000 		.word	_g_pumps
 1908 0188 00000000 		.word	_g_dispenserlayoutinfo
 1909              		.cfi_endproc
 1910              	.LFE69:
 1911              		.size	ProcessPumpTotalsDataStart, .-ProcessPumpTotalsDataStart
 1912              		.section	.text.ProcessPumpTotalsDataEnd,"ax",%progbits
 1913              		.align	2
 1914              		.global	ProcessPumpTotalsDataEnd
 1915              		.thumb
 1916              		.thumb_func
 1917              		.type	ProcessPumpTotalsDataEnd, %function
 1918              	ProcessPumpTotalsDataEnd:
 1919              	.LFB70:
 451:.\PrimeImpl.c **** 
 452:.\PrimeImpl.c **** //@Created By: HIJH
 453:.\PrimeImpl.c **** //@Septembre de 2016
 454:.\PrimeImpl.c **** void ProcessPumpTotalsDataEnd(void *pparam)
 455:.\PrimeImpl.c **** {
 1920              		.loc 1 455 0
 1921              		.cfi_startproc
 1922              		@ args = 0, pretend = 0, frame = 56
 1923              		@ frame_needed = 1, uses_anonymous_args = 0
 1924 0000 80B5     		push	{r7, lr}
 1925              		.cfi_def_cfa_offset 8
 1926              		.cfi_offset 7, -8
 1927              		.cfi_offset 14, -4
 1928 0002 8EB0     		sub	sp, sp, #56
 1929              		.cfi_def_cfa_offset 64
 1930 0004 00AF     		add	r7, sp, #0
 1931              		.cfi_def_cfa_register 7
 1932 0006 7860     		str	r0, [r7, #4]
 456:.\PrimeImpl.c ****     PPUMPTRANSACTIONJOBCONTEXTPTR pjob = (PPUMPTRANSACTIONJOBCONTEXTPTR)pparam;
ARM GAS  C:\Users\RECEPC~1\AppData\Local\Temp\ccvxjDo6.s 			page 43


 1933              		.loc 1 456 0
 1934 0008 7B68     		ldr	r3, [r7, #4]
 1935 000a FB61     		str	r3, [r7, #28]
 457:.\PrimeImpl.c ****     if(pjob)
 1936              		.loc 1 457 0
 1937 000c FB69     		ldr	r3, [r7, #28]
 1938 000e 002B     		cmp	r3, #0
 1939 0010 00F0F180 		beq	.L68
 1940              	.LBB6:
 458:.\PrimeImpl.c ****     {
 459:.\PrimeImpl.c ****         uint8 hosecount = 0x00;
 1941              		.loc 1 459 0
 1942 0014 0023     		movs	r3, #0
 1943 0016 87F83730 		strb	r3, [r7, #55]
 460:.\PrimeImpl.c ****         FOR(uint8 index = 0, index < _g_dispenserlayoutinfo._numpositions, index++)
 1944              		.loc 1 460 0
 1945 001a 0023     		movs	r3, #0
 1946 001c 87F83630 		strb	r3, [r7, #54]
 1947 0020 38E0     		b	.L70
 1948              	.L79:
 461:.\PrimeImpl.c ****         {
 462:.\PrimeImpl.c ****             if(pjob->_ppump->_pumpid == _g_pumps[index]._pumpid)
 1949              		.loc 1 462 0
 1950 0022 FB69     		ldr	r3, [r7, #28]
 1951 0024 DB69     		ldr	r3, [r3, #28]
 1952 0026 1A78     		ldrb	r2, [r3]	@ zero_extendqisi2
 1953 0028 97F83630 		ldrb	r3, [r7, #54]	@ zero_extendqisi2
 1954 002c 7349     		ldr	r1, .L92
 1955 002e 40F69830 		movw	r0, #2968
 1956 0032 00FB03F3 		mul	r3, r0, r3
 1957 0036 0B44     		add	r3, r3, r1
 1958 0038 1B78     		ldrb	r3, [r3]	@ zero_extendqisi2
 1959 003a 9A42     		cmp	r2, r3
 1960 003c 25D1     		bne	.L71
 463:.\PrimeImpl.c ****             {
 464:.\PrimeImpl.c ****                 switch(index)
 1961              		.loc 1 464 0
 1962 003e 97F83630 		ldrb	r3, [r7, #54]	@ zero_extendqisi2
 1963 0042 042B     		cmp	r3, #4
 1964 0044 2DD8     		bhi	.L91
 1965 0046 01A2     		adr	r2, .L74
 1966 0048 52F823F0 		ldr	pc, [r2, r3, lsl #2]
 1967              		.p2align 2
 1968              	.L74:
 1969 004c 61000000 		.word	.L73+1
 1970 0050 6B000000 		.word	.L75+1
 1971 0054 75000000 		.word	.L76+1
 1972 0058 A3000000 		.word	.L91+1
 1973 005c 7F000000 		.word	.L77+1
 1974              		.p2align 1
 1975              	.L73:
 465:.\PrimeImpl.c ****                 {
 466:.\PrimeImpl.c ****                     case 0x0:
 467:.\PrimeImpl.c ****                     hosecount = _g_dispenserlayoutinfo._hosesposition1;
 1976              		.loc 1 467 0
 1977 0060 674B     		ldr	r3, .L92+4
 1978 0062 DB78     		ldrb	r3, [r3, #3]
ARM GAS  C:\Users\RECEPC~1\AppData\Local\Temp\ccvxjDo6.s 			page 44


 1979 0064 87F83730 		strb	r3, [r7, #55]
 468:.\PrimeImpl.c ****                     break;
 1980              		.loc 1 468 0
 1981 0068 0EE0     		b	.L72
 1982              	.L75:
 469:.\PrimeImpl.c ****                     case 0x1:
 470:.\PrimeImpl.c ****                     hosecount = _g_dispenserlayoutinfo._hosesposition2;
 1983              		.loc 1 470 0
 1984 006a 654B     		ldr	r3, .L92+4
 1985 006c 1B79     		ldrb	r3, [r3, #4]
 1986 006e 87F83730 		strb	r3, [r7, #55]
 471:.\PrimeImpl.c ****                     break;
 1987              		.loc 1 471 0
 1988 0072 09E0     		b	.L72
 1989              	.L76:
 472:.\PrimeImpl.c ****                     case 0x2:
 473:.\PrimeImpl.c ****                     hosecount = _g_dispenserlayoutinfo._hosesposition3;
 1990              		.loc 1 473 0
 1991 0074 624B     		ldr	r3, .L92+4
 1992 0076 5B79     		ldrb	r3, [r3, #5]
 1993 0078 87F83730 		strb	r3, [r7, #55]
 474:.\PrimeImpl.c ****                     break;
 1994              		.loc 1 474 0
 1995 007c 04E0     		b	.L72
 1996              	.L77:
 475:.\PrimeImpl.c ****                     case 0x4:
 476:.\PrimeImpl.c ****                     hosecount = _g_dispenserlayoutinfo._hosesposition4;
 1997              		.loc 1 476 0
 1998 007e 604B     		ldr	r3, .L92+4
 1999 0080 9B79     		ldrb	r3, [r3, #6]
 2000 0082 87F83730 		strb	r3, [r7, #55]
 477:.\PrimeImpl.c ****                     break;
 2001              		.loc 1 477 0
 2002 0086 00BF     		nop
 2003              	.L72:
 478:.\PrimeImpl.c ****                 }
 479:.\PrimeImpl.c ****                 break;
 2004              		.loc 1 479 0
 2005 0088 0BE0     		b	.L91
 2006              	.L71:
 460:.\PrimeImpl.c ****         {
 2007              		.loc 1 460 0 discriminator 2
 2008 008a 97F83630 		ldrb	r3, [r7, #54]	@ zero_extendqisi2
 2009 008e 0133     		adds	r3, r3, #1
 2010 0090 87F83630 		strb	r3, [r7, #54]
 2011              	.L70:
 460:.\PrimeImpl.c ****         {
 2012              		.loc 1 460 0 is_stmt 0 discriminator 1
 2013 0094 5A4B     		ldr	r3, .L92+4
 2014 0096 9B78     		ldrb	r3, [r3, #2]	@ zero_extendqisi2
 2015 0098 97F83620 		ldrb	r2, [r7, #54]	@ zero_extendqisi2
 2016 009c 9A42     		cmp	r2, r3
 2017 009e C0D3     		bcc	.L79
 2018 00a0 00E0     		b	.L78
 2019              	.L91:
 2020              		.loc 1 479 0 is_stmt 1
 2021 00a2 00BF     		nop
ARM GAS  C:\Users\RECEPC~1\AppData\Local\Temp\ccvxjDo6.s 			page 45


 2022              	.L78:
 480:.\PrimeImpl.c ****             }
 481:.\PrimeImpl.c ****         }
 482:.\PrimeImpl.c ****         
 483:.\PrimeImpl.c ****         uint64 lvar6, lvar7, lvar8, lvar9;
 484:.\PrimeImpl.c ****         //All indexes were taken according to the documentation
 485:.\PrimeImpl.c ****         FOR(index = 0, index < hosecount, index++)
 2023              		.loc 1 485 0
 2024 00a4 0023     		movs	r3, #0
 2025 00a6 87F83630 		strb	r3, [r7, #54]
 2026 00aa 55E0     		b	.L80
 2027              	.L84:
 486:.\PrimeImpl.c ****         {
 487:.\PrimeImpl.c ****             switch(index)
 2028              		.loc 1 487 0
 2029 00ac 97F83630 		ldrb	r3, [r7, #54]	@ zero_extendqisi2
 2030 00b0 002B     		cmp	r3, #0
 2031 00b2 02D0     		beq	.L82
 2032 00b4 012B     		cmp	r3, #1
 2033 00b6 25D0     		beq	.L83
 2034 00b8 49E0     		b	.L81
 2035              	.L82:
 488:.\PrimeImpl.c ****             {
 489:.\PrimeImpl.c ****             case 0x00:
 490:.\PrimeImpl.c ****                 lvar6 = BCDPositiveValueToUInt((LPRAWPTR)&pjob->_ppump->_rxbuffer[0x02 + _PUMP_TOTA
 2036              		.loc 1 490 0
 2037 00ba FB69     		ldr	r3, [r7, #28]
 2038 00bc DA69     		ldr	r2, [r3, #28]
 2039 00be 97F83630 		ldrb	r3, [r7, #54]	@ zero_extendqisi2
 2040 00c2 2A21     		movs	r1, #42
 2041 00c4 01FB03F3 		mul	r3, r1, r3
 2042 00c8 0233     		adds	r3, r3, #2
 2043 00ca 03F5C473 		add	r3, r3, #392
 2044 00ce 1344     		add	r3, r3, r2
 2045 00d0 1846     		mov	r0, r3
 2046 00d2 0C21     		movs	r1, #12
 2047 00d4 0F22     		movs	r2, #15
 2048 00d6 FFF7FEFF 		bl	BCDPositiveValueToUInt
 2049 00da C7E90A01 		strd	r0, [r7, #40]
 491:.\PrimeImpl.c ****                 lvar7 = BCDPositiveValueToUInt((LPRAWPTR)&pjob->_ppump->_rxbuffer[0x11 + _PUMP_TOTA
 2050              		.loc 1 491 0
 2051 00de FB69     		ldr	r3, [r7, #28]
 2052 00e0 DA69     		ldr	r2, [r3, #28]
 2053 00e2 97F83630 		ldrb	r3, [r7, #54]	@ zero_extendqisi2
 2054 00e6 2A21     		movs	r1, #42
 2055 00e8 01FB03F3 		mul	r3, r1, r3
 2056 00ec 1133     		adds	r3, r3, #17
 2057 00ee 03F5C473 		add	r3, r3, #392
 2058 00f2 1344     		add	r3, r3, r2
 2059 00f4 1846     		mov	r0, r3
 2060 00f6 0C21     		movs	r1, #12
 2061 00f8 0F22     		movs	r2, #15
 2062 00fa FFF7FEFF 		bl	BCDPositiveValueToUInt
 2063 00fe C7E90401 		strd	r0, [r7, #16]
 492:.\PrimeImpl.c ****                 break;
 2064              		.loc 1 492 0
 2065 0102 24E0     		b	.L81
ARM GAS  C:\Users\RECEPC~1\AppData\Local\Temp\ccvxjDo6.s 			page 46


 2066              	.L83:
 493:.\PrimeImpl.c ****             case 0x01:
 494:.\PrimeImpl.c ****                 lvar8 = BCDPositiveValueToUInt((LPRAWPTR)&pjob->_ppump->_rxbuffer[0x02 + _PUMP_TOTA
 2067              		.loc 1 494 0
 2068 0104 FB69     		ldr	r3, [r7, #28]
 2069 0106 DA69     		ldr	r2, [r3, #28]
 2070 0108 97F83630 		ldrb	r3, [r7, #54]	@ zero_extendqisi2
 2071 010c 2A21     		movs	r1, #42
 2072 010e 01FB03F3 		mul	r3, r1, r3
 2073 0112 0233     		adds	r3, r3, #2
 2074 0114 03F5C473 		add	r3, r3, #392
 2075 0118 1344     		add	r3, r3, r2
 2076 011a 1846     		mov	r0, r3
 2077 011c 0C21     		movs	r1, #12
 2078 011e 0F22     		movs	r2, #15
 2079 0120 FFF7FEFF 		bl	BCDPositiveValueToUInt
 2080 0124 C7E90801 		strd	r0, [r7, #32]
 495:.\PrimeImpl.c ****                 lvar9 = BCDPositiveValueToUInt((LPRAWPTR)&pjob->_ppump->_rxbuffer[0x11 + _PUMP_TOTA
 2081              		.loc 1 495 0
 2082 0128 FB69     		ldr	r3, [r7, #28]
 2083 012a DA69     		ldr	r2, [r3, #28]
 2084 012c 97F83630 		ldrb	r3, [r7, #54]	@ zero_extendqisi2
 2085 0130 2A21     		movs	r1, #42
 2086 0132 01FB03F3 		mul	r3, r1, r3
 2087 0136 1133     		adds	r3, r3, #17
 2088 0138 03F5C473 		add	r3, r3, #392
 2089 013c 1344     		add	r3, r3, r2
 2090 013e 1846     		mov	r0, r3
 2091 0140 0C21     		movs	r1, #12
 2092 0142 0F22     		movs	r2, #15
 2093 0144 FFF7FEFF 		bl	BCDPositiveValueToUInt
 2094 0148 C7E90201 		strd	r0, [r7, #8]
 496:.\PrimeImpl.c ****                 break;
 2095              		.loc 1 496 0
 2096 014c 00BF     		nop
 2097              	.L81:
 485:.\PrimeImpl.c ****         {
 2098              		.loc 1 485 0 discriminator 2
 2099 014e 97F83630 		ldrb	r3, [r7, #54]	@ zero_extendqisi2
 2100 0152 0133     		adds	r3, r3, #1
 2101 0154 87F83630 		strb	r3, [r7, #54]
 2102              	.L80:
 485:.\PrimeImpl.c ****         {
 2103              		.loc 1 485 0 is_stmt 0 discriminator 1
 2104 0158 97F83620 		ldrb	r2, [r7, #54]	@ zero_extendqisi2
 2105 015c 97F83730 		ldrb	r3, [r7, #55]	@ zero_extendqisi2
 2106 0160 9A42     		cmp	r2, r3
 2107 0162 A3D3     		bcc	.L84
 497:.\PrimeImpl.c ****             //WARNING: IN CASE OF AN ENCORE DISPENSER OR ANOTHER WITH MORE THAN TWO HOSES PER POSIT
 498:.\PrimeImpl.c ****             }
 499:.\PrimeImpl.c ****         }
 500:.\PrimeImpl.c ****         //INSPECT FOR ANY DIFFERENCE BETWEEN THE SOT AND THE EOT TOTALS TO INFORM THE REMOTE PEER
 501:.\PrimeImpl.c ****         switch(hosecount)
 2108              		.loc 1 501 0 is_stmt 1
 2109 0164 97F83730 		ldrb	r3, [r7, #55]	@ zero_extendqisi2
 2110 0168 012B     		cmp	r3, #1
 2111 016a 02D0     		beq	.L86
ARM GAS  C:\Users\RECEPC~1\AppData\Local\Temp\ccvxjDo6.s 			page 47


 2112 016c 022B     		cmp	r3, #2
 2113 016e 13D0     		beq	.L87
 2114 0170 37E0     		b	.L85
 2115              	.L86:
 502:.\PrimeImpl.c ****         {
 503:.\PrimeImpl.c ****             case 0x1:
 504:.\PrimeImpl.c ****             {
 505:.\PrimeImpl.c ****                 if((lvar6 - pjob->_ppump->_datacontainer._var6) ||
 2116              		.loc 1 505 0
 2117 0172 FB69     		ldr	r3, [r7, #28]
 2118 0174 DB69     		ldr	r3, [r3, #28]
 2119 0176 03F64833 		addw	r3, r3, #2888
 2120 017a D3E90001 		ldrd	r0, [r3]
 2121 017e D7E90A23 		ldrd	r2, [r7, #40]
 2122 0182 9942     		cmp	r1, r3
 2123 0184 08BF     		it	eq
 2124 0186 9042     		cmpeq	r0, r2
 2125 0188 05D1     		bne	.L88
 506:.\PrimeImpl.c ****                     (lvar7 - pjob->_ppump->_datacontainer._var7))
 2126              		.loc 1 506 0 discriminator 1
 2127 018a FB69     		ldr	r3, [r7, #28]
 2128 018c DB69     		ldr	r3, [r3, #28]
 2129 018e 03F53563 		add	r3, r3, #2896
 2130 0192 D3E90023 		ldrd	r2, [r3]
 2131              	.L88:
 507:.\PrimeImpl.c ****                 {
 508:.\PrimeImpl.c ****                     //TODO: SAVE THIS CONDITION AND NOTIFY THE REMOTE PEER (NSX IN THIS CASE)
 509:.\PrimeImpl.c ****                 }
 510:.\PrimeImpl.c ****                 break;
 2132              		.loc 1 510 0
 2133 0196 24E0     		b	.L85
 2134              	.L87:
 511:.\PrimeImpl.c ****             }
 512:.\PrimeImpl.c ****             case 0x2:
 513:.\PrimeImpl.c ****             {
 514:.\PrimeImpl.c ****                 if((lvar6 - pjob->_ppump->_datacontainer._var6) ||
 2135              		.loc 1 514 0
 2136 0198 FB69     		ldr	r3, [r7, #28]
 2137 019a DB69     		ldr	r3, [r3, #28]
 2138 019c 03F64833 		addw	r3, r3, #2888
 2139 01a0 D3E90001 		ldrd	r0, [r3]
 2140 01a4 D7E90A23 		ldrd	r2, [r7, #40]
 2141 01a8 9942     		cmp	r1, r3
 2142 01aa 08BF     		it	eq
 2143 01ac 9042     		cmpeq	r0, r2
 2144 01ae 05D1     		bne	.L89
 515:.\PrimeImpl.c ****                     (lvar7 - pjob->_ppump->_datacontainer._var7))
 2145              		.loc 1 515 0 discriminator 1
 2146 01b0 FB69     		ldr	r3, [r7, #28]
 2147 01b2 DB69     		ldr	r3, [r3, #28]
 2148 01b4 03F53563 		add	r3, r3, #2896
 2149 01b8 D3E90023 		ldrd	r2, [r3]
 2150              	.L89:
 516:.\PrimeImpl.c ****                 {
 517:.\PrimeImpl.c ****                     //TODO: SAVE THIS CONDITION AND NOTIFY THE REMOTE PEER (NSX IN THIS CASE)
 518:.\PrimeImpl.c ****                 }
 519:.\PrimeImpl.c ****                 if((lvar8 - pjob->_ppump->_datacontainer._var8) ||
ARM GAS  C:\Users\RECEPC~1\AppData\Local\Temp\ccvxjDo6.s 			page 48


 2151              		.loc 1 519 0
 2152 01bc FB69     		ldr	r3, [r7, #28]
 2153 01be DB69     		ldr	r3, [r3, #28]
 2154 01c0 03F65833 		addw	r3, r3, #2904
 2155 01c4 D3E90001 		ldrd	r0, [r3]
 2156 01c8 D7E90823 		ldrd	r2, [r7, #32]
 2157 01cc 9942     		cmp	r1, r3
 2158 01ce 08BF     		it	eq
 2159 01d0 9042     		cmpeq	r0, r2
 2160 01d2 05D1     		bne	.L90
 520:.\PrimeImpl.c ****                     (lvar9 - pjob->_ppump->_datacontainer._var9))
 2161              		.loc 1 520 0 discriminator 1
 2162 01d4 FB69     		ldr	r3, [r7, #28]
 2163 01d6 DB69     		ldr	r3, [r3, #28]
 2164 01d8 03F53663 		add	r3, r3, #2912
 2165 01dc D3E90023 		ldrd	r2, [r3]
 2166              	.L90:
 521:.\PrimeImpl.c ****                 {
 522:.\PrimeImpl.c ****                     //TODO: SAVE THIS CONDITION AND NOTIFY THE REMOTE PEER (NSX IN THIS CASE)
 523:.\PrimeImpl.c ****                 }
 524:.\PrimeImpl.c ****                 break;
 2167              		.loc 1 524 0
 2168 01e0 00BF     		nop
 2169              	.L85:
 525:.\PrimeImpl.c ****             }
 526:.\PrimeImpl.c ****             //WARNING: IN CASE OF AN ENCORE DISPENSER OR ANOTHER WITH MORE THAN TWO HOSES PER POSIT
 527:.\PrimeImpl.c ****         }
 528:.\PrimeImpl.c ****         
 529:.\PrimeImpl.c ****         memset(pjob->_ppump->_rxbuffer, 0x00, _PUMP_RX_BUFFER_SIZE_);
 2170              		.loc 1 529 0
 2171 01e2 FB69     		ldr	r3, [r7, #28]
 2172 01e4 DB69     		ldr	r3, [r3, #28]
 2173 01e6 03F5C473 		add	r3, r3, #392
 2174 01ea 1846     		mov	r0, r3
 2175 01ec 0021     		movs	r1, #0
 2176 01ee 4FF4B472 		mov	r2, #360
 2177 01f2 FFF7FEFF 		bl	memset
 2178              	.L68:
 2179              	.LBE6:
 530:.\PrimeImpl.c ****     }
 531:.\PrimeImpl.c **** }
 2180              		.loc 1 531 0
 2181 01f6 3837     		adds	r7, r7, #56
 2182              		.cfi_def_cfa_offset 8
 2183 01f8 BD46     		mov	sp, r7
 2184              		.cfi_def_cfa_register 13
 2185              		@ sp needed
 2186 01fa 80BD     		pop	{r7, pc}
 2187              	.L93:
 2188              		.align	2
 2189              	.L92:
 2190 01fc 00000000 		.word	_g_pumps
 2191 0200 00000000 		.word	_g_dispenserlayoutinfo
 2192              		.cfi_endproc
 2193              	.LFE70:
 2194              		.size	ProcessPumpTotalsDataEnd, .-ProcessPumpTotalsDataEnd
 2195              		.section	.text.ProcessPumpTotalsDataReport,"ax",%progbits
ARM GAS  C:\Users\RECEPC~1\AppData\Local\Temp\ccvxjDo6.s 			page 49


 2196              		.align	2
 2197              		.global	ProcessPumpTotalsDataReport
 2198              		.thumb
 2199              		.thumb_func
 2200              		.type	ProcessPumpTotalsDataReport, %function
 2201              	ProcessPumpTotalsDataReport:
 2202              	.LFB71:
 532:.\PrimeImpl.c **** 
 533:.\PrimeImpl.c **** //@Created By: HIJH
 534:.\PrimeImpl.c **** //@Septembre de 2016
 535:.\PrimeImpl.c **** void ProcessPumpTotalsDataReport(void *pparam)
 536:.\PrimeImpl.c **** {
 2203              		.loc 1 536 0
 2204              		.cfi_startproc
 2205              		@ args = 0, pretend = 0, frame = 24
 2206              		@ frame_needed = 1, uses_anonymous_args = 0
 2207 0000 80B5     		push	{r7, lr}
 2208              		.cfi_def_cfa_offset 8
 2209              		.cfi_offset 7, -8
 2210              		.cfi_offset 14, -4
 2211 0002 86B0     		sub	sp, sp, #24
 2212              		.cfi_def_cfa_offset 32
 2213 0004 00AF     		add	r7, sp, #0
 2214              		.cfi_def_cfa_register 7
 2215 0006 7860     		str	r0, [r7, #4]
 537:.\PrimeImpl.c ****     PPUMPTRANSACTIONJOBCONTEXTPTR pjob = (PPUMPTRANSACTIONJOBCONTEXTPTR)pparam;
 2216              		.loc 1 537 0
 2217 0008 7B68     		ldr	r3, [r7, #4]
 2218 000a 7B61     		str	r3, [r7, #20]
 538:.\PrimeImpl.c ****     if(pjob)
 2219              		.loc 1 538 0
 2220 000c 7B69     		ldr	r3, [r7, #20]
 2221 000e 002B     		cmp	r3, #0
 2222 0010 00F0C580 		beq	.L94
 2223              	.LBB7:
 539:.\PrimeImpl.c ****     {
 540:.\PrimeImpl.c ****         bool dataok = true;
 2224              		.loc 1 540 0
 2225 0014 0123     		movs	r3, #1
 2226 0016 FB74     		strb	r3, [r7, #19]
 541:.\PrimeImpl.c ****         uint8 numhoses = 0x00;
 2227              		.loc 1 541 0
 2228 0018 0023     		movs	r3, #0
 2229 001a BB74     		strb	r3, [r7, #18]
 542:.\PrimeImpl.c ****         switch(pjob->_ppump->_pumpindex)
 2230              		.loc 1 542 0
 2231 001c 7B69     		ldr	r3, [r7, #20]
 2232 001e DB69     		ldr	r3, [r3, #28]
 2233 0020 5B78     		ldrb	r3, [r3, #1]	@ zero_extendqisi2
 2234 0022 002B     		cmp	r3, #0
 2235 0024 02D0     		beq	.L97
 2236 0026 012B     		cmp	r3, #1
 2237 0028 04D0     		beq	.L98
 2238 002a 07E0     		b	.L96
 2239              	.L97:
 543:.\PrimeImpl.c ****         {
 544:.\PrimeImpl.c ****             case 0x00:
ARM GAS  C:\Users\RECEPC~1\AppData\Local\Temp\ccvxjDo6.s 			page 50


 545:.\PrimeImpl.c ****             {
 546:.\PrimeImpl.c ****                 numhoses = _g_dispenserlayoutinfo._hosesposition1;
 2240              		.loc 1 546 0
 2241 002c 5D4B     		ldr	r3, .L102
 2242 002e DB78     		ldrb	r3, [r3, #3]
 2243 0030 BB74     		strb	r3, [r7, #18]
 547:.\PrimeImpl.c ****                 break;
 2244              		.loc 1 547 0
 2245 0032 03E0     		b	.L96
 2246              	.L98:
 548:.\PrimeImpl.c ****             }
 549:.\PrimeImpl.c ****             case 0x01:
 550:.\PrimeImpl.c ****             {
 551:.\PrimeImpl.c ****                 numhoses = _g_dispenserlayoutinfo._hosesposition2;
 2247              		.loc 1 551 0
 2248 0034 5B4B     		ldr	r3, .L102
 2249 0036 1B79     		ldrb	r3, [r3, #4]
 2250 0038 BB74     		strb	r3, [r7, #18]
 552:.\PrimeImpl.c ****                 break;
 2251              		.loc 1 552 0
 2252 003a 00BF     		nop
 2253              	.L96:
 553:.\PrimeImpl.c ****             }
 554:.\PrimeImpl.c ****         }
 555:.\PrimeImpl.c ****         
 556:.\PrimeImpl.c ****         pjob->_reenqueue = false;
 2254              		.loc 1 556 0
 2255 003c 7B69     		ldr	r3, [r7, #20]
 2256 003e 0022     		movs	r2, #0
 2257 0040 1A70     		strb	r2, [r3]
 557:.\PrimeImpl.c ****         
 558:.\PrimeImpl.c ****         pjob->_ppump->PumpTransQueueLock(pjob->_ppump);
 2258              		.loc 1 558 0
 2259 0042 7B69     		ldr	r3, [r7, #20]
 2260 0044 DB69     		ldr	r3, [r3, #28]
 2261 0046 D3F8143B 		ldr	r3, [r3, #2836]
 2262 004a 7A69     		ldr	r2, [r7, #20]
 2263 004c D269     		ldr	r2, [r2, #28]
 2264 004e 1046     		mov	r0, r2
 2265 0050 9847     		blx	r3
 559:.\PrimeImpl.c ****         bool transtatefound = pjob->_ppump->PumpTransQueueFind(pjob->_ppump, RF_MUX_TOTALS_REPORT_R
 2266              		.loc 1 559 0
 2267 0052 7B69     		ldr	r3, [r7, #20]
 2268 0054 DB69     		ldr	r3, [r3, #28]
 2269 0056 D3F81C3B 		ldr	r3, [r3, #2844]
 2270 005a 7A69     		ldr	r2, [r7, #20]
 2271 005c D269     		ldr	r2, [r2, #28]
 2272 005e 1046     		mov	r0, r2
 2273 0060 E821     		movs	r1, #232
 2274 0062 9847     		blx	r3
 2275 0064 0346     		mov	r3, r0
 2276 0066 7B74     		strb	r3, [r7, #17]
 560:.\PrimeImpl.c ****         PNEAR_PUMPTRANSACTIONALSTATEPTR pts = pjob->_ppump->PumpTransQueueAllocate(pjob->_ppump);
 2277              		.loc 1 560 0
 2278 0068 7B69     		ldr	r3, [r7, #20]
 2279 006a DB69     		ldr	r3, [r3, #28]
 2280 006c D3F8283B 		ldr	r3, [r3, #2856]
ARM GAS  C:\Users\RECEPC~1\AppData\Local\Temp\ccvxjDo6.s 			page 51


 2281 0070 7A69     		ldr	r2, [r7, #20]
 2282 0072 D269     		ldr	r2, [r2, #28]
 2283 0074 1046     		mov	r0, r2
 2284 0076 9847     		blx	r3
 2285 0078 F860     		str	r0, [r7, #12]
 561:.\PrimeImpl.c ****         PNEAR_PUMPTRANSACTIONALSTATEPTR ptstemp = pjob->_ppump->PumpTransQueueAllocate(pjob->_ppump
 2286              		.loc 1 561 0
 2287 007a 7B69     		ldr	r3, [r7, #20]
 2288 007c DB69     		ldr	r3, [r3, #28]
 2289 007e D3F8283B 		ldr	r3, [r3, #2856]
 2290 0082 7A69     		ldr	r2, [r7, #20]
 2291 0084 D269     		ldr	r2, [r2, #28]
 2292 0086 1046     		mov	r0, r2
 2293 0088 9847     		blx	r3
 2294 008a B860     		str	r0, [r7, #8]
 562:.\PrimeImpl.c ****         
 563:.\PrimeImpl.c ****         pjob->_ppump->PumpTransQueueUnlock(pjob->_ppump);
 2295              		.loc 1 563 0
 2296 008c 7B69     		ldr	r3, [r7, #20]
 2297 008e DB69     		ldr	r3, [r3, #28]
 2298 0090 D3F8183B 		ldr	r3, [r3, #2840]
 2299 0094 7A69     		ldr	r2, [r7, #20]
 2300 0096 D269     		ldr	r2, [r2, #28]
 2301 0098 1046     		mov	r0, r2
 2302 009a 9847     		blx	r3
 564:.\PrimeImpl.c ****         pjob->_ppump->_transhealth = _PUMP_OK_;
 2303              		.loc 1 564 0
 2304 009c 7B69     		ldr	r3, [r7, #20]
 2305 009e DB69     		ldr	r3, [r3, #28]
 2306 00a0 0122     		movs	r2, #1
 2307 00a2 1A76     		strb	r2, [r3, #24]
 565:.\PrimeImpl.c ****         if(ptstemp)
 2308              		.loc 1 565 0
 2309 00a4 BB68     		ldr	r3, [r7, #8]
 2310 00a6 002B     		cmp	r3, #0
 2311 00a8 68D0     		beq	.L99
 566:.\PrimeImpl.c ****         {
 567:.\PrimeImpl.c ****             if(pts && !transtatefound)
 2312              		.loc 1 567 0
 2313 00aa FB68     		ldr	r3, [r7, #12]
 2314 00ac 002B     		cmp	r3, #0
 2315 00ae 41D0     		beq	.L100
 2316              		.loc 1 567 0 is_stmt 0 discriminator 1
 2317 00b0 7B7C     		ldrb	r3, [r7, #17]
 2318 00b2 83F00103 		eor	r3, r3, #1
 2319 00b6 DBB2     		uxtb	r3, r3
 2320 00b8 002B     		cmp	r3, #0
 2321 00ba 3BD0     		beq	.L100
 568:.\PrimeImpl.c ****             {
 569:.\PrimeImpl.c ****                 pts->_transtate = RF_MUX_TOTALS_REPORT_RESPONSE;
 2322              		.loc 1 569 0 is_stmt 1
 2323 00bc FB68     		ldr	r3, [r7, #12]
 2324 00be E822     		movs	r2, #232
 2325 00c0 5A70     		strb	r2, [r3, #1]
 570:.\PrimeImpl.c ****                 
 571:.\PrimeImpl.c ****                 memcpy(pts->_buffer, pjob->_ppump->_rxbuffer, pjob->_ppump->_rxbuffersize);
 2326              		.loc 1 571 0
ARM GAS  C:\Users\RECEPC~1\AppData\Local\Temp\ccvxjDo6.s 			page 52


 2327 00c2 FB68     		ldr	r3, [r7, #12]
 2328 00c4 991C     		adds	r1, r3, #2
 2329 00c6 7B69     		ldr	r3, [r7, #20]
 2330 00c8 DB69     		ldr	r3, [r3, #28]
 2331 00ca 03F5C472 		add	r2, r3, #392
 2332 00ce 7B69     		ldr	r3, [r7, #20]
 2333 00d0 DB69     		ldr	r3, [r3, #28]
 2334 00d2 B3F8F032 		ldrh	r3, [r3, #752]
 2335 00d6 0846     		mov	r0, r1
 2336 00d8 1146     		mov	r1, r2
 2337 00da 1A46     		mov	r2, r3
 2338 00dc FFF7FEFF 		bl	memcpy
 572:.\PrimeImpl.c ****                 pts->_buffersize = pjob->_ppump->_rxbuffersize;
 2339              		.loc 1 572 0
 2340 00e0 7B69     		ldr	r3, [r7, #20]
 2341 00e2 DB69     		ldr	r3, [r3, #28]
 2342 00e4 B3F8F022 		ldrh	r2, [r3, #752]
 2343 00e8 FB68     		ldr	r3, [r7, #12]
 2344 00ea A3F80221 		strh	r2, [r3, #258]	@ movhi
 573:.\PrimeImpl.c ****                 
 574:.\PrimeImpl.c ****                 pjob->_ppump->PumpTransQueueDeallocate(pjob->_ppump,ptstemp);
 2345              		.loc 1 574 0
 2346 00ee 7B69     		ldr	r3, [r7, #20]
 2347 00f0 DB69     		ldr	r3, [r3, #28]
 2348 00f2 D3F8243B 		ldr	r3, [r3, #2852]
 2349 00f6 7A69     		ldr	r2, [r7, #20]
 2350 00f8 D269     		ldr	r2, [r2, #28]
 2351 00fa 1046     		mov	r0, r2
 2352 00fc B968     		ldr	r1, [r7, #8]
 2353 00fe 9847     		blx	r3
 575:.\PrimeImpl.c ****                 pjob->_ppump->PumpTransQueueLock(pjob->_ppump);
 2354              		.loc 1 575 0
 2355 0100 7B69     		ldr	r3, [r7, #20]
 2356 0102 DB69     		ldr	r3, [r3, #28]
 2357 0104 D3F8143B 		ldr	r3, [r3, #2836]
 2358 0108 7A69     		ldr	r2, [r7, #20]
 2359 010a D269     		ldr	r2, [r2, #28]
 2360 010c 1046     		mov	r0, r2
 2361 010e 9847     		blx	r3
 576:.\PrimeImpl.c ****                 pjob->_ppump->PumpTransQueueEnqueue(pjob->_ppump, pts);
 2362              		.loc 1 576 0
 2363 0110 7B69     		ldr	r3, [r7, #20]
 2364 0112 DB69     		ldr	r3, [r3, #28]
 2365 0114 D3F8203B 		ldr	r3, [r3, #2848]
 2366 0118 7A69     		ldr	r2, [r7, #20]
 2367 011a D269     		ldr	r2, [r2, #28]
 2368 011c 1046     		mov	r0, r2
 2369 011e F968     		ldr	r1, [r7, #12]
 2370 0120 9847     		blx	r3
 577:.\PrimeImpl.c ****                 pjob->_ppump->PumpTransQueueUnlock(pjob->_ppump);
 2371              		.loc 1 577 0
 2372 0122 7B69     		ldr	r3, [r7, #20]
 2373 0124 DB69     		ldr	r3, [r3, #28]
 2374 0126 D3F8183B 		ldr	r3, [r3, #2840]
 2375 012a 7A69     		ldr	r2, [r7, #20]
 2376 012c D269     		ldr	r2, [r2, #28]
 2377 012e 1046     		mov	r0, r2
ARM GAS  C:\Users\RECEPC~1\AppData\Local\Temp\ccvxjDo6.s 			page 53


 2378 0130 9847     		blx	r3
 2379 0132 18E0     		b	.L101
 2380              	.L100:
 578:.\PrimeImpl.c ****             }
 579:.\PrimeImpl.c ****             else
 580:.\PrimeImpl.c ****             {
 581:.\PrimeImpl.c ****                 pjob->_ppump->PumpTransQueueLock(pjob->_ppump);
 2381              		.loc 1 581 0
 2382 0134 7B69     		ldr	r3, [r7, #20]
 2383 0136 DB69     		ldr	r3, [r3, #28]
 2384 0138 D3F8143B 		ldr	r3, [r3, #2836]
 2385 013c 7A69     		ldr	r2, [r7, #20]
 2386 013e D269     		ldr	r2, [r2, #28]
 2387 0140 1046     		mov	r0, r2
 2388 0142 9847     		blx	r3
 582:.\PrimeImpl.c ****                 pjob->_ppump->PumpTransQueueDeallocate(pjob->_ppump, pts);
 2389              		.loc 1 582 0
 2390 0144 7B69     		ldr	r3, [r7, #20]
 2391 0146 DB69     		ldr	r3, [r3, #28]
 2392 0148 D3F8243B 		ldr	r3, [r3, #2852]
 2393 014c 7A69     		ldr	r2, [r7, #20]
 2394 014e D269     		ldr	r2, [r2, #28]
 2395 0150 1046     		mov	r0, r2
 2396 0152 F968     		ldr	r1, [r7, #12]
 2397 0154 9847     		blx	r3
 583:.\PrimeImpl.c ****                 pjob->_ppump->PumpTransQueueUnlock(pjob->_ppump);
 2398              		.loc 1 583 0
 2399 0156 7B69     		ldr	r3, [r7, #20]
 2400 0158 DB69     		ldr	r3, [r3, #28]
 2401 015a D3F8183B 		ldr	r3, [r3, #2840]
 2402 015e 7A69     		ldr	r2, [r7, #20]
 2403 0160 D269     		ldr	r2, [r2, #28]
 2404 0162 1046     		mov	r0, r2
 2405 0164 9847     		blx	r3
 2406              	.L101:
 584:.\PrimeImpl.c ****             }
 585:.\PrimeImpl.c ****             memset(pjob->_ppump->_rxbuffer, 0x00, _PUMP_RX_BUFFER_SIZE_);
 2407              		.loc 1 585 0
 2408 0166 7B69     		ldr	r3, [r7, #20]
 2409 0168 DB69     		ldr	r3, [r3, #28]
 2410 016a 03F5C473 		add	r3, r3, #392
 2411 016e 1846     		mov	r0, r3
 2412 0170 0021     		movs	r1, #0
 2413 0172 4FF4B472 		mov	r2, #360
 2414 0176 FFF7FEFF 		bl	memset
 2415 017a 10E0     		b	.L94
 2416              	.L99:
 586:.\PrimeImpl.c ****         }else{
 587:.\PrimeImpl.c ****             pjob->_ppump->PumpTransQueueDeallocate(pjob->_ppump, pts);
 2417              		.loc 1 587 0
 2418 017c 7B69     		ldr	r3, [r7, #20]
 2419 017e DB69     		ldr	r3, [r3, #28]
 2420 0180 D3F8243B 		ldr	r3, [r3, #2852]
 2421 0184 7A69     		ldr	r2, [r7, #20]
 2422 0186 D269     		ldr	r2, [r2, #28]
 2423 0188 1046     		mov	r0, r2
 2424 018a F968     		ldr	r1, [r7, #12]
ARM GAS  C:\Users\RECEPC~1\AppData\Local\Temp\ccvxjDo6.s 			page 54


 2425 018c 9847     		blx	r3
 588:.\PrimeImpl.c ****             pjob->_ppump->PumpTransQueueUnlock(pjob->_ppump);
 2426              		.loc 1 588 0
 2427 018e 7B69     		ldr	r3, [r7, #20]
 2428 0190 DB69     		ldr	r3, [r3, #28]
 2429 0192 D3F8183B 		ldr	r3, [r3, #2840]
 2430 0196 7A69     		ldr	r2, [r7, #20]
 2431 0198 D269     		ldr	r2, [r2, #28]
 2432 019a 1046     		mov	r0, r2
 2433 019c 9847     		blx	r3
 2434              	.L94:
 2435              	.LBE7:
 589:.\PrimeImpl.c ****         }
 590:.\PrimeImpl.c ****     }
 591:.\PrimeImpl.c **** }
 2436              		.loc 1 591 0
 2437 019e 1837     		adds	r7, r7, #24
 2438              		.cfi_def_cfa_offset 8
 2439 01a0 BD46     		mov	sp, r7
 2440              		.cfi_def_cfa_register 13
 2441              		@ sp needed
 2442 01a2 80BD     		pop	{r7, pc}
 2443              	.L103:
 2444              		.align	2
 2445              	.L102:
 2446 01a4 00000000 		.word	_g_dispenserlayoutinfo
 2447              		.cfi_endproc
 2448              	.LFE71:
 2449              		.size	ProcessPumpTotalsDataReport, .-ProcessPumpTotalsDataReport
 2450              		.section	.text.ProcessPumpTotalsDataPpuCheck,"ax",%progbits
 2451              		.align	2
 2452              		.global	ProcessPumpTotalsDataPpuCheck
 2453              		.thumb
 2454              		.thumb_func
 2455              		.type	ProcessPumpTotalsDataPpuCheck, %function
 2456              	ProcessPumpTotalsDataPpuCheck:
 2457              	.LFB72:
 592:.\PrimeImpl.c **** 
 593:.\PrimeImpl.c **** //@Created By: HIJH
 594:.\PrimeImpl.c **** //@Septembre de 2016
 595:.\PrimeImpl.c **** void ProcessPumpTotalsDataPpuCheck(void *pparam)
 596:.\PrimeImpl.c **** {
 2458              		.loc 1 596 0
 2459              		.cfi_startproc
 2460              		@ args = 0, pretend = 0, frame = 16
 2461              		@ frame_needed = 1, uses_anonymous_args = 0
 2462 0000 80B5     		push	{r7, lr}
 2463              		.cfi_def_cfa_offset 8
 2464              		.cfi_offset 7, -8
 2465              		.cfi_offset 14, -4
 2466 0002 84B0     		sub	sp, sp, #16
 2467              		.cfi_def_cfa_offset 24
 2468 0004 00AF     		add	r7, sp, #0
 2469              		.cfi_def_cfa_register 7
 2470 0006 7860     		str	r0, [r7, #4]
 597:.\PrimeImpl.c ****     PPUMPTRANSACTIONJOBCONTEXTPTR pjob = (PPUMPTRANSACTIONJOBCONTEXTPTR)pparam;
 2471              		.loc 1 597 0
ARM GAS  C:\Users\RECEPC~1\AppData\Local\Temp\ccvxjDo6.s 			page 55


 2472 0008 7B68     		ldr	r3, [r7, #4]
 2473 000a FB60     		str	r3, [r7, #12]
 598:.\PrimeImpl.c ****     if(pjob)
 2474              		.loc 1 598 0
 2475 000c FB68     		ldr	r3, [r7, #12]
 2476 000e 002B     		cmp	r3, #0
 2477 0010 09D0     		beq	.L104
 599:.\PrimeImpl.c ****     {
 600:.\PrimeImpl.c **** /*        
 601:.\PrimeImpl.c ****         
 602:.\PrimeImpl.c ****         PNEAR_PUMPTRANSACTIONALSTATEPTR pts = pjob->_ppump->PumpTransQueueAllocate(pjob->_ppump);
 603:.\PrimeImpl.c ****         if(pts)
 604:.\PrimeImpl.c ****         {
 605:.\PrimeImpl.c ****             pts->_transtate = _PUMP_POSITION_TRANSREPORT_;
 606:.\PrimeImpl.c ****             memcpy(pts->_buffer, pjob->_ppump->_rxbuffer, pjob->_ppump->_rxbuffersize);
 607:.\PrimeImpl.c ****             pts->_buffersize = pjob->_ppump->_rxbuffersize;
 608:.\PrimeImpl.c ****         }
 609:.\PrimeImpl.c ****         
 610:.\PrimeImpl.c ****         
 611:.\PrimeImpl.c ****         uint8 var = 0;//THIS IS A DUMMY VAR TO DROP THE WARNING IF THERE IS NO ASSIGNMENT!!
 612:.\PrimeImpl.c ****         uint8 index = 0;
 613:.\PrimeImpl.c ****         //All indexes were taken according to the documentation
 614:.\PrimeImpl.c ****         var = (pjob->_ppump->_rxbuffer[0x02 + _PUMP_TOTALS_BUFFER_SHIFT_*index] & 0x0F);//Hose id
 615:.\PrimeImpl.c **** 
 616:.\PrimeImpl.c ****         //Bytes from index 0x04 + _PUMP_TOTALS_BUFFER_SHIFT_*index to 0x0F + _PUMP_TOTALS_BUFFER_SH
 617:.\PrimeImpl.c ****         //are the digits for the total fuel volume delivered until now on this pump
 618:.\PrimeImpl.c ****         //Digits are in BCD format
 619:.\PrimeImpl.c ****         var = (pjob->_ppump->_rxbuffer[0x04 + _PUMP_TOTALS_BUFFER_SHIFT_*index] & 0x0F);
 620:.\PrimeImpl.c ****         var = (pjob->_ppump->_rxbuffer[0x05 + _PUMP_TOTALS_BUFFER_SHIFT_*index] & 0x0F);
 621:.\PrimeImpl.c ****         var = (pjob->_ppump->_rxbuffer[0x06 + _PUMP_TOTALS_BUFFER_SHIFT_*index] & 0x0F);
 622:.\PrimeImpl.c ****         var = (pjob->_ppump->_rxbuffer[0x07 + _PUMP_TOTALS_BUFFER_SHIFT_*index] & 0x0F);
 623:.\PrimeImpl.c ****         var = (pjob->_ppump->_rxbuffer[0x08 + _PUMP_TOTALS_BUFFER_SHIFT_*index] & 0x0F);
 624:.\PrimeImpl.c ****         var = (pjob->_ppump->_rxbuffer[0x09 + _PUMP_TOTALS_BUFFER_SHIFT_*index] & 0x0F);
 625:.\PrimeImpl.c ****         var = (pjob->_ppump->_rxbuffer[0x0A + _PUMP_TOTALS_BUFFER_SHIFT_*index] & 0x0F);
 626:.\PrimeImpl.c ****         var = (pjob->_ppump->_rxbuffer[0x0B + _PUMP_TOTALS_BUFFER_SHIFT_*index] & 0x0F);
 627:.\PrimeImpl.c ****         var = (pjob->_ppump->_rxbuffer[0x0C + _PUMP_TOTALS_BUFFER_SHIFT_*index] & 0x0F);
 628:.\PrimeImpl.c ****         var = (pjob->_ppump->_rxbuffer[0x0D + _PUMP_TOTALS_BUFFER_SHIFT_*index] & 0x0F);
 629:.\PrimeImpl.c ****         var = (pjob->_ppump->_rxbuffer[0x0E + _PUMP_TOTALS_BUFFER_SHIFT_*index] & 0x0F);
 630:.\PrimeImpl.c ****         var = (pjob->_ppump->_rxbuffer[0x0F + _PUMP_TOTALS_BUFFER_SHIFT_*index] & 0x0F);
 631:.\PrimeImpl.c **** 
 632:.\PrimeImpl.c ****         //Bytes from index 0x11 + _PUMP_TOTALS_BUFFER_SHIFT_*index to 0x1C + _PUMP_TOTALS_BUFFER_SH
 633:.\PrimeImpl.c ****         //are the digits for the total money charged until now on this pump
 634:.\PrimeImpl.c ****         //Digits are in BCD format
 635:.\PrimeImpl.c ****         var = (pjob->_ppump->_rxbuffer[0x11 + _PUMP_TOTALS_BUFFER_SHIFT_*index] & 0x0F);
 636:.\PrimeImpl.c ****         var = (pjob->_ppump->_rxbuffer[0x12 + _PUMP_TOTALS_BUFFER_SHIFT_*index] & 0x0F);
 637:.\PrimeImpl.c ****         var = (pjob->_ppump->_rxbuffer[0x13 + _PUMP_TOTALS_BUFFER_SHIFT_*index] & 0x0F);
 638:.\PrimeImpl.c ****         var = (pjob->_ppump->_rxbuffer[0x14 + _PUMP_TOTALS_BUFFER_SHIFT_*index] & 0x0F);
 639:.\PrimeImpl.c ****         var = (pjob->_ppump->_rxbuffer[0x15 + _PUMP_TOTALS_BUFFER_SHIFT_*index] & 0x0F);
 640:.\PrimeImpl.c ****         var = (pjob->_ppump->_rxbuffer[0x16 + _PUMP_TOTALS_BUFFER_SHIFT_*index] & 0x0F);
 641:.\PrimeImpl.c ****         var = (pjob->_ppump->_rxbuffer[0x17 + _PUMP_TOTALS_BUFFER_SHIFT_*index] & 0x0F);
 642:.\PrimeImpl.c ****         var = (pjob->_ppump->_rxbuffer[0x18 + _PUMP_TOTALS_BUFFER_SHIFT_*index] & 0x0F);
 643:.\PrimeImpl.c ****         var = (pjob->_ppump->_rxbuffer[0x19 + _PUMP_TOTALS_BUFFER_SHIFT_*index] & 0x0F);
 644:.\PrimeImpl.c ****         var = (pjob->_ppump->_rxbuffer[0x1A + _PUMP_TOTALS_BUFFER_SHIFT_*index] & 0x0F);
 645:.\PrimeImpl.c ****         var = (pjob->_ppump->_rxbuffer[0x1B + _PUMP_TOTALS_BUFFER_SHIFT_*index] & 0x0F);
 646:.\PrimeImpl.c ****         var = (pjob->_ppump->_rxbuffer[0x1C + _PUMP_TOTALS_BUFFER_SHIFT_*index] & 0x0F);
 647:.\PrimeImpl.c ****         
 648:.\PrimeImpl.c ****         //Bytes from index 0x1E + _PUMP_TOTALS_BUFFER_SHIFT_*index to 0x23 + _PUMP_TOTALS_BUFFER_SH
ARM GAS  C:\Users\RECEPC~1\AppData\Local\Temp\ccvxjDo6.s 			page 56


 649:.\PrimeImpl.c ****         //are the digits for the reference PPU used on this pump/hose
 650:.\PrimeImpl.c ****         //Digits are in BCD format
 651:.\PrimeImpl.c ****         var = (pjob->_ppump->_rxbuffer[0x1E + _PUMP_TOTALS_BUFFER_SHIFT_*index] & 0x0F);
 652:.\PrimeImpl.c ****         var = (pjob->_ppump->_rxbuffer[0x1F + _PUMP_TOTALS_BUFFER_SHIFT_*index] & 0x0F);
 653:.\PrimeImpl.c ****         var = (pjob->_ppump->_rxbuffer[0x20 + _PUMP_TOTALS_BUFFER_SHIFT_*index] & 0x0F);
 654:.\PrimeImpl.c ****         var = (pjob->_ppump->_rxbuffer[0x21 + _PUMP_TOTALS_BUFFER_SHIFT_*index] & 0x0F);
 655:.\PrimeImpl.c ****         var = (pjob->_ppump->_rxbuffer[0x22 + _PUMP_TOTALS_BUFFER_SHIFT_*index] & 0x0F);
 656:.\PrimeImpl.c ****         var = (pjob->_ppump->_rxbuffer[0x23 + _PUMP_TOTALS_BUFFER_SHIFT_*index] & 0x0F);
 657:.\PrimeImpl.c **** */        
 658:.\PrimeImpl.c ****         memset(pjob->_ppump->_rxbuffer, 0x00, _PUMP_RX_BUFFER_SIZE_);
 2478              		.loc 1 658 0
 2479 0012 FB68     		ldr	r3, [r7, #12]
 2480 0014 DB69     		ldr	r3, [r3, #28]
 2481 0016 03F5C473 		add	r3, r3, #392
 2482 001a 1846     		mov	r0, r3
 2483 001c 0021     		movs	r1, #0
 2484 001e 4FF4B472 		mov	r2, #360
 2485 0022 FFF7FEFF 		bl	memset
 2486              	.L104:
 659:.\PrimeImpl.c ****     }
 660:.\PrimeImpl.c **** }
 2487              		.loc 1 660 0
 2488 0026 1037     		adds	r7, r7, #16
 2489              		.cfi_def_cfa_offset 8
 2490 0028 BD46     		mov	sp, r7
 2491              		.cfi_def_cfa_register 13
 2492              		@ sp needed
 2493 002a 80BD     		pop	{r7, pc}
 2494              		.cfi_endproc
 2495              	.LFE72:
 2496              		.size	ProcessPumpTotalsDataPpuCheck, .-ProcessPumpTotalsDataPpuCheck
 2497              		.section	.text.PumpJobTimeout,"ax",%progbits
 2498              		.align	2
 2499              		.global	PumpJobTimeout
 2500              		.thumb
 2501              		.thumb_func
 2502              		.type	PumpJobTimeout, %function
 2503              	PumpJobTimeout:
 2504              	.LFB73:
 661:.\PrimeImpl.c **** 
 662:.\PrimeImpl.c **** //@Created By: HIJH
 663:.\PrimeImpl.c **** //@Date: Septembre de 2016
 664:.\PrimeImpl.c **** //This must be used to notify the log registry about the timeout issue
 665:.\PrimeImpl.c **** void PumpJobTimeout(void *pparam)
 666:.\PrimeImpl.c **** {
 2505              		.loc 1 666 0
 2506              		.cfi_startproc
 2507              		@ args = 0, pretend = 0, frame = 16
 2508              		@ frame_needed = 1, uses_anonymous_args = 0
 2509              		@ link register save eliminated.
 2510 0000 80B4     		push	{r7}
 2511              		.cfi_def_cfa_offset 4
 2512              		.cfi_offset 7, -4
 2513 0002 85B0     		sub	sp, sp, #20
 2514              		.cfi_def_cfa_offset 24
 2515 0004 00AF     		add	r7, sp, #0
 2516              		.cfi_def_cfa_register 7
ARM GAS  C:\Users\RECEPC~1\AppData\Local\Temp\ccvxjDo6.s 			page 57


 2517 0006 7860     		str	r0, [r7, #4]
 667:.\PrimeImpl.c ****     PPUMPTRANSACTIONJOBCONTEXTPTR pjob = (PPUMPTRANSACTIONJOBCONTEXTPTR)pparam;
 2518              		.loc 1 667 0
 2519 0008 7B68     		ldr	r3, [r7, #4]
 2520 000a FB60     		str	r3, [r7, #12]
 668:.\PrimeImpl.c ****     if(pjob)
 2521              		.loc 1 668 0
 2522 000c FB68     		ldr	r3, [r7, #12]
 2523 000e 002B     		cmp	r3, #0
 2524 0010 0CD0     		beq	.L106
 669:.\PrimeImpl.c ****     {
 670:.\PrimeImpl.c ****         //Release the Current Loop and log if possible
 671:.\PrimeImpl.c ****         if(pjob->_retriescounter >= _MAX_RETRIES_)
 2525              		.loc 1 671 0
 2526 0012 FB68     		ldr	r3, [r7, #12]
 2527 0014 DB89     		ldrh	r3, [r3, #14]	@ movhi
 2528 0016 9BB2     		uxth	r3, r3
 2529 0018 132B     		cmp	r3, #19
 2530 001a 07D9     		bls	.L106
 672:.\PrimeImpl.c ****         {
 673:.\PrimeImpl.c ****             pjob->_ppump->_pumpstate = PUMP_UNKNOWN;
 2531              		.loc 1 673 0
 2532 001c FB68     		ldr	r3, [r7, #12]
 2533 001e DB69     		ldr	r3, [r3, #28]
 2534 0020 FF22     		movs	r2, #255
 2535 0022 9A70     		strb	r2, [r3, #2]
 674:.\PrimeImpl.c ****             pjob->_ppump->_transhealth = _PUMP_FAIL_;
 2536              		.loc 1 674 0
 2537 0024 FB68     		ldr	r3, [r7, #12]
 2538 0026 DB69     		ldr	r3, [r3, #28]
 2539 0028 0222     		movs	r2, #2
 2540 002a 1A76     		strb	r2, [r3, #24]
 2541              	.L106:
 675:.\PrimeImpl.c ****         }
 676:.\PrimeImpl.c ****     }
 677:.\PrimeImpl.c **** }
 2542              		.loc 1 677 0
 2543 002c 1437     		adds	r7, r7, #20
 2544              		.cfi_def_cfa_offset 4
 2545 002e BD46     		mov	sp, r7
 2546              		.cfi_def_cfa_register 13
 2547              		@ sp needed
 2548 0030 5DF8047B 		ldr	r7, [sp], #4
 2549              		.cfi_restore 7
 2550              		.cfi_def_cfa_offset 0
 2551 0034 7047     		bx	lr
 2552              		.cfi_endproc
 2553              	.LFE73:
 2554              		.size	PumpJobTimeout, .-PumpJobTimeout
 2555 0036 00BF     		.section	.text.PumpStateJobTimeout,"ax",%progbits
 2556              		.align	2
 2557              		.global	PumpStateJobTimeout
 2558              		.thumb
 2559              		.thumb_func
 2560              		.type	PumpStateJobTimeout, %function
 2561              	PumpStateJobTimeout:
 2562              	.LFB74:
ARM GAS  C:\Users\RECEPC~1\AppData\Local\Temp\ccvxjDo6.s 			page 58


 678:.\PrimeImpl.c **** 
 679:.\PrimeImpl.c **** //@Created By: HIJH
 680:.\PrimeImpl.c **** //@Date: Septembre de 2016
 681:.\PrimeImpl.c **** //This must be used to notify the log registry about the timeout issue
 682:.\PrimeImpl.c **** void PumpStateJobTimeout(void *pparam)
 683:.\PrimeImpl.c **** {
 2563              		.loc 1 683 0
 2564              		.cfi_startproc
 2565              		@ args = 0, pretend = 0, frame = 16
 2566              		@ frame_needed = 1, uses_anonymous_args = 0
 2567              		@ link register save eliminated.
 2568 0000 80B4     		push	{r7}
 2569              		.cfi_def_cfa_offset 4
 2570              		.cfi_offset 7, -4
 2571 0002 85B0     		sub	sp, sp, #20
 2572              		.cfi_def_cfa_offset 24
 2573 0004 00AF     		add	r7, sp, #0
 2574              		.cfi_def_cfa_register 7
 2575 0006 7860     		str	r0, [r7, #4]
 684:.\PrimeImpl.c ****     PPUMPTRANSACTIONJOBCONTEXTPTR pjob = (PPUMPTRANSACTIONJOBCONTEXTPTR)pparam;
 2576              		.loc 1 684 0
 2577 0008 7B68     		ldr	r3, [r7, #4]
 2578 000a FB60     		str	r3, [r7, #12]
 685:.\PrimeImpl.c ****     if(pjob)
 2579              		.loc 1 685 0
 2580 000c FB68     		ldr	r3, [r7, #12]
 2581 000e 002B     		cmp	r3, #0
 2582 0010 0CD0     		beq	.L108
 686:.\PrimeImpl.c ****     {
 687:.\PrimeImpl.c ****         //Release the Current Loop and log if possible
 688:.\PrimeImpl.c ****         if(pjob->_retriescounter >= _MAX_RETRIES_)
 2583              		.loc 1 688 0
 2584 0012 FB68     		ldr	r3, [r7, #12]
 2585 0014 DB89     		ldrh	r3, [r3, #14]	@ movhi
 2586 0016 9BB2     		uxth	r3, r3
 2587 0018 132B     		cmp	r3, #19
 2588 001a 07D9     		bls	.L108
 689:.\PrimeImpl.c ****         {
 690:.\PrimeImpl.c ****             pjob->_ppump->_pumpstate = PUMP_UNKNOWN;
 2589              		.loc 1 690 0
 2590 001c FB68     		ldr	r3, [r7, #12]
 2591 001e DB69     		ldr	r3, [r3, #28]
 2592 0020 FF22     		movs	r2, #255
 2593 0022 9A70     		strb	r2, [r3, #2]
 691:.\PrimeImpl.c ****             pjob->_ppump->_transhealth = _PUMP_FAIL_;
 2594              		.loc 1 691 0
 2595 0024 FB68     		ldr	r3, [r7, #12]
 2596 0026 DB69     		ldr	r3, [r3, #28]
 2597 0028 0222     		movs	r2, #2
 2598 002a 1A76     		strb	r2, [r3, #24]
 2599              	.L108:
 692:.\PrimeImpl.c ****         }
 693:.\PrimeImpl.c ****     }
 694:.\PrimeImpl.c **** }
 2600              		.loc 1 694 0
 2601 002c 1437     		adds	r7, r7, #20
 2602              		.cfi_def_cfa_offset 4
ARM GAS  C:\Users\RECEPC~1\AppData\Local\Temp\ccvxjDo6.s 			page 59


 2603 002e BD46     		mov	sp, r7
 2604              		.cfi_def_cfa_register 13
 2605              		@ sp needed
 2606 0030 5DF8047B 		ldr	r7, [sp], #4
 2607              		.cfi_restore 7
 2608              		.cfi_def_cfa_offset 0
 2609 0034 7047     		bx	lr
 2610              		.cfi_endproc
 2611              	.LFE74:
 2612              		.size	PumpStateJobTimeout, .-PumpStateJobTimeout
 2613 0036 00BF     		.section	.text.PumpAuthorization,"ax",%progbits
 2614              		.align	2
 2615              		.global	PumpAuthorization
 2616              		.thumb
 2617              		.thumb_func
 2618              		.type	PumpAuthorization, %function
 2619              	PumpAuthorization:
 2620              	.LFB75:
 695:.\PrimeImpl.c **** 
 696:.\PrimeImpl.c **** ///////////////////////////////////////////////////////////////////////////////////////////////////
 697:.\PrimeImpl.c **** //////////////////////                 BLOCK OF AVAILABLE REQUEST HANDLERS
 698:.\PrimeImpl.c **** ///////////////////////////////////////////////////////////////////////////////////////////////////
 699:.\PrimeImpl.c **** 
 700:.\PrimeImpl.c **** //@Created By: HIJH
 701:.\PrimeImpl.c **** //@Date: Septembre de 2016
 702:.\PrimeImpl.c **** //Sends the authorization request to the pump. This is a single byte command with no response
 703:.\PrimeImpl.c **** void PumpAuthorization(void *pparam)
 704:.\PrimeImpl.c **** {
 2621              		.loc 1 704 0
 2622              		.cfi_startproc
 2623              		@ args = 0, pretend = 0, frame = 24
 2624              		@ frame_needed = 1, uses_anonymous_args = 0
 2625 0000 80B5     		push	{r7, lr}
 2626              		.cfi_def_cfa_offset 8
 2627              		.cfi_offset 7, -8
 2628              		.cfi_offset 14, -4
 2629 0002 86B0     		sub	sp, sp, #24
 2630              		.cfi_def_cfa_offset 32
 2631 0004 00AF     		add	r7, sp, #0
 2632              		.cfi_def_cfa_register 7
 2633 0006 7860     		str	r0, [r7, #4]
 705:.\PrimeImpl.c ****     PNEAR_PUMPPTR ppump = (PNEAR_PUMPPTR)pparam;
 2634              		.loc 1 705 0
 2635 0008 7B68     		ldr	r3, [r7, #4]
 2636 000a 7B61     		str	r3, [r7, #20]
 706:.\PrimeImpl.c ****     if(ppump)
 2637              		.loc 1 706 0
 2638 000c 7B69     		ldr	r3, [r7, #20]
 2639 000e 002B     		cmp	r3, #0
 2640 0010 34D0     		beq	.L110
 2641              	.LBB8:
 707:.\PrimeImpl.c ****     {
 708:.\PrimeImpl.c ****         
 709:.\PrimeImpl.c ****         if(!ppump->_presetdone)
 2642              		.loc 1 709 0
 2643 0012 7B69     		ldr	r3, [r7, #20]
 2644 0014 9B7A     		ldrb	r3, [r3, #10]
ARM GAS  C:\Users\RECEPC~1\AppData\Local\Temp\ccvxjDo6.s 			page 60


 2645 0016 DBB2     		uxtb	r3, r3
 2646 0018 83F00103 		eor	r3, r3, #1
 2647 001c DBB2     		uxtb	r3, r3
 2648 001e 002B     		cmp	r3, #0
 2649 0020 00D0     		beq	.L112
 710:.\PrimeImpl.c ****             return;
 2650              		.loc 1 710 0
 2651 0022 2BE0     		b	.L110
 2652              	.L112:
 711:.\PrimeImpl.c ****         
 712:.\PrimeImpl.c ****         uint8_t index = 0;
 2653              		.loc 1 712 0
 2654 0024 0023     		movs	r3, #0
 2655 0026 FB74     		strb	r3, [r7, #19]
 713:.\PrimeImpl.c ****         memset(ppump->_rxbuffer, 0x00, _PUMP_RX_BUFFER_SIZE_);
 2656              		.loc 1 713 0
 2657 0028 7B69     		ldr	r3, [r7, #20]
 2658 002a 03F5C473 		add	r3, r3, #392
 2659 002e 1846     		mov	r0, r3
 2660 0030 0021     		movs	r1, #0
 2661 0032 4FF4B472 		mov	r2, #360
 2662 0036 FFF7FEFF 		bl	memset
 714:.\PrimeImpl.c ****         PUARTMESSAGEPTR puartdisp = GetUARTMessageSlot(UART_DISPENSER);
 2663              		.loc 1 714 0
 2664 003a A220     		movs	r0, #162
 2665 003c FFF7FEFF 		bl	GetUARTMessageSlot
 2666 0040 F860     		str	r0, [r7, #12]
 715:.\PrimeImpl.c ****         if(puartdisp)
 2667              		.loc 1 715 0
 2668 0042 FB68     		ldr	r3, [r7, #12]
 2669 0044 002B     		cmp	r3, #0
 2670 0046 19D0     		beq	.L110
 716:.\PrimeImpl.c ****         {
 717:.\PrimeImpl.c ****             //Just one byte for the response
 718:.\PrimeImpl.c ****             puartdisp->_messagetx[index++] = PUMP_COMMAND(PUMP_AUTHORIZATION, ppump->_pumpid);
 2671              		.loc 1 718 0
 2672 0048 FB7C     		ldrb	r3, [r7, #19]	@ zero_extendqisi2
 2673 004a 5A1C     		adds	r2, r3, #1
 2674 004c FA74     		strb	r2, [r7, #19]
 2675 004e 1946     		mov	r1, r3
 2676 0050 7B69     		ldr	r3, [r7, #20]
 2677 0052 1B78     		ldrb	r3, [r3]	@ zero_extendqisi2
 2678 0054 DBB2     		uxtb	r3, r3
 2679 0056 03F00F03 		and	r3, r3, #15
 2680 005a DBB2     		uxtb	r3, r3
 2681 005c 43F01003 		orr	r3, r3, #16
 2682 0060 DBB2     		uxtb	r3, r3
 2683 0062 DAB2     		uxtb	r2, r3
 2684 0064 FB68     		ldr	r3, [r7, #12]
 2685 0066 0B44     		add	r3, r3, r1
 2686 0068 1A71     		strb	r2, [r3, #4]
 719:.\PrimeImpl.c ****             puartdisp->_messagelength = 1;//One byte
 2687              		.loc 1 719 0
 2688 006a FB68     		ldr	r3, [r7, #12]
 2689 006c 0122     		movs	r2, #1
 2690 006e 5A80     		strh	r2, [r3, #2]	@ movhi
 720:.\PrimeImpl.c ****             puartdisp->_messagestate = PENDING;
ARM GAS  C:\Users\RECEPC~1\AppData\Local\Temp\ccvxjDo6.s 			page 61


 2691              		.loc 1 720 0
 2692 0070 FB68     		ldr	r3, [r7, #12]
 2693 0072 C222     		movs	r2, #194
 2694 0074 1A70     		strb	r2, [r3]
 721:.\PrimeImpl.c ****             
 722:.\PrimeImpl.c ****             ppump->_authorized = true;
 2695              		.loc 1 722 0
 2696 0076 7B69     		ldr	r3, [r7, #20]
 2697 0078 0122     		movs	r2, #1
 2698 007a 1A72     		strb	r2, [r3, #8]
 2699              	.L110:
 2700              	.LBE8:
 723:.\PrimeImpl.c ****         }
 724:.\PrimeImpl.c ****     }
 725:.\PrimeImpl.c **** }
 2701              		.loc 1 725 0
 2702 007c 1837     		adds	r7, r7, #24
 2703              		.cfi_def_cfa_offset 8
 2704 007e BD46     		mov	sp, r7
 2705              		.cfi_def_cfa_register 13
 2706              		@ sp needed
 2707 0080 80BD     		pop	{r7, pc}
 2708              		.cfi_endproc
 2709              	.LFE75:
 2710              		.size	PumpAuthorization, .-PumpAuthorization
 2711 0082 00BF     		.section	.text.PumpStartupAuthorization,"ax",%progbits
 2712              		.align	2
 2713              		.global	PumpStartupAuthorization
 2714              		.thumb
 2715              		.thumb_func
 2716              		.type	PumpStartupAuthorization, %function
 2717              	PumpStartupAuthorization:
 2718              	.LFB76:
 726:.\PrimeImpl.c **** 
 727:.\PrimeImpl.c **** //@Created By: HIJH
 728:.\PrimeImpl.c **** //@Date: Septembre de 2016
 729:.\PrimeImpl.c **** //Sends the authorization request to the pump. This is a single byte command with no response
 730:.\PrimeImpl.c **** void PumpStartupAuthorization(void *pparam)
 731:.\PrimeImpl.c **** {
 2719              		.loc 1 731 0
 2720              		.cfi_startproc
 2721              		@ args = 0, pretend = 0, frame = 24
 2722              		@ frame_needed = 1, uses_anonymous_args = 0
 2723 0000 80B5     		push	{r7, lr}
 2724              		.cfi_def_cfa_offset 8
 2725              		.cfi_offset 7, -8
 2726              		.cfi_offset 14, -4
 2727 0002 86B0     		sub	sp, sp, #24
 2728              		.cfi_def_cfa_offset 32
 2729 0004 00AF     		add	r7, sp, #0
 2730              		.cfi_def_cfa_register 7
 2731 0006 7860     		str	r0, [r7, #4]
 732:.\PrimeImpl.c ****     PNEAR_PUMPPTR ppump = (PNEAR_PUMPPTR)pparam;
 2732              		.loc 1 732 0
 2733 0008 7B68     		ldr	r3, [r7, #4]
 2734 000a 7B61     		str	r3, [r7, #20]
 733:.\PrimeImpl.c ****     if(ppump)
ARM GAS  C:\Users\RECEPC~1\AppData\Local\Temp\ccvxjDo6.s 			page 62


 2735              		.loc 1 733 0
 2736 000c 7B69     		ldr	r3, [r7, #20]
 2737 000e 002B     		cmp	r3, #0
 2738 0010 2BD0     		beq	.L113
 2739              	.LBB9:
 734:.\PrimeImpl.c ****     {                
 735:.\PrimeImpl.c ****         uint8_t index = 0;
 2740              		.loc 1 735 0
 2741 0012 0023     		movs	r3, #0
 2742 0014 FB74     		strb	r3, [r7, #19]
 736:.\PrimeImpl.c ****         memset(ppump->_rxbuffer, 0x00, _PUMP_RX_BUFFER_SIZE_);
 2743              		.loc 1 736 0
 2744 0016 7B69     		ldr	r3, [r7, #20]
 2745 0018 03F5C473 		add	r3, r3, #392
 2746 001c 1846     		mov	r0, r3
 2747 001e 0021     		movs	r1, #0
 2748 0020 4FF4B472 		mov	r2, #360
 2749 0024 FFF7FEFF 		bl	memset
 737:.\PrimeImpl.c ****         PUARTMESSAGEPTR puartdisp = GetUARTMessageSlot(UART_DISPENSER);
 2750              		.loc 1 737 0
 2751 0028 A220     		movs	r0, #162
 2752 002a FFF7FEFF 		bl	GetUARTMessageSlot
 2753 002e F860     		str	r0, [r7, #12]
 738:.\PrimeImpl.c ****         if(puartdisp)
 2754              		.loc 1 738 0
 2755 0030 FB68     		ldr	r3, [r7, #12]
 2756 0032 002B     		cmp	r3, #0
 2757 0034 16D0     		beq	.L115
 739:.\PrimeImpl.c ****         {
 740:.\PrimeImpl.c ****             //Just one byte for the response
 741:.\PrimeImpl.c ****             puartdisp->_messagetx[index++] = PUMP_COMMAND(PUMP_AUTHORIZATION, ppump->_pumpid);
 2758              		.loc 1 741 0
 2759 0036 FB7C     		ldrb	r3, [r7, #19]	@ zero_extendqisi2
 2760 0038 5A1C     		adds	r2, r3, #1
 2761 003a FA74     		strb	r2, [r7, #19]
 2762 003c 1946     		mov	r1, r3
 2763 003e 7B69     		ldr	r3, [r7, #20]
 2764 0040 1B78     		ldrb	r3, [r3]	@ zero_extendqisi2
 2765 0042 DBB2     		uxtb	r3, r3
 2766 0044 03F00F03 		and	r3, r3, #15
 2767 0048 DBB2     		uxtb	r3, r3
 2768 004a 43F01003 		orr	r3, r3, #16
 2769 004e DBB2     		uxtb	r3, r3
 2770 0050 DAB2     		uxtb	r2, r3
 2771 0052 FB68     		ldr	r3, [r7, #12]
 2772 0054 0B44     		add	r3, r3, r1
 2773 0056 1A71     		strb	r2, [r3, #4]
 742:.\PrimeImpl.c ****             puartdisp->_messagelength = 1;//One byte
 2774              		.loc 1 742 0
 2775 0058 FB68     		ldr	r3, [r7, #12]
 2776 005a 0122     		movs	r2, #1
 2777 005c 5A80     		strh	r2, [r3, #2]	@ movhi
 743:.\PrimeImpl.c ****             puartdisp->_messagestate = PENDING;
 2778              		.loc 1 743 0
 2779 005e FB68     		ldr	r3, [r7, #12]
 2780 0060 C222     		movs	r2, #194
 2781 0062 1A70     		strb	r2, [r3]
ARM GAS  C:\Users\RECEPC~1\AppData\Local\Temp\ccvxjDo6.s 			page 63


 2782              	.L115:
 744:.\PrimeImpl.c ****             
 745:.\PrimeImpl.c ****         }
 746:.\PrimeImpl.c ****         CyDelay(100);
 2783              		.loc 1 746 0
 2784 0064 6420     		movs	r0, #100
 2785 0066 FFF7FEFF 		bl	CyDelay
 2786              	.L113:
 2787              	.LBE9:
 747:.\PrimeImpl.c ****     }
 748:.\PrimeImpl.c **** }
 2788              		.loc 1 748 0
 2789 006a 1837     		adds	r7, r7, #24
 2790              		.cfi_def_cfa_offset 8
 2791 006c BD46     		mov	sp, r7
 2792              		.cfi_def_cfa_register 13
 2793              		@ sp needed
 2794 006e 80BD     		pop	{r7, pc}
 2795              		.cfi_endproc
 2796              	.LFE76:
 2797              		.size	PumpStartupAuthorization, .-PumpStartupAuthorization
 2798              		.section	.text.PumpStateRequest,"ax",%progbits
 2799              		.align	2
 2800              		.global	PumpStateRequest
 2801              		.thumb
 2802              		.thumb_func
 2803              		.type	PumpStateRequest, %function
 2804              	PumpStateRequest:
 2805              	.LFB77:
 749:.\PrimeImpl.c **** 
 750:.\PrimeImpl.c **** //@Created By: HIJH
 751:.\PrimeImpl.c **** //@Date: Septembre de 2016
 752:.\PrimeImpl.c **** //Sends the state request to the pump. This is a single byte command with one byte of response
 753:.\PrimeImpl.c **** void PumpStateRequest(void *pparam)
 754:.\PrimeImpl.c **** {
 2806              		.loc 1 754 0
 2807              		.cfi_startproc
 2808              		@ args = 0, pretend = 0, frame = 24
 2809              		@ frame_needed = 1, uses_anonymous_args = 0
 2810 0000 80B5     		push	{r7, lr}
 2811              		.cfi_def_cfa_offset 8
 2812              		.cfi_offset 7, -8
 2813              		.cfi_offset 14, -4
 2814 0002 86B0     		sub	sp, sp, #24
 2815              		.cfi_def_cfa_offset 32
 2816 0004 00AF     		add	r7, sp, #0
 2817              		.cfi_def_cfa_register 7
 2818 0006 7860     		str	r0, [r7, #4]
 755:.\PrimeImpl.c ****     PNEAR_PUMPPTR ppump = (PNEAR_PUMPPTR)pparam;
 2819              		.loc 1 755 0
 2820 0008 7B68     		ldr	r3, [r7, #4]
 2821 000a 7B61     		str	r3, [r7, #20]
 756:.\PrimeImpl.c ****     if(ppump)
 2822              		.loc 1 756 0
 2823 000c 7B69     		ldr	r3, [r7, #20]
 2824 000e 002B     		cmp	r3, #0
 2825 0010 23D0     		beq	.L116
ARM GAS  C:\Users\RECEPC~1\AppData\Local\Temp\ccvxjDo6.s 			page 64


 2826              	.LBB10:
 757:.\PrimeImpl.c ****     {
 758:.\PrimeImpl.c ****         uint8_t index = 0;
 2827              		.loc 1 758 0
 2828 0012 0023     		movs	r3, #0
 2829 0014 FB74     		strb	r3, [r7, #19]
 759:.\PrimeImpl.c ****         memset(ppump->_rxbuffer, 0x00, _PUMP_RX_BUFFER_SIZE_);
 2830              		.loc 1 759 0
 2831 0016 7B69     		ldr	r3, [r7, #20]
 2832 0018 03F5C473 		add	r3, r3, #392
 2833 001c 1846     		mov	r0, r3
 2834 001e 0021     		movs	r1, #0
 2835 0020 4FF4B472 		mov	r2, #360
 2836 0024 FFF7FEFF 		bl	memset
 760:.\PrimeImpl.c ****         PUARTMESSAGEPTR puartdisp = GetUARTMessageSlot(UART_DISPENSER);
 2837              		.loc 1 760 0
 2838 0028 A220     		movs	r0, #162
 2839 002a FFF7FEFF 		bl	GetUARTMessageSlot
 2840 002e F860     		str	r0, [r7, #12]
 761:.\PrimeImpl.c ****         if(puartdisp)
 2841              		.loc 1 761 0
 2842 0030 FB68     		ldr	r3, [r7, #12]
 2843 0032 002B     		cmp	r3, #0
 2844 0034 11D0     		beq	.L116
 762:.\PrimeImpl.c ****         {
 763:.\PrimeImpl.c ****             puartdisp->_messagetx[index++] = PUMP_COMMAND(PUMP_STATE_REQUEST, ppump->_pumpid);
 2845              		.loc 1 763 0
 2846 0036 FB7C     		ldrb	r3, [r7, #19]	@ zero_extendqisi2
 2847 0038 5A1C     		adds	r2, r3, #1
 2848 003a FA74     		strb	r2, [r7, #19]
 2849 003c 1946     		mov	r1, r3
 2850 003e 7B69     		ldr	r3, [r7, #20]
 2851 0040 1B78     		ldrb	r3, [r3]	@ zero_extendqisi2
 2852 0042 03F00F03 		and	r3, r3, #15
 2853 0046 DAB2     		uxtb	r2, r3
 2854 0048 FB68     		ldr	r3, [r7, #12]
 2855 004a 0B44     		add	r3, r3, r1
 2856 004c 1A71     		strb	r2, [r3, #4]
 764:.\PrimeImpl.c ****             puartdisp->_messagelength = 1;//One byte
 2857              		.loc 1 764 0
 2858 004e FB68     		ldr	r3, [r7, #12]
 2859 0050 0122     		movs	r2, #1
 2860 0052 5A80     		strh	r2, [r3, #2]	@ movhi
 765:.\PrimeImpl.c ****             puartdisp->_messagestate = PENDING;
 2861              		.loc 1 765 0
 2862 0054 FB68     		ldr	r3, [r7, #12]
 2863 0056 C222     		movs	r2, #194
 2864 0058 1A70     		strb	r2, [r3]
 2865              	.L116:
 2866              	.LBE10:
 766:.\PrimeImpl.c ****         }
 767:.\PrimeImpl.c ****     }
 768:.\PrimeImpl.c **** }
 2867              		.loc 1 768 0
 2868 005a 1837     		adds	r7, r7, #24
 2869              		.cfi_def_cfa_offset 8
 2870 005c BD46     		mov	sp, r7
ARM GAS  C:\Users\RECEPC~1\AppData\Local\Temp\ccvxjDo6.s 			page 65


 2871              		.cfi_def_cfa_register 13
 2872              		@ sp needed
 2873 005e 80BD     		pop	{r7, pc}
 2874              		.cfi_endproc
 2875              	.LFE77:
 2876              		.size	PumpStateRequest, .-PumpStateRequest
 2877              		.section	.text.PumpRTMoneyRequest,"ax",%progbits
 2878              		.align	2
 2879              		.global	PumpRTMoneyRequest
 2880              		.thumb
 2881              		.thumb_func
 2882              		.type	PumpRTMoneyRequest, %function
 2883              	PumpRTMoneyRequest:
 2884              	.LFB78:
 769:.\PrimeImpl.c **** 
 770:.\PrimeImpl.c **** //@Created By: HIJH
 771:.\PrimeImpl.c **** //@Date: Septembre de 2016
 772:.\PrimeImpl.c **** void PumpRTMoneyRequest(void *pparam)
 773:.\PrimeImpl.c **** {
 2885              		.loc 1 773 0
 2886              		.cfi_startproc
 2887              		@ args = 0, pretend = 0, frame = 24
 2888              		@ frame_needed = 1, uses_anonymous_args = 0
 2889 0000 80B5     		push	{r7, lr}
 2890              		.cfi_def_cfa_offset 8
 2891              		.cfi_offset 7, -8
 2892              		.cfi_offset 14, -4
 2893 0002 86B0     		sub	sp, sp, #24
 2894              		.cfi_def_cfa_offset 32
 2895 0004 00AF     		add	r7, sp, #0
 2896              		.cfi_def_cfa_register 7
 2897 0006 7860     		str	r0, [r7, #4]
 774:.\PrimeImpl.c ****     PNEAR_PUMPPTR ppump = (PNEAR_PUMPPTR)pparam;
 2898              		.loc 1 774 0
 2899 0008 7B68     		ldr	r3, [r7, #4]
 2900 000a 7B61     		str	r3, [r7, #20]
 775:.\PrimeImpl.c ****     if(ppump)
 2901              		.loc 1 775 0
 2902 000c 7B69     		ldr	r3, [r7, #20]
 2903 000e 002B     		cmp	r3, #0
 2904 0010 28D0     		beq	.L118
 2905              	.LBB11:
 776:.\PrimeImpl.c ****     {
 777:.\PrimeImpl.c ****         uint8_t index = 0;
 2906              		.loc 1 777 0
 2907 0012 0023     		movs	r3, #0
 2908 0014 FB74     		strb	r3, [r7, #19]
 778:.\PrimeImpl.c ****         memset(ppump->_rxbuffer, 0x00, _PUMP_RX_BUFFER_SIZE_);
 2909              		.loc 1 778 0
 2910 0016 7B69     		ldr	r3, [r7, #20]
 2911 0018 03F5C473 		add	r3, r3, #392
 2912 001c 1846     		mov	r0, r3
 2913 001e 0021     		movs	r1, #0
 2914 0020 4FF4B472 		mov	r2, #360
 2915 0024 FFF7FEFF 		bl	memset
 779:.\PrimeImpl.c ****         PUARTMESSAGEPTR puartdisp = GetUARTMessageSlot(UART_DISPENSER);
 2916              		.loc 1 779 0
ARM GAS  C:\Users\RECEPC~1\AppData\Local\Temp\ccvxjDo6.s 			page 66


 2917 0028 A220     		movs	r0, #162
 2918 002a FFF7FEFF 		bl	GetUARTMessageSlot
 2919 002e F860     		str	r0, [r7, #12]
 780:.\PrimeImpl.c ****         if(puartdisp)
 2920              		.loc 1 780 0
 2921 0030 FB68     		ldr	r3, [r7, #12]
 2922 0032 002B     		cmp	r3, #0
 2923 0034 16D0     		beq	.L118
 781:.\PrimeImpl.c ****         {
 782:.\PrimeImpl.c ****             puartdisp->_messagetx[index++] = PUMP_COMMAND(PUMP_REAL_TIME_MONEY_REQUEST, ppump->_pum
 2924              		.loc 1 782 0
 2925 0036 FB7C     		ldrb	r3, [r7, #19]	@ zero_extendqisi2
 2926 0038 5A1C     		adds	r2, r3, #1
 2927 003a FA74     		strb	r2, [r7, #19]
 2928 003c 1946     		mov	r1, r3
 2929 003e 7B69     		ldr	r3, [r7, #20]
 2930 0040 1B78     		ldrb	r3, [r3]	@ zero_extendqisi2
 2931 0042 DBB2     		uxtb	r3, r3
 2932 0044 03F00F03 		and	r3, r3, #15
 2933 0048 DBB2     		uxtb	r3, r3
 2934 004a 43F06003 		orr	r3, r3, #96
 2935 004e DBB2     		uxtb	r3, r3
 2936 0050 DAB2     		uxtb	r2, r3
 2937 0052 FB68     		ldr	r3, [r7, #12]
 2938 0054 0B44     		add	r3, r3, r1
 2939 0056 1A71     		strb	r2, [r3, #4]
 783:.\PrimeImpl.c ****             puartdisp->_messagelength = 1;//One byte
 2940              		.loc 1 783 0
 2941 0058 FB68     		ldr	r3, [r7, #12]
 2942 005a 0122     		movs	r2, #1
 2943 005c 5A80     		strh	r2, [r3, #2]	@ movhi
 784:.\PrimeImpl.c ****             puartdisp->_messagestate = PENDING;
 2944              		.loc 1 784 0
 2945 005e FB68     		ldr	r3, [r7, #12]
 2946 0060 C222     		movs	r2, #194
 2947 0062 1A70     		strb	r2, [r3]
 2948              	.L118:
 2949              	.LBE11:
 785:.\PrimeImpl.c ****         }
 786:.\PrimeImpl.c ****     }
 787:.\PrimeImpl.c **** }
 2950              		.loc 1 787 0
 2951 0064 1837     		adds	r7, r7, #24
 2952              		.cfi_def_cfa_offset 8
 2953 0066 BD46     		mov	sp, r7
 2954              		.cfi_def_cfa_register 13
 2955              		@ sp needed
 2956 0068 80BD     		pop	{r7, pc}
 2957              		.cfi_endproc
 2958              	.LFE78:
 2959              		.size	PumpRTMoneyRequest, .-PumpRTMoneyRequest
 2960 006a 00BF     		.section	.text.PumpRTHoseVolumeRequest,"ax",%progbits
 2961              		.align	2
 2962              		.global	PumpRTHoseVolumeRequest
 2963              		.thumb
 2964              		.thumb_func
 2965              		.type	PumpRTHoseVolumeRequest, %function
ARM GAS  C:\Users\RECEPC~1\AppData\Local\Temp\ccvxjDo6.s 			page 67


 2966              	PumpRTHoseVolumeRequest:
 2967              	.LFB79:
 788:.\PrimeImpl.c **** 
 789:.\PrimeImpl.c **** //@Created By: HIJH
 790:.\PrimeImpl.c **** //@Date: Septembre de 2016
 791:.\PrimeImpl.c **** void PumpRTHoseVolumeRequest(void *pparam)
 792:.\PrimeImpl.c **** {
 2968              		.loc 1 792 0
 2969              		.cfi_startproc
 2970              		@ args = 0, pretend = 0, frame = 24
 2971              		@ frame_needed = 1, uses_anonymous_args = 0
 2972 0000 80B5     		push	{r7, lr}
 2973              		.cfi_def_cfa_offset 8
 2974              		.cfi_offset 7, -8
 2975              		.cfi_offset 14, -4
 2976 0002 86B0     		sub	sp, sp, #24
 2977              		.cfi_def_cfa_offset 32
 2978 0004 00AF     		add	r7, sp, #0
 2979              		.cfi_def_cfa_register 7
 2980 0006 7860     		str	r0, [r7, #4]
 793:.\PrimeImpl.c ****     PNEAR_PUMPPTR ppump = (PNEAR_PUMPPTR)pparam;
 2981              		.loc 1 793 0
 2982 0008 7B68     		ldr	r3, [r7, #4]
 2983 000a 7B61     		str	r3, [r7, #20]
 794:.\PrimeImpl.c ****     if(ppump)
 2984              		.loc 1 794 0
 2985 000c 7B69     		ldr	r3, [r7, #20]
 2986 000e 002B     		cmp	r3, #0
 2987 0010 28D0     		beq	.L120
 2988              	.LBB12:
 795:.\PrimeImpl.c ****     {
 796:.\PrimeImpl.c ****         uint8_t index = 0;
 2989              		.loc 1 796 0
 2990 0012 0023     		movs	r3, #0
 2991 0014 FB74     		strb	r3, [r7, #19]
 797:.\PrimeImpl.c ****         memset(ppump->_rxbuffer, 0x00, _PUMP_RX_BUFFER_SIZE_);
 2992              		.loc 1 797 0
 2993 0016 7B69     		ldr	r3, [r7, #20]
 2994 0018 03F5C473 		add	r3, r3, #392
 2995 001c 1846     		mov	r0, r3
 2996 001e 0021     		movs	r1, #0
 2997 0020 4FF4B472 		mov	r2, #360
 2998 0024 FFF7FEFF 		bl	memset
 798:.\PrimeImpl.c ****         PUARTMESSAGEPTR puartdisp = GetUARTMessageSlot(UART_DISPENSER);
 2999              		.loc 1 798 0
 3000 0028 A220     		movs	r0, #162
 3001 002a FFF7FEFF 		bl	GetUARTMessageSlot
 3002 002e F860     		str	r0, [r7, #12]
 799:.\PrimeImpl.c ****         if(puartdisp)
 3003              		.loc 1 799 0
 3004 0030 FB68     		ldr	r3, [r7, #12]
 3005 0032 002B     		cmp	r3, #0
 3006 0034 16D0     		beq	.L120
 800:.\PrimeImpl.c ****         {
 801:.\PrimeImpl.c ****             puartdisp->_messagetx[index++] = PUMP_COMMAND(PUMP_REAL_TIME_HOSE_VOLUME_REQUEST, ppump
 3007              		.loc 1 801 0
 3008 0036 FB7C     		ldrb	r3, [r7, #19]	@ zero_extendqisi2
ARM GAS  C:\Users\RECEPC~1\AppData\Local\Temp\ccvxjDo6.s 			page 68


 3009 0038 5A1C     		adds	r2, r3, #1
 3010 003a FA74     		strb	r2, [r7, #19]
 3011 003c 1946     		mov	r1, r3
 3012 003e 7B69     		ldr	r3, [r7, #20]
 3013 0040 1B78     		ldrb	r3, [r3]	@ zero_extendqisi2
 3014 0042 DBB2     		uxtb	r3, r3
 3015 0044 03F00F03 		and	r3, r3, #15
 3016 0048 DBB2     		uxtb	r3, r3
 3017 004a 43F07003 		orr	r3, r3, #112
 3018 004e DBB2     		uxtb	r3, r3
 3019 0050 DAB2     		uxtb	r2, r3
 3020 0052 FB68     		ldr	r3, [r7, #12]
 3021 0054 0B44     		add	r3, r3, r1
 3022 0056 1A71     		strb	r2, [r3, #4]
 802:.\PrimeImpl.c ****             puartdisp->_messagelength = 1;//One byte
 3023              		.loc 1 802 0
 3024 0058 FB68     		ldr	r3, [r7, #12]
 3025 005a 0122     		movs	r2, #1
 3026 005c 5A80     		strh	r2, [r3, #2]	@ movhi
 803:.\PrimeImpl.c ****             puartdisp->_messagestate = PENDING;
 3027              		.loc 1 803 0
 3028 005e FB68     		ldr	r3, [r7, #12]
 3029 0060 C222     		movs	r2, #194
 3030 0062 1A70     		strb	r2, [r3]
 3031              	.L120:
 3032              	.LBE12:
 804:.\PrimeImpl.c ****         }
 805:.\PrimeImpl.c ****     }
 806:.\PrimeImpl.c **** }
 3033              		.loc 1 806 0
 3034 0064 1837     		adds	r7, r7, #24
 3035              		.cfi_def_cfa_offset 8
 3036 0066 BD46     		mov	sp, r7
 3037              		.cfi_def_cfa_register 13
 3038              		@ sp needed
 3039 0068 80BD     		pop	{r7, pc}
 3040              		.cfi_endproc
 3041              	.LFE79:
 3042              		.size	PumpRTHoseVolumeRequest, .-PumpRTHoseVolumeRequest
 3043 006a 00BF     		.section	.text.PumpTransactionDataRequest,"ax",%progbits
 3044              		.align	2
 3045              		.global	PumpTransactionDataRequest
 3046              		.thumb
 3047              		.thumb_func
 3048              		.type	PumpTransactionDataRequest, %function
 3049              	PumpTransactionDataRequest:
 3050              	.LFB80:
 807:.\PrimeImpl.c **** 
 808:.\PrimeImpl.c **** //@Created By: HIJH
 809:.\PrimeImpl.c **** //@Date: Septembre de 2016
 810:.\PrimeImpl.c **** //Requests the last transaction data to the pump. This is a single byte command with a fixed length
 811:.\PrimeImpl.c **** void PumpTransactionDataRequest(void *pparam)
 812:.\PrimeImpl.c **** {
 3051              		.loc 1 812 0
 3052              		.cfi_startproc
 3053              		@ args = 0, pretend = 0, frame = 24
 3054              		@ frame_needed = 1, uses_anonymous_args = 0
ARM GAS  C:\Users\RECEPC~1\AppData\Local\Temp\ccvxjDo6.s 			page 69


 3055 0000 80B5     		push	{r7, lr}
 3056              		.cfi_def_cfa_offset 8
 3057              		.cfi_offset 7, -8
 3058              		.cfi_offset 14, -4
 3059 0002 86B0     		sub	sp, sp, #24
 3060              		.cfi_def_cfa_offset 32
 3061 0004 00AF     		add	r7, sp, #0
 3062              		.cfi_def_cfa_register 7
 3063 0006 7860     		str	r0, [r7, #4]
 813:.\PrimeImpl.c ****     PNEAR_PUMPPTR ppump = (PNEAR_PUMPPTR)pparam;
 3064              		.loc 1 813 0
 3065 0008 7B68     		ldr	r3, [r7, #4]
 3066 000a 7B61     		str	r3, [r7, #20]
 814:.\PrimeImpl.c ****     if(ppump)
 3067              		.loc 1 814 0
 3068 000c 7B69     		ldr	r3, [r7, #20]
 3069 000e 002B     		cmp	r3, #0
 3070 0010 28D0     		beq	.L122
 3071              	.LBB13:
 815:.\PrimeImpl.c ****     {        
 816:.\PrimeImpl.c ****         uint8_t index = 0;
 3072              		.loc 1 816 0
 3073 0012 0023     		movs	r3, #0
 3074 0014 FB74     		strb	r3, [r7, #19]
 817:.\PrimeImpl.c ****         memset(ppump->_rxbuffer, 0x00, _PUMP_RX_BUFFER_SIZE_);
 3075              		.loc 1 817 0
 3076 0016 7B69     		ldr	r3, [r7, #20]
 3077 0018 03F5C473 		add	r3, r3, #392
 3078 001c 1846     		mov	r0, r3
 3079 001e 0021     		movs	r1, #0
 3080 0020 4FF4B472 		mov	r2, #360
 3081 0024 FFF7FEFF 		bl	memset
 818:.\PrimeImpl.c ****         PUARTMESSAGEPTR puartdisp = GetUARTMessageSlot(UART_DISPENSER);
 3082              		.loc 1 818 0
 3083 0028 A220     		movs	r0, #162
 3084 002a FFF7FEFF 		bl	GetUARTMessageSlot
 3085 002e F860     		str	r0, [r7, #12]
 819:.\PrimeImpl.c ****         if(puartdisp)
 3086              		.loc 1 819 0
 3087 0030 FB68     		ldr	r3, [r7, #12]
 3088 0032 002B     		cmp	r3, #0
 3089 0034 16D0     		beq	.L122
 820:.\PrimeImpl.c ****         {
 821:.\PrimeImpl.c ****             puartdisp->_messagetx[index++] = PUMP_COMMAND(PUMP_TRANSACTION_DATA_REQUEST, ppump->_pu
 3090              		.loc 1 821 0
 3091 0036 FB7C     		ldrb	r3, [r7, #19]	@ zero_extendqisi2
 3092 0038 5A1C     		adds	r2, r3, #1
 3093 003a FA74     		strb	r2, [r7, #19]
 3094 003c 1946     		mov	r1, r3
 3095 003e 7B69     		ldr	r3, [r7, #20]
 3096 0040 1B78     		ldrb	r3, [r3]	@ zero_extendqisi2
 3097 0042 DBB2     		uxtb	r3, r3
 3098 0044 03F00F03 		and	r3, r3, #15
 3099 0048 DBB2     		uxtb	r3, r3
 3100 004a 43F04003 		orr	r3, r3, #64
 3101 004e DBB2     		uxtb	r3, r3
 3102 0050 DAB2     		uxtb	r2, r3
ARM GAS  C:\Users\RECEPC~1\AppData\Local\Temp\ccvxjDo6.s 			page 70


 3103 0052 FB68     		ldr	r3, [r7, #12]
 3104 0054 0B44     		add	r3, r3, r1
 3105 0056 1A71     		strb	r2, [r3, #4]
 822:.\PrimeImpl.c ****             puartdisp->_messagelength = 1;//One byte
 3106              		.loc 1 822 0
 3107 0058 FB68     		ldr	r3, [r7, #12]
 3108 005a 0122     		movs	r2, #1
 3109 005c 5A80     		strh	r2, [r3, #2]	@ movhi
 823:.\PrimeImpl.c ****             puartdisp->_messagestate = PENDING;
 3110              		.loc 1 823 0
 3111 005e FB68     		ldr	r3, [r7, #12]
 3112 0060 C222     		movs	r2, #194
 3113 0062 1A70     		strb	r2, [r3]
 3114              	.L122:
 3115              	.LBE13:
 824:.\PrimeImpl.c ****         }
 825:.\PrimeImpl.c ****     }
 826:.\PrimeImpl.c **** }
 3116              		.loc 1 826 0
 3117 0064 1837     		adds	r7, r7, #24
 3118              		.cfi_def_cfa_offset 8
 3119 0066 BD46     		mov	sp, r7
 3120              		.cfi_def_cfa_register 13
 3121              		@ sp needed
 3122 0068 80BD     		pop	{r7, pc}
 3123              		.cfi_endproc
 3124              	.LFE80:
 3125              		.size	PumpTransactionDataRequest, .-PumpTransactionDataRequest
 3126 006a 00BF     		.section	.text.PumpTotalsDataRequest,"ax",%progbits
 3127              		.align	2
 3128              		.global	PumpTotalsDataRequest
 3129              		.thumb
 3130              		.thumb_func
 3131              		.type	PumpTotalsDataRequest, %function
 3132              	PumpTotalsDataRequest:
 3133              	.LFB81:
 827:.\PrimeImpl.c **** 
 828:.\PrimeImpl.c **** //@Created By: HIJH
 829:.\PrimeImpl.c **** //@Date: Septembre de 2016
 830:.\PrimeImpl.c **** //Requests the report of totals for the current pump. This is a single byte command with a variable
 831:.\PrimeImpl.c **** //that depends on the number of available hoses.
 832:.\PrimeImpl.c **** void PumpTotalsDataRequest(void *pparam)
 833:.\PrimeImpl.c **** {
 3134              		.loc 1 833 0
 3135              		.cfi_startproc
 3136              		@ args = 0, pretend = 0, frame = 24
 3137              		@ frame_needed = 1, uses_anonymous_args = 0
 3138 0000 80B5     		push	{r7, lr}
 3139              		.cfi_def_cfa_offset 8
 3140              		.cfi_offset 7, -8
 3141              		.cfi_offset 14, -4
 3142 0002 86B0     		sub	sp, sp, #24
 3143              		.cfi_def_cfa_offset 32
 3144 0004 00AF     		add	r7, sp, #0
 3145              		.cfi_def_cfa_register 7
 3146 0006 7860     		str	r0, [r7, #4]
 834:.\PrimeImpl.c ****     PNEAR_PUMPPTR ppump = (PNEAR_PUMPPTR)pparam;
ARM GAS  C:\Users\RECEPC~1\AppData\Local\Temp\ccvxjDo6.s 			page 71


 3147              		.loc 1 834 0
 3148 0008 7B68     		ldr	r3, [r7, #4]
 3149 000a 7B61     		str	r3, [r7, #20]
 835:.\PrimeImpl.c ****     if(ppump)
 3150              		.loc 1 835 0
 3151 000c 7B69     		ldr	r3, [r7, #20]
 3152 000e 002B     		cmp	r3, #0
 3153 0010 28D0     		beq	.L124
 3154              	.LBB14:
 836:.\PrimeImpl.c ****     {        
 837:.\PrimeImpl.c ****         uint8_t index = 0;
 3155              		.loc 1 837 0
 3156 0012 0023     		movs	r3, #0
 3157 0014 FB74     		strb	r3, [r7, #19]
 838:.\PrimeImpl.c ****         memset(ppump->_rxbuffer, 0x00, _PUMP_RX_BUFFER_SIZE_);
 3158              		.loc 1 838 0
 3159 0016 7B69     		ldr	r3, [r7, #20]
 3160 0018 03F5C473 		add	r3, r3, #392
 3161 001c 1846     		mov	r0, r3
 3162 001e 0021     		movs	r1, #0
 3163 0020 4FF4B472 		mov	r2, #360
 3164 0024 FFF7FEFF 		bl	memset
 839:.\PrimeImpl.c ****         PUARTMESSAGEPTR puartdisp = GetUARTMessageSlot(UART_DISPENSER);
 3165              		.loc 1 839 0
 3166 0028 A220     		movs	r0, #162
 3167 002a FFF7FEFF 		bl	GetUARTMessageSlot
 3168 002e F860     		str	r0, [r7, #12]
 840:.\PrimeImpl.c ****         if(puartdisp)
 3169              		.loc 1 840 0
 3170 0030 FB68     		ldr	r3, [r7, #12]
 3171 0032 002B     		cmp	r3, #0
 3172 0034 16D0     		beq	.L124
 841:.\PrimeImpl.c ****         {
 842:.\PrimeImpl.c ****             puartdisp->_messagetx[index++] = PUMP_COMMAND(PUMP_TOTALS_DATA_REQUEST, ppump->_pumpid)
 3173              		.loc 1 842 0
 3174 0036 FB7C     		ldrb	r3, [r7, #19]	@ zero_extendqisi2
 3175 0038 5A1C     		adds	r2, r3, #1
 3176 003a FA74     		strb	r2, [r7, #19]
 3177 003c 1946     		mov	r1, r3
 3178 003e 7B69     		ldr	r3, [r7, #20]
 3179 0040 1B78     		ldrb	r3, [r3]	@ zero_extendqisi2
 3180 0042 DBB2     		uxtb	r3, r3
 3181 0044 03F00F03 		and	r3, r3, #15
 3182 0048 DBB2     		uxtb	r3, r3
 3183 004a 43F05003 		orr	r3, r3, #80
 3184 004e DBB2     		uxtb	r3, r3
 3185 0050 DAB2     		uxtb	r2, r3
 3186 0052 FB68     		ldr	r3, [r7, #12]
 3187 0054 0B44     		add	r3, r3, r1
 3188 0056 1A71     		strb	r2, [r3, #4]
 843:.\PrimeImpl.c ****             puartdisp->_messagelength = 1;//One byte
 3189              		.loc 1 843 0
 3190 0058 FB68     		ldr	r3, [r7, #12]
 3191 005a 0122     		movs	r2, #1
 3192 005c 5A80     		strh	r2, [r3, #2]	@ movhi
 844:.\PrimeImpl.c ****             puartdisp->_messagestate = PENDING;
 3193              		.loc 1 844 0
ARM GAS  C:\Users\RECEPC~1\AppData\Local\Temp\ccvxjDo6.s 			page 72


 3194 005e FB68     		ldr	r3, [r7, #12]
 3195 0060 C222     		movs	r2, #194
 3196 0062 1A70     		strb	r2, [r3]
 3197              	.L124:
 3198              	.LBE14:
 845:.\PrimeImpl.c ****         }
 846:.\PrimeImpl.c ****     }
 847:.\PrimeImpl.c **** }
 3199              		.loc 1 847 0
 3200 0064 1837     		adds	r7, r7, #24
 3201              		.cfi_def_cfa_offset 8
 3202 0066 BD46     		mov	sp, r7
 3203              		.cfi_def_cfa_register 13
 3204              		@ sp needed
 3205 0068 80BD     		pop	{r7, pc}
 3206              		.cfi_endproc
 3207              	.LFE81:
 3208              		.size	PumpTotalsDataRequest, .-PumpTotalsDataRequest
 3209 006a 00BF     		.section	.text.PumpDataToPump,"ax",%progbits
 3210              		.align	2
 3211              		.global	PumpDataToPump
 3212              		.thumb
 3213              		.thumb_func
 3214              		.type	PumpDataToPump, %function
 3215              	PumpDataToPump:
 3216              	.LFB82:
 848:.\PrimeImpl.c **** 
 849:.\PrimeImpl.c **** //@Created By: HIJH
 850:.\PrimeImpl.c **** //@Date: Septembre de 2016
 851:.\PrimeImpl.c **** //Requests the pump to enter in "SEND DATA" mode. This is a single byte command with a special one 
 852:.\PrimeImpl.c **** //that indicates that the pump is ready to receive data.
 853:.\PrimeImpl.c **** void PumpDataToPump(void *pparam)
 854:.\PrimeImpl.c **** {
 3217              		.loc 1 854 0
 3218              		.cfi_startproc
 3219              		@ args = 0, pretend = 0, frame = 24
 3220              		@ frame_needed = 1, uses_anonymous_args = 0
 3221 0000 80B5     		push	{r7, lr}
 3222              		.cfi_def_cfa_offset 8
 3223              		.cfi_offset 7, -8
 3224              		.cfi_offset 14, -4
 3225 0002 86B0     		sub	sp, sp, #24
 3226              		.cfi_def_cfa_offset 32
 3227 0004 00AF     		add	r7, sp, #0
 3228              		.cfi_def_cfa_register 7
 3229 0006 7860     		str	r0, [r7, #4]
 855:.\PrimeImpl.c ****     PNEAR_PUMPPTR ppump = (PNEAR_PUMPPTR)pparam;
 3230              		.loc 1 855 0
 3231 0008 7B68     		ldr	r3, [r7, #4]
 3232 000a 7B61     		str	r3, [r7, #20]
 856:.\PrimeImpl.c ****     if(ppump)
 3233              		.loc 1 856 0
 3234 000c 7B69     		ldr	r3, [r7, #20]
 3235 000e 002B     		cmp	r3, #0
 3236 0010 28D0     		beq	.L126
 3237              	.LBB15:
 857:.\PrimeImpl.c ****     {
ARM GAS  C:\Users\RECEPC~1\AppData\Local\Temp\ccvxjDo6.s 			page 73


 858:.\PrimeImpl.c ****         uint8_t index = 0;        
 3238              		.loc 1 858 0
 3239 0012 0023     		movs	r3, #0
 3240 0014 FB74     		strb	r3, [r7, #19]
 859:.\PrimeImpl.c ****         memset(ppump->_rxbuffer, 0x00, _PUMP_RX_BUFFER_SIZE_);
 3241              		.loc 1 859 0
 3242 0016 7B69     		ldr	r3, [r7, #20]
 3243 0018 03F5C473 		add	r3, r3, #392
 3244 001c 1846     		mov	r0, r3
 3245 001e 0021     		movs	r1, #0
 3246 0020 4FF4B472 		mov	r2, #360
 3247 0024 FFF7FEFF 		bl	memset
 860:.\PrimeImpl.c ****         PUARTMESSAGEPTR puartdisp = GetUARTMessageSlot(UART_DISPENSER);
 3248              		.loc 1 860 0
 3249 0028 A220     		movs	r0, #162
 3250 002a FFF7FEFF 		bl	GetUARTMessageSlot
 3251 002e F860     		str	r0, [r7, #12]
 861:.\PrimeImpl.c ****         if(puartdisp)
 3252              		.loc 1 861 0
 3253 0030 FB68     		ldr	r3, [r7, #12]
 3254 0032 002B     		cmp	r3, #0
 3255 0034 16D0     		beq	.L126
 862:.\PrimeImpl.c ****         {
 863:.\PrimeImpl.c ****             puartdisp->_messagetx[index++] = PUMP_COMMAND(PUMP_DATA_TO_PUMP, ppump->_pumpid);
 3256              		.loc 1 863 0
 3257 0036 FB7C     		ldrb	r3, [r7, #19]	@ zero_extendqisi2
 3258 0038 5A1C     		adds	r2, r3, #1
 3259 003a FA74     		strb	r2, [r7, #19]
 3260 003c 1946     		mov	r1, r3
 3261 003e 7B69     		ldr	r3, [r7, #20]
 3262 0040 1B78     		ldrb	r3, [r3]	@ zero_extendqisi2
 3263 0042 DBB2     		uxtb	r3, r3
 3264 0044 03F00F03 		and	r3, r3, #15
 3265 0048 DBB2     		uxtb	r3, r3
 3266 004a 43F02003 		orr	r3, r3, #32
 3267 004e DBB2     		uxtb	r3, r3
 3268 0050 DAB2     		uxtb	r2, r3
 3269 0052 FB68     		ldr	r3, [r7, #12]
 3270 0054 0B44     		add	r3, r3, r1
 3271 0056 1A71     		strb	r2, [r3, #4]
 864:.\PrimeImpl.c ****             puartdisp->_messagelength = 1;//One byte
 3272              		.loc 1 864 0
 3273 0058 FB68     		ldr	r3, [r7, #12]
 3274 005a 0122     		movs	r2, #1
 3275 005c 5A80     		strh	r2, [r3, #2]	@ movhi
 865:.\PrimeImpl.c ****             puartdisp->_messagestate = PENDING;
 3276              		.loc 1 865 0
 3277 005e FB68     		ldr	r3, [r7, #12]
 3278 0060 C222     		movs	r2, #194
 3279 0062 1A70     		strb	r2, [r3]
 3280              	.L126:
 3281              	.LBE15:
 866:.\PrimeImpl.c ****         }
 867:.\PrimeImpl.c ****     }
 868:.\PrimeImpl.c **** }
 3282              		.loc 1 868 0
 3283 0064 1837     		adds	r7, r7, #24
ARM GAS  C:\Users\RECEPC~1\AppData\Local\Temp\ccvxjDo6.s 			page 74


 3284              		.cfi_def_cfa_offset 8
 3285 0066 BD46     		mov	sp, r7
 3286              		.cfi_def_cfa_register 13
 3287              		@ sp needed
 3288 0068 80BD     		pop	{r7, pc}
 3289              		.cfi_endproc
 3290              	.LFE82:
 3291              		.size	PumpDataToPump, .-PumpDataToPump
 3292 006a 00BF     		.section	.text.PumpPresetHose,"ax",%progbits
 3293              		.align	2
 3294              		.global	PumpPresetHose
 3295              		.thumb
 3296              		.thumb_func
 3297              		.type	PumpPresetHose, %function
 3298              	PumpPresetHose:
 3299              	.LFB83:
 869:.\PrimeImpl.c **** 
 870:.\PrimeImpl.c **** //@Created By: HIJH
 871:.\PrimeImpl.c **** //@Septembre de 2016
 872:.\PrimeImpl.c **** ///////////////////////////////////////////////////////////////////////////////////////////////////
 873:.\PrimeImpl.c **** //Preset values will be placed within the SinkMessage's buffer. This is a convention that applies t
 874:.\PrimeImpl.c **** //all of the available transactions. The pump function must deal with this while it is assembling t
 875:.\PrimeImpl.c **** //For this message the data comes as follows:
 876:.\PrimeImpl.c **** // - First byte is the preset type (Volume:1 / Money:2 )
 877:.\PrimeImpl.c **** // - Second byte is the Hose (A:0, B:1, C:2, D:3)
 878:.\PrimeImpl.c **** // - Block of 8 bytes for the preset value
 879:.\PrimeImpl.c **** //This block of data (10 bytes) must be moved to another position within the same buffer (even posi
 880:.\PrimeImpl.c **** void PumpPresetHose(void *pparam)
 881:.\PrimeImpl.c **** {
 3300              		.loc 1 881 0
 3301              		.cfi_startproc
 3302              		@ args = 0, pretend = 0, frame = 32
 3303              		@ frame_needed = 1, uses_anonymous_args = 0
 3304 0000 90B5     		push	{r4, r7, lr}
 3305              		.cfi_def_cfa_offset 12
 3306              		.cfi_offset 4, -12
 3307              		.cfi_offset 7, -8
 3308              		.cfi_offset 14, -4
 3309 0002 89B0     		sub	sp, sp, #36
 3310              		.cfi_def_cfa_offset 48
 3311 0004 00AF     		add	r7, sp, #0
 3312              		.cfi_def_cfa_register 7
 3313 0006 7860     		str	r0, [r7, #4]
 882:.\PrimeImpl.c ****     PNEAR_PUMPPTR ppump = (PNEAR_PUMPPTR)pparam;
 3314              		.loc 1 882 0
 3315 0008 7B68     		ldr	r3, [r7, #4]
 3316 000a BB61     		str	r3, [r7, #24]
 883:.\PrimeImpl.c ****     if(ppump)
 3317              		.loc 1 883 0
 3318 000c BB69     		ldr	r3, [r7, #24]
 3319 000e 002B     		cmp	r3, #0
 3320 0010 00F09880 		beq	.L128
 3321              	.LBB16:
 884:.\PrimeImpl.c ****     {
 885:.\PrimeImpl.c ****         uint8_t index = 0;        
 3322              		.loc 1 885 0
 3323 0014 0023     		movs	r3, #0
ARM GAS  C:\Users\RECEPC~1\AppData\Local\Temp\ccvxjDo6.s 			page 75


 3324 0016 FB77     		strb	r3, [r7, #31]
 886:.\PrimeImpl.c ****         PUARTMESSAGEPTR puartdisp = GetUARTMessageSlot(UART_DISPENSER);
 3325              		.loc 1 886 0
 3326 0018 A220     		movs	r0, #162
 3327 001a FFF7FEFF 		bl	GetUARTMessageSlot
 3328 001e 7861     		str	r0, [r7, #20]
 887:.\PrimeImpl.c ****         memset(ppump->_rxbuffer, 0x00, _PUMP_RX_BUFFER_SIZE_);
 3329              		.loc 1 887 0
 3330 0020 BB69     		ldr	r3, [r7, #24]
 3331 0022 03F5C473 		add	r3, r3, #392
 3332 0026 1846     		mov	r0, r3
 3333 0028 0021     		movs	r1, #0
 3334 002a 4FF4B472 		mov	r2, #360
 3335 002e FFF7FEFF 		bl	memset
 888:.\PrimeImpl.c ****         if(puartdisp)
 3336              		.loc 1 888 0
 3337 0032 7B69     		ldr	r3, [r7, #20]
 3338 0034 002B     		cmp	r3, #0
 3339 0036 00F08580 		beq	.L128
 3340              	.LBB17:
 889:.\PrimeImpl.c ****         {
 890:.\PrimeImpl.c **** ///////////////////////////////////////////////////////////////////////////////////////////////////
 891:.\PrimeImpl.c ****             puartdisp->_messagetx[index++] = SOM;
 3341              		.loc 1 891 0
 3342 003a FB7F     		ldrb	r3, [r7, #31]	@ zero_extendqisi2
 3343 003c 5A1C     		adds	r2, r3, #1
 3344 003e FA77     		strb	r2, [r7, #31]
 3345 0040 1A46     		mov	r2, r3
 3346 0042 7B69     		ldr	r3, [r7, #20]
 3347 0044 1344     		add	r3, r3, r2
 3348 0046 FF22     		movs	r2, #255
 3349 0048 1A71     		strb	r2, [r3, #4]
 892:.\PrimeImpl.c ****             
 893:.\PrimeImpl.c ****             #ifndef PRIME_CASH_SALE_NOHOSE
 894:.\PrimeImpl.c ****             puartdisp->_messagetx[index++] = 0xE1;
 895:.\PrimeImpl.c ****             #endif
 896:.\PrimeImpl.c ****             #ifdef PRIME_CASH_SALE_NOHOSE
 897:.\PrimeImpl.c ****             puartdisp->_messagetx[index++] = 0xE3;
 3350              		.loc 1 897 0
 3351 004a FB7F     		ldrb	r3, [r7, #31]	@ zero_extendqisi2
 3352 004c 5A1C     		adds	r2, r3, #1
 3353 004e FA77     		strb	r2, [r7, #31]
 3354 0050 1A46     		mov	r2, r3
 3355 0052 7B69     		ldr	r3, [r7, #20]
 3356 0054 1344     		add	r3, r3, r2
 3357 0056 E322     		movs	r2, #227
 3358 0058 1A71     		strb	r2, [r3, #4]
 898:.\PrimeImpl.c ****             #endif
 899:.\PrimeImpl.c ****             
 900:.\PrimeImpl.c ****             ///THIS IS AN APPLIED CONVENTION ===>> 0x0004 INDEX POSITION WITHIN THE PUMP'S BUFFER P
 901:.\PrimeImpl.c ****             ///THESE CODES MUST BE MATCHED OTHERWISE THE LOGIC WILL BREAKUP THE CODE!
 902:.\PrimeImpl.c ****             uint8 transtype = (0xF0 | ((ppump->_trasactionbuffer[0x0004] == 0x0F)? 0x02: 0x01));//p
 3359              		.loc 1 902 0
 3360 005a BB69     		ldr	r3, [r7, #24]
 3361 005c 93F82430 		ldrb	r3, [r3, #36]	@ zero_extendqisi2
 3362 0060 0F2B     		cmp	r3, #15
 3363 0062 01D1     		bne	.L130
ARM GAS  C:\Users\RECEPC~1\AppData\Local\Temp\ccvxjDo6.s 			page 76


 3364              		.loc 1 902 0 is_stmt 0 discriminator 1
 3365 0064 F223     		movs	r3, #242
 3366 0066 00E0     		b	.L131
 3367              	.L130:
 3368              		.loc 1 902 0 discriminator 2
 3369 0068 F123     		movs	r3, #241
 3370              	.L131:
 3371              		.loc 1 902 0 discriminator 4
 3372 006a FB74     		strb	r3, [r7, #19]
 903:.\PrimeImpl.c ****             puartdisp->_messagetx[index++] = transtype;
 3373              		.loc 1 903 0 is_stmt 1 discriminator 4
 3374 006c FB7F     		ldrb	r3, [r7, #31]	@ zero_extendqisi2
 3375 006e 5A1C     		adds	r2, r3, #1
 3376 0070 FA77     		strb	r2, [r7, #31]
 3377 0072 1A46     		mov	r2, r3
 3378 0074 7B69     		ldr	r3, [r7, #20]
 3379 0076 1344     		add	r3, r3, r2
 3380 0078 FA7C     		ldrb	r2, [r7, #19]
 3381 007a 1A71     		strb	r2, [r3, #4]
 904:.\PrimeImpl.c ****             
 905:.\PrimeImpl.c ****             #ifndef PRIME_CASH_SALE_NOHOSE
 906:.\PrimeImpl.c ****             puartdisp->_messagetx[index++] = 0xF6; //Hose Data next
 907:.\PrimeImpl.c ****             ///THIS IS AN APPLIED CONVENTION ===>> 0x0006 INDEX POSITION WITHIN THE PUMP'S BUFFER P
 908:.\PrimeImpl.c ****             ///THESE CODES MUST BE MATCHED OTHERWISE THE LOGIC WILL BREAKUP THE CODE!
 909:.\PrimeImpl.c ****             puartdisp->_messagetx[index++] = (0xE0 | (0x0F & ppump->_trasactionbuffer[GetBufferInde
 910:.\PrimeImpl.c ****             #endif
 911:.\PrimeImpl.c ****             
 912:.\PrimeImpl.c ****             puartdisp->_messagetx[index++] = 0xF8; //Preset Data next
 3382              		.loc 1 912 0 discriminator 4
 3383 007c FB7F     		ldrb	r3, [r7, #31]	@ zero_extendqisi2
 3384 007e 5A1C     		adds	r2, r3, #1
 3385 0080 FA77     		strb	r2, [r7, #31]
 3386 0082 1A46     		mov	r2, r3
 3387 0084 7B69     		ldr	r3, [r7, #20]
 3388 0086 1344     		add	r3, r3, r2
 3389 0088 F822     		movs	r2, #248
 3390 008a 1A71     		strb	r2, [r3, #4]
 913:.\PrimeImpl.c ****             //Here we copy the remaining 8 bytes for the preset value
 914:.\PrimeImpl.c ****             ///THIS IS AN APPLIED CONVENTION ===>> 0x0008 INDEX POSITION WITHIN THE PUMP'S BUFFER P
 915:.\PrimeImpl.c ****             ///THESE CODES MUST BE MATCHED OTHERWISE THE LOGIC WILL BREAKUP THE CODE!
 916:.\PrimeImpl.c ****             char8 *ptr = &ppump->_trasactionbuffer[0x0008];
 3391              		.loc 1 916 0 discriminator 4
 3392 008c BB69     		ldr	r3, [r7, #24]
 3393 008e 2833     		adds	r3, r3, #40
 3394 0090 FB60     		str	r3, [r7, #12]
 917:.\PrimeImpl.c ****             if(!ppump->_presetdone)
 3395              		.loc 1 917 0 discriminator 4
 3396 0092 BB69     		ldr	r3, [r7, #24]
 3397 0094 9B7A     		ldrb	r3, [r3, #10]
 3398 0096 DBB2     		uxtb	r3, r3
 3399 0098 83F00103 		eor	r3, r3, #1
 3400 009c DBB2     		uxtb	r3, r3
 3401 009e 002B     		cmp	r3, #0
 3402 00a0 0BD0     		beq	.L132
 918:.\PrimeImpl.c ****             {
 919:.\PrimeImpl.c ****                 if(transtype == 0xF1) //Volume PRESET, then multiply by 1000
 3403              		.loc 1 919 0
ARM GAS  C:\Users\RECEPC~1\AppData\Local\Temp\ccvxjDo6.s 			page 77


 3404 00a2 FB7C     		ldrb	r3, [r7, #19]	@ zero_extendqisi2
 3405 00a4 F12B     		cmp	r3, #241
 3406 00a6 04D1     		bne	.L133
 920:.\PrimeImpl.c ****                     CastVolumeValue(ptr, 0x08);
 3407              		.loc 1 920 0
 3408 00a8 F868     		ldr	r0, [r7, #12]
 3409 00aa 0821     		movs	r1, #8
 3410 00ac FFF7FEFF 		bl	CastVolumeValue
 3411 00b0 03E0     		b	.L132
 3412              	.L133:
 921:.\PrimeImpl.c ****                 else
 922:.\PrimeImpl.c ****                     CastMoneyValue(ptr, 0x08);
 3413              		.loc 1 922 0
 3414 00b2 F868     		ldr	r0, [r7, #12]
 3415 00b4 0821     		movs	r1, #8
 3416 00b6 FFF7FEFF 		bl	CastMoneyValue
 3417              	.L132:
 923:.\PrimeImpl.c ****                     
 924:.\PrimeImpl.c ****             }
 925:.\PrimeImpl.c ****             ppump->_presetdone = true;
 3418              		.loc 1 925 0
 3419 00ba BB69     		ldr	r3, [r7, #24]
 3420 00bc 0122     		movs	r2, #1
 3421 00be 9A72     		strb	r2, [r3, #10]
 926:.\PrimeImpl.c ****                 
 927:.\PrimeImpl.c ****             FOR(uint8 buffndx = 0, buffndx < 0x08, buffndx++)
 3422              		.loc 1 927 0
 3423 00c0 0023     		movs	r3, #0
 3424 00c2 BB77     		strb	r3, [r7, #30]
 3425 00c4 16E0     		b	.L134
 3426              	.L135:
 928:.\PrimeImpl.c ****                 puartdisp->_messagetx[index++] = (0xE0 | (0x0F & ptr[7 - buffndx])); //Translate fr
 3427              		.loc 1 928 0 discriminator 3
 3428 00c6 FB7F     		ldrb	r3, [r7, #31]	@ zero_extendqisi2
 3429 00c8 5A1C     		adds	r2, r3, #1
 3430 00ca FA77     		strb	r2, [r7, #31]
 3431 00cc 1946     		mov	r1, r3
 3432 00ce BB7F     		ldrb	r3, [r7, #30]	@ zero_extendqisi2
 3433 00d0 C3F10703 		rsb	r3, r3, #7
 3434 00d4 1A46     		mov	r2, r3
 3435 00d6 FB68     		ldr	r3, [r7, #12]
 3436 00d8 1344     		add	r3, r3, r2
 3437 00da 1B78     		ldrb	r3, [r3]	@ zero_extendqisi2
 3438 00dc 03F00F03 		and	r3, r3, #15
 3439 00e0 DBB2     		uxtb	r3, r3
 3440 00e2 63F01F03 		orn	r3, r3, #31
 3441 00e6 DAB2     		uxtb	r2, r3
 3442 00e8 7B69     		ldr	r3, [r7, #20]
 3443 00ea 0B44     		add	r3, r3, r1
 3444 00ec 1A71     		strb	r2, [r3, #4]
 927:.\PrimeImpl.c ****                 puartdisp->_messagetx[index++] = (0xE0 | (0x0F & ptr[7 - buffndx])); //Translate fr
 3445              		.loc 1 927 0 discriminator 3
 3446 00ee BB7F     		ldrb	r3, [r7, #30]	@ zero_extendqisi2
 3447 00f0 0133     		adds	r3, r3, #1
 3448 00f2 BB77     		strb	r3, [r7, #30]
 3449              	.L134:
 927:.\PrimeImpl.c ****                 puartdisp->_messagetx[index++] = (0xE0 | (0x0F & ptr[7 - buffndx])); //Translate fr
ARM GAS  C:\Users\RECEPC~1\AppData\Local\Temp\ccvxjDo6.s 			page 78


 3450              		.loc 1 927 0 is_stmt 0 discriminator 1
 3451 00f4 BB7F     		ldrb	r3, [r7, #30]	@ zero_extendqisi2
 3452 00f6 072B     		cmp	r3, #7
 3453 00f8 E5D9     		bls	.L135
 929:.\PrimeImpl.c ****                 
 930:.\PrimeImpl.c ****             puartdisp->_messagetx[index++] = LRCn; //LRC next
 3454              		.loc 1 930 0 is_stmt 1
 3455 00fa FB7F     		ldrb	r3, [r7, #31]	@ zero_extendqisi2
 3456 00fc 5A1C     		adds	r2, r3, #1
 3457 00fe FA77     		strb	r2, [r7, #31]
 3458 0100 1A46     		mov	r2, r3
 3459 0102 7B69     		ldr	r3, [r7, #20]
 3460 0104 1344     		add	r3, r3, r2
 3461 0106 FB22     		movs	r2, #251
 3462 0108 1A71     		strb	r2, [r3, #4]
 931:.\PrimeImpl.c ****             puartdisp->_messagetx[index++] = GetLRC(puartdisp->_messagetx);
 3463              		.loc 1 931 0
 3464 010a FB7F     		ldrb	r3, [r7, #31]	@ zero_extendqisi2
 3465 010c 5A1C     		adds	r2, r3, #1
 3466 010e FA77     		strb	r2, [r7, #31]
 3467 0110 1C46     		mov	r4, r3
 3468 0112 7B69     		ldr	r3, [r7, #20]
 3469 0114 0433     		adds	r3, r3, #4
 3470 0116 1846     		mov	r0, r3
 3471 0118 FFF7FEFF 		bl	GetLRC
 3472 011c 0346     		mov	r3, r0
 3473 011e 1A46     		mov	r2, r3
 3474 0120 7B69     		ldr	r3, [r7, #20]
 3475 0122 2344     		add	r3, r3, r4
 3476 0124 1A71     		strb	r2, [r3, #4]
 932:.\PrimeImpl.c ****             puartdisp->_messagetx[index++] = EOM;
 3477              		.loc 1 932 0
 3478 0126 FB7F     		ldrb	r3, [r7, #31]	@ zero_extendqisi2
 3479 0128 5A1C     		adds	r2, r3, #1
 3480 012a FA77     		strb	r2, [r7, #31]
 3481 012c 1A46     		mov	r2, r3
 3482 012e 7B69     		ldr	r3, [r7, #20]
 3483 0130 1344     		add	r3, r3, r2
 3484 0132 F022     		movs	r2, #240
 3485 0134 1A71     		strb	r2, [r3, #4]
 933:.\PrimeImpl.c **** ///////////////////////////////////////////////////////////////////////////////////////////////////
 934:.\PrimeImpl.c ****             
 935:.\PrimeImpl.c ****             puartdisp->_messagelength = index;
 3486              		.loc 1 935 0
 3487 0136 FB7F     		ldrb	r3, [r7, #31]	@ zero_extendqisi2
 3488 0138 9AB2     		uxth	r2, r3
 3489 013a 7B69     		ldr	r3, [r7, #20]
 3490 013c 5A80     		strh	r2, [r3, #2]	@ movhi
 936:.\PrimeImpl.c ****             puartdisp->_messagestate = PENDING;
 3491              		.loc 1 936 0
 3492 013e 7B69     		ldr	r3, [r7, #20]
 3493 0140 C222     		movs	r2, #194
 3494 0142 1A70     		strb	r2, [r3]
 3495              	.L128:
 3496              	.LBE17:
 3497              	.LBE16:
 937:.\PrimeImpl.c ****         }
ARM GAS  C:\Users\RECEPC~1\AppData\Local\Temp\ccvxjDo6.s 			page 79


 938:.\PrimeImpl.c ****     }
 939:.\PrimeImpl.c ****     
 940:.\PrimeImpl.c **** }
 3498              		.loc 1 940 0
 3499 0144 2437     		adds	r7, r7, #36
 3500              		.cfi_def_cfa_offset 12
 3501 0146 BD46     		mov	sp, r7
 3502              		.cfi_def_cfa_register 13
 3503              		@ sp needed
 3504 0148 90BD     		pop	{r4, r7, pc}
 3505              		.cfi_endproc
 3506              	.LFE83:
 3507              		.size	PumpPresetHose, .-PumpPresetHose
 3508 014a 00BF     		.section	.text.PumpCreditPresetHose,"ax",%progbits
 3509              		.align	2
 3510              		.global	PumpCreditPresetHose
 3511              		.thumb
 3512              		.thumb_func
 3513              		.type	PumpCreditPresetHose, %function
 3514              	PumpCreditPresetHose:
 3515              	.LFB84:
 941:.\PrimeImpl.c **** 
 942:.\PrimeImpl.c **** //@Created By: HIJH
 943:.\PrimeImpl.c **** //@Septembre de 2016
 944:.\PrimeImpl.c **** ///////////////////////////////////////////////////////////////////////////////////////////////////
 945:.\PrimeImpl.c **** //This preset is a convention that applies to "Credit Transactions"
 946:.\PrimeImpl.c **** //The pump will hold all the necessary information for the preset.
 947:.\PrimeImpl.c **** //For this message the data comes as follows:
 948:.\PrimeImpl.c **** void PumpCreditPresetHose(void *pparam)
 949:.\PrimeImpl.c **** {
 3516              		.loc 1 949 0
 3517              		.cfi_startproc
 3518              		@ args = 0, pretend = 0, frame = 32
 3519              		@ frame_needed = 1, uses_anonymous_args = 0
 3520 0000 90B5     		push	{r4, r7, lr}
 3521              		.cfi_def_cfa_offset 12
 3522              		.cfi_offset 4, -12
 3523              		.cfi_offset 7, -8
 3524              		.cfi_offset 14, -4
 3525 0002 89B0     		sub	sp, sp, #36
 3526              		.cfi_def_cfa_offset 48
 3527 0004 00AF     		add	r7, sp, #0
 3528              		.cfi_def_cfa_register 7
 3529 0006 7860     		str	r0, [r7, #4]
 950:.\PrimeImpl.c ****     PNEAR_PUMPPTR ppump = (PNEAR_PUMPPTR)pparam;
 3530              		.loc 1 950 0
 3531 0008 7B68     		ldr	r3, [r7, #4]
 3532 000a BB61     		str	r3, [r7, #24]
 951:.\PrimeImpl.c ****     if(ppump)
 3533              		.loc 1 951 0
 3534 000c BB69     		ldr	r3, [r7, #24]
 3535 000e 002B     		cmp	r3, #0
 3536 0010 00F0A380 		beq	.L136
 3537              	.LBB18:
 952:.\PrimeImpl.c ****     {
 953:.\PrimeImpl.c ****         uint8_t index = 0;        
 3538              		.loc 1 953 0
ARM GAS  C:\Users\RECEPC~1\AppData\Local\Temp\ccvxjDo6.s 			page 80


 3539 0014 0023     		movs	r3, #0
 3540 0016 FB77     		strb	r3, [r7, #31]
 954:.\PrimeImpl.c ****         PUARTMESSAGEPTR puartdisp = GetUARTMessageSlot(UART_DISPENSER);
 3541              		.loc 1 954 0
 3542 0018 A220     		movs	r0, #162
 3543 001a FFF7FEFF 		bl	GetUARTMessageSlot
 3544 001e 7861     		str	r0, [r7, #20]
 955:.\PrimeImpl.c ****         memset(ppump->_rxbuffer, 0x00, _PUMP_RX_BUFFER_SIZE_);
 3545              		.loc 1 955 0
 3546 0020 BB69     		ldr	r3, [r7, #24]
 3547 0022 03F5C473 		add	r3, r3, #392
 3548 0026 1846     		mov	r0, r3
 3549 0028 0021     		movs	r1, #0
 3550 002a 4FF4B472 		mov	r2, #360
 3551 002e FFF7FEFF 		bl	memset
 956:.\PrimeImpl.c ****         if(puartdisp)
 3552              		.loc 1 956 0
 3553 0032 7B69     		ldr	r3, [r7, #20]
 3554 0034 002B     		cmp	r3, #0
 3555 0036 00F09080 		beq	.L136
 3556              	.LBB19:
 957:.\PrimeImpl.c ****         {
 958:.\PrimeImpl.c **** ///////////////////////////////////////////////////////////////////////////////////////////////////
 959:.\PrimeImpl.c ****             puartdisp->_messagetx[index++] = SOM;
 3557              		.loc 1 959 0
 3558 003a FB7F     		ldrb	r3, [r7, #31]	@ zero_extendqisi2
 3559 003c 5A1C     		adds	r2, r3, #1
 3560 003e FA77     		strb	r2, [r7, #31]
 3561 0040 1A46     		mov	r2, r3
 3562 0042 7B69     		ldr	r3, [r7, #20]
 3563 0044 1344     		add	r3, r3, r2
 3564 0046 FF22     		movs	r2, #255
 3565 0048 1A71     		strb	r2, [r3, #4]
 960:.\PrimeImpl.c ****             #ifdef PRIME_CREDIT_SALE_NOHOSE
 961:.\PrimeImpl.c ****             puartdisp->_messagetx[index++] = 0xE3;
 3566              		.loc 1 961 0
 3567 004a FB7F     		ldrb	r3, [r7, #31]	@ zero_extendqisi2
 3568 004c 5A1C     		adds	r2, r3, #1
 3569 004e FA77     		strb	r2, [r7, #31]
 3570 0050 1A46     		mov	r2, r3
 3571 0052 7B69     		ldr	r3, [r7, #20]
 3572 0054 1344     		add	r3, r3, r2
 3573 0056 E322     		movs	r2, #227
 3574 0058 1A71     		strb	r2, [r3, #4]
 962:.\PrimeImpl.c ****             #endif
 963:.\PrimeImpl.c ****             #ifndef PRIME_CREDIT_SALE_NOHOSE
 964:.\PrimeImpl.c ****             puartdisp->_messagetx[index++] = 0xE1; //Data Length (n = 1 if F4/F5 are not included)
 965:.\PrimeImpl.c ****             #endif
 966:.\PrimeImpl.c **** 
 967:.\PrimeImpl.c ****             ///THIS IS AN APPLIED CONVENTION ===>> 0x0004 INDEX POSITION WITHIN THE PUMP'S BUFFER P
 968:.\PrimeImpl.c ****             ///THESE CODES MUST BE MATCHED OTHERWISE THE LOGIC WILL BREAKUP THE CODE!
 969:.\PrimeImpl.c ****             uint8 transtype = 0xF2;//preset type (0xF2 = Money, 0xF1 = Volume)
 3575              		.loc 1 969 0
 3576 005a F223     		movs	r3, #242
 3577 005c FB74     		strb	r3, [r7, #19]
 970:.\PrimeImpl.c ****             puartdisp->_messagetx[index++] = transtype;
 3578              		.loc 1 970 0
ARM GAS  C:\Users\RECEPC~1\AppData\Local\Temp\ccvxjDo6.s 			page 81


 3579 005e FB7F     		ldrb	r3, [r7, #31]	@ zero_extendqisi2
 3580 0060 5A1C     		adds	r2, r3, #1
 3581 0062 FA77     		strb	r2, [r7, #31]
 3582 0064 1A46     		mov	r2, r3
 3583 0066 7B69     		ldr	r3, [r7, #20]
 3584 0068 1344     		add	r3, r3, r2
 3585 006a FA7C     		ldrb	r2, [r7, #19]
 3586 006c 1A71     		strb	r2, [r3, #4]
 971:.\PrimeImpl.c ****             #ifndef PRIME_CREDIT_SALE_NOHOSE
 972:.\PrimeImpl.c ****             puartdisp->_messagetx[index++] = 0xF6; //Hose Data next
 973:.\PrimeImpl.c ****             ///THIS IS AN APPLIED CONVENTION ===>> 0x0006 INDEX POSITION WITHIN THE PUMP'S BUFFER P
 974:.\PrimeImpl.c ****             ///THESE CODES MUST BE MATCHED OTHERWISE THE LOGIC WILL BREAKUP THE CODE!
 975:.\PrimeImpl.c ****             puartdisp->_messagetx[index++] = (0xE0 | ppump->_authorizationinfo._hoseid);
 976:.\PrimeImpl.c ****             #endif
 977:.\PrimeImpl.c ****             
 978:.\PrimeImpl.c ****             puartdisp->_messagetx[index++] = 0xF8; //Preset Data next
 3587              		.loc 1 978 0
 3588 006e FB7F     		ldrb	r3, [r7, #31]	@ zero_extendqisi2
 3589 0070 5A1C     		adds	r2, r3, #1
 3590 0072 FA77     		strb	r2, [r7, #31]
 3591 0074 1A46     		mov	r2, r3
 3592 0076 7B69     		ldr	r3, [r7, #20]
 3593 0078 1344     		add	r3, r3, r2
 3594 007a F822     		movs	r2, #248
 3595 007c 1A71     		strb	r2, [r3, #4]
 979:.\PrimeImpl.c ****             //Here we copy the remaining 8 bytes for the preset value
 980:.\PrimeImpl.c ****             ///THIS IS AN APPLIED CONVENTION ===>> 0x0008 INDEX POSITION WITHIN THE PUMP'S BUFFER P
 981:.\PrimeImpl.c ****             ///THESE CODES MUST BE MATCHED OTHERWISE THE LOGIC WILL BREAKUP THE CODE!
 982:.\PrimeImpl.c ****             memset(PBYTECAST(&ppump->_trasactionbuffer[0x0008]),0x00, 0x0008);
 3596              		.loc 1 982 0
 3597 007e BB69     		ldr	r3, [r7, #24]
 3598 0080 2833     		adds	r3, r3, #40
 3599 0082 1846     		mov	r0, r3
 3600 0084 0021     		movs	r1, #0
 3601 0086 0822     		movs	r2, #8
 3602 0088 FFF7FEFF 		bl	memset
 983:.\PrimeImpl.c ****             B78AD90CF552D9B30A(ppump->_authorizationinfo._presetamount, PBYTECAST(&ppump->_trasacti
 3603              		.loc 1 983 0
 3604 008c BB69     		ldr	r3, [r7, #24]
 3605 008e D3F8803B 		ldr	r3, [r3, #2944]
 3606 0092 1A46     		mov	r2, r3
 3607 0094 4FF00003 		mov	r3, #0
 3608 0098 B969     		ldr	r1, [r7, #24]
 3609 009a 01F12804 		add	r4, r1, #40
 3610 009e 1046     		mov	r0, r2
 3611 00a0 1946     		mov	r1, r3
 3612 00a2 2246     		mov	r2, r4
 3613 00a4 FFF7FEFF 		bl	B78AD90CF552D9B30A
 984:.\PrimeImpl.c ****             
 985:.\PrimeImpl.c ****             char8 *ptr = &ppump->_trasactionbuffer[0x0008];
 3614              		.loc 1 985 0
 3615 00a8 BB69     		ldr	r3, [r7, #24]
 3616 00aa 2833     		adds	r3, r3, #40
 3617 00ac FB60     		str	r3, [r7, #12]
 986:.\PrimeImpl.c ****             PSTRBUFFTOGG(PBYTECAST(ptr), 0x08);
 3618              		.loc 1 986 0
 3619 00ae F868     		ldr	r0, [r7, #12]
ARM GAS  C:\Users\RECEPC~1\AppData\Local\Temp\ccvxjDo6.s 			page 82


 3620 00b0 0821     		movs	r1, #8
 3621 00b2 FFF7FEFF 		bl	PSTRBUFFTOGG
 987:.\PrimeImpl.c ****             if(transtype == 0xF1) //Volume PRESET, then multiply by 1000
 3622              		.loc 1 987 0
 3623 00b6 FB7C     		ldrb	r3, [r7, #19]	@ zero_extendqisi2
 3624 00b8 F12B     		cmp	r3, #241
 3625 00ba 04D1     		bne	.L138
 988:.\PrimeImpl.c ****                 CastVolumeValue(ptr, 0x08);
 3626              		.loc 1 988 0
 3627 00bc F868     		ldr	r0, [r7, #12]
 3628 00be 0821     		movs	r1, #8
 3629 00c0 FFF7FEFF 		bl	CastVolumeValue
 3630 00c4 03E0     		b	.L139
 3631              	.L138:
 989:.\PrimeImpl.c ****             else
 990:.\PrimeImpl.c ****                 CastMoneyValue(ptr, 0x08);
 3632              		.loc 1 990 0
 3633 00c6 F868     		ldr	r0, [r7, #12]
 3634 00c8 0821     		movs	r1, #8
 3635 00ca FFF7FEFF 		bl	CastMoneyValue
 3636              	.L139:
 991:.\PrimeImpl.c ****             
 992:.\PrimeImpl.c ****             PSTRBUFFTOGG(PBYTECAST(ptr), 0x08);
 3637              		.loc 1 992 0
 3638 00ce F868     		ldr	r0, [r7, #12]
 3639 00d0 0821     		movs	r1, #8
 3640 00d2 FFF7FEFF 		bl	PSTRBUFFTOGG
 993:.\PrimeImpl.c ****             FOR(uint8 buffndx = 0, buffndx < 8, buffndx++)
 3641              		.loc 1 993 0
 3642 00d6 0023     		movs	r3, #0
 3643 00d8 BB77     		strb	r3, [r7, #30]
 3644 00da 13E0     		b	.L140
 3645              	.L141:
 994:.\PrimeImpl.c ****                 puartdisp->_messagetx[index++] = (0xE0 | (0x0F & ptr[buffndx])); //Translate from A
 3646              		.loc 1 994 0 discriminator 3
 3647 00dc FB7F     		ldrb	r3, [r7, #31]	@ zero_extendqisi2
 3648 00de 5A1C     		adds	r2, r3, #1
 3649 00e0 FA77     		strb	r2, [r7, #31]
 3650 00e2 1946     		mov	r1, r3
 3651 00e4 BB7F     		ldrb	r3, [r7, #30]	@ zero_extendqisi2
 3652 00e6 FA68     		ldr	r2, [r7, #12]
 3653 00e8 1344     		add	r3, r3, r2
 3654 00ea 1B78     		ldrb	r3, [r3]	@ zero_extendqisi2
 3655 00ec 03F00F03 		and	r3, r3, #15
 3656 00f0 DBB2     		uxtb	r3, r3
 3657 00f2 63F01F03 		orn	r3, r3, #31
 3658 00f6 DAB2     		uxtb	r2, r3
 3659 00f8 7B69     		ldr	r3, [r7, #20]
 3660 00fa 0B44     		add	r3, r3, r1
 3661 00fc 1A71     		strb	r2, [r3, #4]
 993:.\PrimeImpl.c ****             FOR(uint8 buffndx = 0, buffndx < 8, buffndx++)
 3662              		.loc 1 993 0 discriminator 3
 3663 00fe BB7F     		ldrb	r3, [r7, #30]	@ zero_extendqisi2
 3664 0100 0133     		adds	r3, r3, #1
 3665 0102 BB77     		strb	r3, [r7, #30]
 3666              	.L140:
 993:.\PrimeImpl.c ****             FOR(uint8 buffndx = 0, buffndx < 8, buffndx++)
ARM GAS  C:\Users\RECEPC~1\AppData\Local\Temp\ccvxjDo6.s 			page 83


 3667              		.loc 1 993 0 is_stmt 0 discriminator 1
 3668 0104 BB7F     		ldrb	r3, [r7, #30]	@ zero_extendqisi2
 3669 0106 072B     		cmp	r3, #7
 3670 0108 E8D9     		bls	.L141
 995:.\PrimeImpl.c **** 
 996:.\PrimeImpl.c ****             ppump->_presetdone = true;
 3671              		.loc 1 996 0 is_stmt 1
 3672 010a BB69     		ldr	r3, [r7, #24]
 3673 010c 0122     		movs	r2, #1
 3674 010e 9A72     		strb	r2, [r3, #10]
 997:.\PrimeImpl.c **** 
 998:.\PrimeImpl.c ****             puartdisp->_messagetx[index++] = LRCn; //LRC next
 3675              		.loc 1 998 0
 3676 0110 FB7F     		ldrb	r3, [r7, #31]	@ zero_extendqisi2
 3677 0112 5A1C     		adds	r2, r3, #1
 3678 0114 FA77     		strb	r2, [r7, #31]
 3679 0116 1A46     		mov	r2, r3
 3680 0118 7B69     		ldr	r3, [r7, #20]
 3681 011a 1344     		add	r3, r3, r2
 3682 011c FB22     		movs	r2, #251
 3683 011e 1A71     		strb	r2, [r3, #4]
 999:.\PrimeImpl.c ****             puartdisp->_messagetx[index++] = GetLRC(puartdisp->_messagetx);
 3684              		.loc 1 999 0
 3685 0120 FB7F     		ldrb	r3, [r7, #31]	@ zero_extendqisi2
 3686 0122 5A1C     		adds	r2, r3, #1
 3687 0124 FA77     		strb	r2, [r7, #31]
 3688 0126 1C46     		mov	r4, r3
 3689 0128 7B69     		ldr	r3, [r7, #20]
 3690 012a 0433     		adds	r3, r3, #4
 3691 012c 1846     		mov	r0, r3
 3692 012e FFF7FEFF 		bl	GetLRC
 3693 0132 0346     		mov	r3, r0
 3694 0134 1A46     		mov	r2, r3
 3695 0136 7B69     		ldr	r3, [r7, #20]
 3696 0138 2344     		add	r3, r3, r4
 3697 013a 1A71     		strb	r2, [r3, #4]
1000:.\PrimeImpl.c ****             puartdisp->_messagetx[index++] = EOM;
 3698              		.loc 1 1000 0
 3699 013c FB7F     		ldrb	r3, [r7, #31]	@ zero_extendqisi2
 3700 013e 5A1C     		adds	r2, r3, #1
 3701 0140 FA77     		strb	r2, [r7, #31]
 3702 0142 1A46     		mov	r2, r3
 3703 0144 7B69     		ldr	r3, [r7, #20]
 3704 0146 1344     		add	r3, r3, r2
 3705 0148 F022     		movs	r2, #240
 3706 014a 1A71     		strb	r2, [r3, #4]
1001:.\PrimeImpl.c **** ///////////////////////////////////////////////////////////////////////////////////////////////////
1002:.\PrimeImpl.c ****             
1003:.\PrimeImpl.c ****             puartdisp->_messagelength = index;
 3707              		.loc 1 1003 0
 3708 014c FB7F     		ldrb	r3, [r7, #31]	@ zero_extendqisi2
 3709 014e 9AB2     		uxth	r2, r3
 3710 0150 7B69     		ldr	r3, [r7, #20]
 3711 0152 5A80     		strh	r2, [r3, #2]	@ movhi
1004:.\PrimeImpl.c ****             puartdisp->_messagestate = PENDING;
 3712              		.loc 1 1004 0
 3713 0154 7B69     		ldr	r3, [r7, #20]
ARM GAS  C:\Users\RECEPC~1\AppData\Local\Temp\ccvxjDo6.s 			page 84


 3714 0156 C222     		movs	r2, #194
 3715 0158 1A70     		strb	r2, [r3]
 3716              	.L136:
 3717              	.LBE19:
 3718              	.LBE18:
1005:.\PrimeImpl.c ****         }
1006:.\PrimeImpl.c ****     }
1007:.\PrimeImpl.c ****     
1008:.\PrimeImpl.c **** }
 3719              		.loc 1 1008 0
 3720 015a 2437     		adds	r7, r7, #36
 3721              		.cfi_def_cfa_offset 12
 3722 015c BD46     		mov	sp, r7
 3723              		.cfi_def_cfa_register 13
 3724              		@ sp needed
 3725 015e 90BD     		pop	{r4, r7, pc}
 3726              		.cfi_endproc
 3727              	.LFE84:
 3728              		.size	PumpCreditPresetHose, .-PumpCreditPresetHose
 3729              		.section	.text.PumpPresetNoHose,"ax",%progbits
 3730              		.align	2
 3731              		.global	PumpPresetNoHose
 3732              		.thumb
 3733              		.thumb_func
 3734              		.type	PumpPresetNoHose, %function
 3735              	PumpPresetNoHose:
 3736              	.LFB85:
1009:.\PrimeImpl.c **** 
1010:.\PrimeImpl.c **** //@Created By: HIJH
1011:.\PrimeImpl.c **** //@Septembre de 2016
1012:.\PrimeImpl.c **** ///////////////////////////////////////////////////////////////////////////////////////////////////
1013:.\PrimeImpl.c **** //Preset values will be placed within the SinkMessage's buffer. This is a convention that applies t
1014:.\PrimeImpl.c **** //all of the available transactions. The pump function must deal with this while it is assembling t
1015:.\PrimeImpl.c **** //For this message the data comes as follows:
1016:.\PrimeImpl.c **** // - First byte is the preset type (Volume:1 / Money:2 )
1017:.\PrimeImpl.c **** // - Block of 8 bytes for the preset value
1018:.\PrimeImpl.c **** //This block of data (10 bytes) must be moved to another position within the same buffer (even posi
1019:.\PrimeImpl.c **** void PumpPresetNoHose(void *pparam)
1020:.\PrimeImpl.c **** {
 3737              		.loc 1 1020 0
 3738              		.cfi_startproc
 3739              		@ args = 0, pretend = 0, frame = 32
 3740              		@ frame_needed = 1, uses_anonymous_args = 0
 3741 0000 90B5     		push	{r4, r7, lr}
 3742              		.cfi_def_cfa_offset 12
 3743              		.cfi_offset 4, -12
 3744              		.cfi_offset 7, -8
 3745              		.cfi_offset 14, -4
 3746 0002 89B0     		sub	sp, sp, #36
 3747              		.cfi_def_cfa_offset 48
 3748 0004 00AF     		add	r7, sp, #0
 3749              		.cfi_def_cfa_register 7
 3750 0006 7860     		str	r0, [r7, #4]
1021:.\PrimeImpl.c ****     PNEAR_PUMPPTR ppump = (PNEAR_PUMPPTR)pparam;
 3751              		.loc 1 1021 0
 3752 0008 7B68     		ldr	r3, [r7, #4]
 3753 000a BB61     		str	r3, [r7, #24]
ARM GAS  C:\Users\RECEPC~1\AppData\Local\Temp\ccvxjDo6.s 			page 85


1022:.\PrimeImpl.c ****     if(ppump)
 3754              		.loc 1 1022 0
 3755 000c BB69     		ldr	r3, [r7, #24]
 3756 000e 002B     		cmp	r3, #0
 3757 0010 00F09A80 		beq	.L142
 3758              	.LBB20:
1023:.\PrimeImpl.c ****     {
1024:.\PrimeImpl.c ****         uint8_t index = 0;
 3759              		.loc 1 1024 0
 3760 0014 0023     		movs	r3, #0
 3761 0016 FB77     		strb	r3, [r7, #31]
1025:.\PrimeImpl.c ****         memset(ppump->_rxbuffer, 0x00, _PUMP_RX_BUFFER_SIZE_);
 3762              		.loc 1 1025 0
 3763 0018 BB69     		ldr	r3, [r7, #24]
 3764 001a 03F5C473 		add	r3, r3, #392
 3765 001e 1846     		mov	r0, r3
 3766 0020 0021     		movs	r1, #0
 3767 0022 4FF4B472 		mov	r2, #360
 3768 0026 FFF7FEFF 		bl	memset
1026:.\PrimeImpl.c ****         PUARTMESSAGEPTR puartdisp = GetUARTMessageSlot(UART_DISPENSER);
 3769              		.loc 1 1026 0
 3770 002a A220     		movs	r0, #162
 3771 002c FFF7FEFF 		bl	GetUARTMessageSlot
 3772 0030 7861     		str	r0, [r7, #20]
1027:.\PrimeImpl.c ****         if(puartdisp)
 3773              		.loc 1 1027 0
 3774 0032 7B69     		ldr	r3, [r7, #20]
 3775 0034 002B     		cmp	r3, #0
 3776 0036 00F08780 		beq	.L142
 3777              	.LBB21:
1028:.\PrimeImpl.c ****         {
1029:.\PrimeImpl.c **** ///////////////////////////////////////////////////////////////////////////////////////////////////
1030:.\PrimeImpl.c ****             puartdisp->_messagetx[index++] = SOM;
 3778              		.loc 1 1030 0
 3779 003a FB7F     		ldrb	r3, [r7, #31]	@ zero_extendqisi2
 3780 003c 5A1C     		adds	r2, r3, #1
 3781 003e FA77     		strb	r2, [r7, #31]
 3782 0040 1A46     		mov	r2, r3
 3783 0042 7B69     		ldr	r3, [r7, #20]
 3784 0044 1344     		add	r3, r3, r2
 3785 0046 FF22     		movs	r2, #255
 3786 0048 1A71     		strb	r2, [r3, #4]
1031:.\PrimeImpl.c ****             puartdisp->_messagetx[index++] = 0xE3;
 3787              		.loc 1 1031 0
 3788 004a FB7F     		ldrb	r3, [r7, #31]	@ zero_extendqisi2
 3789 004c 5A1C     		adds	r2, r3, #1
 3790 004e FA77     		strb	r2, [r7, #31]
 3791 0050 1A46     		mov	r2, r3
 3792 0052 7B69     		ldr	r3, [r7, #20]
 3793 0054 1344     		add	r3, r3, r2
 3794 0056 E322     		movs	r2, #227
 3795 0058 1A71     		strb	r2, [r3, #4]
1032:.\PrimeImpl.c ****             ///THIS IS AN APPLIED CONVENTION ===>> 0x0004 INDEX POSITION WITHIN THE PUMP'S BUFFER P
1033:.\PrimeImpl.c ****             ///THESE CODES MUST BE MATCHED OTHERWISE THE LOGIC WILL BREAKUP THE CODE!
1034:.\PrimeImpl.c ****             uint8 transtype = (0xF0 | ((ppump->_trasactionbuffer[0x0004] == 0x0F)? 0x02: 0x01));//p
 3796              		.loc 1 1034 0
 3797 005a BB69     		ldr	r3, [r7, #24]
ARM GAS  C:\Users\RECEPC~1\AppData\Local\Temp\ccvxjDo6.s 			page 86


 3798 005c 93F82430 		ldrb	r3, [r3, #36]	@ zero_extendqisi2
 3799 0060 0F2B     		cmp	r3, #15
 3800 0062 01D1     		bne	.L144
 3801              		.loc 1 1034 0 is_stmt 0 discriminator 1
 3802 0064 F223     		movs	r3, #242
 3803 0066 00E0     		b	.L145
 3804              	.L144:
 3805              		.loc 1 1034 0 discriminator 2
 3806 0068 F123     		movs	r3, #241
 3807              	.L145:
 3808              		.loc 1 1034 0 discriminator 4
 3809 006a FB74     		strb	r3, [r7, #19]
1035:.\PrimeImpl.c ****             puartdisp->_messagetx[index++] = transtype;
 3810              		.loc 1 1035 0 is_stmt 1 discriminator 4
 3811 006c FB7F     		ldrb	r3, [r7, #31]	@ zero_extendqisi2
 3812 006e 5A1C     		adds	r2, r3, #1
 3813 0070 FA77     		strb	r2, [r7, #31]
 3814 0072 1A46     		mov	r2, r3
 3815 0074 7B69     		ldr	r3, [r7, #20]
 3816 0076 1344     		add	r3, r3, r2
 3817 0078 FA7C     		ldrb	r2, [r7, #19]
 3818 007a 1A71     		strb	r2, [r3, #4]
1036:.\PrimeImpl.c ****                         
1037:.\PrimeImpl.c ****             puartdisp->_messagetx[index++] = 0xF8; //Preset Data next
 3819              		.loc 1 1037 0 discriminator 4
 3820 007c FB7F     		ldrb	r3, [r7, #31]	@ zero_extendqisi2
 3821 007e 5A1C     		adds	r2, r3, #1
 3822 0080 FA77     		strb	r2, [r7, #31]
 3823 0082 1A46     		mov	r2, r3
 3824 0084 7B69     		ldr	r3, [r7, #20]
 3825 0086 1344     		add	r3, r3, r2
 3826 0088 F822     		movs	r2, #248
 3827 008a 1A71     		strb	r2, [r3, #4]
1038:.\PrimeImpl.c ****             //Here we copy the remaining 8 bytes for the preset value
1039:.\PrimeImpl.c ****             ///THIS IS AN APPLIED CONVENTION ===>> 0x0008 INDEX POSITION WITHIN THE PUMP'S BUFFER P
1040:.\PrimeImpl.c ****             ///THESE CODES MUST BE MATCHED OTHERWISE THE LOGIC WILL BREAKUP THE CODE!
1041:.\PrimeImpl.c ****             char8 *ptr = &ppump->_trasactionbuffer[0x0008];
 3828              		.loc 1 1041 0 discriminator 4
 3829 008c BB69     		ldr	r3, [r7, #24]
 3830 008e 2833     		adds	r3, r3, #40
 3831 0090 FB60     		str	r3, [r7, #12]
1042:.\PrimeImpl.c ****             if(!ppump->_presetdone)
 3832              		.loc 1 1042 0 discriminator 4
 3833 0092 BB69     		ldr	r3, [r7, #24]
 3834 0094 9B7A     		ldrb	r3, [r3, #10]
 3835 0096 DBB2     		uxtb	r3, r3
 3836 0098 83F00103 		eor	r3, r3, #1
 3837 009c DBB2     		uxtb	r3, r3
 3838 009e 002B     		cmp	r3, #0
 3839 00a0 0BD0     		beq	.L146
1043:.\PrimeImpl.c ****             {
1044:.\PrimeImpl.c ****                 if(transtype == 0xF1) //Volume PRESET, then multiply by 1000
 3840              		.loc 1 1044 0
 3841 00a2 FB7C     		ldrb	r3, [r7, #19]	@ zero_extendqisi2
 3842 00a4 F12B     		cmp	r3, #241
 3843 00a6 04D1     		bne	.L147
1045:.\PrimeImpl.c ****                     CastVolumeValue(ptr, 0x08);
ARM GAS  C:\Users\RECEPC~1\AppData\Local\Temp\ccvxjDo6.s 			page 87


 3844              		.loc 1 1045 0
 3845 00a8 F868     		ldr	r0, [r7, #12]
 3846 00aa 0821     		movs	r1, #8
 3847 00ac FFF7FEFF 		bl	CastVolumeValue
 3848 00b0 03E0     		b	.L146
 3849              	.L147:
1046:.\PrimeImpl.c ****                 else
1047:.\PrimeImpl.c ****                     CastMoneyValue(ptr, 0x08);
 3850              		.loc 1 1047 0
 3851 00b2 F868     		ldr	r0, [r7, #12]
 3852 00b4 0821     		movs	r1, #8
 3853 00b6 FFF7FEFF 		bl	CastMoneyValue
 3854              	.L146:
1048:.\PrimeImpl.c ****                     
1049:.\PrimeImpl.c ****             }
1050:.\PrimeImpl.c ****             ppump->_presetdone = true;
 3855              		.loc 1 1050 0
 3856 00ba BB69     		ldr	r3, [r7, #24]
 3857 00bc 0122     		movs	r2, #1
 3858 00be 9A72     		strb	r2, [r3, #10]
1051:.\PrimeImpl.c ****                 
1052:.\PrimeImpl.c ****             FOR(uint8 buffndx = 0, buffndx < 0x08, buffndx++)
 3859              		.loc 1 1052 0
 3860 00c0 0023     		movs	r3, #0
 3861 00c2 BB77     		strb	r3, [r7, #30]
 3862 00c4 18E0     		b	.L148
 3863              	.L149:
1053:.\PrimeImpl.c ****                 puartdisp->_messagetx[index++] = (0xE0 | (ptr[7 - buffndx] & 0x0F)); //Translate fr
 3864              		.loc 1 1053 0 discriminator 3
 3865 00c6 FB7F     		ldrb	r3, [r7, #31]	@ zero_extendqisi2
 3866 00c8 5A1C     		adds	r2, r3, #1
 3867 00ca FA77     		strb	r2, [r7, #31]
 3868 00cc 1946     		mov	r1, r3
 3869 00ce BB7F     		ldrb	r3, [r7, #30]	@ zero_extendqisi2
 3870 00d0 C3F10703 		rsb	r3, r3, #7
 3871 00d4 1A46     		mov	r2, r3
 3872 00d6 FB68     		ldr	r3, [r7, #12]
 3873 00d8 1344     		add	r3, r3, r2
 3874 00da 1B78     		ldrb	r3, [r3]	@ zero_extendqisi2
 3875 00dc DBB2     		uxtb	r3, r3
 3876 00de 03F00F03 		and	r3, r3, #15
 3877 00e2 DBB2     		uxtb	r3, r3
 3878 00e4 63F01F03 		orn	r3, r3, #31
 3879 00e8 DBB2     		uxtb	r3, r3
 3880 00ea DAB2     		uxtb	r2, r3
 3881 00ec 7B69     		ldr	r3, [r7, #20]
 3882 00ee 0B44     		add	r3, r3, r1
 3883 00f0 1A71     		strb	r2, [r3, #4]
1052:.\PrimeImpl.c ****                 puartdisp->_messagetx[index++] = (0xE0 | (ptr[7 - buffndx] & 0x0F)); //Translate fr
 3884              		.loc 1 1052 0 discriminator 3
 3885 00f2 BB7F     		ldrb	r3, [r7, #30]	@ zero_extendqisi2
 3886 00f4 0133     		adds	r3, r3, #1
 3887 00f6 BB77     		strb	r3, [r7, #30]
 3888              	.L148:
1052:.\PrimeImpl.c ****                 puartdisp->_messagetx[index++] = (0xE0 | (ptr[7 - buffndx] & 0x0F)); //Translate fr
 3889              		.loc 1 1052 0 is_stmt 0 discriminator 1
 3890 00f8 BB7F     		ldrb	r3, [r7, #30]	@ zero_extendqisi2
ARM GAS  C:\Users\RECEPC~1\AppData\Local\Temp\ccvxjDo6.s 			page 88


 3891 00fa 072B     		cmp	r3, #7
 3892 00fc E3D9     		bls	.L149
1054:.\PrimeImpl.c **** 
1055:.\PrimeImpl.c ****             puartdisp->_messagetx[index++] = LRCn; //LRC next
 3893              		.loc 1 1055 0 is_stmt 1
 3894 00fe FB7F     		ldrb	r3, [r7, #31]	@ zero_extendqisi2
 3895 0100 5A1C     		adds	r2, r3, #1
 3896 0102 FA77     		strb	r2, [r7, #31]
 3897 0104 1A46     		mov	r2, r3
 3898 0106 7B69     		ldr	r3, [r7, #20]
 3899 0108 1344     		add	r3, r3, r2
 3900 010a FB22     		movs	r2, #251
 3901 010c 1A71     		strb	r2, [r3, #4]
1056:.\PrimeImpl.c ****             puartdisp->_messagetx[index++] = GetLRC(puartdisp->_messagetx);
 3902              		.loc 1 1056 0
 3903 010e FB7F     		ldrb	r3, [r7, #31]	@ zero_extendqisi2
 3904 0110 5A1C     		adds	r2, r3, #1
 3905 0112 FA77     		strb	r2, [r7, #31]
 3906 0114 1C46     		mov	r4, r3
 3907 0116 7B69     		ldr	r3, [r7, #20]
 3908 0118 0433     		adds	r3, r3, #4
 3909 011a 1846     		mov	r0, r3
 3910 011c FFF7FEFF 		bl	GetLRC
 3911 0120 0346     		mov	r3, r0
 3912 0122 1A46     		mov	r2, r3
 3913 0124 7B69     		ldr	r3, [r7, #20]
 3914 0126 2344     		add	r3, r3, r4
 3915 0128 1A71     		strb	r2, [r3, #4]
1057:.\PrimeImpl.c ****             puartdisp->_messagetx[index++] = EOM;
 3916              		.loc 1 1057 0
 3917 012a FB7F     		ldrb	r3, [r7, #31]	@ zero_extendqisi2
 3918 012c 5A1C     		adds	r2, r3, #1
 3919 012e FA77     		strb	r2, [r7, #31]
 3920 0130 1A46     		mov	r2, r3
 3921 0132 7B69     		ldr	r3, [r7, #20]
 3922 0134 1344     		add	r3, r3, r2
 3923 0136 F022     		movs	r2, #240
 3924 0138 1A71     		strb	r2, [r3, #4]
1058:.\PrimeImpl.c **** ///////////////////////////////////////////////////////////////////////////////////////////////////
1059:.\PrimeImpl.c ****             
1060:.\PrimeImpl.c ****             puartdisp->_messagelength = index;
 3925              		.loc 1 1060 0
 3926 013a FB7F     		ldrb	r3, [r7, #31]	@ zero_extendqisi2
 3927 013c 9AB2     		uxth	r2, r3
 3928 013e 7B69     		ldr	r3, [r7, #20]
 3929 0140 5A80     		strh	r2, [r3, #2]	@ movhi
1061:.\PrimeImpl.c ****             puartdisp->_messagestate = PENDING;
 3930              		.loc 1 1061 0
 3931 0142 7B69     		ldr	r3, [r7, #20]
 3932 0144 C222     		movs	r2, #194
 3933 0146 1A70     		strb	r2, [r3]
 3934              	.L142:
 3935              	.LBE21:
 3936              	.LBE20:
1062:.\PrimeImpl.c ****         }
1063:.\PrimeImpl.c ****     }
1064:.\PrimeImpl.c ****     
ARM GAS  C:\Users\RECEPC~1\AppData\Local\Temp\ccvxjDo6.s 			page 89


1065:.\PrimeImpl.c **** }
 3937              		.loc 1 1065 0
 3938 0148 2437     		adds	r7, r7, #36
 3939              		.cfi_def_cfa_offset 12
 3940 014a BD46     		mov	sp, r7
 3941              		.cfi_def_cfa_register 13
 3942              		@ sp needed
 3943 014c 90BD     		pop	{r4, r7, pc}
 3944              		.cfi_endproc
 3945              	.LFE85:
 3946              		.size	PumpPresetNoHose, .-PumpPresetNoHose
 3947 014e 00BF     		.section	.text.PumpPresetNotification,"ax",%progbits
 3948              		.align	2
 3949              		.global	PumpPresetNotification
 3950              		.thumb
 3951              		.thumb_func
 3952              		.type	PumpPresetNotification, %function
 3953              	PumpPresetNotification:
 3954              	.LFB86:
1066:.\PrimeImpl.c **** 
1067:.\PrimeImpl.c **** //@Created By: HIJH
1068:.\PrimeImpl.c **** //@Septembre de 2016
1069:.\PrimeImpl.c **** //Message to be notified to the remote peer (NSX)
1070:.\PrimeImpl.c **** void PumpPresetNotification(LPVOID pparam)
1071:.\PrimeImpl.c **** {
 3955              		.loc 1 1071 0
 3956              		.cfi_startproc
 3957              		@ args = 0, pretend = 0, frame = 24
 3958              		@ frame_needed = 1, uses_anonymous_args = 0
 3959 0000 B0B5     		push	{r4, r5, r7, lr}
 3960              		.cfi_def_cfa_offset 16
 3961              		.cfi_offset 4, -16
 3962              		.cfi_offset 5, -12
 3963              		.cfi_offset 7, -8
 3964              		.cfi_offset 14, -4
 3965 0002 86B0     		sub	sp, sp, #24
 3966              		.cfi_def_cfa_offset 40
 3967 0004 00AF     		add	r7, sp, #0
 3968              		.cfi_def_cfa_register 7
 3969 0006 7860     		str	r0, [r7, #4]
1072:.\PrimeImpl.c ****     PPUMPTRANSACTIONJOBCONTEXTPTR pjob = (PPUMPTRANSACTIONJOBCONTEXTPTR)pparam;
 3970              		.loc 1 1072 0
 3971 0008 7B68     		ldr	r3, [r7, #4]
 3972 000a 7B61     		str	r3, [r7, #20]
1073:.\PrimeImpl.c ****     if(pjob)
 3973              		.loc 1 1073 0
 3974 000c 7B69     		ldr	r3, [r7, #20]
 3975 000e 002B     		cmp	r3, #0
 3976 0010 00F0CE80 		beq	.L150
 3977              	.LBB22:
1074:.\PrimeImpl.c ****     {
1075:.\PrimeImpl.c ****         //HERE WE ATTEMPT TO PUSH THE TRANSACTION INTO THE PUMP'S TRANSACTIONAL QUEUE.
1076:.\PrimeImpl.c ****         //THIS IS DONE ONLY IF THERE IS ROOM IN THE QUEUE, OTHERWISE THIS STATE WON'T
1077:.\PrimeImpl.c ****         //BE REPORTED TO THE REMOTE PEER.
1078:.\PrimeImpl.c ****         pjob->_ppump->PumpTransQueueLock(pjob->_ppump);
 3978              		.loc 1 1078 0
 3979 0014 7B69     		ldr	r3, [r7, #20]
ARM GAS  C:\Users\RECEPC~1\AppData\Local\Temp\ccvxjDo6.s 			page 90


 3980 0016 DB69     		ldr	r3, [r3, #28]
 3981 0018 D3F8143B 		ldr	r3, [r3, #2836]
 3982 001c 7A69     		ldr	r2, [r7, #20]
 3983 001e D269     		ldr	r2, [r2, #28]
 3984 0020 1046     		mov	r0, r2
 3985 0022 9847     		blx	r3
1079:.\PrimeImpl.c ****         PNEAR_PUMPTRANSACTIONALSTATEPTR pts = pjob->_ppump->PumpTransQueueAllocate(pjob->_ppump);
 3986              		.loc 1 1079 0
 3987 0024 7B69     		ldr	r3, [r7, #20]
 3988 0026 DB69     		ldr	r3, [r3, #28]
 3989 0028 D3F8283B 		ldr	r3, [r3, #2856]
 3990 002c 7A69     		ldr	r2, [r7, #20]
 3991 002e D269     		ldr	r2, [r2, #28]
 3992 0030 1046     		mov	r0, r2
 3993 0032 9847     		blx	r3
 3994 0034 3861     		str	r0, [r7, #16]
1080:.\PrimeImpl.c ****         pjob->_ppump->PumpTransQueueUnlock(pjob->_ppump);
 3995              		.loc 1 1080 0
 3996 0036 7B69     		ldr	r3, [r7, #20]
 3997 0038 DB69     		ldr	r3, [r3, #28]
 3998 003a D3F8183B 		ldr	r3, [r3, #2840]
 3999 003e 7A69     		ldr	r2, [r7, #20]
 4000 0040 D269     		ldr	r2, [r2, #28]
 4001 0042 1046     		mov	r0, r2
 4002 0044 9847     		blx	r3
1081:.\PrimeImpl.c ****         if(pts)
 4003              		.loc 1 1081 0
 4004 0046 3B69     		ldr	r3, [r7, #16]
 4005 0048 002B     		cmp	r3, #0
 4006 004a 00F0B180 		beq	.L150
 4007              	.LBB23:
1082:.\PrimeImpl.c ****         {
1083:.\PrimeImpl.c ****             uint8 index = 0;
 4008              		.loc 1 1083 0
 4009 004e 0023     		movs	r3, #0
 4010 0050 FB73     		strb	r3, [r7, #15]
1084:.\PrimeImpl.c ****             pts->_transtate = RF_MUX_CASH_SALE_START_REQUEST;
 4011              		.loc 1 1084 0
 4012 0052 3B69     		ldr	r3, [r7, #16]
 4013 0054 AA22     		movs	r2, #170
 4014 0056 5A70     		strb	r2, [r3, #1]
1085:.\PrimeImpl.c ****             //Pump ID always comes in position 0x00
1086:.\PrimeImpl.c ****             pts->_buffer[index++] = pjob->_ppump->_pumpid;
 4015              		.loc 1 1086 0
 4016 0058 FB7B     		ldrb	r3, [r7, #15]	@ zero_extendqisi2
 4017 005a 5A1C     		adds	r2, r3, #1
 4018 005c FA73     		strb	r2, [r7, #15]
 4019 005e 1946     		mov	r1, r3
 4020 0060 7B69     		ldr	r3, [r7, #20]
 4021 0062 DB69     		ldr	r3, [r3, #28]
 4022 0064 1A78     		ldrb	r2, [r3]	@ zero_extendqisi2
 4023 0066 3B69     		ldr	r3, [r7, #16]
 4024 0068 0B44     		add	r3, r3, r1
 4025 006a 9A70     		strb	r2, [r3, #2]
1087:.\PrimeImpl.c ****             //PRESET type
1088:.\PrimeImpl.c ****             pts->_buffer[index++] = (0xF0 | ((pjob->_ppump->_trasactionbuffer[0x0004] == 0x0F)? 0x0
 4026              		.loc 1 1088 0
ARM GAS  C:\Users\RECEPC~1\AppData\Local\Temp\ccvxjDo6.s 			page 91


 4027 006c FB7B     		ldrb	r3, [r7, #15]	@ zero_extendqisi2
 4028 006e 5A1C     		adds	r2, r3, #1
 4029 0070 FA73     		strb	r2, [r7, #15]
 4030 0072 1946     		mov	r1, r3
 4031 0074 7B69     		ldr	r3, [r7, #20]
 4032 0076 DB69     		ldr	r3, [r3, #28]
 4033 0078 93F82430 		ldrb	r3, [r3, #36]	@ zero_extendqisi2
 4034 007c 0F2B     		cmp	r3, #15
 4035 007e 01D1     		bne	.L152
 4036              		.loc 1 1088 0 is_stmt 0 discriminator 1
 4037 0080 F222     		movs	r2, #242
 4038 0082 00E0     		b	.L153
 4039              	.L152:
 4040              		.loc 1 1088 0 discriminator 2
 4041 0084 F122     		movs	r2, #241
 4042              	.L153:
 4043              		.loc 1 1088 0 discriminator 4
 4044 0086 3B69     		ldr	r3, [r7, #16]
 4045 0088 0B44     		add	r3, r3, r1
 4046 008a 9A70     		strb	r2, [r3, #2]
1089:.\PrimeImpl.c ****             
1090:.\PrimeImpl.c ****             //PRESET value (8 bytes)
1091:.\PrimeImpl.c ****             PSTRBUFFTOGG(PBYTECAST(&pjob->_ppump->_trasactionbuffer[0x0008]), 0x08);
 4047              		.loc 1 1091 0 is_stmt 1 discriminator 4
 4048 008c 7B69     		ldr	r3, [r7, #20]
 4049 008e DB69     		ldr	r3, [r3, #28]
 4050 0090 2833     		adds	r3, r3, #40
 4051 0092 1846     		mov	r0, r3
 4052 0094 0821     		movs	r1, #8
 4053 0096 FFF7FEFF 		bl	PSTRBUFFTOGG
1092:.\PrimeImpl.c ****             memcpy(&pts->_buffer[index], &pjob->_ppump->_trasactionbuffer[0x0008], 0x08);
 4054              		.loc 1 1092 0 discriminator 4
 4055 009a FB7B     		ldrb	r3, [r7, #15]	@ zero_extendqisi2
 4056 009c 3A69     		ldr	r2, [r7, #16]
 4057 009e 1344     		add	r3, r3, r2
 4058 00a0 9A1C     		adds	r2, r3, #2
 4059 00a2 7B69     		ldr	r3, [r7, #20]
 4060 00a4 DB69     		ldr	r3, [r3, #28]
 4061 00a6 2833     		adds	r3, r3, #40
 4062 00a8 1046     		mov	r0, r2
 4063 00aa 1946     		mov	r1, r3
 4064 00ac 0822     		movs	r2, #8
 4065 00ae FFF7FEFF 		bl	memcpy
1093:.\PrimeImpl.c ****             index += 0x08;
 4066              		.loc 1 1093 0 discriminator 4
 4067 00b2 FB7B     		ldrb	r3, [r7, #15]
 4068 00b4 0833     		adds	r3, r3, #8
 4069 00b6 FB73     		strb	r3, [r7, #15]
1094:.\PrimeImpl.c ****             //Car's Plate
1095:.\PrimeImpl.c ****             memcpy(&pts->_buffer[index], &pjob->_ppump->_trasactionbuffer[GetBufferIndexFromDisplay
 4070              		.loc 1 1095 0 discriminator 4
 4071 00b8 FB7B     		ldrb	r3, [r7, #15]	@ zero_extendqisi2
 4072 00ba 3A69     		ldr	r2, [r7, #16]
 4073 00bc 1344     		add	r3, r3, r2
 4074 00be 9D1C     		adds	r5, r3, #2
 4075 00c0 7B69     		ldr	r3, [r7, #20]
 4076 00c2 DC69     		ldr	r4, [r3, #28]
ARM GAS  C:\Users\RECEPC~1\AppData\Local\Temp\ccvxjDo6.s 			page 92


 4077 00c4 0A20     		movs	r0, #10
 4078 00c6 FFF7FEFF 		bl	GetBufferIndexFromDisplayID
 4079 00ca 0346     		mov	r3, r0
 4080 00cc 2033     		adds	r3, r3, #32
 4081 00ce 1C44     		add	r4, r4, r3
 4082 00d0 0A20     		movs	r0, #10
 4083 00d2 FFF7FEFF 		bl	GetBufferLengthFromDisplayID
 4084 00d6 0346     		mov	r3, r0
 4085 00d8 2846     		mov	r0, r5
 4086 00da 2146     		mov	r1, r4
 4087 00dc 1A46     		mov	r2, r3
 4088 00de FFF7FEFF 		bl	memcpy
1096:.\PrimeImpl.c ****             index += GetBufferLengthFromDisplayID(DISPLAY_DIGITE_PLACA);
 4089              		.loc 1 1096 0 discriminator 4
 4090 00e2 0A20     		movs	r0, #10
 4091 00e4 FFF7FEFF 		bl	GetBufferLengthFromDisplayID
 4092 00e8 0346     		mov	r3, r0
 4093 00ea 1A46     		mov	r2, r3
 4094 00ec FB7B     		ldrb	r3, [r7, #15]
 4095 00ee 1344     		add	r3, r3, r2
 4096 00f0 FB73     		strb	r3, [r7, #15]
1097:.\PrimeImpl.c ****             pts->_buffer[index] = index;
 4097              		.loc 1 1097 0 discriminator 4
 4098 00f2 FB7B     		ldrb	r3, [r7, #15]	@ zero_extendqisi2
 4099 00f4 3A69     		ldr	r2, [r7, #16]
 4100 00f6 1344     		add	r3, r3, r2
 4101 00f8 FA7B     		ldrb	r2, [r7, #15]
 4102 00fa 9A70     		strb	r2, [r3, #2]
1098:.\PrimeImpl.c ****             //Car's Milleage
1099:.\PrimeImpl.c ****             memcpy(&pts->_buffer[index], &pjob->_ppump->_trasactionbuffer[GetBufferIndexFromDisplay
 4103              		.loc 1 1099 0 discriminator 4
 4104 00fc FB7B     		ldrb	r3, [r7, #15]	@ zero_extendqisi2
 4105 00fe 3A69     		ldr	r2, [r7, #16]
 4106 0100 1344     		add	r3, r3, r2
 4107 0102 9D1C     		adds	r5, r3, #2
 4108 0104 7B69     		ldr	r3, [r7, #20]
 4109 0106 DC69     		ldr	r4, [r3, #28]
 4110 0108 0E20     		movs	r0, #14
 4111 010a FFF7FEFF 		bl	GetBufferIndexFromDisplayID
 4112 010e 0346     		mov	r3, r0
 4113 0110 2033     		adds	r3, r3, #32
 4114 0112 1C44     		add	r4, r4, r3
 4115 0114 0E20     		movs	r0, #14
 4116 0116 FFF7FEFF 		bl	GetBufferLengthFromDisplayID
 4117 011a 0346     		mov	r3, r0
 4118 011c 2846     		mov	r0, r5
 4119 011e 2146     		mov	r1, r4
 4120 0120 1A46     		mov	r2, r3
 4121 0122 FFF7FEFF 		bl	memcpy
1100:.\PrimeImpl.c ****             index += GetBufferLengthFromDisplayID(DISPLAY_INTRODUZCA_KILOMETRAJE);
 4122              		.loc 1 1100 0 discriminator 4
 4123 0126 0E20     		movs	r0, #14
 4124 0128 FFF7FEFF 		bl	GetBufferLengthFromDisplayID
 4125 012c 0346     		mov	r3, r0
 4126 012e 1A46     		mov	r2, r3
 4127 0130 FB7B     		ldrb	r3, [r7, #15]
 4128 0132 1344     		add	r3, r3, r2
ARM GAS  C:\Users\RECEPC~1\AppData\Local\Temp\ccvxjDo6.s 			page 93


 4129 0134 FB73     		strb	r3, [r7, #15]
1101:.\PrimeImpl.c ****             
1102:.\PrimeImpl.c ****             pts->_buffersize = index;
 4130              		.loc 1 1102 0 discriminator 4
 4131 0136 FB7B     		ldrb	r3, [r7, #15]	@ zero_extendqisi2
 4132 0138 9AB2     		uxth	r2, r3
 4133 013a 3B69     		ldr	r3, [r7, #16]
 4134 013c A3F80221 		strh	r2, [r3, #258]	@ movhi
1103:.\PrimeImpl.c ****             
1104:.\PrimeImpl.c ****             PNEAR_PUMPTRANSACTIONALSTATEPTR ptstemp = pjob->_ppump->PumpTransQueueAllocate(pjob->_p
 4135              		.loc 1 1104 0 discriminator 4
 4136 0140 7B69     		ldr	r3, [r7, #20]
 4137 0142 DB69     		ldr	r3, [r3, #28]
 4138 0144 D3F8283B 		ldr	r3, [r3, #2856]
 4139 0148 7A69     		ldr	r2, [r7, #20]
 4140 014a D269     		ldr	r2, [r2, #28]
 4141 014c 1046     		mov	r0, r2
 4142 014e 9847     		blx	r3
 4143 0150 B860     		str	r0, [r7, #8]
1105:.\PrimeImpl.c ****             if(ptstemp)
 4144              		.loc 1 1105 0 discriminator 4
 4145 0152 BB68     		ldr	r3, [r7, #8]
 4146 0154 002B     		cmp	r3, #0
 4147 0156 22D0     		beq	.L154
1106:.\PrimeImpl.c ****             {
1107:.\PrimeImpl.c ****                 pjob->_ppump->PumpTransQueueDeallocate(pjob->_ppump,ptstemp);
 4148              		.loc 1 1107 0
 4149 0158 7B69     		ldr	r3, [r7, #20]
 4150 015a DB69     		ldr	r3, [r3, #28]
 4151 015c D3F8243B 		ldr	r3, [r3, #2852]
 4152 0160 7A69     		ldr	r2, [r7, #20]
 4153 0162 D269     		ldr	r2, [r2, #28]
 4154 0164 1046     		mov	r0, r2
 4155 0166 B968     		ldr	r1, [r7, #8]
 4156 0168 9847     		blx	r3
1108:.\PrimeImpl.c ****                 pjob->_ppump->PumpTransQueueLock(pjob->_ppump);
 4157              		.loc 1 1108 0
 4158 016a 7B69     		ldr	r3, [r7, #20]
 4159 016c DB69     		ldr	r3, [r3, #28]
 4160 016e D3F8143B 		ldr	r3, [r3, #2836]
 4161 0172 7A69     		ldr	r2, [r7, #20]
 4162 0174 D269     		ldr	r2, [r2, #28]
 4163 0176 1046     		mov	r0, r2
 4164 0178 9847     		blx	r3
1109:.\PrimeImpl.c ****                 pjob->_ppump->PumpTransQueueEnqueue(pjob->_ppump, pts);
 4165              		.loc 1 1109 0
 4166 017a 7B69     		ldr	r3, [r7, #20]
 4167 017c DB69     		ldr	r3, [r3, #28]
 4168 017e D3F8203B 		ldr	r3, [r3, #2848]
 4169 0182 7A69     		ldr	r2, [r7, #20]
 4170 0184 D269     		ldr	r2, [r2, #28]
 4171 0186 1046     		mov	r0, r2
 4172 0188 3969     		ldr	r1, [r7, #16]
 4173 018a 9847     		blx	r3
1110:.\PrimeImpl.c ****                 pjob->_ppump->PumpTransQueueUnlock(pjob->_ppump);
 4174              		.loc 1 1110 0
 4175 018c 7B69     		ldr	r3, [r7, #20]
ARM GAS  C:\Users\RECEPC~1\AppData\Local\Temp\ccvxjDo6.s 			page 94


 4176 018e DB69     		ldr	r3, [r3, #28]
 4177 0190 D3F8183B 		ldr	r3, [r3, #2840]
 4178 0194 7A69     		ldr	r2, [r7, #20]
 4179 0196 D269     		ldr	r2, [r2, #28]
 4180 0198 1046     		mov	r0, r2
 4181 019a 9847     		blx	r3
 4182 019c 08E0     		b	.L150
 4183              	.L154:
1111:.\PrimeImpl.c ****             }else
1112:.\PrimeImpl.c ****                 pjob->_ppump->PumpTransQueueDeallocate(pjob->_ppump, pts);
 4184              		.loc 1 1112 0
 4185 019e 7B69     		ldr	r3, [r7, #20]
 4186 01a0 DB69     		ldr	r3, [r3, #28]
 4187 01a2 D3F8243B 		ldr	r3, [r3, #2852]
 4188 01a6 7A69     		ldr	r2, [r7, #20]
 4189 01a8 D269     		ldr	r2, [r2, #28]
 4190 01aa 1046     		mov	r0, r2
 4191 01ac 3969     		ldr	r1, [r7, #16]
 4192 01ae 9847     		blx	r3
 4193              	.L150:
 4194              	.LBE23:
 4195              	.LBE22:
1113:.\PrimeImpl.c ****         }
1114:.\PrimeImpl.c ****     }
1115:.\PrimeImpl.c **** }
 4196              		.loc 1 1115 0
 4197 01b0 1837     		adds	r7, r7, #24
 4198              		.cfi_def_cfa_offset 16
 4199 01b2 BD46     		mov	sp, r7
 4200              		.cfi_def_cfa_register 13
 4201              		@ sp needed
 4202 01b4 B0BD     		pop	{r4, r5, r7, pc}
 4203              		.cfi_endproc
 4204              	.LFE86:
 4205              		.size	PumpPresetNotification, .-PumpPresetNotification
 4206 01b6 00BF     		.section	.text.PumpCreditPresetNotification,"ax",%progbits
 4207              		.align	2
 4208              		.global	PumpCreditPresetNotification
 4209              		.thumb
 4210              		.thumb_func
 4211              		.type	PumpCreditPresetNotification, %function
 4212              	PumpCreditPresetNotification:
 4213              	.LFB87:
1116:.\PrimeImpl.c **** 
1117:.\PrimeImpl.c **** 
1118:.\PrimeImpl.c **** //@Created By: HIJH
1119:.\PrimeImpl.c **** //@Septembre de 2016
1120:.\PrimeImpl.c **** //Message to be notified to the remote peer (NSX)
1121:.\PrimeImpl.c **** void PumpCreditPresetNotification(LPVOID pparam)
1122:.\PrimeImpl.c **** {
 4214              		.loc 1 1122 0
 4215              		.cfi_startproc
 4216              		@ args = 0, pretend = 0, frame = 24
 4217              		@ frame_needed = 1, uses_anonymous_args = 0
 4218 0000 80B5     		push	{r7, lr}
 4219              		.cfi_def_cfa_offset 8
 4220              		.cfi_offset 7, -8
ARM GAS  C:\Users\RECEPC~1\AppData\Local\Temp\ccvxjDo6.s 			page 95


 4221              		.cfi_offset 14, -4
 4222 0002 86B0     		sub	sp, sp, #24
 4223              		.cfi_def_cfa_offset 32
 4224 0004 00AF     		add	r7, sp, #0
 4225              		.cfi_def_cfa_register 7
 4226 0006 7860     		str	r0, [r7, #4]
1123:.\PrimeImpl.c ****     PPUMPTRANSACTIONJOBCONTEXTPTR pjob = (PPUMPTRANSACTIONJOBCONTEXTPTR)pparam;
 4227              		.loc 1 1123 0
 4228 0008 7B68     		ldr	r3, [r7, #4]
 4229 000a 7B61     		str	r3, [r7, #20]
1124:.\PrimeImpl.c ****     if(pjob)
 4230              		.loc 1 1124 0
 4231 000c 7B69     		ldr	r3, [r7, #20]
 4232 000e 002B     		cmp	r3, #0
 4233 0010 67D0     		beq	.L155
 4234              	.LBB24:
1125:.\PrimeImpl.c ****     {
1126:.\PrimeImpl.c ****         //HERE WE ATTEMPT TO PUSH THE TRANSACTION INTO THE PUMP'S TRANSACTIONAL QUEUE.
1127:.\PrimeImpl.c ****         //THIS IS DONE ONLY IF THERE IS ROOM IN THE QUEUE, OTHERWISE THIS STATE WON'T
1128:.\PrimeImpl.c ****         //BE REPORTED TO THE REMOTE PEER.
1129:.\PrimeImpl.c ****         pjob->_ppump->PumpTransQueueLock(pjob->_ppump);
 4235              		.loc 1 1129 0
 4236 0012 7B69     		ldr	r3, [r7, #20]
 4237 0014 DB69     		ldr	r3, [r3, #28]
 4238 0016 D3F8143B 		ldr	r3, [r3, #2836]
 4239 001a 7A69     		ldr	r2, [r7, #20]
 4240 001c D269     		ldr	r2, [r2, #28]
 4241 001e 1046     		mov	r0, r2
 4242 0020 9847     		blx	r3
1130:.\PrimeImpl.c ****         PNEAR_PUMPTRANSACTIONALSTATEPTR pts = pjob->_ppump->PumpTransQueueAllocate(pjob->_ppump);
 4243              		.loc 1 1130 0
 4244 0022 7B69     		ldr	r3, [r7, #20]
 4245 0024 DB69     		ldr	r3, [r3, #28]
 4246 0026 D3F8283B 		ldr	r3, [r3, #2856]
 4247 002a 7A69     		ldr	r2, [r7, #20]
 4248 002c D269     		ldr	r2, [r2, #28]
 4249 002e 1046     		mov	r0, r2
 4250 0030 9847     		blx	r3
 4251 0032 3861     		str	r0, [r7, #16]
1131:.\PrimeImpl.c ****         pjob->_ppump->PumpTransQueueUnlock(pjob->_ppump);
 4252              		.loc 1 1131 0
 4253 0034 7B69     		ldr	r3, [r7, #20]
 4254 0036 DB69     		ldr	r3, [r3, #28]
 4255 0038 D3F8183B 		ldr	r3, [r3, #2840]
 4256 003c 7A69     		ldr	r2, [r7, #20]
 4257 003e D269     		ldr	r2, [r2, #28]
 4258 0040 1046     		mov	r0, r2
 4259 0042 9847     		blx	r3
1132:.\PrimeImpl.c ****         if(pts)
 4260              		.loc 1 1132 0
 4261 0044 3B69     		ldr	r3, [r7, #16]
 4262 0046 002B     		cmp	r3, #0
 4263 0048 4BD0     		beq	.L155
 4264              	.LBB25:
1133:.\PrimeImpl.c ****         {
1134:.\PrimeImpl.c ****             uint8 index = 0;
 4265              		.loc 1 1134 0
ARM GAS  C:\Users\RECEPC~1\AppData\Local\Temp\ccvxjDo6.s 			page 96


 4266 004a 0023     		movs	r3, #0
 4267 004c FB73     		strb	r3, [r7, #15]
1135:.\PrimeImpl.c ****             pts->_transtate = RF_MUX_CREDIT_PRESET_NOTIFICATION_REQUEST;
 4268              		.loc 1 1135 0
 4269 004e 3B69     		ldr	r3, [r7, #16]
 4270 0050 AE22     		movs	r2, #174
 4271 0052 5A70     		strb	r2, [r3, #1]
1136:.\PrimeImpl.c ****             //Pump ID always comes in position 0x00
1137:.\PrimeImpl.c ****             pts->_buffer[index++] = pjob->_ppump->_pumpid;
 4272              		.loc 1 1137 0
 4273 0054 FB7B     		ldrb	r3, [r7, #15]	@ zero_extendqisi2
 4274 0056 5A1C     		adds	r2, r3, #1
 4275 0058 FA73     		strb	r2, [r7, #15]
 4276 005a 1946     		mov	r1, r3
 4277 005c 7B69     		ldr	r3, [r7, #20]
 4278 005e DB69     		ldr	r3, [r3, #28]
 4279 0060 1A78     		ldrb	r2, [r3]	@ zero_extendqisi2
 4280 0062 3B69     		ldr	r3, [r7, #16]
 4281 0064 0B44     		add	r3, r3, r1
 4282 0066 9A70     		strb	r2, [r3, #2]
1138:.\PrimeImpl.c ****             pts->_buffersize = index;
 4283              		.loc 1 1138 0
 4284 0068 FB7B     		ldrb	r3, [r7, #15]	@ zero_extendqisi2
 4285 006a 9AB2     		uxth	r2, r3
 4286 006c 3B69     		ldr	r3, [r7, #16]
 4287 006e A3F80221 		strh	r2, [r3, #258]	@ movhi
1139:.\PrimeImpl.c ****             
1140:.\PrimeImpl.c ****             PNEAR_PUMPTRANSACTIONALSTATEPTR ptstemp = pjob->_ppump->PumpTransQueueAllocate(pjob->_p
 4288              		.loc 1 1140 0
 4289 0072 7B69     		ldr	r3, [r7, #20]
 4290 0074 DB69     		ldr	r3, [r3, #28]
 4291 0076 D3F8283B 		ldr	r3, [r3, #2856]
 4292 007a 7A69     		ldr	r2, [r7, #20]
 4293 007c D269     		ldr	r2, [r2, #28]
 4294 007e 1046     		mov	r0, r2
 4295 0080 9847     		blx	r3
 4296 0082 B860     		str	r0, [r7, #8]
1141:.\PrimeImpl.c ****             if(ptstemp)
 4297              		.loc 1 1141 0
 4298 0084 BB68     		ldr	r3, [r7, #8]
 4299 0086 002B     		cmp	r3, #0
 4300 0088 22D0     		beq	.L157
1142:.\PrimeImpl.c ****             {
1143:.\PrimeImpl.c ****                 pjob->_ppump->PumpTransQueueDeallocate(pjob->_ppump,ptstemp);
 4301              		.loc 1 1143 0
 4302 008a 7B69     		ldr	r3, [r7, #20]
 4303 008c DB69     		ldr	r3, [r3, #28]
 4304 008e D3F8243B 		ldr	r3, [r3, #2852]
 4305 0092 7A69     		ldr	r2, [r7, #20]
 4306 0094 D269     		ldr	r2, [r2, #28]
 4307 0096 1046     		mov	r0, r2
 4308 0098 B968     		ldr	r1, [r7, #8]
 4309 009a 9847     		blx	r3
1144:.\PrimeImpl.c ****                 pjob->_ppump->PumpTransQueueLock(pjob->_ppump);
 4310              		.loc 1 1144 0
 4311 009c 7B69     		ldr	r3, [r7, #20]
 4312 009e DB69     		ldr	r3, [r3, #28]
ARM GAS  C:\Users\RECEPC~1\AppData\Local\Temp\ccvxjDo6.s 			page 97


 4313 00a0 D3F8143B 		ldr	r3, [r3, #2836]
 4314 00a4 7A69     		ldr	r2, [r7, #20]
 4315 00a6 D269     		ldr	r2, [r2, #28]
 4316 00a8 1046     		mov	r0, r2
 4317 00aa 9847     		blx	r3
1145:.\PrimeImpl.c ****                 pjob->_ppump->PumpTransQueueEnqueue(pjob->_ppump, pts);
 4318              		.loc 1 1145 0
 4319 00ac 7B69     		ldr	r3, [r7, #20]
 4320 00ae DB69     		ldr	r3, [r3, #28]
 4321 00b0 D3F8203B 		ldr	r3, [r3, #2848]
 4322 00b4 7A69     		ldr	r2, [r7, #20]
 4323 00b6 D269     		ldr	r2, [r2, #28]
 4324 00b8 1046     		mov	r0, r2
 4325 00ba 3969     		ldr	r1, [r7, #16]
 4326 00bc 9847     		blx	r3
1146:.\PrimeImpl.c ****                 pjob->_ppump->PumpTransQueueUnlock(pjob->_ppump);
 4327              		.loc 1 1146 0
 4328 00be 7B69     		ldr	r3, [r7, #20]
 4329 00c0 DB69     		ldr	r3, [r3, #28]
 4330 00c2 D3F8183B 		ldr	r3, [r3, #2840]
 4331 00c6 7A69     		ldr	r2, [r7, #20]
 4332 00c8 D269     		ldr	r2, [r2, #28]
 4333 00ca 1046     		mov	r0, r2
 4334 00cc 9847     		blx	r3
 4335 00ce 08E0     		b	.L155
 4336              	.L157:
1147:.\PrimeImpl.c ****             }else
1148:.\PrimeImpl.c ****                 pjob->_ppump->PumpTransQueueDeallocate(pjob->_ppump, pts);
 4337              		.loc 1 1148 0
 4338 00d0 7B69     		ldr	r3, [r7, #20]
 4339 00d2 DB69     		ldr	r3, [r3, #28]
 4340 00d4 D3F8243B 		ldr	r3, [r3, #2852]
 4341 00d8 7A69     		ldr	r2, [r7, #20]
 4342 00da D269     		ldr	r2, [r2, #28]
 4343 00dc 1046     		mov	r0, r2
 4344 00de 3969     		ldr	r1, [r7, #16]
 4345 00e0 9847     		blx	r3
 4346              	.L155:
 4347              	.LBE25:
 4348              	.LBE24:
1149:.\PrimeImpl.c ****         }
1150:.\PrimeImpl.c ****     }
1151:.\PrimeImpl.c **** }
 4349              		.loc 1 1151 0
 4350 00e2 1837     		adds	r7, r7, #24
 4351              		.cfi_def_cfa_offset 8
 4352 00e4 BD46     		mov	sp, r7
 4353              		.cfi_def_cfa_register 13
 4354              		@ sp needed
 4355 00e6 80BD     		pop	{r7, pc}
 4356              		.cfi_endproc
 4357              	.LFE87:
 4358              		.size	PumpCreditPresetNotification, .-PumpCreditPresetNotification
 4359              		.section	.text.PumpFullPresetHose,"ax",%progbits
 4360              		.align	2
 4361              		.global	PumpFullPresetHose
 4362              		.thumb
ARM GAS  C:\Users\RECEPC~1\AppData\Local\Temp\ccvxjDo6.s 			page 98


 4363              		.thumb_func
 4364              		.type	PumpFullPresetHose, %function
 4365              	PumpFullPresetHose:
 4366              	.LFB88:
1152:.\PrimeImpl.c **** 
1153:.\PrimeImpl.c **** //@Created By: HIJH
1154:.\PrimeImpl.c **** //@Septembre de 2016
1155:.\PrimeImpl.c **** ///////////////////////////////////////////////////////////////////////////////////////////////////
1156:.\PrimeImpl.c **** //Preset values will be placed within the SinkMessage's buffer. This is a convention that applies t
1157:.\PrimeImpl.c **** //all of the available transactions. The pump function must deal with this while it is assembling t
1158:.\PrimeImpl.c **** //For this message the data comes as follows:
1159:.\PrimeImpl.c **** // - First byte is the preset type (Volume:1 / Money:2 )
1160:.\PrimeImpl.c **** // - Second byte is the Hose (A:0, B:1, C:2, D:3)
1161:.\PrimeImpl.c **** // - Block of 8 bytes for the preset value
1162:.\PrimeImpl.c **** //This block of data (10 bytes) must be moved to another position within the same buffer (even posi
1163:.\PrimeImpl.c **** void PumpFullPresetHose(void *pparam)
1164:.\PrimeImpl.c **** {
 4367              		.loc 1 1164 0
 4368              		.cfi_startproc
 4369              		@ args = 0, pretend = 0, frame = 32
 4370              		@ frame_needed = 1, uses_anonymous_args = 0
 4371 0000 90B5     		push	{r4, r7, lr}
 4372              		.cfi_def_cfa_offset 12
 4373              		.cfi_offset 4, -12
 4374              		.cfi_offset 7, -8
 4375              		.cfi_offset 14, -4
 4376 0002 89B0     		sub	sp, sp, #36
 4377              		.cfi_def_cfa_offset 48
 4378 0004 00AF     		add	r7, sp, #0
 4379              		.cfi_def_cfa_register 7
 4380 0006 7860     		str	r0, [r7, #4]
1165:.\PrimeImpl.c ****     PNEAR_PUMPPTR ppump = (PNEAR_PUMPPTR)pparam;
 4381              		.loc 1 1165 0
 4382 0008 7B68     		ldr	r3, [r7, #4]
 4383 000a BB61     		str	r3, [r7, #24]
1166:.\PrimeImpl.c ****     if(ppump)
 4384              		.loc 1 1166 0
 4385 000c BB69     		ldr	r3, [r7, #24]
 4386 000e 002B     		cmp	r3, #0
 4387 0010 00F0AC80 		beq	.L158
 4388              	.LBB26:
1167:.\PrimeImpl.c ****     {
1168:.\PrimeImpl.c ****         uint8_t index = 0;        
 4389              		.loc 1 1168 0
 4390 0014 0023     		movs	r3, #0
 4391 0016 FB77     		strb	r3, [r7, #31]
1169:.\PrimeImpl.c ****         PUARTMESSAGEPTR puartdisp = GetUARTMessageSlot(UART_DISPENSER);
 4392              		.loc 1 1169 0
 4393 0018 A220     		movs	r0, #162
 4394 001a FFF7FEFF 		bl	GetUARTMessageSlot
 4395 001e 7861     		str	r0, [r7, #20]
1170:.\PrimeImpl.c ****         memset(ppump->_rxbuffer, 0x00, _PUMP_RX_BUFFER_SIZE_);
 4396              		.loc 1 1170 0
 4397 0020 BB69     		ldr	r3, [r7, #24]
 4398 0022 03F5C473 		add	r3, r3, #392
 4399 0026 1846     		mov	r0, r3
 4400 0028 0021     		movs	r1, #0
ARM GAS  C:\Users\RECEPC~1\AppData\Local\Temp\ccvxjDo6.s 			page 99


 4401 002a 4FF4B472 		mov	r2, #360
 4402 002e FFF7FEFF 		bl	memset
1171:.\PrimeImpl.c ****         if(puartdisp)
 4403              		.loc 1 1171 0
 4404 0032 7B69     		ldr	r3, [r7, #20]
 4405 0034 002B     		cmp	r3, #0
 4406 0036 00F09980 		beq	.L158
 4407              	.LBB27:
1172:.\PrimeImpl.c ****         {
1173:.\PrimeImpl.c **** ///////////////////////////////////////////////////////////////////////////////////////////////////
1174:.\PrimeImpl.c ****             puartdisp->_messagetx[index++] = SOM;
 4408              		.loc 1 1174 0
 4409 003a FB7F     		ldrb	r3, [r7, #31]	@ zero_extendqisi2
 4410 003c 5A1C     		adds	r2, r3, #1
 4411 003e FA77     		strb	r2, [r7, #31]
 4412 0040 1A46     		mov	r2, r3
 4413 0042 7B69     		ldr	r3, [r7, #20]
 4414 0044 1344     		add	r3, r3, r2
 4415 0046 FF22     		movs	r2, #255
 4416 0048 1A71     		strb	r2, [r3, #4]
1175:.\PrimeImpl.c ****             
1176:.\PrimeImpl.c ****             #ifndef PRIME_CASH_SALE_NOHOSE
1177:.\PrimeImpl.c ****             puartdisp->_messagetx[index++] = 0xE1;
1178:.\PrimeImpl.c ****             #endif
1179:.\PrimeImpl.c ****             #ifdef PRIME_CASH_SALE_NOHOSE
1180:.\PrimeImpl.c ****             puartdisp->_messagetx[index++] = 0xE3;
 4417              		.loc 1 1180 0
 4418 004a FB7F     		ldrb	r3, [r7, #31]	@ zero_extendqisi2
 4419 004c 5A1C     		adds	r2, r3, #1
 4420 004e FA77     		strb	r2, [r7, #31]
 4421 0050 1A46     		mov	r2, r3
 4422 0052 7B69     		ldr	r3, [r7, #20]
 4423 0054 1344     		add	r3, r3, r2
 4424 0056 E322     		movs	r2, #227
 4425 0058 1A71     		strb	r2, [r3, #4]
1181:.\PrimeImpl.c ****             #endif
1182:.\PrimeImpl.c ****             
1183:.\PrimeImpl.c ****             ///THIS IS AN APPLIED CONVENTION ===>> 0x0004 INDEX POSITION WITHIN THE PUMP'S BUFFER P
1184:.\PrimeImpl.c ****             ///THESE CODES MUST BE MATCHED OTHERWISE THE LOGIC WILL BREAKUP THE CODE!
1185:.\PrimeImpl.c ****             uint8 transtype = 0xF1;
 4426              		.loc 1 1185 0
 4427 005a F123     		movs	r3, #241
 4428 005c FB74     		strb	r3, [r7, #19]
1186:.\PrimeImpl.c ****             puartdisp->_messagetx[index++] = transtype;//preset type (0xF2 = Money, 0xF1 = Volume)
 4429              		.loc 1 1186 0
 4430 005e FB7F     		ldrb	r3, [r7, #31]	@ zero_extendqisi2
 4431 0060 5A1C     		adds	r2, r3, #1
 4432 0062 FA77     		strb	r2, [r7, #31]
 4433 0064 1A46     		mov	r2, r3
 4434 0066 7B69     		ldr	r3, [r7, #20]
 4435 0068 1344     		add	r3, r3, r2
 4436 006a FA7C     		ldrb	r2, [r7, #19]
 4437 006c 1A71     		strb	r2, [r3, #4]
1187:.\PrimeImpl.c **** 
1188:.\PrimeImpl.c ****             #ifndef PRIME_CASH_SALE_NOHOSE
1189:.\PrimeImpl.c ****             puartdisp->_messagetx[index++] = 0xF6; //Hose Data next
1190:.\PrimeImpl.c ****             ///THIS IS AN APPLIED CONVENTION ===>> 0x0006 INDEX POSITION WITHIN THE PUMP'S BUFFER P
ARM GAS  C:\Users\RECEPC~1\AppData\Local\Temp\ccvxjDo6.s 			page 100


1191:.\PrimeImpl.c ****             ///THESE CODES MUST BE MATCHED OTHERWISE THE LOGIC WILL BREAKUP THE CODE!
1192:.\PrimeImpl.c ****             puartdisp->_messagetx[index++] = (0xE0 | (0x0F & ppump->_trasactionbuffer[GetBufferInde
1193:.\PrimeImpl.c ****             #endif
1194:.\PrimeImpl.c ****             
1195:.\PrimeImpl.c ****             puartdisp->_messagetx[index++] = 0xF8; //Preset Data next
 4438              		.loc 1 1195 0
 4439 006e FB7F     		ldrb	r3, [r7, #31]	@ zero_extendqisi2
 4440 0070 5A1C     		adds	r2, r3, #1
 4441 0072 FA77     		strb	r2, [r7, #31]
 4442 0074 1A46     		mov	r2, r3
 4443 0076 7B69     		ldr	r3, [r7, #20]
 4444 0078 1344     		add	r3, r3, r2
 4445 007a F822     		movs	r2, #248
 4446 007c 1A71     		strb	r2, [r3, #4]
1196:.\PrimeImpl.c ****             //Here we copy the remaining 8 bytes for the preset value
1197:.\PrimeImpl.c ****             ///THIS IS AN APPLIED CONVENTION ===>> 0x0008 INDEX POSITION WITHIN THE PUMP'S BUFFER P
1198:.\PrimeImpl.c ****             ///THESE CODES MUST BE MATCHED OTHERWISE THE LOGIC WILL BREAKUP THE CODE!
1199:.\PrimeImpl.c ****             char8 *ptr = &ppump->_trasactionbuffer[0x0008];
 4447              		.loc 1 1199 0
 4448 007e BB69     		ldr	r3, [r7, #24]
 4449 0080 2833     		adds	r3, r3, #40
 4450 0082 FB60     		str	r3, [r7, #12]
1200:.\PrimeImpl.c ****             if(_g_dispenserlayoutinfo._presetdigits & 0x01)
 4451              		.loc 1 1200 0
 4452 0084 3B4B     		ldr	r3, .L166
 4453 0086 5B7C     		ldrb	r3, [r3, #17]	@ zero_extendqisi2
 4454 0088 03F00103 		and	r3, r3, #1
 4455 008c 002B     		cmp	r3, #0
 4456 008e 07D0     		beq	.L160
1201:.\PrimeImpl.c ****                 B78AD90CF552D9B30A(_PUMP_MAXIMUM_PRESET_GALLONS_, (LPRAWPTR)ptr);
 4457              		.loc 1 1201 0
 4458 0090 40F28A20 		movw	r0, #650
 4459 0094 4FF00001 		mov	r1, #0
 4460 0098 FA68     		ldr	r2, [r7, #12]
 4461 009a FFF7FEFF 		bl	B78AD90CF552D9B30A
 4462 009e 06E0     		b	.L161
 4463              	.L160:
1202:.\PrimeImpl.c ****             else
1203:.\PrimeImpl.c ****                 B78AD90CF552D9B30A(_PUMP_MAXIMUM_PRESET_GALLONS_, (LPRAWPTR)ptr);
 4464              		.loc 1 1203 0
 4465 00a0 40F28A20 		movw	r0, #650
 4466 00a4 4FF00001 		mov	r1, #0
 4467 00a8 FA68     		ldr	r2, [r7, #12]
 4468 00aa FFF7FEFF 		bl	B78AD90CF552D9B30A
 4469              	.L161:
1204:.\PrimeImpl.c **** 
1205:.\PrimeImpl.c ****             PSTRBUFFTOGG(PBYTECAST(&ppump->_trasactionbuffer[0x0008]), 0x08);
 4470              		.loc 1 1205 0
 4471 00ae BB69     		ldr	r3, [r7, #24]
 4472 00b0 2833     		adds	r3, r3, #40
 4473 00b2 1846     		mov	r0, r3
 4474 00b4 0821     		movs	r1, #8
 4475 00b6 FFF7FEFF 		bl	PSTRBUFFTOGG
1206:.\PrimeImpl.c ****             //THIS IS ONLY FOR VOLUME PRESETS
1207:.\PrimeImpl.c ****             if(!ppump->_presetdone)
 4476              		.loc 1 1207 0
 4477 00ba BB69     		ldr	r3, [r7, #24]
ARM GAS  C:\Users\RECEPC~1\AppData\Local\Temp\ccvxjDo6.s 			page 101


 4478 00bc 9B7A     		ldrb	r3, [r3, #10]
 4479 00be DBB2     		uxtb	r3, r3
 4480 00c0 83F00103 		eor	r3, r3, #1
 4481 00c4 DBB2     		uxtb	r3, r3
 4482 00c6 002B     		cmp	r3, #0
 4483 00c8 0BD0     		beq	.L162
1208:.\PrimeImpl.c ****             {
1209:.\PrimeImpl.c ****                 if(transtype == 0xF1) //Volume PRESET, then multiply by 1000
 4484              		.loc 1 1209 0
 4485 00ca FB7C     		ldrb	r3, [r7, #19]	@ zero_extendqisi2
 4486 00cc F12B     		cmp	r3, #241
 4487 00ce 04D1     		bne	.L163
1210:.\PrimeImpl.c ****                     CastVolumeValue(ptr, 0x08);
 4488              		.loc 1 1210 0
 4489 00d0 F868     		ldr	r0, [r7, #12]
 4490 00d2 0821     		movs	r1, #8
 4491 00d4 FFF7FEFF 		bl	CastVolumeValue
 4492 00d8 03E0     		b	.L162
 4493              	.L163:
1211:.\PrimeImpl.c ****                 else
1212:.\PrimeImpl.c ****                     CastMoneyValue(ptr, 0x08);
 4494              		.loc 1 1212 0
 4495 00da F868     		ldr	r0, [r7, #12]
 4496 00dc 0821     		movs	r1, #8
 4497 00de FFF7FEFF 		bl	CastMoneyValue
 4498              	.L162:
1213:.\PrimeImpl.c ****                     
1214:.\PrimeImpl.c ****             }
1215:.\PrimeImpl.c ****                 
1216:.\PrimeImpl.c ****             FOR(uint8 buffndx = 0, buffndx < 8, buffndx++)
 4499              		.loc 1 1216 0
 4500 00e2 0023     		movs	r3, #0
 4501 00e4 BB77     		strb	r3, [r7, #30]
 4502 00e6 16E0     		b	.L164
 4503              	.L165:
1217:.\PrimeImpl.c ****                 puartdisp->_messagetx[index++] = (0xE0 | (0x0F & ptr[7 - buffndx])); //Translate fr
 4504              		.loc 1 1217 0 discriminator 3
 4505 00e8 FB7F     		ldrb	r3, [r7, #31]	@ zero_extendqisi2
 4506 00ea 5A1C     		adds	r2, r3, #1
 4507 00ec FA77     		strb	r2, [r7, #31]
 4508 00ee 1946     		mov	r1, r3
 4509 00f0 BB7F     		ldrb	r3, [r7, #30]	@ zero_extendqisi2
 4510 00f2 C3F10703 		rsb	r3, r3, #7
 4511 00f6 1A46     		mov	r2, r3
 4512 00f8 FB68     		ldr	r3, [r7, #12]
 4513 00fa 1344     		add	r3, r3, r2
 4514 00fc 1B78     		ldrb	r3, [r3]	@ zero_extendqisi2
 4515 00fe 03F00F03 		and	r3, r3, #15
 4516 0102 DBB2     		uxtb	r3, r3
 4517 0104 63F01F03 		orn	r3, r3, #31
 4518 0108 DAB2     		uxtb	r2, r3
 4519 010a 7B69     		ldr	r3, [r7, #20]
 4520 010c 0B44     		add	r3, r3, r1
 4521 010e 1A71     		strb	r2, [r3, #4]
1216:.\PrimeImpl.c ****                 puartdisp->_messagetx[index++] = (0xE0 | (0x0F & ptr[7 - buffndx])); //Translate fr
 4522              		.loc 1 1216 0 discriminator 3
 4523 0110 BB7F     		ldrb	r3, [r7, #30]	@ zero_extendqisi2
ARM GAS  C:\Users\RECEPC~1\AppData\Local\Temp\ccvxjDo6.s 			page 102


 4524 0112 0133     		adds	r3, r3, #1
 4525 0114 BB77     		strb	r3, [r7, #30]
 4526              	.L164:
1216:.\PrimeImpl.c ****                 puartdisp->_messagetx[index++] = (0xE0 | (0x0F & ptr[7 - buffndx])); //Translate fr
 4527              		.loc 1 1216 0 is_stmt 0 discriminator 1
 4528 0116 BB7F     		ldrb	r3, [r7, #30]	@ zero_extendqisi2
 4529 0118 072B     		cmp	r3, #7
 4530 011a E5D9     		bls	.L165
1218:.\PrimeImpl.c **** 
1219:.\PrimeImpl.c **** 
1220:.\PrimeImpl.c ****             ppump->_presetdone = true;
 4531              		.loc 1 1220 0 is_stmt 1
 4532 011c BB69     		ldr	r3, [r7, #24]
 4533 011e 0122     		movs	r2, #1
 4534 0120 9A72     		strb	r2, [r3, #10]
1221:.\PrimeImpl.c **** 
1222:.\PrimeImpl.c ****             puartdisp->_messagetx[index++] = LRCn; //LRC next
 4535              		.loc 1 1222 0
 4536 0122 FB7F     		ldrb	r3, [r7, #31]	@ zero_extendqisi2
 4537 0124 5A1C     		adds	r2, r3, #1
 4538 0126 FA77     		strb	r2, [r7, #31]
 4539 0128 1A46     		mov	r2, r3
 4540 012a 7B69     		ldr	r3, [r7, #20]
 4541 012c 1344     		add	r3, r3, r2
 4542 012e FB22     		movs	r2, #251
 4543 0130 1A71     		strb	r2, [r3, #4]
1223:.\PrimeImpl.c ****             puartdisp->_messagetx[index++] = GetLRC(puartdisp->_messagetx);
 4544              		.loc 1 1223 0
 4545 0132 FB7F     		ldrb	r3, [r7, #31]	@ zero_extendqisi2
 4546 0134 5A1C     		adds	r2, r3, #1
 4547 0136 FA77     		strb	r2, [r7, #31]
 4548 0138 1C46     		mov	r4, r3
 4549 013a 7B69     		ldr	r3, [r7, #20]
 4550 013c 0433     		adds	r3, r3, #4
 4551 013e 1846     		mov	r0, r3
 4552 0140 FFF7FEFF 		bl	GetLRC
 4553 0144 0346     		mov	r3, r0
 4554 0146 1A46     		mov	r2, r3
 4555 0148 7B69     		ldr	r3, [r7, #20]
 4556 014a 2344     		add	r3, r3, r4
 4557 014c 1A71     		strb	r2, [r3, #4]
1224:.\PrimeImpl.c ****             puartdisp->_messagetx[index++] = EOM;
 4558              		.loc 1 1224 0
 4559 014e FB7F     		ldrb	r3, [r7, #31]	@ zero_extendqisi2
 4560 0150 5A1C     		adds	r2, r3, #1
 4561 0152 FA77     		strb	r2, [r7, #31]
 4562 0154 1A46     		mov	r2, r3
 4563 0156 7B69     		ldr	r3, [r7, #20]
 4564 0158 1344     		add	r3, r3, r2
 4565 015a F022     		movs	r2, #240
 4566 015c 1A71     		strb	r2, [r3, #4]
1225:.\PrimeImpl.c **** ///////////////////////////////////////////////////////////////////////////////////////////////////
1226:.\PrimeImpl.c ****             
1227:.\PrimeImpl.c ****             puartdisp->_messagelength = index;
 4567              		.loc 1 1227 0
 4568 015e FB7F     		ldrb	r3, [r7, #31]	@ zero_extendqisi2
 4569 0160 9AB2     		uxth	r2, r3
ARM GAS  C:\Users\RECEPC~1\AppData\Local\Temp\ccvxjDo6.s 			page 103


 4570 0162 7B69     		ldr	r3, [r7, #20]
 4571 0164 5A80     		strh	r2, [r3, #2]	@ movhi
1228:.\PrimeImpl.c ****             puartdisp->_messagestate = PENDING;
 4572              		.loc 1 1228 0
 4573 0166 7B69     		ldr	r3, [r7, #20]
 4574 0168 C222     		movs	r2, #194
 4575 016a 1A70     		strb	r2, [r3]
 4576              	.L158:
 4577              	.LBE27:
 4578              	.LBE26:
1229:.\PrimeImpl.c ****         }
1230:.\PrimeImpl.c ****     }
1231:.\PrimeImpl.c ****     
1232:.\PrimeImpl.c **** }
 4579              		.loc 1 1232 0
 4580 016c 2437     		adds	r7, r7, #36
 4581              		.cfi_def_cfa_offset 12
 4582 016e BD46     		mov	sp, r7
 4583              		.cfi_def_cfa_register 13
 4584              		@ sp needed
 4585 0170 90BD     		pop	{r4, r7, pc}
 4586              	.L167:
 4587 0172 00BF     		.align	2
 4588              	.L166:
 4589 0174 00000000 		.word	_g_dispenserlayoutinfo
 4590              		.cfi_endproc
 4591              	.LFE88:
 4592              		.size	PumpFullPresetHose, .-PumpFullPresetHose
 4593              		.section	.text.PumpFullPresetNoHose,"ax",%progbits
 4594              		.align	2
 4595              		.global	PumpFullPresetNoHose
 4596              		.thumb
 4597              		.thumb_func
 4598              		.type	PumpFullPresetNoHose, %function
 4599              	PumpFullPresetNoHose:
 4600              	.LFB89:
1233:.\PrimeImpl.c **** 
1234:.\PrimeImpl.c **** //@Created By: HIJH
1235:.\PrimeImpl.c **** //@Septembre de 2016
1236:.\PrimeImpl.c **** ///////////////////////////////////////////////////////////////////////////////////////////////////
1237:.\PrimeImpl.c **** //Preset values will be placed within the SinkMessage's buffer. This is a convention that applies t
1238:.\PrimeImpl.c **** //all of the available transactions. The pump function must deal with this while it is assembling t
1239:.\PrimeImpl.c **** //For this message the data comes as follows:
1240:.\PrimeImpl.c **** // - First byte is the preset type (Volume:1 / Money:2 )
1241:.\PrimeImpl.c **** // - Second byte is the Hose (A:0, B:1, C:2, D:3)
1242:.\PrimeImpl.c **** // - Block of 8 bytes for the preset value
1243:.\PrimeImpl.c **** //This block of data (10 bytes) must be moved to another position within the same buffer (even posi
1244:.\PrimeImpl.c **** void PumpFullPresetNoHose(void *pparam)
1245:.\PrimeImpl.c **** {
 4601              		.loc 1 1245 0
 4602              		.cfi_startproc
 4603              		@ args = 0, pretend = 0, frame = 32
 4604              		@ frame_needed = 1, uses_anonymous_args = 0
 4605 0000 90B5     		push	{r4, r7, lr}
 4606              		.cfi_def_cfa_offset 12
 4607              		.cfi_offset 4, -12
 4608              		.cfi_offset 7, -8
ARM GAS  C:\Users\RECEPC~1\AppData\Local\Temp\ccvxjDo6.s 			page 104


 4609              		.cfi_offset 14, -4
 4610 0002 89B0     		sub	sp, sp, #36
 4611              		.cfi_def_cfa_offset 48
 4612 0004 00AF     		add	r7, sp, #0
 4613              		.cfi_def_cfa_register 7
 4614 0006 7860     		str	r0, [r7, #4]
1246:.\PrimeImpl.c ****     PNEAR_PUMPPTR ppump = (PNEAR_PUMPPTR)pparam;
 4615              		.loc 1 1246 0
 4616 0008 7B68     		ldr	r3, [r7, #4]
 4617 000a BB61     		str	r3, [r7, #24]
1247:.\PrimeImpl.c ****     if(ppump)
 4618              		.loc 1 1247 0
 4619 000c BB69     		ldr	r3, [r7, #24]
 4620 000e 002B     		cmp	r3, #0
 4621 0010 00F0B580 		beq	.L168
 4622              	.LBB28:
1248:.\PrimeImpl.c ****     {
1249:.\PrimeImpl.c ****         uint8_t index = 0;        
 4623              		.loc 1 1249 0
 4624 0014 0023     		movs	r3, #0
 4625 0016 FB77     		strb	r3, [r7, #31]
1250:.\PrimeImpl.c ****         PUARTMESSAGEPTR puartdisp = GetUARTMessageSlot(UART_DISPENSER);
 4626              		.loc 1 1250 0
 4627 0018 A220     		movs	r0, #162
 4628 001a FFF7FEFF 		bl	GetUARTMessageSlot
 4629 001e 7861     		str	r0, [r7, #20]
1251:.\PrimeImpl.c ****         memset(ppump->_rxbuffer, 0x00, _PUMP_RX_BUFFER_SIZE_);
 4630              		.loc 1 1251 0
 4631 0020 BB69     		ldr	r3, [r7, #24]
 4632 0022 03F5C473 		add	r3, r3, #392
 4633 0026 1846     		mov	r0, r3
 4634 0028 0021     		movs	r1, #0
 4635 002a 4FF4B472 		mov	r2, #360
 4636 002e FFF7FEFF 		bl	memset
1252:.\PrimeImpl.c ****         if(puartdisp)
 4637              		.loc 1 1252 0
 4638 0032 7B69     		ldr	r3, [r7, #20]
 4639 0034 002B     		cmp	r3, #0
 4640 0036 00F0A280 		beq	.L168
 4641              	.LBB29:
1253:.\PrimeImpl.c ****         {
1254:.\PrimeImpl.c ****             //This is required for the "Temination Handler" that will post the preset to the remote
1255:.\PrimeImpl.c ****             ppump->_trasactionbuffer[0x0004] = 0x0F;
 4642              		.loc 1 1255 0
 4643 003a BB69     		ldr	r3, [r7, #24]
 4644 003c 0F22     		movs	r2, #15
 4645 003e 83F82420 		strb	r2, [r3, #36]
1256:.\PrimeImpl.c **** ///////////////////////////////////////////////////////////////////////////////////////////////////
1257:.\PrimeImpl.c ****             puartdisp->_messagetx[index++] = SOM;
 4646              		.loc 1 1257 0
 4647 0042 FB7F     		ldrb	r3, [r7, #31]	@ zero_extendqisi2
 4648 0044 5A1C     		adds	r2, r3, #1
 4649 0046 FA77     		strb	r2, [r7, #31]
 4650 0048 1A46     		mov	r2, r3
 4651 004a 7B69     		ldr	r3, [r7, #20]
 4652 004c 1344     		add	r3, r3, r2
 4653 004e FF22     		movs	r2, #255
ARM GAS  C:\Users\RECEPC~1\AppData\Local\Temp\ccvxjDo6.s 			page 105


 4654 0050 1A71     		strb	r2, [r3, #4]
1258:.\PrimeImpl.c ****             puartdisp->_messagetx[index++] = 0xE3; //Data Length (n = 1 if F4/F5 is not included)
 4655              		.loc 1 1258 0
 4656 0052 FB7F     		ldrb	r3, [r7, #31]	@ zero_extendqisi2
 4657 0054 5A1C     		adds	r2, r3, #1
 4658 0056 FA77     		strb	r2, [r7, #31]
 4659 0058 1A46     		mov	r2, r3
 4660 005a 7B69     		ldr	r3, [r7, #20]
 4661 005c 1344     		add	r3, r3, r2
 4662 005e E322     		movs	r2, #227
 4663 0060 1A71     		strb	r2, [r3, #4]
1259:.\PrimeImpl.c ****             ///THIS IS AN APPLIED CONVENTION ===>> 0x0004 INDEX POSITION WITHIN THE PUMP'S BUFFER P
1260:.\PrimeImpl.c ****             ///THESE CODES MUST BE MATCHED OTHERWISE THE LOGIC WILL BREAKUP THE CODE!
1261:.\PrimeImpl.c ****             uint8 transtype = 0xF1;
 4664              		.loc 1 1261 0
 4665 0062 F123     		movs	r3, #241
 4666 0064 FB74     		strb	r3, [r7, #19]
1262:.\PrimeImpl.c ****             puartdisp->_messagetx[index++] = transtype;//preset type (0xF2 = Money, 0xF1 = Volume)
 4667              		.loc 1 1262 0
 4668 0066 FB7F     		ldrb	r3, [r7, #31]	@ zero_extendqisi2
 4669 0068 5A1C     		adds	r2, r3, #1
 4670 006a FA77     		strb	r2, [r7, #31]
 4671 006c 1A46     		mov	r2, r3
 4672 006e 7B69     		ldr	r3, [r7, #20]
 4673 0070 1344     		add	r3, r3, r2
 4674 0072 FA7C     		ldrb	r2, [r7, #19]
 4675 0074 1A71     		strb	r2, [r3, #4]
1263:.\PrimeImpl.c ****             //puartdisp->_messagetx[index++] = 0xF2;//preset type (0xF2 = Money, 0xF1 = Volume)
1264:.\PrimeImpl.c ****             
1265:.\PrimeImpl.c ****             puartdisp->_messagetx[index++] = 0xF8; //Preset Data next
 4676              		.loc 1 1265 0
 4677 0076 FB7F     		ldrb	r3, [r7, #31]	@ zero_extendqisi2
 4678 0078 5A1C     		adds	r2, r3, #1
 4679 007a FA77     		strb	r2, [r7, #31]
 4680 007c 1A46     		mov	r2, r3
 4681 007e 7B69     		ldr	r3, [r7, #20]
 4682 0080 1344     		add	r3, r3, r2
 4683 0082 F822     		movs	r2, #248
 4684 0084 1A71     		strb	r2, [r3, #4]
1266:.\PrimeImpl.c ****             //Here we copy the remaining 8 bytes for the preset value
1267:.\PrimeImpl.c ****             ///THIS IS AN APPLIED CONVENTION ===>> 0x0008 INDEX POSITION WITHIN THE PUMP'S BUFFER P
1268:.\PrimeImpl.c ****             ///THESE CODES MUST BE MATCHED OTHERWISE THE LOGIC WILL BREAKUP THE CODE!
1269:.\PrimeImpl.c ****             char8 *ptr = &ppump->_trasactionbuffer[0x0008];
 4685              		.loc 1 1269 0
 4686 0086 BB69     		ldr	r3, [r7, #24]
 4687 0088 2833     		adds	r3, r3, #40
 4688 008a FB60     		str	r3, [r7, #12]
1270:.\PrimeImpl.c ****             if(_g_dispenserlayoutinfo._presetdigits & 0x01)
 4689              		.loc 1 1270 0
 4690 008c 3D4B     		ldr	r3, .L176
 4691 008e 5B7C     		ldrb	r3, [r3, #17]	@ zero_extendqisi2
 4692 0090 03F00103 		and	r3, r3, #1
 4693 0094 002B     		cmp	r3, #0
 4694 0096 07D0     		beq	.L170
1271:.\PrimeImpl.c ****                 //B78AD90CF552D9B30A(_PUMP_MAXIMUM_PRESET_7_DIGITS_, (LPRAWPTR)ptr);
1272:.\PrimeImpl.c ****                 B78AD90CF552D9B30A(_PUMP_MAXIMUM_PRESET_GALLONS_, (LPRAWPTR)ptr);
 4695              		.loc 1 1272 0
ARM GAS  C:\Users\RECEPC~1\AppData\Local\Temp\ccvxjDo6.s 			page 106


 4696 0098 40F28A20 		movw	r0, #650
 4697 009c 4FF00001 		mov	r1, #0
 4698 00a0 FA68     		ldr	r2, [r7, #12]
 4699 00a2 FFF7FEFF 		bl	B78AD90CF552D9B30A
 4700 00a6 06E0     		b	.L171
 4701              	.L170:
1273:.\PrimeImpl.c ****             else
1274:.\PrimeImpl.c ****                 //B78AD90CF552D9B30A(_PUMP_MAXIMUM_PRESET_6_DIGITS_, (LPRAWPTR)ptr);
1275:.\PrimeImpl.c ****                 B78AD90CF552D9B30A(_PUMP_MAXIMUM_PRESET_GALLONS_, (LPRAWPTR)ptr);
 4702              		.loc 1 1275 0
 4703 00a8 40F28A20 		movw	r0, #650
 4704 00ac 4FF00001 		mov	r1, #0
 4705 00b0 FA68     		ldr	r2, [r7, #12]
 4706 00b2 FFF7FEFF 		bl	B78AD90CF552D9B30A
 4707              	.L171:
1276:.\PrimeImpl.c **** 
1277:.\PrimeImpl.c ****             PSTRBUFFTOGG(PBYTECAST(&ppump->_trasactionbuffer[0x0008]), 0x08);
 4708              		.loc 1 1277 0
 4709 00b6 BB69     		ldr	r3, [r7, #24]
 4710 00b8 2833     		adds	r3, r3, #40
 4711 00ba 1846     		mov	r0, r3
 4712 00bc 0821     		movs	r1, #8
 4713 00be FFF7FEFF 		bl	PSTRBUFFTOGG
1278:.\PrimeImpl.c ****             //THIS IS ONLY FOR VOLUME PRESETS
1279:.\PrimeImpl.c ****             if(!ppump->_presetdone)
 4714              		.loc 1 1279 0
 4715 00c2 BB69     		ldr	r3, [r7, #24]
 4716 00c4 9B7A     		ldrb	r3, [r3, #10]
 4717 00c6 DBB2     		uxtb	r3, r3
 4718 00c8 83F00103 		eor	r3, r3, #1
 4719 00cc DBB2     		uxtb	r3, r3
 4720 00ce 002B     		cmp	r3, #0
 4721 00d0 0BD0     		beq	.L172
1280:.\PrimeImpl.c ****             {
1281:.\PrimeImpl.c ****                 if(transtype == 0xF1) //Volume PRESET, then multiply by 1000
 4722              		.loc 1 1281 0
 4723 00d2 FB7C     		ldrb	r3, [r7, #19]	@ zero_extendqisi2
 4724 00d4 F12B     		cmp	r3, #241
 4725 00d6 04D1     		bne	.L173
1282:.\PrimeImpl.c ****                     CastVolumeValue(ptr, 0x08);
 4726              		.loc 1 1282 0
 4727 00d8 F868     		ldr	r0, [r7, #12]
 4728 00da 0821     		movs	r1, #8
 4729 00dc FFF7FEFF 		bl	CastVolumeValue
 4730 00e0 03E0     		b	.L172
 4731              	.L173:
1283:.\PrimeImpl.c ****                 else
1284:.\PrimeImpl.c ****                     CastMoneyValue(ptr, 0x08);
 4732              		.loc 1 1284 0
 4733 00e2 F868     		ldr	r0, [r7, #12]
 4734 00e4 0821     		movs	r1, #8
 4735 00e6 FFF7FEFF 		bl	CastMoneyValue
 4736              	.L172:
1285:.\PrimeImpl.c ****                     
1286:.\PrimeImpl.c ****             }
1287:.\PrimeImpl.c ****             ppump->_presetdone = true;
 4737              		.loc 1 1287 0
ARM GAS  C:\Users\RECEPC~1\AppData\Local\Temp\ccvxjDo6.s 			page 107


 4738 00ea BB69     		ldr	r3, [r7, #24]
 4739 00ec 0122     		movs	r2, #1
 4740 00ee 9A72     		strb	r2, [r3, #10]
1288:.\PrimeImpl.c **** 
1289:.\PrimeImpl.c ****             FOR(uint8 buffndx = 0, buffndx < 8, buffndx++)
 4741              		.loc 1 1289 0
 4742 00f0 0023     		movs	r3, #0
 4743 00f2 BB77     		strb	r3, [r7, #30]
 4744 00f4 18E0     		b	.L174
 4745              	.L175:
1290:.\PrimeImpl.c ****                 puartdisp->_messagetx[index++] = (0xE0 | (ptr[7 - buffndx] & 0x0F)); //Translate fr
 4746              		.loc 1 1290 0 discriminator 3
 4747 00f6 FB7F     		ldrb	r3, [r7, #31]	@ zero_extendqisi2
 4748 00f8 5A1C     		adds	r2, r3, #1
 4749 00fa FA77     		strb	r2, [r7, #31]
 4750 00fc 1946     		mov	r1, r3
 4751 00fe BB7F     		ldrb	r3, [r7, #30]	@ zero_extendqisi2
 4752 0100 C3F10703 		rsb	r3, r3, #7
 4753 0104 1A46     		mov	r2, r3
 4754 0106 FB68     		ldr	r3, [r7, #12]
 4755 0108 1344     		add	r3, r3, r2
 4756 010a 1B78     		ldrb	r3, [r3]	@ zero_extendqisi2
 4757 010c DBB2     		uxtb	r3, r3
 4758 010e 03F00F03 		and	r3, r3, #15
 4759 0112 DBB2     		uxtb	r3, r3
 4760 0114 63F01F03 		orn	r3, r3, #31
 4761 0118 DBB2     		uxtb	r3, r3
 4762 011a DAB2     		uxtb	r2, r3
 4763 011c 7B69     		ldr	r3, [r7, #20]
 4764 011e 0B44     		add	r3, r3, r1
 4765 0120 1A71     		strb	r2, [r3, #4]
1289:.\PrimeImpl.c ****                 puartdisp->_messagetx[index++] = (0xE0 | (ptr[7 - buffndx] & 0x0F)); //Translate fr
 4766              		.loc 1 1289 0 discriminator 3
 4767 0122 BB7F     		ldrb	r3, [r7, #30]	@ zero_extendqisi2
 4768 0124 0133     		adds	r3, r3, #1
 4769 0126 BB77     		strb	r3, [r7, #30]
 4770              	.L174:
1289:.\PrimeImpl.c ****                 puartdisp->_messagetx[index++] = (0xE0 | (ptr[7 - buffndx] & 0x0F)); //Translate fr
 4771              		.loc 1 1289 0 is_stmt 0 discriminator 1
 4772 0128 BB7F     		ldrb	r3, [r7, #30]	@ zero_extendqisi2
 4773 012a 072B     		cmp	r3, #7
 4774 012c E3D9     		bls	.L175
1291:.\PrimeImpl.c **** 
1292:.\PrimeImpl.c ****             ppump->_presetdone = true;
 4775              		.loc 1 1292 0 is_stmt 1
 4776 012e BB69     		ldr	r3, [r7, #24]
 4777 0130 0122     		movs	r2, #1
 4778 0132 9A72     		strb	r2, [r3, #10]
1293:.\PrimeImpl.c **** 
1294:.\PrimeImpl.c ****             puartdisp->_messagetx[index++] = 0xFB; //LRC next
 4779              		.loc 1 1294 0
 4780 0134 FB7F     		ldrb	r3, [r7, #31]	@ zero_extendqisi2
 4781 0136 5A1C     		adds	r2, r3, #1
 4782 0138 FA77     		strb	r2, [r7, #31]
 4783 013a 1A46     		mov	r2, r3
 4784 013c 7B69     		ldr	r3, [r7, #20]
 4785 013e 1344     		add	r3, r3, r2
ARM GAS  C:\Users\RECEPC~1\AppData\Local\Temp\ccvxjDo6.s 			page 108


 4786 0140 FB22     		movs	r2, #251
 4787 0142 1A71     		strb	r2, [r3, #4]
1295:.\PrimeImpl.c ****             puartdisp->_messagetx[index++] = GetLRC(puartdisp->_messagetx);
 4788              		.loc 1 1295 0
 4789 0144 FB7F     		ldrb	r3, [r7, #31]	@ zero_extendqisi2
 4790 0146 5A1C     		adds	r2, r3, #1
 4791 0148 FA77     		strb	r2, [r7, #31]
 4792 014a 1C46     		mov	r4, r3
 4793 014c 7B69     		ldr	r3, [r7, #20]
 4794 014e 0433     		adds	r3, r3, #4
 4795 0150 1846     		mov	r0, r3
 4796 0152 FFF7FEFF 		bl	GetLRC
 4797 0156 0346     		mov	r3, r0
 4798 0158 1A46     		mov	r2, r3
 4799 015a 7B69     		ldr	r3, [r7, #20]
 4800 015c 2344     		add	r3, r3, r4
 4801 015e 1A71     		strb	r2, [r3, #4]
1296:.\PrimeImpl.c ****             puartdisp->_messagetx[index++] = EOM;
 4802              		.loc 1 1296 0
 4803 0160 FB7F     		ldrb	r3, [r7, #31]	@ zero_extendqisi2
 4804 0162 5A1C     		adds	r2, r3, #1
 4805 0164 FA77     		strb	r2, [r7, #31]
 4806 0166 1A46     		mov	r2, r3
 4807 0168 7B69     		ldr	r3, [r7, #20]
 4808 016a 1344     		add	r3, r3, r2
 4809 016c F022     		movs	r2, #240
 4810 016e 1A71     		strb	r2, [r3, #4]
1297:.\PrimeImpl.c **** ///////////////////////////////////////////////////////////////////////////////////////////////////
1298:.\PrimeImpl.c ****             
1299:.\PrimeImpl.c ****             puartdisp->_messagelength = index;
 4811              		.loc 1 1299 0
 4812 0170 FB7F     		ldrb	r3, [r7, #31]	@ zero_extendqisi2
 4813 0172 9AB2     		uxth	r2, r3
 4814 0174 7B69     		ldr	r3, [r7, #20]
 4815 0176 5A80     		strh	r2, [r3, #2]	@ movhi
1300:.\PrimeImpl.c ****             puartdisp->_messagestate = PENDING;
 4816              		.loc 1 1300 0
 4817 0178 7B69     		ldr	r3, [r7, #20]
 4818 017a C222     		movs	r2, #194
 4819 017c 1A70     		strb	r2, [r3]
 4820              	.L168:
 4821              	.LBE29:
 4822              	.LBE28:
1301:.\PrimeImpl.c ****         }
1302:.\PrimeImpl.c ****     }
1303:.\PrimeImpl.c ****     
1304:.\PrimeImpl.c **** }
 4823              		.loc 1 1304 0
 4824 017e 2437     		adds	r7, r7, #36
 4825              		.cfi_def_cfa_offset 12
 4826 0180 BD46     		mov	sp, r7
 4827              		.cfi_def_cfa_register 13
 4828              		@ sp needed
 4829 0182 90BD     		pop	{r4, r7, pc}
 4830              	.L177:
 4831              		.align	2
 4832              	.L176:
ARM GAS  C:\Users\RECEPC~1\AppData\Local\Temp\ccvxjDo6.s 			page 109


 4833 0184 00000000 		.word	_g_dispenserlayoutinfo
 4834              		.cfi_endproc
 4835              	.LFE89:
 4836              		.size	PumpFullPresetNoHose, .-PumpFullPresetNoHose
 4837              		.section	.text.PumpPpuChange,"ax",%progbits
 4838              		.align	2
 4839              		.global	PumpPpuChange
 4840              		.thumb
 4841              		.thumb_func
 4842              		.type	PumpPpuChange, %function
 4843              	PumpPpuChange:
 4844              	.LFB90:
1305:.\PrimeImpl.c **** 
1306:.\PrimeImpl.c **** //@Created By: HIJH
1307:.\PrimeImpl.c **** //@Septembre de 2016
1308:.\PrimeImpl.c **** ///////////////////////////////////////////////////////////////////////////////////////////////////
1309:.\PrimeImpl.c **** //PPU value will be placed within the SinkMessage's buffer. This is a convention that applies to 
1310:.\PrimeImpl.c **** //all of the available transactions. The pump function must deal with this while it is assembling t
1311:.\PrimeImpl.c **** //For this message the data comes as follows:
1312:.\PrimeImpl.c **** // - First byte is the Hose (A:0, B:1, C:2, D:3)
1313:.\PrimeImpl.c **** // - Block of 6 bytes for the PPU value
1314:.\PrimeImpl.c **** //This block of data (6 bytes) must be moved to another position within the same buffer (even posit
1315:.\PrimeImpl.c **** void PumpPpuChange(void *pparam)
1316:.\PrimeImpl.c **** {
 4845              		.loc 1 1316 0
 4846              		.cfi_startproc
 4847              		@ args = 0, pretend = 0, frame = 32
 4848              		@ frame_needed = 1, uses_anonymous_args = 0
 4849 0000 B0B5     		push	{r4, r5, r7, lr}
 4850              		.cfi_def_cfa_offset 16
 4851              		.cfi_offset 4, -16
 4852              		.cfi_offset 5, -12
 4853              		.cfi_offset 7, -8
 4854              		.cfi_offset 14, -4
 4855 0002 88B0     		sub	sp, sp, #32
 4856              		.cfi_def_cfa_offset 48
 4857 0004 00AF     		add	r7, sp, #0
 4858              		.cfi_def_cfa_register 7
 4859 0006 7860     		str	r0, [r7, #4]
1317:.\PrimeImpl.c ****     PNEAR_PUMPPTR ppump = (PNEAR_PUMPPTR)pparam;
 4860              		.loc 1 1317 0
 4861 0008 7B68     		ldr	r3, [r7, #4]
 4862 000a BB61     		str	r3, [r7, #24]
1318:.\PrimeImpl.c ****     if(ppump)
 4863              		.loc 1 1318 0
 4864 000c BB69     		ldr	r3, [r7, #24]
 4865 000e 002B     		cmp	r3, #0
 4866 0010 00F02281 		beq	.L178
 4867              	.LBB30:
1319:.\PrimeImpl.c ****     {
1320:.\PrimeImpl.c ****         uint8_t index = 0;  
 4868              		.loc 1 1320 0
 4869 0014 0023     		movs	r3, #0
 4870 0016 FB77     		strb	r3, [r7, #31]
1321:.\PrimeImpl.c ****         memset(ppump->_rxbuffer, 0x00, _PUMP_RX_BUFFER_SIZE_);
 4871              		.loc 1 1321 0
 4872 0018 BB69     		ldr	r3, [r7, #24]
ARM GAS  C:\Users\RECEPC~1\AppData\Local\Temp\ccvxjDo6.s 			page 110


 4873 001a 03F5C473 		add	r3, r3, #392
 4874 001e 1846     		mov	r0, r3
 4875 0020 0021     		movs	r1, #0
 4876 0022 4FF4B472 		mov	r2, #360
 4877 0026 FFF7FEFF 		bl	memset
1322:.\PrimeImpl.c ****         PUARTMESSAGEPTR puartdisp = GetUARTMessageSlot(UART_DISPENSER);
 4878              		.loc 1 1322 0
 4879 002a A220     		movs	r0, #162
 4880 002c FFF7FEFF 		bl	GetUARTMessageSlot
 4881 0030 7861     		str	r0, [r7, #20]
1323:.\PrimeImpl.c ****         if(puartdisp)
 4882              		.loc 1 1323 0
 4883 0032 7B69     		ldr	r3, [r7, #20]
 4884 0034 002B     		cmp	r3, #0
 4885 0036 00F00F81 		beq	.L178
 4886              	.LBB31:
1324:.\PrimeImpl.c ****         {
1325:.\PrimeImpl.c **** ///////////////////////////////////////////////////////////////////////////////////////////////////
1326:.\PrimeImpl.c ****             puartdisp->_messagetx[index++] = SOM;
 4887              		.loc 1 1326 0
 4888 003a FB7F     		ldrb	r3, [r7, #31]	@ zero_extendqisi2
 4889 003c 5A1C     		adds	r2, r3, #1
 4890 003e FA77     		strb	r2, [r7, #31]
 4891 0040 1A46     		mov	r2, r3
 4892 0042 7B69     		ldr	r3, [r7, #20]
 4893 0044 1344     		add	r3, r3, r2
 4894 0046 FF22     		movs	r2, #255
 4895 0048 1A71     		strb	r2, [r3, #4]
1327:.\PrimeImpl.c ****             puartdisp->_messagetx[index++] = 0xE3; //Not used. The Pump will ignore.
 4896              		.loc 1 1327 0
 4897 004a FB7F     		ldrb	r3, [r7, #31]	@ zero_extendqisi2
 4898 004c 5A1C     		adds	r2, r3, #1
 4899 004e FA77     		strb	r2, [r7, #31]
 4900 0050 1A46     		mov	r2, r3
 4901 0052 7B69     		ldr	r3, [r7, #20]
 4902 0054 1344     		add	r3, r3, r2
 4903 0056 E322     		movs	r2, #227
 4904 0058 1A71     		strb	r2, [r3, #4]
1328:.\PrimeImpl.c ****             puartdisp->_messagetx[index++] = 0xF4; //Not used. The Pump will ignore.
 4905              		.loc 1 1328 0
 4906 005a FB7F     		ldrb	r3, [r7, #31]	@ zero_extendqisi2
 4907 005c 5A1C     		adds	r2, r3, #1
 4908 005e FA77     		strb	r2, [r7, #31]
 4909 0060 1A46     		mov	r2, r3
 4910 0062 7B69     		ldr	r3, [r7, #20]
 4911 0064 1344     		add	r3, r3, r2
 4912 0066 F422     		movs	r2, #244
 4913 0068 1A71     		strb	r2, [r3, #4]
1329:.\PrimeImpl.c ****             puartdisp->_messagetx[index++] = 0xF6; //Hose Data next
 4914              		.loc 1 1329 0
 4915 006a FB7F     		ldrb	r3, [r7, #31]	@ zero_extendqisi2
 4916 006c 5A1C     		adds	r2, r3, #1
 4917 006e FA77     		strb	r2, [r7, #31]
 4918 0070 1A46     		mov	r2, r3
 4919 0072 7B69     		ldr	r3, [r7, #20]
 4920 0074 1344     		add	r3, r3, r2
 4921 0076 F622     		movs	r2, #246
ARM GAS  C:\Users\RECEPC~1\AppData\Local\Temp\ccvxjDo6.s 			page 111


 4922 0078 1A71     		strb	r2, [r3, #4]
1330:.\PrimeImpl.c ****             
1331:.\PrimeImpl.c ****             ///THIS IS AN APPLIED CONVENTION ===>> 0x0006 INDEX POSITION WITHIN THE PUMP'S BUFFER P
1332:.\PrimeImpl.c ****             ///THESE CODES MUST BE MATCHED OTHERWISE THE LOGIC WILL BREAKUP THE CODE!
1333:.\PrimeImpl.c ****             puartdisp->_messagetx[index++] = (0xE0 | (0x0F & ppump->_currenthose));
 4923              		.loc 1 1333 0
 4924 007a FB7F     		ldrb	r3, [r7, #31]	@ zero_extendqisi2
 4925 007c 5A1C     		adds	r2, r3, #1
 4926 007e FA77     		strb	r2, [r7, #31]
 4927 0080 1946     		mov	r1, r3
 4928 0082 BB69     		ldr	r3, [r7, #24]
 4929 0084 DB78     		ldrb	r3, [r3, #3]
 4930 0086 DBB2     		uxtb	r3, r3
 4931 0088 03F00F03 		and	r3, r3, #15
 4932 008c DBB2     		uxtb	r3, r3
 4933 008e 63F01F03 		orn	r3, r3, #31
 4934 0092 DAB2     		uxtb	r2, r3
 4935 0094 7B69     		ldr	r3, [r7, #20]
 4936 0096 0B44     		add	r3, r3, r1
 4937 0098 1A71     		strb	r2, [r3, #4]
1334:.\PrimeImpl.c ****             
1335:.\PrimeImpl.c ****             I2CBusLock();
 4938              		.loc 1 1335 0
 4939 009a FFF7FEFF 		bl	I2CBusLock
1336:.\PrimeImpl.c ****             ClearEepromBuffer();
 4940              		.loc 1 1336 0
 4941 009e FFF7FEFF 		bl	ClearEepromBuffer
1337:.\PrimeImpl.c ****             uint16 eeprompage = DispenserGetEepromPPUPageFromPumpID(ppump->_pumpid);
 4942              		.loc 1 1337 0
 4943 00a2 BB69     		ldr	r3, [r7, #24]
 4944 00a4 1B78     		ldrb	r3, [r3]	@ zero_extendqisi2
 4945 00a6 1846     		mov	r0, r3
 4946 00a8 FFF7FEFF 		bl	DispenserGetEepromPPUPageFromPumpID
 4947 00ac 0346     		mov	r3, r0
 4948 00ae 7B82     		strh	r3, [r7, #18]	@ movhi
1338:.\PrimeImpl.c ****             LoadEepromPage(eeprompage);
 4949              		.loc 1 1338 0
 4950 00b0 7B8A     		ldrh	r3, [r7, #18]
 4951 00b2 1846     		mov	r0, r3
 4952 00b4 FFF7FEFF 		bl	LoadEepromPage
1339:.\PrimeImpl.c ****             switch(ppump->_currenthose)
 4953              		.loc 1 1339 0
 4954 00b8 BB69     		ldr	r3, [r7, #24]
 4955 00ba DB78     		ldrb	r3, [r3, #3]
 4956 00bc DBB2     		uxtb	r3, r3
 4957 00be 032B     		cmp	r3, #3
 4958 00c0 60D8     		bhi	.L180
 4959 00c2 01A2     		adr	r2, .L182
 4960 00c4 52F823F0 		ldr	pc, [r2, r3, lsl #2]
 4961              		.p2align 2
 4962              	.L182:
 4963 00c8 D9000000 		.word	.L181+1
 4964 00cc 01010000 		.word	.L183+1
 4965 00d0 2D010000 		.word	.L184+1
 4966 00d4 59010000 		.word	.L185+1
 4967              		.p2align 1
 4968              	.L181:
ARM GAS  C:\Users\RECEPC~1\AppData\Local\Temp\ccvxjDo6.s 			page 112


1340:.\PrimeImpl.c ****             {
1341:.\PrimeImpl.c ****                 case 0x00:
1342:.\PrimeImpl.c ****                 //Six bytes only since the PPU is constrained to this length
1343:.\PrimeImpl.c ****                 memcpy(PBYTECAST(&ppump->_trasactionbuffer[GetBufferIndexFromDisplayID(DISPLAY_PREC
 4969              		.loc 1 1343 0
 4970 00d8 6520     		movs	r0, #101
 4971 00da FFF7FEFF 		bl	GetBufferIndexFromDisplayID
 4972 00de 0346     		mov	r3, r0
 4973 00e0 2033     		adds	r3, r3, #32
 4974 00e2 BA69     		ldr	r2, [r7, #24]
 4975 00e4 D418     		adds	r4, r2, r3
 4976 00e6 FFF7FEFF 		bl	GetEepromBuffer
 4977 00ea 0546     		mov	r5, r0
 4978 00ec 6520     		movs	r0, #101
 4979 00ee FFF7FEFF 		bl	GetBufferLengthFromDisplayID
 4980 00f2 0346     		mov	r3, r0
 4981 00f4 2046     		mov	r0, r4
 4982 00f6 2946     		mov	r1, r5
 4983 00f8 1A46     		mov	r2, r3
 4984 00fa FFF7FEFF 		bl	memcpy
1344:.\PrimeImpl.c ****                 break;
 4985              		.loc 1 1344 0
 4986 00fe 41E0     		b	.L180
 4987              	.L183:
1345:.\PrimeImpl.c ****                 case 0x01:
1346:.\PrimeImpl.c ****                 //Six bytes only since the PPU is constrained to this length
1347:.\PrimeImpl.c ****                 memcpy(PBYTECAST(&ppump->_trasactionbuffer[GetBufferIndexFromDisplayID(DISPLAY_PREC
 4988              		.loc 1 1347 0
 4989 0100 6520     		movs	r0, #101
 4990 0102 FFF7FEFF 		bl	GetBufferIndexFromDisplayID
 4991 0106 0346     		mov	r3, r0
 4992 0108 2033     		adds	r3, r3, #32
 4993 010a BA69     		ldr	r2, [r7, #24]
 4994 010c D518     		adds	r5, r2, r3
 4995 010e FFF7FEFF 		bl	GetEepromBuffer
 4996 0112 0346     		mov	r3, r0
 4997 0114 03F11004 		add	r4, r3, #16
 4998 0118 6520     		movs	r0, #101
 4999 011a FFF7FEFF 		bl	GetBufferLengthFromDisplayID
 5000 011e 0346     		mov	r3, r0
 5001 0120 2846     		mov	r0, r5
 5002 0122 2146     		mov	r1, r4
 5003 0124 1A46     		mov	r2, r3
 5004 0126 FFF7FEFF 		bl	memcpy
1348:.\PrimeImpl.c ****                 break;
 5005              		.loc 1 1348 0
 5006 012a 2BE0     		b	.L180
 5007              	.L184:
1349:.\PrimeImpl.c ****                 case 0x02:
1350:.\PrimeImpl.c ****                 //Six bytes only since the PPU is constrained to this length
1351:.\PrimeImpl.c ****                 memcpy(PBYTECAST(&ppump->_trasactionbuffer[GetBufferIndexFromDisplayID(DISPLAY_PREC
 5008              		.loc 1 1351 0
 5009 012c 6520     		movs	r0, #101
 5010 012e FFF7FEFF 		bl	GetBufferIndexFromDisplayID
 5011 0132 0346     		mov	r3, r0
 5012 0134 2033     		adds	r3, r3, #32
 5013 0136 BA69     		ldr	r2, [r7, #24]
ARM GAS  C:\Users\RECEPC~1\AppData\Local\Temp\ccvxjDo6.s 			page 113


 5014 0138 D518     		adds	r5, r2, r3
 5015 013a FFF7FEFF 		bl	GetEepromBuffer
 5016 013e 0346     		mov	r3, r0
 5017 0140 03F12004 		add	r4, r3, #32
 5018 0144 6520     		movs	r0, #101
 5019 0146 FFF7FEFF 		bl	GetBufferLengthFromDisplayID
 5020 014a 0346     		mov	r3, r0
 5021 014c 2846     		mov	r0, r5
 5022 014e 2146     		mov	r1, r4
 5023 0150 1A46     		mov	r2, r3
 5024 0152 FFF7FEFF 		bl	memcpy
1352:.\PrimeImpl.c ****                 break;
 5025              		.loc 1 1352 0
 5026 0156 15E0     		b	.L180
 5027              	.L185:
1353:.\PrimeImpl.c ****                 case 0x03:
1354:.\PrimeImpl.c ****                 //Six bytes only since the PPU is constrained to this length
1355:.\PrimeImpl.c ****                 memcpy(PBYTECAST(&ppump->_trasactionbuffer[GetBufferIndexFromDisplayID(DISPLAY_PREC
 5028              		.loc 1 1355 0
 5029 0158 6520     		movs	r0, #101
 5030 015a FFF7FEFF 		bl	GetBufferIndexFromDisplayID
 5031 015e 0346     		mov	r3, r0
 5032 0160 2033     		adds	r3, r3, #32
 5033 0162 BA69     		ldr	r2, [r7, #24]
 5034 0164 D518     		adds	r5, r2, r3
 5035 0166 FFF7FEFF 		bl	GetEepromBuffer
 5036 016a 0346     		mov	r3, r0
 5037 016c 03F13004 		add	r4, r3, #48
 5038 0170 6520     		movs	r0, #101
 5039 0172 FFF7FEFF 		bl	GetBufferLengthFromDisplayID
 5040 0176 0346     		mov	r3, r0
 5041 0178 2846     		mov	r0, r5
 5042 017a 2146     		mov	r1, r4
 5043 017c 1A46     		mov	r2, r3
 5044 017e FFF7FEFF 		bl	memcpy
1356:.\PrimeImpl.c ****                 break;
 5045              		.loc 1 1356 0
 5046 0182 00BF     		nop
 5047              	.L180:
1357:.\PrimeImpl.c ****             }
1358:.\PrimeImpl.c ****             I2CBusUnlock();
 5048              		.loc 1 1358 0
 5049 0184 FFF7FEFF 		bl	I2CBusUnlock
1359:.\PrimeImpl.c **** 
1360:.\PrimeImpl.c ****             puartdisp->_messagetx[index++] = 0xF7; //PPU Data next            
 5050              		.loc 1 1360 0
 5051 0188 FB7F     		ldrb	r3, [r7, #31]	@ zero_extendqisi2
 5052 018a 5A1C     		adds	r2, r3, #1
 5053 018c FA77     		strb	r2, [r7, #31]
 5054 018e 1A46     		mov	r2, r3
 5055 0190 7B69     		ldr	r3, [r7, #20]
 5056 0192 1344     		add	r3, r3, r2
 5057 0194 F722     		movs	r2, #247
 5058 0196 1A71     		strb	r2, [r3, #4]
1361:.\PrimeImpl.c ****             //Here we copy the remaining 6 bytes for the preset value
1362:.\PrimeImpl.c ****             ///THIS IS AN APPLIED CONVENTION ===>> 0x0008 INDEX POSITION WITHIN THE PUMP'S BUFFER P
1363:.\PrimeImpl.c ****             ///THESE CODES MUST BE MATCHED OTHERWISE THE LOGIC WILL BREAKUP THE CODE!
ARM GAS  C:\Users\RECEPC~1\AppData\Local\Temp\ccvxjDo6.s 			page 114


1364:.\PrimeImpl.c ****             uint8 bufferlength = GetBufferLengthFromDisplayID(DISPLAY_PRECIO_POR_UNIDAD);
 5059              		.loc 1 1364 0
 5060 0198 6520     		movs	r0, #101
 5061 019a FFF7FEFF 		bl	GetBufferLengthFromDisplayID
 5062 019e 0346     		mov	r3, r0
 5063 01a0 7B74     		strb	r3, [r7, #17]
1365:.\PrimeImpl.c ****             char8 *ptr = &ppump->_trasactionbuffer[GetBufferIndexFromDisplayID(DISPLAY_PRECIO_POR_U
 5064              		.loc 1 1365 0
 5065 01a2 6520     		movs	r0, #101
 5066 01a4 FFF7FEFF 		bl	GetBufferIndexFromDisplayID
 5067 01a8 0346     		mov	r3, r0
 5068 01aa 2033     		adds	r3, r3, #32
 5069 01ac BA69     		ldr	r2, [r7, #24]
 5070 01ae 1344     		add	r3, r3, r2
 5071 01b0 FB60     		str	r3, [r7, #12]
1366:.\PrimeImpl.c ****             uint8 buffndx = 0;
 5072              		.loc 1 1366 0
 5073 01b2 0023     		movs	r3, #0
 5074 01b4 BB77     		strb	r3, [r7, #30]
1367:.\PrimeImpl.c ****             for(; buffndx < 6; buffndx++)
 5075              		.loc 1 1367 0
 5076 01b6 13E0     		b	.L186
 5077              	.L187:
1368:.\PrimeImpl.c ****                 puartdisp->_messagetx[index++] = (0xE0 | (0x0F & ptr[buffndx])); //Translate from A
 5078              		.loc 1 1368 0 discriminator 2
 5079 01b8 FB7F     		ldrb	r3, [r7, #31]	@ zero_extendqisi2
 5080 01ba 5A1C     		adds	r2, r3, #1
 5081 01bc FA77     		strb	r2, [r7, #31]
 5082 01be 1946     		mov	r1, r3
 5083 01c0 BB7F     		ldrb	r3, [r7, #30]	@ zero_extendqisi2
 5084 01c2 FA68     		ldr	r2, [r7, #12]
 5085 01c4 1344     		add	r3, r3, r2
 5086 01c6 1B78     		ldrb	r3, [r3]	@ zero_extendqisi2
 5087 01c8 03F00F03 		and	r3, r3, #15
 5088 01cc DBB2     		uxtb	r3, r3
 5089 01ce 63F01F03 		orn	r3, r3, #31
 5090 01d2 DAB2     		uxtb	r2, r3
 5091 01d4 7B69     		ldr	r3, [r7, #20]
 5092 01d6 0B44     		add	r3, r3, r1
 5093 01d8 1A71     		strb	r2, [r3, #4]
1367:.\PrimeImpl.c ****             for(; buffndx < 6; buffndx++)
 5094              		.loc 1 1367 0 discriminator 2
 5095 01da BB7F     		ldrb	r3, [r7, #30]	@ zero_extendqisi2
 5096 01dc 0133     		adds	r3, r3, #1
 5097 01de BB77     		strb	r3, [r7, #30]
 5098              	.L186:
1367:.\PrimeImpl.c ****             for(; buffndx < 6; buffndx++)
 5099              		.loc 1 1367 0 is_stmt 0 discriminator 1
 5100 01e0 BB7F     		ldrb	r3, [r7, #30]	@ zero_extendqisi2
 5101 01e2 052B     		cmp	r3, #5
 5102 01e4 E8D9     		bls	.L187
1369:.\PrimeImpl.c **** 
1370:.\PrimeImpl.c ****             memset(&ppump->_trasactionbuffer[GetBufferIndexFromDisplayID(DISPLAY_PRECIO_POR_UNIDAD)
 5103              		.loc 1 1370 0 is_stmt 1
 5104 01e6 6520     		movs	r0, #101
 5105 01e8 FFF7FEFF 		bl	GetBufferIndexFromDisplayID
 5106 01ec 0346     		mov	r3, r0
ARM GAS  C:\Users\RECEPC~1\AppData\Local\Temp\ccvxjDo6.s 			page 115


 5107 01ee 2033     		adds	r3, r3, #32
 5108 01f0 BA69     		ldr	r2, [r7, #24]
 5109 01f2 1A44     		add	r2, r2, r3
 5110 01f4 7B7C     		ldrb	r3, [r7, #17]	@ zero_extendqisi2
 5111 01f6 1046     		mov	r0, r2
 5112 01f8 0021     		movs	r1, #0
 5113 01fa 1A46     		mov	r2, r3
 5114 01fc FFF7FEFF 		bl	memset
1371:.\PrimeImpl.c ****             puartdisp->_messagetx[index++] = 0xFB; //LRC next
 5115              		.loc 1 1371 0
 5116 0200 FB7F     		ldrb	r3, [r7, #31]	@ zero_extendqisi2
 5117 0202 5A1C     		adds	r2, r3, #1
 5118 0204 FA77     		strb	r2, [r7, #31]
 5119 0206 1A46     		mov	r2, r3
 5120 0208 7B69     		ldr	r3, [r7, #20]
 5121 020a 1344     		add	r3, r3, r2
 5122 020c FB22     		movs	r2, #251
 5123 020e 1A71     		strb	r2, [r3, #4]
1372:.\PrimeImpl.c ****             puartdisp->_messagetx[index++] = GetLRC(puartdisp->_messagetx);
 5124              		.loc 1 1372 0
 5125 0210 FB7F     		ldrb	r3, [r7, #31]	@ zero_extendqisi2
 5126 0212 5A1C     		adds	r2, r3, #1
 5127 0214 FA77     		strb	r2, [r7, #31]
 5128 0216 1C46     		mov	r4, r3
 5129 0218 7B69     		ldr	r3, [r7, #20]
 5130 021a 0433     		adds	r3, r3, #4
 5131 021c 1846     		mov	r0, r3
 5132 021e FFF7FEFF 		bl	GetLRC
 5133 0222 0346     		mov	r3, r0
 5134 0224 1A46     		mov	r2, r3
 5135 0226 7B69     		ldr	r3, [r7, #20]
 5136 0228 2344     		add	r3, r3, r4
 5137 022a 1A71     		strb	r2, [r3, #4]
1373:.\PrimeImpl.c ****             puartdisp->_messagetx[index++] = EOM;
 5138              		.loc 1 1373 0
 5139 022c FB7F     		ldrb	r3, [r7, #31]	@ zero_extendqisi2
 5140 022e 5A1C     		adds	r2, r3, #1
 5141 0230 FA77     		strb	r2, [r7, #31]
 5142 0232 1A46     		mov	r2, r3
 5143 0234 7B69     		ldr	r3, [r7, #20]
 5144 0236 1344     		add	r3, r3, r2
 5145 0238 F022     		movs	r2, #240
 5146 023a 1A71     		strb	r2, [r3, #4]
1374:.\PrimeImpl.c **** ///////////////////////////////////////////////////////////////////////////////////////////////////
1375:.\PrimeImpl.c ****             
1376:.\PrimeImpl.c ****             puartdisp->_messagelength = index;
 5147              		.loc 1 1376 0
 5148 023c FB7F     		ldrb	r3, [r7, #31]	@ zero_extendqisi2
 5149 023e 9AB2     		uxth	r2, r3
 5150 0240 7B69     		ldr	r3, [r7, #20]
 5151 0242 5A80     		strh	r2, [r3, #2]	@ movhi
1377:.\PrimeImpl.c ****             puartdisp->_messagestate = PENDING;
 5152              		.loc 1 1377 0
 5153 0244 7B69     		ldr	r3, [r7, #20]
 5154 0246 C222     		movs	r2, #194
 5155 0248 1A70     		strb	r2, [r3]
1378:.\PrimeImpl.c ****             
ARM GAS  C:\Users\RECEPC~1\AppData\Local\Temp\ccvxjDo6.s 			page 116


1379:.\PrimeImpl.c ****             ppump->_currenthose++;
 5156              		.loc 1 1379 0
 5157 024a BB69     		ldr	r3, [r7, #24]
 5158 024c DB78     		ldrb	r3, [r3, #3]
 5159 024e DBB2     		uxtb	r3, r3
 5160 0250 0133     		adds	r3, r3, #1
 5161 0252 DAB2     		uxtb	r2, r3
 5162 0254 BB69     		ldr	r3, [r7, #24]
 5163 0256 DA70     		strb	r2, [r3, #3]
 5164              	.L178:
 5165              	.LBE31:
 5166              	.LBE30:
1380:.\PrimeImpl.c ****         }
1381:.\PrimeImpl.c ****     }    
1382:.\PrimeImpl.c **** }
 5167              		.loc 1 1382 0
 5168 0258 2037     		adds	r7, r7, #32
 5169              		.cfi_def_cfa_offset 16
 5170 025a BD46     		mov	sp, r7
 5171              		.cfi_def_cfa_register 13
 5172              		@ sp needed
 5173 025c B0BD     		pop	{r4, r5, r7, pc}
 5174              		.cfi_endproc
 5175              	.LFE90:
 5176              		.size	PumpPpuChange, .-PumpPpuChange
 5177 025e 00BF     		.section	.text.PumpDefault2CreditPpuChange,"ax",%progbits
 5178              		.align	2
 5179              		.global	PumpDefault2CreditPpuChange
 5180              		.thumb
 5181              		.thumb_func
 5182              		.type	PumpDefault2CreditPpuChange, %function
 5183              	PumpDefault2CreditPpuChange:
 5184              	.LFB91:
1383:.\PrimeImpl.c **** 
1384:.\PrimeImpl.c **** void PumpDefault2CreditPpuChange(void *pparam)
1385:.\PrimeImpl.c **** {
 5185              		.loc 1 1385 0
 5186              		.cfi_startproc
 5187              		@ args = 0, pretend = 0, frame = 24
 5188              		@ frame_needed = 1, uses_anonymous_args = 0
 5189 0000 90B5     		push	{r4, r7, lr}
 5190              		.cfi_def_cfa_offset 12
 5191              		.cfi_offset 4, -12
 5192              		.cfi_offset 7, -8
 5193              		.cfi_offset 14, -4
 5194 0002 87B0     		sub	sp, sp, #28
 5195              		.cfi_def_cfa_offset 40
 5196 0004 00AF     		add	r7, sp, #0
 5197              		.cfi_def_cfa_register 7
 5198 0006 7860     		str	r0, [r7, #4]
1386:.\PrimeImpl.c ****     PNEAR_PUMPPTR ppump = (PNEAR_PUMPPTR)pparam;
 5199              		.loc 1 1386 0
 5200 0008 7B68     		ldr	r3, [r7, #4]
 5201 000a 3B61     		str	r3, [r7, #16]
1387:.\PrimeImpl.c ****     if(ppump)
 5202              		.loc 1 1387 0
 5203 000c 3B69     		ldr	r3, [r7, #16]
ARM GAS  C:\Users\RECEPC~1\AppData\Local\Temp\ccvxjDo6.s 			page 117


 5204 000e 002B     		cmp	r3, #0
 5205 0010 00F09D80 		beq	.L188
 5206              	.LBB32:
1388:.\PrimeImpl.c ****     {
1389:.\PrimeImpl.c ****         uint8_t index = 0;  
 5207              		.loc 1 1389 0
 5208 0014 0023     		movs	r3, #0
 5209 0016 FB75     		strb	r3, [r7, #23]
1390:.\PrimeImpl.c ****         memset(ppump->_rxbuffer, 0x00, _PUMP_RX_BUFFER_SIZE_);
 5210              		.loc 1 1390 0
 5211 0018 3B69     		ldr	r3, [r7, #16]
 5212 001a 03F5C473 		add	r3, r3, #392
 5213 001e 1846     		mov	r0, r3
 5214 0020 0021     		movs	r1, #0
 5215 0022 4FF4B472 		mov	r2, #360
 5216 0026 FFF7FEFF 		bl	memset
1391:.\PrimeImpl.c ****         PUARTMESSAGEPTR puartdisp = GetUARTMessageSlot(UART_DISPENSER);
 5217              		.loc 1 1391 0
 5218 002a A220     		movs	r0, #162
 5219 002c FFF7FEFF 		bl	GetUARTMessageSlot
 5220 0030 F860     		str	r0, [r7, #12]
1392:.\PrimeImpl.c ****         if(puartdisp)
 5221              		.loc 1 1392 0
 5222 0032 FB68     		ldr	r3, [r7, #12]
 5223 0034 002B     		cmp	r3, #0
 5224 0036 00F08A80 		beq	.L188
 5225              	.LBB33:
1393:.\PrimeImpl.c ****         {
1394:.\PrimeImpl.c **** ///////////////////////////////////////////////////////////////////////////////////////////////////
1395:.\PrimeImpl.c ****             puartdisp->_messagetx[index++] = SOM;
 5226              		.loc 1 1395 0
 5227 003a FB7D     		ldrb	r3, [r7, #23]	@ zero_extendqisi2
 5228 003c 5A1C     		adds	r2, r3, #1
 5229 003e FA75     		strb	r2, [r7, #23]
 5230 0040 1A46     		mov	r2, r3
 5231 0042 FB68     		ldr	r3, [r7, #12]
 5232 0044 1344     		add	r3, r3, r2
 5233 0046 FF22     		movs	r2, #255
 5234 0048 1A71     		strb	r2, [r3, #4]
1396:.\PrimeImpl.c ****             puartdisp->_messagetx[index++] = 0xE3; //Not used. The Pump will ignore.
 5235              		.loc 1 1396 0
 5236 004a FB7D     		ldrb	r3, [r7, #23]	@ zero_extendqisi2
 5237 004c 5A1C     		adds	r2, r3, #1
 5238 004e FA75     		strb	r2, [r7, #23]
 5239 0050 1A46     		mov	r2, r3
 5240 0052 FB68     		ldr	r3, [r7, #12]
 5241 0054 1344     		add	r3, r3, r2
 5242 0056 E322     		movs	r2, #227
 5243 0058 1A71     		strb	r2, [r3, #4]
1397:.\PrimeImpl.c ****             puartdisp->_messagetx[index++] = 0xF4; //Not used. The Pump will ignore.
 5244              		.loc 1 1397 0
 5245 005a FB7D     		ldrb	r3, [r7, #23]	@ zero_extendqisi2
 5246 005c 5A1C     		adds	r2, r3, #1
 5247 005e FA75     		strb	r2, [r7, #23]
 5248 0060 1A46     		mov	r2, r3
 5249 0062 FB68     		ldr	r3, [r7, #12]
 5250 0064 1344     		add	r3, r3, r2
ARM GAS  C:\Users\RECEPC~1\AppData\Local\Temp\ccvxjDo6.s 			page 118


 5251 0066 F422     		movs	r2, #244
 5252 0068 1A71     		strb	r2, [r3, #4]
1398:.\PrimeImpl.c ****             puartdisp->_messagetx[index++] = 0xF6; //Hose Data next
 5253              		.loc 1 1398 0
 5254 006a FB7D     		ldrb	r3, [r7, #23]	@ zero_extendqisi2
 5255 006c 5A1C     		adds	r2, r3, #1
 5256 006e FA75     		strb	r2, [r7, #23]
 5257 0070 1A46     		mov	r2, r3
 5258 0072 FB68     		ldr	r3, [r7, #12]
 5259 0074 1344     		add	r3, r3, r2
 5260 0076 F622     		movs	r2, #246
 5261 0078 1A71     		strb	r2, [r3, #4]
1399:.\PrimeImpl.c ****             ///THIS IS AN APPLIED CONVENTION ===>> 0x0006 INDEX POSITION WITHIN THE PUMP'S BUFFER P
1400:.\PrimeImpl.c ****             ///THESE CODES MUST BE MATCHED OTHERWISE THE LOGIC WILL BREAKUP THE CODE!
1401:.\PrimeImpl.c ****             puartdisp->_messagetx[index++] = (0xE0 | ppump->_authorizationinfo._hoseid);
 5262              		.loc 1 1401 0
 5263 007a FB7D     		ldrb	r3, [r7, #23]	@ zero_extendqisi2
 5264 007c 5A1C     		adds	r2, r3, #1
 5265 007e FA75     		strb	r2, [r7, #23]
 5266 0080 1946     		mov	r1, r3
 5267 0082 3B69     		ldr	r3, [r7, #16]
 5268 0084 93F87A3B 		ldrb	r3, [r3, #2938]
 5269 0088 DBB2     		uxtb	r3, r3
 5270 008a 63F01F03 		orn	r3, r3, #31
 5271 008e DAB2     		uxtb	r2, r3
 5272 0090 FB68     		ldr	r3, [r7, #12]
 5273 0092 0B44     		add	r3, r3, r1
 5274 0094 1A71     		strb	r2, [r3, #4]
1402:.\PrimeImpl.c ****             
1403:.\PrimeImpl.c ****             puartdisp->_messagetx[index++] = 0xF7; //PPU Data next            
 5275              		.loc 1 1403 0
 5276 0096 FB7D     		ldrb	r3, [r7, #23]	@ zero_extendqisi2
 5277 0098 5A1C     		adds	r2, r3, #1
 5278 009a FA75     		strb	r2, [r7, #23]
 5279 009c 1A46     		mov	r2, r3
 5280 009e FB68     		ldr	r3, [r7, #12]
 5281 00a0 1344     		add	r3, r3, r2
 5282 00a2 F722     		movs	r2, #247
 5283 00a4 1A71     		strb	r2, [r3, #4]
1404:.\PrimeImpl.c ****             //Here we copy the remaining 6 bytes for the preset value
1405:.\PrimeImpl.c ****             ///THIS IS AN APPLIED CONVENTION ===>> 0x0008 INDEX POSITION WITHIN THE PUMP'S BUFFER P
1406:.\PrimeImpl.c ****             ///THESE CODES MUST BE MATCHED OTHERWISE THE LOGIC WILL BREAKUP THE CODE!
1407:.\PrimeImpl.c ****             B78AD90CF552D9B30A(ppump->_authorizationinfo._price, PBYTECAST(&ppump->_trasactionbuffe
 5284              		.loc 1 1407 0
 5285 00a6 3B69     		ldr	r3, [r7, #16]
 5286 00a8 B3F87C3B 		ldrh	r3, [r3, #2940]	@ movhi
 5287 00ac 9BB2     		uxth	r3, r3
 5288 00ae 9AB2     		uxth	r2, r3
 5289 00b0 4FF00003 		mov	r3, #0
 5290 00b4 3969     		ldr	r1, [r7, #16]
 5291 00b6 01F12804 		add	r4, r1, #40
 5292 00ba 1046     		mov	r0, r2
 5293 00bc 1946     		mov	r1, r3
 5294 00be 2246     		mov	r2, r4
 5295 00c0 FFF7FEFF 		bl	B78AD90CF552D9B30A
1408:.\PrimeImpl.c ****             char8 *ptr = &ppump->_trasactionbuffer[0x0008];
 5296              		.loc 1 1408 0
ARM GAS  C:\Users\RECEPC~1\AppData\Local\Temp\ccvxjDo6.s 			page 119


 5297 00c4 3B69     		ldr	r3, [r7, #16]
 5298 00c6 2833     		adds	r3, r3, #40
 5299 00c8 BB60     		str	r3, [r7, #8]
1409:.\PrimeImpl.c ****             FOR(uint8 buffndx = 0, buffndx < 6, buffndx++)
 5300              		.loc 1 1409 0
 5301 00ca 0023     		movs	r3, #0
 5302 00cc BB75     		strb	r3, [r7, #22]
 5303 00ce 13E0     		b	.L190
 5304              	.L191:
1410:.\PrimeImpl.c ****                 puartdisp->_messagetx[index++] = (0xE0 | (0x0F & ptr[buffndx])); //Translate from A
 5305              		.loc 1 1410 0 discriminator 3
 5306 00d0 FB7D     		ldrb	r3, [r7, #23]	@ zero_extendqisi2
 5307 00d2 5A1C     		adds	r2, r3, #1
 5308 00d4 FA75     		strb	r2, [r7, #23]
 5309 00d6 1946     		mov	r1, r3
 5310 00d8 BB7D     		ldrb	r3, [r7, #22]	@ zero_extendqisi2
 5311 00da BA68     		ldr	r2, [r7, #8]
 5312 00dc 1344     		add	r3, r3, r2
 5313 00de 1B78     		ldrb	r3, [r3]	@ zero_extendqisi2
 5314 00e0 03F00F03 		and	r3, r3, #15
 5315 00e4 DBB2     		uxtb	r3, r3
 5316 00e6 63F01F03 		orn	r3, r3, #31
 5317 00ea DAB2     		uxtb	r2, r3
 5318 00ec FB68     		ldr	r3, [r7, #12]
 5319 00ee 0B44     		add	r3, r3, r1
 5320 00f0 1A71     		strb	r2, [r3, #4]
1409:.\PrimeImpl.c ****             FOR(uint8 buffndx = 0, buffndx < 6, buffndx++)
 5321              		.loc 1 1409 0 discriminator 3
 5322 00f2 BB7D     		ldrb	r3, [r7, #22]	@ zero_extendqisi2
 5323 00f4 0133     		adds	r3, r3, #1
 5324 00f6 BB75     		strb	r3, [r7, #22]
 5325              	.L190:
1409:.\PrimeImpl.c ****             FOR(uint8 buffndx = 0, buffndx < 6, buffndx++)
 5326              		.loc 1 1409 0 is_stmt 0 discriminator 1
 5327 00f8 BB7D     		ldrb	r3, [r7, #22]	@ zero_extendqisi2
 5328 00fa 052B     		cmp	r3, #5
 5329 00fc E8D9     		bls	.L191
1411:.\PrimeImpl.c ****             
1412:.\PrimeImpl.c ****             puartdisp->_messagetx[index++] = 0xFB; //LRC next
 5330              		.loc 1 1412 0 is_stmt 1
 5331 00fe FB7D     		ldrb	r3, [r7, #23]	@ zero_extendqisi2
 5332 0100 5A1C     		adds	r2, r3, #1
 5333 0102 FA75     		strb	r2, [r7, #23]
 5334 0104 1A46     		mov	r2, r3
 5335 0106 FB68     		ldr	r3, [r7, #12]
 5336 0108 1344     		add	r3, r3, r2
 5337 010a FB22     		movs	r2, #251
 5338 010c 1A71     		strb	r2, [r3, #4]
1413:.\PrimeImpl.c ****             puartdisp->_messagetx[index++] = GetLRC(puartdisp->_messagetx);
 5339              		.loc 1 1413 0
 5340 010e FB7D     		ldrb	r3, [r7, #23]	@ zero_extendqisi2
 5341 0110 5A1C     		adds	r2, r3, #1
 5342 0112 FA75     		strb	r2, [r7, #23]
 5343 0114 1C46     		mov	r4, r3
 5344 0116 FB68     		ldr	r3, [r7, #12]
 5345 0118 0433     		adds	r3, r3, #4
 5346 011a 1846     		mov	r0, r3
ARM GAS  C:\Users\RECEPC~1\AppData\Local\Temp\ccvxjDo6.s 			page 120


 5347 011c FFF7FEFF 		bl	GetLRC
 5348 0120 0346     		mov	r3, r0
 5349 0122 1A46     		mov	r2, r3
 5350 0124 FB68     		ldr	r3, [r7, #12]
 5351 0126 2344     		add	r3, r3, r4
 5352 0128 1A71     		strb	r2, [r3, #4]
1414:.\PrimeImpl.c ****             puartdisp->_messagetx[index++] = EOM;
 5353              		.loc 1 1414 0
 5354 012a FB7D     		ldrb	r3, [r7, #23]	@ zero_extendqisi2
 5355 012c 5A1C     		adds	r2, r3, #1
 5356 012e FA75     		strb	r2, [r7, #23]
 5357 0130 1A46     		mov	r2, r3
 5358 0132 FB68     		ldr	r3, [r7, #12]
 5359 0134 1344     		add	r3, r3, r2
 5360 0136 F022     		movs	r2, #240
 5361 0138 1A71     		strb	r2, [r3, #4]
1415:.\PrimeImpl.c **** ///////////////////////////////////////////////////////////////////////////////////////////////////
1416:.\PrimeImpl.c ****             
1417:.\PrimeImpl.c ****             puartdisp->_messagelength = index;
 5362              		.loc 1 1417 0
 5363 013a FB7D     		ldrb	r3, [r7, #23]	@ zero_extendqisi2
 5364 013c 9AB2     		uxth	r2, r3
 5365 013e FB68     		ldr	r3, [r7, #12]
 5366 0140 5A80     		strh	r2, [r3, #2]	@ movhi
1418:.\PrimeImpl.c ****             puartdisp->_messagestate = PENDING;
 5367              		.loc 1 1418 0
 5368 0142 FB68     		ldr	r3, [r7, #12]
 5369 0144 C222     		movs	r2, #194
 5370 0146 1A70     		strb	r2, [r3]
1419:.\PrimeImpl.c ****             
1420:.\PrimeImpl.c ****             //This marker flag is set to notify the transactional engine about the price restore re
1421:.\PrimeImpl.c ****             ppump->_restoreprice = true;
 5371              		.loc 1 1421 0
 5372 0148 3B69     		ldr	r3, [r7, #16]
 5373 014a 0122     		movs	r2, #1
 5374 014c 5A72     		strb	r2, [r3, #9]
 5375              	.L188:
 5376              	.LBE33:
 5377              	.LBE32:
1422:.\PrimeImpl.c ****         }
1423:.\PrimeImpl.c ****     }    
1424:.\PrimeImpl.c **** }
 5378              		.loc 1 1424 0
 5379 014e 1C37     		adds	r7, r7, #28
 5380              		.cfi_def_cfa_offset 12
 5381 0150 BD46     		mov	sp, r7
 5382              		.cfi_def_cfa_register 13
 5383              		@ sp needed
 5384 0152 90BD     		pop	{r4, r7, pc}
 5385              		.cfi_endproc
 5386              	.LFE91:
 5387              		.size	PumpDefault2CreditPpuChange, .-PumpDefault2CreditPpuChange
 5388              		.section	.text.PumpCredit2DefaultPpuChange,"ax",%progbits
 5389              		.align	2
 5390              		.global	PumpCredit2DefaultPpuChange
 5391              		.thumb
 5392              		.thumb_func
ARM GAS  C:\Users\RECEPC~1\AppData\Local\Temp\ccvxjDo6.s 			page 121


 5393              		.type	PumpCredit2DefaultPpuChange, %function
 5394              	PumpCredit2DefaultPpuChange:
 5395              	.LFB92:
1425:.\PrimeImpl.c **** 
1426:.\PrimeImpl.c **** void PumpCredit2DefaultPpuChange(void *pparam)
1427:.\PrimeImpl.c **** {
 5396              		.loc 1 1427 0
 5397              		.cfi_startproc
 5398              		@ args = 0, pretend = 0, frame = 32
 5399              		@ frame_needed = 1, uses_anonymous_args = 0
 5400 0000 90B5     		push	{r4, r7, lr}
 5401              		.cfi_def_cfa_offset 12
 5402              		.cfi_offset 4, -12
 5403              		.cfi_offset 7, -8
 5404              		.cfi_offset 14, -4
 5405 0002 89B0     		sub	sp, sp, #36
 5406              		.cfi_def_cfa_offset 48
 5407 0004 00AF     		add	r7, sp, #0
 5408              		.cfi_def_cfa_register 7
 5409 0006 7860     		str	r0, [r7, #4]
1428:.\PrimeImpl.c ****     PNEAR_PUMPPTR ppump = (PNEAR_PUMPPTR)pparam;
 5410              		.loc 1 1428 0
 5411 0008 7B68     		ldr	r3, [r7, #4]
 5412 000a BB61     		str	r3, [r7, #24]
1429:.\PrimeImpl.c ****     if(ppump)
 5413              		.loc 1 1429 0
 5414 000c BB69     		ldr	r3, [r7, #24]
 5415 000e 002B     		cmp	r3, #0
 5416 0010 00F0E480 		beq	.L192
 5417              	.LBB34:
1430:.\PrimeImpl.c ****     {
1431:.\PrimeImpl.c ****         uint8_t index = 0;  
 5418              		.loc 1 1431 0
 5419 0014 0023     		movs	r3, #0
 5420 0016 FB77     		strb	r3, [r7, #31]
1432:.\PrimeImpl.c ****         memset(ppump->_rxbuffer, 0x00, _PUMP_RX_BUFFER_SIZE_);
 5421              		.loc 1 1432 0
 5422 0018 BB69     		ldr	r3, [r7, #24]
 5423 001a 03F5C473 		add	r3, r3, #392
 5424 001e 1846     		mov	r0, r3
 5425 0020 0021     		movs	r1, #0
 5426 0022 4FF4B472 		mov	r2, #360
 5427 0026 FFF7FEFF 		bl	memset
1433:.\PrimeImpl.c ****         PUARTMESSAGEPTR puartdisp = GetUARTMessageSlot(UART_DISPENSER);
 5428              		.loc 1 1433 0
 5429 002a A220     		movs	r0, #162
 5430 002c FFF7FEFF 		bl	GetUARTMessageSlot
 5431 0030 7861     		str	r0, [r7, #20]
1434:.\PrimeImpl.c ****         if(puartdisp)
 5432              		.loc 1 1434 0
 5433 0032 7B69     		ldr	r3, [r7, #20]
 5434 0034 002B     		cmp	r3, #0
 5435 0036 00F0CE80 		beq	.L194
 5436              	.LBB35:
1435:.\PrimeImpl.c ****         {
1436:.\PrimeImpl.c **** ///////////////////////////////////////////////////////////////////////////////////////////////////
1437:.\PrimeImpl.c ****             puartdisp->_messagetx[index++] = SOM;
ARM GAS  C:\Users\RECEPC~1\AppData\Local\Temp\ccvxjDo6.s 			page 122


 5437              		.loc 1 1437 0
 5438 003a FB7F     		ldrb	r3, [r7, #31]	@ zero_extendqisi2
 5439 003c 5A1C     		adds	r2, r3, #1
 5440 003e FA77     		strb	r2, [r7, #31]
 5441 0040 1A46     		mov	r2, r3
 5442 0042 7B69     		ldr	r3, [r7, #20]
 5443 0044 1344     		add	r3, r3, r2
 5444 0046 FF22     		movs	r2, #255
 5445 0048 1A71     		strb	r2, [r3, #4]
1438:.\PrimeImpl.c ****             puartdisp->_messagetx[index++] = 0xE3; //Not used. The Pump will ignore.
 5446              		.loc 1 1438 0
 5447 004a FB7F     		ldrb	r3, [r7, #31]	@ zero_extendqisi2
 5448 004c 5A1C     		adds	r2, r3, #1
 5449 004e FA77     		strb	r2, [r7, #31]
 5450 0050 1A46     		mov	r2, r3
 5451 0052 7B69     		ldr	r3, [r7, #20]
 5452 0054 1344     		add	r3, r3, r2
 5453 0056 E322     		movs	r2, #227
 5454 0058 1A71     		strb	r2, [r3, #4]
1439:.\PrimeImpl.c ****             puartdisp->_messagetx[index++] = 0xF4; //Not used. The Pump will ignore.
 5455              		.loc 1 1439 0
 5456 005a FB7F     		ldrb	r3, [r7, #31]	@ zero_extendqisi2
 5457 005c 5A1C     		adds	r2, r3, #1
 5458 005e FA77     		strb	r2, [r7, #31]
 5459 0060 1A46     		mov	r2, r3
 5460 0062 7B69     		ldr	r3, [r7, #20]
 5461 0064 1344     		add	r3, r3, r2
 5462 0066 F422     		movs	r2, #244
 5463 0068 1A71     		strb	r2, [r3, #4]
1440:.\PrimeImpl.c ****             puartdisp->_messagetx[index++] = 0xF6; //Hose Data next
 5464              		.loc 1 1440 0
 5465 006a FB7F     		ldrb	r3, [r7, #31]	@ zero_extendqisi2
 5466 006c 5A1C     		adds	r2, r3, #1
 5467 006e FA77     		strb	r2, [r7, #31]
 5468 0070 1A46     		mov	r2, r3
 5469 0072 7B69     		ldr	r3, [r7, #20]
 5470 0074 1344     		add	r3, r3, r2
 5471 0076 F622     		movs	r2, #246
 5472 0078 1A71     		strb	r2, [r3, #4]
1441:.\PrimeImpl.c ****             ///THIS IS AN APPLIED CONVENTION ===>> 0x0006 INDEX POSITION WITHIN THE PUMP'S BUFFER P
1442:.\PrimeImpl.c ****             ///THESE CODES MUST BE MATCHED OTHERWISE THE LOGIC WILL BREAKUP THE CODE!
1443:.\PrimeImpl.c ****             puartdisp->_messagetx[index++] = (0xE0 | ppump->_authorizationinfo._hoseid);
 5473              		.loc 1 1443 0
 5474 007a FB7F     		ldrb	r3, [r7, #31]	@ zero_extendqisi2
 5475 007c 5A1C     		adds	r2, r3, #1
 5476 007e FA77     		strb	r2, [r7, #31]
 5477 0080 1946     		mov	r1, r3
 5478 0082 BB69     		ldr	r3, [r7, #24]
 5479 0084 93F87A3B 		ldrb	r3, [r3, #2938]
 5480 0088 DBB2     		uxtb	r3, r3
 5481 008a 63F01F03 		orn	r3, r3, #31
 5482 008e DAB2     		uxtb	r2, r3
 5483 0090 7B69     		ldr	r3, [r7, #20]
 5484 0092 0B44     		add	r3, r3, r1
 5485 0094 1A71     		strb	r2, [r3, #4]
1444:.\PrimeImpl.c **** 
1445:.\PrimeImpl.c ****             puartdisp->_messagetx[index++] = 0xF7; //PPU Data next
ARM GAS  C:\Users\RECEPC~1\AppData\Local\Temp\ccvxjDo6.s 			page 123


 5486              		.loc 1 1445 0
 5487 0096 FB7F     		ldrb	r3, [r7, #31]	@ zero_extendqisi2
 5488 0098 5A1C     		adds	r2, r3, #1
 5489 009a FA77     		strb	r2, [r7, #31]
 5490 009c 1A46     		mov	r2, r3
 5491 009e 7B69     		ldr	r3, [r7, #20]
 5492 00a0 1344     		add	r3, r3, r2
 5493 00a2 F722     		movs	r2, #247
 5494 00a4 1A71     		strb	r2, [r3, #4]
1446:.\PrimeImpl.c ****             
1447:.\PrimeImpl.c ****             I2CBusLock();
 5495              		.loc 1 1447 0
 5496 00a6 FFF7FEFF 		bl	I2CBusLock
1448:.\PrimeImpl.c ****             ClearEepromBuffer();
 5497              		.loc 1 1448 0
 5498 00aa FFF7FEFF 		bl	ClearEepromBuffer
1449:.\PrimeImpl.c ****             uint16 eeprompage = DispenserGetEepromPPUPageFromPumpID(ppump->_pumpid);
 5499              		.loc 1 1449 0
 5500 00ae BB69     		ldr	r3, [r7, #24]
 5501 00b0 1B78     		ldrb	r3, [r3]	@ zero_extendqisi2
 5502 00b2 1846     		mov	r0, r3
 5503 00b4 FFF7FEFF 		bl	DispenserGetEepromPPUPageFromPumpID
 5504 00b8 0346     		mov	r3, r0
 5505 00ba 7B82     		strh	r3, [r7, #18]	@ movhi
1450:.\PrimeImpl.c ****             LoadEepromPage(eeprompage);
 5506              		.loc 1 1450 0
 5507 00bc 7B8A     		ldrh	r3, [r7, #18]
 5508 00be 1846     		mov	r0, r3
 5509 00c0 FFF7FEFF 		bl	LoadEepromPage
1451:.\PrimeImpl.c ****             switch(ppump->_authorizationinfo._hoseid)
 5510              		.loc 1 1451 0
 5511 00c4 BB69     		ldr	r3, [r7, #24]
 5512 00c6 93F87A3B 		ldrb	r3, [r3, #2938]
 5513 00ca DBB2     		uxtb	r3, r3
 5514 00cc 032B     		cmp	r3, #3
 5515 00ce 3ED8     		bhi	.L195
 5516 00d0 01A2     		adr	r2, .L197
 5517 00d2 52F823F0 		ldr	pc, [r2, r3, lsl #2]
 5518 00d6 00BF     		.p2align 2
 5519              	.L197:
 5520 00d8 E9000000 		.word	.L196+1
 5521 00dc 01010000 		.word	.L198+1
 5522 00e0 1B010000 		.word	.L199+1
 5523 00e4 35010000 		.word	.L200+1
 5524              		.p2align 1
 5525              	.L196:
1452:.\PrimeImpl.c ****             {
1453:.\PrimeImpl.c ****                 case 0x00:
1454:.\PrimeImpl.c ****                 //Six bytes only since the PPU is constrained to this length
1455:.\PrimeImpl.c ****                 memcpy(PBYTECAST(&ppump->_trasactionbuffer[0x0008]), &GetEepromBuffer()[_EEPROM_PAG
 5526              		.loc 1 1455 0
 5527 00e8 BB69     		ldr	r3, [r7, #24]
 5528 00ea 03F12804 		add	r4, r3, #40
 5529 00ee FFF7FEFF 		bl	GetEepromBuffer
 5530 00f2 0346     		mov	r3, r0
 5531 00f4 2046     		mov	r0, r4
 5532 00f6 1946     		mov	r1, r3
ARM GAS  C:\Users\RECEPC~1\AppData\Local\Temp\ccvxjDo6.s 			page 124


 5533 00f8 0622     		movs	r2, #6
 5534 00fa FFF7FEFF 		bl	memcpy
1456:.\PrimeImpl.c ****                 break;
 5535              		.loc 1 1456 0
 5536 00fe 26E0     		b	.L195
 5537              	.L198:
1457:.\PrimeImpl.c ****                 case 0x01:
1458:.\PrimeImpl.c ****                 //Six bytes only since the PPU is constrained to this length
1459:.\PrimeImpl.c ****                 memcpy(PBYTECAST(&ppump->_trasactionbuffer[0x0008]), &GetEepromBuffer()[_EEPROM_PAG
 5538              		.loc 1 1459 0
 5539 0100 BB69     		ldr	r3, [r7, #24]
 5540 0102 03F12804 		add	r4, r3, #40
 5541 0106 FFF7FEFF 		bl	GetEepromBuffer
 5542 010a 0346     		mov	r3, r0
 5543 010c 1033     		adds	r3, r3, #16
 5544 010e 2046     		mov	r0, r4
 5545 0110 1946     		mov	r1, r3
 5546 0112 0622     		movs	r2, #6
 5547 0114 FFF7FEFF 		bl	memcpy
1460:.\PrimeImpl.c ****                 break;
 5548              		.loc 1 1460 0
 5549 0118 19E0     		b	.L195
 5550              	.L199:
1461:.\PrimeImpl.c ****                 case 0x02:
1462:.\PrimeImpl.c ****                 //Six bytes only since the PPU is constrained to this length
1463:.\PrimeImpl.c ****                 memcpy(PBYTECAST(&ppump->_trasactionbuffer[0x0008]), &GetEepromBuffer()[_EEPROM_PAG
 5551              		.loc 1 1463 0
 5552 011a BB69     		ldr	r3, [r7, #24]
 5553 011c 03F12804 		add	r4, r3, #40
 5554 0120 FFF7FEFF 		bl	GetEepromBuffer
 5555 0124 0346     		mov	r3, r0
 5556 0126 2033     		adds	r3, r3, #32
 5557 0128 2046     		mov	r0, r4
 5558 012a 1946     		mov	r1, r3
 5559 012c 0622     		movs	r2, #6
 5560 012e FFF7FEFF 		bl	memcpy
1464:.\PrimeImpl.c ****                 break;
 5561              		.loc 1 1464 0
 5562 0132 0CE0     		b	.L195
 5563              	.L200:
1465:.\PrimeImpl.c ****                 case 0x03:
1466:.\PrimeImpl.c ****                 //Six bytes only since the PPU is constrained to this length
1467:.\PrimeImpl.c ****                 memcpy(PBYTECAST(&ppump->_trasactionbuffer[0x0008]), &GetEepromBuffer()[_EEPROM_PAG
 5564              		.loc 1 1467 0
 5565 0134 BB69     		ldr	r3, [r7, #24]
 5566 0136 03F12804 		add	r4, r3, #40
 5567 013a FFF7FEFF 		bl	GetEepromBuffer
 5568 013e 0346     		mov	r3, r0
 5569 0140 3033     		adds	r3, r3, #48
 5570 0142 2046     		mov	r0, r4
 5571 0144 1946     		mov	r1, r3
 5572 0146 0622     		movs	r2, #6
 5573 0148 FFF7FEFF 		bl	memcpy
1468:.\PrimeImpl.c ****                 break;
 5574              		.loc 1 1468 0
 5575 014c 00BF     		nop
 5576              	.L195:
ARM GAS  C:\Users\RECEPC~1\AppData\Local\Temp\ccvxjDo6.s 			page 125


1469:.\PrimeImpl.c ****             }
1470:.\PrimeImpl.c ****             I2CBusUnlock();
 5577              		.loc 1 1470 0
 5578 014e FFF7FEFF 		bl	I2CBusUnlock
1471:.\PrimeImpl.c **** 
1472:.\PrimeImpl.c ****             char8 *ptr = &ppump->_trasactionbuffer[0x0008];
 5579              		.loc 1 1472 0
 5580 0152 BB69     		ldr	r3, [r7, #24]
 5581 0154 2833     		adds	r3, r3, #40
 5582 0156 FB60     		str	r3, [r7, #12]
1473:.\PrimeImpl.c ****             FOR(uint8 buffndx = 0, buffndx < 6, buffndx++)
 5583              		.loc 1 1473 0
 5584 0158 0023     		movs	r3, #0
 5585 015a BB77     		strb	r3, [r7, #30]
 5586 015c 13E0     		b	.L201
 5587              	.L202:
1474:.\PrimeImpl.c ****                 puartdisp->_messagetx[index++] = (0xE0 | (0x0F & ptr[buffndx])); //Translate from A
 5588              		.loc 1 1474 0 discriminator 3
 5589 015e FB7F     		ldrb	r3, [r7, #31]	@ zero_extendqisi2
 5590 0160 5A1C     		adds	r2, r3, #1
 5591 0162 FA77     		strb	r2, [r7, #31]
 5592 0164 1946     		mov	r1, r3
 5593 0166 BB7F     		ldrb	r3, [r7, #30]	@ zero_extendqisi2
 5594 0168 FA68     		ldr	r2, [r7, #12]
 5595 016a 1344     		add	r3, r3, r2
 5596 016c 1B78     		ldrb	r3, [r3]	@ zero_extendqisi2
 5597 016e 03F00F03 		and	r3, r3, #15
 5598 0172 DBB2     		uxtb	r3, r3
 5599 0174 63F01F03 		orn	r3, r3, #31
 5600 0178 DAB2     		uxtb	r2, r3
 5601 017a 7B69     		ldr	r3, [r7, #20]
 5602 017c 0B44     		add	r3, r3, r1
 5603 017e 1A71     		strb	r2, [r3, #4]
1473:.\PrimeImpl.c ****             FOR(uint8 buffndx = 0, buffndx < 6, buffndx++)
 5604              		.loc 1 1473 0 discriminator 3
 5605 0180 BB7F     		ldrb	r3, [r7, #30]	@ zero_extendqisi2
 5606 0182 0133     		adds	r3, r3, #1
 5607 0184 BB77     		strb	r3, [r7, #30]
 5608              	.L201:
1473:.\PrimeImpl.c ****             FOR(uint8 buffndx = 0, buffndx < 6, buffndx++)
 5609              		.loc 1 1473 0 is_stmt 0 discriminator 1
 5610 0186 BB7F     		ldrb	r3, [r7, #30]	@ zero_extendqisi2
 5611 0188 052B     		cmp	r3, #5
 5612 018a E8D9     		bls	.L202
1475:.\PrimeImpl.c ****             
1476:.\PrimeImpl.c ****             puartdisp->_messagetx[index++] = 0xFB; //LRC next
 5613              		.loc 1 1476 0 is_stmt 1
 5614 018c FB7F     		ldrb	r3, [r7, #31]	@ zero_extendqisi2
 5615 018e 5A1C     		adds	r2, r3, #1
 5616 0190 FA77     		strb	r2, [r7, #31]
 5617 0192 1A46     		mov	r2, r3
 5618 0194 7B69     		ldr	r3, [r7, #20]
 5619 0196 1344     		add	r3, r3, r2
 5620 0198 FB22     		movs	r2, #251
 5621 019a 1A71     		strb	r2, [r3, #4]
1477:.\PrimeImpl.c ****             puartdisp->_messagetx[index++] = GetLRC(puartdisp->_messagetx);
 5622              		.loc 1 1477 0
ARM GAS  C:\Users\RECEPC~1\AppData\Local\Temp\ccvxjDo6.s 			page 126


 5623 019c FB7F     		ldrb	r3, [r7, #31]	@ zero_extendqisi2
 5624 019e 5A1C     		adds	r2, r3, #1
 5625 01a0 FA77     		strb	r2, [r7, #31]
 5626 01a2 1C46     		mov	r4, r3
 5627 01a4 7B69     		ldr	r3, [r7, #20]
 5628 01a6 0433     		adds	r3, r3, #4
 5629 01a8 1846     		mov	r0, r3
 5630 01aa FFF7FEFF 		bl	GetLRC
 5631 01ae 0346     		mov	r3, r0
 5632 01b0 1A46     		mov	r2, r3
 5633 01b2 7B69     		ldr	r3, [r7, #20]
 5634 01b4 2344     		add	r3, r3, r4
 5635 01b6 1A71     		strb	r2, [r3, #4]
1478:.\PrimeImpl.c ****             puartdisp->_messagetx[index++] = EOM;
 5636              		.loc 1 1478 0
 5637 01b8 FB7F     		ldrb	r3, [r7, #31]	@ zero_extendqisi2
 5638 01ba 5A1C     		adds	r2, r3, #1
 5639 01bc FA77     		strb	r2, [r7, #31]
 5640 01be 1A46     		mov	r2, r3
 5641 01c0 7B69     		ldr	r3, [r7, #20]
 5642 01c2 1344     		add	r3, r3, r2
 5643 01c4 F022     		movs	r2, #240
 5644 01c6 1A71     		strb	r2, [r3, #4]
1479:.\PrimeImpl.c **** ///////////////////////////////////////////////////////////////////////////////////////////////////
1480:.\PrimeImpl.c ****             
1481:.\PrimeImpl.c ****             puartdisp->_messagelength = index;
 5645              		.loc 1 1481 0
 5646 01c8 FB7F     		ldrb	r3, [r7, #31]	@ zero_extendqisi2
 5647 01ca 9AB2     		uxth	r2, r3
 5648 01cc 7B69     		ldr	r3, [r7, #20]
 5649 01ce 5A80     		strh	r2, [r3, #2]	@ movhi
1482:.\PrimeImpl.c ****             puartdisp->_messagestate = PENDING;
 5650              		.loc 1 1482 0
 5651 01d0 7B69     		ldr	r3, [r7, #20]
 5652 01d2 C222     		movs	r2, #194
 5653 01d4 1A70     		strb	r2, [r3]
 5654              	.L194:
 5655              	.LBE35:
1483:.\PrimeImpl.c ****         }
1484:.\PrimeImpl.c ****         ppump->_restoreprice = false;
 5656              		.loc 1 1484 0
 5657 01d6 BB69     		ldr	r3, [r7, #24]
 5658 01d8 0022     		movs	r2, #0
 5659 01da 5A72     		strb	r2, [r3, #9]
 5660              	.L192:
 5661              	.LBE34:
1485:.\PrimeImpl.c ****         //This lock is to force the operator to activate/deactivate the hose once the credit transa
1486:.\PrimeImpl.c ****         #ifdef CREDIT_SALE_PUMP_LOCK
1487:.\PrimeImpl.c ****         ppump->_pumplocked = true;
1488:.\PrimeImpl.c ****         #endif
1489:.\PrimeImpl.c ****     }    
1490:.\PrimeImpl.c **** }
 5662              		.loc 1 1490 0
 5663 01dc 2437     		adds	r7, r7, #36
 5664              		.cfi_def_cfa_offset 12
 5665 01de BD46     		mov	sp, r7
 5666              		.cfi_def_cfa_register 13
ARM GAS  C:\Users\RECEPC~1\AppData\Local\Temp\ccvxjDo6.s 			page 127


 5667              		@ sp needed
 5668 01e0 90BD     		pop	{r4, r7, pc}
 5669              		.cfi_endproc
 5670              	.LFE92:
 5671              		.size	PumpCredit2DefaultPpuChange, .-PumpCredit2DefaultPpuChange
 5672 01e2 00BF     		.section	.text.PumpStopRequest,"ax",%progbits
 5673              		.align	2
 5674              		.global	PumpStopRequest
 5675              		.thumb
 5676              		.thumb_func
 5677              		.type	PumpStopRequest, %function
 5678              	PumpStopRequest:
 5679              	.LFB93:
1491:.\PrimeImpl.c **** 
1492:.\PrimeImpl.c **** //@Created By: HIJH
1493:.\PrimeImpl.c **** //@Septembre de 2016
1494:.\PrimeImpl.c **** void PumpStopRequest(void *pparam)
1495:.\PrimeImpl.c **** {
 5680              		.loc 1 1495 0
 5681              		.cfi_startproc
 5682              		@ args = 0, pretend = 0, frame = 24
 5683              		@ frame_needed = 1, uses_anonymous_args = 0
 5684 0000 80B5     		push	{r7, lr}
 5685              		.cfi_def_cfa_offset 8
 5686              		.cfi_offset 7, -8
 5687              		.cfi_offset 14, -4
 5688 0002 86B0     		sub	sp, sp, #24
 5689              		.cfi_def_cfa_offset 32
 5690 0004 00AF     		add	r7, sp, #0
 5691              		.cfi_def_cfa_register 7
 5692 0006 7860     		str	r0, [r7, #4]
1496:.\PrimeImpl.c ****     PNEAR_PUMPPTR ppump = (PNEAR_PUMPPTR)pparam;
 5693              		.loc 1 1496 0
 5694 0008 7B68     		ldr	r3, [r7, #4]
 5695 000a 7B61     		str	r3, [r7, #20]
1497:.\PrimeImpl.c ****     if(ppump)
 5696              		.loc 1 1497 0
 5697 000c 7B69     		ldr	r3, [r7, #20]
 5698 000e 002B     		cmp	r3, #0
 5699 0010 28D0     		beq	.L203
 5700              	.LBB36:
1498:.\PrimeImpl.c ****     {                
1499:.\PrimeImpl.c ****         uint8_t index = 0;
 5701              		.loc 1 1499 0
 5702 0012 0023     		movs	r3, #0
 5703 0014 FB74     		strb	r3, [r7, #19]
1500:.\PrimeImpl.c ****         memset(ppump->_rxbuffer, 0x00, _PUMP_RX_BUFFER_SIZE_);
 5704              		.loc 1 1500 0
 5705 0016 7B69     		ldr	r3, [r7, #20]
 5706 0018 03F5C473 		add	r3, r3, #392
 5707 001c 1846     		mov	r0, r3
 5708 001e 0021     		movs	r1, #0
 5709 0020 4FF4B472 		mov	r2, #360
 5710 0024 FFF7FEFF 		bl	memset
1501:.\PrimeImpl.c ****         PUARTMESSAGEPTR puartdisp = GetUARTMessageSlot(UART_DISPENSER);
 5711              		.loc 1 1501 0
 5712 0028 A220     		movs	r0, #162
ARM GAS  C:\Users\RECEPC~1\AppData\Local\Temp\ccvxjDo6.s 			page 128


 5713 002a FFF7FEFF 		bl	GetUARTMessageSlot
 5714 002e F860     		str	r0, [r7, #12]
1502:.\PrimeImpl.c ****         if(puartdisp)
 5715              		.loc 1 1502 0
 5716 0030 FB68     		ldr	r3, [r7, #12]
 5717 0032 002B     		cmp	r3, #0
 5718 0034 16D0     		beq	.L203
1503:.\PrimeImpl.c ****         {
1504:.\PrimeImpl.c ****             //Just one byte for the response
1505:.\PrimeImpl.c ****             puartdisp->_messagetx[index++] = PUMP_COMMAND(PUMP_PUMP_STOP, ppump->_pumpid);
 5719              		.loc 1 1505 0
 5720 0036 FB7C     		ldrb	r3, [r7, #19]	@ zero_extendqisi2
 5721 0038 5A1C     		adds	r2, r3, #1
 5722 003a FA74     		strb	r2, [r7, #19]
 5723 003c 1946     		mov	r1, r3
 5724 003e 7B69     		ldr	r3, [r7, #20]
 5725 0040 1B78     		ldrb	r3, [r3]	@ zero_extendqisi2
 5726 0042 DBB2     		uxtb	r3, r3
 5727 0044 03F00F03 		and	r3, r3, #15
 5728 0048 DBB2     		uxtb	r3, r3
 5729 004a 43F03003 		orr	r3, r3, #48
 5730 004e DBB2     		uxtb	r3, r3
 5731 0050 DAB2     		uxtb	r2, r3
 5732 0052 FB68     		ldr	r3, [r7, #12]
 5733 0054 0B44     		add	r3, r3, r1
 5734 0056 1A71     		strb	r2, [r3, #4]
1506:.\PrimeImpl.c ****             puartdisp->_messagelength = 1;//One byte
 5735              		.loc 1 1506 0
 5736 0058 FB68     		ldr	r3, [r7, #12]
 5737 005a 0122     		movs	r2, #1
 5738 005c 5A80     		strh	r2, [r3, #2]	@ movhi
1507:.\PrimeImpl.c ****             puartdisp->_messagestate = PENDING;
 5739              		.loc 1 1507 0
 5740 005e FB68     		ldr	r3, [r7, #12]
 5741 0060 C222     		movs	r2, #194
 5742 0062 1A70     		strb	r2, [r3]
 5743              	.L203:
 5744              	.LBE36:
1508:.\PrimeImpl.c ****         }        
1509:.\PrimeImpl.c ****     }
1510:.\PrimeImpl.c **** }
 5745              		.loc 1 1510 0
 5746 0064 1837     		adds	r7, r7, #24
 5747              		.cfi_def_cfa_offset 8
 5748 0066 BD46     		mov	sp, r7
 5749              		.cfi_def_cfa_register 13
 5750              		@ sp needed
 5751 0068 80BD     		pop	{r7, pc}
 5752              		.cfi_endproc
 5753              	.LFE93:
 5754              		.size	PumpStopRequest, .-PumpStopRequest
 5755 006a 00BF     		.section	.text.PumpStopAllRequest,"ax",%progbits
 5756              		.align	2
 5757              		.global	PumpStopAllRequest
 5758              		.thumb
 5759              		.thumb_func
 5760              		.type	PumpStopAllRequest, %function
ARM GAS  C:\Users\RECEPC~1\AppData\Local\Temp\ccvxjDo6.s 			page 129


 5761              	PumpStopAllRequest:
 5762              	.LFB94:
1511:.\PrimeImpl.c **** 
1512:.\PrimeImpl.c **** //@Created By: HIJH
1513:.\PrimeImpl.c **** //@Septembre de 2016
1514:.\PrimeImpl.c **** void PumpStopAllRequest(void *pparam)
1515:.\PrimeImpl.c **** {
 5763              		.loc 1 1515 0
 5764              		.cfi_startproc
 5765              		@ args = 0, pretend = 0, frame = 24
 5766              		@ frame_needed = 1, uses_anonymous_args = 0
 5767 0000 80B5     		push	{r7, lr}
 5768              		.cfi_def_cfa_offset 8
 5769              		.cfi_offset 7, -8
 5770              		.cfi_offset 14, -4
 5771 0002 86B0     		sub	sp, sp, #24
 5772              		.cfi_def_cfa_offset 32
 5773 0004 00AF     		add	r7, sp, #0
 5774              		.cfi_def_cfa_register 7
 5775 0006 7860     		str	r0, [r7, #4]
1516:.\PrimeImpl.c ****     PNEAR_PUMPPTR ppump = (PNEAR_PUMPPTR)pparam;
 5776              		.loc 1 1516 0
 5777 0008 7B68     		ldr	r3, [r7, #4]
 5778 000a 7B61     		str	r3, [r7, #20]
1517:.\PrimeImpl.c ****     if(ppump)
 5779              		.loc 1 1517 0
 5780 000c 7B69     		ldr	r3, [r7, #20]
 5781 000e 002B     		cmp	r3, #0
 5782 0010 23D0     		beq	.L205
 5783              	.LBB37:
1518:.\PrimeImpl.c ****     {                
1519:.\PrimeImpl.c ****         uint8_t index = 0;
 5784              		.loc 1 1519 0
 5785 0012 0023     		movs	r3, #0
 5786 0014 FB74     		strb	r3, [r7, #19]
1520:.\PrimeImpl.c ****         memset(ppump->_rxbuffer, 0x00, _PUMP_RX_BUFFER_SIZE_);
 5787              		.loc 1 1520 0
 5788 0016 7B69     		ldr	r3, [r7, #20]
 5789 0018 03F5C473 		add	r3, r3, #392
 5790 001c 1846     		mov	r0, r3
 5791 001e 0021     		movs	r1, #0
 5792 0020 4FF4B472 		mov	r2, #360
 5793 0024 FFF7FEFF 		bl	memset
1521:.\PrimeImpl.c ****         PUARTMESSAGEPTR puartdisp = GetUARTMessageSlot(UART_DISPENSER);
 5794              		.loc 1 1521 0
 5795 0028 A220     		movs	r0, #162
 5796 002a FFF7FEFF 		bl	GetUARTMessageSlot
 5797 002e F860     		str	r0, [r7, #12]
1522:.\PrimeImpl.c ****         if(puartdisp)
 5798              		.loc 1 1522 0
 5799 0030 FB68     		ldr	r3, [r7, #12]
 5800 0032 002B     		cmp	r3, #0
 5801 0034 11D0     		beq	.L205
1523:.\PrimeImpl.c ****         {
1524:.\PrimeImpl.c ****             //Just one byte for the response
1525:.\PrimeImpl.c ****             puartdisp->_messagetx[index++] = PUMP_COMMAND(PUMP_ALL_PUMPS_STOP, ppump->_pumpid);
 5802              		.loc 1 1525 0
ARM GAS  C:\Users\RECEPC~1\AppData\Local\Temp\ccvxjDo6.s 			page 130


 5803 0036 FB7C     		ldrb	r3, [r7, #19]	@ zero_extendqisi2
 5804 0038 5A1C     		adds	r2, r3, #1
 5805 003a FA74     		strb	r2, [r7, #19]
 5806 003c 1946     		mov	r1, r3
 5807 003e 7B69     		ldr	r3, [r7, #20]
 5808 0040 1B78     		ldrb	r3, [r3]	@ zero_extendqisi2
 5809 0042 63F00F03 		orn	r3, r3, #15
 5810 0046 DAB2     		uxtb	r2, r3
 5811 0048 FB68     		ldr	r3, [r7, #12]
 5812 004a 0B44     		add	r3, r3, r1
 5813 004c 1A71     		strb	r2, [r3, #4]
1526:.\PrimeImpl.c ****             puartdisp->_messagelength = 1;//One byte
 5814              		.loc 1 1526 0
 5815 004e FB68     		ldr	r3, [r7, #12]
 5816 0050 0122     		movs	r2, #1
 5817 0052 5A80     		strh	r2, [r3, #2]	@ movhi
1527:.\PrimeImpl.c ****             puartdisp->_messagestate = PENDING;
 5818              		.loc 1 1527 0
 5819 0054 FB68     		ldr	r3, [r7, #12]
 5820 0056 C222     		movs	r2, #194
 5821 0058 1A70     		strb	r2, [r3]
 5822              	.L205:
 5823              	.LBE37:
1528:.\PrimeImpl.c ****         }        
1529:.\PrimeImpl.c ****     }
1530:.\PrimeImpl.c **** }
 5824              		.loc 1 1530 0
 5825 005a 1837     		adds	r7, r7, #24
 5826              		.cfi_def_cfa_offset 8
 5827 005c BD46     		mov	sp, r7
 5828              		.cfi_def_cfa_register 13
 5829              		@ sp needed
 5830 005e 80BD     		pop	{r7, pc}
 5831              		.cfi_endproc
 5832              	.LFE94:
 5833              		.size	PumpStopAllRequest, .-PumpStopAllRequest
 5834              		.section	.text.PumpMiscellaneousConfiguration,"ax",%progbits
 5835              		.align	2
 5836              		.global	PumpMiscellaneousConfiguration
 5837              		.thumb
 5838              		.thumb_func
 5839              		.type	PumpMiscellaneousConfiguration, %function
 5840              	PumpMiscellaneousConfiguration:
 5841              	.LFB95:
1531:.\PrimeImpl.c **** 
1532:.\PrimeImpl.c **** //@Created By: HIJH
1533:.\PrimeImpl.c **** //@Septembre de 2016
1534:.\PrimeImpl.c **** void PumpMiscellaneousConfiguration(LPVOID pparam)
1535:.\PrimeImpl.c **** {
 5842              		.loc 1 1535 0
 5843              		.cfi_startproc
 5844              		@ args = 0, pretend = 0, frame = 24
 5845              		@ frame_needed = 1, uses_anonymous_args = 0
 5846 0000 90B5     		push	{r4, r7, lr}
 5847              		.cfi_def_cfa_offset 12
 5848              		.cfi_offset 4, -12
 5849              		.cfi_offset 7, -8
ARM GAS  C:\Users\RECEPC~1\AppData\Local\Temp\ccvxjDo6.s 			page 131


 5850              		.cfi_offset 14, -4
 5851 0002 87B0     		sub	sp, sp, #28
 5852              		.cfi_def_cfa_offset 40
 5853 0004 00AF     		add	r7, sp, #0
 5854              		.cfi_def_cfa_register 7
 5855 0006 7860     		str	r0, [r7, #4]
1536:.\PrimeImpl.c ****     PNEAR_PUMPPTR ppump = (PNEAR_PUMPPTR)pparam;
 5856              		.loc 1 1536 0
 5857 0008 7B68     		ldr	r3, [r7, #4]
 5858 000a 7B61     		str	r3, [r7, #20]
1537:.\PrimeImpl.c ****     if(ppump)
 5859              		.loc 1 1537 0
 5860 000c 7B69     		ldr	r3, [r7, #20]
 5861 000e 002B     		cmp	r3, #0
 5862 0010 66D0     		beq	.L207
 5863              	.LBB38:
1538:.\PrimeImpl.c ****     {
1539:.\PrimeImpl.c ****         uint8_t index = 0;  
 5864              		.loc 1 1539 0
 5865 0012 0023     		movs	r3, #0
 5866 0014 FB74     		strb	r3, [r7, #19]
1540:.\PrimeImpl.c ****         memset(ppump->_rxbuffer, 0x00, _PUMP_RX_BUFFER_SIZE_);
 5867              		.loc 1 1540 0
 5868 0016 7B69     		ldr	r3, [r7, #20]
 5869 0018 03F5C473 		add	r3, r3, #392
 5870 001c 1846     		mov	r0, r3
 5871 001e 0021     		movs	r1, #0
 5872 0020 4FF4B472 		mov	r2, #360
 5873 0024 FFF7FEFF 		bl	memset
1541:.\PrimeImpl.c ****         PUARTMESSAGEPTR puartdisp = GetUARTMessageSlot(UART_DISPENSER);
 5874              		.loc 1 1541 0
 5875 0028 A220     		movs	r0, #162
 5876 002a FFF7FEFF 		bl	GetUARTMessageSlot
 5877 002e F860     		str	r0, [r7, #12]
1542:.\PrimeImpl.c ****         if(puartdisp)
 5878              		.loc 1 1542 0
 5879 0030 FB68     		ldr	r3, [r7, #12]
 5880 0032 002B     		cmp	r3, #0
 5881 0034 54D0     		beq	.L207
1543:.\PrimeImpl.c ****         {
1544:.\PrimeImpl.c **** ///////////////////////////////////////////////////////////////////////////////////////////////////
1545:.\PrimeImpl.c ****             puartdisp->_messagetx[index++] = SOM;//Start Of Message
 5882              		.loc 1 1545 0
 5883 0036 FB7C     		ldrb	r3, [r7, #19]	@ zero_extendqisi2
 5884 0038 5A1C     		adds	r2, r3, #1
 5885 003a FA74     		strb	r2, [r7, #19]
 5886 003c 1A46     		mov	r2, r3
 5887 003e FB68     		ldr	r3, [r7, #12]
 5888 0040 1344     		add	r3, r3, r2
 5889 0042 FF22     		movs	r2, #255
 5890 0044 1A71     		strb	r2, [r3, #4]
1546:.\PrimeImpl.c ****             puartdisp->_messagetx[index++] = 0xE9;//Data Length
 5891              		.loc 1 1546 0
 5892 0046 FB7C     		ldrb	r3, [r7, #19]	@ zero_extendqisi2
 5893 0048 5A1C     		adds	r2, r3, #1
 5894 004a FA74     		strb	r2, [r7, #19]
 5895 004c 1A46     		mov	r2, r3
ARM GAS  C:\Users\RECEPC~1\AppData\Local\Temp\ccvxjDo6.s 			page 132


 5896 004e FB68     		ldr	r3, [r7, #12]
 5897 0050 1344     		add	r3, r3, r2
 5898 0052 E922     		movs	r2, #233
 5899 0054 1A71     		strb	r2, [r3, #4]
1547:.\PrimeImpl.c ****             puartdisp->_messagetx[index++] = 0xFE;//Special Functions Next (0xB0 0xB0 0xB6)
 5900              		.loc 1 1547 0
 5901 0056 FB7C     		ldrb	r3, [r7, #19]	@ zero_extendqisi2
 5902 0058 5A1C     		adds	r2, r3, #1
 5903 005a FA74     		strb	r2, [r7, #19]
 5904 005c 1A46     		mov	r2, r3
 5905 005e FB68     		ldr	r3, [r7, #12]
 5906 0060 1344     		add	r3, r3, r2
 5907 0062 FE22     		movs	r2, #254
 5908 0064 1A71     		strb	r2, [r3, #4]
1548:.\PrimeImpl.c ****             puartdisp->_messagetx[index++] = 0xEE;//Miscellaneous Pump Configuration Request (sf1)
 5909              		.loc 1 1548 0
 5910 0066 FB7C     		ldrb	r3, [r7, #19]	@ zero_extendqisi2
 5911 0068 5A1C     		adds	r2, r3, #1
 5912 006a FA74     		strb	r2, [r7, #19]
 5913 006c 1A46     		mov	r2, r3
 5914 006e FB68     		ldr	r3, [r7, #12]
 5915 0070 1344     		add	r3, r3, r2
 5916 0072 EE22     		movs	r2, #238
 5917 0074 1A71     		strb	r2, [r3, #4]
1549:.\PrimeImpl.c ****             puartdisp->_messagetx[index++] = 0xE0;//Miscellaneous Pump Configuration Request (sf2)
 5918              		.loc 1 1549 0
 5919 0076 FB7C     		ldrb	r3, [r7, #19]	@ zero_extendqisi2
 5920 0078 5A1C     		adds	r2, r3, #1
 5921 007a FA74     		strb	r2, [r7, #19]
 5922 007c 1A46     		mov	r2, r3
 5923 007e FB68     		ldr	r3, [r7, #12]
 5924 0080 1344     		add	r3, r3, r2
 5925 0082 E022     		movs	r2, #224
 5926 0084 1A71     		strb	r2, [r3, #4]
1550:.\PrimeImpl.c ****             puartdisp->_messagetx[index++] = 0xE0;//Miscellaneous Pump Configuration Request (sf3)
 5927              		.loc 1 1550 0
 5928 0086 FB7C     		ldrb	r3, [r7, #19]	@ zero_extendqisi2
 5929 0088 5A1C     		adds	r2, r3, #1
 5930 008a FA74     		strb	r2, [r7, #19]
 5931 008c 1A46     		mov	r2, r3
 5932 008e FB68     		ldr	r3, [r7, #12]
 5933 0090 1344     		add	r3, r3, r2
 5934 0092 E022     		movs	r2, #224
 5935 0094 1A71     		strb	r2, [r3, #4]
1551:.\PrimeImpl.c ****             puartdisp->_messagetx[index++] = 0xFB;
 5936              		.loc 1 1551 0
 5937 0096 FB7C     		ldrb	r3, [r7, #19]	@ zero_extendqisi2
 5938 0098 5A1C     		adds	r2, r3, #1
 5939 009a FA74     		strb	r2, [r7, #19]
 5940 009c 1A46     		mov	r2, r3
 5941 009e FB68     		ldr	r3, [r7, #12]
 5942 00a0 1344     		add	r3, r3, r2
 5943 00a2 FB22     		movs	r2, #251
 5944 00a4 1A71     		strb	r2, [r3, #4]
1552:.\PrimeImpl.c ****             puartdisp->_messagetx[index++] = GetLRC(puartdisp->_messagetx);
 5945              		.loc 1 1552 0
 5946 00a6 FB7C     		ldrb	r3, [r7, #19]	@ zero_extendqisi2
ARM GAS  C:\Users\RECEPC~1\AppData\Local\Temp\ccvxjDo6.s 			page 133


 5947 00a8 5A1C     		adds	r2, r3, #1
 5948 00aa FA74     		strb	r2, [r7, #19]
 5949 00ac 1C46     		mov	r4, r3
 5950 00ae FB68     		ldr	r3, [r7, #12]
 5951 00b0 0433     		adds	r3, r3, #4
 5952 00b2 1846     		mov	r0, r3
 5953 00b4 FFF7FEFF 		bl	GetLRC
 5954 00b8 0346     		mov	r3, r0
 5955 00ba 1A46     		mov	r2, r3
 5956 00bc FB68     		ldr	r3, [r7, #12]
 5957 00be 2344     		add	r3, r3, r4
 5958 00c0 1A71     		strb	r2, [r3, #4]
1553:.\PrimeImpl.c ****             puartdisp->_messagetx[index++] = EOM;
 5959              		.loc 1 1553 0
 5960 00c2 FB7C     		ldrb	r3, [r7, #19]	@ zero_extendqisi2
 5961 00c4 5A1C     		adds	r2, r3, #1
 5962 00c6 FA74     		strb	r2, [r7, #19]
 5963 00c8 1A46     		mov	r2, r3
 5964 00ca FB68     		ldr	r3, [r7, #12]
 5965 00cc 1344     		add	r3, r3, r2
 5966 00ce F022     		movs	r2, #240
 5967 00d0 1A71     		strb	r2, [r3, #4]
1554:.\PrimeImpl.c **** ///////////////////////////////////////////////////////////////////////////////////////////////////
1555:.\PrimeImpl.c ****             
1556:.\PrimeImpl.c ****             puartdisp->_messagelength = index;
 5968              		.loc 1 1556 0
 5969 00d2 FB7C     		ldrb	r3, [r7, #19]	@ zero_extendqisi2
 5970 00d4 9AB2     		uxth	r2, r3
 5971 00d6 FB68     		ldr	r3, [r7, #12]
 5972 00d8 5A80     		strh	r2, [r3, #2]	@ movhi
1557:.\PrimeImpl.c ****             puartdisp->_messagestate = PENDING;
 5973              		.loc 1 1557 0
 5974 00da FB68     		ldr	r3, [r7, #12]
 5975 00dc C222     		movs	r2, #194
 5976 00de 1A70     		strb	r2, [r3]
 5977              	.L207:
 5978              	.LBE38:
1558:.\PrimeImpl.c ****         }
1559:.\PrimeImpl.c ****     }
1560:.\PrimeImpl.c **** }
 5979              		.loc 1 1560 0
 5980 00e0 1C37     		adds	r7, r7, #28
 5981              		.cfi_def_cfa_offset 12
 5982 00e2 BD46     		mov	sp, r7
 5983              		.cfi_def_cfa_register 13
 5984              		@ sp needed
 5985 00e4 90BD     		pop	{r4, r7, pc}
 5986              		.cfi_endproc
 5987              	.LFE95:
 5988              		.size	PumpMiscellaneousConfiguration, .-PumpMiscellaneousConfiguration
 5989 00e6 00BF     		.section	.text.AcquirePumpMiscellaneousConfiguration,"ax",%progbits
 5990              		.align	2
 5991              		.global	AcquirePumpMiscellaneousConfiguration
 5992              		.thumb
 5993              		.thumb_func
 5994              		.type	AcquirePumpMiscellaneousConfiguration, %function
 5995              	AcquirePumpMiscellaneousConfiguration:
ARM GAS  C:\Users\RECEPC~1\AppData\Local\Temp\ccvxjDo6.s 			page 134


 5996              	.LFB96:
1561:.\PrimeImpl.c **** 
1562:.\PrimeImpl.c **** //@Created By: HIJH
1563:.\PrimeImpl.c **** //@Date: Septembre de 2016
1564:.\PrimeImpl.c **** //Receives the miscellaneous pump configuration information
1565:.\PrimeImpl.c **** void AcquirePumpMiscellaneousConfiguration(void *pparam)
1566:.\PrimeImpl.c **** {
 5997              		.loc 1 1566 0
 5998              		.cfi_startproc
 5999              		@ args = 0, pretend = 0, frame = 16
 6000              		@ frame_needed = 1, uses_anonymous_args = 0
 6001              		@ link register save eliminated.
 6002 0000 80B4     		push	{r7}
 6003              		.cfi_def_cfa_offset 4
 6004              		.cfi_offset 7, -4
 6005 0002 85B0     		sub	sp, sp, #20
 6006              		.cfi_def_cfa_offset 24
 6007 0004 00AF     		add	r7, sp, #0
 6008              		.cfi_def_cfa_register 7
 6009 0006 7860     		str	r0, [r7, #4]
1567:.\PrimeImpl.c ****     PPUMPTRANSACTIONJOBCONTEXTPTR pjob = (PPUMPTRANSACTIONJOBCONTEXTPTR)pparam;
 6010              		.loc 1 1567 0
 6011 0008 7B68     		ldr	r3, [r7, #4]
 6012 000a FB60     		str	r3, [r7, #12]
1568:.\PrimeImpl.c ****     if(pjob)
1569:.\PrimeImpl.c ****     {
1570:.\PrimeImpl.c ****         //HERE WE ACQUIRE THE MISCELLANEOUS PUMP CONFIGURATION INFORMATION AND STORE IT INTO
1571:.\PrimeImpl.c ****         //THE PERSISTENT FILE SYSTEM (EEPROM)
1572:.\PrimeImpl.c ****     }
1573:.\PrimeImpl.c **** }
 6013              		.loc 1 1573 0
 6014 000c 1437     		adds	r7, r7, #20
 6015              		.cfi_def_cfa_offset 4
 6016 000e BD46     		mov	sp, r7
 6017              		.cfi_def_cfa_register 13
 6018              		@ sp needed
 6019 0010 5DF8047B 		ldr	r7, [sp], #4
 6020              		.cfi_restore 7
 6021              		.cfi_def_cfa_offset 0
 6022 0014 7047     		bx	lr
 6023              		.cfi_endproc
 6024              	.LFE96:
 6025              		.size	AcquirePumpMiscellaneousConfiguration, .-AcquirePumpMiscellaneousConfiguration
 6026 0016 00BF     		.section	.text.PumpCompleteConfiguration,"ax",%progbits
 6027              		.align	2
 6028              		.global	PumpCompleteConfiguration
 6029              		.thumb
 6030              		.thumb_func
 6031              		.type	PumpCompleteConfiguration, %function
 6032              	PumpCompleteConfiguration:
 6033              	.LFB97:
1574:.\PrimeImpl.c **** 
1575:.\PrimeImpl.c **** //@Created By: HIJH
1576:.\PrimeImpl.c **** //@Septembre de 2016
1577:.\PrimeImpl.c **** void PumpCompleteConfiguration(LPVOID pparam)
1578:.\PrimeImpl.c **** {
 6034              		.loc 1 1578 0
ARM GAS  C:\Users\RECEPC~1\AppData\Local\Temp\ccvxjDo6.s 			page 135


 6035              		.cfi_startproc
 6036              		@ args = 0, pretend = 0, frame = 24
 6037              		@ frame_needed = 1, uses_anonymous_args = 0
 6038 0000 90B5     		push	{r4, r7, lr}
 6039              		.cfi_def_cfa_offset 12
 6040              		.cfi_offset 4, -12
 6041              		.cfi_offset 7, -8
 6042              		.cfi_offset 14, -4
 6043 0002 87B0     		sub	sp, sp, #28
 6044              		.cfi_def_cfa_offset 40
 6045 0004 00AF     		add	r7, sp, #0
 6046              		.cfi_def_cfa_register 7
 6047 0006 7860     		str	r0, [r7, #4]
1579:.\PrimeImpl.c ****     PNEAR_PUMPPTR ppump = (PNEAR_PUMPPTR)pparam;
 6048              		.loc 1 1579 0
 6049 0008 7B68     		ldr	r3, [r7, #4]
 6050 000a 7B61     		str	r3, [r7, #20]
1580:.\PrimeImpl.c ****     if(ppump)
 6051              		.loc 1 1580 0
 6052 000c 7B69     		ldr	r3, [r7, #20]
 6053 000e 002B     		cmp	r3, #0
 6054 0010 66D0     		beq	.L210
 6055              	.LBB39:
1581:.\PrimeImpl.c ****     {
1582:.\PrimeImpl.c ****         uint8_t index = 0;  
 6056              		.loc 1 1582 0
 6057 0012 0023     		movs	r3, #0
 6058 0014 FB74     		strb	r3, [r7, #19]
1583:.\PrimeImpl.c ****         memset(ppump->_rxbuffer, 0x00, _PUMP_RX_BUFFER_SIZE_);
 6059              		.loc 1 1583 0
 6060 0016 7B69     		ldr	r3, [r7, #20]
 6061 0018 03F5C473 		add	r3, r3, #392
 6062 001c 1846     		mov	r0, r3
 6063 001e 0021     		movs	r1, #0
 6064 0020 4FF4B472 		mov	r2, #360
 6065 0024 FFF7FEFF 		bl	memset
1584:.\PrimeImpl.c ****         PUARTMESSAGEPTR puartdisp = GetUARTMessageSlot(UART_DISPENSER);
 6066              		.loc 1 1584 0
 6067 0028 A220     		movs	r0, #162
 6068 002a FFF7FEFF 		bl	GetUARTMessageSlot
 6069 002e F860     		str	r0, [r7, #12]
1585:.\PrimeImpl.c ****         if(puartdisp)
 6070              		.loc 1 1585 0
 6071 0030 FB68     		ldr	r3, [r7, #12]
 6072 0032 002B     		cmp	r3, #0
 6073 0034 54D0     		beq	.L210
1586:.\PrimeImpl.c ****         {
1587:.\PrimeImpl.c **** ///////////////////////////////////////////////////////////////////////////////////////////////////
1588:.\PrimeImpl.c ****             puartdisp->_messagetx[index++] = SOM;//Start Of Message
 6074              		.loc 1 1588 0
 6075 0036 FB7C     		ldrb	r3, [r7, #19]	@ zero_extendqisi2
 6076 0038 5A1C     		adds	r2, r3, #1
 6077 003a FA74     		strb	r2, [r7, #19]
 6078 003c 1A46     		mov	r2, r3
 6079 003e FB68     		ldr	r3, [r7, #12]
 6080 0040 1344     		add	r3, r3, r2
 6081 0042 FF22     		movs	r2, #255
ARM GAS  C:\Users\RECEPC~1\AppData\Local\Temp\ccvxjDo6.s 			page 136


 6082 0044 1A71     		strb	r2, [r3, #4]
1589:.\PrimeImpl.c ****             puartdisp->_messagetx[index++] = 0xE9;//Data Length
 6083              		.loc 1 1589 0
 6084 0046 FB7C     		ldrb	r3, [r7, #19]	@ zero_extendqisi2
 6085 0048 5A1C     		adds	r2, r3, #1
 6086 004a FA74     		strb	r2, [r7, #19]
 6087 004c 1A46     		mov	r2, r3
 6088 004e FB68     		ldr	r3, [r7, #12]
 6089 0050 1344     		add	r3, r3, r2
 6090 0052 E922     		movs	r2, #233
 6091 0054 1A71     		strb	r2, [r3, #4]
1590:.\PrimeImpl.c ****             puartdisp->_messagetx[index++] = 0xFE;//Special Functions Next (0xB0 0xB0 0xB6)
 6092              		.loc 1 1590 0
 6093 0056 FB7C     		ldrb	r3, [r7, #19]	@ zero_extendqisi2
 6094 0058 5A1C     		adds	r2, r3, #1
 6095 005a FA74     		strb	r2, [r7, #19]
 6096 005c 1A46     		mov	r2, r3
 6097 005e FB68     		ldr	r3, [r7, #12]
 6098 0060 1344     		add	r3, r3, r2
 6099 0062 FE22     		movs	r2, #254
 6100 0064 1A71     		strb	r2, [r3, #4]
1591:.\PrimeImpl.c ****             puartdisp->_messagetx[index++] = 0xE6;//Complete Pump Configuration Request (sf1)
 6101              		.loc 1 1591 0
 6102 0066 FB7C     		ldrb	r3, [r7, #19]	@ zero_extendqisi2
 6103 0068 5A1C     		adds	r2, r3, #1
 6104 006a FA74     		strb	r2, [r7, #19]
 6105 006c 1A46     		mov	r2, r3
 6106 006e FB68     		ldr	r3, [r7, #12]
 6107 0070 1344     		add	r3, r3, r2
 6108 0072 E622     		movs	r2, #230
 6109 0074 1A71     		strb	r2, [r3, #4]
1592:.\PrimeImpl.c ****             puartdisp->_messagetx[index++] = 0xE0;//Complete Pump Configuration Request (sf2)
 6110              		.loc 1 1592 0
 6111 0076 FB7C     		ldrb	r3, [r7, #19]	@ zero_extendqisi2
 6112 0078 5A1C     		adds	r2, r3, #1
 6113 007a FA74     		strb	r2, [r7, #19]
 6114 007c 1A46     		mov	r2, r3
 6115 007e FB68     		ldr	r3, [r7, #12]
 6116 0080 1344     		add	r3, r3, r2
 6117 0082 E022     		movs	r2, #224
 6118 0084 1A71     		strb	r2, [r3, #4]
1593:.\PrimeImpl.c ****             puartdisp->_messagetx[index++] = 0xE0;//Complete Pump Configuration Request (sf3)
 6119              		.loc 1 1593 0
 6120 0086 FB7C     		ldrb	r3, [r7, #19]	@ zero_extendqisi2
 6121 0088 5A1C     		adds	r2, r3, #1
 6122 008a FA74     		strb	r2, [r7, #19]
 6123 008c 1A46     		mov	r2, r3
 6124 008e FB68     		ldr	r3, [r7, #12]
 6125 0090 1344     		add	r3, r3, r2
 6126 0092 E022     		movs	r2, #224
 6127 0094 1A71     		strb	r2, [r3, #4]
1594:.\PrimeImpl.c ****             puartdisp->_messagetx[index++] = 0xFB;
 6128              		.loc 1 1594 0
 6129 0096 FB7C     		ldrb	r3, [r7, #19]	@ zero_extendqisi2
 6130 0098 5A1C     		adds	r2, r3, #1
 6131 009a FA74     		strb	r2, [r7, #19]
 6132 009c 1A46     		mov	r2, r3
ARM GAS  C:\Users\RECEPC~1\AppData\Local\Temp\ccvxjDo6.s 			page 137


 6133 009e FB68     		ldr	r3, [r7, #12]
 6134 00a0 1344     		add	r3, r3, r2
 6135 00a2 FB22     		movs	r2, #251
 6136 00a4 1A71     		strb	r2, [r3, #4]
1595:.\PrimeImpl.c ****             puartdisp->_messagetx[index++] = GetLRC(puartdisp->_messagetx);
 6137              		.loc 1 1595 0
 6138 00a6 FB7C     		ldrb	r3, [r7, #19]	@ zero_extendqisi2
 6139 00a8 5A1C     		adds	r2, r3, #1
 6140 00aa FA74     		strb	r2, [r7, #19]
 6141 00ac 1C46     		mov	r4, r3
 6142 00ae FB68     		ldr	r3, [r7, #12]
 6143 00b0 0433     		adds	r3, r3, #4
 6144 00b2 1846     		mov	r0, r3
 6145 00b4 FFF7FEFF 		bl	GetLRC
 6146 00b8 0346     		mov	r3, r0
 6147 00ba 1A46     		mov	r2, r3
 6148 00bc FB68     		ldr	r3, [r7, #12]
 6149 00be 2344     		add	r3, r3, r4
 6150 00c0 1A71     		strb	r2, [r3, #4]
1596:.\PrimeImpl.c ****             puartdisp->_messagetx[index++] = EOM;
 6151              		.loc 1 1596 0
 6152 00c2 FB7C     		ldrb	r3, [r7, #19]	@ zero_extendqisi2
 6153 00c4 5A1C     		adds	r2, r3, #1
 6154 00c6 FA74     		strb	r2, [r7, #19]
 6155 00c8 1A46     		mov	r2, r3
 6156 00ca FB68     		ldr	r3, [r7, #12]
 6157 00cc 1344     		add	r3, r3, r2
 6158 00ce F022     		movs	r2, #240
 6159 00d0 1A71     		strb	r2, [r3, #4]
1597:.\PrimeImpl.c **** ///////////////////////////////////////////////////////////////////////////////////////////////////
1598:.\PrimeImpl.c ****             
1599:.\PrimeImpl.c ****             puartdisp->_messagelength = index;
 6160              		.loc 1 1599 0
 6161 00d2 FB7C     		ldrb	r3, [r7, #19]	@ zero_extendqisi2
 6162 00d4 9AB2     		uxth	r2, r3
 6163 00d6 FB68     		ldr	r3, [r7, #12]
 6164 00d8 5A80     		strh	r2, [r3, #2]	@ movhi
1600:.\PrimeImpl.c ****             puartdisp->_messagestate = PENDING;
 6165              		.loc 1 1600 0
 6166 00da FB68     		ldr	r3, [r7, #12]
 6167 00dc C222     		movs	r2, #194
 6168 00de 1A70     		strb	r2, [r3]
 6169              	.L210:
 6170              	.LBE39:
1601:.\PrimeImpl.c ****         }
1602:.\PrimeImpl.c ****     }
1603:.\PrimeImpl.c **** }
 6171              		.loc 1 1603 0
 6172 00e0 1C37     		adds	r7, r7, #28
 6173              		.cfi_def_cfa_offset 12
 6174 00e2 BD46     		mov	sp, r7
 6175              		.cfi_def_cfa_register 13
 6176              		@ sp needed
 6177 00e4 90BD     		pop	{r4, r7, pc}
 6178              		.cfi_endproc
 6179              	.LFE97:
 6180              		.size	PumpCompleteConfiguration, .-PumpCompleteConfiguration
ARM GAS  C:\Users\RECEPC~1\AppData\Local\Temp\ccvxjDo6.s 			page 138


 6181 00e6 00BF     		.section	.text.PumpHoseActiveState,"ax",%progbits
 6182              		.align	2
 6183              		.global	PumpHoseActiveState
 6184              		.thumb
 6185              		.thumb_func
 6186              		.type	PumpHoseActiveState, %function
 6187              	PumpHoseActiveState:
 6188              	.LFB98:
1604:.\PrimeImpl.c **** 
1605:.\PrimeImpl.c **** //@Created By: HIJH
1606:.\PrimeImpl.c **** //@Septembre de 2016
1607:.\PrimeImpl.c **** //Hose Selected/Status Request
1608:.\PrimeImpl.c **** void PumpHoseActiveState(LPVOID pparam)
1609:.\PrimeImpl.c **** {
 6189              		.loc 1 1609 0
 6190              		.cfi_startproc
 6191              		@ args = 0, pretend = 0, frame = 24
 6192              		@ frame_needed = 1, uses_anonymous_args = 0
 6193 0000 90B5     		push	{r4, r7, lr}
 6194              		.cfi_def_cfa_offset 12
 6195              		.cfi_offset 4, -12
 6196              		.cfi_offset 7, -8
 6197              		.cfi_offset 14, -4
 6198 0002 87B0     		sub	sp, sp, #28
 6199              		.cfi_def_cfa_offset 40
 6200 0004 00AF     		add	r7, sp, #0
 6201              		.cfi_def_cfa_register 7
 6202 0006 7860     		str	r0, [r7, #4]
1610:.\PrimeImpl.c ****     PNEAR_PUMPPTR ppump = (PNEAR_PUMPPTR)pparam;
 6203              		.loc 1 1610 0
 6204 0008 7B68     		ldr	r3, [r7, #4]
 6205 000a 7B61     		str	r3, [r7, #20]
1611:.\PrimeImpl.c ****     if(ppump)
 6206              		.loc 1 1611 0
 6207 000c 7B69     		ldr	r3, [r7, #20]
 6208 000e 002B     		cmp	r3, #0
 6209 0010 69D0     		beq	.L212
 6210              	.LBB40:
1612:.\PrimeImpl.c ****     {
1613:.\PrimeImpl.c ****         uint8_t index = 0;  
 6211              		.loc 1 1613 0
 6212 0012 0023     		movs	r3, #0
 6213 0014 FB74     		strb	r3, [r7, #19]
1614:.\PrimeImpl.c ****         memset(ppump->_rxbuffer, 0x00, _PUMP_RX_BUFFER_SIZE_);
 6214              		.loc 1 1614 0
 6215 0016 7B69     		ldr	r3, [r7, #20]
 6216 0018 03F5C473 		add	r3, r3, #392
 6217 001c 1846     		mov	r0, r3
 6218 001e 0021     		movs	r1, #0
 6219 0020 4FF4B472 		mov	r2, #360
 6220 0024 FFF7FEFF 		bl	memset
1615:.\PrimeImpl.c ****         PUARTMESSAGEPTR puartdisp = GetUARTMessageSlot(UART_DISPENSER);
 6221              		.loc 1 1615 0
 6222 0028 A220     		movs	r0, #162
 6223 002a FFF7FEFF 		bl	GetUARTMessageSlot
 6224 002e F860     		str	r0, [r7, #12]
1616:.\PrimeImpl.c ****         if(puartdisp)
ARM GAS  C:\Users\RECEPC~1\AppData\Local\Temp\ccvxjDo6.s 			page 139


 6225              		.loc 1 1616 0
 6226 0030 FB68     		ldr	r3, [r7, #12]
 6227 0032 002B     		cmp	r3, #0
 6228 0034 57D0     		beq	.L212
1617:.\PrimeImpl.c ****         {
1618:.\PrimeImpl.c ****             ppump->_hoseactivestate = 0x00;
 6229              		.loc 1 1618 0
 6230 0036 7B69     		ldr	r3, [r7, #20]
 6231 0038 0022     		movs	r2, #0
 6232 003a 1A71     		strb	r2, [r3, #4]
1619:.\PrimeImpl.c **** ///////////////////////////////////////////////////////////////////////////////////////////////////
1620:.\PrimeImpl.c ****             puartdisp->_messagetx[index++] = SOM;//Start Of Message
 6233              		.loc 1 1620 0
 6234 003c FB7C     		ldrb	r3, [r7, #19]	@ zero_extendqisi2
 6235 003e 5A1C     		adds	r2, r3, #1
 6236 0040 FA74     		strb	r2, [r7, #19]
 6237 0042 1A46     		mov	r2, r3
 6238 0044 FB68     		ldr	r3, [r7, #12]
 6239 0046 1344     		add	r3, r3, r2
 6240 0048 FF22     		movs	r2, #255
 6241 004a 1A71     		strb	r2, [r3, #4]
1621:.\PrimeImpl.c ****             puartdisp->_messagetx[index++] = 0xE9;//Data Length
 6242              		.loc 1 1621 0
 6243 004c FB7C     		ldrb	r3, [r7, #19]	@ zero_extendqisi2
 6244 004e 5A1C     		adds	r2, r3, #1
 6245 0050 FA74     		strb	r2, [r7, #19]
 6246 0052 1A46     		mov	r2, r3
 6247 0054 FB68     		ldr	r3, [r7, #12]
 6248 0056 1344     		add	r3, r3, r2
 6249 0058 E922     		movs	r2, #233
 6250 005a 1A71     		strb	r2, [r3, #4]
1622:.\PrimeImpl.c ****             puartdisp->_messagetx[index++] = 0xFE;//Special Functions Next (0xB0 0xB0 0xB6)
 6251              		.loc 1 1622 0
 6252 005c FB7C     		ldrb	r3, [r7, #19]	@ zero_extendqisi2
 6253 005e 5A1C     		adds	r2, r3, #1
 6254 0060 FA74     		strb	r2, [r7, #19]
 6255 0062 1A46     		mov	r2, r3
 6256 0064 FB68     		ldr	r3, [r7, #12]
 6257 0066 1344     		add	r3, r3, r2
 6258 0068 FE22     		movs	r2, #254
 6259 006a 1A71     		strb	r2, [r3, #4]
1623:.\PrimeImpl.c ****             puartdisp->_messagetx[index++] = 0xE0;//Complete Pump Configuration Request (sf1)
 6260              		.loc 1 1623 0
 6261 006c FB7C     		ldrb	r3, [r7, #19]	@ zero_extendqisi2
 6262 006e 5A1C     		adds	r2, r3, #1
 6263 0070 FA74     		strb	r2, [r7, #19]
 6264 0072 1A46     		mov	r2, r3
 6265 0074 FB68     		ldr	r3, [r7, #12]
 6266 0076 1344     		add	r3, r3, r2
 6267 0078 E022     		movs	r2, #224
 6268 007a 1A71     		strb	r2, [r3, #4]
1624:.\PrimeImpl.c ****             puartdisp->_messagetx[index++] = 0xE1;//Complete Pump Configuration Request (sf2)
 6269              		.loc 1 1624 0
 6270 007c FB7C     		ldrb	r3, [r7, #19]	@ zero_extendqisi2
 6271 007e 5A1C     		adds	r2, r3, #1
 6272 0080 FA74     		strb	r2, [r7, #19]
 6273 0082 1A46     		mov	r2, r3
ARM GAS  C:\Users\RECEPC~1\AppData\Local\Temp\ccvxjDo6.s 			page 140


 6274 0084 FB68     		ldr	r3, [r7, #12]
 6275 0086 1344     		add	r3, r3, r2
 6276 0088 E122     		movs	r2, #225
 6277 008a 1A71     		strb	r2, [r3, #4]
1625:.\PrimeImpl.c ****             puartdisp->_messagetx[index++] = 0xE0;//Complete Pump Configuration Request (sf3)
 6278              		.loc 1 1625 0
 6279 008c FB7C     		ldrb	r3, [r7, #19]	@ zero_extendqisi2
 6280 008e 5A1C     		adds	r2, r3, #1
 6281 0090 FA74     		strb	r2, [r7, #19]
 6282 0092 1A46     		mov	r2, r3
 6283 0094 FB68     		ldr	r3, [r7, #12]
 6284 0096 1344     		add	r3, r3, r2
 6285 0098 E022     		movs	r2, #224
 6286 009a 1A71     		strb	r2, [r3, #4]
1626:.\PrimeImpl.c ****             puartdisp->_messagetx[index++] = 0xFB;
 6287              		.loc 1 1626 0
 6288 009c FB7C     		ldrb	r3, [r7, #19]	@ zero_extendqisi2
 6289 009e 5A1C     		adds	r2, r3, #1
 6290 00a0 FA74     		strb	r2, [r7, #19]
 6291 00a2 1A46     		mov	r2, r3
 6292 00a4 FB68     		ldr	r3, [r7, #12]
 6293 00a6 1344     		add	r3, r3, r2
 6294 00a8 FB22     		movs	r2, #251
 6295 00aa 1A71     		strb	r2, [r3, #4]
1627:.\PrimeImpl.c ****             puartdisp->_messagetx[index++] = GetLRC(puartdisp->_messagetx);
 6296              		.loc 1 1627 0
 6297 00ac FB7C     		ldrb	r3, [r7, #19]	@ zero_extendqisi2
 6298 00ae 5A1C     		adds	r2, r3, #1
 6299 00b0 FA74     		strb	r2, [r7, #19]
 6300 00b2 1C46     		mov	r4, r3
 6301 00b4 FB68     		ldr	r3, [r7, #12]
 6302 00b6 0433     		adds	r3, r3, #4
 6303 00b8 1846     		mov	r0, r3
 6304 00ba FFF7FEFF 		bl	GetLRC
 6305 00be 0346     		mov	r3, r0
 6306 00c0 1A46     		mov	r2, r3
 6307 00c2 FB68     		ldr	r3, [r7, #12]
 6308 00c4 2344     		add	r3, r3, r4
 6309 00c6 1A71     		strb	r2, [r3, #4]
1628:.\PrimeImpl.c ****             puartdisp->_messagetx[index++] = EOM;
 6310              		.loc 1 1628 0
 6311 00c8 FB7C     		ldrb	r3, [r7, #19]	@ zero_extendqisi2
 6312 00ca 5A1C     		adds	r2, r3, #1
 6313 00cc FA74     		strb	r2, [r7, #19]
 6314 00ce 1A46     		mov	r2, r3
 6315 00d0 FB68     		ldr	r3, [r7, #12]
 6316 00d2 1344     		add	r3, r3, r2
 6317 00d4 F022     		movs	r2, #240
 6318 00d6 1A71     		strb	r2, [r3, #4]
1629:.\PrimeImpl.c **** ///////////////////////////////////////////////////////////////////////////////////////////////////
1630:.\PrimeImpl.c ****             
1631:.\PrimeImpl.c ****             puartdisp->_messagelength = index;
 6319              		.loc 1 1631 0
 6320 00d8 FB7C     		ldrb	r3, [r7, #19]	@ zero_extendqisi2
 6321 00da 9AB2     		uxth	r2, r3
 6322 00dc FB68     		ldr	r3, [r7, #12]
 6323 00de 5A80     		strh	r2, [r3, #2]	@ movhi
ARM GAS  C:\Users\RECEPC~1\AppData\Local\Temp\ccvxjDo6.s 			page 141


1632:.\PrimeImpl.c ****             puartdisp->_messagestate = PENDING;
 6324              		.loc 1 1632 0
 6325 00e0 FB68     		ldr	r3, [r7, #12]
 6326 00e2 C222     		movs	r2, #194
 6327 00e4 1A70     		strb	r2, [r3]
 6328              	.L212:
 6329              	.LBE40:
1633:.\PrimeImpl.c ****         }
1634:.\PrimeImpl.c ****     }
1635:.\PrimeImpl.c **** }
 6330              		.loc 1 1635 0
 6331 00e6 1C37     		adds	r7, r7, #28
 6332              		.cfi_def_cfa_offset 12
 6333 00e8 BD46     		mov	sp, r7
 6334              		.cfi_def_cfa_register 13
 6335              		@ sp needed
 6336 00ea 90BD     		pop	{r4, r7, pc}
 6337              		.cfi_endproc
 6338              	.LFE98:
 6339              		.size	PumpHoseActiveState, .-PumpHoseActiveState
 6340              		.section	.text.AcquirePumpHoseActiveState,"ax",%progbits
 6341              		.align	2
 6342              		.global	AcquirePumpHoseActiveState
 6343              		.thumb
 6344              		.thumb_func
 6345              		.type	AcquirePumpHoseActiveState, %function
 6346              	AcquirePumpHoseActiveState:
 6347              	.LFB99:
1636:.\PrimeImpl.c **** 
1637:.\PrimeImpl.c **** void AcquirePumpHoseActiveState(void *pparam)
1638:.\PrimeImpl.c **** {
 6348              		.loc 1 1638 0
 6349              		.cfi_startproc
 6350              		@ args = 0, pretend = 0, frame = 32
 6351              		@ frame_needed = 1, uses_anonymous_args = 0
 6352 0000 80B5     		push	{r7, lr}
 6353              		.cfi_def_cfa_offset 8
 6354              		.cfi_offset 7, -8
 6355              		.cfi_offset 14, -4
 6356 0002 88B0     		sub	sp, sp, #32
 6357              		.cfi_def_cfa_offset 40
 6358 0004 00AF     		add	r7, sp, #0
 6359              		.cfi_def_cfa_register 7
 6360 0006 7860     		str	r0, [r7, #4]
1639:.\PrimeImpl.c ****     PPUMPTRANSACTIONJOBCONTEXTPTR pjob = (PPUMPTRANSACTIONJOBCONTEXTPTR)pparam;
 6361              		.loc 1 1639 0
 6362 0008 7B68     		ldr	r3, [r7, #4]
 6363 000a FB61     		str	r3, [r7, #28]
1640:.\PrimeImpl.c ****     if(pjob)    
 6364              		.loc 1 1640 0
 6365 000c FB69     		ldr	r3, [r7, #28]
 6366 000e 002B     		cmp	r3, #0
 6367 0010 00F0E380 		beq	.L214
1641:.\PrimeImpl.c ****     {
1642:.\PrimeImpl.c ****         if(pjob->_ppump->_rxbuffer[0x00] == 0xBA)
 6368              		.loc 1 1642 0
 6369 0014 FB69     		ldr	r3, [r7, #28]
ARM GAS  C:\Users\RECEPC~1\AppData\Local\Temp\ccvxjDo6.s 			page 142


 6370 0016 DB69     		ldr	r3, [r3, #28]
 6371 0018 93F88831 		ldrb	r3, [r3, #392]	@ zero_extendqisi2
 6372 001c BA2B     		cmp	r3, #186
 6373 001e 40F0DC80 		bne	.L214
1643:.\PrimeImpl.c ****         {
1644:.\PrimeImpl.c ****             if((pjob->_ppump->_rxbuffer[0x0C] & 0x0F) == 0x01){
 6374              		.loc 1 1644 0
 6375 0022 FB69     		ldr	r3, [r7, #28]
 6376 0024 DB69     		ldr	r3, [r3, #28]
 6377 0026 93F89431 		ldrb	r3, [r3, #404]	@ zero_extendqisi2
 6378 002a 03F00F03 		and	r3, r3, #15
 6379 002e 012B     		cmp	r3, #1
 6380 0030 28D1     		bne	.L216
1645:.\PrimeImpl.c ****                 switch(pjob->_ppump->_rxbuffer[0x0E] & 0x0F)
 6381              		.loc 1 1645 0
 6382 0032 FB69     		ldr	r3, [r7, #28]
 6383 0034 DB69     		ldr	r3, [r3, #28]
 6384 0036 93F89631 		ldrb	r3, [r3, #406]	@ zero_extendqisi2
 6385 003a 03F00F03 		and	r3, r3, #15
 6386 003e 013B     		subs	r3, r3, #1
 6387 0040 032B     		cmp	r3, #3
 6388 0042 1FD8     		bhi	.L216
 6389 0044 01A2     		adr	r2, .L218
 6390 0046 52F823F0 		ldr	pc, [r2, r3, lsl #2]
 6391 004a 00BF     		.p2align 2
 6392              	.L218:
 6393 004c 5D000000 		.word	.L217+1
 6394 0050 67000000 		.word	.L219+1
 6395 0054 71000000 		.word	.L220+1
 6396 0058 7B000000 		.word	.L221+1
 6397              		.p2align 1
 6398              	.L217:
1646:.\PrimeImpl.c ****                 {
1647:.\PrimeImpl.c ****                     case 0x01://Hose A active
1648:.\PrimeImpl.c ****                         //Pump-Handle/Nozzle
1649:.\PrimeImpl.c ****                         pjob->_ppump->_hoseactivestate = 0x01;//ON/OFF state
 6399              		.loc 1 1649 0
 6400 005c FB69     		ldr	r3, [r7, #28]
 6401 005e DB69     		ldr	r3, [r3, #28]
 6402 0060 0122     		movs	r2, #1
 6403 0062 1A71     		strb	r2, [r3, #4]
1650:.\PrimeImpl.c ****                         break;
 6404              		.loc 1 1650 0
 6405 0064 0EE0     		b	.L216
 6406              	.L219:
1651:.\PrimeImpl.c ****                     case 0x02://Hose B active
1652:.\PrimeImpl.c ****                         //Pump-Handle/Nozzle
1653:.\PrimeImpl.c ****                         pjob->_ppump->_hoseactivestate = 0x11;//ON/OFF state
 6407              		.loc 1 1653 0
 6408 0066 FB69     		ldr	r3, [r7, #28]
 6409 0068 DB69     		ldr	r3, [r3, #28]
 6410 006a 1122     		movs	r2, #17
 6411 006c 1A71     		strb	r2, [r3, #4]
1654:.\PrimeImpl.c ****                         break;
 6412              		.loc 1 1654 0
 6413 006e 09E0     		b	.L216
 6414              	.L220:
ARM GAS  C:\Users\RECEPC~1\AppData\Local\Temp\ccvxjDo6.s 			page 143


1655:.\PrimeImpl.c ****                     case 0x03://Hose C active
1656:.\PrimeImpl.c ****                         //Pump-Handle/Nozzle
1657:.\PrimeImpl.c ****                         pjob->_ppump->_hoseactivestate = 0x21;//ON/OFF state
 6415              		.loc 1 1657 0
 6416 0070 FB69     		ldr	r3, [r7, #28]
 6417 0072 DB69     		ldr	r3, [r3, #28]
 6418 0074 2122     		movs	r2, #33
 6419 0076 1A71     		strb	r2, [r3, #4]
1658:.\PrimeImpl.c ****                         break;
 6420              		.loc 1 1658 0
 6421 0078 04E0     		b	.L216
 6422              	.L221:
1659:.\PrimeImpl.c ****                     case 0x04://Hose D active
1660:.\PrimeImpl.c ****                         //Pump-Handle/Nozzle
1661:.\PrimeImpl.c ****                         pjob->_ppump->_hoseactivestate = 0x31;//ON/OFF state
 6423              		.loc 1 1661 0
 6424 007a FB69     		ldr	r3, [r7, #28]
 6425 007c DB69     		ldr	r3, [r3, #28]
 6426 007e 3122     		movs	r2, #49
 6427 0080 1A71     		strb	r2, [r3, #4]
1662:.\PrimeImpl.c ****                         break;
 6428              		.loc 1 1662 0
 6429 0082 00BF     		nop
 6430              	.L216:
1663:.\PrimeImpl.c ****                 }
1664:.\PrimeImpl.c ****             }
1665:.\PrimeImpl.c ****             
1666:.\PrimeImpl.c ****             if((pjob->_ppump->_hoseactivestate & 0x0F) == 0x00)
 6431              		.loc 1 1666 0
 6432 0084 FB69     		ldr	r3, [r7, #28]
 6433 0086 DB69     		ldr	r3, [r3, #28]
 6434 0088 1B79     		ldrb	r3, [r3, #4]
 6435 008a DBB2     		uxtb	r3, r3
 6436 008c 03F00F03 		and	r3, r3, #15
 6437 0090 002B     		cmp	r3, #0
 6438 0092 1DD1     		bne	.L222
 6439              	.LBB41:
1667:.\PrimeImpl.c ****             {
1668:.\PrimeImpl.c ****                 _ALLOCATE_SINKMESSAGE_SLOT(psinkmsg);
 6440              		.loc 1 1668 0
 6441 0094 FFF7FEFF 		bl	AllocateMessageSlot
 6442 0098 B861     		str	r0, [r7, #24]
1669:.\PrimeImpl.c ****                 if(psinkmsg)
 6443              		.loc 1 1669 0
 6444 009a BB69     		ldr	r3, [r7, #24]
 6445 009c 002B     		cmp	r3, #0
 6446 009e 16D0     		beq	.L223
1670:.\PrimeImpl.c ****                 {
1671:.\PrimeImpl.c ****                     psinkmsg->_messageid = DISPENSER_ACQUIRE_PUMP_HOSE;
 6447              		.loc 1 1671 0
 6448 00a0 BB69     		ldr	r3, [r7, #24]
 6449 00a2 0922     		movs	r2, #9
 6450 00a4 5A70     		strb	r2, [r3, #1]
1672:.\PrimeImpl.c ****                     psinkmsg->_messagedelay = _SINK_TIMEOUT_500MS_;
 6451              		.loc 1 1672 0
 6452 00a6 BB69     		ldr	r3, [r7, #24]
 6453 00a8 4FF4FA72 		mov	r2, #500
ARM GAS  C:\Users\RECEPC~1\AppData\Local\Temp\ccvxjDo6.s 			page 144


 6454 00ac 9A80     		strh	r2, [r3, #4]	@ movhi
1673:.\PrimeImpl.c ****                     psinkmsg->_messagetype = DELAYEDALLINTERESTED;
 6455              		.loc 1 1673 0
 6456 00ae BB69     		ldr	r3, [r7, #24]
 6457 00b0 0522     		movs	r2, #5
 6458 00b2 9A70     		strb	r2, [r3, #2]
1674:.\PrimeImpl.c ****                     psinkmsg->_pdata = pjob->_ppump;
 6459              		.loc 1 1674 0
 6460 00b4 FB69     		ldr	r3, [r7, #28]
 6461 00b6 DA69     		ldr	r2, [r3, #28]
 6462 00b8 BB69     		ldr	r3, [r7, #24]
 6463 00ba C3F89021 		str	r2, [r3, #400]
1675:.\PrimeImpl.c ****                     psinkmsg->_messagestate = SINK_BUSY;
 6464              		.loc 1 1675 0
 6465 00be BB69     		ldr	r3, [r7, #24]
 6466 00c0 0322     		movs	r2, #3
 6467 00c2 DA70     		strb	r2, [r3, #3]
1676:.\PrimeImpl.c ****                     pjob->_ppump->_pumplocked = true;
 6468              		.loc 1 1676 0
 6469 00c4 FB69     		ldr	r3, [r7, #28]
 6470 00c6 DB69     		ldr	r3, [r3, #28]
 6471 00c8 0122     		movs	r2, #1
 6472 00ca DA72     		strb	r2, [r3, #11]
 6473              	.LBE41:
 6474 00cc 85E0     		b	.L214
 6475              	.L223:
 6476 00ce 84E0     		b	.L214
 6477              	.L222:
1677:.\PrimeImpl.c ****                 }
1678:.\PrimeImpl.c ****                                 
1679:.\PrimeImpl.c ****             }
1680:.\PrimeImpl.c ****             else
1681:.\PrimeImpl.c ****             {
1682:.\PrimeImpl.c ****                 if(((pjob->_ppump->_hoseactivestate & 0xF0) >> 4) != pjob->_ppump->_authorizationin
 6478              		.loc 1 1682 0
 6479 00d0 FB69     		ldr	r3, [r7, #28]
 6480 00d2 DB69     		ldr	r3, [r3, #28]
 6481 00d4 1B79     		ldrb	r3, [r3, #4]
 6482 00d6 DBB2     		uxtb	r3, r3
 6483 00d8 1B09     		lsrs	r3, r3, #4
 6484 00da DAB2     		uxtb	r2, r3
 6485 00dc FB69     		ldr	r3, [r7, #28]
 6486 00de DB69     		ldr	r3, [r3, #28]
 6487 00e0 93F87A3B 		ldrb	r3, [r3, #2938]
 6488 00e4 DBB2     		uxtb	r3, r3
 6489 00e6 9A42     		cmp	r2, r3
 6490 00e8 31D0     		beq	.L224
 6491              	.LBB42:
1683:.\PrimeImpl.c ****                 {
1684:.\PrimeImpl.c ****                     _ALLOCATE_SINKMESSAGE_SLOT(psinkmsg);
 6492              		.loc 1 1684 0
 6493 00ea FFF7FEFF 		bl	AllocateMessageSlot
 6494 00ee 7861     		str	r0, [r7, #20]
1685:.\PrimeImpl.c ****                     if(psinkmsg)
 6495              		.loc 1 1685 0
 6496 00f0 7B69     		ldr	r3, [r7, #20]
 6497 00f2 002B     		cmp	r3, #0
ARM GAS  C:\Users\RECEPC~1\AppData\Local\Temp\ccvxjDo6.s 			page 145


 6498 00f4 15D0     		beq	.L225
1686:.\PrimeImpl.c ****                     {
1687:.\PrimeImpl.c ****                         psinkmsg->_messageid = DISPENSER_ACQUIRE_PUMP_HOSE;
 6499              		.loc 1 1687 0
 6500 00f6 7B69     		ldr	r3, [r7, #20]
 6501 00f8 0922     		movs	r2, #9
 6502 00fa 5A70     		strb	r2, [r3, #1]
1688:.\PrimeImpl.c ****                         psinkmsg->_messagedelay = _SINK_TIMEOUT_500MS_;
 6503              		.loc 1 1688 0
 6504 00fc 7B69     		ldr	r3, [r7, #20]
 6505 00fe 4FF4FA72 		mov	r2, #500
 6506 0102 9A80     		strh	r2, [r3, #4]	@ movhi
1689:.\PrimeImpl.c ****                         psinkmsg->_messagetype = DELAYEDALLINTERESTED;
 6507              		.loc 1 1689 0
 6508 0104 7B69     		ldr	r3, [r7, #20]
 6509 0106 0522     		movs	r2, #5
 6510 0108 9A70     		strb	r2, [r3, #2]
1690:.\PrimeImpl.c ****                         psinkmsg->_pdata = pjob->_ppump;
 6511              		.loc 1 1690 0
 6512 010a FB69     		ldr	r3, [r7, #28]
 6513 010c DA69     		ldr	r2, [r3, #28]
 6514 010e 7B69     		ldr	r3, [r7, #20]
 6515 0110 C3F89021 		str	r2, [r3, #400]
1691:.\PrimeImpl.c ****                         psinkmsg->_messagestate = SINK_BUSY;
 6516              		.loc 1 1691 0
 6517 0114 7B69     		ldr	r3, [r7, #20]
 6518 0116 0322     		movs	r2, #3
 6519 0118 DA70     		strb	r2, [r3, #3]
1692:.\PrimeImpl.c ****                         pjob->_ppump->_pumplocked = true;
 6520              		.loc 1 1692 0
 6521 011a FB69     		ldr	r3, [r7, #28]
 6522 011c DB69     		ldr	r3, [r3, #28]
 6523 011e 0122     		movs	r2, #1
 6524 0120 DA72     		strb	r2, [r3, #11]
 6525              	.L225:
1693:.\PrimeImpl.c ****                     }
1694:.\PrimeImpl.c ****                     
1695:.\PrimeImpl.c ****                     _REALLOCATE_SINKMESSAGE_SLOT(psinkmsg);
 6526              		.loc 1 1695 0
 6527 0122 FFF7FEFF 		bl	AllocateMessageSlot
 6528 0126 7861     		str	r0, [r7, #20]
1696:.\PrimeImpl.c ****                     if(psinkmsg)
 6529              		.loc 1 1696 0
 6530 0128 7B69     		ldr	r3, [r7, #20]
 6531 012a 002B     		cmp	r3, #0
 6532 012c 0ED0     		beq	.L226
1697:.\PrimeImpl.c ****                     {
1698:.\PrimeImpl.c ****                         psinkmsg->_messageid = DISPENSER_PUMP_BEEP_WARNING;
 6533              		.loc 1 1698 0
 6534 012e 7B69     		ldr	r3, [r7, #20]
 6535 0130 1522     		movs	r2, #21
 6536 0132 5A70     		strb	r2, [r3, #1]
1699:.\PrimeImpl.c ****                         psinkmsg->_messagetype = FIRSTFOUND;
 6537              		.loc 1 1699 0
 6538 0134 7B69     		ldr	r3, [r7, #20]
 6539 0136 0322     		movs	r2, #3
 6540 0138 9A70     		strb	r2, [r3, #2]
ARM GAS  C:\Users\RECEPC~1\AppData\Local\Temp\ccvxjDo6.s 			page 146


1700:.\PrimeImpl.c ****                         psinkmsg->_pdata = pjob->_ppump;
 6541              		.loc 1 1700 0
 6542 013a FB69     		ldr	r3, [r7, #28]
 6543 013c DA69     		ldr	r2, [r3, #28]
 6544 013e 7B69     		ldr	r3, [r7, #20]
 6545 0140 C3F89021 		str	r2, [r3, #400]
1701:.\PrimeImpl.c ****                         psinkmsg->_messagestate = SINK_BUSY;
 6546              		.loc 1 1701 0
 6547 0144 7B69     		ldr	r3, [r7, #20]
 6548 0146 0322     		movs	r2, #3
 6549 0148 DA70     		strb	r2, [r3, #3]
 6550              	.LBE42:
 6551 014a 46E0     		b	.L214
 6552              	.L226:
 6553 014c 45E0     		b	.L214
 6554              	.L224:
 6555              	.LBB43:
1702:.\PrimeImpl.c ****                     }
1703:.\PrimeImpl.c ****                 }
1704:.\PrimeImpl.c ****                 else
1705:.\PrimeImpl.c ****                 {
1706:.\PrimeImpl.c ****                     pjob->_ppump->_pumplocked = false;
 6556              		.loc 1 1706 0
 6557 014e FB69     		ldr	r3, [r7, #28]
 6558 0150 DB69     		ldr	r3, [r3, #28]
 6559 0152 0022     		movs	r2, #0
 6560 0154 DA72     		strb	r2, [r3, #11]
1707:.\PrimeImpl.c ****                     _ALLOCATE_SINKMESSAGE_SLOT(psinkmsg);
 6561              		.loc 1 1707 0
 6562 0156 FFF7FEFF 		bl	AllocateMessageSlot
 6563 015a 3861     		str	r0, [r7, #16]
1708:.\PrimeImpl.c ****                     if(psinkmsg)
 6564              		.loc 1 1708 0
 6565 015c 3B69     		ldr	r3, [r7, #16]
 6566 015e 002B     		cmp	r3, #0
 6567 0160 3BD0     		beq	.L214
 6568              	.LBB44:
1709:.\PrimeImpl.c ****                     {
1710:.\PrimeImpl.c ****                         uint8 grado = pjob->_ppump->_rxbuffer[0x0E] & 0x0F;
 6569              		.loc 1 1710 0
 6570 0162 FB69     		ldr	r3, [r7, #28]
 6571 0164 DB69     		ldr	r3, [r3, #28]
 6572 0166 93F89631 		ldrb	r3, [r3, #406]	@ zero_extendqisi2
 6573 016a 03F00F03 		and	r3, r3, #15
 6574 016e FB73     		strb	r3, [r7, #15]
1711:.\PrimeImpl.c ****                         _g_pumps[(pjob->_ppump->_pumpid)-1]._currenthose = ((grado));
 6575              		.loc 1 1711 0
 6576 0170 FB69     		ldr	r3, [r7, #28]
 6577 0172 DB69     		ldr	r3, [r3, #28]
 6578 0174 1B78     		ldrb	r3, [r3]	@ zero_extendqisi2
 6579 0176 013B     		subs	r3, r3, #1
 6580 0178 194A     		ldr	r2, .L227
 6581 017a 40F69831 		movw	r1, #2968
 6582 017e 01FB03F3 		mul	r3, r1, r3
 6583 0182 1344     		add	r3, r3, r2
 6584 0184 FA7B     		ldrb	r2, [r7, #15]
 6585 0186 DA70     		strb	r2, [r3, #3]
ARM GAS  C:\Users\RECEPC~1\AppData\Local\Temp\ccvxjDo6.s 			page 147


1712:.\PrimeImpl.c ****                         HoseDispenser = _g_pumps[(pjob->_ppump->_pumpid)-1]._currenthose;
 6586              		.loc 1 1712 0
 6587 0188 FB69     		ldr	r3, [r7, #28]
 6588 018a DB69     		ldr	r3, [r3, #28]
 6589 018c 1B78     		ldrb	r3, [r3]	@ zero_extendqisi2
 6590 018e 013B     		subs	r3, r3, #1
 6591 0190 134A     		ldr	r2, .L227
 6592 0192 40F69831 		movw	r1, #2968
 6593 0196 01FB03F3 		mul	r3, r1, r3
 6594 019a 1344     		add	r3, r3, r2
 6595 019c DB78     		ldrb	r3, [r3, #3]
 6596 019e DAB2     		uxtb	r2, r3
 6597 01a0 104B     		ldr	r3, .L227+4
 6598 01a2 1A70     		strb	r2, [r3]
1713:.\PrimeImpl.c ****                         psinkmsg->_messageid = pjob->_ppump->_sinktransaction;
 6599              		.loc 1 1713 0
 6600 01a4 FB69     		ldr	r3, [r7, #28]
 6601 01a6 DB69     		ldr	r3, [r3, #28]
 6602 01a8 9B79     		ldrb	r3, [r3, #6]
 6603 01aa DAB2     		uxtb	r2, r3
 6604 01ac 3B69     		ldr	r3, [r7, #16]
 6605 01ae 5A70     		strb	r2, [r3, #1]
1714:.\PrimeImpl.c ****                         psinkmsg->_messagedelay = _SINK_TIMEOUT_1S_;
 6606              		.loc 1 1714 0
 6607 01b0 3B69     		ldr	r3, [r7, #16]
 6608 01b2 4FF47A72 		mov	r2, #1000
 6609 01b6 9A80     		strh	r2, [r3, #4]	@ movhi
1715:.\PrimeImpl.c ****                         psinkmsg->_messagetype = DELAYEDALLINTERESTED;
 6610              		.loc 1 1715 0
 6611 01b8 3B69     		ldr	r3, [r7, #16]
 6612 01ba 0522     		movs	r2, #5
 6613 01bc 9A70     		strb	r2, [r3, #2]
1716:.\PrimeImpl.c ****                         psinkmsg->_buffer[0x00] = pjob->_ppump->_pendingtransaction;
 6614              		.loc 1 1716 0
 6615 01be FB69     		ldr	r3, [r7, #28]
 6616 01c0 DB69     		ldr	r3, [r3, #28]
 6617 01c2 DB79     		ldrb	r3, [r3, #7]
 6618 01c4 DAB2     		uxtb	r2, r3
 6619 01c6 3B69     		ldr	r3, [r7, #16]
 6620 01c8 1A73     		strb	r2, [r3, #12]
1717:.\PrimeImpl.c ****                         psinkmsg->_pdata = pjob->_ppump;
 6621              		.loc 1 1717 0
 6622 01ca FB69     		ldr	r3, [r7, #28]
 6623 01cc DA69     		ldr	r2, [r3, #28]
 6624 01ce 3B69     		ldr	r3, [r7, #16]
 6625 01d0 C3F89021 		str	r2, [r3, #400]
1718:.\PrimeImpl.c ****                         psinkmsg->_messagestate = SINK_BUSY;
 6626              		.loc 1 1718 0
 6627 01d4 3B69     		ldr	r3, [r7, #16]
 6628 01d6 0322     		movs	r2, #3
 6629 01d8 DA70     		strb	r2, [r3, #3]
 6630              	.L214:
 6631              	.LBE44:
 6632              	.LBE43:
1719:.\PrimeImpl.c ****                     }
1720:.\PrimeImpl.c ****                 }
1721:.\PrimeImpl.c ****             }
ARM GAS  C:\Users\RECEPC~1\AppData\Local\Temp\ccvxjDo6.s 			page 148


1722:.\PrimeImpl.c ****         }
1723:.\PrimeImpl.c ****     }
1724:.\PrimeImpl.c **** }
 6633              		.loc 1 1724 0
 6634 01da 2037     		adds	r7, r7, #32
 6635              		.cfi_def_cfa_offset 8
 6636 01dc BD46     		mov	sp, r7
 6637              		.cfi_def_cfa_register 13
 6638              		@ sp needed
 6639 01de 80BD     		pop	{r7, pc}
 6640              	.L228:
 6641              		.align	2
 6642              	.L227:
 6643 01e0 00000000 		.word	_g_pumps
 6644 01e4 00000000 		.word	HoseDispenser
 6645              		.cfi_endproc
 6646              	.LFE99:
 6647              		.size	AcquirePumpHoseActiveState, .-AcquirePumpHoseActiveState
 6648              		.section	.text.AcquirePumpCompleteConfiguration,"ax",%progbits
 6649              		.align	2
 6650              		.global	AcquirePumpCompleteConfiguration
 6651              		.thumb
 6652              		.thumb_func
 6653              		.type	AcquirePumpCompleteConfiguration, %function
 6654              	AcquirePumpCompleteConfiguration:
 6655              	.LFB100:
1725:.\PrimeImpl.c **** 
1726:.\PrimeImpl.c **** //@Created By: HIJH
1727:.\PrimeImpl.c **** //@Date: Septembre de 2016
1728:.\PrimeImpl.c **** //Receives the complete pump configuration information
1729:.\PrimeImpl.c **** void AcquirePumpCompleteConfiguration(void *pparam)
1730:.\PrimeImpl.c **** {
 6656              		.loc 1 1730 0
 6657              		.cfi_startproc
 6658              		@ args = 0, pretend = 0, frame = 32
 6659              		@ frame_needed = 1, uses_anonymous_args = 0
 6660 0000 90B5     		push	{r4, r7, lr}
 6661              		.cfi_def_cfa_offset 12
 6662              		.cfi_offset 4, -12
 6663              		.cfi_offset 7, -8
 6664              		.cfi_offset 14, -4
 6665 0002 89B0     		sub	sp, sp, #36
 6666              		.cfi_def_cfa_offset 48
 6667 0004 00AF     		add	r7, sp, #0
 6668              		.cfi_def_cfa_register 7
 6669 0006 7860     		str	r0, [r7, #4]
1731:.\PrimeImpl.c ****     PPUMPTRANSACTIONJOBCONTEXTPTR pjob = (PPUMPTRANSACTIONJOBCONTEXTPTR)pparam;
 6670              		.loc 1 1731 0
 6671 0008 7B68     		ldr	r3, [r7, #4]
 6672 000a BB61     		str	r3, [r7, #24]
1732:.\PrimeImpl.c ****     if(pjob)    
 6673              		.loc 1 1732 0
 6674 000c BB69     		ldr	r3, [r7, #24]
 6675 000e 002B     		cmp	r3, #0
 6676 0010 01F01080 		beq	.L229
 6677              	.LBB45:
1733:.\PrimeImpl.c ****     {
ARM GAS  C:\Users\RECEPC~1\AppData\Local\Temp\ccvxjDo6.s 			page 149


1734:.\PrimeImpl.c ****         uint8 index = 0;
 6678              		.loc 1 1734 0
 6679 0014 0023     		movs	r3, #0
 6680 0016 FB75     		strb	r3, [r7, #23]
1735:.\PrimeImpl.c ****         //NOT USED!! JUST FOR DEBUGGING PURPOSES!
1736:.\PrimeImpl.c ****         //The "index" variable has been kept in some lines of code just for reference.
1737:.\PrimeImpl.c ****         //uint8 remblocks = (TranslateSpecialFuncionDigit(pjob->_ppump->_rxbuffer[7 + 45*index]) <<
1738:.\PrimeImpl.c ****         //HERE WE ACQUIRE THE MISCELLANEOUS PUMP CONFIGURATION INFORMATION AND STORE IT INTO
1739:.\PrimeImpl.c ****         //THE PERSISTENT FILE SYSTEM (EEPROM)        
1740:.\PrimeImpl.c ****         if(pjob->_ppump->_rxbuffer[0 + 45*index] == 0xBA)
 6681              		.loc 1 1740 0
 6682 0018 BB69     		ldr	r3, [r7, #24]
 6683 001a D969     		ldr	r1, [r3, #28]
 6684 001c FA7D     		ldrb	r2, [r7, #23]	@ zero_extendqisi2
 6685 001e 1346     		mov	r3, r2
 6686 0020 5B00     		lsls	r3, r3, #1
 6687 0022 1344     		add	r3, r3, r2
 6688 0024 1A01     		lsls	r2, r3, #4
 6689 0026 D31A     		subs	r3, r2, r3
 6690 0028 0B44     		add	r3, r3, r1
 6691 002a 93F88831 		ldrb	r3, [r3, #392]	@ zero_extendqisi2
 6692 002e BA2B     		cmp	r3, #186
 6693 0030 41F00080 		bne	.L229
 6694              	.LBB46:
1741:.\PrimeImpl.c ****         {
1742:.\PrimeImpl.c ****             pjob->_ppump->_transhealth = _PUMP_OK_;
 6695              		.loc 1 1742 0
 6696 0034 BB69     		ldr	r3, [r7, #24]
 6697 0036 DB69     		ldr	r3, [r3, #28]
 6698 0038 0122     		movs	r2, #1
 6699 003a 1A76     		strb	r2, [r3, #24]
1743:.\PrimeImpl.c ****             ClearEepromBuffer();
 6700              		.loc 1 1743 0
 6701 003c FFF7FEFF 		bl	ClearEepromBuffer
1744:.\PrimeImpl.c ****             bool targetmemoryareafound = false;
 6702              		.loc 1 1744 0
 6703 0040 0023     		movs	r3, #0
 6704 0042 FB77     		strb	r3, [r7, #31]
1745:.\PrimeImpl.c ****             uint16 eeprompumpconfigmemorypageid = 0;
 6705              		.loc 1 1745 0
 6706 0044 0023     		movs	r3, #0
 6707 0046 BB83     		strh	r3, [r7, #28]	@ movhi
1746:.\PrimeImpl.c ****             //WE ALWAYS READ THE PAGE FROM THE EEPROM BEFORE SINCE AFTER MODIFYING ANY FIELD IT MUS
1747:.\PrimeImpl.c ****             eeprompumpconfigmemorypageid = (uint16)EEPROM_DISPENSER_PUMP1_LAYOUT_PAGE;
 6708              		.loc 1 1747 0
 6709 0048 4FF40073 		mov	r3, #512
 6710 004c BB83     		strh	r3, [r7, #28]	@ movhi
1748:.\PrimeImpl.c ****             LoadEepromPage(eeprompumpconfigmemorypageid);
 6711              		.loc 1 1748 0
 6712 004e BB8B     		ldrh	r3, [r7, #28]
 6713 0050 1846     		mov	r0, r3
 6714 0052 FFF7FEFF 		bl	LoadEepromPage
1749:.\PrimeImpl.c ****             if(TranslateSpecialFuncionDigit(pjob->_ppump->_rxbuffer[3 + 45*index]) != (GetEepromBuf
 6715              		.loc 1 1749 0
 6716 0056 BB69     		ldr	r3, [r7, #24]
 6717 0058 D969     		ldr	r1, [r3, #28]
 6718 005a FA7D     		ldrb	r2, [r7, #23]	@ zero_extendqisi2
ARM GAS  C:\Users\RECEPC~1\AppData\Local\Temp\ccvxjDo6.s 			page 150


 6719 005c 1346     		mov	r3, r2
 6720 005e 5B00     		lsls	r3, r3, #1
 6721 0060 1344     		add	r3, r3, r2
 6722 0062 1A01     		lsls	r2, r3, #4
 6723 0064 D31A     		subs	r3, r2, r3
 6724 0066 0333     		adds	r3, r3, #3
 6725 0068 0B44     		add	r3, r3, r1
 6726 006a 93F88831 		ldrb	r3, [r3, #392]	@ zero_extendqisi2
 6727 006e 1846     		mov	r0, r3
 6728 0070 FFF7FEFF 		bl	TranslateSpecialFuncionDigit
 6729 0074 0346     		mov	r3, r0
 6730 0076 1C46     		mov	r4, r3
 6731 0078 FFF7FEFF 		bl	GetEepromBuffer
 6732 007c 0346     		mov	r3, r0
 6733 007e 1B78     		ldrb	r3, [r3]	@ zero_extendqisi2
 6734 0080 03F00F03 		and	r3, r3, #15
 6735 0084 9C42     		cmp	r4, r3
 6736 0086 68D0     		beq	.L231
1750:.\PrimeImpl.c ****             {
1751:.\PrimeImpl.c ****                 eeprompumpconfigmemorypageid = (uint16)EEPROM_DISPENSER_PUMP2_LAYOUT_PAGE;
 6737              		.loc 1 1751 0
 6738 0088 4FF41073 		mov	r3, #576
 6739 008c BB83     		strh	r3, [r7, #28]	@ movhi
1752:.\PrimeImpl.c ****                 LoadEepromPage(eeprompumpconfigmemorypageid);
 6740              		.loc 1 1752 0
 6741 008e BB8B     		ldrh	r3, [r7, #28]
 6742 0090 1846     		mov	r0, r3
 6743 0092 FFF7FEFF 		bl	LoadEepromPage
1753:.\PrimeImpl.c ****                 if(TranslateSpecialFuncionDigit(pjob->_ppump->_rxbuffer[3 + 45*index]) != (GetEepro
 6744              		.loc 1 1753 0
 6745 0096 BB69     		ldr	r3, [r7, #24]
 6746 0098 D969     		ldr	r1, [r3, #28]
 6747 009a FA7D     		ldrb	r2, [r7, #23]	@ zero_extendqisi2
 6748 009c 1346     		mov	r3, r2
 6749 009e 5B00     		lsls	r3, r3, #1
 6750 00a0 1344     		add	r3, r3, r2
 6751 00a2 1A01     		lsls	r2, r3, #4
 6752 00a4 D31A     		subs	r3, r2, r3
 6753 00a6 0333     		adds	r3, r3, #3
 6754 00a8 0B44     		add	r3, r3, r1
 6755 00aa 93F88831 		ldrb	r3, [r3, #392]	@ zero_extendqisi2
 6756 00ae 1846     		mov	r0, r3
 6757 00b0 FFF7FEFF 		bl	TranslateSpecialFuncionDigit
 6758 00b4 0346     		mov	r3, r0
 6759 00b6 1C46     		mov	r4, r3
 6760 00b8 FFF7FEFF 		bl	GetEepromBuffer
 6761 00bc 0346     		mov	r3, r0
 6762 00be 1B78     		ldrb	r3, [r3]	@ zero_extendqisi2
 6763 00c0 03F00F03 		and	r3, r3, #15
 6764 00c4 9C42     		cmp	r4, r3
 6765 00c6 45D0     		beq	.L232
1754:.\PrimeImpl.c ****                 {
1755:.\PrimeImpl.c ****                     eeprompumpconfigmemorypageid = (uint16)EEPROM_DISPENSER_PUMP3_LAYOUT_PAGE;
 6766              		.loc 1 1755 0
 6767 00c8 4FF42073 		mov	r3, #640
 6768 00cc BB83     		strh	r3, [r7, #28]	@ movhi
1756:.\PrimeImpl.c ****                     LoadEepromPage(eeprompumpconfigmemorypageid);
ARM GAS  C:\Users\RECEPC~1\AppData\Local\Temp\ccvxjDo6.s 			page 151


 6769              		.loc 1 1756 0
 6770 00ce BB8B     		ldrh	r3, [r7, #28]
 6771 00d0 1846     		mov	r0, r3
 6772 00d2 FFF7FEFF 		bl	LoadEepromPage
1757:.\PrimeImpl.c ****                     if(TranslateSpecialFuncionDigit(pjob->_ppump->_rxbuffer[3 + 45*index]) != (GetE
 6773              		.loc 1 1757 0
 6774 00d6 BB69     		ldr	r3, [r7, #24]
 6775 00d8 D969     		ldr	r1, [r3, #28]
 6776 00da FA7D     		ldrb	r2, [r7, #23]	@ zero_extendqisi2
 6777 00dc 1346     		mov	r3, r2
 6778 00de 5B00     		lsls	r3, r3, #1
 6779 00e0 1344     		add	r3, r3, r2
 6780 00e2 1A01     		lsls	r2, r3, #4
 6781 00e4 D31A     		subs	r3, r2, r3
 6782 00e6 0333     		adds	r3, r3, #3
 6783 00e8 0B44     		add	r3, r3, r1
 6784 00ea 93F88831 		ldrb	r3, [r3, #392]	@ zero_extendqisi2
 6785 00ee 1846     		mov	r0, r3
 6786 00f0 FFF7FEFF 		bl	TranslateSpecialFuncionDigit
 6787 00f4 0346     		mov	r3, r0
 6788 00f6 1C46     		mov	r4, r3
 6789 00f8 FFF7FEFF 		bl	GetEepromBuffer
 6790 00fc 0346     		mov	r3, r0
 6791 00fe 1B78     		ldrb	r3, [r3]	@ zero_extendqisi2
 6792 0100 03F00F03 		and	r3, r3, #15
 6793 0104 9C42     		cmp	r4, r3
 6794 0106 22D0     		beq	.L233
1758:.\PrimeImpl.c ****                     {
1759:.\PrimeImpl.c ****                         eeprompumpconfigmemorypageid = (uint16)EEPROM_DISPENSER_PUMP4_LAYOUT_PAGE;
 6795              		.loc 1 1759 0
 6796 0108 4FF43073 		mov	r3, #704
 6797 010c BB83     		strh	r3, [r7, #28]	@ movhi
1760:.\PrimeImpl.c ****                         LoadEepromPage(eeprompumpconfigmemorypageid);
 6798              		.loc 1 1760 0
 6799 010e BB8B     		ldrh	r3, [r7, #28]
 6800 0110 1846     		mov	r0, r3
 6801 0112 FFF7FEFF 		bl	LoadEepromPage
1761:.\PrimeImpl.c ****                         if(TranslateSpecialFuncionDigit(pjob->_ppump->_rxbuffer[3 + 45*index]) == (
 6802              		.loc 1 1761 0
 6803 0116 BB69     		ldr	r3, [r7, #24]
 6804 0118 D969     		ldr	r1, [r3, #28]
 6805 011a FA7D     		ldrb	r2, [r7, #23]	@ zero_extendqisi2
 6806 011c 1346     		mov	r3, r2
 6807 011e 5B00     		lsls	r3, r3, #1
 6808 0120 1344     		add	r3, r3, r2
 6809 0122 1A01     		lsls	r2, r3, #4
 6810 0124 D31A     		subs	r3, r2, r3
 6811 0126 0333     		adds	r3, r3, #3
 6812 0128 0B44     		add	r3, r3, r1
 6813 012a 93F88831 		ldrb	r3, [r3, #392]	@ zero_extendqisi2
 6814 012e 1846     		mov	r0, r3
 6815 0130 FFF7FEFF 		bl	TranslateSpecialFuncionDigit
 6816 0134 0346     		mov	r3, r0
 6817 0136 1C46     		mov	r4, r3
 6818 0138 FFF7FEFF 		bl	GetEepromBuffer
 6819 013c 0346     		mov	r3, r0
 6820 013e 1B78     		ldrb	r3, [r3]	@ zero_extendqisi2
ARM GAS  C:\Users\RECEPC~1\AppData\Local\Temp\ccvxjDo6.s 			page 152


 6821 0140 03F00F03 		and	r3, r3, #15
 6822 0144 9C42     		cmp	r4, r3
 6823 0146 0AD1     		bne	.L237
1762:.\PrimeImpl.c ****                             targetmemoryareafound = true;
 6824              		.loc 1 1762 0
 6825 0148 0123     		movs	r3, #1
 6826 014a FB77     		strb	r3, [r7, #31]
 6827 014c 07E0     		b	.L237
 6828              	.L233:
1763:.\PrimeImpl.c ****                             
1764:.\PrimeImpl.c ****                     }else
1765:.\PrimeImpl.c ****                         targetmemoryareafound = true;
 6829              		.loc 1 1765 0
 6830 014e 0123     		movs	r3, #1
 6831 0150 FB77     		strb	r3, [r7, #31]
 6832 0152 04E0     		b	.L237
 6833              	.L232:
1766:.\PrimeImpl.c ****                 }else
1767:.\PrimeImpl.c ****                     targetmemoryareafound = true;
 6834              		.loc 1 1767 0
 6835 0154 0123     		movs	r3, #1
 6836 0156 FB77     		strb	r3, [r7, #31]
 6837 0158 01E0     		b	.L237
 6838              	.L231:
1768:.\PrimeImpl.c ****             }else
1769:.\PrimeImpl.c ****                 targetmemoryareafound = true;
 6839              		.loc 1 1769 0
 6840 015a 0123     		movs	r3, #1
 6841 015c FB77     		strb	r3, [r7, #31]
 6842              	.L237:
1770:.\PrimeImpl.c ****             
1771:.\PrimeImpl.c ****             ///////////////////////////////////////////////////////////////////////////////////////
1772:.\PrimeImpl.c ****             //JUST RETURN SINCE IT MEANS THAT THE PUMP/POSITION IDENTIFIERS HAVE NOT YET BEEN DEFIN
1773:.\PrimeImpl.c ****             if(!targetmemoryareafound)
 6843              		.loc 1 1773 0
 6844 015e FB7F     		ldrb	r3, [r7, #31]
 6845 0160 83F00103 		eor	r3, r3, #1
 6846 0164 DBB2     		uxtb	r3, r3
 6847 0166 002B     		cmp	r3, #0
 6848 0168 01D0     		beq	.L238
1774:.\PrimeImpl.c ****                 return;
 6849              		.loc 1 1774 0
 6850 016a 00F063BF 		b	.L229
 6851              	.L238:
1775:.\PrimeImpl.c ****                 
1776:.\PrimeImpl.c ****             //THE FIRST 16 BYTES ARE RESERVED FOR LOCAL PUMP CONFIGURATION INFORMATION
1777:.\PrimeImpl.c ****             LPRAWPTR ptreeprom = &(GetEepromBuffer()[16]);
 6852              		.loc 1 1777 0
 6853 016e FFF7FEFF 		bl	GetEepromBuffer
 6854 0172 0346     		mov	r3, r0
 6855 0174 1033     		adds	r3, r3, #16
 6856 0176 3B61     		str	r3, [r7, #16]
1778:.\PrimeImpl.c ****             
1779:.\PrimeImpl.c ****             uint8 blkindex = 0;
 6857              		.loc 1 1779 0
 6858 0178 0023     		movs	r3, #0
 6859 017a FB73     		strb	r3, [r7, #15]
ARM GAS  C:\Users\RECEPC~1\AppData\Local\Temp\ccvxjDo6.s 			page 153


1780:.\PrimeImpl.c ****             //NOT YET REQUIRED
1781:.\PrimeImpl.c ****             //uint8 msglength = (TranslateSpecialFuncionDigit(pjob->_ppump->_rxbuffer[1 + 45*index]
1782:.\PrimeImpl.c ****             
1783:.\PrimeImpl.c ****             //0
1784:.\PrimeImpl.c ****             //Pump Type
1785:.\PrimeImpl.c ****             *ptreeprom = ((TranslateSpecialFuncionDigit(pjob->_ppump->_rxbuffer[9 + 45*index + 2*bl
 6860              		.loc 1 1785 0
 6861 017c BB69     		ldr	r3, [r7, #24]
 6862 017e D969     		ldr	r1, [r3, #28]
 6863 0180 FA7D     		ldrb	r2, [r7, #23]	@ zero_extendqisi2
 6864 0182 1346     		mov	r3, r2
 6865 0184 5B00     		lsls	r3, r3, #1
 6866 0186 1344     		add	r3, r3, r2
 6867 0188 1A01     		lsls	r2, r3, #4
 6868 018a D31A     		subs	r3, r2, r3
 6869 018c 03F10902 		add	r2, r3, #9
 6870 0190 FB7B     		ldrb	r3, [r7, #15]	@ zero_extendqisi2
 6871 0192 5B00     		lsls	r3, r3, #1
 6872 0194 1344     		add	r3, r3, r2
 6873 0196 0B44     		add	r3, r3, r1
 6874 0198 93F88831 		ldrb	r3, [r3, #392]	@ zero_extendqisi2
 6875 019c 1846     		mov	r0, r3
 6876 019e FFF7FEFF 		bl	TranslateSpecialFuncionDigit
 6877 01a2 0346     		mov	r3, r0
 6878 01a4 1B01     		lsls	r3, r3, #4
 6879 01a6 DCB2     		uxtb	r4, r3
1786:.\PrimeImpl.c ****                             (TranslateSpecialFuncionDigit(pjob->_ppump->_rxbuffer[9 + 45*index + (2
 6880              		.loc 1 1786 0
 6881 01a8 BB69     		ldr	r3, [r7, #24]
 6882 01aa D969     		ldr	r1, [r3, #28]
 6883 01ac FA7D     		ldrb	r2, [r7, #23]	@ zero_extendqisi2
 6884 01ae 1346     		mov	r3, r2
 6885 01b0 5B00     		lsls	r3, r3, #1
 6886 01b2 1344     		add	r3, r3, r2
 6887 01b4 1A01     		lsls	r2, r3, #4
 6888 01b6 D31A     		subs	r3, r2, r3
 6889 01b8 03F10902 		add	r2, r3, #9
 6890 01bc FB7B     		ldrb	r3, [r7, #15]	@ zero_extendqisi2
 6891 01be 5B00     		lsls	r3, r3, #1
 6892 01c0 0133     		adds	r3, r3, #1
 6893 01c2 1344     		add	r3, r3, r2
 6894 01c4 0B44     		add	r3, r3, r1
 6895 01c6 93F88831 		ldrb	r3, [r3, #392]	@ zero_extendqisi2
 6896 01ca 1846     		mov	r0, r3
 6897 01cc FFF7FEFF 		bl	TranslateSpecialFuncionDigit
 6898 01d0 0346     		mov	r3, r0
1785:.\PrimeImpl.c ****                             (TranslateSpecialFuncionDigit(pjob->_ppump->_rxbuffer[9 + 45*index + (2
 6899              		.loc 1 1785 0
 6900 01d2 DBB2     		uxtb	r3, r3
 6901 01d4 03F00F03 		and	r3, r3, #15
 6902 01d8 DBB2     		uxtb	r3, r3
 6903 01da 2246     		mov	r2, r4
 6904 01dc 1343     		orrs	r3, r3, r2
 6905 01de DBB2     		uxtb	r3, r3
 6906 01e0 DAB2     		uxtb	r2, r3
 6907 01e2 3B69     		ldr	r3, [r7, #16]
 6908 01e4 1A70     		strb	r2, [r3]
ARM GAS  C:\Users\RECEPC~1\AppData\Local\Temp\ccvxjDo6.s 			page 154


1787:.\PrimeImpl.c **** 
1788:.\PrimeImpl.c ****             //1
1789:.\PrimeImpl.c ****             ptreeprom++;
 6909              		.loc 1 1789 0
 6910 01e6 3B69     		ldr	r3, [r7, #16]
 6911 01e8 0133     		adds	r3, r3, #1
 6912 01ea 3B61     		str	r3, [r7, #16]
1790:.\PrimeImpl.c ****             blkindex++;
 6913              		.loc 1 1790 0
 6914 01ec FB7B     		ldrb	r3, [r7, #15]	@ zero_extendqisi2
 6915 01ee 0133     		adds	r3, r3, #1
 6916 01f0 FB73     		strb	r3, [r7, #15]
1791:.\PrimeImpl.c ****             //Pump Model
1792:.\PrimeImpl.c ****             *ptreeprom = ((TranslateSpecialFuncionDigit(pjob->_ppump->_rxbuffer[9 + 45*index + 2*bl
 6917              		.loc 1 1792 0
 6918 01f2 BB69     		ldr	r3, [r7, #24]
 6919 01f4 D969     		ldr	r1, [r3, #28]
 6920 01f6 FA7D     		ldrb	r2, [r7, #23]	@ zero_extendqisi2
 6921 01f8 1346     		mov	r3, r2
 6922 01fa 5B00     		lsls	r3, r3, #1
 6923 01fc 1344     		add	r3, r3, r2
 6924 01fe 1A01     		lsls	r2, r3, #4
 6925 0200 D31A     		subs	r3, r2, r3
 6926 0202 03F10902 		add	r2, r3, #9
 6927 0206 FB7B     		ldrb	r3, [r7, #15]	@ zero_extendqisi2
 6928 0208 5B00     		lsls	r3, r3, #1
 6929 020a 1344     		add	r3, r3, r2
 6930 020c 0B44     		add	r3, r3, r1
 6931 020e 93F88831 		ldrb	r3, [r3, #392]	@ zero_extendqisi2
 6932 0212 1846     		mov	r0, r3
 6933 0214 FFF7FEFF 		bl	TranslateSpecialFuncionDigit
 6934 0218 0346     		mov	r3, r0
 6935 021a 1B01     		lsls	r3, r3, #4
 6936 021c DCB2     		uxtb	r4, r3
1793:.\PrimeImpl.c ****                             (TranslateSpecialFuncionDigit(pjob->_ppump->_rxbuffer[9 + 45*index + (2
 6937              		.loc 1 1793 0
 6938 021e BB69     		ldr	r3, [r7, #24]
 6939 0220 D969     		ldr	r1, [r3, #28]
 6940 0222 FA7D     		ldrb	r2, [r7, #23]	@ zero_extendqisi2
 6941 0224 1346     		mov	r3, r2
 6942 0226 5B00     		lsls	r3, r3, #1
 6943 0228 1344     		add	r3, r3, r2
 6944 022a 1A01     		lsls	r2, r3, #4
 6945 022c D31A     		subs	r3, r2, r3
 6946 022e 03F10902 		add	r2, r3, #9
 6947 0232 FB7B     		ldrb	r3, [r7, #15]	@ zero_extendqisi2
 6948 0234 5B00     		lsls	r3, r3, #1
 6949 0236 0133     		adds	r3, r3, #1
 6950 0238 1344     		add	r3, r3, r2
 6951 023a 0B44     		add	r3, r3, r1
 6952 023c 93F88831 		ldrb	r3, [r3, #392]	@ zero_extendqisi2
 6953 0240 1846     		mov	r0, r3
 6954 0242 FFF7FEFF 		bl	TranslateSpecialFuncionDigit
 6955 0246 0346     		mov	r3, r0
1792:.\PrimeImpl.c ****                             (TranslateSpecialFuncionDigit(pjob->_ppump->_rxbuffer[9 + 45*index + (2
 6956              		.loc 1 1792 0
 6957 0248 DBB2     		uxtb	r3, r3
ARM GAS  C:\Users\RECEPC~1\AppData\Local\Temp\ccvxjDo6.s 			page 155


 6958 024a 03F00F03 		and	r3, r3, #15
 6959 024e DBB2     		uxtb	r3, r3
 6960 0250 2246     		mov	r2, r4
 6961 0252 1343     		orrs	r3, r3, r2
 6962 0254 DBB2     		uxtb	r3, r3
 6963 0256 DAB2     		uxtb	r2, r3
 6964 0258 3B69     		ldr	r3, [r7, #16]
 6965 025a 1A70     		strb	r2, [r3]
1794:.\PrimeImpl.c **** 
1795:.\PrimeImpl.c ****             //2
1796:.\PrimeImpl.c ****             ptreeprom++;
 6966              		.loc 1 1796 0
 6967 025c 3B69     		ldr	r3, [r7, #16]
 6968 025e 0133     		adds	r3, r3, #1
 6969 0260 3B61     		str	r3, [r7, #16]
1797:.\PrimeImpl.c ****             blkindex++;
 6970              		.loc 1 1797 0
 6971 0262 FB7B     		ldrb	r3, [r7, #15]	@ zero_extendqisi2
 6972 0264 0133     		adds	r3, r3, #1
 6973 0266 FB73     		strb	r3, [r7, #15]
1798:.\PrimeImpl.c ****             //Volume Units
1799:.\PrimeImpl.c ****             *ptreeprom = ((TranslateSpecialFuncionDigit(pjob->_ppump->_rxbuffer[9 + 45*index + 2*bl
 6974              		.loc 1 1799 0
 6975 0268 BB69     		ldr	r3, [r7, #24]
 6976 026a D969     		ldr	r1, [r3, #28]
 6977 026c FA7D     		ldrb	r2, [r7, #23]	@ zero_extendqisi2
 6978 026e 1346     		mov	r3, r2
 6979 0270 5B00     		lsls	r3, r3, #1
 6980 0272 1344     		add	r3, r3, r2
 6981 0274 1A01     		lsls	r2, r3, #4
 6982 0276 D31A     		subs	r3, r2, r3
 6983 0278 03F10902 		add	r2, r3, #9
 6984 027c FB7B     		ldrb	r3, [r7, #15]	@ zero_extendqisi2
 6985 027e 5B00     		lsls	r3, r3, #1
 6986 0280 1344     		add	r3, r3, r2
 6987 0282 0B44     		add	r3, r3, r1
 6988 0284 93F88831 		ldrb	r3, [r3, #392]	@ zero_extendqisi2
 6989 0288 1846     		mov	r0, r3
 6990 028a FFF7FEFF 		bl	TranslateSpecialFuncionDigit
 6991 028e 0346     		mov	r3, r0
 6992 0290 1B01     		lsls	r3, r3, #4
 6993 0292 DCB2     		uxtb	r4, r3
1800:.\PrimeImpl.c ****                             (TranslateSpecialFuncionDigit(pjob->_ppump->_rxbuffer[9 + 45*index + (2
 6994              		.loc 1 1800 0
 6995 0294 BB69     		ldr	r3, [r7, #24]
 6996 0296 D969     		ldr	r1, [r3, #28]
 6997 0298 FA7D     		ldrb	r2, [r7, #23]	@ zero_extendqisi2
 6998 029a 1346     		mov	r3, r2
 6999 029c 5B00     		lsls	r3, r3, #1
 7000 029e 1344     		add	r3, r3, r2
 7001 02a0 1A01     		lsls	r2, r3, #4
 7002 02a2 D31A     		subs	r3, r2, r3
 7003 02a4 03F10902 		add	r2, r3, #9
 7004 02a8 FB7B     		ldrb	r3, [r7, #15]	@ zero_extendqisi2
 7005 02aa 5B00     		lsls	r3, r3, #1
 7006 02ac 0133     		adds	r3, r3, #1
 7007 02ae 1344     		add	r3, r3, r2
ARM GAS  C:\Users\RECEPC~1\AppData\Local\Temp\ccvxjDo6.s 			page 156


 7008 02b0 0B44     		add	r3, r3, r1
 7009 02b2 93F88831 		ldrb	r3, [r3, #392]	@ zero_extendqisi2
 7010 02b6 1846     		mov	r0, r3
 7011 02b8 FFF7FEFF 		bl	TranslateSpecialFuncionDigit
 7012 02bc 0346     		mov	r3, r0
1799:.\PrimeImpl.c ****                             (TranslateSpecialFuncionDigit(pjob->_ppump->_rxbuffer[9 + 45*index + (2
 7013              		.loc 1 1799 0
 7014 02be DBB2     		uxtb	r3, r3
 7015 02c0 03F00F03 		and	r3, r3, #15
 7016 02c4 DBB2     		uxtb	r3, r3
 7017 02c6 2246     		mov	r2, r4
 7018 02c8 1343     		orrs	r3, r3, r2
 7019 02ca DBB2     		uxtb	r3, r3
 7020 02cc DAB2     		uxtb	r2, r3
 7021 02ce 3B69     		ldr	r3, [r7, #16]
 7022 02d0 1A70     		strb	r2, [r3]
1801:.\PrimeImpl.c ****                             
1802:.\PrimeImpl.c ****             //3
1803:.\PrimeImpl.c ****             ptreeprom++;
 7023              		.loc 1 1803 0
 7024 02d2 3B69     		ldr	r3, [r7, #16]
 7025 02d4 0133     		adds	r3, r3, #1
 7026 02d6 3B61     		str	r3, [r7, #16]
1804:.\PrimeImpl.c ****             blkindex++;
 7027              		.loc 1 1804 0
 7028 02d8 FB7B     		ldrb	r3, [r7, #15]	@ zero_extendqisi2
 7029 02da 0133     		adds	r3, r3, #1
 7030 02dc FB73     		strb	r3, [r7, #15]
1805:.\PrimeImpl.c ****             //Display Type
1806:.\PrimeImpl.c ****             *ptreeprom = ((TranslateSpecialFuncionDigit(pjob->_ppump->_rxbuffer[9 + 45*index + 2*bl
 7031              		.loc 1 1806 0
 7032 02de BB69     		ldr	r3, [r7, #24]
 7033 02e0 D969     		ldr	r1, [r3, #28]
 7034 02e2 FA7D     		ldrb	r2, [r7, #23]	@ zero_extendqisi2
 7035 02e4 1346     		mov	r3, r2
 7036 02e6 5B00     		lsls	r3, r3, #1
 7037 02e8 1344     		add	r3, r3, r2
 7038 02ea 1A01     		lsls	r2, r3, #4
 7039 02ec D31A     		subs	r3, r2, r3
 7040 02ee 03F10902 		add	r2, r3, #9
 7041 02f2 FB7B     		ldrb	r3, [r7, #15]	@ zero_extendqisi2
 7042 02f4 5B00     		lsls	r3, r3, #1
 7043 02f6 1344     		add	r3, r3, r2
 7044 02f8 0B44     		add	r3, r3, r1
 7045 02fa 93F88831 		ldrb	r3, [r3, #392]	@ zero_extendqisi2
 7046 02fe 1846     		mov	r0, r3
 7047 0300 FFF7FEFF 		bl	TranslateSpecialFuncionDigit
 7048 0304 0346     		mov	r3, r0
 7049 0306 1B01     		lsls	r3, r3, #4
 7050 0308 DCB2     		uxtb	r4, r3
1807:.\PrimeImpl.c ****                             (TranslateSpecialFuncionDigit(pjob->_ppump->_rxbuffer[9 + 45*index + (2
 7051              		.loc 1 1807 0
 7052 030a BB69     		ldr	r3, [r7, #24]
 7053 030c D969     		ldr	r1, [r3, #28]
 7054 030e FA7D     		ldrb	r2, [r7, #23]	@ zero_extendqisi2
 7055 0310 1346     		mov	r3, r2
 7056 0312 5B00     		lsls	r3, r3, #1
ARM GAS  C:\Users\RECEPC~1\AppData\Local\Temp\ccvxjDo6.s 			page 157


 7057 0314 1344     		add	r3, r3, r2
 7058 0316 1A01     		lsls	r2, r3, #4
 7059 0318 D31A     		subs	r3, r2, r3
 7060 031a 03F10902 		add	r2, r3, #9
 7061 031e FB7B     		ldrb	r3, [r7, #15]	@ zero_extendqisi2
 7062 0320 5B00     		lsls	r3, r3, #1
 7063 0322 0133     		adds	r3, r3, #1
 7064 0324 1344     		add	r3, r3, r2
 7065 0326 0B44     		add	r3, r3, r1
 7066 0328 93F88831 		ldrb	r3, [r3, #392]	@ zero_extendqisi2
 7067 032c 1846     		mov	r0, r3
 7068 032e FFF7FEFF 		bl	TranslateSpecialFuncionDigit
 7069 0332 0346     		mov	r3, r0
1806:.\PrimeImpl.c ****                             (TranslateSpecialFuncionDigit(pjob->_ppump->_rxbuffer[9 + 45*index + (2
 7070              		.loc 1 1806 0
 7071 0334 DBB2     		uxtb	r3, r3
 7072 0336 03F00F03 		and	r3, r3, #15
 7073 033a DBB2     		uxtb	r3, r3
 7074 033c 2246     		mov	r2, r4
 7075 033e 1343     		orrs	r3, r3, r2
 7076 0340 DBB2     		uxtb	r3, r3
 7077 0342 DAB2     		uxtb	r2, r3
 7078 0344 3B69     		ldr	r3, [r7, #16]
 7079 0346 1A70     		strb	r2, [r3]
1808:.\PrimeImpl.c ****             
1809:.\PrimeImpl.c ****             //4
1810:.\PrimeImpl.c ****             ptreeprom++;
 7080              		.loc 1 1810 0
 7081 0348 3B69     		ldr	r3, [r7, #16]
 7082 034a 0133     		adds	r3, r3, #1
 7083 034c 3B61     		str	r3, [r7, #16]
1811:.\PrimeImpl.c ****             blkindex++;
 7084              		.loc 1 1811 0
 7085 034e FB7B     		ldrb	r3, [r7, #15]	@ zero_extendqisi2
 7086 0350 0133     		adds	r3, r3, #1
 7087 0352 FB73     		strb	r3, [r7, #15]
1812:.\PrimeImpl.c ****             //Money Trucated / Rounded
1813:.\PrimeImpl.c ****             *ptreeprom = ((TranslateSpecialFuncionDigit(pjob->_ppump->_rxbuffer[9 + 45*index + 2*bl
 7088              		.loc 1 1813 0
 7089 0354 BB69     		ldr	r3, [r7, #24]
 7090 0356 D969     		ldr	r1, [r3, #28]
 7091 0358 FA7D     		ldrb	r2, [r7, #23]	@ zero_extendqisi2
 7092 035a 1346     		mov	r3, r2
 7093 035c 5B00     		lsls	r3, r3, #1
 7094 035e 1344     		add	r3, r3, r2
 7095 0360 1A01     		lsls	r2, r3, #4
 7096 0362 D31A     		subs	r3, r2, r3
 7097 0364 03F10902 		add	r2, r3, #9
 7098 0368 FB7B     		ldrb	r3, [r7, #15]	@ zero_extendqisi2
 7099 036a 5B00     		lsls	r3, r3, #1
 7100 036c 1344     		add	r3, r3, r2
 7101 036e 0B44     		add	r3, r3, r1
 7102 0370 93F88831 		ldrb	r3, [r3, #392]	@ zero_extendqisi2
 7103 0374 1846     		mov	r0, r3
 7104 0376 FFF7FEFF 		bl	TranslateSpecialFuncionDigit
 7105 037a 0346     		mov	r3, r0
 7106 037c 1B01     		lsls	r3, r3, #4
ARM GAS  C:\Users\RECEPC~1\AppData\Local\Temp\ccvxjDo6.s 			page 158


 7107 037e DCB2     		uxtb	r4, r3
1814:.\PrimeImpl.c ****                             (TranslateSpecialFuncionDigit(pjob->_ppump->_rxbuffer[9 + 45*index + (2
 7108              		.loc 1 1814 0
 7109 0380 BB69     		ldr	r3, [r7, #24]
 7110 0382 D969     		ldr	r1, [r3, #28]
 7111 0384 FA7D     		ldrb	r2, [r7, #23]	@ zero_extendqisi2
 7112 0386 1346     		mov	r3, r2
 7113 0388 5B00     		lsls	r3, r3, #1
 7114 038a 1344     		add	r3, r3, r2
 7115 038c 1A01     		lsls	r2, r3, #4
 7116 038e D31A     		subs	r3, r2, r3
 7117 0390 03F10902 		add	r2, r3, #9
 7118 0394 FB7B     		ldrb	r3, [r7, #15]	@ zero_extendqisi2
 7119 0396 5B00     		lsls	r3, r3, #1
 7120 0398 0133     		adds	r3, r3, #1
 7121 039a 1344     		add	r3, r3, r2
 7122 039c 0B44     		add	r3, r3, r1
 7123 039e 93F88831 		ldrb	r3, [r3, #392]	@ zero_extendqisi2
 7124 03a2 1846     		mov	r0, r3
 7125 03a4 FFF7FEFF 		bl	TranslateSpecialFuncionDigit
 7126 03a8 0346     		mov	r3, r0
1813:.\PrimeImpl.c ****                             (TranslateSpecialFuncionDigit(pjob->_ppump->_rxbuffer[9 + 45*index + (2
 7127              		.loc 1 1813 0
 7128 03aa DBB2     		uxtb	r3, r3
 7129 03ac 03F00F03 		and	r3, r3, #15
 7130 03b0 DBB2     		uxtb	r3, r3
 7131 03b2 2246     		mov	r2, r4
 7132 03b4 1343     		orrs	r3, r3, r2
 7133 03b6 DBB2     		uxtb	r3, r3
 7134 03b8 DAB2     		uxtb	r2, r3
 7135 03ba 3B69     		ldr	r3, [r7, #16]
 7136 03bc 1A70     		strb	r2, [r3]
1815:.\PrimeImpl.c **** 
1816:.\PrimeImpl.c ****             //5
1817:.\PrimeImpl.c ****             ptreeprom++;
 7137              		.loc 1 1817 0
 7138 03be 3B69     		ldr	r3, [r7, #16]
 7139 03c0 0133     		adds	r3, r3, #1
 7140 03c2 3B61     		str	r3, [r7, #16]
1818:.\PrimeImpl.c ****             blkindex++;
 7141              		.loc 1 1818 0
 7142 03c4 FB7B     		ldrb	r3, [r7, #15]	@ zero_extendqisi2
 7143 03c6 0133     		adds	r3, r3, #1
 7144 03c8 FB73     		strb	r3, [r7, #15]
1819:.\PrimeImpl.c ****             //Money Decimal Point
1820:.\PrimeImpl.c ****             *ptreeprom = ((TranslateSpecialFuncionDigit(pjob->_ppump->_rxbuffer[9 + 45*index + 2*bl
 7145              		.loc 1 1820 0
 7146 03ca BB69     		ldr	r3, [r7, #24]
 7147 03cc D969     		ldr	r1, [r3, #28]
 7148 03ce FA7D     		ldrb	r2, [r7, #23]	@ zero_extendqisi2
 7149 03d0 1346     		mov	r3, r2
 7150 03d2 5B00     		lsls	r3, r3, #1
 7151 03d4 1344     		add	r3, r3, r2
 7152 03d6 1A01     		lsls	r2, r3, #4
 7153 03d8 D31A     		subs	r3, r2, r3
 7154 03da 03F10902 		add	r2, r3, #9
 7155 03de FB7B     		ldrb	r3, [r7, #15]	@ zero_extendqisi2
ARM GAS  C:\Users\RECEPC~1\AppData\Local\Temp\ccvxjDo6.s 			page 159


 7156 03e0 5B00     		lsls	r3, r3, #1
 7157 03e2 1344     		add	r3, r3, r2
 7158 03e4 0B44     		add	r3, r3, r1
 7159 03e6 93F88831 		ldrb	r3, [r3, #392]	@ zero_extendqisi2
 7160 03ea 1846     		mov	r0, r3
 7161 03ec FFF7FEFF 		bl	TranslateSpecialFuncionDigit
 7162 03f0 0346     		mov	r3, r0
 7163 03f2 1B01     		lsls	r3, r3, #4
 7164 03f4 DCB2     		uxtb	r4, r3
1821:.\PrimeImpl.c ****                             (TranslateSpecialFuncionDigit(pjob->_ppump->_rxbuffer[9 + 45*index + (2
 7165              		.loc 1 1821 0
 7166 03f6 BB69     		ldr	r3, [r7, #24]
 7167 03f8 D969     		ldr	r1, [r3, #28]
 7168 03fa FA7D     		ldrb	r2, [r7, #23]	@ zero_extendqisi2
 7169 03fc 1346     		mov	r3, r2
 7170 03fe 5B00     		lsls	r3, r3, #1
 7171 0400 1344     		add	r3, r3, r2
 7172 0402 1A01     		lsls	r2, r3, #4
 7173 0404 D31A     		subs	r3, r2, r3
 7174 0406 03F10902 		add	r2, r3, #9
 7175 040a FB7B     		ldrb	r3, [r7, #15]	@ zero_extendqisi2
 7176 040c 5B00     		lsls	r3, r3, #1
 7177 040e 0133     		adds	r3, r3, #1
 7178 0410 1344     		add	r3, r3, r2
 7179 0412 0B44     		add	r3, r3, r1
 7180 0414 93F88831 		ldrb	r3, [r3, #392]	@ zero_extendqisi2
 7181 0418 1846     		mov	r0, r3
 7182 041a FFF7FEFF 		bl	TranslateSpecialFuncionDigit
 7183 041e 0346     		mov	r3, r0
1820:.\PrimeImpl.c ****                             (TranslateSpecialFuncionDigit(pjob->_ppump->_rxbuffer[9 + 45*index + (2
 7184              		.loc 1 1820 0
 7185 0420 DBB2     		uxtb	r3, r3
 7186 0422 03F00F03 		and	r3, r3, #15
 7187 0426 DBB2     		uxtb	r3, r3
 7188 0428 2246     		mov	r2, r4
 7189 042a 1343     		orrs	r3, r3, r2
 7190 042c DBB2     		uxtb	r3, r3
 7191 042e DAB2     		uxtb	r2, r3
 7192 0430 3B69     		ldr	r3, [r7, #16]
 7193 0432 1A70     		strb	r2, [r3]
1822:.\PrimeImpl.c **** 
1823:.\PrimeImpl.c ****             //6
1824:.\PrimeImpl.c ****             ptreeprom++;
 7194              		.loc 1 1824 0
 7195 0434 3B69     		ldr	r3, [r7, #16]
 7196 0436 0133     		adds	r3, r3, #1
 7197 0438 3B61     		str	r3, [r7, #16]
1825:.\PrimeImpl.c ****             blkindex++;
 7198              		.loc 1 1825 0
 7199 043a FB7B     		ldrb	r3, [r7, #15]	@ zero_extendqisi2
 7200 043c 0133     		adds	r3, r3, #1
 7201 043e FB73     		strb	r3, [r7, #15]
1826:.\PrimeImpl.c ****             //PPU Decimal Point
1827:.\PrimeImpl.c ****             *ptreeprom = ((TranslateSpecialFuncionDigit(pjob->_ppump->_rxbuffer[9 + 45*index + 2*bl
 7202              		.loc 1 1827 0
 7203 0440 BB69     		ldr	r3, [r7, #24]
 7204 0442 D969     		ldr	r1, [r3, #28]
ARM GAS  C:\Users\RECEPC~1\AppData\Local\Temp\ccvxjDo6.s 			page 160


 7205 0444 FA7D     		ldrb	r2, [r7, #23]	@ zero_extendqisi2
 7206 0446 1346     		mov	r3, r2
 7207 0448 5B00     		lsls	r3, r3, #1
 7208 044a 1344     		add	r3, r3, r2
 7209 044c 1A01     		lsls	r2, r3, #4
 7210 044e D31A     		subs	r3, r2, r3
 7211 0450 03F10902 		add	r2, r3, #9
 7212 0454 FB7B     		ldrb	r3, [r7, #15]	@ zero_extendqisi2
 7213 0456 5B00     		lsls	r3, r3, #1
 7214 0458 1344     		add	r3, r3, r2
 7215 045a 0B44     		add	r3, r3, r1
 7216 045c 93F88831 		ldrb	r3, [r3, #392]	@ zero_extendqisi2
 7217 0460 1846     		mov	r0, r3
 7218 0462 FFF7FEFF 		bl	TranslateSpecialFuncionDigit
 7219 0466 0346     		mov	r3, r0
 7220 0468 1B01     		lsls	r3, r3, #4
 7221 046a DCB2     		uxtb	r4, r3
1828:.\PrimeImpl.c ****                             (TranslateSpecialFuncionDigit(pjob->_ppump->_rxbuffer[9 + 45*index + (2
 7222              		.loc 1 1828 0
 7223 046c BB69     		ldr	r3, [r7, #24]
 7224 046e D969     		ldr	r1, [r3, #28]
 7225 0470 FA7D     		ldrb	r2, [r7, #23]	@ zero_extendqisi2
 7226 0472 1346     		mov	r3, r2
 7227 0474 5B00     		lsls	r3, r3, #1
 7228 0476 1344     		add	r3, r3, r2
 7229 0478 1A01     		lsls	r2, r3, #4
 7230 047a D31A     		subs	r3, r2, r3
 7231 047c 03F10902 		add	r2, r3, #9
 7232 0480 FB7B     		ldrb	r3, [r7, #15]	@ zero_extendqisi2
 7233 0482 5B00     		lsls	r3, r3, #1
 7234 0484 0133     		adds	r3, r3, #1
 7235 0486 1344     		add	r3, r3, r2
 7236 0488 0B44     		add	r3, r3, r1
 7237 048a 93F88831 		ldrb	r3, [r3, #392]	@ zero_extendqisi2
 7238 048e 1846     		mov	r0, r3
 7239 0490 FFF7FEFF 		bl	TranslateSpecialFuncionDigit
 7240 0494 0346     		mov	r3, r0
1827:.\PrimeImpl.c ****                             (TranslateSpecialFuncionDigit(pjob->_ppump->_rxbuffer[9 + 45*index + (2
 7241              		.loc 1 1827 0
 7242 0496 DBB2     		uxtb	r3, r3
 7243 0498 03F00F03 		and	r3, r3, #15
 7244 049c DBB2     		uxtb	r3, r3
 7245 049e 2246     		mov	r2, r4
 7246 04a0 1343     		orrs	r3, r3, r2
 7247 04a2 DBB2     		uxtb	r3, r3
 7248 04a4 DAB2     		uxtb	r2, r3
 7249 04a6 3B69     		ldr	r3, [r7, #16]
 7250 04a8 1A70     		strb	r2, [r3]
1829:.\PrimeImpl.c **** 
1830:.\PrimeImpl.c ****             //7
1831:.\PrimeImpl.c ****             ptreeprom++;
 7251              		.loc 1 1831 0
 7252 04aa 3B69     		ldr	r3, [r7, #16]
 7253 04ac 0133     		adds	r3, r3, #1
 7254 04ae 3B61     		str	r3, [r7, #16]
1832:.\PrimeImpl.c ****             blkindex++;
 7255              		.loc 1 1832 0
ARM GAS  C:\Users\RECEPC~1\AppData\Local\Temp\ccvxjDo6.s 			page 161


 7256 04b0 FB7B     		ldrb	r3, [r7, #15]	@ zero_extendqisi2
 7257 04b2 0133     		adds	r3, r3, #1
 7258 04b4 FB73     		strb	r3, [r7, #15]
1833:.\PrimeImpl.c ****             //Volume Decimal Point
1834:.\PrimeImpl.c ****             *ptreeprom = ((TranslateSpecialFuncionDigit(pjob->_ppump->_rxbuffer[9 + 45*index + 2*bl
 7259              		.loc 1 1834 0
 7260 04b6 BB69     		ldr	r3, [r7, #24]
 7261 04b8 D969     		ldr	r1, [r3, #28]
 7262 04ba FA7D     		ldrb	r2, [r7, #23]	@ zero_extendqisi2
 7263 04bc 1346     		mov	r3, r2
 7264 04be 5B00     		lsls	r3, r3, #1
 7265 04c0 1344     		add	r3, r3, r2
 7266 04c2 1A01     		lsls	r2, r3, #4
 7267 04c4 D31A     		subs	r3, r2, r3
 7268 04c6 03F10902 		add	r2, r3, #9
 7269 04ca FB7B     		ldrb	r3, [r7, #15]	@ zero_extendqisi2
 7270 04cc 5B00     		lsls	r3, r3, #1
 7271 04ce 1344     		add	r3, r3, r2
 7272 04d0 0B44     		add	r3, r3, r1
 7273 04d2 93F88831 		ldrb	r3, [r3, #392]	@ zero_extendqisi2
 7274 04d6 1846     		mov	r0, r3
 7275 04d8 FFF7FEFF 		bl	TranslateSpecialFuncionDigit
 7276 04dc 0346     		mov	r3, r0
 7277 04de 1B01     		lsls	r3, r3, #4
 7278 04e0 DCB2     		uxtb	r4, r3
1835:.\PrimeImpl.c ****                             (TranslateSpecialFuncionDigit(pjob->_ppump->_rxbuffer[9 + 45*index + (2
 7279              		.loc 1 1835 0
 7280 04e2 BB69     		ldr	r3, [r7, #24]
 7281 04e4 D969     		ldr	r1, [r3, #28]
 7282 04e6 FA7D     		ldrb	r2, [r7, #23]	@ zero_extendqisi2
 7283 04e8 1346     		mov	r3, r2
 7284 04ea 5B00     		lsls	r3, r3, #1
 7285 04ec 1344     		add	r3, r3, r2
 7286 04ee 1A01     		lsls	r2, r3, #4
 7287 04f0 D31A     		subs	r3, r2, r3
 7288 04f2 03F10902 		add	r2, r3, #9
 7289 04f6 FB7B     		ldrb	r3, [r7, #15]	@ zero_extendqisi2
 7290 04f8 5B00     		lsls	r3, r3, #1
 7291 04fa 0133     		adds	r3, r3, #1
 7292 04fc 1344     		add	r3, r3, r2
 7293 04fe 0B44     		add	r3, r3, r1
 7294 0500 93F88831 		ldrb	r3, [r3, #392]	@ zero_extendqisi2
 7295 0504 1846     		mov	r0, r3
 7296 0506 FFF7FEFF 		bl	TranslateSpecialFuncionDigit
 7297 050a 0346     		mov	r3, r0
1834:.\PrimeImpl.c ****                             (TranslateSpecialFuncionDigit(pjob->_ppump->_rxbuffer[9 + 45*index + (2
 7298              		.loc 1 1834 0
 7299 050c DBB2     		uxtb	r3, r3
 7300 050e 03F00F03 		and	r3, r3, #15
 7301 0512 DBB2     		uxtb	r3, r3
 7302 0514 2246     		mov	r2, r4
 7303 0516 1343     		orrs	r3, r3, r2
 7304 0518 DBB2     		uxtb	r3, r3
 7305 051a DAB2     		uxtb	r2, r3
 7306 051c 3B69     		ldr	r3, [r7, #16]
 7307 051e 1A70     		strb	r2, [r3]
1836:.\PrimeImpl.c **** 
ARM GAS  C:\Users\RECEPC~1\AppData\Local\Temp\ccvxjDo6.s 			page 162


1837:.\PrimeImpl.c ****             //8
1838:.\PrimeImpl.c ****             ptreeprom++;
 7308              		.loc 1 1838 0
 7309 0520 3B69     		ldr	r3, [r7, #16]
 7310 0522 0133     		adds	r3, r3, #1
 7311 0524 3B61     		str	r3, [r7, #16]
1839:.\PrimeImpl.c ****             blkindex++;
 7312              		.loc 1 1839 0
 7313 0526 FB7B     		ldrb	r3, [r7, #15]	@ zero_extendqisi2
 7314 0528 0133     		adds	r3, r3, #1
 7315 052a FB73     		strb	r3, [r7, #15]
1840:.\PrimeImpl.c ****             //Motor Pre-Start
1841:.\PrimeImpl.c ****             *ptreeprom = ((TranslateSpecialFuncionDigit(pjob->_ppump->_rxbuffer[9 + 45*index + 2*bl
 7316              		.loc 1 1841 0
 7317 052c BB69     		ldr	r3, [r7, #24]
 7318 052e D969     		ldr	r1, [r3, #28]
 7319 0530 FA7D     		ldrb	r2, [r7, #23]	@ zero_extendqisi2
 7320 0532 1346     		mov	r3, r2
 7321 0534 5B00     		lsls	r3, r3, #1
 7322 0536 1344     		add	r3, r3, r2
 7323 0538 1A01     		lsls	r2, r3, #4
 7324 053a D31A     		subs	r3, r2, r3
 7325 053c 03F10902 		add	r2, r3, #9
 7326 0540 FB7B     		ldrb	r3, [r7, #15]	@ zero_extendqisi2
 7327 0542 5B00     		lsls	r3, r3, #1
 7328 0544 1344     		add	r3, r3, r2
 7329 0546 0B44     		add	r3, r3, r1
 7330 0548 93F88831 		ldrb	r3, [r3, #392]	@ zero_extendqisi2
 7331 054c 1846     		mov	r0, r3
 7332 054e FFF7FEFF 		bl	TranslateSpecialFuncionDigit
 7333 0552 0346     		mov	r3, r0
 7334 0554 1B01     		lsls	r3, r3, #4
 7335 0556 DCB2     		uxtb	r4, r3
1842:.\PrimeImpl.c ****                             (TranslateSpecialFuncionDigit(pjob->_ppump->_rxbuffer[9 + 45*index + (2
 7336              		.loc 1 1842 0
 7337 0558 BB69     		ldr	r3, [r7, #24]
 7338 055a D969     		ldr	r1, [r3, #28]
 7339 055c FA7D     		ldrb	r2, [r7, #23]	@ zero_extendqisi2
 7340 055e 1346     		mov	r3, r2
 7341 0560 5B00     		lsls	r3, r3, #1
 7342 0562 1344     		add	r3, r3, r2
 7343 0564 1A01     		lsls	r2, r3, #4
 7344 0566 D31A     		subs	r3, r2, r3
 7345 0568 03F10902 		add	r2, r3, #9
 7346 056c FB7B     		ldrb	r3, [r7, #15]	@ zero_extendqisi2
 7347 056e 5B00     		lsls	r3, r3, #1
 7348 0570 0133     		adds	r3, r3, #1
 7349 0572 1344     		add	r3, r3, r2
 7350 0574 0B44     		add	r3, r3, r1
 7351 0576 93F88831 		ldrb	r3, [r3, #392]	@ zero_extendqisi2
 7352 057a 1846     		mov	r0, r3
 7353 057c FFF7FEFF 		bl	TranslateSpecialFuncionDigit
 7354 0580 0346     		mov	r3, r0
1841:.\PrimeImpl.c ****                             (TranslateSpecialFuncionDigit(pjob->_ppump->_rxbuffer[9 + 45*index + (2
 7355              		.loc 1 1841 0
 7356 0582 DBB2     		uxtb	r3, r3
 7357 0584 03F00F03 		and	r3, r3, #15
ARM GAS  C:\Users\RECEPC~1\AppData\Local\Temp\ccvxjDo6.s 			page 163


 7358 0588 DBB2     		uxtb	r3, r3
 7359 058a 2246     		mov	r2, r4
 7360 058c 1343     		orrs	r3, r3, r2
 7361 058e DBB2     		uxtb	r3, r3
 7362 0590 DAB2     		uxtb	r2, r3
 7363 0592 3B69     		ldr	r3, [r7, #16]
 7364 0594 1A70     		strb	r2, [r3]
1843:.\PrimeImpl.c **** 
1844:.\PrimeImpl.c ****             //9
1845:.\PrimeImpl.c ****             ptreeprom++;
 7365              		.loc 1 1845 0
 7366 0596 3B69     		ldr	r3, [r7, #16]
 7367 0598 0133     		adds	r3, r3, #1
 7368 059a 3B61     		str	r3, [r7, #16]
1846:.\PrimeImpl.c ****             blkindex++;
 7369              		.loc 1 1846 0
 7370 059c FB7B     		ldrb	r3, [r7, #15]	@ zero_extendqisi2
 7371 059e 0133     		adds	r3, r3, #1
 7372 05a0 FB73     		strb	r3, [r7, #15]
1847:.\PrimeImpl.c ****             //Beeper
1848:.\PrimeImpl.c ****             *ptreeprom = ((TranslateSpecialFuncionDigit(pjob->_ppump->_rxbuffer[9 + 45*index + 2*bl
 7373              		.loc 1 1848 0
 7374 05a2 BB69     		ldr	r3, [r7, #24]
 7375 05a4 D969     		ldr	r1, [r3, #28]
 7376 05a6 FA7D     		ldrb	r2, [r7, #23]	@ zero_extendqisi2
 7377 05a8 1346     		mov	r3, r2
 7378 05aa 5B00     		lsls	r3, r3, #1
 7379 05ac 1344     		add	r3, r3, r2
 7380 05ae 1A01     		lsls	r2, r3, #4
 7381 05b0 D31A     		subs	r3, r2, r3
 7382 05b2 03F10902 		add	r2, r3, #9
 7383 05b6 FB7B     		ldrb	r3, [r7, #15]	@ zero_extendqisi2
 7384 05b8 5B00     		lsls	r3, r3, #1
 7385 05ba 1344     		add	r3, r3, r2
 7386 05bc 0B44     		add	r3, r3, r1
 7387 05be 93F88831 		ldrb	r3, [r3, #392]	@ zero_extendqisi2
 7388 05c2 1846     		mov	r0, r3
 7389 05c4 FFF7FEFF 		bl	TranslateSpecialFuncionDigit
 7390 05c8 0346     		mov	r3, r0
 7391 05ca 1B01     		lsls	r3, r3, #4
 7392 05cc DCB2     		uxtb	r4, r3
1849:.\PrimeImpl.c ****                             (TranslateSpecialFuncionDigit(pjob->_ppump->_rxbuffer[9 + 45*index + (2
 7393              		.loc 1 1849 0
 7394 05ce BB69     		ldr	r3, [r7, #24]
 7395 05d0 D969     		ldr	r1, [r3, #28]
 7396 05d2 FA7D     		ldrb	r2, [r7, #23]	@ zero_extendqisi2
 7397 05d4 1346     		mov	r3, r2
 7398 05d6 5B00     		lsls	r3, r3, #1
 7399 05d8 1344     		add	r3, r3, r2
 7400 05da 1A01     		lsls	r2, r3, #4
 7401 05dc D31A     		subs	r3, r2, r3
 7402 05de 03F10902 		add	r2, r3, #9
 7403 05e2 FB7B     		ldrb	r3, [r7, #15]	@ zero_extendqisi2
 7404 05e4 5B00     		lsls	r3, r3, #1
 7405 05e6 0133     		adds	r3, r3, #1
 7406 05e8 1344     		add	r3, r3, r2
 7407 05ea 0B44     		add	r3, r3, r1
ARM GAS  C:\Users\RECEPC~1\AppData\Local\Temp\ccvxjDo6.s 			page 164


 7408 05ec 93F88831 		ldrb	r3, [r3, #392]	@ zero_extendqisi2
 7409 05f0 1846     		mov	r0, r3
 7410 05f2 FFF7FEFF 		bl	TranslateSpecialFuncionDigit
 7411 05f6 0346     		mov	r3, r0
1848:.\PrimeImpl.c ****                             (TranslateSpecialFuncionDigit(pjob->_ppump->_rxbuffer[9 + 45*index + (2
 7412              		.loc 1 1848 0
 7413 05f8 DBB2     		uxtb	r3, r3
 7414 05fa 03F00F03 		and	r3, r3, #15
 7415 05fe DBB2     		uxtb	r3, r3
 7416 0600 2246     		mov	r2, r4
 7417 0602 1343     		orrs	r3, r3, r2
 7418 0604 DBB2     		uxtb	r3, r3
 7419 0606 DAB2     		uxtb	r2, r3
 7420 0608 3B69     		ldr	r3, [r7, #16]
 7421 060a 1A70     		strb	r2, [r3]
1850:.\PrimeImpl.c **** 
1851:.\PrimeImpl.c ****             //10
1852:.\PrimeImpl.c ****             ptreeprom++;
 7422              		.loc 1 1852 0
 7423 060c 3B69     		ldr	r3, [r7, #16]
 7424 060e 0133     		adds	r3, r3, #1
 7425 0610 3B61     		str	r3, [r7, #16]
1853:.\PrimeImpl.c ****             blkindex++;
 7426              		.loc 1 1853 0
 7427 0612 FB7B     		ldrb	r3, [r7, #15]	@ zero_extendqisi2
 7428 0614 0133     		adds	r3, r3, #1
 7429 0616 FB73     		strb	r3, [r7, #15]
1854:.\PrimeImpl.c ****             //Display Digits Mode
1855:.\PrimeImpl.c ****             *ptreeprom = ((TranslateSpecialFuncionDigit(pjob->_ppump->_rxbuffer[9 + 45*index + 2*bl
 7430              		.loc 1 1855 0
 7431 0618 BB69     		ldr	r3, [r7, #24]
 7432 061a D969     		ldr	r1, [r3, #28]
 7433 061c FA7D     		ldrb	r2, [r7, #23]	@ zero_extendqisi2
 7434 061e 1346     		mov	r3, r2
 7435 0620 5B00     		lsls	r3, r3, #1
 7436 0622 1344     		add	r3, r3, r2
 7437 0624 1A01     		lsls	r2, r3, #4
 7438 0626 D31A     		subs	r3, r2, r3
 7439 0628 03F10902 		add	r2, r3, #9
 7440 062c FB7B     		ldrb	r3, [r7, #15]	@ zero_extendqisi2
 7441 062e 5B00     		lsls	r3, r3, #1
 7442 0630 1344     		add	r3, r3, r2
 7443 0632 0B44     		add	r3, r3, r1
 7444 0634 93F88831 		ldrb	r3, [r3, #392]	@ zero_extendqisi2
 7445 0638 1846     		mov	r0, r3
 7446 063a FFF7FEFF 		bl	TranslateSpecialFuncionDigit
 7447 063e 0346     		mov	r3, r0
 7448 0640 1B01     		lsls	r3, r3, #4
 7449 0642 DCB2     		uxtb	r4, r3
1856:.\PrimeImpl.c ****                             (TranslateSpecialFuncionDigit(pjob->_ppump->_rxbuffer[9 + 45*index + (2
 7450              		.loc 1 1856 0
 7451 0644 BB69     		ldr	r3, [r7, #24]
 7452 0646 D969     		ldr	r1, [r3, #28]
 7453 0648 FA7D     		ldrb	r2, [r7, #23]	@ zero_extendqisi2
 7454 064a 1346     		mov	r3, r2
 7455 064c 5B00     		lsls	r3, r3, #1
 7456 064e 1344     		add	r3, r3, r2
ARM GAS  C:\Users\RECEPC~1\AppData\Local\Temp\ccvxjDo6.s 			page 165


 7457 0650 1A01     		lsls	r2, r3, #4
 7458 0652 D31A     		subs	r3, r2, r3
 7459 0654 03F10902 		add	r2, r3, #9
 7460 0658 FB7B     		ldrb	r3, [r7, #15]	@ zero_extendqisi2
 7461 065a 5B00     		lsls	r3, r3, #1
 7462 065c 0133     		adds	r3, r3, #1
 7463 065e 1344     		add	r3, r3, r2
 7464 0660 0B44     		add	r3, r3, r1
 7465 0662 93F88831 		ldrb	r3, [r3, #392]	@ zero_extendqisi2
 7466 0666 1846     		mov	r0, r3
 7467 0668 FFF7FEFF 		bl	TranslateSpecialFuncionDigit
 7468 066c 0346     		mov	r3, r0
1855:.\PrimeImpl.c ****                             (TranslateSpecialFuncionDigit(pjob->_ppump->_rxbuffer[9 + 45*index + (2
 7469              		.loc 1 1855 0
 7470 066e DBB2     		uxtb	r3, r3
 7471 0670 03F00F03 		and	r3, r3, #15
 7472 0674 DBB2     		uxtb	r3, r3
 7473 0676 2246     		mov	r2, r4
 7474 0678 1343     		orrs	r3, r3, r2
 7475 067a DBB2     		uxtb	r3, r3
 7476 067c DAB2     		uxtb	r2, r3
 7477 067e 3B69     		ldr	r3, [r7, #16]
 7478 0680 1A70     		strb	r2, [r3]
1857:.\PrimeImpl.c **** 
1858:.\PrimeImpl.c ****             _g_dispenserlayoutinfo._presetdigits = *ptreeprom;
 7479              		.loc 1 1858 0
 7480 0682 3B69     		ldr	r3, [r7, #16]
 7481 0684 1A78     		ldrb	r2, [r3]	@ zero_extendqisi2
 7482 0686 C54B     		ldr	r3, .L240
 7483 0688 5A74     		strb	r2, [r3, #17]
1859:.\PrimeImpl.c ****             //11
1860:.\PrimeImpl.c ****             ptreeprom++;
 7484              		.loc 1 1860 0
 7485 068a 3B69     		ldr	r3, [r7, #16]
 7486 068c 0133     		adds	r3, r3, #1
 7487 068e 3B61     		str	r3, [r7, #16]
1861:.\PrimeImpl.c ****             blkindex++;
 7488              		.loc 1 1861 0
 7489 0690 FB7B     		ldrb	r3, [r7, #15]	@ zero_extendqisi2
 7490 0692 0133     		adds	r3, r3, #1
 7491 0694 FB73     		strb	r3, [r7, #15]
1862:.\PrimeImpl.c ****             //Point / Comma Decimal
1863:.\PrimeImpl.c ****             *ptreeprom = ((TranslateSpecialFuncionDigit(pjob->_ppump->_rxbuffer[9 + 45*index + 2*bl
 7492              		.loc 1 1863 0
 7493 0696 BB69     		ldr	r3, [r7, #24]
 7494 0698 D969     		ldr	r1, [r3, #28]
 7495 069a FA7D     		ldrb	r2, [r7, #23]	@ zero_extendqisi2
 7496 069c 1346     		mov	r3, r2
 7497 069e 5B00     		lsls	r3, r3, #1
 7498 06a0 1344     		add	r3, r3, r2
 7499 06a2 1A01     		lsls	r2, r3, #4
 7500 06a4 D31A     		subs	r3, r2, r3
 7501 06a6 03F10902 		add	r2, r3, #9
 7502 06aa FB7B     		ldrb	r3, [r7, #15]	@ zero_extendqisi2
 7503 06ac 5B00     		lsls	r3, r3, #1
 7504 06ae 1344     		add	r3, r3, r2
 7505 06b0 0B44     		add	r3, r3, r1
ARM GAS  C:\Users\RECEPC~1\AppData\Local\Temp\ccvxjDo6.s 			page 166


 7506 06b2 93F88831 		ldrb	r3, [r3, #392]	@ zero_extendqisi2
 7507 06b6 1846     		mov	r0, r3
 7508 06b8 FFF7FEFF 		bl	TranslateSpecialFuncionDigit
 7509 06bc 0346     		mov	r3, r0
 7510 06be 1B01     		lsls	r3, r3, #4
 7511 06c0 DCB2     		uxtb	r4, r3
1864:.\PrimeImpl.c ****                             (TranslateSpecialFuncionDigit(pjob->_ppump->_rxbuffer[9 + 45*index + (2
 7512              		.loc 1 1864 0
 7513 06c2 BB69     		ldr	r3, [r7, #24]
 7514 06c4 D969     		ldr	r1, [r3, #28]
 7515 06c6 FA7D     		ldrb	r2, [r7, #23]	@ zero_extendqisi2
 7516 06c8 1346     		mov	r3, r2
 7517 06ca 5B00     		lsls	r3, r3, #1
 7518 06cc 1344     		add	r3, r3, r2
 7519 06ce 1A01     		lsls	r2, r3, #4
 7520 06d0 D31A     		subs	r3, r2, r3
 7521 06d2 03F10902 		add	r2, r3, #9
 7522 06d6 FB7B     		ldrb	r3, [r7, #15]	@ zero_extendqisi2
 7523 06d8 5B00     		lsls	r3, r3, #1
 7524 06da 0133     		adds	r3, r3, #1
 7525 06dc 1344     		add	r3, r3, r2
 7526 06de 0B44     		add	r3, r3, r1
 7527 06e0 93F88831 		ldrb	r3, [r3, #392]	@ zero_extendqisi2
 7528 06e4 1846     		mov	r0, r3
 7529 06e6 FFF7FEFF 		bl	TranslateSpecialFuncionDigit
 7530 06ea 0346     		mov	r3, r0
1863:.\PrimeImpl.c ****                             (TranslateSpecialFuncionDigit(pjob->_ppump->_rxbuffer[9 + 45*index + (2
 7531              		.loc 1 1863 0
 7532 06ec DBB2     		uxtb	r3, r3
 7533 06ee 03F00F03 		and	r3, r3, #15
 7534 06f2 DBB2     		uxtb	r3, r3
 7535 06f4 2246     		mov	r2, r4
 7536 06f6 1343     		orrs	r3, r3, r2
 7537 06f8 DBB2     		uxtb	r3, r3
 7538 06fa DAB2     		uxtb	r2, r3
 7539 06fc 3B69     		ldr	r3, [r7, #16]
 7540 06fe 1A70     		strb	r2, [r3]
1865:.\PrimeImpl.c **** 
1866:.\PrimeImpl.c ****             //12
1867:.\PrimeImpl.c ****             ptreeprom++;
 7541              		.loc 1 1867 0
 7542 0700 3B69     		ldr	r3, [r7, #16]
 7543 0702 0133     		adds	r3, r3, #1
 7544 0704 3B61     		str	r3, [r7, #16]
1868:.\PrimeImpl.c ****             blkindex++;
 7545              		.loc 1 1868 0
 7546 0706 FB7B     		ldrb	r3, [r7, #15]	@ zero_extendqisi2
 7547 0708 0133     		adds	r3, r3, #1
 7548 070a FB73     		strb	r3, [r7, #15]
1869:.\PrimeImpl.c ****             //Inactive Preset Timeout
1870:.\PrimeImpl.c ****             *ptreeprom = ((TranslateSpecialFuncionDigit(pjob->_ppump->_rxbuffer[9 + 45*index + 2*bl
 7549              		.loc 1 1870 0
 7550 070c BB69     		ldr	r3, [r7, #24]
 7551 070e D969     		ldr	r1, [r3, #28]
 7552 0710 FA7D     		ldrb	r2, [r7, #23]	@ zero_extendqisi2
 7553 0712 1346     		mov	r3, r2
 7554 0714 5B00     		lsls	r3, r3, #1
ARM GAS  C:\Users\RECEPC~1\AppData\Local\Temp\ccvxjDo6.s 			page 167


 7555 0716 1344     		add	r3, r3, r2
 7556 0718 1A01     		lsls	r2, r3, #4
 7557 071a D31A     		subs	r3, r2, r3
 7558 071c 03F10902 		add	r2, r3, #9
 7559 0720 FB7B     		ldrb	r3, [r7, #15]	@ zero_extendqisi2
 7560 0722 5B00     		lsls	r3, r3, #1
 7561 0724 1344     		add	r3, r3, r2
 7562 0726 0B44     		add	r3, r3, r1
 7563 0728 93F88831 		ldrb	r3, [r3, #392]	@ zero_extendqisi2
 7564 072c 1846     		mov	r0, r3
 7565 072e FFF7FEFF 		bl	TranslateSpecialFuncionDigit
 7566 0732 0346     		mov	r3, r0
 7567 0734 1B01     		lsls	r3, r3, #4
 7568 0736 DCB2     		uxtb	r4, r3
1871:.\PrimeImpl.c ****                             (TranslateSpecialFuncionDigit(pjob->_ppump->_rxbuffer[9 + 45*index + (2
 7569              		.loc 1 1871 0
 7570 0738 BB69     		ldr	r3, [r7, #24]
 7571 073a D969     		ldr	r1, [r3, #28]
 7572 073c FA7D     		ldrb	r2, [r7, #23]	@ zero_extendqisi2
 7573 073e 1346     		mov	r3, r2
 7574 0740 5B00     		lsls	r3, r3, #1
 7575 0742 1344     		add	r3, r3, r2
 7576 0744 1A01     		lsls	r2, r3, #4
 7577 0746 D31A     		subs	r3, r2, r3
 7578 0748 03F10902 		add	r2, r3, #9
 7579 074c FB7B     		ldrb	r3, [r7, #15]	@ zero_extendqisi2
 7580 074e 5B00     		lsls	r3, r3, #1
 7581 0750 0133     		adds	r3, r3, #1
 7582 0752 1344     		add	r3, r3, r2
 7583 0754 0B44     		add	r3, r3, r1
 7584 0756 93F88831 		ldrb	r3, [r3, #392]	@ zero_extendqisi2
 7585 075a 1846     		mov	r0, r3
 7586 075c FFF7FEFF 		bl	TranslateSpecialFuncionDigit
 7587 0760 0346     		mov	r3, r0
1870:.\PrimeImpl.c ****                             (TranslateSpecialFuncionDigit(pjob->_ppump->_rxbuffer[9 + 45*index + (2
 7588              		.loc 1 1870 0
 7589 0762 DBB2     		uxtb	r3, r3
 7590 0764 03F00F03 		and	r3, r3, #15
 7591 0768 DBB2     		uxtb	r3, r3
 7592 076a 2246     		mov	r2, r4
 7593 076c 1343     		orrs	r3, r3, r2
 7594 076e DBB2     		uxtb	r3, r3
 7595 0770 DAB2     		uxtb	r2, r3
 7596 0772 3B69     		ldr	r3, [r7, #16]
 7597 0774 1A70     		strb	r2, [r3]
1872:.\PrimeImpl.c **** 
1873:.\PrimeImpl.c ****             //13
1874:.\PrimeImpl.c ****             ptreeprom++;
 7598              		.loc 1 1874 0
 7599 0776 3B69     		ldr	r3, [r7, #16]
 7600 0778 0133     		adds	r3, r3, #1
 7601 077a 3B61     		str	r3, [r7, #16]
1875:.\PrimeImpl.c ****             blkindex++;
 7602              		.loc 1 1875 0
 7603 077c FB7B     		ldrb	r3, [r7, #15]	@ zero_extendqisi2
 7604 077e 0133     		adds	r3, r3, #1
 7605 0780 FB73     		strb	r3, [r7, #15]
ARM GAS  C:\Users\RECEPC~1\AppData\Local\Temp\ccvxjDo6.s 			page 168


1876:.\PrimeImpl.c ****             //Inactive Delivery Timeout
1877:.\PrimeImpl.c ****             *ptreeprom = ((TranslateSpecialFuncionDigit(pjob->_ppump->_rxbuffer[9 + 45*index + 2*bl
 7606              		.loc 1 1877 0
 7607 0782 BB69     		ldr	r3, [r7, #24]
 7608 0784 D969     		ldr	r1, [r3, #28]
 7609 0786 FA7D     		ldrb	r2, [r7, #23]	@ zero_extendqisi2
 7610 0788 1346     		mov	r3, r2
 7611 078a 5B00     		lsls	r3, r3, #1
 7612 078c 1344     		add	r3, r3, r2
 7613 078e 1A01     		lsls	r2, r3, #4
 7614 0790 D31A     		subs	r3, r2, r3
 7615 0792 03F10902 		add	r2, r3, #9
 7616 0796 FB7B     		ldrb	r3, [r7, #15]	@ zero_extendqisi2
 7617 0798 5B00     		lsls	r3, r3, #1
 7618 079a 1344     		add	r3, r3, r2
 7619 079c 0B44     		add	r3, r3, r1
 7620 079e 93F88831 		ldrb	r3, [r3, #392]	@ zero_extendqisi2
 7621 07a2 1846     		mov	r0, r3
 7622 07a4 FFF7FEFF 		bl	TranslateSpecialFuncionDigit
 7623 07a8 0346     		mov	r3, r0
 7624 07aa 1B01     		lsls	r3, r3, #4
 7625 07ac DCB2     		uxtb	r4, r3
1878:.\PrimeImpl.c ****                             (TranslateSpecialFuncionDigit(pjob->_ppump->_rxbuffer[9 + 45*index + (2
 7626              		.loc 1 1878 0
 7627 07ae BB69     		ldr	r3, [r7, #24]
 7628 07b0 D969     		ldr	r1, [r3, #28]
 7629 07b2 FA7D     		ldrb	r2, [r7, #23]	@ zero_extendqisi2
 7630 07b4 1346     		mov	r3, r2
 7631 07b6 5B00     		lsls	r3, r3, #1
 7632 07b8 1344     		add	r3, r3, r2
 7633 07ba 1A01     		lsls	r2, r3, #4
 7634 07bc D31A     		subs	r3, r2, r3
 7635 07be 03F10902 		add	r2, r3, #9
 7636 07c2 FB7B     		ldrb	r3, [r7, #15]	@ zero_extendqisi2
 7637 07c4 5B00     		lsls	r3, r3, #1
 7638 07c6 0133     		adds	r3, r3, #1
 7639 07c8 1344     		add	r3, r3, r2
 7640 07ca 0B44     		add	r3, r3, r1
 7641 07cc 93F88831 		ldrb	r3, [r3, #392]	@ zero_extendqisi2
 7642 07d0 1846     		mov	r0, r3
 7643 07d2 FFF7FEFF 		bl	TranslateSpecialFuncionDigit
 7644 07d6 0346     		mov	r3, r0
1877:.\PrimeImpl.c ****                             (TranslateSpecialFuncionDigit(pjob->_ppump->_rxbuffer[9 + 45*index + (2
 7645              		.loc 1 1877 0
 7646 07d8 DBB2     		uxtb	r3, r3
 7647 07da 03F00F03 		and	r3, r3, #15
 7648 07de DBB2     		uxtb	r3, r3
 7649 07e0 2246     		mov	r2, r4
 7650 07e2 1343     		orrs	r3, r3, r2
 7651 07e4 DBB2     		uxtb	r3, r3
 7652 07e6 DAB2     		uxtb	r2, r3
 7653 07e8 3B69     		ldr	r3, [r7, #16]
 7654 07ea 1A70     		strb	r2, [r3]
1879:.\PrimeImpl.c **** 
1880:.\PrimeImpl.c ****             //14
1881:.\PrimeImpl.c ****             ptreeprom++;
 7655              		.loc 1 1881 0
ARM GAS  C:\Users\RECEPC~1\AppData\Local\Temp\ccvxjDo6.s 			page 169


 7656 07ec 3B69     		ldr	r3, [r7, #16]
 7657 07ee 0133     		adds	r3, r3, #1
 7658 07f0 3B61     		str	r3, [r7, #16]
1882:.\PrimeImpl.c ****             blkindex++;
 7659              		.loc 1 1882 0
 7660 07f2 FB7B     		ldrb	r3, [r7, #15]	@ zero_extendqisi2
 7661 07f4 0133     		adds	r3, r3, #1
 7662 07f6 FB73     		strb	r3, [r7, #15]
1883:.\PrimeImpl.c ****             //Beeper Inactive Delivery Timeout
1884:.\PrimeImpl.c ****             *ptreeprom = ((TranslateSpecialFuncionDigit(pjob->_ppump->_rxbuffer[9 + 45*index + 2*bl
 7663              		.loc 1 1884 0
 7664 07f8 BB69     		ldr	r3, [r7, #24]
 7665 07fa D969     		ldr	r1, [r3, #28]
 7666 07fc FA7D     		ldrb	r2, [r7, #23]	@ zero_extendqisi2
 7667 07fe 1346     		mov	r3, r2
 7668 0800 5B00     		lsls	r3, r3, #1
 7669 0802 1344     		add	r3, r3, r2
 7670 0804 1A01     		lsls	r2, r3, #4
 7671 0806 D31A     		subs	r3, r2, r3
 7672 0808 03F10902 		add	r2, r3, #9
 7673 080c FB7B     		ldrb	r3, [r7, #15]	@ zero_extendqisi2
 7674 080e 5B00     		lsls	r3, r3, #1
 7675 0810 1344     		add	r3, r3, r2
 7676 0812 0B44     		add	r3, r3, r1
 7677 0814 93F88831 		ldrb	r3, [r3, #392]	@ zero_extendqisi2
 7678 0818 1846     		mov	r0, r3
 7679 081a FFF7FEFF 		bl	TranslateSpecialFuncionDigit
 7680 081e 0346     		mov	r3, r0
 7681 0820 1B01     		lsls	r3, r3, #4
 7682 0822 DCB2     		uxtb	r4, r3
1885:.\PrimeImpl.c ****                             (TranslateSpecialFuncionDigit(pjob->_ppump->_rxbuffer[9 + 45*index + (2
 7683              		.loc 1 1885 0
 7684 0824 BB69     		ldr	r3, [r7, #24]
 7685 0826 D969     		ldr	r1, [r3, #28]
 7686 0828 FA7D     		ldrb	r2, [r7, #23]	@ zero_extendqisi2
 7687 082a 1346     		mov	r3, r2
 7688 082c 5B00     		lsls	r3, r3, #1
 7689 082e 1344     		add	r3, r3, r2
 7690 0830 1A01     		lsls	r2, r3, #4
 7691 0832 D31A     		subs	r3, r2, r3
 7692 0834 03F10902 		add	r2, r3, #9
 7693 0838 FB7B     		ldrb	r3, [r7, #15]	@ zero_extendqisi2
 7694 083a 5B00     		lsls	r3, r3, #1
 7695 083c 0133     		adds	r3, r3, #1
 7696 083e 1344     		add	r3, r3, r2
 7697 0840 0B44     		add	r3, r3, r1
 7698 0842 93F88831 		ldrb	r3, [r3, #392]	@ zero_extendqisi2
 7699 0846 1846     		mov	r0, r3
 7700 0848 FFF7FEFF 		bl	TranslateSpecialFuncionDigit
 7701 084c 0346     		mov	r3, r0
1884:.\PrimeImpl.c ****                             (TranslateSpecialFuncionDigit(pjob->_ppump->_rxbuffer[9 + 45*index + (2
 7702              		.loc 1 1884 0
 7703 084e DBB2     		uxtb	r3, r3
 7704 0850 03F00F03 		and	r3, r3, #15
 7705 0854 DBB2     		uxtb	r3, r3
 7706 0856 2246     		mov	r2, r4
 7707 0858 1343     		orrs	r3, r3, r2
ARM GAS  C:\Users\RECEPC~1\AppData\Local\Temp\ccvxjDo6.s 			page 170


 7708 085a DBB2     		uxtb	r3, r3
 7709 085c DAB2     		uxtb	r2, r3
 7710 085e 3B69     		ldr	r3, [r7, #16]
 7711 0860 1A70     		strb	r2, [r3]
1886:.\PrimeImpl.c **** 
1887:.\PrimeImpl.c ****             //15
1888:.\PrimeImpl.c ****             ptreeprom++;
 7712              		.loc 1 1888 0
 7713 0862 3B69     		ldr	r3, [r7, #16]
 7714 0864 0133     		adds	r3, r3, #1
 7715 0866 3B61     		str	r3, [r7, #16]
1889:.\PrimeImpl.c ****             blkindex++;
 7716              		.loc 1 1889 0
 7717 0868 FB7B     		ldrb	r3, [r7, #15]	@ zero_extendqisi2
 7718 086a 0133     		adds	r3, r3, #1
 7719 086c FB73     		strb	r3, [r7, #15]
1890:.\PrimeImpl.c ****             //Slow-Flow Rate Valves Entry
1891:.\PrimeImpl.c ****             *ptreeprom = ((TranslateSpecialFuncionDigit(pjob->_ppump->_rxbuffer[9 + 45*index + 2*bl
 7720              		.loc 1 1891 0
 7721 086e BB69     		ldr	r3, [r7, #24]
 7722 0870 D969     		ldr	r1, [r3, #28]
 7723 0872 FA7D     		ldrb	r2, [r7, #23]	@ zero_extendqisi2
 7724 0874 1346     		mov	r3, r2
 7725 0876 5B00     		lsls	r3, r3, #1
 7726 0878 1344     		add	r3, r3, r2
 7727 087a 1A01     		lsls	r2, r3, #4
 7728 087c D31A     		subs	r3, r2, r3
 7729 087e 03F10902 		add	r2, r3, #9
 7730 0882 FB7B     		ldrb	r3, [r7, #15]	@ zero_extendqisi2
 7731 0884 5B00     		lsls	r3, r3, #1
 7732 0886 1344     		add	r3, r3, r2
 7733 0888 0B44     		add	r3, r3, r1
 7734 088a 93F88831 		ldrb	r3, [r3, #392]	@ zero_extendqisi2
 7735 088e 1846     		mov	r0, r3
 7736 0890 FFF7FEFF 		bl	TranslateSpecialFuncionDigit
 7737 0894 0346     		mov	r3, r0
 7738 0896 1B01     		lsls	r3, r3, #4
 7739 0898 DCB2     		uxtb	r4, r3
1892:.\PrimeImpl.c ****                             (TranslateSpecialFuncionDigit(pjob->_ppump->_rxbuffer[9 + 45*index + (2
 7740              		.loc 1 1892 0
 7741 089a BB69     		ldr	r3, [r7, #24]
 7742 089c D969     		ldr	r1, [r3, #28]
 7743 089e FA7D     		ldrb	r2, [r7, #23]	@ zero_extendqisi2
 7744 08a0 1346     		mov	r3, r2
 7745 08a2 5B00     		lsls	r3, r3, #1
 7746 08a4 1344     		add	r3, r3, r2
 7747 08a6 1A01     		lsls	r2, r3, #4
 7748 08a8 D31A     		subs	r3, r2, r3
 7749 08aa 03F10902 		add	r2, r3, #9
 7750 08ae FB7B     		ldrb	r3, [r7, #15]	@ zero_extendqisi2
 7751 08b0 5B00     		lsls	r3, r3, #1
 7752 08b2 0133     		adds	r3, r3, #1
 7753 08b4 1344     		add	r3, r3, r2
 7754 08b6 0B44     		add	r3, r3, r1
 7755 08b8 93F88831 		ldrb	r3, [r3, #392]	@ zero_extendqisi2
 7756 08bc 1846     		mov	r0, r3
 7757 08be FFF7FEFF 		bl	TranslateSpecialFuncionDigit
ARM GAS  C:\Users\RECEPC~1\AppData\Local\Temp\ccvxjDo6.s 			page 171


 7758 08c2 0346     		mov	r3, r0
1891:.\PrimeImpl.c ****                             (TranslateSpecialFuncionDigit(pjob->_ppump->_rxbuffer[9 + 45*index + (2
 7759              		.loc 1 1891 0
 7760 08c4 DBB2     		uxtb	r3, r3
 7761 08c6 03F00F03 		and	r3, r3, #15
 7762 08ca DBB2     		uxtb	r3, r3
 7763 08cc 2246     		mov	r2, r4
 7764 08ce 1343     		orrs	r3, r3, r2
 7765 08d0 DBB2     		uxtb	r3, r3
 7766 08d2 DAB2     		uxtb	r2, r3
 7767 08d4 3B69     		ldr	r3, [r7, #16]
 7768 08d6 1A70     		strb	r2, [r3]
1893:.\PrimeImpl.c **** 
1894:.\PrimeImpl.c ****             //HERE WE START THE NEXT 16 WORDS SINCE THE BLOCK INDEX HAS REACHED THE CURRENT BLOCK L
1895:.\PrimeImpl.c ****             //0
1896:.\PrimeImpl.c ****             index++;
 7769              		.loc 1 1896 0
 7770 08d8 FB7D     		ldrb	r3, [r7, #23]	@ zero_extendqisi2
 7771 08da 0133     		adds	r3, r3, #1
 7772 08dc FB75     		strb	r3, [r7, #23]
1897:.\PrimeImpl.c ****             ptreeprom++;
 7773              		.loc 1 1897 0
 7774 08de 3B69     		ldr	r3, [r7, #16]
 7775 08e0 0133     		adds	r3, r3, #1
 7776 08e2 3B61     		str	r3, [r7, #16]
1898:.\PrimeImpl.c ****             blkindex = 0;
 7777              		.loc 1 1898 0
 7778 08e4 0023     		movs	r3, #0
 7779 08e6 FB73     		strb	r3, [r7, #15]
1899:.\PrimeImpl.c ****             //Deliveries With Zero PPU
1900:.\PrimeImpl.c ****             *ptreeprom = ((TranslateSpecialFuncionDigit(pjob->_ppump->_rxbuffer[9 + 45*index + 2*bl
 7780              		.loc 1 1900 0
 7781 08e8 BB69     		ldr	r3, [r7, #24]
 7782 08ea D969     		ldr	r1, [r3, #28]
 7783 08ec FA7D     		ldrb	r2, [r7, #23]	@ zero_extendqisi2
 7784 08ee 1346     		mov	r3, r2
 7785 08f0 5B00     		lsls	r3, r3, #1
 7786 08f2 1344     		add	r3, r3, r2
 7787 08f4 1A01     		lsls	r2, r3, #4
 7788 08f6 D31A     		subs	r3, r2, r3
 7789 08f8 03F10902 		add	r2, r3, #9
 7790 08fc FB7B     		ldrb	r3, [r7, #15]	@ zero_extendqisi2
 7791 08fe 5B00     		lsls	r3, r3, #1
 7792 0900 1344     		add	r3, r3, r2
 7793 0902 0B44     		add	r3, r3, r1
 7794 0904 93F88831 		ldrb	r3, [r3, #392]	@ zero_extendqisi2
 7795 0908 1846     		mov	r0, r3
 7796 090a FFF7FEFF 		bl	TranslateSpecialFuncionDigit
 7797 090e 0346     		mov	r3, r0
 7798 0910 1B01     		lsls	r3, r3, #4
 7799 0912 DCB2     		uxtb	r4, r3
1901:.\PrimeImpl.c ****                             (TranslateSpecialFuncionDigit(pjob->_ppump->_rxbuffer[9 + 45*index + (2
 7800              		.loc 1 1901 0
 7801 0914 BB69     		ldr	r3, [r7, #24]
 7802 0916 D969     		ldr	r1, [r3, #28]
 7803 0918 FA7D     		ldrb	r2, [r7, #23]	@ zero_extendqisi2
 7804 091a 1346     		mov	r3, r2
ARM GAS  C:\Users\RECEPC~1\AppData\Local\Temp\ccvxjDo6.s 			page 172


 7805 091c 5B00     		lsls	r3, r3, #1
 7806 091e 1344     		add	r3, r3, r2
 7807 0920 1A01     		lsls	r2, r3, #4
 7808 0922 D31A     		subs	r3, r2, r3
 7809 0924 03F10902 		add	r2, r3, #9
 7810 0928 FB7B     		ldrb	r3, [r7, #15]	@ zero_extendqisi2
 7811 092a 5B00     		lsls	r3, r3, #1
 7812 092c 0133     		adds	r3, r3, #1
 7813 092e 1344     		add	r3, r3, r2
 7814 0930 0B44     		add	r3, r3, r1
 7815 0932 93F88831 		ldrb	r3, [r3, #392]	@ zero_extendqisi2
 7816 0936 1846     		mov	r0, r3
 7817 0938 FFF7FEFF 		bl	TranslateSpecialFuncionDigit
 7818 093c 0346     		mov	r3, r0
1900:.\PrimeImpl.c ****                             (TranslateSpecialFuncionDigit(pjob->_ppump->_rxbuffer[9 + 45*index + (2
 7819              		.loc 1 1900 0
 7820 093e DBB2     		uxtb	r3, r3
 7821 0940 03F00F03 		and	r3, r3, #15
 7822 0944 DBB2     		uxtb	r3, r3
 7823 0946 2246     		mov	r2, r4
 7824 0948 1343     		orrs	r3, r3, r2
 7825 094a DBB2     		uxtb	r3, r3
 7826 094c DAB2     		uxtb	r2, r3
 7827 094e 3B69     		ldr	r3, [r7, #16]
 7828 0950 1A70     		strb	r2, [r3]
1902:.\PrimeImpl.c **** 
1903:.\PrimeImpl.c ****             //1
1904:.\PrimeImpl.c ****             ptreeprom++;
 7829              		.loc 1 1904 0
 7830 0952 3B69     		ldr	r3, [r7, #16]
 7831 0954 0133     		adds	r3, r3, #1
 7832 0956 3B61     		str	r3, [r7, #16]
1905:.\PrimeImpl.c ****             blkindex++;
 7833              		.loc 1 1905 0
 7834 0958 FB7B     		ldrb	r3, [r7, #15]	@ zero_extendqisi2
 7835 095a 0133     		adds	r3, r3, #1
 7836 095c FB73     		strb	r3, [r7, #15]
1906:.\PrimeImpl.c ****             //Zero Previous Sales Bef/Aft
1907:.\PrimeImpl.c ****             *ptreeprom = ((TranslateSpecialFuncionDigit(pjob->_ppump->_rxbuffer[9 + 45*index + 2*bl
 7837              		.loc 1 1907 0
 7838 095e BB69     		ldr	r3, [r7, #24]
 7839 0960 D969     		ldr	r1, [r3, #28]
 7840 0962 FA7D     		ldrb	r2, [r7, #23]	@ zero_extendqisi2
 7841 0964 1346     		mov	r3, r2
 7842 0966 5B00     		lsls	r3, r3, #1
 7843 0968 1344     		add	r3, r3, r2
 7844 096a 1A01     		lsls	r2, r3, #4
 7845 096c D31A     		subs	r3, r2, r3
 7846 096e 03F10902 		add	r2, r3, #9
 7847 0972 FB7B     		ldrb	r3, [r7, #15]	@ zero_extendqisi2
 7848 0974 5B00     		lsls	r3, r3, #1
 7849 0976 1344     		add	r3, r3, r2
 7850 0978 0B44     		add	r3, r3, r1
 7851 097a 93F88831 		ldrb	r3, [r3, #392]	@ zero_extendqisi2
 7852 097e 1846     		mov	r0, r3
 7853 0980 FFF7FEFF 		bl	TranslateSpecialFuncionDigit
 7854 0984 0346     		mov	r3, r0
ARM GAS  C:\Users\RECEPC~1\AppData\Local\Temp\ccvxjDo6.s 			page 173


 7855 0986 1B01     		lsls	r3, r3, #4
 7856 0988 DCB2     		uxtb	r4, r3
1908:.\PrimeImpl.c ****                             (TranslateSpecialFuncionDigit(pjob->_ppump->_rxbuffer[9 + 45*index + (2
 7857              		.loc 1 1908 0
 7858 098a BB69     		ldr	r3, [r7, #24]
 7859 098c D969     		ldr	r1, [r3, #28]
 7860 098e FA7D     		ldrb	r2, [r7, #23]	@ zero_extendqisi2
 7861 0990 1346     		mov	r3, r2
 7862 0992 5B00     		lsls	r3, r3, #1
 7863 0994 1344     		add	r3, r3, r2
 7864 0996 1A01     		lsls	r2, r3, #4
 7865 0998 D31A     		subs	r3, r2, r3
 7866 099a 01E0     		b	.L241
 7867              	.L242:
 7868              		.align	2
 7869              	.L240:
 7870 099c 00000000 		.word	_g_dispenserlayoutinfo
 7871              	.L241:
 7872 09a0 03F10902 		add	r2, r3, #9
 7873 09a4 FB7B     		ldrb	r3, [r7, #15]	@ zero_extendqisi2
 7874 09a6 5B00     		lsls	r3, r3, #1
 7875 09a8 0133     		adds	r3, r3, #1
 7876 09aa 1344     		add	r3, r3, r2
 7877 09ac 0B44     		add	r3, r3, r1
 7878 09ae 93F88831 		ldrb	r3, [r3, #392]	@ zero_extendqisi2
 7879 09b2 1846     		mov	r0, r3
 7880 09b4 FFF7FEFF 		bl	TranslateSpecialFuncionDigit
 7881 09b8 0346     		mov	r3, r0
1907:.\PrimeImpl.c ****                             (TranslateSpecialFuncionDigit(pjob->_ppump->_rxbuffer[9 + 45*index + (2
 7882              		.loc 1 1907 0
 7883 09ba DBB2     		uxtb	r3, r3
 7884 09bc 03F00F03 		and	r3, r3, #15
 7885 09c0 DBB2     		uxtb	r3, r3
 7886 09c2 2246     		mov	r2, r4
 7887 09c4 1343     		orrs	r3, r3, r2
 7888 09c6 DBB2     		uxtb	r3, r3
 7889 09c8 DAB2     		uxtb	r2, r3
 7890 09ca 3B69     		ldr	r3, [r7, #16]
 7891 09cc 1A70     		strb	r2, [r3]
1909:.\PrimeImpl.c **** 
1910:.\PrimeImpl.c ****             //2
1911:.\PrimeImpl.c ****             ptreeprom++;
 7892              		.loc 1 1911 0
 7893 09ce 3B69     		ldr	r3, [r7, #16]
 7894 09d0 0133     		adds	r3, r3, #1
 7895 09d2 3B61     		str	r3, [r7, #16]
1912:.\PrimeImpl.c ****             blkindex++;
 7896              		.loc 1 1912 0
 7897 09d4 FB7B     		ldrb	r3, [r7, #15]	@ zero_extendqisi2
 7898 09d6 0133     		adds	r3, r3, #1
 7899 09d8 FB73     		strb	r3, [r7, #15]
1913:.\PrimeImpl.c ****             //Lamp Test Timer
1914:.\PrimeImpl.c ****             *ptreeprom = ((TranslateSpecialFuncionDigit(pjob->_ppump->_rxbuffer[9 + 45*index + 2*bl
 7900              		.loc 1 1914 0
 7901 09da BB69     		ldr	r3, [r7, #24]
 7902 09dc D969     		ldr	r1, [r3, #28]
 7903 09de FA7D     		ldrb	r2, [r7, #23]	@ zero_extendqisi2
ARM GAS  C:\Users\RECEPC~1\AppData\Local\Temp\ccvxjDo6.s 			page 174


 7904 09e0 1346     		mov	r3, r2
 7905 09e2 5B00     		lsls	r3, r3, #1
 7906 09e4 1344     		add	r3, r3, r2
 7907 09e6 1A01     		lsls	r2, r3, #4
 7908 09e8 D31A     		subs	r3, r2, r3
 7909 09ea 03F10902 		add	r2, r3, #9
 7910 09ee FB7B     		ldrb	r3, [r7, #15]	@ zero_extendqisi2
 7911 09f0 5B00     		lsls	r3, r3, #1
 7912 09f2 1344     		add	r3, r3, r2
 7913 09f4 0B44     		add	r3, r3, r1
 7914 09f6 93F88831 		ldrb	r3, [r3, #392]	@ zero_extendqisi2
 7915 09fa 1846     		mov	r0, r3
 7916 09fc FFF7FEFF 		bl	TranslateSpecialFuncionDigit
 7917 0a00 0346     		mov	r3, r0
 7918 0a02 1B01     		lsls	r3, r3, #4
 7919 0a04 DCB2     		uxtb	r4, r3
1915:.\PrimeImpl.c ****                             (TranslateSpecialFuncionDigit(pjob->_ppump->_rxbuffer[9 + 45*index + (2
 7920              		.loc 1 1915 0
 7921 0a06 BB69     		ldr	r3, [r7, #24]
 7922 0a08 D969     		ldr	r1, [r3, #28]
 7923 0a0a FA7D     		ldrb	r2, [r7, #23]	@ zero_extendqisi2
 7924 0a0c 1346     		mov	r3, r2
 7925 0a0e 5B00     		lsls	r3, r3, #1
 7926 0a10 1344     		add	r3, r3, r2
 7927 0a12 1A01     		lsls	r2, r3, #4
 7928 0a14 D31A     		subs	r3, r2, r3
 7929 0a16 03F10902 		add	r2, r3, #9
 7930 0a1a FB7B     		ldrb	r3, [r7, #15]	@ zero_extendqisi2
 7931 0a1c 5B00     		lsls	r3, r3, #1
 7932 0a1e 0133     		adds	r3, r3, #1
 7933 0a20 1344     		add	r3, r3, r2
 7934 0a22 0B44     		add	r3, r3, r1
 7935 0a24 93F88831 		ldrb	r3, [r3, #392]	@ zero_extendqisi2
 7936 0a28 1846     		mov	r0, r3
 7937 0a2a FFF7FEFF 		bl	TranslateSpecialFuncionDigit
 7938 0a2e 0346     		mov	r3, r0
1914:.\PrimeImpl.c ****                             (TranslateSpecialFuncionDigit(pjob->_ppump->_rxbuffer[9 + 45*index + (2
 7939              		.loc 1 1914 0
 7940 0a30 DBB2     		uxtb	r3, r3
 7941 0a32 03F00F03 		and	r3, r3, #15
 7942 0a36 DBB2     		uxtb	r3, r3
 7943 0a38 2246     		mov	r2, r4
 7944 0a3a 1343     		orrs	r3, r3, r2
 7945 0a3c DBB2     		uxtb	r3, r3
 7946 0a3e DAB2     		uxtb	r2, r3
 7947 0a40 3B69     		ldr	r3, [r7, #16]
 7948 0a42 1A70     		strb	r2, [r3]
1916:.\PrimeImpl.c **** 
1917:.\PrimeImpl.c ****             //3
1918:.\PrimeImpl.c ****             ptreeprom++;
 7949              		.loc 1 1918 0
 7950 0a44 3B69     		ldr	r3, [r7, #16]
 7951 0a46 0133     		adds	r3, r3, #1
 7952 0a48 3B61     		str	r3, [r7, #16]
1919:.\PrimeImpl.c ****             blkindex++;
 7953              		.loc 1 1919 0
 7954 0a4a FB7B     		ldrb	r3, [r7, #15]	@ zero_extendqisi2
ARM GAS  C:\Users\RECEPC~1\AppData\Local\Temp\ccvxjDo6.s 			page 175


 7955 0a4c 0133     		adds	r3, r3, #1
 7956 0a4e FB73     		strb	r3, [r7, #15]
1920:.\PrimeImpl.c ****             //Decimal/Integers Preset Value
1921:.\PrimeImpl.c ****             *ptreeprom = ((TranslateSpecialFuncionDigit(pjob->_ppump->_rxbuffer[9 + 45*index + 2*bl
 7957              		.loc 1 1921 0
 7958 0a50 BB69     		ldr	r3, [r7, #24]
 7959 0a52 D969     		ldr	r1, [r3, #28]
 7960 0a54 FA7D     		ldrb	r2, [r7, #23]	@ zero_extendqisi2
 7961 0a56 1346     		mov	r3, r2
 7962 0a58 5B00     		lsls	r3, r3, #1
 7963 0a5a 1344     		add	r3, r3, r2
 7964 0a5c 1A01     		lsls	r2, r3, #4
 7965 0a5e D31A     		subs	r3, r2, r3
 7966 0a60 03F10902 		add	r2, r3, #9
 7967 0a64 FB7B     		ldrb	r3, [r7, #15]	@ zero_extendqisi2
 7968 0a66 5B00     		lsls	r3, r3, #1
 7969 0a68 1344     		add	r3, r3, r2
 7970 0a6a 0B44     		add	r3, r3, r1
 7971 0a6c 93F88831 		ldrb	r3, [r3, #392]	@ zero_extendqisi2
 7972 0a70 1846     		mov	r0, r3
 7973 0a72 FFF7FEFF 		bl	TranslateSpecialFuncionDigit
 7974 0a76 0346     		mov	r3, r0
 7975 0a78 1B01     		lsls	r3, r3, #4
 7976 0a7a DCB2     		uxtb	r4, r3
1922:.\PrimeImpl.c ****                             (TranslateSpecialFuncionDigit(pjob->_ppump->_rxbuffer[9 + 45*index + (2
 7977              		.loc 1 1922 0
 7978 0a7c BB69     		ldr	r3, [r7, #24]
 7979 0a7e D969     		ldr	r1, [r3, #28]
 7980 0a80 FA7D     		ldrb	r2, [r7, #23]	@ zero_extendqisi2
 7981 0a82 1346     		mov	r3, r2
 7982 0a84 5B00     		lsls	r3, r3, #1
 7983 0a86 1344     		add	r3, r3, r2
 7984 0a88 1A01     		lsls	r2, r3, #4
 7985 0a8a D31A     		subs	r3, r2, r3
 7986 0a8c 03F10902 		add	r2, r3, #9
 7987 0a90 FB7B     		ldrb	r3, [r7, #15]	@ zero_extendqisi2
 7988 0a92 5B00     		lsls	r3, r3, #1
 7989 0a94 0133     		adds	r3, r3, #1
 7990 0a96 1344     		add	r3, r3, r2
 7991 0a98 0B44     		add	r3, r3, r1
 7992 0a9a 93F88831 		ldrb	r3, [r3, #392]	@ zero_extendqisi2
 7993 0a9e 1846     		mov	r0, r3
 7994 0aa0 FFF7FEFF 		bl	TranslateSpecialFuncionDigit
 7995 0aa4 0346     		mov	r3, r0
1921:.\PrimeImpl.c ****                             (TranslateSpecialFuncionDigit(pjob->_ppump->_rxbuffer[9 + 45*index + (2
 7996              		.loc 1 1921 0
 7997 0aa6 DBB2     		uxtb	r3, r3
 7998 0aa8 03F00F03 		and	r3, r3, #15
 7999 0aac DBB2     		uxtb	r3, r3
 8000 0aae 2246     		mov	r2, r4
 8001 0ab0 1343     		orrs	r3, r3, r2
 8002 0ab2 DBB2     		uxtb	r3, r3
 8003 0ab4 DAB2     		uxtb	r2, r3
 8004 0ab6 3B69     		ldr	r3, [r7, #16]
 8005 0ab8 1A70     		strb	r2, [r3]
1923:.\PrimeImpl.c **** 
1924:.\PrimeImpl.c ****             //4
ARM GAS  C:\Users\RECEPC~1\AppData\Local\Temp\ccvxjDo6.s 			page 176


1925:.\PrimeImpl.c ****             ptreeprom++;
 8006              		.loc 1 1925 0
 8007 0aba 3B69     		ldr	r3, [r7, #16]
 8008 0abc 0133     		adds	r3, r3, #1
 8009 0abe 3B61     		str	r3, [r7, #16]
1926:.\PrimeImpl.c ****             blkindex++;
 8010              		.loc 1 1926 0
 8011 0ac0 FB7B     		ldrb	r3, [r7, #15]	@ zero_extendqisi2
 8012 0ac2 0133     		adds	r3, r3, #1
 8013 0ac4 FB73     		strb	r3, [r7, #15]
1927:.\PrimeImpl.c ****             //Flow Rate Meter Mode
1928:.\PrimeImpl.c ****             *ptreeprom = ((TranslateSpecialFuncionDigit(pjob->_ppump->_rxbuffer[9 + 45*index + 2*bl
 8014              		.loc 1 1928 0
 8015 0ac6 BB69     		ldr	r3, [r7, #24]
 8016 0ac8 D969     		ldr	r1, [r3, #28]
 8017 0aca FA7D     		ldrb	r2, [r7, #23]	@ zero_extendqisi2
 8018 0acc 1346     		mov	r3, r2
 8019 0ace 5B00     		lsls	r3, r3, #1
 8020 0ad0 1344     		add	r3, r3, r2
 8021 0ad2 1A01     		lsls	r2, r3, #4
 8022 0ad4 D31A     		subs	r3, r2, r3
 8023 0ad6 03F10902 		add	r2, r3, #9
 8024 0ada FB7B     		ldrb	r3, [r7, #15]	@ zero_extendqisi2
 8025 0adc 5B00     		lsls	r3, r3, #1
 8026 0ade 1344     		add	r3, r3, r2
 8027 0ae0 0B44     		add	r3, r3, r1
 8028 0ae2 93F88831 		ldrb	r3, [r3, #392]	@ zero_extendqisi2
 8029 0ae6 1846     		mov	r0, r3
 8030 0ae8 FFF7FEFF 		bl	TranslateSpecialFuncionDigit
 8031 0aec 0346     		mov	r3, r0
 8032 0aee 1B01     		lsls	r3, r3, #4
 8033 0af0 DCB2     		uxtb	r4, r3
1929:.\PrimeImpl.c ****                             (TranslateSpecialFuncionDigit(pjob->_ppump->_rxbuffer[9 + 45*index + (2
 8034              		.loc 1 1929 0
 8035 0af2 BB69     		ldr	r3, [r7, #24]
 8036 0af4 D969     		ldr	r1, [r3, #28]
 8037 0af6 FA7D     		ldrb	r2, [r7, #23]	@ zero_extendqisi2
 8038 0af8 1346     		mov	r3, r2
 8039 0afa 5B00     		lsls	r3, r3, #1
 8040 0afc 1344     		add	r3, r3, r2
 8041 0afe 1A01     		lsls	r2, r3, #4
 8042 0b00 D31A     		subs	r3, r2, r3
 8043 0b02 03F10902 		add	r2, r3, #9
 8044 0b06 FB7B     		ldrb	r3, [r7, #15]	@ zero_extendqisi2
 8045 0b08 5B00     		lsls	r3, r3, #1
 8046 0b0a 0133     		adds	r3, r3, #1
 8047 0b0c 1344     		add	r3, r3, r2
 8048 0b0e 0B44     		add	r3, r3, r1
 8049 0b10 93F88831 		ldrb	r3, [r3, #392]	@ zero_extendqisi2
 8050 0b14 1846     		mov	r0, r3
 8051 0b16 FFF7FEFF 		bl	TranslateSpecialFuncionDigit
 8052 0b1a 0346     		mov	r3, r0
1928:.\PrimeImpl.c ****                             (TranslateSpecialFuncionDigit(pjob->_ppump->_rxbuffer[9 + 45*index + (2
 8053              		.loc 1 1928 0
 8054 0b1c DBB2     		uxtb	r3, r3
 8055 0b1e 03F00F03 		and	r3, r3, #15
 8056 0b22 DBB2     		uxtb	r3, r3
ARM GAS  C:\Users\RECEPC~1\AppData\Local\Temp\ccvxjDo6.s 			page 177


 8057 0b24 2246     		mov	r2, r4
 8058 0b26 1343     		orrs	r3, r3, r2
 8059 0b28 DBB2     		uxtb	r3, r3
 8060 0b2a DAB2     		uxtb	r2, r3
 8061 0b2c 3B69     		ldr	r3, [r7, #16]
 8062 0b2e 1A70     		strb	r2, [r3]
1930:.\PrimeImpl.c **** 
1931:.\PrimeImpl.c ****             //5
1932:.\PrimeImpl.c ****             ptreeprom++;
 8063              		.loc 1 1932 0
 8064 0b30 3B69     		ldr	r3, [r7, #16]
 8065 0b32 0133     		adds	r3, r3, #1
 8066 0b34 3B61     		str	r3, [r7, #16]
1933:.\PrimeImpl.c ****             blkindex++;
 8067              		.loc 1 1933 0
 8068 0b36 FB7B     		ldrb	r3, [r7, #15]	@ zero_extendqisi2
 8069 0b38 0133     		adds	r3, r3, #1
 8070 0b3a FB73     		strb	r3, [r7, #15]
1934:.\PrimeImpl.c ****             //Display Check Mode
1935:.\PrimeImpl.c ****             *ptreeprom = ((TranslateSpecialFuncionDigit(pjob->_ppump->_rxbuffer[9 + 45*index + 2*bl
 8071              		.loc 1 1935 0
 8072 0b3c BB69     		ldr	r3, [r7, #24]
 8073 0b3e D969     		ldr	r1, [r3, #28]
 8074 0b40 FA7D     		ldrb	r2, [r7, #23]	@ zero_extendqisi2
 8075 0b42 1346     		mov	r3, r2
 8076 0b44 5B00     		lsls	r3, r3, #1
 8077 0b46 1344     		add	r3, r3, r2
 8078 0b48 1A01     		lsls	r2, r3, #4
 8079 0b4a D31A     		subs	r3, r2, r3
 8080 0b4c 03F10902 		add	r2, r3, #9
 8081 0b50 FB7B     		ldrb	r3, [r7, #15]	@ zero_extendqisi2
 8082 0b52 5B00     		lsls	r3, r3, #1
 8083 0b54 1344     		add	r3, r3, r2
 8084 0b56 0B44     		add	r3, r3, r1
 8085 0b58 93F88831 		ldrb	r3, [r3, #392]	@ zero_extendqisi2
 8086 0b5c 1846     		mov	r0, r3
 8087 0b5e FFF7FEFF 		bl	TranslateSpecialFuncionDigit
 8088 0b62 0346     		mov	r3, r0
 8089 0b64 1B01     		lsls	r3, r3, #4
 8090 0b66 DCB2     		uxtb	r4, r3
1936:.\PrimeImpl.c ****                             (TranslateSpecialFuncionDigit(pjob->_ppump->_rxbuffer[9 + 45*index + (2
 8091              		.loc 1 1936 0
 8092 0b68 BB69     		ldr	r3, [r7, #24]
 8093 0b6a D969     		ldr	r1, [r3, #28]
 8094 0b6c FA7D     		ldrb	r2, [r7, #23]	@ zero_extendqisi2
 8095 0b6e 1346     		mov	r3, r2
 8096 0b70 5B00     		lsls	r3, r3, #1
 8097 0b72 1344     		add	r3, r3, r2
 8098 0b74 1A01     		lsls	r2, r3, #4
 8099 0b76 D31A     		subs	r3, r2, r3
 8100 0b78 03F10902 		add	r2, r3, #9
 8101 0b7c FB7B     		ldrb	r3, [r7, #15]	@ zero_extendqisi2
 8102 0b7e 5B00     		lsls	r3, r3, #1
 8103 0b80 0133     		adds	r3, r3, #1
 8104 0b82 1344     		add	r3, r3, r2
 8105 0b84 0B44     		add	r3, r3, r1
 8106 0b86 93F88831 		ldrb	r3, [r3, #392]	@ zero_extendqisi2
ARM GAS  C:\Users\RECEPC~1\AppData\Local\Temp\ccvxjDo6.s 			page 178


 8107 0b8a 1846     		mov	r0, r3
 8108 0b8c FFF7FEFF 		bl	TranslateSpecialFuncionDigit
 8109 0b90 0346     		mov	r3, r0
1935:.\PrimeImpl.c ****                             (TranslateSpecialFuncionDigit(pjob->_ppump->_rxbuffer[9 + 45*index + (2
 8110              		.loc 1 1935 0
 8111 0b92 DBB2     		uxtb	r3, r3
 8112 0b94 03F00F03 		and	r3, r3, #15
 8113 0b98 DBB2     		uxtb	r3, r3
 8114 0b9a 2246     		mov	r2, r4
 8115 0b9c 1343     		orrs	r3, r3, r2
 8116 0b9e DBB2     		uxtb	r3, r3
 8117 0ba0 DAB2     		uxtb	r2, r3
 8118 0ba2 3B69     		ldr	r3, [r7, #16]
 8119 0ba4 1A70     		strb	r2, [r3]
1937:.\PrimeImpl.c **** 
1938:.\PrimeImpl.c ****             //6
1939:.\PrimeImpl.c ****             ptreeprom++;
 8120              		.loc 1 1939 0
 8121 0ba6 3B69     		ldr	r3, [r7, #16]
 8122 0ba8 0133     		adds	r3, r3, #1
 8123 0baa 3B61     		str	r3, [r7, #16]
1940:.\PrimeImpl.c ****             blkindex++;
 8124              		.loc 1 1940 0
 8125 0bac FB7B     		ldrb	r3, [r7, #15]	@ zero_extendqisi2
 8126 0bae 0133     		adds	r3, r3, #1
 8127 0bb0 FB73     		strb	r3, [r7, #15]
1941:.\PrimeImpl.c ****             //Electro-Mech Totalizer Mode
1942:.\PrimeImpl.c ****             *ptreeprom = ((TranslateSpecialFuncionDigit(pjob->_ppump->_rxbuffer[9 + 45*index + 2*bl
 8128              		.loc 1 1942 0
 8129 0bb2 BB69     		ldr	r3, [r7, #24]
 8130 0bb4 D969     		ldr	r1, [r3, #28]
 8131 0bb6 FA7D     		ldrb	r2, [r7, #23]	@ zero_extendqisi2
 8132 0bb8 1346     		mov	r3, r2
 8133 0bba 5B00     		lsls	r3, r3, #1
 8134 0bbc 1344     		add	r3, r3, r2
 8135 0bbe 1A01     		lsls	r2, r3, #4
 8136 0bc0 D31A     		subs	r3, r2, r3
 8137 0bc2 03F10902 		add	r2, r3, #9
 8138 0bc6 FB7B     		ldrb	r3, [r7, #15]	@ zero_extendqisi2
 8139 0bc8 5B00     		lsls	r3, r3, #1
 8140 0bca 1344     		add	r3, r3, r2
 8141 0bcc 0B44     		add	r3, r3, r1
 8142 0bce 93F88831 		ldrb	r3, [r3, #392]	@ zero_extendqisi2
 8143 0bd2 1846     		mov	r0, r3
 8144 0bd4 FFF7FEFF 		bl	TranslateSpecialFuncionDigit
 8145 0bd8 0346     		mov	r3, r0
 8146 0bda 1B01     		lsls	r3, r3, #4
 8147 0bdc DCB2     		uxtb	r4, r3
1943:.\PrimeImpl.c ****                             (TranslateSpecialFuncionDigit(pjob->_ppump->_rxbuffer[9 + 45*index + (2
 8148              		.loc 1 1943 0
 8149 0bde BB69     		ldr	r3, [r7, #24]
 8150 0be0 D969     		ldr	r1, [r3, #28]
 8151 0be2 FA7D     		ldrb	r2, [r7, #23]	@ zero_extendqisi2
 8152 0be4 1346     		mov	r3, r2
 8153 0be6 5B00     		lsls	r3, r3, #1
 8154 0be8 1344     		add	r3, r3, r2
 8155 0bea 1A01     		lsls	r2, r3, #4
ARM GAS  C:\Users\RECEPC~1\AppData\Local\Temp\ccvxjDo6.s 			page 179


 8156 0bec D31A     		subs	r3, r2, r3
 8157 0bee 03F10902 		add	r2, r3, #9
 8158 0bf2 FB7B     		ldrb	r3, [r7, #15]	@ zero_extendqisi2
 8159 0bf4 5B00     		lsls	r3, r3, #1
 8160 0bf6 0133     		adds	r3, r3, #1
 8161 0bf8 1344     		add	r3, r3, r2
 8162 0bfa 0B44     		add	r3, r3, r1
 8163 0bfc 93F88831 		ldrb	r3, [r3, #392]	@ zero_extendqisi2
 8164 0c00 1846     		mov	r0, r3
 8165 0c02 FFF7FEFF 		bl	TranslateSpecialFuncionDigit
 8166 0c06 0346     		mov	r3, r0
1942:.\PrimeImpl.c ****                             (TranslateSpecialFuncionDigit(pjob->_ppump->_rxbuffer[9 + 45*index + (2
 8167              		.loc 1 1942 0
 8168 0c08 DBB2     		uxtb	r3, r3
 8169 0c0a 03F00F03 		and	r3, r3, #15
 8170 0c0e DBB2     		uxtb	r3, r3
 8171 0c10 2246     		mov	r2, r4
 8172 0c12 1343     		orrs	r3, r3, r2
 8173 0c14 DBB2     		uxtb	r3, r3
 8174 0c16 DAB2     		uxtb	r2, r3
 8175 0c18 3B69     		ldr	r3, [r7, #16]
 8176 0c1a 1A70     		strb	r2, [r3]
1944:.\PrimeImpl.c **** 
1945:.\PrimeImpl.c ****             //7
1946:.\PrimeImpl.c ****             ptreeprom++;
 8177              		.loc 1 1946 0
 8178 0c1c 3B69     		ldr	r3, [r7, #16]
 8179 0c1e 0133     		adds	r3, r3, #1
 8180 0c20 3B61     		str	r3, [r7, #16]
1947:.\PrimeImpl.c ****             blkindex++;
 8181              		.loc 1 1947 0
 8182 0c22 FB7B     		ldrb	r3, [r7, #15]	@ zero_extendqisi2
 8183 0c24 0133     		adds	r3, r3, #1
 8184 0c26 FB73     		strb	r3, [r7, #15]
1948:.\PrimeImpl.c ****             //Calibration Mode
1949:.\PrimeImpl.c ****             *ptreeprom = ((TranslateSpecialFuncionDigit(pjob->_ppump->_rxbuffer[9 + 45*index + 2*bl
 8185              		.loc 1 1949 0
 8186 0c28 BB69     		ldr	r3, [r7, #24]
 8187 0c2a D969     		ldr	r1, [r3, #28]
 8188 0c2c FA7D     		ldrb	r2, [r7, #23]	@ zero_extendqisi2
 8189 0c2e 1346     		mov	r3, r2
 8190 0c30 5B00     		lsls	r3, r3, #1
 8191 0c32 1344     		add	r3, r3, r2
 8192 0c34 1A01     		lsls	r2, r3, #4
 8193 0c36 D31A     		subs	r3, r2, r3
 8194 0c38 03F10902 		add	r2, r3, #9
 8195 0c3c FB7B     		ldrb	r3, [r7, #15]	@ zero_extendqisi2
 8196 0c3e 5B00     		lsls	r3, r3, #1
 8197 0c40 1344     		add	r3, r3, r2
 8198 0c42 0B44     		add	r3, r3, r1
 8199 0c44 93F88831 		ldrb	r3, [r3, #392]	@ zero_extendqisi2
 8200 0c48 1846     		mov	r0, r3
 8201 0c4a FFF7FEFF 		bl	TranslateSpecialFuncionDigit
 8202 0c4e 0346     		mov	r3, r0
 8203 0c50 1B01     		lsls	r3, r3, #4
 8204 0c52 DCB2     		uxtb	r4, r3
1950:.\PrimeImpl.c ****                             (TranslateSpecialFuncionDigit(pjob->_ppump->_rxbuffer[9 + 45*index + (2
ARM GAS  C:\Users\RECEPC~1\AppData\Local\Temp\ccvxjDo6.s 			page 180


 8205              		.loc 1 1950 0
 8206 0c54 BB69     		ldr	r3, [r7, #24]
 8207 0c56 D969     		ldr	r1, [r3, #28]
 8208 0c58 FA7D     		ldrb	r2, [r7, #23]	@ zero_extendqisi2
 8209 0c5a 1346     		mov	r3, r2
 8210 0c5c 5B00     		lsls	r3, r3, #1
 8211 0c5e 1344     		add	r3, r3, r2
 8212 0c60 1A01     		lsls	r2, r3, #4
 8213 0c62 D31A     		subs	r3, r2, r3
 8214 0c64 03F10902 		add	r2, r3, #9
 8215 0c68 FB7B     		ldrb	r3, [r7, #15]	@ zero_extendqisi2
 8216 0c6a 5B00     		lsls	r3, r3, #1
 8217 0c6c 0133     		adds	r3, r3, #1
 8218 0c6e 1344     		add	r3, r3, r2
 8219 0c70 0B44     		add	r3, r3, r1
 8220 0c72 93F88831 		ldrb	r3, [r3, #392]	@ zero_extendqisi2
 8221 0c76 1846     		mov	r0, r3
 8222 0c78 FFF7FEFF 		bl	TranslateSpecialFuncionDigit
 8223 0c7c 0346     		mov	r3, r0
1949:.\PrimeImpl.c ****                             (TranslateSpecialFuncionDigit(pjob->_ppump->_rxbuffer[9 + 45*index + (2
 8224              		.loc 1 1949 0
 8225 0c7e DBB2     		uxtb	r3, r3
 8226 0c80 03F00F03 		and	r3, r3, #15
 8227 0c84 DBB2     		uxtb	r3, r3
 8228 0c86 2246     		mov	r2, r4
 8229 0c88 1343     		orrs	r3, r3, r2
 8230 0c8a DBB2     		uxtb	r3, r3
 8231 0c8c DAB2     		uxtb	r2, r3
 8232 0c8e 3B69     		ldr	r3, [r7, #16]
 8233 0c90 1A70     		strb	r2, [r3]
1951:.\PrimeImpl.c **** 
1952:.\PrimeImpl.c ****             //8
1953:.\PrimeImpl.c ****             ptreeprom++;
 8234              		.loc 1 1953 0
 8235 0c92 3B69     		ldr	r3, [r7, #16]
 8236 0c94 0133     		adds	r3, r3, #1
 8237 0c96 3B61     		str	r3, [r7, #16]
1954:.\PrimeImpl.c ****             blkindex++;
 8238              		.loc 1 1954 0
 8239 0c98 FB7B     		ldrb	r3, [r7, #15]	@ zero_extendqisi2
 8240 0c9a 0133     		adds	r3, r3, #1
 8241 0c9c FB73     		strb	r3, [r7, #15]
1955:.\PrimeImpl.c ****             //Preset Mode
1956:.\PrimeImpl.c ****             *ptreeprom = ((TranslateSpecialFuncionDigit(pjob->_ppump->_rxbuffer[9 + 45*index + 2*bl
 8242              		.loc 1 1956 0
 8243 0c9e BB69     		ldr	r3, [r7, #24]
 8244 0ca0 D969     		ldr	r1, [r3, #28]
 8245 0ca2 FA7D     		ldrb	r2, [r7, #23]	@ zero_extendqisi2
 8246 0ca4 1346     		mov	r3, r2
 8247 0ca6 5B00     		lsls	r3, r3, #1
 8248 0ca8 1344     		add	r3, r3, r2
 8249 0caa 1A01     		lsls	r2, r3, #4
 8250 0cac D31A     		subs	r3, r2, r3
 8251 0cae 03F10902 		add	r2, r3, #9
 8252 0cb2 FB7B     		ldrb	r3, [r7, #15]	@ zero_extendqisi2
 8253 0cb4 5B00     		lsls	r3, r3, #1
 8254 0cb6 1344     		add	r3, r3, r2
ARM GAS  C:\Users\RECEPC~1\AppData\Local\Temp\ccvxjDo6.s 			page 181


 8255 0cb8 0B44     		add	r3, r3, r1
 8256 0cba 93F88831 		ldrb	r3, [r3, #392]	@ zero_extendqisi2
 8257 0cbe 1846     		mov	r0, r3
 8258 0cc0 FFF7FEFF 		bl	TranslateSpecialFuncionDigit
 8259 0cc4 0346     		mov	r3, r0
 8260 0cc6 1B01     		lsls	r3, r3, #4
 8261 0cc8 DCB2     		uxtb	r4, r3
1957:.\PrimeImpl.c ****                             (TranslateSpecialFuncionDigit(pjob->_ppump->_rxbuffer[9 + 45*index + (2
 8262              		.loc 1 1957 0
 8263 0cca BB69     		ldr	r3, [r7, #24]
 8264 0ccc D969     		ldr	r1, [r3, #28]
 8265 0cce FA7D     		ldrb	r2, [r7, #23]	@ zero_extendqisi2
 8266 0cd0 1346     		mov	r3, r2
 8267 0cd2 5B00     		lsls	r3, r3, #1
 8268 0cd4 1344     		add	r3, r3, r2
 8269 0cd6 1A01     		lsls	r2, r3, #4
 8270 0cd8 D31A     		subs	r3, r2, r3
 8271 0cda 03F10902 		add	r2, r3, #9
 8272 0cde FB7B     		ldrb	r3, [r7, #15]	@ zero_extendqisi2
 8273 0ce0 5B00     		lsls	r3, r3, #1
 8274 0ce2 0133     		adds	r3, r3, #1
 8275 0ce4 1344     		add	r3, r3, r2
 8276 0ce6 0B44     		add	r3, r3, r1
 8277 0ce8 93F88831 		ldrb	r3, [r3, #392]	@ zero_extendqisi2
 8278 0cec 1846     		mov	r0, r3
 8279 0cee FFF7FEFF 		bl	TranslateSpecialFuncionDigit
 8280 0cf2 0346     		mov	r3, r0
1956:.\PrimeImpl.c ****                             (TranslateSpecialFuncionDigit(pjob->_ppump->_rxbuffer[9 + 45*index + (2
 8281              		.loc 1 1956 0
 8282 0cf4 DBB2     		uxtb	r3, r3
 8283 0cf6 03F00F03 		and	r3, r3, #15
 8284 0cfa DBB2     		uxtb	r3, r3
 8285 0cfc 2246     		mov	r2, r4
 8286 0cfe 1343     		orrs	r3, r3, r2
 8287 0d00 DBB2     		uxtb	r3, r3
 8288 0d02 DAB2     		uxtb	r2, r3
 8289 0d04 3B69     		ldr	r3, [r7, #16]
 8290 0d06 1A70     		strb	r2, [r3]
1958:.\PrimeImpl.c **** 
1959:.\PrimeImpl.c ****             //9
1960:.\PrimeImpl.c ****             ptreeprom++;
 8291              		.loc 1 1960 0
 8292 0d08 3B69     		ldr	r3, [r7, #16]
 8293 0d0a 0133     		adds	r3, r3, #1
 8294 0d0c 3B61     		str	r3, [r7, #16]
1961:.\PrimeImpl.c ****             blkindex++;
 8295              		.loc 1 1961 0
 8296 0d0e FB7B     		ldrb	r3, [r7, #15]	@ zero_extendqisi2
 8297 0d10 0133     		adds	r3, r3, #1
 8298 0d12 FB73     		strb	r3, [r7, #15]
1962:.\PrimeImpl.c ****             //30 Seconds to Allow Key Pad Preset
1963:.\PrimeImpl.c ****             *ptreeprom = ((TranslateSpecialFuncionDigit(pjob->_ppump->_rxbuffer[9 + 45*index + 2*bl
 8299              		.loc 1 1963 0
 8300 0d14 BB69     		ldr	r3, [r7, #24]
 8301 0d16 D969     		ldr	r1, [r3, #28]
 8302 0d18 FA7D     		ldrb	r2, [r7, #23]	@ zero_extendqisi2
 8303 0d1a 1346     		mov	r3, r2
ARM GAS  C:\Users\RECEPC~1\AppData\Local\Temp\ccvxjDo6.s 			page 182


 8304 0d1c 5B00     		lsls	r3, r3, #1
 8305 0d1e 1344     		add	r3, r3, r2
 8306 0d20 1A01     		lsls	r2, r3, #4
 8307 0d22 D31A     		subs	r3, r2, r3
 8308 0d24 03F10902 		add	r2, r3, #9
 8309 0d28 FB7B     		ldrb	r3, [r7, #15]	@ zero_extendqisi2
 8310 0d2a 5B00     		lsls	r3, r3, #1
 8311 0d2c 1344     		add	r3, r3, r2
 8312 0d2e 0B44     		add	r3, r3, r1
 8313 0d30 93F88831 		ldrb	r3, [r3, #392]	@ zero_extendqisi2
 8314 0d34 1846     		mov	r0, r3
 8315 0d36 FFF7FEFF 		bl	TranslateSpecialFuncionDigit
 8316 0d3a 0346     		mov	r3, r0
 8317 0d3c 1B01     		lsls	r3, r3, #4
 8318 0d3e DCB2     		uxtb	r4, r3
1964:.\PrimeImpl.c ****                             (TranslateSpecialFuncionDigit(pjob->_ppump->_rxbuffer[9 + 45*index + (2
 8319              		.loc 1 1964 0
 8320 0d40 BB69     		ldr	r3, [r7, #24]
 8321 0d42 D969     		ldr	r1, [r3, #28]
 8322 0d44 FA7D     		ldrb	r2, [r7, #23]	@ zero_extendqisi2
 8323 0d46 1346     		mov	r3, r2
 8324 0d48 5B00     		lsls	r3, r3, #1
 8325 0d4a 1344     		add	r3, r3, r2
 8326 0d4c 1A01     		lsls	r2, r3, #4
 8327 0d4e D31A     		subs	r3, r2, r3
 8328 0d50 03F10902 		add	r2, r3, #9
 8329 0d54 FB7B     		ldrb	r3, [r7, #15]	@ zero_extendqisi2
 8330 0d56 5B00     		lsls	r3, r3, #1
 8331 0d58 0133     		adds	r3, r3, #1
 8332 0d5a 1344     		add	r3, r3, r2
 8333 0d5c 0B44     		add	r3, r3, r1
 8334 0d5e 93F88831 		ldrb	r3, [r3, #392]	@ zero_extendqisi2
 8335 0d62 1846     		mov	r0, r3
 8336 0d64 FFF7FEFF 		bl	TranslateSpecialFuncionDigit
 8337 0d68 0346     		mov	r3, r0
1963:.\PrimeImpl.c ****                             (TranslateSpecialFuncionDigit(pjob->_ppump->_rxbuffer[9 + 45*index + (2
 8338              		.loc 1 1963 0
 8339 0d6a DBB2     		uxtb	r3, r3
 8340 0d6c 03F00F03 		and	r3, r3, #15
 8341 0d70 DBB2     		uxtb	r3, r3
 8342 0d72 2246     		mov	r2, r4
 8343 0d74 1343     		orrs	r3, r3, r2
 8344 0d76 DBB2     		uxtb	r3, r3
 8345 0d78 DAB2     		uxtb	r2, r3
 8346 0d7a 3B69     		ldr	r3, [r7, #16]
 8347 0d7c 1A70     		strb	r2, [r3]
1965:.\PrimeImpl.c **** 
1966:.\PrimeImpl.c ****             //10
1967:.\PrimeImpl.c ****             ptreeprom++;
 8348              		.loc 1 1967 0
 8349 0d7e 3B69     		ldr	r3, [r7, #16]
 8350 0d80 0133     		adds	r3, r3, #1
 8351 0d82 3B61     		str	r3, [r7, #16]
1968:.\PrimeImpl.c ****             blkindex++;
 8352              		.loc 1 1968 0
 8353 0d84 FB7B     		ldrb	r3, [r7, #15]	@ zero_extendqisi2
 8354 0d86 0133     		adds	r3, r3, #1
ARM GAS  C:\Users\RECEPC~1\AppData\Local\Temp\ccvxjDo6.s 			page 183


 8355 0d88 FB73     		strb	r3, [r7, #15]
1969:.\PrimeImpl.c ****             //Manager Password Mode
1970:.\PrimeImpl.c ****             *ptreeprom = ((TranslateSpecialFuncionDigit(pjob->_ppump->_rxbuffer[9 + 45*index + 2*bl
 8356              		.loc 1 1970 0
 8357 0d8a BB69     		ldr	r3, [r7, #24]
 8358 0d8c D969     		ldr	r1, [r3, #28]
 8359 0d8e FA7D     		ldrb	r2, [r7, #23]	@ zero_extendqisi2
 8360 0d90 1346     		mov	r3, r2
 8361 0d92 5B00     		lsls	r3, r3, #1
 8362 0d94 1344     		add	r3, r3, r2
 8363 0d96 1A01     		lsls	r2, r3, #4
 8364 0d98 D31A     		subs	r3, r2, r3
 8365 0d9a 03F10902 		add	r2, r3, #9
 8366 0d9e FB7B     		ldrb	r3, [r7, #15]	@ zero_extendqisi2
 8367 0da0 5B00     		lsls	r3, r3, #1
 8368 0da2 1344     		add	r3, r3, r2
 8369 0da4 0B44     		add	r3, r3, r1
 8370 0da6 93F88831 		ldrb	r3, [r3, #392]	@ zero_extendqisi2
 8371 0daa 1846     		mov	r0, r3
 8372 0dac FFF7FEFF 		bl	TranslateSpecialFuncionDigit
 8373 0db0 0346     		mov	r3, r0
 8374 0db2 1B01     		lsls	r3, r3, #4
 8375 0db4 DCB2     		uxtb	r4, r3
1971:.\PrimeImpl.c ****                             (TranslateSpecialFuncionDigit(pjob->_ppump->_rxbuffer[9 + 45*index + (2
 8376              		.loc 1 1971 0
 8377 0db6 BB69     		ldr	r3, [r7, #24]
 8378 0db8 D969     		ldr	r1, [r3, #28]
 8379 0dba FA7D     		ldrb	r2, [r7, #23]	@ zero_extendqisi2
 8380 0dbc 1346     		mov	r3, r2
 8381 0dbe 5B00     		lsls	r3, r3, #1
 8382 0dc0 1344     		add	r3, r3, r2
 8383 0dc2 1A01     		lsls	r2, r3, #4
 8384 0dc4 D31A     		subs	r3, r2, r3
 8385 0dc6 03F10902 		add	r2, r3, #9
 8386 0dca FB7B     		ldrb	r3, [r7, #15]	@ zero_extendqisi2
 8387 0dcc 5B00     		lsls	r3, r3, #1
 8388 0dce 0133     		adds	r3, r3, #1
 8389 0dd0 1344     		add	r3, r3, r2
 8390 0dd2 0B44     		add	r3, r3, r1
 8391 0dd4 93F88831 		ldrb	r3, [r3, #392]	@ zero_extendqisi2
 8392 0dd8 1846     		mov	r0, r3
 8393 0dda FFF7FEFF 		bl	TranslateSpecialFuncionDigit
 8394 0dde 0346     		mov	r3, r0
1970:.\PrimeImpl.c ****                             (TranslateSpecialFuncionDigit(pjob->_ppump->_rxbuffer[9 + 45*index + (2
 8395              		.loc 1 1970 0
 8396 0de0 DBB2     		uxtb	r3, r3
 8397 0de2 03F00F03 		and	r3, r3, #15
 8398 0de6 DBB2     		uxtb	r3, r3
 8399 0de8 2246     		mov	r2, r4
 8400 0dea 1343     		orrs	r3, r3, r2
 8401 0dec DBB2     		uxtb	r3, r3
 8402 0dee DAB2     		uxtb	r2, r3
 8403 0df0 3B69     		ldr	r3, [r7, #16]
 8404 0df2 1A70     		strb	r2, [r3]
1972:.\PrimeImpl.c **** 
1973:.\PrimeImpl.c ****             //11
1974:.\PrimeImpl.c ****             ptreeprom++;
ARM GAS  C:\Users\RECEPC~1\AppData\Local\Temp\ccvxjDo6.s 			page 184


 8405              		.loc 1 1974 0
 8406 0df4 3B69     		ldr	r3, [r7, #16]
 8407 0df6 0133     		adds	r3, r3, #1
 8408 0df8 3B61     		str	r3, [r7, #16]
1975:.\PrimeImpl.c ****             blkindex++;
 8409              		.loc 1 1975 0
 8410 0dfa FB7B     		ldrb	r3, [r7, #15]	@ zero_extendqisi2
 8411 0dfc 0133     		adds	r3, r3, #1
 8412 0dfe FB73     		strb	r3, [r7, #15]
1976:.\PrimeImpl.c ****             //Initial Pulses
1977:.\PrimeImpl.c ****             *ptreeprom = ((TranslateSpecialFuncionDigit(pjob->_ppump->_rxbuffer[9 + 45*index + 2*bl
 8413              		.loc 1 1977 0
 8414 0e00 BB69     		ldr	r3, [r7, #24]
 8415 0e02 D969     		ldr	r1, [r3, #28]
 8416 0e04 FA7D     		ldrb	r2, [r7, #23]	@ zero_extendqisi2
 8417 0e06 1346     		mov	r3, r2
 8418 0e08 5B00     		lsls	r3, r3, #1
 8419 0e0a 1344     		add	r3, r3, r2
 8420 0e0c 1A01     		lsls	r2, r3, #4
 8421 0e0e D31A     		subs	r3, r2, r3
 8422 0e10 03F10902 		add	r2, r3, #9
 8423 0e14 FB7B     		ldrb	r3, [r7, #15]	@ zero_extendqisi2
 8424 0e16 5B00     		lsls	r3, r3, #1
 8425 0e18 1344     		add	r3, r3, r2
 8426 0e1a 0B44     		add	r3, r3, r1
 8427 0e1c 93F88831 		ldrb	r3, [r3, #392]	@ zero_extendqisi2
 8428 0e20 1846     		mov	r0, r3
 8429 0e22 FFF7FEFF 		bl	TranslateSpecialFuncionDigit
 8430 0e26 0346     		mov	r3, r0
 8431 0e28 1B01     		lsls	r3, r3, #4
 8432 0e2a DCB2     		uxtb	r4, r3
1978:.\PrimeImpl.c ****                             (TranslateSpecialFuncionDigit(pjob->_ppump->_rxbuffer[9 + 45*index + (2
 8433              		.loc 1 1978 0
 8434 0e2c BB69     		ldr	r3, [r7, #24]
 8435 0e2e D969     		ldr	r1, [r3, #28]
 8436 0e30 FA7D     		ldrb	r2, [r7, #23]	@ zero_extendqisi2
 8437 0e32 1346     		mov	r3, r2
 8438 0e34 5B00     		lsls	r3, r3, #1
 8439 0e36 1344     		add	r3, r3, r2
 8440 0e38 1A01     		lsls	r2, r3, #4
 8441 0e3a D31A     		subs	r3, r2, r3
 8442 0e3c 03F10902 		add	r2, r3, #9
 8443 0e40 FB7B     		ldrb	r3, [r7, #15]	@ zero_extendqisi2
 8444 0e42 5B00     		lsls	r3, r3, #1
 8445 0e44 0133     		adds	r3, r3, #1
 8446 0e46 1344     		add	r3, r3, r2
 8447 0e48 0B44     		add	r3, r3, r1
 8448 0e4a 93F88831 		ldrb	r3, [r3, #392]	@ zero_extendqisi2
 8449 0e4e 1846     		mov	r0, r3
 8450 0e50 FFF7FEFF 		bl	TranslateSpecialFuncionDigit
 8451 0e54 0346     		mov	r3, r0
1977:.\PrimeImpl.c ****                             (TranslateSpecialFuncionDigit(pjob->_ppump->_rxbuffer[9 + 45*index + (2
 8452              		.loc 1 1977 0
 8453 0e56 DBB2     		uxtb	r3, r3
 8454 0e58 03F00F03 		and	r3, r3, #15
 8455 0e5c DBB2     		uxtb	r3, r3
 8456 0e5e 2246     		mov	r2, r4
ARM GAS  C:\Users\RECEPC~1\AppData\Local\Temp\ccvxjDo6.s 			page 185


 8457 0e60 1343     		orrs	r3, r3, r2
 8458 0e62 DBB2     		uxtb	r3, r3
 8459 0e64 DAB2     		uxtb	r2, r3
 8460 0e66 3B69     		ldr	r3, [r7, #16]
 8461 0e68 1A70     		strb	r2, [r3]
1979:.\PrimeImpl.c **** 
1980:.\PrimeImpl.c ****             //12
1981:.\PrimeImpl.c ****             ptreeprom++;
 8462              		.loc 1 1981 0
 8463 0e6a 3B69     		ldr	r3, [r7, #16]
 8464 0e6c 0133     		adds	r3, r3, #1
 8465 0e6e 3B61     		str	r3, [r7, #16]
1982:.\PrimeImpl.c ****             blkindex++;
 8466              		.loc 1 1982 0
 8467 0e70 FB7B     		ldrb	r3, [r7, #15]	@ zero_extendqisi2
 8468 0e72 0133     		adds	r3, r3, #1
 8469 0e74 FB73     		strb	r3, [r7, #15]
1983:.\PrimeImpl.c ****             //Prevent Fraud On Initial Pulses
1984:.\PrimeImpl.c ****             *ptreeprom = ((TranslateSpecialFuncionDigit(pjob->_ppump->_rxbuffer[9 + 45*index + 2*bl
 8470              		.loc 1 1984 0
 8471 0e76 BB69     		ldr	r3, [r7, #24]
 8472 0e78 D969     		ldr	r1, [r3, #28]
 8473 0e7a FA7D     		ldrb	r2, [r7, #23]	@ zero_extendqisi2
 8474 0e7c 1346     		mov	r3, r2
 8475 0e7e 5B00     		lsls	r3, r3, #1
 8476 0e80 1344     		add	r3, r3, r2
 8477 0e82 1A01     		lsls	r2, r3, #4
 8478 0e84 D31A     		subs	r3, r2, r3
 8479 0e86 03F10902 		add	r2, r3, #9
 8480 0e8a FB7B     		ldrb	r3, [r7, #15]	@ zero_extendqisi2
 8481 0e8c 5B00     		lsls	r3, r3, #1
 8482 0e8e 1344     		add	r3, r3, r2
 8483 0e90 0B44     		add	r3, r3, r1
 8484 0e92 93F88831 		ldrb	r3, [r3, #392]	@ zero_extendqisi2
 8485 0e96 1846     		mov	r0, r3
 8486 0e98 FFF7FEFF 		bl	TranslateSpecialFuncionDigit
 8487 0e9c 0346     		mov	r3, r0
 8488 0e9e 1B01     		lsls	r3, r3, #4
 8489 0ea0 DCB2     		uxtb	r4, r3
1985:.\PrimeImpl.c ****                             (TranslateSpecialFuncionDigit(pjob->_ppump->_rxbuffer[9 + 45*index + (2
 8490              		.loc 1 1985 0
 8491 0ea2 BB69     		ldr	r3, [r7, #24]
 8492 0ea4 D969     		ldr	r1, [r3, #28]
 8493 0ea6 FA7D     		ldrb	r2, [r7, #23]	@ zero_extendqisi2
 8494 0ea8 1346     		mov	r3, r2
 8495 0eaa 5B00     		lsls	r3, r3, #1
 8496 0eac 1344     		add	r3, r3, r2
 8497 0eae 1A01     		lsls	r2, r3, #4
 8498 0eb0 D31A     		subs	r3, r2, r3
 8499 0eb2 03F10902 		add	r2, r3, #9
 8500 0eb6 FB7B     		ldrb	r3, [r7, #15]	@ zero_extendqisi2
 8501 0eb8 5B00     		lsls	r3, r3, #1
 8502 0eba 0133     		adds	r3, r3, #1
 8503 0ebc 1344     		add	r3, r3, r2
 8504 0ebe 0B44     		add	r3, r3, r1
 8505 0ec0 93F88831 		ldrb	r3, [r3, #392]	@ zero_extendqisi2
 8506 0ec4 1846     		mov	r0, r3
ARM GAS  C:\Users\RECEPC~1\AppData\Local\Temp\ccvxjDo6.s 			page 186


 8507 0ec6 FFF7FEFF 		bl	TranslateSpecialFuncionDigit
 8508 0eca 0346     		mov	r3, r0
1984:.\PrimeImpl.c ****                             (TranslateSpecialFuncionDigit(pjob->_ppump->_rxbuffer[9 + 45*index + (2
 8509              		.loc 1 1984 0
 8510 0ecc DBB2     		uxtb	r3, r3
 8511 0ece 03F00F03 		and	r3, r3, #15
 8512 0ed2 DBB2     		uxtb	r3, r3
 8513 0ed4 2246     		mov	r2, r4
 8514 0ed6 1343     		orrs	r3, r3, r2
 8515 0ed8 DBB2     		uxtb	r3, r3
 8516 0eda DAB2     		uxtb	r2, r3
 8517 0edc 3B69     		ldr	r3, [r7, #16]
 8518 0ede 1A70     		strb	r2, [r3]
1986:.\PrimeImpl.c **** 
1987:.\PrimeImpl.c ****             //13
1988:.\PrimeImpl.c ****             ptreeprom++;
 8519              		.loc 1 1988 0
 8520 0ee0 3B69     		ldr	r3, [r7, #16]
 8521 0ee2 0133     		adds	r3, r3, #1
 8522 0ee4 3B61     		str	r3, [r7, #16]
1989:.\PrimeImpl.c ****             blkindex++;
 8523              		.loc 1 1989 0
 8524 0ee6 FB7B     		ldrb	r3, [r7, #15]	@ zero_extendqisi2
 8525 0ee8 0133     		adds	r3, r3, #1
 8526 0eea FB73     		strb	r3, [r7, #15]
1990:.\PrimeImpl.c ****             //Prevent Fraud on Hose Timeout
1991:.\PrimeImpl.c ****             *ptreeprom = ((TranslateSpecialFuncionDigit(pjob->_ppump->_rxbuffer[9 + 45*index + 2*bl
 8527              		.loc 1 1991 0
 8528 0eec BB69     		ldr	r3, [r7, #24]
 8529 0eee D969     		ldr	r1, [r3, #28]
 8530 0ef0 FA7D     		ldrb	r2, [r7, #23]	@ zero_extendqisi2
 8531 0ef2 1346     		mov	r3, r2
 8532 0ef4 5B00     		lsls	r3, r3, #1
 8533 0ef6 1344     		add	r3, r3, r2
 8534 0ef8 1A01     		lsls	r2, r3, #4
 8535 0efa D31A     		subs	r3, r2, r3
 8536 0efc 03F10902 		add	r2, r3, #9
 8537 0f00 FB7B     		ldrb	r3, [r7, #15]	@ zero_extendqisi2
 8538 0f02 5B00     		lsls	r3, r3, #1
 8539 0f04 1344     		add	r3, r3, r2
 8540 0f06 0B44     		add	r3, r3, r1
 8541 0f08 93F88831 		ldrb	r3, [r3, #392]	@ zero_extendqisi2
 8542 0f0c 1846     		mov	r0, r3
 8543 0f0e FFF7FEFF 		bl	TranslateSpecialFuncionDigit
 8544 0f12 0346     		mov	r3, r0
 8545 0f14 1B01     		lsls	r3, r3, #4
 8546 0f16 DCB2     		uxtb	r4, r3
1992:.\PrimeImpl.c ****                             (TranslateSpecialFuncionDigit(pjob->_ppump->_rxbuffer[9 + 45*index + (2
 8547              		.loc 1 1992 0
 8548 0f18 BB69     		ldr	r3, [r7, #24]
 8549 0f1a D969     		ldr	r1, [r3, #28]
 8550 0f1c FA7D     		ldrb	r2, [r7, #23]	@ zero_extendqisi2
 8551 0f1e 1346     		mov	r3, r2
 8552 0f20 5B00     		lsls	r3, r3, #1
 8553 0f22 1344     		add	r3, r3, r2
 8554 0f24 1A01     		lsls	r2, r3, #4
 8555 0f26 D31A     		subs	r3, r2, r3
ARM GAS  C:\Users\RECEPC~1\AppData\Local\Temp\ccvxjDo6.s 			page 187


 8556 0f28 03F10902 		add	r2, r3, #9
 8557 0f2c FB7B     		ldrb	r3, [r7, #15]	@ zero_extendqisi2
 8558 0f2e 5B00     		lsls	r3, r3, #1
 8559 0f30 0133     		adds	r3, r3, #1
 8560 0f32 1344     		add	r3, r3, r2
 8561 0f34 0B44     		add	r3, r3, r1
 8562 0f36 93F88831 		ldrb	r3, [r3, #392]	@ zero_extendqisi2
 8563 0f3a 1846     		mov	r0, r3
 8564 0f3c FFF7FEFF 		bl	TranslateSpecialFuncionDigit
 8565 0f40 0346     		mov	r3, r0
1991:.\PrimeImpl.c ****                             (TranslateSpecialFuncionDigit(pjob->_ppump->_rxbuffer[9 + 45*index + (2
 8566              		.loc 1 1991 0
 8567 0f42 DBB2     		uxtb	r3, r3
 8568 0f44 03F00F03 		and	r3, r3, #15
 8569 0f48 DBB2     		uxtb	r3, r3
 8570 0f4a 2246     		mov	r2, r4
 8571 0f4c 1343     		orrs	r3, r3, r2
 8572 0f4e DBB2     		uxtb	r3, r3
 8573 0f50 DAB2     		uxtb	r2, r3
 8574 0f52 3B69     		ldr	r3, [r7, #16]
 8575 0f54 1A70     		strb	r2, [r3]
1993:.\PrimeImpl.c **** 
1994:.\PrimeImpl.c ****             //14
1995:.\PrimeImpl.c ****             ptreeprom++;
 8576              		.loc 1 1995 0
 8577 0f56 3B69     		ldr	r3, [r7, #16]
 8578 0f58 0133     		adds	r3, r3, #1
 8579 0f5a 3B61     		str	r3, [r7, #16]
1996:.\PrimeImpl.c ****             blkindex++;
 8580              		.loc 1 1996 0
 8581 0f5c FB7B     		ldrb	r3, [r7, #15]	@ zero_extendqisi2
 8582 0f5e 0133     		adds	r3, r3, #1
 8583 0f60 FB73     		strb	r3, [r7, #15]
1997:.\PrimeImpl.c ****             //Transmit Volumen Totals Rounded / Truncated
1998:.\PrimeImpl.c ****             *ptreeprom = ((TranslateSpecialFuncionDigit(pjob->_ppump->_rxbuffer[9 + 45*index + 2*bl
 8584              		.loc 1 1998 0
 8585 0f62 BB69     		ldr	r3, [r7, #24]
 8586 0f64 D969     		ldr	r1, [r3, #28]
 8587 0f66 FA7D     		ldrb	r2, [r7, #23]	@ zero_extendqisi2
 8588 0f68 1346     		mov	r3, r2
 8589 0f6a 5B00     		lsls	r3, r3, #1
 8590 0f6c 1344     		add	r3, r3, r2
 8591 0f6e 1A01     		lsls	r2, r3, #4
 8592 0f70 D31A     		subs	r3, r2, r3
 8593 0f72 03F10902 		add	r2, r3, #9
 8594 0f76 FB7B     		ldrb	r3, [r7, #15]	@ zero_extendqisi2
 8595 0f78 5B00     		lsls	r3, r3, #1
 8596 0f7a 1344     		add	r3, r3, r2
 8597 0f7c 0B44     		add	r3, r3, r1
 8598 0f7e 93F88831 		ldrb	r3, [r3, #392]	@ zero_extendqisi2
 8599 0f82 1846     		mov	r0, r3
 8600 0f84 FFF7FEFF 		bl	TranslateSpecialFuncionDigit
 8601 0f88 0346     		mov	r3, r0
 8602 0f8a 1B01     		lsls	r3, r3, #4
 8603 0f8c DCB2     		uxtb	r4, r3
1999:.\PrimeImpl.c ****                             (TranslateSpecialFuncionDigit(pjob->_ppump->_rxbuffer[9 + 45*index + (2
 8604              		.loc 1 1999 0
ARM GAS  C:\Users\RECEPC~1\AppData\Local\Temp\ccvxjDo6.s 			page 188


 8605 0f8e BB69     		ldr	r3, [r7, #24]
 8606 0f90 D969     		ldr	r1, [r3, #28]
 8607 0f92 FA7D     		ldrb	r2, [r7, #23]	@ zero_extendqisi2
 8608 0f94 1346     		mov	r3, r2
 8609 0f96 5B00     		lsls	r3, r3, #1
 8610 0f98 1344     		add	r3, r3, r2
 8611 0f9a 1A01     		lsls	r2, r3, #4
 8612 0f9c D31A     		subs	r3, r2, r3
 8613 0f9e 03F10902 		add	r2, r3, #9
 8614 0fa2 FB7B     		ldrb	r3, [r7, #15]	@ zero_extendqisi2
 8615 0fa4 5B00     		lsls	r3, r3, #1
 8616 0fa6 0133     		adds	r3, r3, #1
 8617 0fa8 1344     		add	r3, r3, r2
 8618 0faa 0B44     		add	r3, r3, r1
 8619 0fac 93F88831 		ldrb	r3, [r3, #392]	@ zero_extendqisi2
 8620 0fb0 1846     		mov	r0, r3
 8621 0fb2 FFF7FEFF 		bl	TranslateSpecialFuncionDigit
 8622 0fb6 0346     		mov	r3, r0
1998:.\PrimeImpl.c ****                             (TranslateSpecialFuncionDigit(pjob->_ppump->_rxbuffer[9 + 45*index + (2
 8623              		.loc 1 1998 0
 8624 0fb8 DBB2     		uxtb	r3, r3
 8625 0fba 03F00F03 		and	r3, r3, #15
 8626 0fbe DBB2     		uxtb	r3, r3
 8627 0fc0 2246     		mov	r2, r4
 8628 0fc2 1343     		orrs	r3, r3, r2
 8629 0fc4 DBB2     		uxtb	r3, r3
 8630 0fc6 DAB2     		uxtb	r2, r3
 8631 0fc8 3B69     		ldr	r3, [r7, #16]
 8632 0fca 1A70     		strb	r2, [r3]
2000:.\PrimeImpl.c **** 
2001:.\PrimeImpl.c ****             //STORING BACK THE EEPROM PAGE
2002:.\PrimeImpl.c ****             StoreEepromPage(eeprompumpconfigmemorypageid);
 8633              		.loc 1 2002 0
 8634 0fcc BB8B     		ldrh	r3, [r7, #28]
 8635 0fce 1846     		mov	r0, r3
 8636 0fd0 FFF7FEFF 		bl	StoreEepromPage
2003:.\PrimeImpl.c ****             AcquireDispenserLayoutInformation(&GetEepromBuffer()[16]);
 8637              		.loc 1 2003 0
 8638 0fd4 FFF7FEFF 		bl	GetEepromBuffer
 8639 0fd8 0346     		mov	r3, r0
 8640 0fda 1033     		adds	r3, r3, #16
 8641 0fdc 1846     		mov	r0, r3
 8642 0fde FFF7FEFF 		bl	AcquireDispenserLayoutInformation
2004:.\PrimeImpl.c ****          
2005:.\PrimeImpl.c ****             _g_dispenserlayoutinfo._inconfiguration = false;
 8643              		.loc 1 2005 0
 8644 0fe2 164B     		ldr	r3, .L243
 8645 0fe4 0022     		movs	r2, #0
 8646 0fe6 1A70     		strb	r2, [r3]
2006:.\PrimeImpl.c ****             _ALLOCATE_SINKMESSAGE_SLOT(psinkmsg);
 8647              		.loc 1 2006 0
 8648 0fe8 FFF7FEFF 		bl	AllocateMessageSlot
 8649 0fec B860     		str	r0, [r7, #8]
2007:.\PrimeImpl.c ****             if(psinkmsg)
 8650              		.loc 1 2007 0
 8651 0fee BB68     		ldr	r3, [r7, #8]
 8652 0ff0 002B     		cmp	r3, #0
ARM GAS  C:\Users\RECEPC~1\AppData\Local\Temp\ccvxjDo6.s 			page 189


 8653 0ff2 0CD0     		beq	.L239
2008:.\PrimeImpl.c ****             {
2009:.\PrimeImpl.c ****                 psinkmsg->_messageid = DISPENSER_LOAD_EEPROM_SETTINGS;
 8654              		.loc 1 2009 0
 8655 0ff4 BB68     		ldr	r3, [r7, #8]
 8656 0ff6 0D22     		movs	r2, #13
 8657 0ff8 5A70     		strb	r2, [r3, #1]
2010:.\PrimeImpl.c ****                 psinkmsg->_messagedelay = _SINK_TIMEOUT_1S_;
 8658              		.loc 1 2010 0
 8659 0ffa BB68     		ldr	r3, [r7, #8]
 8660 0ffc 4FF47A72 		mov	r2, #1000
 8661 1000 9A80     		strh	r2, [r3, #4]	@ movhi
2011:.\PrimeImpl.c ****                 psinkmsg->_messagetype = FIRSTFOUND;
 8662              		.loc 1 2011 0
 8663 1002 BB68     		ldr	r3, [r7, #8]
 8664 1004 0322     		movs	r2, #3
 8665 1006 9A70     		strb	r2, [r3, #2]
2012:.\PrimeImpl.c ****                 psinkmsg->_messagestate = SINK_BUSY;
 8666              		.loc 1 2012 0
 8667 1008 BB68     		ldr	r3, [r7, #8]
 8668 100a 0322     		movs	r2, #3
 8669 100c DA70     		strb	r2, [r3, #3]
 8670              	.L239:
2013:.\PrimeImpl.c ****             }
2014:.\PrimeImpl.c ****             
2015:.\PrimeImpl.c ****             _REALLOCATE_SINKMESSAGE_SLOT(psinkmsg);
 8671              		.loc 1 2015 0
 8672 100e FFF7FEFF 		bl	AllocateMessageSlot
 8673 1012 B860     		str	r0, [r7, #8]
2016:.\PrimeImpl.c ****             if(psinkmsg)
 8674              		.loc 1 2016 0
 8675 1014 BB68     		ldr	r3, [r7, #8]
 8676 1016 002B     		cmp	r3, #0
 8677 1018 0CD0     		beq	.L229
2017:.\PrimeImpl.c ****             {
2018:.\PrimeImpl.c ****                 psinkmsg->_messageid = DISPENSER_CONFIGURE_PRICES;
 8678              		.loc 1 2018 0
 8679 101a BB68     		ldr	r3, [r7, #8]
 8680 101c 1022     		movs	r2, #16
 8681 101e 5A70     		strb	r2, [r3, #1]
2019:.\PrimeImpl.c ****                 psinkmsg->_messagedelay = _SINK_TIMEOUT_2S_;
 8682              		.loc 1 2019 0
 8683 1020 BB68     		ldr	r3, [r7, #8]
 8684 1022 4FF4FA62 		mov	r2, #2000
 8685 1026 9A80     		strh	r2, [r3, #4]	@ movhi
2020:.\PrimeImpl.c ****                 psinkmsg->_messagetype = FIRSTFOUND;
 8686              		.loc 1 2020 0
 8687 1028 BB68     		ldr	r3, [r7, #8]
 8688 102a 0322     		movs	r2, #3
 8689 102c 9A70     		strb	r2, [r3, #2]
2021:.\PrimeImpl.c ****                 psinkmsg->_messagestate = SINK_BUSY;
 8690              		.loc 1 2021 0
 8691 102e BB68     		ldr	r3, [r7, #8]
 8692 1030 0322     		movs	r2, #3
 8693 1032 DA70     		strb	r2, [r3, #3]
 8694              	.L229:
 8695              	.LBE46:
ARM GAS  C:\Users\RECEPC~1\AppData\Local\Temp\ccvxjDo6.s 			page 190


 8696              	.LBE45:
2022:.\PrimeImpl.c ****             }
2023:.\PrimeImpl.c ****         }
2024:.\PrimeImpl.c ****     }
2025:.\PrimeImpl.c **** }
 8697              		.loc 1 2025 0
 8698 1034 2437     		adds	r7, r7, #36
 8699              		.cfi_def_cfa_offset 12
 8700 1036 BD46     		mov	sp, r7
 8701              		.cfi_def_cfa_register 13
 8702              		@ sp needed
 8703 1038 90BD     		pop	{r4, r7, pc}
 8704              	.L244:
 8705 103a 00BF     		.align	2
 8706              	.L243:
 8707 103c 00000000 		.word	_g_dispenserlayoutinfo
 8708              		.cfi_endproc
 8709              	.LFE100:
 8710              		.size	AcquirePumpCompleteConfiguration, .-AcquirePumpCompleteConfiguration
 8711              		.section	.text.AcquireDispenserLayoutInformation,"ax",%progbits
 8712              		.align	2
 8713              		.global	AcquireDispenserLayoutInformation
 8714              		.thumb
 8715              		.thumb_func
 8716              		.type	AcquireDispenserLayoutInformation, %function
 8717              	AcquireDispenserLayoutInformation:
 8718              	.LFB101:
2026:.\PrimeImpl.c **** 
2027:.\PrimeImpl.c **** //@Created By: HIJH
2028:.\PrimeImpl.c **** //@Septembre de 2016
2029:.\PrimeImpl.c **** void AcquireDispenserLayoutInformation(LPVOID pparam)
2030:.\PrimeImpl.c **** {
 8719              		.loc 1 2030 0
 8720              		.cfi_startproc
 8721              		@ args = 0, pretend = 0, frame = 16
 8722              		@ frame_needed = 1, uses_anonymous_args = 0
 8723              		@ link register save eliminated.
 8724 0000 80B4     		push	{r7}
 8725              		.cfi_def_cfa_offset 4
 8726              		.cfi_offset 7, -4
 8727 0002 85B0     		sub	sp, sp, #20
 8728              		.cfi_def_cfa_offset 24
 8729 0004 00AF     		add	r7, sp, #0
 8730              		.cfi_def_cfa_register 7
 8731 0006 7860     		str	r0, [r7, #4]
2031:.\PrimeImpl.c ****     LPRAWPTR ptrbuff = (LPRAWPTR)pparam;
 8732              		.loc 1 2031 0
 8733 0008 7B68     		ldr	r3, [r7, #4]
 8734 000a FB60     		str	r3, [r7, #12]
2032:.\PrimeImpl.c ****     //PLEASE CHECK THE DOCUMENTATION TO UNDERSTAND THE COMPARISON VALUES
2033:.\PrimeImpl.c ****     if((ptrbuff[0x01] == 0x02) || (ptrbuff[0x01] == 0x03))//QUATTRO PUMPS
 8735              		.loc 1 2033 0
 8736 000c FB68     		ldr	r3, [r7, #12]
 8737 000e 0133     		adds	r3, r3, #1
 8738 0010 1B78     		ldrb	r3, [r3]	@ zero_extendqisi2
 8739 0012 022B     		cmp	r3, #2
 8740 0014 04D0     		beq	.L246
ARM GAS  C:\Users\RECEPC~1\AppData\Local\Temp\ccvxjDo6.s 			page 191


 8741              		.loc 1 2033 0 is_stmt 0 discriminator 1
 8742 0016 FB68     		ldr	r3, [r7, #12]
 8743 0018 0133     		adds	r3, r3, #1
 8744 001a 1B78     		ldrb	r3, [r3]	@ zero_extendqisi2
 8745 001c 032B     		cmp	r3, #3
 8746 001e 33D1     		bne	.L247
 8747              	.L246:
2034:.\PrimeImpl.c ****     {
2035:.\PrimeImpl.c ****         //FOUR SIMULTANEOUS DELIVERIES
2036:.\PrimeImpl.c ****         _g_dispenserlayoutinfo._numpositions = 0x04;
 8748              		.loc 1 2036 0 is_stmt 1
 8749 0020 6F4B     		ldr	r3, .L277
 8750 0022 0422     		movs	r2, #4
 8751 0024 9A70     		strb	r2, [r3, #2]
2037:.\PrimeImpl.c ****         switch(ptrbuff[0x00])
 8752              		.loc 1 2037 0
 8753 0026 FB68     		ldr	r3, [r7, #12]
 8754 0028 1B78     		ldrb	r3, [r3]	@ zero_extendqisi2
 8755 002a 042B     		cmp	r3, #4
 8756 002c 11D0     		beq	.L249
 8757 002e 052B     		cmp	r3, #5
 8758 0030 1CD0     		beq	.L250
 8759 0032 032B     		cmp	r3, #3
 8760 0034 00D0     		beq	.L251
2038:.\PrimeImpl.c ****         {
2039:.\PrimeImpl.c ****             case 0x03://Qudrupla
2040:.\PrimeImpl.c ****             {
2041:.\PrimeImpl.c ****                 _g_dispenserlayoutinfo._hosesposition1 = 0x01;
2042:.\PrimeImpl.c ****                 _g_dispenserlayoutinfo._hosesposition2 = 0x01;
2043:.\PrimeImpl.c ****                 _g_dispenserlayoutinfo._hosesposition3 = 0x01;
2044:.\PrimeImpl.c ****                 _g_dispenserlayoutinfo._hosesposition4 = 0x01;
2045:.\PrimeImpl.c ****                 break;
2046:.\PrimeImpl.c ****             }
2047:.\PrimeImpl.c ****             case 0x04://Sxtupla
2048:.\PrimeImpl.c ****             {
2049:.\PrimeImpl.c ****                 _g_dispenserlayoutinfo._hosesposition1 = 0x02;
2050:.\PrimeImpl.c ****                 _g_dispenserlayoutinfo._hosesposition2 = 0x02;
2051:.\PrimeImpl.c ****                 _g_dispenserlayoutinfo._hosesposition3 = 0x01;
2052:.\PrimeImpl.c ****                 _g_dispenserlayoutinfo._hosesposition4 = 0x01;
2053:.\PrimeImpl.c ****                 break;
2054:.\PrimeImpl.c ****             }
2055:.\PrimeImpl.c ****             case 0x05://ctupla
2056:.\PrimeImpl.c ****             {
2057:.\PrimeImpl.c ****                 _g_dispenserlayoutinfo._hosesposition1 = 0x02;
2058:.\PrimeImpl.c ****                 _g_dispenserlayoutinfo._hosesposition2 = 0x02;
2059:.\PrimeImpl.c ****                 _g_dispenserlayoutinfo._hosesposition3 = 0x02;
2060:.\PrimeImpl.c ****                 _g_dispenserlayoutinfo._hosesposition4 = 0x02;
2061:.\PrimeImpl.c ****                 break;
2062:.\PrimeImpl.c ****             }
2063:.\PrimeImpl.c ****         }
2064:.\PrimeImpl.c ****     }
 8761              		.loc 1 2064 0
 8762 0036 59E0     		b	.L252
 8763              	.L251:
2041:.\PrimeImpl.c ****                 _g_dispenserlayoutinfo._hosesposition2 = 0x01;
 8764              		.loc 1 2041 0
 8765 0038 694B     		ldr	r3, .L277
ARM GAS  C:\Users\RECEPC~1\AppData\Local\Temp\ccvxjDo6.s 			page 192


 8766 003a 0122     		movs	r2, #1
 8767 003c DA70     		strb	r2, [r3, #3]
2042:.\PrimeImpl.c ****                 _g_dispenserlayoutinfo._hosesposition3 = 0x01;
 8768              		.loc 1 2042 0
 8769 003e 684B     		ldr	r3, .L277
 8770 0040 0122     		movs	r2, #1
 8771 0042 1A71     		strb	r2, [r3, #4]
2043:.\PrimeImpl.c ****                 _g_dispenserlayoutinfo._hosesposition4 = 0x01;
 8772              		.loc 1 2043 0
 8773 0044 664B     		ldr	r3, .L277
 8774 0046 0122     		movs	r2, #1
 8775 0048 5A71     		strb	r2, [r3, #5]
2044:.\PrimeImpl.c ****                 break;
 8776              		.loc 1 2044 0
 8777 004a 654B     		ldr	r3, .L277
 8778 004c 0122     		movs	r2, #1
 8779 004e 9A71     		strb	r2, [r3, #6]
2045:.\PrimeImpl.c ****             }
 8780              		.loc 1 2045 0
 8781 0050 19E0     		b	.L248
 8782              	.L249:
2049:.\PrimeImpl.c ****                 _g_dispenserlayoutinfo._hosesposition2 = 0x02;
 8783              		.loc 1 2049 0
 8784 0052 634B     		ldr	r3, .L277
 8785 0054 0222     		movs	r2, #2
 8786 0056 DA70     		strb	r2, [r3, #3]
2050:.\PrimeImpl.c ****                 _g_dispenserlayoutinfo._hosesposition3 = 0x01;
 8787              		.loc 1 2050 0
 8788 0058 614B     		ldr	r3, .L277
 8789 005a 0222     		movs	r2, #2
 8790 005c 1A71     		strb	r2, [r3, #4]
2051:.\PrimeImpl.c ****                 _g_dispenserlayoutinfo._hosesposition4 = 0x01;
 8791              		.loc 1 2051 0
 8792 005e 604B     		ldr	r3, .L277
 8793 0060 0122     		movs	r2, #1
 8794 0062 5A71     		strb	r2, [r3, #5]
2052:.\PrimeImpl.c ****                 break;
 8795              		.loc 1 2052 0
 8796 0064 5E4B     		ldr	r3, .L277
 8797 0066 0122     		movs	r2, #1
 8798 0068 9A71     		strb	r2, [r3, #6]
2053:.\PrimeImpl.c ****             }
 8799              		.loc 1 2053 0
 8800 006a 0CE0     		b	.L248
 8801              	.L250:
2057:.\PrimeImpl.c ****                 _g_dispenserlayoutinfo._hosesposition2 = 0x02;
 8802              		.loc 1 2057 0
 8803 006c 5C4B     		ldr	r3, .L277
 8804 006e 0222     		movs	r2, #2
 8805 0070 DA70     		strb	r2, [r3, #3]
2058:.\PrimeImpl.c ****                 _g_dispenserlayoutinfo._hosesposition3 = 0x02;
 8806              		.loc 1 2058 0
 8807 0072 5B4B     		ldr	r3, .L277
 8808 0074 0222     		movs	r2, #2
 8809 0076 1A71     		strb	r2, [r3, #4]
2059:.\PrimeImpl.c ****                 _g_dispenserlayoutinfo._hosesposition4 = 0x02;
 8810              		.loc 1 2059 0
ARM GAS  C:\Users\RECEPC~1\AppData\Local\Temp\ccvxjDo6.s 			page 193


 8811 0078 594B     		ldr	r3, .L277
 8812 007a 0222     		movs	r2, #2
 8813 007c 5A71     		strb	r2, [r3, #5]
2060:.\PrimeImpl.c ****                 break;
 8814              		.loc 1 2060 0
 8815 007e 584B     		ldr	r3, .L277
 8816 0080 0222     		movs	r2, #2
 8817 0082 9A71     		strb	r2, [r3, #6]
2061:.\PrimeImpl.c ****             }
 8818              		.loc 1 2061 0
 8819 0084 00BF     		nop
 8820              	.L248:
 8821              		.loc 1 2064 0
 8822 0086 31E0     		b	.L252
 8823              	.L247:
2065:.\PrimeImpl.c ****     else//NORMAL PUMPS
2066:.\PrimeImpl.c ****     {
2067:.\PrimeImpl.c ****         //TWO SIMULTANEOUS DELIVERIES
2068:.\PrimeImpl.c ****         _g_dispenserlayoutinfo._numpositions = 0x02;
 8824              		.loc 1 2068 0
 8825 0088 554B     		ldr	r3, .L277
 8826 008a 0222     		movs	r2, #2
 8827 008c 9A70     		strb	r2, [r3, #2]
2069:.\PrimeImpl.c ****         switch(ptrbuff[0x00])
 8828              		.loc 1 2069 0
 8829 008e FB68     		ldr	r3, [r7, #12]
 8830 0090 1B78     		ldrb	r3, [r3]	@ zero_extendqisi2
 8831 0092 013B     		subs	r3, r3, #1
 8832 0094 042B     		cmp	r3, #4
 8833 0096 29D8     		bhi	.L252
 8834 0098 01A2     		adr	r2, .L254
 8835 009a 52F823F0 		ldr	pc, [r2, r3, lsl #2]
 8836 009e 00BF     		.p2align 2
 8837              	.L254:
 8838 00a0 B5000000 		.word	.L253+1
 8839 00a4 B5000000 		.word	.L253+1
 8840 00a8 C3000000 		.word	.L255+1
 8841 00ac D1000000 		.word	.L256+1
 8842 00b0 DF000000 		.word	.L257+1
 8843              		.p2align 1
 8844              	.L253:
2070:.\PrimeImpl.c ****         {
2071:.\PrimeImpl.c ****             case 0x01://Dual (2 Hoses  1 motor)
2072:.\PrimeImpl.c ****             case 0x02://Dupla(2 Hoses  2 motors)
2073:.\PrimeImpl.c ****             {
2074:.\PrimeImpl.c ****                 _g_dispenserlayoutinfo._hosesposition1 = 0x01;
 8845              		.loc 1 2074 0
 8846 00b4 4A4B     		ldr	r3, .L277
 8847 00b6 0122     		movs	r2, #1
 8848 00b8 DA70     		strb	r2, [r3, #3]
2075:.\PrimeImpl.c ****                 _g_dispenserlayoutinfo._hosesposition2 = 0x01;
 8849              		.loc 1 2075 0
 8850 00ba 494B     		ldr	r3, .L277
 8851 00bc 0122     		movs	r2, #1
 8852 00be 1A71     		strb	r2, [r3, #4]
2076:.\PrimeImpl.c ****                 break;
 8853              		.loc 1 2076 0
ARM GAS  C:\Users\RECEPC~1\AppData\Local\Temp\ccvxjDo6.s 			page 194


 8854 00c0 14E0     		b	.L252
 8855              	.L255:
2077:.\PrimeImpl.c ****             }
2078:.\PrimeImpl.c ****             case 0x03://Qudrupla
2079:.\PrimeImpl.c ****             {
2080:.\PrimeImpl.c ****                 _g_dispenserlayoutinfo._hosesposition1 = 0x02;
 8856              		.loc 1 2080 0
 8857 00c2 474B     		ldr	r3, .L277
 8858 00c4 0222     		movs	r2, #2
 8859 00c6 DA70     		strb	r2, [r3, #3]
2081:.\PrimeImpl.c ****                 _g_dispenserlayoutinfo._hosesposition2 = 0x02;
 8860              		.loc 1 2081 0
 8861 00c8 454B     		ldr	r3, .L277
 8862 00ca 0222     		movs	r2, #2
 8863 00cc 1A71     		strb	r2, [r3, #4]
2082:.\PrimeImpl.c ****                 break;
 8864              		.loc 1 2082 0
 8865 00ce 0DE0     		b	.L252
 8866              	.L256:
2083:.\PrimeImpl.c ****             }
2084:.\PrimeImpl.c ****             case 0x04://Sxtupla
2085:.\PrimeImpl.c ****             {
2086:.\PrimeImpl.c ****                 _g_dispenserlayoutinfo._hosesposition1 = 0x03;
 8867              		.loc 1 2086 0
 8868 00d0 434B     		ldr	r3, .L277
 8869 00d2 0322     		movs	r2, #3
 8870 00d4 DA70     		strb	r2, [r3, #3]
2087:.\PrimeImpl.c ****                 _g_dispenserlayoutinfo._hosesposition2 = 0x03;
 8871              		.loc 1 2087 0
 8872 00d6 424B     		ldr	r3, .L277
 8873 00d8 0322     		movs	r2, #3
 8874 00da 1A71     		strb	r2, [r3, #4]
2088:.\PrimeImpl.c ****                 break;
 8875              		.loc 1 2088 0
 8876 00dc 06E0     		b	.L252
 8877              	.L257:
2089:.\PrimeImpl.c ****             }
2090:.\PrimeImpl.c ****             case 0x05://ctupla
2091:.\PrimeImpl.c ****             {
2092:.\PrimeImpl.c ****                 _g_dispenserlayoutinfo._hosesposition1 = 0x04;
 8878              		.loc 1 2092 0
 8879 00de 404B     		ldr	r3, .L277
 8880 00e0 0422     		movs	r2, #4
 8881 00e2 DA70     		strb	r2, [r3, #3]
2093:.\PrimeImpl.c ****                 _g_dispenserlayoutinfo._hosesposition2 = 0x04;
 8882              		.loc 1 2093 0
 8883 00e4 3E4B     		ldr	r3, .L277
 8884 00e6 0422     		movs	r2, #4
 8885 00e8 1A71     		strb	r2, [r3, #4]
2094:.\PrimeImpl.c ****                 break;
 8886              		.loc 1 2094 0
 8887 00ea 00BF     		nop
 8888              	.L252:
2095:.\PrimeImpl.c ****             }
2096:.\PrimeImpl.c ****         }
2097:.\PrimeImpl.c ****     }
2098:.\PrimeImpl.c **** 
ARM GAS  C:\Users\RECEPC~1\AppData\Local\Temp\ccvxjDo6.s 			page 195


2099:.\PrimeImpl.c ****     _g_dispenserlayoutinfo._volumeunit = ptrbuff[0x02];
 8889              		.loc 1 2099 0
 8890 00ec FB68     		ldr	r3, [r7, #12]
 8891 00ee 9A78     		ldrb	r2, [r3, #2]	@ zero_extendqisi2
 8892 00f0 3B4B     		ldr	r3, .L277
 8893 00f2 9A72     		strb	r2, [r3, #10]
2100:.\PrimeImpl.c ****     
2101:.\PrimeImpl.c ****     //Money Decimal Points
2102:.\PrimeImpl.c ****     switch(ptrbuff[0x05])
 8894              		.loc 1 2102 0
 8895 00f4 FB68     		ldr	r3, [r7, #12]
 8896 00f6 0533     		adds	r3, r3, #5
 8897 00f8 1B78     		ldrb	r3, [r3]	@ zero_extendqisi2
 8898 00fa 013B     		subs	r3, r3, #1
 8899 00fc 032B     		cmp	r3, #3
 8900 00fe 1BD8     		bhi	.L258
 8901 0100 01A2     		adr	r2, .L260
 8902 0102 52F823F0 		ldr	pc, [r2, r3, lsl #2]
 8903 0106 00BF     		.p2align 2
 8904              	.L260:
 8905 0108 19010000 		.word	.L259+1
 8906 010c 21010000 		.word	.L261+1
 8907 0110 29010000 		.word	.L262+1
 8908 0114 31010000 		.word	.L263+1
 8909              		.p2align 1
 8910              	.L259:
2103:.\PrimeImpl.c ****     {
2104:.\PrimeImpl.c ****         case 0x01:
2105:.\PrimeImpl.c ****         _g_dispenserlayoutinfo._moneydecimals = 0;
 8911              		.loc 1 2105 0
 8912 0118 314B     		ldr	r3, .L277
 8913 011a 0022     		movs	r2, #0
 8914 011c DA71     		strb	r2, [r3, #7]
2106:.\PrimeImpl.c ****         break;
 8915              		.loc 1 2106 0
 8916 011e 0BE0     		b	.L258
 8917              	.L261:
2107:.\PrimeImpl.c ****         case 0x02:
2108:.\PrimeImpl.c ****         _g_dispenserlayoutinfo._moneydecimals = 1;
 8918              		.loc 1 2108 0
 8919 0120 2F4B     		ldr	r3, .L277
 8920 0122 0122     		movs	r2, #1
 8921 0124 DA71     		strb	r2, [r3, #7]
2109:.\PrimeImpl.c ****         break;
 8922              		.loc 1 2109 0
 8923 0126 07E0     		b	.L258
 8924              	.L262:
2110:.\PrimeImpl.c ****         case 0x03:
2111:.\PrimeImpl.c ****         _g_dispenserlayoutinfo._moneydecimals = 2;
 8925              		.loc 1 2111 0
 8926 0128 2D4B     		ldr	r3, .L277
 8927 012a 0222     		movs	r2, #2
 8928 012c DA71     		strb	r2, [r3, #7]
2112:.\PrimeImpl.c ****         break;
 8929              		.loc 1 2112 0
 8930 012e 03E0     		b	.L258
 8931              	.L263:
ARM GAS  C:\Users\RECEPC~1\AppData\Local\Temp\ccvxjDo6.s 			page 196


2113:.\PrimeImpl.c ****         case 0x04:
2114:.\PrimeImpl.c ****         _g_dispenserlayoutinfo._moneydecimals = 3;
 8932              		.loc 1 2114 0
 8933 0130 2B4B     		ldr	r3, .L277
 8934 0132 0322     		movs	r2, #3
 8935 0134 DA71     		strb	r2, [r3, #7]
2115:.\PrimeImpl.c ****         break;
 8936              		.loc 1 2115 0
 8937 0136 00BF     		nop
 8938              	.L258:
2116:.\PrimeImpl.c ****     }
2117:.\PrimeImpl.c ****     //PPU Decimal Points
2118:.\PrimeImpl.c ****     switch(ptrbuff[0x06])
 8939              		.loc 1 2118 0
 8940 0138 FB68     		ldr	r3, [r7, #12]
 8941 013a 0633     		adds	r3, r3, #6
 8942 013c 1B78     		ldrb	r3, [r3]	@ zero_extendqisi2
 8943 013e 013B     		subs	r3, r3, #1
 8944 0140 032B     		cmp	r3, #3
 8945 0142 1BD8     		bhi	.L264
 8946 0144 01A2     		adr	r2, .L266
 8947 0146 52F823F0 		ldr	pc, [r2, r3, lsl #2]
 8948 014a 00BF     		.p2align 2
 8949              	.L266:
 8950 014c 5D010000 		.word	.L265+1
 8951 0150 65010000 		.word	.L267+1
 8952 0154 6D010000 		.word	.L268+1
 8953 0158 75010000 		.word	.L269+1
 8954              		.p2align 1
 8955              	.L265:
2119:.\PrimeImpl.c ****     {
2120:.\PrimeImpl.c ****         case 0x01:
2121:.\PrimeImpl.c ****         _g_dispenserlayoutinfo._ppudecimals = 0;
 8956              		.loc 1 2121 0
 8957 015c 204B     		ldr	r3, .L277
 8958 015e 0022     		movs	r2, #0
 8959 0160 1A72     		strb	r2, [r3, #8]
2122:.\PrimeImpl.c ****         break;
 8960              		.loc 1 2122 0
 8961 0162 0BE0     		b	.L264
 8962              	.L267:
2123:.\PrimeImpl.c ****         case 0x02:
2124:.\PrimeImpl.c ****         _g_dispenserlayoutinfo._ppudecimals = 1;
 8963              		.loc 1 2124 0
 8964 0164 1E4B     		ldr	r3, .L277
 8965 0166 0122     		movs	r2, #1
 8966 0168 1A72     		strb	r2, [r3, #8]
2125:.\PrimeImpl.c ****         break;
 8967              		.loc 1 2125 0
 8968 016a 07E0     		b	.L264
 8969              	.L268:
2126:.\PrimeImpl.c ****         case 0x03:
2127:.\PrimeImpl.c ****         _g_dispenserlayoutinfo._ppudecimals = 2;
 8970              		.loc 1 2127 0
 8971 016c 1C4B     		ldr	r3, .L277
 8972 016e 0222     		movs	r2, #2
 8973 0170 1A72     		strb	r2, [r3, #8]
ARM GAS  C:\Users\RECEPC~1\AppData\Local\Temp\ccvxjDo6.s 			page 197


2128:.\PrimeImpl.c ****         break;
 8974              		.loc 1 2128 0
 8975 0172 03E0     		b	.L264
 8976              	.L269:
2129:.\PrimeImpl.c ****         case 0x04:
2130:.\PrimeImpl.c ****         _g_dispenserlayoutinfo._ppudecimals = 3;
 8977              		.loc 1 2130 0
 8978 0174 1A4B     		ldr	r3, .L277
 8979 0176 0322     		movs	r2, #3
 8980 0178 1A72     		strb	r2, [r3, #8]
2131:.\PrimeImpl.c ****         break;
 8981              		.loc 1 2131 0
 8982 017a 00BF     		nop
 8983              	.L264:
2132:.\PrimeImpl.c ****     }
2133:.\PrimeImpl.c ****     //Volume Decimal Points
2134:.\PrimeImpl.c ****     switch(ptrbuff[0x07])
 8984              		.loc 1 2134 0
 8985 017c FB68     		ldr	r3, [r7, #12]
 8986 017e 0733     		adds	r3, r3, #7
 8987 0180 1B78     		ldrb	r3, [r3]	@ zero_extendqisi2
 8988 0182 032B     		cmp	r3, #3
 8989 0184 02D0     		beq	.L271
 8990 0186 042B     		cmp	r3, #4
 8991 0188 04D0     		beq	.L272
 8992 018a 07E0     		b	.L270
 8993              	.L271:
2135:.\PrimeImpl.c ****     {
2136:.\PrimeImpl.c ****         case 0x03:
2137:.\PrimeImpl.c ****         _g_dispenserlayoutinfo._volumedecimals = 2;
 8994              		.loc 1 2137 0
 8995 018c 144B     		ldr	r3, .L277
 8996 018e 0222     		movs	r2, #2
 8997 0190 5A72     		strb	r2, [r3, #9]
2138:.\PrimeImpl.c ****         break;
 8998              		.loc 1 2138 0
 8999 0192 03E0     		b	.L270
 9000              	.L272:
2139:.\PrimeImpl.c ****         case 0x04:
2140:.\PrimeImpl.c ****         _g_dispenserlayoutinfo._volumedecimals = 3;
 9001              		.loc 1 2140 0
 9002 0194 124B     		ldr	r3, .L277
 9003 0196 0322     		movs	r2, #3
 9004 0198 5A72     		strb	r2, [r3, #9]
2141:.\PrimeImpl.c ****         break;
 9005              		.loc 1 2141 0
 9006 019a 00BF     		nop
 9007              	.L270:
2142:.\PrimeImpl.c ****     }
2143:.\PrimeImpl.c ****     
2144:.\PrimeImpl.c ****     if(ptrbuff[0x0A] == 0x00)
 9008              		.loc 1 2144 0
 9009 019c FB68     		ldr	r3, [r7, #12]
 9010 019e 0A33     		adds	r3, r3, #10
 9011 01a0 1B78     		ldrb	r3, [r3]	@ zero_extendqisi2
 9012 01a2 002B     		cmp	r3, #0
 9013 01a4 03D1     		bne	.L273
ARM GAS  C:\Users\RECEPC~1\AppData\Local\Temp\ccvxjDo6.s 			page 198


2145:.\PrimeImpl.c ****         _g_dispenserlayoutinfo._displaydigitsmode = 0x06; //6-6-4 digits (Money-Volume-PPU)
 9014              		.loc 1 2145 0
 9015 01a6 0E4B     		ldr	r3, .L277
 9016 01a8 0622     		movs	r2, #6
 9017 01aa 1A74     		strb	r2, [r3, #16]
 9018 01ac 02E0     		b	.L274
 9019              	.L273:
2146:.\PrimeImpl.c ****     else
2147:.\PrimeImpl.c ****         _g_dispenserlayoutinfo._displaydigitsmode = 0x07; //7-7-5 digits (Money-Volume-PPU)
 9020              		.loc 1 2147 0
 9021 01ae 0C4B     		ldr	r3, .L277
 9022 01b0 0722     		movs	r2, #7
 9023 01b2 1A74     		strb	r2, [r3, #16]
 9024              	.L274:
2148:.\PrimeImpl.c ****     
2149:.\PrimeImpl.c ****     
2150:.\PrimeImpl.c ****     if(ptrbuff[0x0B] == 0x00)
 9025              		.loc 1 2150 0
 9026 01b4 FB68     		ldr	r3, [r7, #12]
 9027 01b6 0B33     		adds	r3, r3, #11
 9028 01b8 1B78     		ldrb	r3, [r3]	@ zero_extendqisi2
 9029 01ba 002B     		cmp	r3, #0
 9030 01bc 05D1     		bne	.L275
2151:.\PrimeImpl.c ****         _g_dispenserlayoutinfo._pointcommadecimalmode = _POINT_AS_DECIMAL_SEPARATOR_;
 9031              		.loc 1 2151 0
 9032 01be 084A     		ldr	r2, .L277
 9033 01c0 D37C     		ldrb	r3, [r2, #19]
 9034 01c2 6FF30003 		bfc	r3, #0, #1
 9035 01c6 D374     		strb	r3, [r2, #19]
 9036 01c8 04E0     		b	.L245
 9037              	.L275:
2152:.\PrimeImpl.c ****     else
2153:.\PrimeImpl.c ****         _g_dispenserlayoutinfo._pointcommadecimalmode = _COMMA_AS_DECIMAL_SEPARATOR_;
 9038              		.loc 1 2153 0
 9039 01ca 054A     		ldr	r2, .L277
 9040 01cc D37C     		ldrb	r3, [r2, #19]
 9041 01ce 43F00103 		orr	r3, r3, #1
 9042 01d2 D374     		strb	r3, [r2, #19]
 9043              	.L245:
2154:.\PrimeImpl.c **** }
 9044              		.loc 1 2154 0
 9045 01d4 1437     		adds	r7, r7, #20
 9046              		.cfi_def_cfa_offset 4
 9047 01d6 BD46     		mov	sp, r7
 9048              		.cfi_def_cfa_register 13
 9049              		@ sp needed
 9050 01d8 5DF8047B 		ldr	r7, [sp], #4
 9051              		.cfi_restore 7
 9052              		.cfi_def_cfa_offset 0
 9053 01dc 7047     		bx	lr
 9054              	.L278:
 9055 01de 00BF     		.align	2
 9056              	.L277:
 9057 01e0 00000000 		.word	_g_dispenserlayoutinfo
 9058              		.cfi_endproc
 9059              	.LFE101:
 9060              		.size	AcquireDispenserLayoutInformation, .-AcquireDispenserLayoutInformation
ARM GAS  C:\Users\RECEPC~1\AppData\Local\Temp\ccvxjDo6.s 			page 199


 9061              		.section	.text.AcquirePumpSpecialFunctionResponseResolver,"ax",%progbits
 9062              		.align	2
 9063              		.global	AcquirePumpSpecialFunctionResponseResolver
 9064              		.thumb
 9065              		.thumb_func
 9066              		.type	AcquirePumpSpecialFunctionResponseResolver, %function
 9067              	AcquirePumpSpecialFunctionResponseResolver:
 9068              	.LFB102:
2155:.\PrimeImpl.c **** 
2156:.\PrimeImpl.c **** //@Created By: HIJH
2157:.\PrimeImpl.c **** //@Date: Septembre de 2016
2158:.\PrimeImpl.c **** //Resolves the completeness for the arriving data after the SFs invocation
2159:.\PrimeImpl.c **** bool AcquirePumpSpecialFunctionResponseResolver(void *pparam, void *pbuffer, uint16 buffersize)
2160:.\PrimeImpl.c **** {
 9069              		.loc 1 2160 0
 9070              		.cfi_startproc
 9071              		@ args = 0, pretend = 0, frame = 24
 9072              		@ frame_needed = 1, uses_anonymous_args = 0
 9073 0000 90B5     		push	{r4, r7, lr}
 9074              		.cfi_def_cfa_offset 12
 9075              		.cfi_offset 4, -12
 9076              		.cfi_offset 7, -8
 9077              		.cfi_offset 14, -4
 9078 0002 87B0     		sub	sp, sp, #28
 9079              		.cfi_def_cfa_offset 40
 9080 0004 00AF     		add	r7, sp, #0
 9081              		.cfi_def_cfa_register 7
 9082 0006 F860     		str	r0, [r7, #12]
 9083 0008 B960     		str	r1, [r7, #8]
 9084 000a 1346     		mov	r3, r2
 9085 000c FB80     		strh	r3, [r7, #6]	@ movhi
2161:.\PrimeImpl.c ****     bool retval = false;
 9086              		.loc 1 2161 0
 9087 000e 0023     		movs	r3, #0
 9088 0010 FB75     		strb	r3, [r7, #23]
2162:.\PrimeImpl.c ****     static uint8 index = 0;
2163:.\PrimeImpl.c ****     //PNEAR_PUMPPTR ppump = (PNEAR_PUMPPTR)pparam;
2164:.\PrimeImpl.c ****     //Since after the third byte we can start inquiry for the message length in words (this is acco
2165:.\PrimeImpl.c ****     //that is  the reason for the number "3"
2166:.\PrimeImpl.c ****     if((PSTRCAST(pbuffer)[0 + 45*index] == 0xBA) && buffersize >= 3)
 9089              		.loc 1 2166 0
 9090 0012 434B     		ldr	r3, .L283
 9091 0014 1B78     		ldrb	r3, [r3]	@ zero_extendqisi2
 9092 0016 1A46     		mov	r2, r3
 9093 0018 1346     		mov	r3, r2
 9094 001a 5B00     		lsls	r3, r3, #1
 9095 001c 1344     		add	r3, r3, r2
 9096 001e 1A01     		lsls	r2, r3, #4
 9097 0020 D31A     		subs	r3, r2, r3
 9098 0022 1A46     		mov	r2, r3
 9099 0024 BB68     		ldr	r3, [r7, #8]
 9100 0026 1344     		add	r3, r3, r2
 9101 0028 1B78     		ldrb	r3, [r3]	@ zero_extendqisi2
 9102 002a BA2B     		cmp	r3, #186
 9103 002c 73D1     		bne	.L280
 9104              		.loc 1 2166 0 is_stmt 0 discriminator 1
 9105 002e FB88     		ldrh	r3, [r7, #6]
ARM GAS  C:\Users\RECEPC~1\AppData\Local\Temp\ccvxjDo6.s 			page 200


 9106 0030 022B     		cmp	r3, #2
 9107 0032 70D9     		bls	.L280
 9108              	.LBB47:
2167:.\PrimeImpl.c ****     {
2168:.\PrimeImpl.c ****         //char8 buff[24];
2169:.\PrimeImpl.c ****         //memcpy(buff, PSTRCAST(pbuffer), buffersize);
2170:.\PrimeImpl.c ****         uint8 msglength = (TranslateSpecialFuncionDigit(PSTRCAST(pbuffer)[1 + 45*index]) << 0x04) |
 9109              		.loc 1 2170 0 is_stmt 1
 9110 0034 3A4B     		ldr	r3, .L283
 9111 0036 1B78     		ldrb	r3, [r3]	@ zero_extendqisi2
 9112 0038 1A46     		mov	r2, r3
 9113 003a 1346     		mov	r3, r2
 9114 003c 5B00     		lsls	r3, r3, #1
 9115 003e 1344     		add	r3, r3, r2
 9116 0040 1A01     		lsls	r2, r3, #4
 9117 0042 D31A     		subs	r3, r2, r3
 9118 0044 0133     		adds	r3, r3, #1
 9119 0046 1A46     		mov	r2, r3
 9120 0048 BB68     		ldr	r3, [r7, #8]
 9121 004a 1344     		add	r3, r3, r2
 9122 004c 1B78     		ldrb	r3, [r3]	@ zero_extendqisi2
 9123 004e 1846     		mov	r0, r3
 9124 0050 FFF7FEFF 		bl	TranslateSpecialFuncionDigit
 9125 0054 0346     		mov	r3, r0
 9126 0056 1B01     		lsls	r3, r3, #4
 9127 0058 DCB2     		uxtb	r4, r3
 9128 005a 314B     		ldr	r3, .L283
 9129 005c 1B78     		ldrb	r3, [r3]	@ zero_extendqisi2
 9130 005e 1A46     		mov	r2, r3
 9131 0060 1346     		mov	r3, r2
 9132 0062 5B00     		lsls	r3, r3, #1
 9133 0064 1344     		add	r3, r3, r2
 9134 0066 1A01     		lsls	r2, r3, #4
 9135 0068 D31A     		subs	r3, r2, r3
 9136 006a 0233     		adds	r3, r3, #2
 9137 006c 1A46     		mov	r2, r3
 9138 006e BB68     		ldr	r3, [r7, #8]
 9139 0070 1344     		add	r3, r3, r2
 9140 0072 1B78     		ldrb	r3, [r3]	@ zero_extendqisi2
 9141 0074 1846     		mov	r0, r3
 9142 0076 FFF7FEFF 		bl	TranslateSpecialFuncionDigit
 9143 007a 0346     		mov	r3, r0
 9144 007c DBB2     		uxtb	r3, r3
 9145 007e 2246     		mov	r2, r4
 9146 0080 1343     		orrs	r3, r3, r2
 9147 0082 DBB2     		uxtb	r3, r3
 9148 0084 BB75     		strb	r3, [r7, #22]
2171:.\PrimeImpl.c ****         //plus 13 since there are some fixed bytes in the frame that sum that value
2172:.\PrimeImpl.c ****         //msglength must be multiplied by 2 since this length is in words instead
2173:.\PrimeImpl.c ****         //If more than 1 block is coming then the first blocks come full which means that they carr
2174:.\PrimeImpl.c ****         //the maximum frame size which is 45 bytes (13 fixed bytes + 32 bytes for the message)
2175:.\PrimeImpl.c ****         if(buffersize >= ((2*msglength + 13) + 45*index))
 9149              		.loc 1 2175 0
 9150 0086 FA88     		ldrh	r2, [r7, #6]
 9151 0088 BB7D     		ldrb	r3, [r7, #22]	@ zero_extendqisi2
 9152 008a 5B00     		lsls	r3, r3, #1
 9153 008c 03F10D01 		add	r1, r3, #13
ARM GAS  C:\Users\RECEPC~1\AppData\Local\Temp\ccvxjDo6.s 			page 201


 9154 0090 234B     		ldr	r3, .L283
 9155 0092 1B78     		ldrb	r3, [r3]	@ zero_extendqisi2
 9156 0094 1846     		mov	r0, r3
 9157 0096 0346     		mov	r3, r0
 9158 0098 5B00     		lsls	r3, r3, #1
 9159 009a 0344     		add	r3, r3, r0
 9160 009c 1801     		lsls	r0, r3, #4
 9161 009e C31A     		subs	r3, r0, r3
 9162 00a0 0B44     		add	r3, r3, r1
 9163 00a2 9A42     		cmp	r2, r3
 9164 00a4 37DB     		blt	.L280
 9165              	.LBB48:
2176:.\PrimeImpl.c ****         {
2177:.\PrimeImpl.c ****             uint8 remblocks = (TranslateSpecialFuncionDigit(PSTRCAST(pbuffer)[7 + 45*index]) << 0x0
 9166              		.loc 1 2177 0
 9167 00a6 1E4B     		ldr	r3, .L283
 9168 00a8 1B78     		ldrb	r3, [r3]	@ zero_extendqisi2
 9169 00aa 1A46     		mov	r2, r3
 9170 00ac 1346     		mov	r3, r2
 9171 00ae 5B00     		lsls	r3, r3, #1
 9172 00b0 1344     		add	r3, r3, r2
 9173 00b2 1A01     		lsls	r2, r3, #4
 9174 00b4 D31A     		subs	r3, r2, r3
 9175 00b6 0733     		adds	r3, r3, #7
 9176 00b8 1A46     		mov	r2, r3
 9177 00ba BB68     		ldr	r3, [r7, #8]
 9178 00bc 1344     		add	r3, r3, r2
 9179 00be 1B78     		ldrb	r3, [r3]	@ zero_extendqisi2
 9180 00c0 1846     		mov	r0, r3
 9181 00c2 FFF7FEFF 		bl	TranslateSpecialFuncionDigit
 9182 00c6 0346     		mov	r3, r0
 9183 00c8 1B01     		lsls	r3, r3, #4
 9184 00ca DCB2     		uxtb	r4, r3
 9185 00cc 144B     		ldr	r3, .L283
 9186 00ce 1B78     		ldrb	r3, [r3]	@ zero_extendqisi2
 9187 00d0 1A46     		mov	r2, r3
 9188 00d2 1346     		mov	r3, r2
 9189 00d4 5B00     		lsls	r3, r3, #1
 9190 00d6 1344     		add	r3, r3, r2
 9191 00d8 1A01     		lsls	r2, r3, #4
 9192 00da D31A     		subs	r3, r2, r3
 9193 00dc 0833     		adds	r3, r3, #8
 9194 00de 1A46     		mov	r2, r3
 9195 00e0 BB68     		ldr	r3, [r7, #8]
 9196 00e2 1344     		add	r3, r3, r2
 9197 00e4 1B78     		ldrb	r3, [r3]	@ zero_extendqisi2
 9198 00e6 1846     		mov	r0, r3
 9199 00e8 FFF7FEFF 		bl	TranslateSpecialFuncionDigit
 9200 00ec 0346     		mov	r3, r0
 9201 00ee DBB2     		uxtb	r3, r3
 9202 00f0 2246     		mov	r2, r4
 9203 00f2 1343     		orrs	r3, r3, r2
 9204 00f4 DBB2     		uxtb	r3, r3
 9205 00f6 7B75     		strb	r3, [r7, #21]
2178:.\PrimeImpl.c ****             if(remblocks == 0)
 9206              		.loc 1 2178 0
 9207 00f8 7B7D     		ldrb	r3, [r7, #21]	@ zero_extendqisi2
ARM GAS  C:\Users\RECEPC~1\AppData\Local\Temp\ccvxjDo6.s 			page 202


 9208 00fa 002B     		cmp	r3, #0
 9209 00fc 05D1     		bne	.L281
2179:.\PrimeImpl.c ****             {
2180:.\PrimeImpl.c ****                 index = 0;
 9210              		.loc 1 2180 0
 9211 00fe 084B     		ldr	r3, .L283
 9212 0100 0022     		movs	r2, #0
 9213 0102 1A70     		strb	r2, [r3]
2181:.\PrimeImpl.c ****                 retval = true;
 9214              		.loc 1 2181 0
 9215 0104 0123     		movs	r3, #1
 9216 0106 FB75     		strb	r3, [r7, #23]
 9217 0108 05E0     		b	.L280
 9218              	.L281:
2182:.\PrimeImpl.c ****             }else{
2183:.\PrimeImpl.c ****                 index++;
 9219              		.loc 1 2183 0
 9220 010a 054B     		ldr	r3, .L283
 9221 010c 1B78     		ldrb	r3, [r3]	@ zero_extendqisi2
 9222 010e 0133     		adds	r3, r3, #1
 9223 0110 DAB2     		uxtb	r2, r3
 9224 0112 034B     		ldr	r3, .L283
 9225 0114 1A70     		strb	r2, [r3]
 9226              	.L280:
 9227              	.LBE48:
 9228              	.LBE47:
2184:.\PrimeImpl.c ****             }
2185:.\PrimeImpl.c ****         }
2186:.\PrimeImpl.c ****     }
2187:.\PrimeImpl.c ****     return retval;
 9229              		.loc 1 2187 0
 9230 0116 FB7D     		ldrb	r3, [r7, #23]	@ zero_extendqisi2
2188:.\PrimeImpl.c **** }
 9231              		.loc 1 2188 0
 9232 0118 1846     		mov	r0, r3
 9233 011a 1C37     		adds	r7, r7, #28
 9234              		.cfi_def_cfa_offset 12
 9235 011c BD46     		mov	sp, r7
 9236              		.cfi_def_cfa_register 13
 9237              		@ sp needed
 9238 011e 90BD     		pop	{r4, r7, pc}
 9239              	.L284:
 9240              		.align	2
 9241              	.L283:
 9242 0120 01000000 		.word	index.9631
 9243              		.cfi_endproc
 9244              	.LFE102:
 9245              		.size	AcquirePumpSpecialFunctionResponseResolver, .-AcquirePumpSpecialFunctionResponseResolver
 9246              		.section	.text.PumpEnumeratorRequest,"ax",%progbits
 9247              		.align	2
 9248              		.global	PumpEnumeratorRequest
 9249              		.thumb
 9250              		.thumb_func
 9251              		.type	PumpEnumeratorRequest, %function
 9252              	PumpEnumeratorRequest:
 9253              	.LFB103:
2189:.\PrimeImpl.c **** 
ARM GAS  C:\Users\RECEPC~1\AppData\Local\Temp\ccvxjDo6.s 			page 203


2190:.\PrimeImpl.c **** //@Created By: HIJH
2191:.\PrimeImpl.c **** //@Septembre de 2016
2192:.\PrimeImpl.c **** void PumpEnumeratorRequest(LPVOID pparam)
2193:.\PrimeImpl.c **** {
 9254              		.loc 1 2193 0
 9255              		.cfi_startproc
 9256              		@ args = 0, pretend = 0, frame = 24
 9257              		@ frame_needed = 1, uses_anonymous_args = 0
 9258 0000 80B5     		push	{r7, lr}
 9259              		.cfi_def_cfa_offset 8
 9260              		.cfi_offset 7, -8
 9261              		.cfi_offset 14, -4
 9262 0002 86B0     		sub	sp, sp, #24
 9263              		.cfi_def_cfa_offset 32
 9264 0004 00AF     		add	r7, sp, #0
 9265              		.cfi_def_cfa_register 7
 9266 0006 7860     		str	r0, [r7, #4]
2194:.\PrimeImpl.c ****     PNEAR_PUMPPTR ppump = (PNEAR_PUMPPTR)pparam;
 9267              		.loc 1 2194 0
 9268 0008 7B68     		ldr	r3, [r7, #4]
 9269 000a 7B61     		str	r3, [r7, #20]
2195:.\PrimeImpl.c ****     if(ppump)
 9270              		.loc 1 2195 0
 9271 000c 7B69     		ldr	r3, [r7, #20]
 9272 000e 002B     		cmp	r3, #0
 9273 0010 23D0     		beq	.L285
 9274              	.LBB49:
2196:.\PrimeImpl.c ****     {
2197:.\PrimeImpl.c ****         uint8_t index = 0;
 9275              		.loc 1 2197 0
 9276 0012 0023     		movs	r3, #0
 9277 0014 FB74     		strb	r3, [r7, #19]
2198:.\PrimeImpl.c ****         memset(ppump->_rxbuffer, 0x00, _PUMP_RX_BUFFER_SIZE_);
 9278              		.loc 1 2198 0
 9279 0016 7B69     		ldr	r3, [r7, #20]
 9280 0018 03F5C473 		add	r3, r3, #392
 9281 001c 1846     		mov	r0, r3
 9282 001e 0021     		movs	r1, #0
 9283 0020 4FF4B472 		mov	r2, #360
 9284 0024 FFF7FEFF 		bl	memset
2199:.\PrimeImpl.c ****         PUARTMESSAGEPTR puartdisp = GetUARTMessageSlot(UART_DISPENSER);
 9285              		.loc 1 2199 0
 9286 0028 A220     		movs	r0, #162
 9287 002a FFF7FEFF 		bl	GetUARTMessageSlot
 9288 002e F860     		str	r0, [r7, #12]
2200:.\PrimeImpl.c ****         if(puartdisp)
 9289              		.loc 1 2200 0
 9290 0030 FB68     		ldr	r3, [r7, #12]
 9291 0032 002B     		cmp	r3, #0
 9292 0034 11D0     		beq	.L285
2201:.\PrimeImpl.c ****         {
2202:.\PrimeImpl.c ****             puartdisp->_messagetx[index++] = PUMP_COMMAND(PUMP_STATE_REQUEST, ppump->_pumpid);
 9293              		.loc 1 2202 0
 9294 0036 FB7C     		ldrb	r3, [r7, #19]	@ zero_extendqisi2
 9295 0038 5A1C     		adds	r2, r3, #1
 9296 003a FA74     		strb	r2, [r7, #19]
 9297 003c 1946     		mov	r1, r3
ARM GAS  C:\Users\RECEPC~1\AppData\Local\Temp\ccvxjDo6.s 			page 204


 9298 003e 7B69     		ldr	r3, [r7, #20]
 9299 0040 1B78     		ldrb	r3, [r3]	@ zero_extendqisi2
 9300 0042 03F00F03 		and	r3, r3, #15
 9301 0046 DAB2     		uxtb	r2, r3
 9302 0048 FB68     		ldr	r3, [r7, #12]
 9303 004a 0B44     		add	r3, r3, r1
 9304 004c 1A71     		strb	r2, [r3, #4]
2203:.\PrimeImpl.c ****             puartdisp->_messagelength = 1;//One byte
 9305              		.loc 1 2203 0
 9306 004e FB68     		ldr	r3, [r7, #12]
 9307 0050 0122     		movs	r2, #1
 9308 0052 5A80     		strh	r2, [r3, #2]	@ movhi
2204:.\PrimeImpl.c ****             puartdisp->_messagestate = PENDING;
 9309              		.loc 1 2204 0
 9310 0054 FB68     		ldr	r3, [r7, #12]
 9311 0056 C222     		movs	r2, #194
 9312 0058 1A70     		strb	r2, [r3]
 9313              	.L285:
 9314              	.LBE49:
2205:.\PrimeImpl.c ****         }
2206:.\PrimeImpl.c ****     }
2207:.\PrimeImpl.c **** }
 9315              		.loc 1 2207 0
 9316 005a 1837     		adds	r7, r7, #24
 9317              		.cfi_def_cfa_offset 8
 9318 005c BD46     		mov	sp, r7
 9319              		.cfi_def_cfa_register 13
 9320              		@ sp needed
 9321 005e 80BD     		pop	{r7, pc}
 9322              		.cfi_endproc
 9323              	.LFE103:
 9324              		.size	PumpEnumeratorRequest, .-PumpEnumeratorRequest
 9325              		.section	.text.AcquirePumpEnumeratorResponse,"ax",%progbits
 9326              		.align	2
 9327              		.global	AcquirePumpEnumeratorResponse
 9328              		.thumb
 9329              		.thumb_func
 9330              		.type	AcquirePumpEnumeratorResponse, %function
 9331              	AcquirePumpEnumeratorResponse:
 9332              	.LFB104:
2208:.\PrimeImpl.c **** 
2209:.\PrimeImpl.c **** //@Created By: HIJH
2210:.\PrimeImpl.c **** //@Septembre de 2016
2211:.\PrimeImpl.c **** void AcquirePumpEnumeratorResponse(LPVOID pparam)
2212:.\PrimeImpl.c **** {
 9333              		.loc 1 2212 0
 9334              		.cfi_startproc
 9335              		@ args = 0, pretend = 0, frame = 24
 9336              		@ frame_needed = 1, uses_anonymous_args = 0
 9337 0000 80B5     		push	{r7, lr}
 9338              		.cfi_def_cfa_offset 8
 9339              		.cfi_offset 7, -8
 9340              		.cfi_offset 14, -4
 9341 0002 86B0     		sub	sp, sp, #24
 9342              		.cfi_def_cfa_offset 32
 9343 0004 00AF     		add	r7, sp, #0
 9344              		.cfi_def_cfa_register 7
ARM GAS  C:\Users\RECEPC~1\AppData\Local\Temp\ccvxjDo6.s 			page 205


 9345 0006 7860     		str	r0, [r7, #4]
2213:.\PrimeImpl.c ****     AcquirePumpStateResponse(pparam);
 9346              		.loc 1 2213 0
 9347 0008 7868     		ldr	r0, [r7, #4]
 9348 000a FFF7FEFF 		bl	AcquirePumpStateResponse
2214:.\PrimeImpl.c ****     PPUMPTRANSACTIONJOBCONTEXTPTR pjob = (PPUMPTRANSACTIONJOBCONTEXTPTR)pparam;
 9349              		.loc 1 2214 0
 9350 000e 7B68     		ldr	r3, [r7, #4]
 9351 0010 7B61     		str	r3, [r7, #20]
2215:.\PrimeImpl.c ****     if(pjob->_ppump->_datacontainer._var0 < 0xF)
 9352              		.loc 1 2215 0
 9353 0012 7B69     		ldr	r3, [r7, #20]
 9354 0014 DB69     		ldr	r3, [r3, #28]
 9355 0016 93F8383B 		ldrb	r3, [r3, #2872]
 9356 001a DBB2     		uxtb	r3, r3
 9357 001c 0E2B     		cmp	r3, #14
 9358 001e 00F2FA80 		bhi	.L288
2216:.\PrimeImpl.c ****     {
2217:.\PrimeImpl.c ****         switch(pjob->_ppump->_datacontainer._var1)
 9359              		.loc 1 2217 0
 9360 0022 7B69     		ldr	r3, [r7, #20]
 9361 0024 DB69     		ldr	r3, [r3, #28]
 9362 0026 93F8393B 		ldrb	r3, [r3, #2873]
 9363 002a DBB2     		uxtb	r3, r3
 9364 002c 032B     		cmp	r3, #3
 9365 002e 00F2C580 		bhi	.L289
 9366 0032 01A2     		adr	r2, .L291
 9367 0034 52F823F0 		ldr	pc, [r2, r3, lsl #2]
 9368              		.p2align 2
 9369              	.L291:
 9370 0038 49000000 		.word	.L290+1
 9371 003c B5000000 		.word	.L292+1
 9372 0040 21010000 		.word	.L293+1
 9373 0044 8D010000 		.word	.L294+1
 9374              		.p2align 1
 9375              	.L290:
 9376              	.LBB50:
2218:.\PrimeImpl.c ****         {
2219:.\PrimeImpl.c ****             case 0:
2220:.\PrimeImpl.c ****             {
2221:.\PrimeImpl.c ****                 
2222:.\PrimeImpl.c ****                 ClearEepromBuffer();
 9377              		.loc 1 2222 0
 9378 0048 FFF7FEFF 		bl	ClearEepromBuffer
2223:.\PrimeImpl.c ****                 //Cleanup of the pump identifier in order to start the enumeration procedure
2224:.\PrimeImpl.c ****                 LoadEepromPage(EEPROM_DISPENSER_PUMP1_LAYOUT_PAGE);
 9379              		.loc 1 2224 0
 9380 004c 4FF40070 		mov	r0, #512
 9381 0050 FFF7FEFF 		bl	LoadEepromPage
2225:.\PrimeImpl.c ****                 GetEepromBuffer()[0] = pjob->_ppump->_pumpid;
 9382              		.loc 1 2225 0
 9383 0054 FFF7FEFF 		bl	GetEepromBuffer
 9384 0058 0246     		mov	r2, r0
 9385 005a 7B69     		ldr	r3, [r7, #20]
 9386 005c DB69     		ldr	r3, [r3, #28]
 9387 005e 1B78     		ldrb	r3, [r3]	@ zero_extendqisi2
 9388 0060 1370     		strb	r3, [r2]
ARM GAS  C:\Users\RECEPC~1\AppData\Local\Temp\ccvxjDo6.s 			page 206


2226:.\PrimeImpl.c ****                 StoreEepromPage(EEPROM_DISPENSER_PUMP1_LAYOUT_PAGE);
 9389              		.loc 1 2226 0
 9390 0062 4FF40070 		mov	r0, #512
 9391 0066 FFF7FEFF 		bl	StoreEepromPage
2227:.\PrimeImpl.c **** 
2228:.\PrimeImpl.c ****                 uint8 var0 = pjob->_ppump->_datacontainer._var0;
 9392              		.loc 1 2228 0
 9393 006a 7B69     		ldr	r3, [r7, #20]
 9394 006c DB69     		ldr	r3, [r3, #28]
 9395 006e 93F8383B 		ldrb	r3, [r3, #2872]
 9396 0072 FB74     		strb	r3, [r7, #19]
2229:.\PrimeImpl.c ****                 uint8 var1 = pjob->_ppump->_datacontainer._var1;
 9397              		.loc 1 2229 0
 9398 0074 7B69     		ldr	r3, [r7, #20]
 9399 0076 DB69     		ldr	r3, [r3, #28]
 9400 0078 93F8393B 		ldrb	r3, [r3, #2873]
 9401 007c BB74     		strb	r3, [r7, #18]
2230:.\PrimeImpl.c ****                 pjob->_ppump = &_g_pumps[var1 + 1];
 9402              		.loc 1 2230 0
 9403 007e BB7C     		ldrb	r3, [r7, #18]	@ zero_extendqisi2
 9404 0080 0133     		adds	r3, r3, #1
 9405 0082 40F69832 		movw	r2, #2968
 9406 0086 02FB03F3 		mul	r3, r2, r3
 9407 008a 694A     		ldr	r2, .L298
 9408 008c 1A44     		add	r2, r2, r3
 9409 008e 7B69     		ldr	r3, [r7, #20]
 9410 0090 DA61     		str	r2, [r3, #28]
2231:.\PrimeImpl.c ****                 pjob->_ppump->_datacontainer._var1 = var1;
 9411              		.loc 1 2231 0
 9412 0092 7B69     		ldr	r3, [r7, #20]
 9413 0094 DB69     		ldr	r3, [r3, #28]
 9414 0096 BA7C     		ldrb	r2, [r7, #18]
 9415 0098 83F8392B 		strb	r2, [r3, #2873]
2232:.\PrimeImpl.c ****                 pjob->_ppump->_datacontainer._var0 = var0;
 9416              		.loc 1 2232 0
 9417 009c 7B69     		ldr	r3, [r7, #20]
 9418 009e DB69     		ldr	r3, [r3, #28]
 9419 00a0 FA7C     		ldrb	r2, [r7, #19]
 9420 00a2 83F8382B 		strb	r2, [r3, #2872]
2233:.\PrimeImpl.c ****                 _g_dispenserlayoutinfo._numpositions++;
 9421              		.loc 1 2233 0
 9422 00a6 634B     		ldr	r3, .L298+4
 9423 00a8 9B78     		ldrb	r3, [r3, #2]	@ zero_extendqisi2
 9424 00aa 0133     		adds	r3, r3, #1
 9425 00ac DAB2     		uxtb	r2, r3
 9426 00ae 614B     		ldr	r3, .L298+4
 9427 00b0 9A70     		strb	r2, [r3, #2]
2234:.\PrimeImpl.c ****                 
2235:.\PrimeImpl.c ****                 break;
 9428              		.loc 1 2235 0
 9429 00b2 83E0     		b	.L289
 9430              	.L292:
 9431              	.LBE50:
 9432              	.LBB51:
2236:.\PrimeImpl.c ****             }
2237:.\PrimeImpl.c ****             case 1:
2238:.\PrimeImpl.c ****             {
ARM GAS  C:\Users\RECEPC~1\AppData\Local\Temp\ccvxjDo6.s 			page 207


2239:.\PrimeImpl.c ****                 
2240:.\PrimeImpl.c ****                 ClearEepromBuffer();
 9433              		.loc 1 2240 0
 9434 00b4 FFF7FEFF 		bl	ClearEepromBuffer
2241:.\PrimeImpl.c ****                 //Cleanup of the pump identifier in order to start the enumeration procedure
2242:.\PrimeImpl.c ****                 LoadEepromPage(EEPROM_DISPENSER_PUMP2_LAYOUT_PAGE);
 9435              		.loc 1 2242 0
 9436 00b8 4FF41070 		mov	r0, #576
 9437 00bc FFF7FEFF 		bl	LoadEepromPage
2243:.\PrimeImpl.c ****                 GetEepromBuffer()[0] = pjob->_ppump->_pumpid;
 9438              		.loc 1 2243 0
 9439 00c0 FFF7FEFF 		bl	GetEepromBuffer
 9440 00c4 0246     		mov	r2, r0
 9441 00c6 7B69     		ldr	r3, [r7, #20]
 9442 00c8 DB69     		ldr	r3, [r3, #28]
 9443 00ca 1B78     		ldrb	r3, [r3]	@ zero_extendqisi2
 9444 00cc 1370     		strb	r3, [r2]
2244:.\PrimeImpl.c ****                 StoreEepromPage(EEPROM_DISPENSER_PUMP2_LAYOUT_PAGE);
 9445              		.loc 1 2244 0
 9446 00ce 4FF41070 		mov	r0, #576
 9447 00d2 FFF7FEFF 		bl	StoreEepromPage
2245:.\PrimeImpl.c ****                 
2246:.\PrimeImpl.c ****                 uint8 var0 = pjob->_ppump->_datacontainer._var0;
 9448              		.loc 1 2246 0
 9449 00d6 7B69     		ldr	r3, [r7, #20]
 9450 00d8 DB69     		ldr	r3, [r3, #28]
 9451 00da 93F8383B 		ldrb	r3, [r3, #2872]
 9452 00de 7B74     		strb	r3, [r7, #17]
2247:.\PrimeImpl.c ****                 uint8 var1 = pjob->_ppump->_datacontainer._var1;
 9453              		.loc 1 2247 0
 9454 00e0 7B69     		ldr	r3, [r7, #20]
 9455 00e2 DB69     		ldr	r3, [r3, #28]
 9456 00e4 93F8393B 		ldrb	r3, [r3, #2873]
 9457 00e8 3B74     		strb	r3, [r7, #16]
2248:.\PrimeImpl.c ****                 pjob->_ppump = &_g_pumps[var1 + 1];
 9458              		.loc 1 2248 0
 9459 00ea 3B7C     		ldrb	r3, [r7, #16]	@ zero_extendqisi2
 9460 00ec 0133     		adds	r3, r3, #1
 9461 00ee 40F69832 		movw	r2, #2968
 9462 00f2 02FB03F3 		mul	r3, r2, r3
 9463 00f6 4E4A     		ldr	r2, .L298
 9464 00f8 1A44     		add	r2, r2, r3
 9465 00fa 7B69     		ldr	r3, [r7, #20]
 9466 00fc DA61     		str	r2, [r3, #28]
2249:.\PrimeImpl.c ****                 pjob->_ppump->_datacontainer._var1 = var1;
 9467              		.loc 1 2249 0
 9468 00fe 7B69     		ldr	r3, [r7, #20]
 9469 0100 DB69     		ldr	r3, [r3, #28]
 9470 0102 3A7C     		ldrb	r2, [r7, #16]
 9471 0104 83F8392B 		strb	r2, [r3, #2873]
2250:.\PrimeImpl.c ****                 pjob->_ppump->_datacontainer._var0 = var0;
 9472              		.loc 1 2250 0
 9473 0108 7B69     		ldr	r3, [r7, #20]
 9474 010a DB69     		ldr	r3, [r3, #28]
 9475 010c 7A7C     		ldrb	r2, [r7, #17]
 9476 010e 83F8382B 		strb	r2, [r3, #2872]
2251:.\PrimeImpl.c ****                 _g_dispenserlayoutinfo._numpositions++;
ARM GAS  C:\Users\RECEPC~1\AppData\Local\Temp\ccvxjDo6.s 			page 208


 9477              		.loc 1 2251 0
 9478 0112 484B     		ldr	r3, .L298+4
 9479 0114 9B78     		ldrb	r3, [r3, #2]	@ zero_extendqisi2
 9480 0116 0133     		adds	r3, r3, #1
 9481 0118 DAB2     		uxtb	r2, r3
 9482 011a 464B     		ldr	r3, .L298+4
 9483 011c 9A70     		strb	r2, [r3, #2]
2252:.\PrimeImpl.c ****                 
2253:.\PrimeImpl.c ****                 break;
 9484              		.loc 1 2253 0
 9485 011e 4DE0     		b	.L289
 9486              	.L293:
 9487              	.LBE51:
 9488              	.LBB52:
2254:.\PrimeImpl.c ****             }
2255:.\PrimeImpl.c ****             case 2:
2256:.\PrimeImpl.c ****             {
2257:.\PrimeImpl.c ****                 
2258:.\PrimeImpl.c ****                 ClearEepromBuffer();
 9489              		.loc 1 2258 0
 9490 0120 FFF7FEFF 		bl	ClearEepromBuffer
2259:.\PrimeImpl.c ****                 //Cleanup of the pump identifier in order to start the enumeration procedure
2260:.\PrimeImpl.c ****                 LoadEepromPage(EEPROM_DISPENSER_PUMP3_LAYOUT_PAGE);
 9491              		.loc 1 2260 0
 9492 0124 4FF42070 		mov	r0, #640
 9493 0128 FFF7FEFF 		bl	LoadEepromPage
2261:.\PrimeImpl.c ****                 GetEepromBuffer()[0] = pjob->_ppump->_pumpid;
 9494              		.loc 1 2261 0
 9495 012c FFF7FEFF 		bl	GetEepromBuffer
 9496 0130 0246     		mov	r2, r0
 9497 0132 7B69     		ldr	r3, [r7, #20]
 9498 0134 DB69     		ldr	r3, [r3, #28]
 9499 0136 1B78     		ldrb	r3, [r3]	@ zero_extendqisi2
 9500 0138 1370     		strb	r3, [r2]
2262:.\PrimeImpl.c ****                 StoreEepromPage(EEPROM_DISPENSER_PUMP3_LAYOUT_PAGE);
 9501              		.loc 1 2262 0
 9502 013a 4FF42070 		mov	r0, #640
 9503 013e FFF7FEFF 		bl	StoreEepromPage
2263:.\PrimeImpl.c ****                 
2264:.\PrimeImpl.c ****                 uint8 var0 = pjob->_ppump->_datacontainer._var0;
 9504              		.loc 1 2264 0
 9505 0142 7B69     		ldr	r3, [r7, #20]
 9506 0144 DB69     		ldr	r3, [r3, #28]
 9507 0146 93F8383B 		ldrb	r3, [r3, #2872]
 9508 014a FB73     		strb	r3, [r7, #15]
2265:.\PrimeImpl.c ****                 uint8 var1 = pjob->_ppump->_datacontainer._var1;
 9509              		.loc 1 2265 0
 9510 014c 7B69     		ldr	r3, [r7, #20]
 9511 014e DB69     		ldr	r3, [r3, #28]
 9512 0150 93F8393B 		ldrb	r3, [r3, #2873]
 9513 0154 BB73     		strb	r3, [r7, #14]
2266:.\PrimeImpl.c ****                 pjob->_ppump = &_g_pumps[var1 + 1];
 9514              		.loc 1 2266 0
 9515 0156 BB7B     		ldrb	r3, [r7, #14]	@ zero_extendqisi2
 9516 0158 0133     		adds	r3, r3, #1
 9517 015a 40F69832 		movw	r2, #2968
 9518 015e 02FB03F3 		mul	r3, r2, r3
ARM GAS  C:\Users\RECEPC~1\AppData\Local\Temp\ccvxjDo6.s 			page 209


 9519 0162 334A     		ldr	r2, .L298
 9520 0164 1A44     		add	r2, r2, r3
 9521 0166 7B69     		ldr	r3, [r7, #20]
 9522 0168 DA61     		str	r2, [r3, #28]
2267:.\PrimeImpl.c ****                 pjob->_ppump->_datacontainer._var1 = var1;
 9523              		.loc 1 2267 0
 9524 016a 7B69     		ldr	r3, [r7, #20]
 9525 016c DB69     		ldr	r3, [r3, #28]
 9526 016e BA7B     		ldrb	r2, [r7, #14]
 9527 0170 83F8392B 		strb	r2, [r3, #2873]
2268:.\PrimeImpl.c ****                 pjob->_ppump->_datacontainer._var0 = var0;
 9528              		.loc 1 2268 0
 9529 0174 7B69     		ldr	r3, [r7, #20]
 9530 0176 DB69     		ldr	r3, [r3, #28]
 9531 0178 FA7B     		ldrb	r2, [r7, #15]
 9532 017a 83F8382B 		strb	r2, [r3, #2872]
2269:.\PrimeImpl.c ****                 _g_dispenserlayoutinfo._numpositions++;
 9533              		.loc 1 2269 0
 9534 017e 2D4B     		ldr	r3, .L298+4
 9535 0180 9B78     		ldrb	r3, [r3, #2]	@ zero_extendqisi2
 9536 0182 0133     		adds	r3, r3, #1
 9537 0184 DAB2     		uxtb	r2, r3
 9538 0186 2B4B     		ldr	r3, .L298+4
 9539 0188 9A70     		strb	r2, [r3, #2]
2270:.\PrimeImpl.c ****                 
2271:.\PrimeImpl.c ****                 break;
 9540              		.loc 1 2271 0
 9541 018a 17E0     		b	.L289
 9542              	.L294:
 9543              	.LBE52:
2272:.\PrimeImpl.c ****             }
2273:.\PrimeImpl.c ****             case 3:
2274:.\PrimeImpl.c ****             {
2275:.\PrimeImpl.c ****                 
2276:.\PrimeImpl.c ****                 ClearEepromBuffer();
 9544              		.loc 1 2276 0
 9545 018c FFF7FEFF 		bl	ClearEepromBuffer
2277:.\PrimeImpl.c ****                 //Cleanup of the pump identifier in order to start the enumeration procedure
2278:.\PrimeImpl.c ****                 LoadEepromPage(EEPROM_DISPENSER_PUMP4_LAYOUT_PAGE);
 9546              		.loc 1 2278 0
 9547 0190 4FF43070 		mov	r0, #704
 9548 0194 FFF7FEFF 		bl	LoadEepromPage
2279:.\PrimeImpl.c ****                 GetEepromBuffer()[0] = pjob->_ppump->_pumpid;                
 9549              		.loc 1 2279 0
 9550 0198 FFF7FEFF 		bl	GetEepromBuffer
 9551 019c 0246     		mov	r2, r0
 9552 019e 7B69     		ldr	r3, [r7, #20]
 9553 01a0 DB69     		ldr	r3, [r3, #28]
 9554 01a2 1B78     		ldrb	r3, [r3]	@ zero_extendqisi2
 9555 01a4 1370     		strb	r3, [r2]
2280:.\PrimeImpl.c ****                 StoreEepromPage(EEPROM_DISPENSER_PUMP4_LAYOUT_PAGE);
 9556              		.loc 1 2280 0
 9557 01a6 4FF43070 		mov	r0, #704
 9558 01aa FFF7FEFF 		bl	StoreEepromPage
2281:.\PrimeImpl.c ****                 _g_dispenserlayoutinfo._numpositions++;
 9559              		.loc 1 2281 0
 9560 01ae 214B     		ldr	r3, .L298+4
ARM GAS  C:\Users\RECEPC~1\AppData\Local\Temp\ccvxjDo6.s 			page 210


 9561 01b0 9B78     		ldrb	r3, [r3, #2]	@ zero_extendqisi2
 9562 01b2 0133     		adds	r3, r3, #1
 9563 01b4 DAB2     		uxtb	r2, r3
 9564 01b6 1F4B     		ldr	r3, .L298+4
 9565 01b8 9A70     		strb	r2, [r3, #2]
2282:.\PrimeImpl.c ****                 
2283:.\PrimeImpl.c ****                 break;
 9566              		.loc 1 2283 0
 9567 01ba 00BF     		nop
 9568              	.L289:
2284:.\PrimeImpl.c ****             }
2285:.\PrimeImpl.c ****         }
2286:.\PrimeImpl.c ****         pjob->_ppump->_datacontainer._var1++;
 9569              		.loc 1 2286 0
 9570 01bc 7B69     		ldr	r3, [r7, #20]
 9571 01be DB69     		ldr	r3, [r3, #28]
 9572 01c0 93F8392B 		ldrb	r2, [r3, #2873]
 9573 01c4 D2B2     		uxtb	r2, r2
 9574 01c6 0132     		adds	r2, r2, #1
 9575 01c8 D2B2     		uxtb	r2, r2
 9576 01ca 83F8392B 		strb	r2, [r3, #2873]
2287:.\PrimeImpl.c ****         if(pjob->_ppump->_datacontainer._var1 < _MAX_NUMBER_OF_PUMPS_)
 9577              		.loc 1 2287 0
 9578 01ce 7B69     		ldr	r3, [r7, #20]
 9579 01d0 DB69     		ldr	r3, [r3, #28]
 9580 01d2 93F8393B 		ldrb	r3, [r3, #2873]
 9581 01d6 DBB2     		uxtb	r3, r3
 9582 01d8 032B     		cmp	r3, #3
 9583 01da 11D8     		bhi	.L295
2288:.\PrimeImpl.c ****         {
2289:.\PrimeImpl.c ****             pjob->_ppump->_datacontainer._var0++;
 9584              		.loc 1 2289 0
 9585 01dc 7B69     		ldr	r3, [r7, #20]
 9586 01de DB69     		ldr	r3, [r3, #28]
 9587 01e0 93F8382B 		ldrb	r2, [r3, #2872]
 9588 01e4 D2B2     		uxtb	r2, r2
 9589 01e6 0132     		adds	r2, r2, #1
 9590 01e8 D2B2     		uxtb	r2, r2
 9591 01ea 83F8382B 		strb	r2, [r3, #2872]
2290:.\PrimeImpl.c ****             pjob->_ppump->_pumpid = pjob->_ppump->_datacontainer._var0;
 9592              		.loc 1 2290 0
 9593 01ee 7B69     		ldr	r3, [r7, #20]
 9594 01f0 DB69     		ldr	r3, [r3, #28]
 9595 01f2 7A69     		ldr	r2, [r7, #20]
 9596 01f4 D269     		ldr	r2, [r2, #28]
 9597 01f6 92F8382B 		ldrb	r2, [r2, #2872]
 9598 01fa D2B2     		uxtb	r2, r2
 9599 01fc 1A70     		strb	r2, [r3]
 9600 01fe 14E0     		b	.L287
 9601              	.L295:
2291:.\PrimeImpl.c ****         }else{
2292:.\PrimeImpl.c ****             pjob->_reenqueue = false;
 9602              		.loc 1 2292 0
 9603 0200 7B69     		ldr	r3, [r7, #20]
 9604 0202 0022     		movs	r2, #0
 9605 0204 1A70     		strb	r2, [r3]
2293:.\PrimeImpl.c ****             
ARM GAS  C:\Users\RECEPC~1\AppData\Local\Temp\ccvxjDo6.s 			page 211


2294:.\PrimeImpl.c ****             //Chance for any extra initialization
2295:.\PrimeImpl.c ****             if(_g_ptractprogramming == PNEAR_NULLPTR)
 9606              		.loc 1 2295 0
 9607 0206 0C4B     		ldr	r3, .L298+8
 9608 0208 1B68     		ldr	r3, [r3]
 9609 020a 002B     		cmp	r3, #0
 9610 020c 0DD1     		bne	.L287
2296:.\PrimeImpl.c ****                 _g_ptractprogramming = PrimeActivateProgramming;
 9611              		.loc 1 2296 0
 9612 020e 0A4B     		ldr	r3, .L298+8
 9613 0210 0A4A     		ldr	r2, .L298+12
 9614 0212 1A60     		str	r2, [r3]
 9615 0214 09E0     		b	.L287
 9616              	.L288:
2297:.\PrimeImpl.c ****         }
2298:.\PrimeImpl.c ****         
2299:.\PrimeImpl.c ****     }else{
2300:.\PrimeImpl.c ****         pjob->_reenqueue = false;
 9617              		.loc 1 2300 0
 9618 0216 7B69     		ldr	r3, [r7, #20]
 9619 0218 0022     		movs	r2, #0
 9620 021a 1A70     		strb	r2, [r3]
2301:.\PrimeImpl.c ****         
2302:.\PrimeImpl.c ****         //Chance for any extra initialization
2303:.\PrimeImpl.c ****         if(_g_ptractprogramming == PNEAR_NULLPTR)
 9621              		.loc 1 2303 0
 9622 021c 064B     		ldr	r3, .L298+8
 9623 021e 1B68     		ldr	r3, [r3]
 9624 0220 002B     		cmp	r3, #0
 9625 0222 02D1     		bne	.L287
2304:.\PrimeImpl.c ****             _g_ptractprogramming = PrimeActivateProgramming;
 9626              		.loc 1 2304 0
 9627 0224 044B     		ldr	r3, .L298+8
 9628 0226 054A     		ldr	r2, .L298+12
 9629 0228 1A60     		str	r2, [r3]
 9630              	.L287:
2305:.\PrimeImpl.c ****     }
2306:.\PrimeImpl.c **** }
 9631              		.loc 1 2306 0
 9632 022a 1837     		adds	r7, r7, #24
 9633              		.cfi_def_cfa_offset 8
 9634 022c BD46     		mov	sp, r7
 9635              		.cfi_def_cfa_register 13
 9636              		@ sp needed
 9637 022e 80BD     		pop	{r7, pc}
 9638              	.L299:
 9639              		.align	2
 9640              	.L298:
 9641 0230 00000000 		.word	_g_pumps
 9642 0234 00000000 		.word	_g_dispenserlayoutinfo
 9643 0238 00000000 		.word	_g_ptractprogramming
 9644 023c 00000000 		.word	PrimeActivateProgramming
 9645              		.cfi_endproc
 9646              	.LFE104:
 9647              		.size	AcquirePumpEnumeratorResponse, .-AcquirePumpEnumeratorResponse
 9648              		.section	.text.PumpEnumeratorTimeout,"ax",%progbits
 9649              		.align	2
ARM GAS  C:\Users\RECEPC~1\AppData\Local\Temp\ccvxjDo6.s 			page 212


 9650              		.global	PumpEnumeratorTimeout
 9651              		.thumb
 9652              		.thumb_func
 9653              		.type	PumpEnumeratorTimeout, %function
 9654              	PumpEnumeratorTimeout:
 9655              	.LFB105:
2307:.\PrimeImpl.c **** 
2308:.\PrimeImpl.c **** //@Created By: HIJH
2309:.\PrimeImpl.c **** //@Septembre de 2016
2310:.\PrimeImpl.c **** void PumpEnumeratorTimeout(void *pparam)
2311:.\PrimeImpl.c **** {
 9656              		.loc 1 2311 0
 9657              		.cfi_startproc
 9658              		@ args = 0, pretend = 0, frame = 16
 9659              		@ frame_needed = 1, uses_anonymous_args = 0
 9660              		@ link register save eliminated.
 9661 0000 80B4     		push	{r7}
 9662              		.cfi_def_cfa_offset 4
 9663              		.cfi_offset 7, -4
 9664 0002 85B0     		sub	sp, sp, #20
 9665              		.cfi_def_cfa_offset 24
 9666 0004 00AF     		add	r7, sp, #0
 9667              		.cfi_def_cfa_register 7
 9668 0006 7860     		str	r0, [r7, #4]
2312:.\PrimeImpl.c ****     PPUMPTRANSACTIONJOBCONTEXTPTR pjob = (PPUMPTRANSACTIONJOBCONTEXTPTR)pparam;
 9669              		.loc 1 2312 0
 9670 0008 7B68     		ldr	r3, [r7, #4]
 9671 000a FB60     		str	r3, [r7, #12]
2313:.\PrimeImpl.c ****     //_var0 holds the iterator index that goes from 0x0:pump16 to 0xF:pump15
2314:.\PrimeImpl.c ****     if(pjob->_ppump->_datacontainer._var0 < 0x10)
 9672              		.loc 1 2314 0
 9673 000c FB68     		ldr	r3, [r7, #12]
 9674 000e DB69     		ldr	r3, [r3, #28]
 9675 0010 93F8383B 		ldrb	r3, [r3, #2872]
 9676 0014 DBB2     		uxtb	r3, r3
 9677 0016 0F2B     		cmp	r3, #15
 9678 0018 14D8     		bhi	.L301
2315:.\PrimeImpl.c ****     {
2316:.\PrimeImpl.c ****         pjob->_retriescounter = 0;
 9679              		.loc 1 2316 0
 9680 001a FB68     		ldr	r3, [r7, #12]
 9681 001c 0022     		movs	r2, #0
 9682 001e DA81     		strh	r2, [r3, #14]	@ movhi
2317:.\PrimeImpl.c ****         pjob->_ppump->_datacontainer._var0++;
 9683              		.loc 1 2317 0
 9684 0020 FB68     		ldr	r3, [r7, #12]
 9685 0022 DB69     		ldr	r3, [r3, #28]
 9686 0024 93F8382B 		ldrb	r2, [r3, #2872]
 9687 0028 D2B2     		uxtb	r2, r2
 9688 002a 0132     		adds	r2, r2, #1
 9689 002c D2B2     		uxtb	r2, r2
 9690 002e 83F8382B 		strb	r2, [r3, #2872]
2318:.\PrimeImpl.c ****         pjob->_ppump->_pumpid = pjob->_ppump->_datacontainer._var0;
 9691              		.loc 1 2318 0
 9692 0032 FB68     		ldr	r3, [r7, #12]
 9693 0034 DB69     		ldr	r3, [r3, #28]
 9694 0036 FA68     		ldr	r2, [r7, #12]
ARM GAS  C:\Users\RECEPC~1\AppData\Local\Temp\ccvxjDo6.s 			page 213


 9695 0038 D269     		ldr	r2, [r2, #28]
 9696 003a 92F8382B 		ldrb	r2, [r2, #2872]
 9697 003e D2B2     		uxtb	r2, r2
 9698 0040 1A70     		strb	r2, [r3]
 9699 0042 09E0     		b	.L300
 9700              	.L301:
2319:.\PrimeImpl.c ****     }else{
2320:.\PrimeImpl.c ****         pjob->_reenqueue = false;
 9701              		.loc 1 2320 0
 9702 0044 FB68     		ldr	r3, [r7, #12]
 9703 0046 0022     		movs	r2, #0
 9704 0048 1A70     		strb	r2, [r3]
2321:.\PrimeImpl.c ****         
2322:.\PrimeImpl.c ****         //Chance for any extra initialization
2323:.\PrimeImpl.c ****         if(_g_ptractprogramming == PNEAR_NULLPTR)
 9705              		.loc 1 2323 0
 9706 004a 064B     		ldr	r3, .L303
 9707 004c 1B68     		ldr	r3, [r3]
 9708 004e 002B     		cmp	r3, #0
 9709 0050 02D1     		bne	.L300
2324:.\PrimeImpl.c ****             _g_ptractprogramming = PrimeActivateProgramming;
 9710              		.loc 1 2324 0
 9711 0052 044B     		ldr	r3, .L303
 9712 0054 044A     		ldr	r2, .L303+4
 9713 0056 1A60     		str	r2, [r3]
 9714              	.L300:
2325:.\PrimeImpl.c ****     }
2326:.\PrimeImpl.c **** }
 9715              		.loc 1 2326 0
 9716 0058 1437     		adds	r7, r7, #20
 9717              		.cfi_def_cfa_offset 4
 9718 005a BD46     		mov	sp, r7
 9719              		.cfi_def_cfa_register 13
 9720              		@ sp needed
 9721 005c 5DF8047B 		ldr	r7, [sp], #4
 9722              		.cfi_restore 7
 9723              		.cfi_def_cfa_offset 0
 9724 0060 7047     		bx	lr
 9725              	.L304:
 9726 0062 00BF     		.align	2
 9727              	.L303:
 9728 0064 00000000 		.word	_g_ptractprogramming
 9729 0068 00000000 		.word	PrimeActivateProgramming
 9730              		.cfi_endproc
 9731              	.LFE105:
 9732              		.size	PumpEnumeratorTimeout, .-PumpEnumeratorTimeout
 9733              		.section	.text.AcquirePumpTotalsResponseResolver,"ax",%progbits
 9734              		.align	2
 9735              		.global	AcquirePumpTotalsResponseResolver
 9736              		.thumb
 9737              		.thumb_func
 9738              		.type	AcquirePumpTotalsResponseResolver, %function
 9739              	AcquirePumpTotalsResponseResolver:
 9740              	.LFB106:
2327:.\PrimeImpl.c **** 
2328:.\PrimeImpl.c **** //@Created By: HIJH
2329:.\PrimeImpl.c **** //@Septembre de 2016
ARM GAS  C:\Users\RECEPC~1\AppData\Local\Temp\ccvxjDo6.s 			page 214


2330:.\PrimeImpl.c **** bool AcquirePumpTotalsResponseResolver(void *pparam, void *pbuffer, uint16 buffersize)
2331:.\PrimeImpl.c **** {
 9741              		.loc 1 2331 0
 9742              		.cfi_startproc
 9743              		@ args = 0, pretend = 0, frame = 24
 9744              		@ frame_needed = 1, uses_anonymous_args = 0
 9745              		@ link register save eliminated.
 9746 0000 80B4     		push	{r7}
 9747              		.cfi_def_cfa_offset 4
 9748              		.cfi_offset 7, -4
 9749 0002 87B0     		sub	sp, sp, #28
 9750              		.cfi_def_cfa_offset 32
 9751 0004 00AF     		add	r7, sp, #0
 9752              		.cfi_def_cfa_register 7
 9753 0006 F860     		str	r0, [r7, #12]
 9754 0008 B960     		str	r1, [r7, #8]
 9755 000a 1346     		mov	r3, r2
 9756 000c FB80     		strh	r3, [r7, #6]	@ movhi
2332:.\PrimeImpl.c ****     bool retval = false;
 9757              		.loc 1 2332 0
 9758 000e 0023     		movs	r3, #0
 9759 0010 FB75     		strb	r3, [r7, #23]
2333:.\PrimeImpl.c ****     PNEAR_PUMPPTR ppump = (PNEAR_PUMPPTR)pparam;
 9760              		.loc 1 2333 0
 9761 0012 FB68     		ldr	r3, [r7, #12]
 9762 0014 3B61     		str	r3, [r7, #16]
2334:.\PrimeImpl.c ****     switch(ppump->_pumpindex)
 9763              		.loc 1 2334 0
 9764 0016 3B69     		ldr	r3, [r7, #16]
 9765 0018 5B78     		ldrb	r3, [r3, #1]	@ zero_extendqisi2
 9766 001a 032B     		cmp	r3, #3
 9767 001c 42D8     		bhi	.L306
 9768 001e 01A2     		adr	r2, .L308
 9769 0020 52F823F0 		ldr	pc, [r2, r3, lsl #2]
 9770              		.p2align 2
 9771              	.L308:
 9772 0024 35000000 		.word	.L307+1
 9773 0028 51000000 		.word	.L309+1
 9774 002c 6D000000 		.word	.L310+1
 9775 0030 89000000 		.word	.L311+1
 9776              		.p2align 1
 9777              	.L307:
2335:.\PrimeImpl.c ****     {
2336:.\PrimeImpl.c ****         case 0x00:
2337:.\PrimeImpl.c ****             retval = (buffersize >= (_g_dispenserlayoutinfo._hosesposition1*_PUMP_TOTALS_BUFFER_SHI
 9778              		.loc 1 2337 0
 9779 0034 FA88     		ldrh	r2, [r7, #6]
 9780 0036 1F4B     		ldr	r3, .L313
 9781 0038 DB78     		ldrb	r3, [r3, #3]	@ zero_extendqisi2
 9782 003a 1946     		mov	r1, r3
 9783 003c 2A23     		movs	r3, #42
 9784 003e 03FB01F3 		mul	r3, r3, r1
 9785 0042 0433     		adds	r3, r3, #4
 9786 0044 9A42     		cmp	r2, r3
 9787 0046 ACBF     		ite	ge
 9788 0048 0123     		movge	r3, #1
 9789 004a 0023     		movlt	r3, #0
ARM GAS  C:\Users\RECEPC~1\AppData\Local\Temp\ccvxjDo6.s 			page 215


 9790 004c FB75     		strb	r3, [r7, #23]
2338:.\PrimeImpl.c ****         break;
 9791              		.loc 1 2338 0
 9792 004e 29E0     		b	.L306
 9793              	.L309:
2339:.\PrimeImpl.c ****         case 0x01:
2340:.\PrimeImpl.c ****             retval = (buffersize >= (_g_dispenserlayoutinfo._hosesposition2*_PUMP_TOTALS_BUFFER_SHI
 9794              		.loc 1 2340 0
 9795 0050 FA88     		ldrh	r2, [r7, #6]
 9796 0052 184B     		ldr	r3, .L313
 9797 0054 1B79     		ldrb	r3, [r3, #4]	@ zero_extendqisi2
 9798 0056 1946     		mov	r1, r3
 9799 0058 2A23     		movs	r3, #42
 9800 005a 03FB01F3 		mul	r3, r3, r1
 9801 005e 0433     		adds	r3, r3, #4
 9802 0060 9A42     		cmp	r2, r3
 9803 0062 ACBF     		ite	ge
 9804 0064 0123     		movge	r3, #1
 9805 0066 0023     		movlt	r3, #0
 9806 0068 FB75     		strb	r3, [r7, #23]
2341:.\PrimeImpl.c ****         break;
 9807              		.loc 1 2341 0
 9808 006a 1BE0     		b	.L306
 9809              	.L310:
2342:.\PrimeImpl.c ****         case 0x02:
2343:.\PrimeImpl.c ****             retval = (buffersize >= (_g_dispenserlayoutinfo._hosesposition3*_PUMP_TOTALS_BUFFER_SHI
 9810              		.loc 1 2343 0
 9811 006c FA88     		ldrh	r2, [r7, #6]
 9812 006e 114B     		ldr	r3, .L313
 9813 0070 5B79     		ldrb	r3, [r3, #5]	@ zero_extendqisi2
 9814 0072 1946     		mov	r1, r3
 9815 0074 2A23     		movs	r3, #42
 9816 0076 03FB01F3 		mul	r3, r3, r1
 9817 007a 0433     		adds	r3, r3, #4
 9818 007c 9A42     		cmp	r2, r3
 9819 007e ACBF     		ite	ge
 9820 0080 0123     		movge	r3, #1
 9821 0082 0023     		movlt	r3, #0
 9822 0084 FB75     		strb	r3, [r7, #23]
2344:.\PrimeImpl.c ****         break;
 9823              		.loc 1 2344 0
 9824 0086 0DE0     		b	.L306
 9825              	.L311:
2345:.\PrimeImpl.c ****         case 0x03:
2346:.\PrimeImpl.c ****             retval = (buffersize >= (_g_dispenserlayoutinfo._hosesposition4*_PUMP_TOTALS_BUFFER_SHI
 9826              		.loc 1 2346 0
 9827 0088 FA88     		ldrh	r2, [r7, #6]
 9828 008a 0A4B     		ldr	r3, .L313
 9829 008c 9B79     		ldrb	r3, [r3, #6]	@ zero_extendqisi2
 9830 008e 1946     		mov	r1, r3
 9831 0090 2A23     		movs	r3, #42
 9832 0092 03FB01F3 		mul	r3, r3, r1
 9833 0096 0433     		adds	r3, r3, #4
 9834 0098 9A42     		cmp	r2, r3
 9835 009a ACBF     		ite	ge
 9836 009c 0123     		movge	r3, #1
 9837 009e 0023     		movlt	r3, #0
ARM GAS  C:\Users\RECEPC~1\AppData\Local\Temp\ccvxjDo6.s 			page 216


 9838 00a0 FB75     		strb	r3, [r7, #23]
2347:.\PrimeImpl.c ****         break;
 9839              		.loc 1 2347 0
 9840 00a2 00BF     		nop
 9841              	.L306:
2348:.\PrimeImpl.c ****     }
2349:.\PrimeImpl.c ****     return retval;
 9842              		.loc 1 2349 0
 9843 00a4 FB7D     		ldrb	r3, [r7, #23]	@ zero_extendqisi2
2350:.\PrimeImpl.c **** }
 9844              		.loc 1 2350 0
 9845 00a6 1846     		mov	r0, r3
 9846 00a8 1C37     		adds	r7, r7, #28
 9847              		.cfi_def_cfa_offset 4
 9848 00aa BD46     		mov	sp, r7
 9849              		.cfi_def_cfa_register 13
 9850              		@ sp needed
 9851 00ac 5DF8047B 		ldr	r7, [sp], #4
 9852              		.cfi_restore 7
 9853              		.cfi_def_cfa_offset 0
 9854 00b0 7047     		bx	lr
 9855              	.L314:
 9856 00b2 00BF     		.align	2
 9857              	.L313:
 9858 00b4 00000000 		.word	_g_dispenserlayoutinfo
 9859              		.cfi_endproc
 9860              	.LFE106:
 9861              		.size	AcquirePumpTotalsResponseResolver, .-AcquirePumpTotalsResponseResolver
 9862              		.section	.text.AcquirePpuChangeResponse,"ax",%progbits
 9863              		.align	2
 9864              		.global	AcquirePpuChangeResponse
 9865              		.thumb
 9866              		.thumb_func
 9867              		.type	AcquirePpuChangeResponse, %function
 9868              	AcquirePpuChangeResponse:
 9869              	.LFB107:
2351:.\PrimeImpl.c **** 
2352:.\PrimeImpl.c **** void AcquirePpuChangeResponse(void *pparam)
2353:.\PrimeImpl.c **** {
 9870              		.loc 1 2353 0
 9871              		.cfi_startproc
 9872              		@ args = 0, pretend = 0, frame = 16
 9873              		@ frame_needed = 1, uses_anonymous_args = 0
 9874              		@ link register save eliminated.
 9875 0000 80B4     		push	{r7}
 9876              		.cfi_def_cfa_offset 4
 9877              		.cfi_offset 7, -4
 9878 0002 85B0     		sub	sp, sp, #20
 9879              		.cfi_def_cfa_offset 24
 9880 0004 00AF     		add	r7, sp, #0
 9881              		.cfi_def_cfa_register 7
 9882 0006 7860     		str	r0, [r7, #4]
2354:.\PrimeImpl.c ****     PPUMPTRANSACTIONJOBCONTEXTPTR pjob = (PPUMPTRANSACTIONJOBCONTEXTPTR)pparam;
 9883              		.loc 1 2354 0
 9884 0008 7B68     		ldr	r3, [r7, #4]
 9885 000a FB60     		str	r3, [r7, #12]
2355:.\PrimeImpl.c ****     if(pjob)
ARM GAS  C:\Users\RECEPC~1\AppData\Local\Temp\ccvxjDo6.s 			page 217


 9886              		.loc 1 2355 0
 9887 000c FB68     		ldr	r3, [r7, #12]
 9888 000e 002B     		cmp	r3, #0
 9889 0010 3AD0     		beq	.L315
2356:.\PrimeImpl.c ****     {
2357:.\PrimeImpl.c ****         pjob->_ppump->_pumpstate = ((pjob->_ppump->_rxbuffer[0x00] & 0xF0) >> 4);
 9890              		.loc 1 2357 0
 9891 0012 FB68     		ldr	r3, [r7, #12]
 9892 0014 DB69     		ldr	r3, [r3, #28]
 9893 0016 FA68     		ldr	r2, [r7, #12]
 9894 0018 D269     		ldr	r2, [r2, #28]
 9895 001a 92F88821 		ldrb	r2, [r2, #392]	@ zero_extendqisi2
 9896 001e 1209     		lsrs	r2, r2, #4
 9897 0020 D2B2     		uxtb	r2, r2
 9898 0022 9A70     		strb	r2, [r3, #2]
2358:.\PrimeImpl.c ****         
2359:.\PrimeImpl.c ****         switch(_g_dispenserlayoutinfo._numpositions)
 9899              		.loc 1 2359 0
 9900 0024 1B4B     		ldr	r3, .L321
 9901 0026 9B78     		ldrb	r3, [r3, #2]	@ zero_extendqisi2
 9902 0028 022B     		cmp	r3, #2
 9903 002a 02D0     		beq	.L317
 9904 002c 042B     		cmp	r3, #4
 9905 002e 16D0     		beq	.L318
 9906 0030 2AE0     		b	.L315
 9907              	.L317:
2360:.\PrimeImpl.c ****         {
2361:.\PrimeImpl.c ****             case 0x02:
2362:.\PrimeImpl.c ****             {
2363:.\PrimeImpl.c ****                 if(pjob->_ppump->_pumpindex == (_g_dispenserlayoutinfo._numpositions - 1) && (pjob-
 9908              		.loc 1 2363 0
 9909 0032 FB68     		ldr	r3, [r7, #12]
 9910 0034 DB69     		ldr	r3, [r3, #28]
 9911 0036 5B78     		ldrb	r3, [r3, #1]	@ zero_extendqisi2
 9912 0038 1A46     		mov	r2, r3
 9913 003a 164B     		ldr	r3, .L321
 9914 003c 9B78     		ldrb	r3, [r3, #2]	@ zero_extendqisi2
 9915 003e 013B     		subs	r3, r3, #1
 9916 0040 9A42     		cmp	r2, r3
 9917 0042 0BD1     		bne	.L319
 9918              		.loc 1 2363 0 is_stmt 0 discriminator 1
 9919 0044 FB68     		ldr	r3, [r7, #12]
 9920 0046 DB69     		ldr	r3, [r3, #28]
 9921 0048 DB78     		ldrb	r3, [r3, #3]
 9922 004a DAB2     		uxtb	r2, r3
 9923 004c 114B     		ldr	r3, .L321
 9924 004e 1B79     		ldrb	r3, [r3, #4]	@ zero_extendqisi2
 9925 0050 9A42     		cmp	r2, r3
 9926 0052 03D1     		bne	.L319
2364:.\PrimeImpl.c ****                     _g_dispenserlayoutinfo._inconfiguration = false;
 9927              		.loc 1 2364 0 is_stmt 1
 9928 0054 0F4B     		ldr	r3, .L321
 9929 0056 0022     		movs	r2, #0
 9930 0058 1A70     		strb	r2, [r3]
2365:.\PrimeImpl.c ****                 
2366:.\PrimeImpl.c ****                 break;
 9931              		.loc 1 2366 0
ARM GAS  C:\Users\RECEPC~1\AppData\Local\Temp\ccvxjDo6.s 			page 218


 9932 005a 15E0     		b	.L315
 9933              	.L319:
 9934 005c 14E0     		b	.L315
 9935              	.L318:
2367:.\PrimeImpl.c ****             }
2368:.\PrimeImpl.c ****             case 0x04:
2369:.\PrimeImpl.c ****             {
2370:.\PrimeImpl.c ****                 if(pjob->_ppump->_pumpindex == (_g_dispenserlayoutinfo._numpositions - 1) && (pjob-
 9936              		.loc 1 2370 0
 9937 005e FB68     		ldr	r3, [r7, #12]
 9938 0060 DB69     		ldr	r3, [r3, #28]
 9939 0062 5B78     		ldrb	r3, [r3, #1]	@ zero_extendqisi2
 9940 0064 1A46     		mov	r2, r3
 9941 0066 0B4B     		ldr	r3, .L321
 9942 0068 9B78     		ldrb	r3, [r3, #2]	@ zero_extendqisi2
 9943 006a 013B     		subs	r3, r3, #1
 9944 006c 9A42     		cmp	r2, r3
 9945 006e 0AD1     		bne	.L320
 9946              		.loc 1 2370 0 is_stmt 0 discriminator 1
 9947 0070 FB68     		ldr	r3, [r7, #12]
 9948 0072 DB69     		ldr	r3, [r3, #28]
 9949 0074 DB78     		ldrb	r3, [r3, #3]
 9950 0076 DAB2     		uxtb	r2, r3
 9951 0078 064B     		ldr	r3, .L321
 9952 007a 9B79     		ldrb	r3, [r3, #6]	@ zero_extendqisi2
 9953 007c 9A42     		cmp	r2, r3
 9954 007e 02D1     		bne	.L320
2371:.\PrimeImpl.c ****                     _g_dispenserlayoutinfo._inconfiguration = false;
 9955              		.loc 1 2371 0 is_stmt 1
 9956 0080 044B     		ldr	r3, .L321
 9957 0082 0022     		movs	r2, #0
 9958 0084 1A70     		strb	r2, [r3]
 9959              	.L320:
2372:.\PrimeImpl.c ****                 
2373:.\PrimeImpl.c ****                 break;
 9960              		.loc 1 2373 0
 9961 0086 00BF     		nop
 9962              	.L315:
2374:.\PrimeImpl.c ****             }
2375:.\PrimeImpl.c ****         }
2376:.\PrimeImpl.c ****     }
2377:.\PrimeImpl.c **** }
 9963              		.loc 1 2377 0
 9964 0088 1437     		adds	r7, r7, #20
 9965              		.cfi_def_cfa_offset 4
 9966 008a BD46     		mov	sp, r7
 9967              		.cfi_def_cfa_register 13
 9968              		@ sp needed
 9969 008c 5DF8047B 		ldr	r7, [sp], #4
 9970              		.cfi_restore 7
 9971              		.cfi_def_cfa_offset 0
 9972 0090 7047     		bx	lr
 9973              	.L322:
 9974 0092 00BF     		.align	2
 9975              	.L321:
 9976 0094 00000000 		.word	_g_dispenserlayoutinfo
 9977              		.cfi_endproc
ARM GAS  C:\Users\RECEPC~1\AppData\Local\Temp\ccvxjDo6.s 			page 219


 9978              	.LFE107:
 9979              		.size	AcquirePpuChangeResponse, .-AcquirePpuChangeResponse
 9980              		.section	.text.PrimeActivateProgramming,"ax",%progbits
 9981              		.align	2
 9982              		.global	PrimeActivateProgramming
 9983              		.thumb
 9984              		.thumb_func
 9985              		.type	PrimeActivateProgramming, %function
 9986              	PrimeActivateProgramming:
 9987              	.LFB108:
2378:.\PrimeImpl.c **** 
2379:.\PrimeImpl.c **** //@Created By: HIJH
2380:.\PrimeImpl.c **** //@Novembre de 2016
2381:.\PrimeImpl.c **** void PrimeActivateProgramming(LPVOID pparam)
2382:.\PrimeImpl.c **** {
 9988              		.loc 1 2382 0
 9989              		.cfi_startproc
 9990              		@ args = 0, pretend = 0, frame = 24
 9991              		@ frame_needed = 1, uses_anonymous_args = 0
 9992 0000 80B5     		push	{r7, lr}
 9993              		.cfi_def_cfa_offset 8
 9994              		.cfi_offset 7, -8
 9995              		.cfi_offset 14, -4
 9996 0002 86B0     		sub	sp, sp, #24
 9997              		.cfi_def_cfa_offset 32
 9998 0004 00AF     		add	r7, sp, #0
 9999              		.cfi_def_cfa_register 7
 10000 0006 7860     		str	r0, [r7, #4]
2383:.\PrimeImpl.c ****     PNEAR_PUMPPTR ppump = &_g_pumps[0x00];
 10001              		.loc 1 2383 0
 10002 0008 264B     		ldr	r3, .L328
 10003 000a 3B61     		str	r3, [r7, #16]
2384:.\PrimeImpl.c ****     PSINKMESSAGEPTR pmsg = (PSINKMESSAGEPTR)pparam;
 10004              		.loc 1 2384 0
 10005 000c 7B68     		ldr	r3, [r7, #4]
 10006 000e FB60     		str	r3, [r7, #12]
2385:.\PrimeImpl.c ****     if(ppump)
 10007              		.loc 1 2385 0
 10008 0010 3B69     		ldr	r3, [r7, #16]
 10009 0012 002B     		cmp	r3, #0
 10010 0014 42D0     		beq	.L323
 10011              	.LBB53:
2386:.\PrimeImpl.c ****     {
2387:.\PrimeImpl.c ****         ppump->_acquiringstate = true;
 10012              		.loc 1 2387 0
 10013 0016 3B69     		ldr	r3, [r7, #16]
 10014 0018 0122     		movs	r2, #1
 10015 001a 5A71     		strb	r2, [r3, #5]
2388:.\PrimeImpl.c ****         ppump->_pcurrtransaction = GetTransactionByName(_PUMP_PROGRAM_MODE_);
 10016              		.loc 1 2388 0
 10017 001c 4E20     		movs	r0, #78
 10018 001e FFF7FEFF 		bl	GetTransactionByName
 10019 0022 0246     		mov	r2, r0
 10020 0024 3B69     		ldr	r3, [r7, #16]
 10021 0026 DA61     		str	r2, [r3, #28]
2389:.\PrimeImpl.c ****         PumpTransactionJob *ptrjob = &((PumpTransaction*)ppump->_pcurrtransaction)->_jobs[0];
 10022              		.loc 1 2389 0
ARM GAS  C:\Users\RECEPC~1\AppData\Local\Temp\ccvxjDo6.s 			page 220


 10023 0028 3B69     		ldr	r3, [r7, #16]
 10024 002a DB69     		ldr	r3, [r3, #28]
 10025 002c 0433     		adds	r3, r3, #4
 10026 002e 7B61     		str	r3, [r7, #20]
2390:.\PrimeImpl.c ****         if(ptrjob)
 10027              		.loc 1 2390 0
 10028 0030 7B69     		ldr	r3, [r7, #20]
 10029 0032 002B     		cmp	r3, #0
 10030 0034 32D0     		beq	.L323
2391:.\PrimeImpl.c ****         {
2392:.\PrimeImpl.c ****             while(ptrjob->Request != NULL)
 10031              		.loc 1 2392 0
 10032 0036 2DE0     		b	.L325
 10033              	.L327:
 10034              	.LBB54:
2393:.\PrimeImpl.c ****             {
2394:.\PrimeImpl.c ****                 PPUMPTRANSACTIONJOBCONTEXTPTR pjobcntr = _g_pumpjobqueue.Allocate(&_g_pumpjobqueue)
 10035              		.loc 1 2394 0
 10036 0038 1B4B     		ldr	r3, .L328+4
 10037 003a D3F84037 		ldr	r3, [r3, #1856]
 10038 003e 1A48     		ldr	r0, .L328+4
 10039 0040 9847     		blx	r3
 10040 0042 B860     		str	r0, [r7, #8]
2395:.\PrimeImpl.c ****                 if(pjobcntr)
 10041              		.loc 1 2395 0
 10042 0044 BB68     		ldr	r3, [r7, #8]
 10043 0046 002B     		cmp	r3, #0
 10044 0048 21D0     		beq	.L326
2396:.\PrimeImpl.c ****                 {
2397:.\PrimeImpl.c ****                     pjobcntr->_reenqueue = false;
 10045              		.loc 1 2397 0
 10046 004a BB68     		ldr	r3, [r7, #8]
 10047 004c 0022     		movs	r2, #0
 10048 004e 1A70     		strb	r2, [r3]
2398:.\PrimeImpl.c ****                     pjobcntr->_prequest = ptrjob;
 10049              		.loc 1 2398 0
 10050 0050 BB68     		ldr	r3, [r7, #8]
 10051 0052 7A69     		ldr	r2, [r7, #20]
 10052 0054 5A61     		str	r2, [r3, #20]
2399:.\PrimeImpl.c ****                     pjobcntr->_presponse = NULL;
 10053              		.loc 1 2399 0
 10054 0056 BB68     		ldr	r3, [r7, #8]
 10055 0058 0022     		movs	r2, #0
 10056 005a 9A61     		str	r2, [r3, #24]
2400:.\PrimeImpl.c ****                     pjobcntr->_ppump = ppump;
 10057              		.loc 1 2400 0
 10058 005c BB68     		ldr	r3, [r7, #8]
 10059 005e 3A69     		ldr	r2, [r7, #16]
 10060 0060 DA61     		str	r2, [r3, #28]
2401:.\PrimeImpl.c ****                     pjobcntr->_ppump->CleanUp(pjobcntr->_ppump);
 10061              		.loc 1 2401 0
 10062 0062 BB68     		ldr	r3, [r7, #8]
 10063 0064 DB69     		ldr	r3, [r3, #28]
 10064 0066 D3F8903B 		ldr	r3, [r3, #2960]
 10065 006a BA68     		ldr	r2, [r7, #8]
 10066 006c D269     		ldr	r2, [r2, #28]
 10067 006e 1046     		mov	r0, r2
ARM GAS  C:\Users\RECEPC~1\AppData\Local\Temp\ccvxjDo6.s 			page 221


 10068 0070 9847     		blx	r3
2402:.\PrimeImpl.c ****                     //This callback will be invoked upon response (if exists)
2403:.\PrimeImpl.c ****                     pjobcntr->Callback = pmsg->Callback;
 10069              		.loc 1 2403 0
 10070 0072 FB68     		ldr	r3, [r7, #12]
 10071 0074 D3F89421 		ldr	r2, [r3, #404]
 10072 0078 BB68     		ldr	r3, [r7, #8]
 10073 007a 1A62     		str	r2, [r3, #32]
2404:.\PrimeImpl.c ****                     pjobcntr->_pdata = pmsg;
 10074              		.loc 1 2404 0
 10075 007c BB68     		ldr	r3, [r7, #8]
 10076 007e FA68     		ldr	r2, [r7, #12]
 10077 0080 5A62     		str	r2, [r3, #36]
2405:.\PrimeImpl.c ****                     
2406:.\PrimeImpl.c ****                     _g_pumpjobqueue.Enqueue(&_g_pumpjobqueue, pjobcntr);
 10078              		.loc 1 2406 0
 10079 0082 094B     		ldr	r3, .L328+4
 10080 0084 D3F84437 		ldr	r3, [r3, #1860]
 10081 0088 0748     		ldr	r0, .L328+4
 10082 008a B968     		ldr	r1, [r7, #8]
 10083 008c 9847     		blx	r3
 10084              	.L326:
2407:.\PrimeImpl.c ****                 }
2408:.\PrimeImpl.c ****                 ptrjob++;
 10085              		.loc 1 2408 0
 10086 008e 7B69     		ldr	r3, [r7, #20]
 10087 0090 3433     		adds	r3, r3, #52
 10088 0092 7B61     		str	r3, [r7, #20]
 10089              	.L325:
 10090              	.LBE54:
2392:.\PrimeImpl.c ****             {
 10091              		.loc 1 2392 0
 10092 0094 7B69     		ldr	r3, [r7, #20]
 10093 0096 1B68     		ldr	r3, [r3]
 10094 0098 002B     		cmp	r3, #0
 10095 009a CDD1     		bne	.L327
 10096              	.L323:
 10097              	.LBE53:
2409:.\PrimeImpl.c ****             }
2410:.\PrimeImpl.c ****         }
2411:.\PrimeImpl.c ****     }
2412:.\PrimeImpl.c **** }
 10098              		.loc 1 2412 0
 10099 009c 1837     		adds	r7, r7, #24
 10100              		.cfi_def_cfa_offset 8
 10101 009e BD46     		mov	sp, r7
 10102              		.cfi_def_cfa_register 13
 10103              		@ sp needed
 10104 00a0 80BD     		pop	{r7, pc}
 10105              	.L329:
 10106 00a2 00BF     		.align	2
 10107              	.L328:
 10108 00a4 00000000 		.word	_g_pumps
 10109 00a8 00000000 		.word	_g_pumpjobqueue
 10110              		.cfi_endproc
 10111              	.LFE108:
 10112              		.size	PrimeActivateProgramming, .-PrimeActivateProgramming
ARM GAS  C:\Users\RECEPC~1\AppData\Local\Temp\ccvxjDo6.s 			page 222


 10113              		.section	.text.ComplementaryCreditTransactionOnHose,"ax",%progbits
 10114              		.align	2
 10115              		.global	ComplementaryCreditTransactionOnHose
 10116              		.thumb
 10117              		.thumb_func
 10118              		.type	ComplementaryCreditTransactionOnHose, %function
 10119              	ComplementaryCreditTransactionOnHose:
 10120              	.LFB109:
2413:.\PrimeImpl.c **** 
2414:.\PrimeImpl.c **** void ComplementaryCreditTransactionOnHose(LPVOID pparam)
2415:.\PrimeImpl.c **** {
 10121              		.loc 1 2415 0
 10122              		.cfi_startproc
 10123              		@ args = 0, pretend = 0, frame = 24
 10124              		@ frame_needed = 1, uses_anonymous_args = 0
 10125 0000 80B5     		push	{r7, lr}
 10126              		.cfi_def_cfa_offset 8
 10127              		.cfi_offset 7, -8
 10128              		.cfi_offset 14, -4
 10129 0002 86B0     		sub	sp, sp, #24
 10130              		.cfi_def_cfa_offset 32
 10131 0004 00AF     		add	r7, sp, #0
 10132              		.cfi_def_cfa_register 7
 10133 0006 7860     		str	r0, [r7, #4]
2416:.\PrimeImpl.c ****     PNEAR_PUMPPTR ppump = (PNEAR_PUMPPTR)pparam;
 10134              		.loc 1 2416 0
 10135 0008 7B68     		ldr	r3, [r7, #4]
 10136 000a 3B61     		str	r3, [r7, #16]
2417:.\PrimeImpl.c ****     ppump->_pcurrtransaction = GetTransactionByName(_PUMP_FILL_CREDIT_COMPLEMENTARY_);
 10137              		.loc 1 2417 0
 10138 000c 4520     		movs	r0, #69
 10139 000e FFF7FEFF 		bl	GetTransactionByName
 10140 0012 0246     		mov	r2, r0
 10141 0014 3B69     		ldr	r3, [r7, #16]
 10142 0016 DA61     		str	r2, [r3, #28]
2418:.\PrimeImpl.c ****     PumpTransactionJob *ptrjob = &((PumpTransaction*)ppump->_pcurrtransaction)->_jobs[0];
 10143              		.loc 1 2418 0
 10144 0018 3B69     		ldr	r3, [r7, #16]
 10145 001a DB69     		ldr	r3, [r3, #28]
 10146 001c 0433     		adds	r3, r3, #4
 10147 001e 7B61     		str	r3, [r7, #20]
2419:.\PrimeImpl.c ****     if(ptrjob)
 10148              		.loc 1 2419 0
 10149 0020 7B69     		ldr	r3, [r7, #20]
 10150 0022 002B     		cmp	r3, #0
 10151 0024 2AD0     		beq	.L330
2420:.\PrimeImpl.c ****     {
2421:.\PrimeImpl.c ****         while(ptrjob->Request != NULL)
 10152              		.loc 1 2421 0
 10153 0026 25E0     		b	.L332
 10154              	.L334:
 10155              	.LBB55:
2422:.\PrimeImpl.c ****         {
2423:.\PrimeImpl.c ****             PPUMPTRANSACTIONJOBCONTEXTPTR pjobcntr = _g_pumpjobqueue.Allocate(&_g_pumpjobqueue);
 10156              		.loc 1 2423 0
 10157 0028 164B     		ldr	r3, .L335
 10158 002a D3F84037 		ldr	r3, [r3, #1856]
ARM GAS  C:\Users\RECEPC~1\AppData\Local\Temp\ccvxjDo6.s 			page 223


 10159 002e 1548     		ldr	r0, .L335
 10160 0030 9847     		blx	r3
 10161 0032 F860     		str	r0, [r7, #12]
2424:.\PrimeImpl.c ****             if(pjobcntr)
 10162              		.loc 1 2424 0
 10163 0034 FB68     		ldr	r3, [r7, #12]
 10164 0036 002B     		cmp	r3, #0
 10165 0038 19D0     		beq	.L333
2425:.\PrimeImpl.c ****             {
2426:.\PrimeImpl.c ****                 pjobcntr->_reenqueue = false;
 10166              		.loc 1 2426 0
 10167 003a FB68     		ldr	r3, [r7, #12]
 10168 003c 0022     		movs	r2, #0
 10169 003e 1A70     		strb	r2, [r3]
2427:.\PrimeImpl.c ****                 pjobcntr->_prequest = ptrjob;
 10170              		.loc 1 2427 0
 10171 0040 FB68     		ldr	r3, [r7, #12]
 10172 0042 7A69     		ldr	r2, [r7, #20]
 10173 0044 5A61     		str	r2, [r3, #20]
2428:.\PrimeImpl.c ****                 pjobcntr->_presponse = NULL;
 10174              		.loc 1 2428 0
 10175 0046 FB68     		ldr	r3, [r7, #12]
 10176 0048 0022     		movs	r2, #0
 10177 004a 9A61     		str	r2, [r3, #24]
2429:.\PrimeImpl.c ****                 pjobcntr->_ppump = ppump;
 10178              		.loc 1 2429 0
 10179 004c FB68     		ldr	r3, [r7, #12]
 10180 004e 3A69     		ldr	r2, [r7, #16]
 10181 0050 DA61     		str	r2, [r3, #28]
2430:.\PrimeImpl.c ****                 pjobcntr->_ppump->CleanUp(pjobcntr->_ppump);
 10182              		.loc 1 2430 0
 10183 0052 FB68     		ldr	r3, [r7, #12]
 10184 0054 DB69     		ldr	r3, [r3, #28]
 10185 0056 D3F8903B 		ldr	r3, [r3, #2960]
 10186 005a FA68     		ldr	r2, [r7, #12]
 10187 005c D269     		ldr	r2, [r2, #28]
 10188 005e 1046     		mov	r0, r2
 10189 0060 9847     		blx	r3
2431:.\PrimeImpl.c ****                 //This callback will be invoked upon response (if exists)
2432:.\PrimeImpl.c ****                 //pjobcntr->Callback = pmsg->Callback;
2433:.\PrimeImpl.c ****                 //pjobcntr->_pdata = pmsg;
2434:.\PrimeImpl.c ****                 
2435:.\PrimeImpl.c ****                 _g_pumpjobqueue.Enqueue(&_g_pumpjobqueue, pjobcntr);
 10190              		.loc 1 2435 0
 10191 0062 084B     		ldr	r3, .L335
 10192 0064 D3F84437 		ldr	r3, [r3, #1860]
 10193 0068 0648     		ldr	r0, .L335
 10194 006a F968     		ldr	r1, [r7, #12]
 10195 006c 9847     		blx	r3
 10196              	.L333:
2436:.\PrimeImpl.c ****             }
2437:.\PrimeImpl.c ****             ptrjob++;
 10197              		.loc 1 2437 0
 10198 006e 7B69     		ldr	r3, [r7, #20]
 10199 0070 3433     		adds	r3, r3, #52
 10200 0072 7B61     		str	r3, [r7, #20]
 10201              	.L332:
ARM GAS  C:\Users\RECEPC~1\AppData\Local\Temp\ccvxjDo6.s 			page 224


 10202              	.LBE55:
2421:.\PrimeImpl.c ****         {
 10203              		.loc 1 2421 0
 10204 0074 7B69     		ldr	r3, [r7, #20]
 10205 0076 1B68     		ldr	r3, [r3]
 10206 0078 002B     		cmp	r3, #0
 10207 007a D5D1     		bne	.L334
 10208              	.L330:
2438:.\PrimeImpl.c ****         }
2439:.\PrimeImpl.c ****     }
2440:.\PrimeImpl.c **** }
 10209              		.loc 1 2440 0
 10210 007c 1837     		adds	r7, r7, #24
 10211              		.cfi_def_cfa_offset 8
 10212 007e BD46     		mov	sp, r7
 10213              		.cfi_def_cfa_register 13
 10214              		@ sp needed
 10215 0080 80BD     		pop	{r7, pc}
 10216              	.L336:
 10217 0082 00BF     		.align	2
 10218              	.L335:
 10219 0084 00000000 		.word	_g_pumpjobqueue
 10220              		.cfi_endproc
 10221              	.LFE109:
 10222              		.size	ComplementaryCreditTransactionOnHose, .-ComplementaryCreditTransactionOnHose
 10223              		.section	.text.GetLRC,"ax",%progbits
 10224              		.align	2
 10225              		.global	GetLRC
 10226              		.thumb
 10227              		.thumb_func
 10228              		.type	GetLRC, %function
 10229              	GetLRC:
 10230              	.LFB110:
2441:.\PrimeImpl.c **** 
2442:.\PrimeImpl.c **** 
2443:.\PrimeImpl.c **** //@Created By: HIJH
2444:.\PrimeImpl.c **** //@Septembre de 2016
2445:.\PrimeImpl.c **** ///////////////////////////////////////////////////////////////////////////////////////////////////
2446:.\PrimeImpl.c **** //THESE ARE SUPPORT METHODS THAT WILL BE USED IN THE TRANSACTIONAL MACHINE
2447:.\PrimeImpl.c **** ///////////////////////////////////////////////////////////////////////////////////////////////////
2448:.\PrimeImpl.c **** //Calculation of the LRC according to the documentation
2449:.\PrimeImpl.c **** uint8_t GetLRC(char8 *_pbuffer)
2450:.\PrimeImpl.c **** {
 10231              		.loc 1 2450 0
 10232              		.cfi_startproc
 10233              		@ args = 0, pretend = 0, frame = 16
 10234              		@ frame_needed = 1, uses_anonymous_args = 0
 10235              		@ link register save eliminated.
 10236 0000 80B4     		push	{r7}
 10237              		.cfi_def_cfa_offset 4
 10238              		.cfi_offset 7, -4
 10239 0002 85B0     		sub	sp, sp, #20
 10240              		.cfi_def_cfa_offset 24
 10241 0004 00AF     		add	r7, sp, #0
 10242              		.cfi_def_cfa_register 7
 10243 0006 7860     		str	r0, [r7, #4]
2451:.\PrimeImpl.c ****     uint8_t lrc = 0;
ARM GAS  C:\Users\RECEPC~1\AppData\Local\Temp\ccvxjDo6.s 			page 225


 10244              		.loc 1 2451 0
 10245 0008 0023     		movs	r3, #0
 10246 000a FB73     		strb	r3, [r7, #15]
2452:.\PrimeImpl.c ****     while(*_pbuffer != 0xFB)
 10247              		.loc 1 2452 0
 10248 000c 0AE0     		b	.L338
 10249              	.L339:
2453:.\PrimeImpl.c ****     {
2454:.\PrimeImpl.c ****         lrc += (*_pbuffer & 0x0F);
 10250              		.loc 1 2454 0
 10251 000e 7B68     		ldr	r3, [r7, #4]
 10252 0010 1B78     		ldrb	r3, [r3]	@ zero_extendqisi2
 10253 0012 03F00F03 		and	r3, r3, #15
 10254 0016 DAB2     		uxtb	r2, r3
 10255 0018 FB7B     		ldrb	r3, [r7, #15]
 10256 001a 1344     		add	r3, r3, r2
 10257 001c FB73     		strb	r3, [r7, #15]
2455:.\PrimeImpl.c ****         _pbuffer++;
 10258              		.loc 1 2455 0
 10259 001e 7B68     		ldr	r3, [r7, #4]
 10260 0020 0133     		adds	r3, r3, #1
 10261 0022 7B60     		str	r3, [r7, #4]
 10262              	.L338:
2452:.\PrimeImpl.c ****     while(*_pbuffer != 0xFB)
 10263              		.loc 1 2452 0
 10264 0024 7B68     		ldr	r3, [r7, #4]
 10265 0026 1B78     		ldrb	r3, [r3]	@ zero_extendqisi2
 10266 0028 FB2B     		cmp	r3, #251
 10267 002a F0D1     		bne	.L339
2456:.\PrimeImpl.c ****     }
2457:.\PrimeImpl.c ****     lrc += (*_pbuffer & 0x0F);
 10268              		.loc 1 2457 0
 10269 002c 7B68     		ldr	r3, [r7, #4]
 10270 002e 1B78     		ldrb	r3, [r3]	@ zero_extendqisi2
 10271 0030 03F00F03 		and	r3, r3, #15
 10272 0034 DAB2     		uxtb	r2, r3
 10273 0036 FB7B     		ldrb	r3, [r7, #15]
 10274 0038 1344     		add	r3, r3, r2
 10275 003a FB73     		strb	r3, [r7, #15]
2458:.\PrimeImpl.c ****     return (((~lrc + 1) & 0x0F) | 0xE0);
 10276              		.loc 1 2458 0
 10277 003c FB7B     		ldrb	r3, [r7, #15]
 10278 003e 5B42     		negs	r3, r3
 10279 0040 DBB2     		uxtb	r3, r3
 10280 0042 DBB2     		uxtb	r3, r3
 10281 0044 03F00F03 		and	r3, r3, #15
 10282 0048 DBB2     		uxtb	r3, r3
 10283 004a 63F01F03 		orn	r3, r3, #31
 10284 004e DBB2     		uxtb	r3, r3
 10285 0050 DBB2     		uxtb	r3, r3
2459:.\PrimeImpl.c **** }
 10286              		.loc 1 2459 0
 10287 0052 1846     		mov	r0, r3
 10288 0054 1437     		adds	r7, r7, #20
 10289              		.cfi_def_cfa_offset 4
 10290 0056 BD46     		mov	sp, r7
 10291              		.cfi_def_cfa_register 13
ARM GAS  C:\Users\RECEPC~1\AppData\Local\Temp\ccvxjDo6.s 			page 226


 10292              		@ sp needed
 10293 0058 5DF8047B 		ldr	r7, [sp], #4
 10294              		.cfi_restore 7
 10295              		.cfi_def_cfa_offset 0
 10296 005c 7047     		bx	lr
 10297              		.cfi_endproc
 10298              	.LFE110:
 10299              		.size	GetLRC, .-GetLRC
 10300 005e 00BF     		.section	.text.FindLRC,"ax",%progbits
 10301              		.align	2
 10302              		.global	FindLRC
 10303              		.thumb
 10304              		.thumb_func
 10305              		.type	FindLRC, %function
 10306              	FindLRC:
 10307              	.LFB111:
2460:.\PrimeImpl.c **** 
2461:.\PrimeImpl.c **** uint8_t FindLRC(char8 *_pbuffer)
2462:.\PrimeImpl.c **** {
 10308              		.loc 1 2462 0
 10309              		.cfi_startproc
 10310              		@ args = 0, pretend = 0, frame = 8
 10311              		@ frame_needed = 1, uses_anonymous_args = 0
 10312              		@ link register save eliminated.
 10313 0000 80B4     		push	{r7}
 10314              		.cfi_def_cfa_offset 4
 10315              		.cfi_offset 7, -4
 10316 0002 83B0     		sub	sp, sp, #12
 10317              		.cfi_def_cfa_offset 16
 10318 0004 00AF     		add	r7, sp, #0
 10319              		.cfi_def_cfa_register 7
 10320 0006 7860     		str	r0, [r7, #4]
2463:.\PrimeImpl.c ****     while(*_pbuffer != 0xFB)
 10321              		.loc 1 2463 0
 10322 0008 02E0     		b	.L342
 10323              	.L343:
2464:.\PrimeImpl.c ****     {
2465:.\PrimeImpl.c ****         _pbuffer++;
 10324              		.loc 1 2465 0
 10325 000a 7B68     		ldr	r3, [r7, #4]
 10326 000c 0133     		adds	r3, r3, #1
 10327 000e 7B60     		str	r3, [r7, #4]
 10328              	.L342:
2463:.\PrimeImpl.c ****     while(*_pbuffer != 0xFB)
 10329              		.loc 1 2463 0
 10330 0010 7B68     		ldr	r3, [r7, #4]
 10331 0012 1B78     		ldrb	r3, [r3]	@ zero_extendqisi2
 10332 0014 FB2B     		cmp	r3, #251
 10333 0016 F8D1     		bne	.L343
2466:.\PrimeImpl.c ****     }
2467:.\PrimeImpl.c ****     return *(++_pbuffer);
 10334              		.loc 1 2467 0
 10335 0018 7B68     		ldr	r3, [r7, #4]
 10336 001a 0133     		adds	r3, r3, #1
 10337 001c 7B60     		str	r3, [r7, #4]
 10338 001e 7B68     		ldr	r3, [r7, #4]
 10339 0020 1B78     		ldrb	r3, [r3]	@ zero_extendqisi2
ARM GAS  C:\Users\RECEPC~1\AppData\Local\Temp\ccvxjDo6.s 			page 227


2468:.\PrimeImpl.c **** }
 10340              		.loc 1 2468 0
 10341 0022 1846     		mov	r0, r3
 10342 0024 0C37     		adds	r7, r7, #12
 10343              		.cfi_def_cfa_offset 4
 10344 0026 BD46     		mov	sp, r7
 10345              		.cfi_def_cfa_register 13
 10346              		@ sp needed
 10347 0028 5DF8047B 		ldr	r7, [sp], #4
 10348              		.cfi_restore 7
 10349              		.cfi_def_cfa_offset 0
 10350 002c 7047     		bx	lr
 10351              		.cfi_endproc
 10352              	.LFE111:
 10353              		.size	FindLRC, .-FindLRC
 10354 002e 00BF     		.section	.text.InitiateTransaction,"ax",%progbits
 10355              		.align	2
 10356              		.global	InitiateTransaction
 10357              		.thumb
 10358              		.thumb_func
 10359              		.type	InitiateTransaction, %function
 10360              	InitiateTransaction:
 10361              	.LFB112:
2469:.\PrimeImpl.c **** 
2470:.\PrimeImpl.c **** //@Created By: HIJH
2471:.\PrimeImpl.c **** //@Septembre de 2016
2472:.\PrimeImpl.c **** void InitiateTransaction(void *pparam)
2473:.\PrimeImpl.c **** {
 10362              		.loc 1 2473 0
 10363              		.cfi_startproc
 10364              		@ args = 0, pretend = 0, frame = 16
 10365              		@ frame_needed = 1, uses_anonymous_args = 0
 10366              		@ link register save eliminated.
 10367 0000 80B4     		push	{r7}
 10368              		.cfi_def_cfa_offset 4
 10369              		.cfi_offset 7, -4
 10370 0002 85B0     		sub	sp, sp, #20
 10371              		.cfi_def_cfa_offset 24
 10372 0004 00AF     		add	r7, sp, #0
 10373              		.cfi_def_cfa_register 7
 10374 0006 7860     		str	r0, [r7, #4]
2474:.\PrimeImpl.c ****     PumpTransactionJobContext *pjob = (PumpTransactionJobContext*)pparam;
 10375              		.loc 1 2474 0
 10376 0008 7B68     		ldr	r3, [r7, #4]
 10377 000a FB60     		str	r3, [r7, #12]
2475:.\PrimeImpl.c ****     if(pjob)
 10378              		.loc 1 2475 0
 10379 000c FB68     		ldr	r3, [r7, #12]
 10380 000e 002B     		cmp	r3, #0
 10381 0010 07D0     		beq	.L345
2476:.\PrimeImpl.c ****     {
2477:.\PrimeImpl.c ****         pjob->_ppump->_transhealth = _PUMP_OK_;
 10382              		.loc 1 2477 0
 10383 0012 FB68     		ldr	r3, [r7, #12]
 10384 0014 DB69     		ldr	r3, [r3, #28]
 10385 0016 0122     		movs	r2, #1
 10386 0018 1A76     		strb	r2, [r3, #24]
ARM GAS  C:\Users\RECEPC~1\AppData\Local\Temp\ccvxjDo6.s 			page 228


2478:.\PrimeImpl.c ****         pjob->_ppump->_transtate = _PUMP_BUSY_;
 10387              		.loc 1 2478 0
 10388 001a FB68     		ldr	r3, [r7, #12]
 10389 001c DB69     		ldr	r3, [r3, #28]
 10390 001e 0122     		movs	r2, #1
 10391 0020 5A76     		strb	r2, [r3, #25]
 10392              	.L345:
2479:.\PrimeImpl.c ****     }
2480:.\PrimeImpl.c **** }
 10393              		.loc 1 2480 0
 10394 0022 1437     		adds	r7, r7, #20
 10395              		.cfi_def_cfa_offset 4
 10396 0024 BD46     		mov	sp, r7
 10397              		.cfi_def_cfa_register 13
 10398              		@ sp needed
 10399 0026 5DF8047B 		ldr	r7, [sp], #4
 10400              		.cfi_restore 7
 10401              		.cfi_def_cfa_offset 0
 10402 002a 7047     		bx	lr
 10403              		.cfi_endproc
 10404              	.LFE112:
 10405              		.size	InitiateTransaction, .-InitiateTransaction
 10406              		.section	.text.TerminateTransaction,"ax",%progbits
 10407              		.align	2
 10408              		.global	TerminateTransaction
 10409              		.thumb
 10410              		.thumb_func
 10411              		.type	TerminateTransaction, %function
 10412              	TerminateTransaction:
 10413              	.LFB113:
2481:.\PrimeImpl.c **** 
2482:.\PrimeImpl.c **** //@Created By: HIJH
2483:.\PrimeImpl.c **** //@Septembre de 2016
2484:.\PrimeImpl.c **** void TerminateTransaction(void *pparam)
2485:.\PrimeImpl.c **** {
 10414              		.loc 1 2485 0
 10415              		.cfi_startproc
 10416              		@ args = 0, pretend = 0, frame = 16
 10417              		@ frame_needed = 1, uses_anonymous_args = 0
 10418              		@ link register save eliminated.
 10419 0000 80B4     		push	{r7}
 10420              		.cfi_def_cfa_offset 4
 10421              		.cfi_offset 7, -4
 10422 0002 85B0     		sub	sp, sp, #20
 10423              		.cfi_def_cfa_offset 24
 10424 0004 00AF     		add	r7, sp, #0
 10425              		.cfi_def_cfa_register 7
 10426 0006 7860     		str	r0, [r7, #4]
2486:.\PrimeImpl.c ****     PPUMPTRANSACTIONJOBCONTEXTPTR pjob = (PPUMPTRANSACTIONJOBCONTEXTPTR)pparam;
 10427              		.loc 1 2486 0
 10428 0008 7B68     		ldr	r3, [r7, #4]
 10429 000a FB60     		str	r3, [r7, #12]
2487:.\PrimeImpl.c ****     if(pjob)
 10430              		.loc 1 2487 0
 10431 000c FB68     		ldr	r3, [r7, #12]
 10432 000e 002B     		cmp	r3, #0
 10433 0010 07D0     		beq	.L347
ARM GAS  C:\Users\RECEPC~1\AppData\Local\Temp\ccvxjDo6.s 			page 229


2488:.\PrimeImpl.c ****     {
2489:.\PrimeImpl.c ****         pjob->_ppump->_transhealth = _PUMP_OK_;
 10434              		.loc 1 2489 0
 10435 0012 FB68     		ldr	r3, [r7, #12]
 10436 0014 DB69     		ldr	r3, [r3, #28]
 10437 0016 0122     		movs	r2, #1
 10438 0018 1A76     		strb	r2, [r3, #24]
2490:.\PrimeImpl.c ****         pjob->_ppump->_transtate = _PUMP_IDLE_;
 10439              		.loc 1 2490 0
 10440 001a FB68     		ldr	r3, [r7, #12]
 10441 001c DB69     		ldr	r3, [r3, #28]
 10442 001e 0222     		movs	r2, #2
 10443 0020 5A76     		strb	r2, [r3, #25]
 10444              	.L347:
2491:.\PrimeImpl.c ****         
2492:.\PrimeImpl.c ****     }
2493:.\PrimeImpl.c **** }
 10445              		.loc 1 2493 0
 10446 0022 1437     		adds	r7, r7, #20
 10447              		.cfi_def_cfa_offset 4
 10448 0024 BD46     		mov	sp, r7
 10449              		.cfi_def_cfa_register 13
 10450              		@ sp needed
 10451 0026 5DF8047B 		ldr	r7, [sp], #4
 10452              		.cfi_restore 7
 10453              		.cfi_def_cfa_offset 0
 10454 002a 7047     		bx	lr
 10455              		.cfi_endproc
 10456              	.LFE113:
 10457              		.size	TerminateTransaction, .-TerminateTransaction
 10458              		.section	.text.TerminateTransactionAndPrint,"ax",%progbits
 10459              		.align	2
 10460              		.global	TerminateTransactionAndPrint
 10461              		.thumb
 10462              		.thumb_func
 10463              		.type	TerminateTransactionAndPrint, %function
 10464              	TerminateTransactionAndPrint:
 10465              	.LFB114:
2494:.\PrimeImpl.c **** 
2495:.\PrimeImpl.c **** void TerminateTransactionAndPrint(void *pparam)
2496:.\PrimeImpl.c **** {
 10466              		.loc 1 2496 0
 10467              		.cfi_startproc
 10468              		@ args = 0, pretend = 0, frame = 16
 10469              		@ frame_needed = 1, uses_anonymous_args = 0
 10470 0000 90B5     		push	{r4, r7, lr}
 10471              		.cfi_def_cfa_offset 12
 10472              		.cfi_offset 4, -12
 10473              		.cfi_offset 7, -8
 10474              		.cfi_offset 14, -4
 10475 0002 85B0     		sub	sp, sp, #20
 10476              		.cfi_def_cfa_offset 32
 10477 0004 00AF     		add	r7, sp, #0
 10478              		.cfi_def_cfa_register 7
 10479 0006 7860     		str	r0, [r7, #4]
2497:.\PrimeImpl.c ****     PPUMPTRANSACTIONJOBCONTEXTPTR pjob = (PPUMPTRANSACTIONJOBCONTEXTPTR)pparam;
 10480              		.loc 1 2497 0
ARM GAS  C:\Users\RECEPC~1\AppData\Local\Temp\ccvxjDo6.s 			page 230


 10481 0008 7B68     		ldr	r3, [r7, #4]
 10482 000a FB60     		str	r3, [r7, #12]
2498:.\PrimeImpl.c ****     if(pjob)
 10483              		.loc 1 2498 0
 10484 000c FB68     		ldr	r3, [r7, #12]
 10485 000e 002B     		cmp	r3, #0
 10486 0010 00F0F380 		beq	.L349
2499:.\PrimeImpl.c ****     {
2500:.\PrimeImpl.c ****         pjob->_ppump->_transhealth = _PUMP_OK_;
 10487              		.loc 1 2500 0
 10488 0014 FB68     		ldr	r3, [r7, #12]
 10489 0016 DB69     		ldr	r3, [r3, #28]
 10490 0018 0122     		movs	r2, #1
 10491 001a 1A76     		strb	r2, [r3, #24]
2501:.\PrimeImpl.c ****         pjob->_ppump->_transtate = _PUMP_IDLE_;
 10492              		.loc 1 2501 0
 10493 001c FB68     		ldr	r3, [r7, #12]
 10494 001e DB69     		ldr	r3, [r3, #28]
 10495 0020 0222     		movs	r2, #2
 10496 0022 5A76     		strb	r2, [r3, #25]
2502:.\PrimeImpl.c ****         
2503:.\PrimeImpl.c ****         //If printing has been selected then post the print job
2504:.\PrimeImpl.c ****         if(pjob->_ppump->_trasactionbuffer[GetBufferIndexFromDisplayID(DISPLAY_DESEA_IMPRIMIR_RECIB
 10497              		.loc 1 2504 0
 10498 0024 FB68     		ldr	r3, [r7, #12]
 10499 0026 DC69     		ldr	r4, [r3, #28]
 10500 0028 0B20     		movs	r0, #11
 10501 002a FFF7FEFF 		bl	GetBufferIndexFromDisplayID
 10502 002e 0346     		mov	r3, r0
 10503 0030 2344     		add	r3, r3, r4
 10504 0032 93F82030 		ldrb	r3, [r3, #32]	@ zero_extendqisi2
 10505 0036 392B     		cmp	r3, #57
 10506 0038 40F0DF80 		bne	.L349
 10507              	.LBB56:
2505:.\PrimeImpl.c ****         {
2506:.\PrimeImpl.c ****             _ALLOCATE_SINKMESSAGE_SLOT(psinkmsg);
 10508              		.loc 1 2506 0
 10509 003c FFF7FEFF 		bl	AllocateMessageSlot
 10510 0040 B860     		str	r0, [r7, #8]
2507:.\PrimeImpl.c ****             if(psinkmsg)
 10511              		.loc 1 2507 0
 10512 0042 BB68     		ldr	r3, [r7, #8]
 10513 0044 002B     		cmp	r3, #0
 10514 0046 00F0D880 		beq	.L349
2508:.\PrimeImpl.c ****             {
2509:.\PrimeImpl.c ****                 switch(pjob->_ppump->_trasactionbuffer[GetBufferIndexFromDisplayID(DISPLAY_SIDE_DUM
 10515              		.loc 1 2509 0
 10516 004a FB68     		ldr	r3, [r7, #12]
 10517 004c DC69     		ldr	r4, [r3, #28]
 10518 004e FA20     		movs	r0, #250
 10519 0050 FFF7FEFF 		bl	GetBufferIndexFromDisplayID
 10520 0054 0346     		mov	r3, r0
 10521 0056 2344     		add	r3, r3, r4
 10522 0058 93F82030 		ldrb	r3, [r3, #32]	@ zero_extendqisi2
 10523 005c 002B     		cmp	r3, #0
 10524 005e 02D0     		beq	.L352
 10525 0060 012B     		cmp	r3, #1
ARM GAS  C:\Users\RECEPC~1\AppData\Local\Temp\ccvxjDo6.s 			page 231


 10526 0062 05D0     		beq	.L353
 10527 0064 09E0     		b	.L351
 10528              	.L352:
2510:.\PrimeImpl.c ****                 {
2511:.\PrimeImpl.c ****                     case DISPLAY1:
2512:.\PrimeImpl.c ****                     psinkmsg->_messageid = _g_printerlayout._printerportside1;
 10529              		.loc 1 2512 0
 10530 0066 664B     		ldr	r3, .L356
 10531 0068 1A78     		ldrb	r2, [r3]	@ zero_extendqisi2
 10532 006a BB68     		ldr	r3, [r7, #8]
 10533 006c 5A70     		strb	r2, [r3, #1]
2513:.\PrimeImpl.c ****                     break;
 10534              		.loc 1 2513 0
 10535 006e 04E0     		b	.L351
 10536              	.L353:
2514:.\PrimeImpl.c ****                     case DISPLAY2:
2515:.\PrimeImpl.c ****                     psinkmsg->_messageid = _g_printerlayout._printerportside2;
 10537              		.loc 1 2515 0
 10538 0070 634B     		ldr	r3, .L356
 10539 0072 5A78     		ldrb	r2, [r3, #1]	@ zero_extendqisi2
 10540 0074 BB68     		ldr	r3, [r7, #8]
 10541 0076 5A70     		strb	r2, [r3, #1]
2516:.\PrimeImpl.c ****                     break;
 10542              		.loc 1 2516 0
 10543 0078 00BF     		nop
 10544              	.L351:
2517:.\PrimeImpl.c ****                 }
2518:.\PrimeImpl.c ****                 psinkmsg->_messagetype = DELAYEDALLINTERESTED;
 10545              		.loc 1 2518 0
 10546 007a BB68     		ldr	r3, [r7, #8]
 10547 007c 0522     		movs	r2, #5
 10548 007e 9A70     		strb	r2, [r3, #2]
2519:.\PrimeImpl.c ****                 //Wait for 20 seconds before sending the command to the printer!
2520:.\PrimeImpl.c ****                 //This will give some time to allow the remote peer (NSX) to respond with the appro
2521:.\PrimeImpl.c ****                 if(_g_rfautorun._state == RF_AUTONOMOUS)
 10549              		.loc 1 2521 0
 10550 0080 604B     		ldr	r3, .L356+4
 10551 0082 1B78     		ldrb	r3, [r3]
 10552 0084 DBB2     		uxtb	r3, r3
 10553 0086 012B     		cmp	r3, #1
 10554 0088 04D1     		bne	.L354
2522:.\PrimeImpl.c ****                     psinkmsg->_messagedelay = _SINK_TIMEOUT_1S_;
 10555              		.loc 1 2522 0
 10556 008a BB68     		ldr	r3, [r7, #8]
 10557 008c 4FF47A72 		mov	r2, #1000
 10558 0090 9A80     		strh	r2, [r3, #4]	@ movhi
 10559 0092 03E0     		b	.L355
 10560              	.L354:
2523:.\PrimeImpl.c ****                 else
2524:.\PrimeImpl.c ****                     psinkmsg->_messagedelay = _SINK_TIMEOUT_30S_;
 10561              		.loc 1 2524 0
 10562 0094 BB68     		ldr	r3, [r7, #8]
 10563 0096 47F23052 		movw	r2, #30000
 10564 009a 9A80     		strh	r2, [r3, #4]	@ movhi
 10565              	.L355:
2525:.\PrimeImpl.c ****                 
2526:.\PrimeImpl.c ****                 //PUMP POSITION GOES IN THE ARRAY INDEX 0X00 (SEE THE FILE "PRINTERBLL.C")
ARM GAS  C:\Users\RECEPC~1\AppData\Local\Temp\ccvxjDo6.s 			page 232


2527:.\PrimeImpl.c ****                 psinkmsg->_buffer[0x00] = pjob->_ppump->_pumpid;
 10566              		.loc 1 2527 0
 10567 009c FB68     		ldr	r3, [r7, #12]
 10568 009e DB69     		ldr	r3, [r3, #28]
 10569 00a0 1A78     		ldrb	r2, [r3]	@ zero_extendqisi2
 10570 00a2 BB68     		ldr	r3, [r7, #8]
 10571 00a4 1A73     		strb	r2, [r3, #12]
2528:.\PrimeImpl.c ****                 //PUMP HOSE TO SELECT THE PRODUCT NAME
2529:.\PrimeImpl.c ****                 psinkmsg->_buffer[0x01] = pjob->_ppump->_authorizationinfo._hoseid;
 10572              		.loc 1 2529 0
 10573 00a6 FB68     		ldr	r3, [r7, #12]
 10574 00a8 DB69     		ldr	r3, [r3, #28]
 10575 00aa 93F87A3B 		ldrb	r3, [r3, #2938]
 10576 00ae DAB2     		uxtb	r2, r3
 10577 00b0 BB68     		ldr	r3, [r7, #8]
 10578 00b2 5A73     		strb	r2, [r3, #13]
2530:.\PrimeImpl.c ****                 psinkmsg->_buffer[0x02] = 0x06;//Six bytes for the price (PPU)
 10579              		.loc 1 2530 0
 10580 00b4 BB68     		ldr	r3, [r7, #8]
 10581 00b6 0622     		movs	r2, #6
 10582 00b8 9A73     		strb	r2, [r3, #14]
2531:.\PrimeImpl.c ****                 memset(&psinkmsg->_buffer[0x03], 0x00, 0x08);
 10583              		.loc 1 2531 0
 10584 00ba BB68     		ldr	r3, [r7, #8]
 10585 00bc 0F33     		adds	r3, r3, #15
 10586 00be 1846     		mov	r0, r3
 10587 00c0 0021     		movs	r1, #0
 10588 00c2 0822     		movs	r2, #8
 10589 00c4 FFF7FEFF 		bl	memset
2532:.\PrimeImpl.c ****                 B78AD90CF552D9B30A(pjob->_ppump->_authorizationinfo._price, PBYTECAST(&psinkmsg->_b
 10590              		.loc 1 2532 0
 10591 00c8 FB68     		ldr	r3, [r7, #12]
 10592 00ca DB69     		ldr	r3, [r3, #28]
 10593 00cc B3F87C3B 		ldrh	r3, [r3, #2940]	@ movhi
 10594 00d0 9BB2     		uxth	r3, r3
 10595 00d2 9AB2     		uxth	r2, r3
 10596 00d4 4FF00003 		mov	r3, #0
 10597 00d8 B968     		ldr	r1, [r7, #8]
 10598 00da 01F10F04 		add	r4, r1, #15
 10599 00de 1046     		mov	r0, r2
 10600 00e0 1946     		mov	r1, r3
 10601 00e2 2246     		mov	r2, r4
 10602 00e4 FFF7FEFF 		bl	B78AD90CF552D9B30A
2533:.\PrimeImpl.c ****                 psinkmsg->_buffer[0x09] = 0x08;//Eight bytes for the Volume
 10603              		.loc 1 2533 0
 10604 00e8 BB68     		ldr	r3, [r7, #8]
 10605 00ea 0822     		movs	r2, #8
 10606 00ec 5A75     		strb	r2, [r3, #21]
2534:.\PrimeImpl.c ****                 memset(&psinkmsg->_buffer[0x0A], 0x00, 0x08);
 10607              		.loc 1 2534 0
 10608 00ee BB68     		ldr	r3, [r7, #8]
 10609 00f0 1633     		adds	r3, r3, #22
 10610 00f2 1846     		mov	r0, r3
 10611 00f4 0021     		movs	r1, #0
 10612 00f6 0822     		movs	r2, #8
 10613 00f8 FFF7FEFF 		bl	memset
2535:.\PrimeImpl.c ****                 B78AD90CF552D9B30A(pjob->_ppump->_authorizationinfo._volumeamount, PBYTECAST(&psink
ARM GAS  C:\Users\RECEPC~1\AppData\Local\Temp\ccvxjDo6.s 			page 233


 10614              		.loc 1 2535 0
 10615 00fc FB68     		ldr	r3, [r7, #12]
 10616 00fe DB69     		ldr	r3, [r3, #28]
 10617 0100 D3F8843B 		ldr	r3, [r3, #2948]
 10618 0104 1A46     		mov	r2, r3
 10619 0106 4FF00003 		mov	r3, #0
 10620 010a B968     		ldr	r1, [r7, #8]
 10621 010c 01F11604 		add	r4, r1, #22
 10622 0110 1046     		mov	r0, r2
 10623 0112 1946     		mov	r1, r3
 10624 0114 2246     		mov	r2, r4
 10625 0116 FFF7FEFF 		bl	B78AD90CF552D9B30A
2536:.\PrimeImpl.c ****                 psinkmsg->_buffer[0x12] = 0x08;//Eight bytes for the Preset
 10626              		.loc 1 2536 0
 10627 011a BB68     		ldr	r3, [r7, #8]
 10628 011c 0822     		movs	r2, #8
 10629 011e 9A77     		strb	r2, [r3, #30]
2537:.\PrimeImpl.c ****                 memset(&psinkmsg->_buffer[0x13], 0x00, 0x08);
 10630              		.loc 1 2537 0
 10631 0120 BB68     		ldr	r3, [r7, #8]
 10632 0122 1F33     		adds	r3, r3, #31
 10633 0124 1846     		mov	r0, r3
 10634 0126 0021     		movs	r1, #0
 10635 0128 0822     		movs	r2, #8
 10636 012a FFF7FEFF 		bl	memset
2538:.\PrimeImpl.c ****                 B78AD90CF552D9B30A(pjob->_ppump->_authorizationinfo._presetamount, PBYTECAST(&psink
 10637              		.loc 1 2538 0
 10638 012e FB68     		ldr	r3, [r7, #12]
 10639 0130 DB69     		ldr	r3, [r3, #28]
 10640 0132 D3F8803B 		ldr	r3, [r3, #2944]
 10641 0136 1A46     		mov	r2, r3
 10642 0138 4FF00003 		mov	r3, #0
 10643 013c B968     		ldr	r1, [r7, #8]
 10644 013e 01F11F04 		add	r4, r1, #31
 10645 0142 1046     		mov	r0, r2
 10646 0144 1946     		mov	r1, r3
 10647 0146 2246     		mov	r2, r4
 10648 0148 FFF7FEFF 		bl	B78AD90CF552D9B30A
2539:.\PrimeImpl.c ****                 
2540:.\PrimeImpl.c ****                 //This is the transaction type (Cash: 0x0D / Credit: 0x0E). See the documentation t
2541:.\PrimeImpl.c ****                 psinkmsg->_buffer[0x1B] = pjob->_ppump->_trasactionbuffer[GetBufferIndexFromDisplay
 10649              		.loc 1 2541 0
 10650 014c FB68     		ldr	r3, [r7, #12]
 10651 014e DC69     		ldr	r4, [r3, #28]
 10652 0150 0420     		movs	r0, #4
 10653 0152 FFF7FEFF 		bl	GetBufferIndexFromDisplayID
 10654 0156 0346     		mov	r3, r0
 10655 0158 2344     		add	r3, r3, r4
 10656 015a 93F82020 		ldrb	r2, [r3, #32]	@ zero_extendqisi2
 10657 015e BB68     		ldr	r3, [r7, #8]
 10658 0160 83F82720 		strb	r2, [r3, #39]
2542:.\PrimeImpl.c ****                 
2543:.\PrimeImpl.c ****                 //This means "N/A". This will be printed once the timeout has expired and no invoic
2544:.\PrimeImpl.c ****                 //has been received
2545:.\PrimeImpl.c ****                 psinkmsg->_buffer[0x20] = 0x4E;
 10659              		.loc 1 2545 0
 10660 0164 BB68     		ldr	r3, [r7, #8]
ARM GAS  C:\Users\RECEPC~1\AppData\Local\Temp\ccvxjDo6.s 			page 234


 10661 0166 4E22     		movs	r2, #78
 10662 0168 83F82C20 		strb	r2, [r3, #44]
2546:.\PrimeImpl.c ****                 psinkmsg->_buffer[0x21] = 0x2F;
 10663              		.loc 1 2546 0
 10664 016c BB68     		ldr	r3, [r7, #8]
 10665 016e 2F22     		movs	r2, #47
 10666 0170 83F82D20 		strb	r2, [r3, #45]
2547:.\PrimeImpl.c ****                 psinkmsg->_buffer[0x22] = 0x41;
 10667              		.loc 1 2547 0
 10668 0174 BB68     		ldr	r3, [r7, #8]
 10669 0176 4122     		movs	r2, #65
 10670 0178 83F82E20 		strb	r2, [r3, #46]
2548:.\PrimeImpl.c ****                 //Car's plate
2549:.\PrimeImpl.c ****                 psinkmsg->_buffer[0x2A] = 0x4E;
 10671              		.loc 1 2549 0
 10672 017c BB68     		ldr	r3, [r7, #8]
 10673 017e 4E22     		movs	r2, #78
 10674 0180 83F83620 		strb	r2, [r3, #54]
2550:.\PrimeImpl.c ****                 psinkmsg->_buffer[0x2B] = 0x2F;
 10675              		.loc 1 2550 0
 10676 0184 BB68     		ldr	r3, [r7, #8]
 10677 0186 2F22     		movs	r2, #47
 10678 0188 83F83720 		strb	r2, [r3, #55]
2551:.\PrimeImpl.c ****                 psinkmsg->_buffer[0x2C] = 0x41;
 10679              		.loc 1 2551 0
 10680 018c BB68     		ldr	r3, [r7, #8]
 10681 018e 4122     		movs	r2, #65
 10682 0190 83F83820 		strb	r2, [r3, #56]
2552:.\PrimeImpl.c ****                 //Balance
2553:.\PrimeImpl.c ****                 psinkmsg->_buffer[0x32] = 0x4E;
 10683              		.loc 1 2553 0
 10684 0194 BB68     		ldr	r3, [r7, #8]
 10685 0196 4E22     		movs	r2, #78
 10686 0198 83F83E20 		strb	r2, [r3, #62]
2554:.\PrimeImpl.c ****                 psinkmsg->_buffer[0x33] = 0x2F;
 10687              		.loc 1 2554 0
 10688 019c BB68     		ldr	r3, [r7, #8]
 10689 019e 2F22     		movs	r2, #47
 10690 01a0 83F83F20 		strb	r2, [r3, #63]
2555:.\PrimeImpl.c ****                 psinkmsg->_buffer[0x34] = 0x41;
 10691              		.loc 1 2555 0
 10692 01a4 BB68     		ldr	r3, [r7, #8]
 10693 01a6 4122     		movs	r2, #65
 10694 01a8 83F84020 		strb	r2, [r3, #64]
2556:.\PrimeImpl.c ****                 //Company
2557:.\PrimeImpl.c ****                 psinkmsg->_buffer[0x3C] = 0x4E;
 10695              		.loc 1 2557 0
 10696 01ac BB68     		ldr	r3, [r7, #8]
 10697 01ae 4E22     		movs	r2, #78
 10698 01b0 83F84820 		strb	r2, [r3, #72]
2558:.\PrimeImpl.c ****                 psinkmsg->_buffer[0x3D] = 0x2F;
 10699              		.loc 1 2558 0
 10700 01b4 BB68     		ldr	r3, [r7, #8]
 10701 01b6 2F22     		movs	r2, #47
 10702 01b8 83F84920 		strb	r2, [r3, #73]
2559:.\PrimeImpl.c ****                 psinkmsg->_buffer[0x3E] = 0x41;
 10703              		.loc 1 2559 0
ARM GAS  C:\Users\RECEPC~1\AppData\Local\Temp\ccvxjDo6.s 			page 235


 10704 01bc BB68     		ldr	r3, [r7, #8]
 10705 01be 4122     		movs	r2, #65
 10706 01c0 83F84A20 		strb	r2, [r3, #74]
2560:.\PrimeImpl.c ****                 //Account Name
2561:.\PrimeImpl.c ****                 psinkmsg->_buffer[0x50] = 0x4E;
 10707              		.loc 1 2561 0
 10708 01c4 BB68     		ldr	r3, [r7, #8]
 10709 01c6 4E22     		movs	r2, #78
 10710 01c8 83F85C20 		strb	r2, [r3, #92]
2562:.\PrimeImpl.c ****                 psinkmsg->_buffer[0x51] = 0x2F;
 10711              		.loc 1 2562 0
 10712 01cc BB68     		ldr	r3, [r7, #8]
 10713 01ce 2F22     		movs	r2, #47
 10714 01d0 83F85D20 		strb	r2, [r3, #93]
2563:.\PrimeImpl.c ****                 psinkmsg->_buffer[0x52] = 0x41;
 10715              		.loc 1 2563 0
 10716 01d4 BB68     		ldr	r3, [r7, #8]
 10717 01d6 4122     		movs	r2, #65
 10718 01d8 83F85E20 		strb	r2, [r3, #94]
2564:.\PrimeImpl.c ****                 //Daily Visits
2565:.\PrimeImpl.c ****                 psinkmsg->_buffer[0x64] = 0x00;
 10719              		.loc 1 2565 0
 10720 01dc BB68     		ldr	r3, [r7, #8]
 10721 01de 0022     		movs	r2, #0
 10722 01e0 83F87020 		strb	r2, [r3, #112]
2566:.\PrimeImpl.c ****                 //Weekly Visits
2567:.\PrimeImpl.c ****                 psinkmsg->_buffer[0x65] = 0x00;
 10723              		.loc 1 2567 0
 10724 01e4 BB68     		ldr	r3, [r7, #8]
 10725 01e6 0022     		movs	r2, #0
 10726 01e8 83F87120 		strb	r2, [r3, #113]
2568:.\PrimeImpl.c ****                 //Monthly Visits
2569:.\PrimeImpl.c ****                 psinkmsg->_buffer[0x66] = 0x00;
 10727              		.loc 1 2569 0
 10728 01ec BB68     		ldr	r3, [r7, #8]
 10729 01ee 0022     		movs	r2, #0
 10730 01f0 83F87220 		strb	r2, [r3, #114]
2570:.\PrimeImpl.c **** 
2571:.\PrimeImpl.c ****                 psinkmsg->_messagestate = SINK_BUSY;
 10731              		.loc 1 2571 0
 10732 01f4 BB68     		ldr	r3, [r7, #8]
 10733 01f6 0322     		movs	r2, #3
 10734 01f8 DA70     		strb	r2, [r3, #3]
 10735              	.L349:
 10736              	.LBE56:
2572:.\PrimeImpl.c ****             }    
2573:.\PrimeImpl.c ****         }
2574:.\PrimeImpl.c ****     }
2575:.\PrimeImpl.c **** }
 10737              		.loc 1 2575 0
 10738 01fa 1437     		adds	r7, r7, #20
 10739              		.cfi_def_cfa_offset 12
 10740 01fc BD46     		mov	sp, r7
 10741              		.cfi_def_cfa_register 13
 10742              		@ sp needed
 10743 01fe 90BD     		pop	{r4, r7, pc}
 10744              	.L357:
ARM GAS  C:\Users\RECEPC~1\AppData\Local\Temp\ccvxjDo6.s 			page 236


 10745              		.align	2
 10746              	.L356:
 10747 0200 00000000 		.word	_g_printerlayout
 10748 0204 00000000 		.word	_g_rfautorun
 10749              		.cfi_endproc
 10750              	.LFE114:
 10751              		.size	TerminateTransactionAndPrint, .-TerminateTransactionAndPrint
 10752              		.section	.text.CastVolumeValue,"ax",%progbits
 10753              		.align	2
 10754              		.global	CastVolumeValue
 10755              		.thumb
 10756              		.thumb_func
 10757              		.type	CastVolumeValue, %function
 10758              	CastVolumeValue:
 10759              	.LFB115:
2576:.\PrimeImpl.c **** 
2577:.\PrimeImpl.c **** //@Created by: HIJH
2578:.\PrimeImpl.c **** //@Date: Septembre de 2016
2579:.\PrimeImpl.c **** //This method arranges the PRESET buffer when this is a "Volume PRESET".
2580:.\PrimeImpl.c **** //Volume PRESETS must be multiplied by 1000
2581:.\PrimeImpl.c **** void CastVolumeValue(char8 *pbuffer, uint8 buffersize)
2582:.\PrimeImpl.c **** {
 10760              		.loc 1 2582 0
 10761              		.cfi_startproc
 10762              		@ args = 0, pretend = 0, frame = 16
 10763              		@ frame_needed = 1, uses_anonymous_args = 0
 10764              		@ link register save eliminated.
 10765 0000 80B4     		push	{r7}
 10766              		.cfi_def_cfa_offset 4
 10767              		.cfi_offset 7, -4
 10768 0002 85B0     		sub	sp, sp, #20
 10769              		.cfi_def_cfa_offset 24
 10770 0004 00AF     		add	r7, sp, #0
 10771              		.cfi_def_cfa_register 7
 10772 0006 7860     		str	r0, [r7, #4]
 10773 0008 0B46     		mov	r3, r1
 10774 000a FB70     		strb	r3, [r7, #3]
2583:.\PrimeImpl.c ****     uint8 delimiterindex = 0x00;
 10775              		.loc 1 2583 0
 10776 000c 0023     		movs	r3, #0
 10777 000e FB73     		strb	r3, [r7, #15]
2584:.\PrimeImpl.c ****     bool shiftbydelimiter = false;
 10778              		.loc 1 2584 0
 10779 0010 0023     		movs	r3, #0
 10780 0012 BB73     		strb	r3, [r7, #14]
2585:.\PrimeImpl.c ****     //If there is a "Comma" inside of the buffer, then just remove it before and count this for the
2586:.\PrimeImpl.c ****     FOR(int8 index = (buffersize - 1), index > 0, index--)
 10781              		.loc 1 2586 0
 10782 0014 FB78     		ldrb	r3, [r7, #3]
 10783 0016 013B     		subs	r3, r3, #1
 10784 0018 DBB2     		uxtb	r3, r3
 10785 001a 7B73     		strb	r3, [r7, #13]
 10786 001c 2CE0     		b	.L359
 10787              	.L363:
2587:.\PrimeImpl.c ****     {
2588:.\PrimeImpl.c ****         if(pbuffer[index] == 0x2C && !shiftbydelimiter)
 10788              		.loc 1 2588 0
ARM GAS  C:\Users\RECEPC~1\AppData\Local\Temp\ccvxjDo6.s 			page 237


 10789 001e 97F90D30 		ldrsb	r3, [r7, #13]
 10790 0022 7A68     		ldr	r2, [r7, #4]
 10791 0024 1344     		add	r3, r3, r2
 10792 0026 1B78     		ldrb	r3, [r3]	@ zero_extendqisi2
 10793 0028 2C2B     		cmp	r3, #44
 10794 002a 07D1     		bne	.L360
 10795              		.loc 1 2588 0 is_stmt 0 discriminator 1
 10796 002c BB7B     		ldrb	r3, [r7, #14]
 10797 002e 83F00103 		eor	r3, r3, #1
 10798 0032 DBB2     		uxtb	r3, r3
 10799 0034 002B     		cmp	r3, #0
 10800 0036 01D0     		beq	.L360
2589:.\PrimeImpl.c ****             shiftbydelimiter = true;
 10801              		.loc 1 2589 0 is_stmt 1
 10802 0038 0123     		movs	r3, #1
 10803 003a BB73     		strb	r3, [r7, #14]
 10804              	.L360:
2590:.\PrimeImpl.c **** 
2591:.\PrimeImpl.c ****         if(shiftbydelimiter)
 10805              		.loc 1 2591 0
 10806 003c BB7B     		ldrb	r3, [r7, #14]	@ zero_extendqisi2
 10807 003e 002B     		cmp	r3, #0
 10808 0040 12D0     		beq	.L361
2592:.\PrimeImpl.c ****         {
2593:.\PrimeImpl.c ****             pbuffer[index] = pbuffer[index - 1];
 10809              		.loc 1 2593 0
 10810 0042 97F90D30 		ldrsb	r3, [r7, #13]
 10811 0046 7A68     		ldr	r2, [r7, #4]
 10812 0048 1344     		add	r3, r3, r2
 10813 004a 97F90D20 		ldrsb	r2, [r7, #13]
 10814 004e 013A     		subs	r2, r2, #1
 10815 0050 7968     		ldr	r1, [r7, #4]
 10816 0052 0A44     		add	r2, r2, r1
 10817 0054 1278     		ldrb	r2, [r2]	@ zero_extendqisi2
 10818 0056 1A70     		strb	r2, [r3]
2594:.\PrimeImpl.c ****             pbuffer[index - 1] = 0x00;
 10819              		.loc 1 2594 0
 10820 0058 97F90D30 		ldrsb	r3, [r7, #13]
 10821 005c 013B     		subs	r3, r3, #1
 10822 005e 7A68     		ldr	r2, [r7, #4]
 10823 0060 1344     		add	r3, r3, r2
 10824 0062 0022     		movs	r2, #0
 10825 0064 1A70     		strb	r2, [r3]
 10826 0066 02E0     		b	.L362
 10827              	.L361:
2595:.\PrimeImpl.c ****         }else
2596:.\PrimeImpl.c ****             delimiterindex++;
 10828              		.loc 1 2596 0
 10829 0068 FB7B     		ldrb	r3, [r7, #15]	@ zero_extendqisi2
 10830 006a 0133     		adds	r3, r3, #1
 10831 006c FB73     		strb	r3, [r7, #15]
 10832              	.L362:
2586:.\PrimeImpl.c ****     {
 10833              		.loc 1 2586 0 discriminator 2
 10834 006e 7B7B     		ldrb	r3, [r7, #13]	@ zero_extendqisi2
 10835 0070 DBB2     		uxtb	r3, r3
 10836 0072 013B     		subs	r3, r3, #1
ARM GAS  C:\Users\RECEPC~1\AppData\Local\Temp\ccvxjDo6.s 			page 238


 10837 0074 DBB2     		uxtb	r3, r3
 10838 0076 7B73     		strb	r3, [r7, #13]
 10839              	.L359:
2586:.\PrimeImpl.c ****     {
 10840              		.loc 1 2586 0 is_stmt 0 discriminator 1
 10841 0078 97F90D30 		ldrsb	r3, [r7, #13]
 10842 007c 002B     		cmp	r3, #0
 10843 007e CEDC     		bgt	.L363
2597:.\PrimeImpl.c ****         
2598:.\PrimeImpl.c ****     }
2599:.\PrimeImpl.c ****     if(!shiftbydelimiter)
 10844              		.loc 1 2599 0 is_stmt 1
 10845 0080 BB7B     		ldrb	r3, [r7, #14]
 10846 0082 83F00103 		eor	r3, r3, #1
 10847 0086 DBB2     		uxtb	r3, r3
 10848 0088 002B     		cmp	r3, #0
 10849 008a 01D0     		beq	.L364
2600:.\PrimeImpl.c ****         delimiterindex = 0x00;
 10850              		.loc 1 2600 0
 10851 008c 0023     		movs	r3, #0
 10852 008e FB73     		strb	r3, [r7, #15]
 10853              	.L364:
2601:.\PrimeImpl.c ****     
2602:.\PrimeImpl.c ****     int8 shiftcount = (delimiterindex - _g_dispenserlayoutinfo._volumedecimals);
 10854              		.loc 1 2602 0
 10855 0090 334B     		ldr	r3, .L375
 10856 0092 5B7A     		ldrb	r3, [r3, #9]	@ zero_extendqisi2
 10857 0094 FA7B     		ldrb	r2, [r7, #15]
 10858 0096 D31A     		subs	r3, r2, r3
 10859 0098 DBB2     		uxtb	r3, r3
 10860 009a 3B73     		strb	r3, [r7, #12]
2603:.\PrimeImpl.c ****     //8 is the size of the allocated buffer space for the preset values according to the protocol.
2604:.\PrimeImpl.c ****     //The real buffer size allocated from the display side is 16 bytes. The buffer will be cast fro
2605:.\PrimeImpl.c ****     //the end to the beginning, so the startup index has been calculated "explicitly", this is (8 -
2606:.\PrimeImpl.c ****     //To multiply by 1000 we need to shift the entire buffer three bytes to shift the comma, so we
2607:.\PrimeImpl.c ****     //will subtract 3 bytes to the starting position in order to make the shifting.
2608:.\PrimeImpl.c ****     if(shiftcount > 0)
 10861              		.loc 1 2608 0
 10862 009c 97F90C30 		ldrsb	r3, [r7, #12]
 10863 00a0 002B     		cmp	r3, #0
 10864 00a2 29DD     		ble	.L365
2609:.\PrimeImpl.c ****     {
2610:.\PrimeImpl.c ****         while(shiftcount > 0)
 10865              		.loc 1 2610 0
 10866 00a4 23E0     		b	.L366
 10867              	.L369:
2611:.\PrimeImpl.c ****         {
2612:.\PrimeImpl.c ****             FOR(index = (buffersize - 1), index > 0, index--)
 10868              		.loc 1 2612 0
 10869 00a6 FB78     		ldrb	r3, [r7, #3]
 10870 00a8 013B     		subs	r3, r3, #1
 10871 00aa DBB2     		uxtb	r3, r3
 10872 00ac 7B73     		strb	r3, [r7, #13]
 10873 00ae 15E0     		b	.L367
 10874              	.L368:
2613:.\PrimeImpl.c ****             {
2614:.\PrimeImpl.c ****                 pbuffer[index] = pbuffer[index - 1];
ARM GAS  C:\Users\RECEPC~1\AppData\Local\Temp\ccvxjDo6.s 			page 239


 10875              		.loc 1 2614 0 discriminator 3
 10876 00b0 97F90D30 		ldrsb	r3, [r7, #13]
 10877 00b4 7A68     		ldr	r2, [r7, #4]
 10878 00b6 1344     		add	r3, r3, r2
 10879 00b8 97F90D20 		ldrsb	r2, [r7, #13]
 10880 00bc 013A     		subs	r2, r2, #1
 10881 00be 7968     		ldr	r1, [r7, #4]
 10882 00c0 0A44     		add	r2, r2, r1
 10883 00c2 1278     		ldrb	r2, [r2]	@ zero_extendqisi2
 10884 00c4 1A70     		strb	r2, [r3]
2615:.\PrimeImpl.c ****                 pbuffer[index] = 0x00;
 10885              		.loc 1 2615 0 discriminator 3
 10886 00c6 97F90D30 		ldrsb	r3, [r7, #13]
 10887 00ca 7A68     		ldr	r2, [r7, #4]
 10888 00cc 1344     		add	r3, r3, r2
 10889 00ce 0022     		movs	r2, #0
 10890 00d0 1A70     		strb	r2, [r3]
2612:.\PrimeImpl.c ****             {
 10891              		.loc 1 2612 0 discriminator 3
 10892 00d2 7B7B     		ldrb	r3, [r7, #13]	@ zero_extendqisi2
 10893 00d4 DBB2     		uxtb	r3, r3
 10894 00d6 013B     		subs	r3, r3, #1
 10895 00d8 DBB2     		uxtb	r3, r3
 10896 00da 7B73     		strb	r3, [r7, #13]
 10897              	.L367:
2612:.\PrimeImpl.c ****             {
 10898              		.loc 1 2612 0 is_stmt 0 discriminator 1
 10899 00dc 97F90D30 		ldrsb	r3, [r7, #13]
 10900 00e0 002B     		cmp	r3, #0
 10901 00e2 E5DC     		bgt	.L368
2616:.\PrimeImpl.c ****             }
2617:.\PrimeImpl.c ****             shiftcount--;
 10902              		.loc 1 2617 0 is_stmt 1
 10903 00e4 3B7B     		ldrb	r3, [r7, #12]	@ zero_extendqisi2
 10904 00e6 DBB2     		uxtb	r3, r3
 10905 00e8 013B     		subs	r3, r3, #1
 10906 00ea DBB2     		uxtb	r3, r3
 10907 00ec 3B73     		strb	r3, [r7, #12]
 10908              	.L366:
2610:.\PrimeImpl.c ****         {
 10909              		.loc 1 2610 0
 10910 00ee 97F90C30 		ldrsb	r3, [r7, #12]
 10911 00f2 002B     		cmp	r3, #0
 10912 00f4 D7DC     		bgt	.L369
 10913 00f6 2DE0     		b	.L358
 10914              	.L365:
2618:.\PrimeImpl.c ****         }
2619:.\PrimeImpl.c ****     }
2620:.\PrimeImpl.c ****     else if(shiftcount < 0)
 10915              		.loc 1 2620 0
 10916 00f8 97F90C30 		ldrsb	r3, [r7, #12]
 10917 00fc 002B     		cmp	r3, #0
 10918 00fe 29DA     		bge	.L358
2621:.\PrimeImpl.c ****     {
2622:.\PrimeImpl.c ****         while(shiftcount < 0)
 10919              		.loc 1 2622 0
 10920 0100 24E0     		b	.L371
ARM GAS  C:\Users\RECEPC~1\AppData\Local\Temp\ccvxjDo6.s 			page 240


 10921              	.L374:
2623:.\PrimeImpl.c ****         {
2624:.\PrimeImpl.c ****             FOR(index = 0, index < (buffersize  - 1), index++)
 10922              		.loc 1 2624 0
 10923 0102 0023     		movs	r3, #0
 10924 0104 7B73     		strb	r3, [r7, #13]
 10925 0106 16E0     		b	.L372
 10926              	.L373:
2625:.\PrimeImpl.c ****             {
2626:.\PrimeImpl.c ****                 pbuffer[index] = pbuffer[index + 1];
 10927              		.loc 1 2626 0 discriminator 3
 10928 0108 97F90D30 		ldrsb	r3, [r7, #13]
 10929 010c 7A68     		ldr	r2, [r7, #4]
 10930 010e 1344     		add	r3, r3, r2
 10931 0110 97F90D20 		ldrsb	r2, [r7, #13]
 10932 0114 0132     		adds	r2, r2, #1
 10933 0116 7968     		ldr	r1, [r7, #4]
 10934 0118 0A44     		add	r2, r2, r1
 10935 011a 1278     		ldrb	r2, [r2]	@ zero_extendqisi2
 10936 011c 1A70     		strb	r2, [r3]
2627:.\PrimeImpl.c ****                 pbuffer[index + 1] = 0x30;
 10937              		.loc 1 2627 0 discriminator 3
 10938 011e 97F90D30 		ldrsb	r3, [r7, #13]
 10939 0122 0133     		adds	r3, r3, #1
 10940 0124 7A68     		ldr	r2, [r7, #4]
 10941 0126 1344     		add	r3, r3, r2
 10942 0128 3022     		movs	r2, #48
 10943 012a 1A70     		strb	r2, [r3]
2624:.\PrimeImpl.c ****             {
 10944              		.loc 1 2624 0 discriminator 3
 10945 012c 7B7B     		ldrb	r3, [r7, #13]	@ zero_extendqisi2
 10946 012e DBB2     		uxtb	r3, r3
 10947 0130 0133     		adds	r3, r3, #1
 10948 0132 DBB2     		uxtb	r3, r3
 10949 0134 7B73     		strb	r3, [r7, #13]
 10950              	.L372:
2624:.\PrimeImpl.c ****             {
 10951              		.loc 1 2624 0 is_stmt 0 discriminator 1
 10952 0136 97F90D20 		ldrsb	r2, [r7, #13]
 10953 013a FB78     		ldrb	r3, [r7, #3]	@ zero_extendqisi2
 10954 013c 013B     		subs	r3, r3, #1
 10955 013e 9A42     		cmp	r2, r3
 10956 0140 E2DB     		blt	.L373
2628:.\PrimeImpl.c ****             }
2629:.\PrimeImpl.c ****             shiftcount++;
 10957              		.loc 1 2629 0 is_stmt 1
 10958 0142 3B7B     		ldrb	r3, [r7, #12]	@ zero_extendqisi2
 10959 0144 DBB2     		uxtb	r3, r3
 10960 0146 0133     		adds	r3, r3, #1
 10961 0148 DBB2     		uxtb	r3, r3
 10962 014a 3B73     		strb	r3, [r7, #12]
 10963              	.L371:
2622:.\PrimeImpl.c ****         {
 10964              		.loc 1 2622 0
 10965 014c 97F90C30 		ldrsb	r3, [r7, #12]
 10966 0150 002B     		cmp	r3, #0
 10967 0152 D6DB     		blt	.L374
ARM GAS  C:\Users\RECEPC~1\AppData\Local\Temp\ccvxjDo6.s 			page 241


 10968              	.L358:
2630:.\PrimeImpl.c ****         }
2631:.\PrimeImpl.c ****     }
2632:.\PrimeImpl.c **** }
 10969              		.loc 1 2632 0
 10970 0154 1437     		adds	r7, r7, #20
 10971              		.cfi_def_cfa_offset 4
 10972 0156 BD46     		mov	sp, r7
 10973              		.cfi_def_cfa_register 13
 10974              		@ sp needed
 10975 0158 5DF8047B 		ldr	r7, [sp], #4
 10976              		.cfi_restore 7
 10977              		.cfi_def_cfa_offset 0
 10978 015c 7047     		bx	lr
 10979              	.L376:
 10980 015e 00BF     		.align	2
 10981              	.L375:
 10982 0160 00000000 		.word	_g_dispenserlayoutinfo
 10983              		.cfi_endproc
 10984              	.LFE115:
 10985              		.size	CastVolumeValue, .-CastVolumeValue
 10986              		.section	.text.CastMoneyValue,"ax",%progbits
 10987              		.align	2
 10988              		.global	CastMoneyValue
 10989              		.thumb
 10990              		.thumb_func
 10991              		.type	CastMoneyValue, %function
 10992              	CastMoneyValue:
 10993              	.LFB116:
2633:.\PrimeImpl.c **** 
2634:.\PrimeImpl.c **** //@Created by: HIJH
2635:.\PrimeImpl.c **** //@Date: Septembre de 2016
2636:.\PrimeImpl.c **** //This method arranges the PRESET buffer when this is a "Money PRESET".
2637:.\PrimeImpl.c **** void CastMoneyValue(char8 *pbuffer, uint8 buffersize)
2638:.\PrimeImpl.c **** {
 10994              		.loc 1 2638 0
 10995              		.cfi_startproc
 10996              		@ args = 0, pretend = 0, frame = 16
 10997              		@ frame_needed = 1, uses_anonymous_args = 0
 10998              		@ link register save eliminated.
 10999 0000 80B4     		push	{r7}
 11000              		.cfi_def_cfa_offset 4
 11001              		.cfi_offset 7, -4
 11002 0002 85B0     		sub	sp, sp, #20
 11003              		.cfi_def_cfa_offset 24
 11004 0004 00AF     		add	r7, sp, #0
 11005              		.cfi_def_cfa_register 7
 11006 0006 7860     		str	r0, [r7, #4]
 11007 0008 0B46     		mov	r3, r1
 11008 000a FB70     		strb	r3, [r7, #3]
2639:.\PrimeImpl.c ****     uint8 delimiterindex = 0x00;
 11009              		.loc 1 2639 0
 11010 000c 0023     		movs	r3, #0
 11011 000e FB73     		strb	r3, [r7, #15]
2640:.\PrimeImpl.c ****     bool shiftbydelimiter = false;
 11012              		.loc 1 2640 0
 11013 0010 0023     		movs	r3, #0
ARM GAS  C:\Users\RECEPC~1\AppData\Local\Temp\ccvxjDo6.s 			page 242


 11014 0012 BB73     		strb	r3, [r7, #14]
2641:.\PrimeImpl.c ****     //If there is a "Comma" inside of the buffer, then just remove it before and count this for the
2642:.\PrimeImpl.c ****     FOR(int8 index = (buffersize - 1), index > 0, index--)
 11015              		.loc 1 2642 0
 11016 0014 FB78     		ldrb	r3, [r7, #3]
 11017 0016 013B     		subs	r3, r3, #1
 11018 0018 DBB2     		uxtb	r3, r3
 11019 001a 7B73     		strb	r3, [r7, #13]
 11020 001c 2CE0     		b	.L378
 11021              	.L382:
2643:.\PrimeImpl.c ****     {
2644:.\PrimeImpl.c ****         if(pbuffer[index] == 0x2C && !shiftbydelimiter)
 11022              		.loc 1 2644 0
 11023 001e 97F90D30 		ldrsb	r3, [r7, #13]
 11024 0022 7A68     		ldr	r2, [r7, #4]
 11025 0024 1344     		add	r3, r3, r2
 11026 0026 1B78     		ldrb	r3, [r3]	@ zero_extendqisi2
 11027 0028 2C2B     		cmp	r3, #44
 11028 002a 07D1     		bne	.L379
 11029              		.loc 1 2644 0 is_stmt 0 discriminator 1
 11030 002c BB7B     		ldrb	r3, [r7, #14]
 11031 002e 83F00103 		eor	r3, r3, #1
 11032 0032 DBB2     		uxtb	r3, r3
 11033 0034 002B     		cmp	r3, #0
 11034 0036 01D0     		beq	.L379
2645:.\PrimeImpl.c ****             shiftbydelimiter = true;
 11035              		.loc 1 2645 0 is_stmt 1
 11036 0038 0123     		movs	r3, #1
 11037 003a BB73     		strb	r3, [r7, #14]
 11038              	.L379:
2646:.\PrimeImpl.c **** 
2647:.\PrimeImpl.c ****         if(shiftbydelimiter)
 11039              		.loc 1 2647 0
 11040 003c BB7B     		ldrb	r3, [r7, #14]	@ zero_extendqisi2
 11041 003e 002B     		cmp	r3, #0
 11042 0040 12D0     		beq	.L380
2648:.\PrimeImpl.c ****         {
2649:.\PrimeImpl.c ****             pbuffer[index] = pbuffer[index - 1];
 11043              		.loc 1 2649 0
 11044 0042 97F90D30 		ldrsb	r3, [r7, #13]
 11045 0046 7A68     		ldr	r2, [r7, #4]
 11046 0048 1344     		add	r3, r3, r2
 11047 004a 97F90D20 		ldrsb	r2, [r7, #13]
 11048 004e 013A     		subs	r2, r2, #1
 11049 0050 7968     		ldr	r1, [r7, #4]
 11050 0052 0A44     		add	r2, r2, r1
 11051 0054 1278     		ldrb	r2, [r2]	@ zero_extendqisi2
 11052 0056 1A70     		strb	r2, [r3]
2650:.\PrimeImpl.c ****             pbuffer[index - 1] = 0x00;
 11053              		.loc 1 2650 0
 11054 0058 97F90D30 		ldrsb	r3, [r7, #13]
 11055 005c 013B     		subs	r3, r3, #1
 11056 005e 7A68     		ldr	r2, [r7, #4]
 11057 0060 1344     		add	r3, r3, r2
 11058 0062 0022     		movs	r2, #0
 11059 0064 1A70     		strb	r2, [r3]
 11060 0066 02E0     		b	.L381
ARM GAS  C:\Users\RECEPC~1\AppData\Local\Temp\ccvxjDo6.s 			page 243


 11061              	.L380:
2651:.\PrimeImpl.c ****         }else
2652:.\PrimeImpl.c ****             delimiterindex++;
 11062              		.loc 1 2652 0
 11063 0068 FB7B     		ldrb	r3, [r7, #15]	@ zero_extendqisi2
 11064 006a 0133     		adds	r3, r3, #1
 11065 006c FB73     		strb	r3, [r7, #15]
 11066              	.L381:
2642:.\PrimeImpl.c ****     {
 11067              		.loc 1 2642 0 discriminator 2
 11068 006e 7B7B     		ldrb	r3, [r7, #13]	@ zero_extendqisi2
 11069 0070 DBB2     		uxtb	r3, r3
 11070 0072 013B     		subs	r3, r3, #1
 11071 0074 DBB2     		uxtb	r3, r3
 11072 0076 7B73     		strb	r3, [r7, #13]
 11073              	.L378:
2642:.\PrimeImpl.c ****     {
 11074              		.loc 1 2642 0 is_stmt 0 discriminator 1
 11075 0078 97F90D30 		ldrsb	r3, [r7, #13]
 11076 007c 002B     		cmp	r3, #0
 11077 007e CEDC     		bgt	.L382
2653:.\PrimeImpl.c ****         
2654:.\PrimeImpl.c ****     }
2655:.\PrimeImpl.c ****     if(!shiftbydelimiter)
 11078              		.loc 1 2655 0 is_stmt 1
 11079 0080 BB7B     		ldrb	r3, [r7, #14]
 11080 0082 83F00103 		eor	r3, r3, #1
 11081 0086 DBB2     		uxtb	r3, r3
 11082 0088 002B     		cmp	r3, #0
 11083 008a 01D0     		beq	.L383
2656:.\PrimeImpl.c ****         delimiterindex = 0x00;
 11084              		.loc 1 2656 0
 11085 008c 0023     		movs	r3, #0
 11086 008e FB73     		strb	r3, [r7, #15]
 11087              	.L383:
2657:.\PrimeImpl.c ****     
2658:.\PrimeImpl.c ****     int8 shiftcount = (delimiterindex - _g_dispenserlayoutinfo._moneydecimals);
 11088              		.loc 1 2658 0
 11089 0090 334B     		ldr	r3, .L394
 11090 0092 DB79     		ldrb	r3, [r3, #7]	@ zero_extendqisi2
 11091 0094 FA7B     		ldrb	r2, [r7, #15]
 11092 0096 D31A     		subs	r3, r2, r3
 11093 0098 DBB2     		uxtb	r3, r3
 11094 009a 3B73     		strb	r3, [r7, #12]
2659:.\PrimeImpl.c ****     //8 is the size of the allocated buffer space for the preset values according to the protocol.
2660:.\PrimeImpl.c ****     //The real buffer size allocated from the display side is 16 bytes. The buffer will be cast fro
2661:.\PrimeImpl.c ****     //the end to the beginning, so the startup index has been calculated "explicitly", this is (8 -
2662:.\PrimeImpl.c ****     //To multiply by 1000 we need to shift the entire buffer three bytes to shift the comma, so we
2663:.\PrimeImpl.c ****     //will subtract 3 bytes to the starting position in order to make the shifting.
2664:.\PrimeImpl.c ****     if(shiftcount > 0)
 11095              		.loc 1 2664 0
 11096 009c 97F90C30 		ldrsb	r3, [r7, #12]
 11097 00a0 002B     		cmp	r3, #0
 11098 00a2 29DD     		ble	.L384
2665:.\PrimeImpl.c ****     {
2666:.\PrimeImpl.c ****         while(shiftcount > 0)
 11099              		.loc 1 2666 0
ARM GAS  C:\Users\RECEPC~1\AppData\Local\Temp\ccvxjDo6.s 			page 244


 11100 00a4 23E0     		b	.L385
 11101              	.L388:
2667:.\PrimeImpl.c ****         {
2668:.\PrimeImpl.c ****             FOR(index = (buffersize - 1), index > 0, index--)
 11102              		.loc 1 2668 0
 11103 00a6 FB78     		ldrb	r3, [r7, #3]
 11104 00a8 013B     		subs	r3, r3, #1
 11105 00aa DBB2     		uxtb	r3, r3
 11106 00ac 7B73     		strb	r3, [r7, #13]
 11107 00ae 15E0     		b	.L386
 11108              	.L387:
2669:.\PrimeImpl.c ****             {
2670:.\PrimeImpl.c ****                 pbuffer[index] = pbuffer[index - 1];
 11109              		.loc 1 2670 0 discriminator 3
 11110 00b0 97F90D30 		ldrsb	r3, [r7, #13]
 11111 00b4 7A68     		ldr	r2, [r7, #4]
 11112 00b6 1344     		add	r3, r3, r2
 11113 00b8 97F90D20 		ldrsb	r2, [r7, #13]
 11114 00bc 013A     		subs	r2, r2, #1
 11115 00be 7968     		ldr	r1, [r7, #4]
 11116 00c0 0A44     		add	r2, r2, r1
 11117 00c2 1278     		ldrb	r2, [r2]	@ zero_extendqisi2
 11118 00c4 1A70     		strb	r2, [r3]
2671:.\PrimeImpl.c ****                 pbuffer[index] = 0x00;
 11119              		.loc 1 2671 0 discriminator 3
 11120 00c6 97F90D30 		ldrsb	r3, [r7, #13]
 11121 00ca 7A68     		ldr	r2, [r7, #4]
 11122 00cc 1344     		add	r3, r3, r2
 11123 00ce 0022     		movs	r2, #0
 11124 00d0 1A70     		strb	r2, [r3]
2668:.\PrimeImpl.c ****             {
 11125              		.loc 1 2668 0 discriminator 3
 11126 00d2 7B7B     		ldrb	r3, [r7, #13]	@ zero_extendqisi2
 11127 00d4 DBB2     		uxtb	r3, r3
 11128 00d6 013B     		subs	r3, r3, #1
 11129 00d8 DBB2     		uxtb	r3, r3
 11130 00da 7B73     		strb	r3, [r7, #13]
 11131              	.L386:
2668:.\PrimeImpl.c ****             {
 11132              		.loc 1 2668 0 is_stmt 0 discriminator 1
 11133 00dc 97F90D30 		ldrsb	r3, [r7, #13]
 11134 00e0 002B     		cmp	r3, #0
 11135 00e2 E5DC     		bgt	.L387
2672:.\PrimeImpl.c ****             }
2673:.\PrimeImpl.c ****             shiftcount--;
 11136              		.loc 1 2673 0 is_stmt 1
 11137 00e4 3B7B     		ldrb	r3, [r7, #12]	@ zero_extendqisi2
 11138 00e6 DBB2     		uxtb	r3, r3
 11139 00e8 013B     		subs	r3, r3, #1
 11140 00ea DBB2     		uxtb	r3, r3
 11141 00ec 3B73     		strb	r3, [r7, #12]
 11142              	.L385:
2666:.\PrimeImpl.c ****         {
 11143              		.loc 1 2666 0
 11144 00ee 97F90C30 		ldrsb	r3, [r7, #12]
 11145 00f2 002B     		cmp	r3, #0
 11146 00f4 D7DC     		bgt	.L388
ARM GAS  C:\Users\RECEPC~1\AppData\Local\Temp\ccvxjDo6.s 			page 245


 11147 00f6 2DE0     		b	.L377
 11148              	.L384:
2674:.\PrimeImpl.c ****         }
2675:.\PrimeImpl.c ****     }
2676:.\PrimeImpl.c ****     else if(shiftcount < 0)
 11149              		.loc 1 2676 0
 11150 00f8 97F90C30 		ldrsb	r3, [r7, #12]
 11151 00fc 002B     		cmp	r3, #0
 11152 00fe 29DA     		bge	.L377
2677:.\PrimeImpl.c ****     {
2678:.\PrimeImpl.c ****         while(shiftcount < 0)
 11153              		.loc 1 2678 0
 11154 0100 24E0     		b	.L390
 11155              	.L393:
2679:.\PrimeImpl.c ****         {
2680:.\PrimeImpl.c ****             FOR(index = 0, index < (buffersize  - 1), index++)
 11156              		.loc 1 2680 0
 11157 0102 0023     		movs	r3, #0
 11158 0104 7B73     		strb	r3, [r7, #13]
 11159 0106 16E0     		b	.L391
 11160              	.L392:
2681:.\PrimeImpl.c ****             {
2682:.\PrimeImpl.c ****                 pbuffer[index] = pbuffer[index + 1];
 11161              		.loc 1 2682 0 discriminator 3
 11162 0108 97F90D30 		ldrsb	r3, [r7, #13]
 11163 010c 7A68     		ldr	r2, [r7, #4]
 11164 010e 1344     		add	r3, r3, r2
 11165 0110 97F90D20 		ldrsb	r2, [r7, #13]
 11166 0114 0132     		adds	r2, r2, #1
 11167 0116 7968     		ldr	r1, [r7, #4]
 11168 0118 0A44     		add	r2, r2, r1
 11169 011a 1278     		ldrb	r2, [r2]	@ zero_extendqisi2
 11170 011c 1A70     		strb	r2, [r3]
2683:.\PrimeImpl.c ****                 pbuffer[index + 1] = 0x30;
 11171              		.loc 1 2683 0 discriminator 3
 11172 011e 97F90D30 		ldrsb	r3, [r7, #13]
 11173 0122 0133     		adds	r3, r3, #1
 11174 0124 7A68     		ldr	r2, [r7, #4]
 11175 0126 1344     		add	r3, r3, r2
 11176 0128 3022     		movs	r2, #48
 11177 012a 1A70     		strb	r2, [r3]
2680:.\PrimeImpl.c ****             {
 11178              		.loc 1 2680 0 discriminator 3
 11179 012c 7B7B     		ldrb	r3, [r7, #13]	@ zero_extendqisi2
 11180 012e DBB2     		uxtb	r3, r3
 11181 0130 0133     		adds	r3, r3, #1
 11182 0132 DBB2     		uxtb	r3, r3
 11183 0134 7B73     		strb	r3, [r7, #13]
 11184              	.L391:
2680:.\PrimeImpl.c ****             {
 11185              		.loc 1 2680 0 is_stmt 0 discriminator 1
 11186 0136 97F90D20 		ldrsb	r2, [r7, #13]
 11187 013a FB78     		ldrb	r3, [r7, #3]	@ zero_extendqisi2
 11188 013c 013B     		subs	r3, r3, #1
 11189 013e 9A42     		cmp	r2, r3
 11190 0140 E2DB     		blt	.L392
2684:.\PrimeImpl.c ****             }
ARM GAS  C:\Users\RECEPC~1\AppData\Local\Temp\ccvxjDo6.s 			page 246


2685:.\PrimeImpl.c ****             shiftcount++;
 11191              		.loc 1 2685 0 is_stmt 1
 11192 0142 3B7B     		ldrb	r3, [r7, #12]	@ zero_extendqisi2
 11193 0144 DBB2     		uxtb	r3, r3
 11194 0146 0133     		adds	r3, r3, #1
 11195 0148 DBB2     		uxtb	r3, r3
 11196 014a 3B73     		strb	r3, [r7, #12]
 11197              	.L390:
2678:.\PrimeImpl.c ****         {
 11198              		.loc 1 2678 0
 11199 014c 97F90C30 		ldrsb	r3, [r7, #12]
 11200 0150 002B     		cmp	r3, #0
 11201 0152 D6DB     		blt	.L393
 11202              	.L377:
2686:.\PrimeImpl.c ****         }
2687:.\PrimeImpl.c ****     }
2688:.\PrimeImpl.c **** }
 11203              		.loc 1 2688 0
 11204 0154 1437     		adds	r7, r7, #20
 11205              		.cfi_def_cfa_offset 4
 11206 0156 BD46     		mov	sp, r7
 11207              		.cfi_def_cfa_register 13
 11208              		@ sp needed
 11209 0158 5DF8047B 		ldr	r7, [sp], #4
 11210              		.cfi_restore 7
 11211              		.cfi_def_cfa_offset 0
 11212 015c 7047     		bx	lr
 11213              	.L395:
 11214 015e 00BF     		.align	2
 11215              	.L394:
 11216 0160 00000000 		.word	_g_dispenserlayoutinfo
 11217              		.cfi_endproc
 11218              	.LFE116:
 11219              		.size	CastMoneyValue, .-CastMoneyValue
 11220              		.global	_g_sfcharmap
 11221              		.data
 11222              		.align	2
 11223              		.type	_g_sfcharmap, %object
 11224              		.size	_g_sfcharmap, 32
 11225              	_g_sfcharmap:
 11226 0000 B1       		.byte	-79
 11227 0001 01       		.byte	1
 11228 0002 B2       		.byte	-78
 11229 0003 02       		.byte	2
 11230 0004 B3       		.byte	-77
 11231 0005 03       		.byte	3
 11232 0006 B4       		.byte	-76
 11233 0007 04       		.byte	4
 11234 0008 B5       		.byte	-75
 11235 0009 05       		.byte	5
 11236 000a B6       		.byte	-74
 11237 000b 06       		.byte	6
 11238 000c B7       		.byte	-73
 11239 000d 07       		.byte	7
 11240 000e B8       		.byte	-72
 11241 000f 08       		.byte	8
 11242 0010 B9       		.byte	-71
ARM GAS  C:\Users\RECEPC~1\AppData\Local\Temp\ccvxjDo6.s 			page 247


 11243 0011 09       		.byte	9
 11244 0012 C1       		.byte	-63
 11245 0013 0A       		.byte	10
 11246 0014 C2       		.byte	-62
 11247 0015 0B       		.byte	11
 11248 0016 C3       		.byte	-61
 11249 0017 0C       		.byte	12
 11250 0018 C4       		.byte	-60
 11251 0019 0D       		.byte	13
 11252 001a C5       		.byte	-59
 11253 001b 0E       		.byte	14
 11254 001c C6       		.byte	-58
 11255 001d 0F       		.byte	15
 11256 001e 00       		.byte	0
 11257 001f 00       		.byte	0
 11258              		.section	.text.TranslateSpecialFuncionDigit,"ax",%progbits
 11259              		.align	2
 11260              		.global	TranslateSpecialFuncionDigit
 11261              		.thumb
 11262              		.thumb_func
 11263              		.type	TranslateSpecialFuncionDigit, %function
 11264              	TranslateSpecialFuncionDigit:
 11265              	.LFB117:
2689:.\PrimeImpl.c **** 
2690:.\PrimeImpl.c **** //This is a char map to translate from the special functions word domain to the normal byte domain
2691:.\PrimeImpl.c **** char8 _g_sfcharmap[][2] = 
2692:.\PrimeImpl.c **** {
2693:.\PrimeImpl.c ****     { 0xB1, 0x01 }, { 0xB2, 0x02 }, { 0xB3, 0x03 }, { 0xB4, 0x04 }, { 0xB5, 0x05 }, { 0xB6, 0x06 },
2694:.\PrimeImpl.c ****     { 0xC1, 0x0A }, { 0xC2, 0x0B }, { 0xC3, 0x0C }, { 0xC4, 0x0D }, { 0xC5, 0x0E }, { 0xC6, 0x0F },
2695:.\PrimeImpl.c **** };
2696:.\PrimeImpl.c **** 
2697:.\PrimeImpl.c **** //@Created By: HIJH
2698:.\PrimeImpl.c **** //@Septembre de 2016
2699:.\PrimeImpl.c **** char8 TranslateSpecialFuncionDigit(char8 refval)
2700:.\PrimeImpl.c **** {
 11266              		.loc 1 2700 0
 11267              		.cfi_startproc
 11268              		@ args = 0, pretend = 0, frame = 16
 11269              		@ frame_needed = 1, uses_anonymous_args = 0
 11270              		@ link register save eliminated.
 11271 0000 80B4     		push	{r7}
 11272              		.cfi_def_cfa_offset 4
 11273              		.cfi_offset 7, -4
 11274 0002 85B0     		sub	sp, sp, #20
 11275              		.cfi_def_cfa_offset 24
 11276 0004 00AF     		add	r7, sp, #0
 11277              		.cfi_def_cfa_register 7
 11278 0006 0346     		mov	r3, r0
 11279 0008 FB71     		strb	r3, [r7, #7]
2701:.\PrimeImpl.c ****     char8 retval = 0x00;
 11280              		.loc 1 2701 0
 11281 000a 0023     		movs	r3, #0
 11282 000c FB73     		strb	r3, [r7, #15]
2702:.\PrimeImpl.c ****     PSTR ptrstr = (PSTR)&_g_sfcharmap[0];
 11283              		.loc 1 2702 0
 11284 000e 0D4B     		ldr	r3, .L402
 11285 0010 BB60     		str	r3, [r7, #8]
ARM GAS  C:\Users\RECEPC~1\AppData\Local\Temp\ccvxjDo6.s 			page 248


2703:.\PrimeImpl.c ****     while(*ptrstr != 0x00)
 11286              		.loc 1 2703 0
 11287 0012 0BE0     		b	.L397
 11288              	.L400:
2704:.\PrimeImpl.c ****     {
2705:.\PrimeImpl.c ****         if(ptrstr[0] == refval)
 11289              		.loc 1 2705 0
 11290 0014 BB68     		ldr	r3, [r7, #8]
 11291 0016 1B78     		ldrb	r3, [r3]	@ zero_extendqisi2
 11292 0018 FA79     		ldrb	r2, [r7, #7]	@ zero_extendqisi2
 11293 001a 9A42     		cmp	r2, r3
 11294 001c 03D1     		bne	.L398
2706:.\PrimeImpl.c ****         {
2707:.\PrimeImpl.c ****             retval = ptrstr[1];
 11295              		.loc 1 2707 0
 11296 001e BB68     		ldr	r3, [r7, #8]
 11297 0020 5B78     		ldrb	r3, [r3, #1]
 11298 0022 FB73     		strb	r3, [r7, #15]
2708:.\PrimeImpl.c ****             break;
 11299              		.loc 1 2708 0
 11300 0024 06E0     		b	.L399
 11301              	.L398:
2709:.\PrimeImpl.c ****         }
2710:.\PrimeImpl.c ****         ptrstr++;
 11302              		.loc 1 2710 0
 11303 0026 BB68     		ldr	r3, [r7, #8]
 11304 0028 0133     		adds	r3, r3, #1
 11305 002a BB60     		str	r3, [r7, #8]
 11306              	.L397:
2703:.\PrimeImpl.c ****     {
 11307              		.loc 1 2703 0
 11308 002c BB68     		ldr	r3, [r7, #8]
 11309 002e 1B78     		ldrb	r3, [r3]	@ zero_extendqisi2
 11310 0030 002B     		cmp	r3, #0
 11311 0032 EFD1     		bne	.L400
 11312              	.L399:
2711:.\PrimeImpl.c ****     }    
2712:.\PrimeImpl.c ****     return retval;
 11313              		.loc 1 2712 0
 11314 0034 FB7B     		ldrb	r3, [r7, #15]	@ zero_extendqisi2
2713:.\PrimeImpl.c **** }
 11315              		.loc 1 2713 0
 11316 0036 1846     		mov	r0, r3
 11317 0038 1437     		adds	r7, r7, #20
 11318              		.cfi_def_cfa_offset 4
 11319 003a BD46     		mov	sp, r7
 11320              		.cfi_def_cfa_register 13
 11321              		@ sp needed
 11322 003c 5DF8047B 		ldr	r7, [sp], #4
 11323              		.cfi_restore 7
 11324              		.cfi_def_cfa_offset 0
 11325 0040 7047     		bx	lr
 11326              	.L403:
 11327 0042 00BF     		.align	2
 11328              	.L402:
 11329 0044 00000000 		.word	_g_sfcharmap
 11330              		.cfi_endproc
ARM GAS  C:\Users\RECEPC~1\AppData\Local\Temp\ccvxjDo6.s 			page 249


 11331              	.LFE117:
 11332              		.size	TranslateSpecialFuncionDigit, .-TranslateSpecialFuncionDigit
 11333              		.bss
 11334              	index.9631:
 11335 0001 00       		.space	1
 11336              		.text
 11337              	.Letext0:
 11338              		.file 2 "c:\\program files (x86)\\cypress\\psoc creator\\3.3\\psoc creator\\import\\gnu\\arm\\4.9.
 11339              		.file 3 "c:\\program files (x86)\\cypress\\psoc creator\\3.3\\psoc creator\\import\\gnu\\arm\\4.9.
 11340              		.file 4 "Generated_Source\\PSoC5/cytypes.h"
 11341              		.file 5 ".\\GlobalDefinitions.h"
 11342              		.file 6 ".\\SinkManager.h"
 11343              		.file 7 ".\\SinkObservables.h"
 11344              		.file 8 ".\\UARTManager.h"
 11345              		.file 9 ".\\Display.h"
 11346              		.file 10 ".\\Prime.h"
 11347              		.file 11 ".\\Dispenser.h"
 11348              		.file 12 ".\\Eeprom.h"
 11349              		.file 13 ".\\RFLink.h"
 11350              		.file 14 ".\\Printer.h"
 11351              		.file 15 "Generated_Source\\PSoC5/core_cm3.h"
 11352              		.section	.debug_info,"",%progbits
 11353              	.Ldebug_info0:
 11354 0000 9F2A0000 		.4byte	0x2a9f
 11355 0004 0400     		.2byte	0x4
 11356 0006 00000000 		.4byte	.Ldebug_abbrev0
 11357 000a 04       		.byte	0x4
 11358 000b 01       		.uleb128 0x1
 11359 000c E3250000 		.4byte	.LASF586
 11360 0010 01       		.byte	0x1
 11361 0011 7A190000 		.4byte	.LASF587
 11362 0015 CD180000 		.4byte	.LASF588
 11363 0019 00000000 		.4byte	.Ldebug_ranges0+0
 11364 001d 00000000 		.4byte	0
 11365 0021 00000000 		.4byte	.Ldebug_line0
 11366 0025 02       		.uleb128 0x2
 11367 0026 01       		.byte	0x1
 11368 0027 06       		.byte	0x6
 11369 0028 530B0000 		.4byte	.LASF0
 11370 002c 03       		.uleb128 0x3
 11371 002d 6A070000 		.4byte	.LASF4
 11372 0031 02       		.byte	0x2
 11373 0032 1D       		.byte	0x1d
 11374 0033 37000000 		.4byte	0x37
 11375 0037 02       		.uleb128 0x2
 11376 0038 01       		.byte	0x1
 11377 0039 08       		.byte	0x8
 11378 003a C90C0000 		.4byte	.LASF1
 11379 003e 02       		.uleb128 0x2
 11380 003f 02       		.byte	0x2
 11381 0040 05       		.byte	0x5
 11382 0041 93240000 		.4byte	.LASF2
 11383 0045 02       		.uleb128 0x2
 11384 0046 02       		.byte	0x2
 11385 0047 07       		.byte	0x7
 11386 0048 CE290000 		.4byte	.LASF3
 11387 004c 03       		.uleb128 0x3
ARM GAS  C:\Users\RECEPC~1\AppData\Local\Temp\ccvxjDo6.s 			page 250


 11388 004d 932A0000 		.4byte	.LASF5
 11389 0051 02       		.byte	0x2
 11390 0052 3F       		.byte	0x3f
 11391 0053 57000000 		.4byte	0x57
 11392 0057 02       		.uleb128 0x2
 11393 0058 04       		.byte	0x4
 11394 0059 05       		.byte	0x5
 11395 005a 97080000 		.4byte	.LASF6
 11396 005e 02       		.uleb128 0x2
 11397 005f 04       		.byte	0x4
 11398 0060 07       		.byte	0x7
 11399 0061 B4140000 		.4byte	.LASF7
 11400 0065 02       		.uleb128 0x2
 11401 0066 08       		.byte	0x8
 11402 0067 05       		.byte	0x5
 11403 0068 9E170000 		.4byte	.LASF8
 11404 006c 02       		.uleb128 0x2
 11405 006d 08       		.byte	0x8
 11406 006e 07       		.byte	0x7
 11407 006f 0E200000 		.4byte	.LASF9
 11408 0073 04       		.uleb128 0x4
 11409 0074 04       		.byte	0x4
 11410 0075 05       		.byte	0x5
 11411 0076 696E7400 		.ascii	"int\000"
 11412 007a 02       		.uleb128 0x2
 11413 007b 04       		.byte	0x4
 11414 007c 07       		.byte	0x7
 11415 007d 9D1A0000 		.4byte	.LASF10
 11416 0081 03       		.uleb128 0x3
 11417 0082 6E0B0000 		.4byte	.LASF11
 11418 0086 03       		.byte	0x3
 11419 0087 15       		.byte	0x15
 11420 0088 2C000000 		.4byte	0x2c
 11421 008c 03       		.uleb128 0x3
 11422 008d 6C020000 		.4byte	.LASF12
 11423 0091 03       		.byte	0x3
 11424 0092 2C       		.byte	0x2c
 11425 0093 4C000000 		.4byte	0x4c
 11426 0097 05       		.uleb128 0x5
 11427 0098 4A240000 		.4byte	.LASF13
 11428 009c 04       		.byte	0x4
 11429 009d 3801     		.2byte	0x138
 11430 009f 37000000 		.4byte	0x37
 11431 00a3 05       		.uleb128 0x5
 11432 00a4 F62B0000 		.4byte	.LASF14
 11433 00a8 04       		.byte	0x4
 11434 00a9 3901     		.2byte	0x139
 11435 00ab 45000000 		.4byte	0x45
 11436 00af 05       		.uleb128 0x5
 11437 00b0 3E030000 		.4byte	.LASF15
 11438 00b4 04       		.byte	0x4
 11439 00b5 3A01     		.2byte	0x13a
 11440 00b7 5E000000 		.4byte	0x5e
 11441 00bb 05       		.uleb128 0x5
 11442 00bc 6D060000 		.4byte	.LASF16
 11443 00c0 04       		.byte	0x4
 11444 00c1 3B01     		.2byte	0x13b
ARM GAS  C:\Users\RECEPC~1\AppData\Local\Temp\ccvxjDo6.s 			page 251


 11445 00c3 25000000 		.4byte	0x25
 11446 00c7 02       		.uleb128 0x2
 11447 00c8 04       		.byte	0x4
 11448 00c9 04       		.byte	0x4
 11449 00ca C8190000 		.4byte	.LASF17
 11450 00ce 02       		.uleb128 0x2
 11451 00cf 08       		.byte	0x8
 11452 00d0 04       		.byte	0x4
 11453 00d1 85180000 		.4byte	.LASF18
 11454 00d5 05       		.uleb128 0x5
 11455 00d6 90080000 		.4byte	.LASF19
 11456 00da 04       		.byte	0x4
 11457 00db 4401     		.2byte	0x144
 11458 00dd 6C000000 		.4byte	0x6c
 11459 00e1 05       		.uleb128 0x5
 11460 00e2 46050000 		.4byte	.LASF20
 11461 00e6 04       		.byte	0x4
 11462 00e7 4901     		.2byte	0x149
 11463 00e9 ED000000 		.4byte	0xed
 11464 00ed 02       		.uleb128 0x2
 11465 00ee 01       		.byte	0x1
 11466 00ef 08       		.byte	0x8
 11467 00f0 5B0E0000 		.4byte	.LASF21
 11468 00f4 06       		.uleb128 0x6
 11469 00f5 97000000 		.4byte	0x97
 11470 00f9 06       		.uleb128 0x6
 11471 00fa A3000000 		.4byte	0xa3
 11472 00fe 06       		.uleb128 0x6
 11473 00ff AF000000 		.4byte	0xaf
 11474 0103 07       		.uleb128 0x7
 11475 0104 04       		.byte	0x4
 11476 0105 09010000 		.4byte	0x109
 11477 0109 08       		.uleb128 0x8
 11478 010a 02       		.uleb128 0x2
 11479 010b 04       		.byte	0x4
 11480 010c 07       		.byte	0x7
 11481 010d D8000000 		.4byte	.LASF22
 11482 0111 09       		.uleb128 0x9
 11483 0112 04       		.byte	0x4
 11484 0113 07       		.uleb128 0x7
 11485 0114 04       		.byte	0x4
 11486 0115 ED000000 		.4byte	0xed
 11487 0119 0A       		.uleb128 0xa
 11488 011a 97000000 		.4byte	0x97
 11489 011e 29010000 		.4byte	0x129
 11490 0122 0B       		.uleb128 0xb
 11491 0123 0A010000 		.4byte	0x10a
 11492 0127 03       		.byte	0x3
 11493 0128 00       		.byte	0
 11494 0129 02       		.uleb128 0x2
 11495 012a 08       		.byte	0x8
 11496 012b 04       		.byte	0x4
 11497 012c 291E0000 		.4byte	.LASF23
 11498 0130 03       		.uleb128 0x3
 11499 0131 F91C0000 		.4byte	.LASF24
 11500 0135 05       		.byte	0x5
 11501 0136 29       		.byte	0x29
ARM GAS  C:\Users\RECEPC~1\AppData\Local\Temp\ccvxjDo6.s 			page 252


 11502 0137 11010000 		.4byte	0x111
 11503 013b 07       		.uleb128 0x7
 11504 013c 04       		.byte	0x4
 11505 013d E1000000 		.4byte	0xe1
 11506 0141 03       		.uleb128 0x3
 11507 0142 5F0B0000 		.4byte	.LASF25
 11508 0146 05       		.byte	0x5
 11509 0147 50       		.byte	0x50
 11510 0148 4C010000 		.4byte	0x14c
 11511 014c 07       		.uleb128 0x7
 11512 014d 04       		.byte	0x4
 11513 014e 97000000 		.4byte	0x97
 11514 0152 0C       		.uleb128 0xc
 11515 0153 E9280000 		.4byte	.LASF34
 11516 0157 01       		.byte	0x1
 11517 0158 06       		.byte	0x6
 11518 0159 3F       		.byte	0x3f
 11519 015a 8F010000 		.4byte	0x18f
 11520 015e 0D       		.uleb128 0xd
 11521 015f 982B0000 		.4byte	.LASF26
 11522 0163 01       		.sleb128 1
 11523 0164 0D       		.uleb128 0xd
 11524 0165 4F1B0000 		.4byte	.LASF27
 11525 0169 02       		.sleb128 2
 11526 016a 0D       		.uleb128 0xd
 11527 016b E51C0000 		.4byte	.LASF28
 11528 016f 03       		.sleb128 3
 11529 0170 0D       		.uleb128 0xd
 11530 0171 AD230000 		.4byte	.LASF29
 11531 0175 04       		.sleb128 4
 11532 0176 0D       		.uleb128 0xd
 11533 0177 00120000 		.4byte	.LASF30
 11534 017b 05       		.sleb128 5
 11535 017c 0D       		.uleb128 0xd
 11536 017d E7260000 		.4byte	.LASF31
 11537 0181 06       		.sleb128 6
 11538 0182 0D       		.uleb128 0xd
 11539 0183 C50E0000 		.4byte	.LASF32
 11540 0187 07       		.sleb128 7
 11541 0188 0D       		.uleb128 0xd
 11542 0189 42140000 		.4byte	.LASF33
 11543 018d 08       		.sleb128 8
 11544 018e 00       		.byte	0
 11545 018f 0C       		.uleb128 0xc
 11546 0190 7E2B0000 		.4byte	.LASF35
 11547 0194 01       		.byte	0x1
 11548 0195 06       		.byte	0x6
 11549 0196 4C       		.byte	0x4c
 11550 0197 AE010000 		.4byte	0x1ae
 11551 019b 0D       		.uleb128 0xd
 11552 019c 8E2B0000 		.4byte	.LASF36
 11553 01a0 01       		.sleb128 1
 11554 01a1 0D       		.uleb128 0xd
 11555 01a2 310E0000 		.4byte	.LASF37
 11556 01a6 02       		.sleb128 2
 11557 01a7 0D       		.uleb128 0xd
 11558 01a8 A5010000 		.4byte	.LASF38
ARM GAS  C:\Users\RECEPC~1\AppData\Local\Temp\ccvxjDo6.s 			page 253


 11559 01ac 03       		.sleb128 3
 11560 01ad 00       		.byte	0
 11561 01ae 0E       		.uleb128 0xe
 11562 01af 58000000 		.4byte	.LASF97
 11563 01b3 9801     		.2byte	0x198
 11564 01b5 06       		.byte	0x6
 11565 01b6 53       		.byte	0x53
 11566 01b7 4F020000 		.4byte	0x24f
 11567 01bb 0F       		.uleb128 0xf
 11568 01bc BE190000 		.4byte	.LASF39
 11569 01c0 06       		.byte	0x6
 11570 01c1 55       		.byte	0x55
 11571 01c2 4F020000 		.4byte	0x24f
 11572 01c6 00       		.byte	0
 11573 01c7 0F       		.uleb128 0xf
 11574 01c8 20240000 		.4byte	.LASF40
 11575 01cc 06       		.byte	0x6
 11576 01cd 56       		.byte	0x56
 11577 01ce F4000000 		.4byte	0xf4
 11578 01d2 01       		.byte	0x1
 11579 01d3 0F       		.uleb128 0xf
 11580 01d4 BF260000 		.4byte	.LASF41
 11581 01d8 06       		.byte	0x6
 11582 01d9 57       		.byte	0x57
 11583 01da F4000000 		.4byte	0xf4
 11584 01de 02       		.byte	0x2
 11585 01df 0F       		.uleb128 0xf
 11586 01e0 51280000 		.4byte	.LASF42
 11587 01e4 06       		.byte	0x6
 11588 01e5 58       		.byte	0x58
 11589 01e6 F4000000 		.4byte	0xf4
 11590 01ea 03       		.byte	0x3
 11591 01eb 0F       		.uleb128 0xf
 11592 01ec D30D0000 		.4byte	.LASF43
 11593 01f0 06       		.byte	0x6
 11594 01f1 5A       		.byte	0x5a
 11595 01f2 F9000000 		.4byte	0xf9
 11596 01f6 04       		.byte	0x4
 11597 01f7 0F       		.uleb128 0xf
 11598 01f8 AC100000 		.4byte	.LASF44
 11599 01fc 06       		.byte	0x6
 11600 01fd 5B       		.byte	0x5b
 11601 01fe F9000000 		.4byte	0xf9
 11602 0202 06       		.byte	0x6
 11603 0203 0F       		.uleb128 0xf
 11604 0204 F4080000 		.4byte	.LASF45
 11605 0208 06       		.byte	0x6
 11606 0209 5C       		.byte	0x5c
 11607 020a F9000000 		.4byte	0xf9
 11608 020e 08       		.byte	0x8
 11609 020f 0F       		.uleb128 0xf
 11610 0210 B4250000 		.4byte	.LASF46
 11611 0214 06       		.byte	0x6
 11612 0215 5D       		.byte	0x5d
 11613 0216 F9000000 		.4byte	0xf9
 11614 021a 0A       		.byte	0xa
 11615 021b 0F       		.uleb128 0xf
ARM GAS  C:\Users\RECEPC~1\AppData\Local\Temp\ccvxjDo6.s 			page 254


 11616 021c FA070000 		.4byte	.LASF47
 11617 0220 06       		.byte	0x6
 11618 0221 5E       		.byte	0x5e
 11619 0222 5B020000 		.4byte	0x25b
 11620 0226 0C       		.byte	0xc
 11621 0227 10       		.uleb128 0x10
 11622 0228 822C0000 		.4byte	.LASF48
 11623 022c 06       		.byte	0x6
 11624 022d 5F       		.byte	0x5f
 11625 022e F9000000 		.4byte	0xf9
 11626 0232 8C01     		.2byte	0x18c
 11627 0234 10       		.uleb128 0x10
 11628 0235 B3150000 		.4byte	.LASF49
 11629 0239 06       		.byte	0x6
 11630 023a 62       		.byte	0x62
 11631 023b 11010000 		.4byte	0x111
 11632 023f 9001     		.2byte	0x190
 11633 0241 10       		.uleb128 0x10
 11634 0242 07160000 		.4byte	.LASF50
 11635 0246 06       		.byte	0x6
 11636 0247 63       		.byte	0x63
 11637 0248 77020000 		.4byte	0x277
 11638 024c 9401     		.2byte	0x194
 11639 024e 00       		.byte	0
 11640 024f 06       		.uleb128 0x6
 11641 0250 54020000 		.4byte	0x254
 11642 0254 02       		.uleb128 0x2
 11643 0255 01       		.byte	0x1
 11644 0256 02       		.byte	0x2
 11645 0257 F10D0000 		.4byte	.LASF51
 11646 025b 0A       		.uleb128 0xa
 11647 025c E1000000 		.4byte	0xe1
 11648 0260 6C020000 		.4byte	0x26c
 11649 0264 11       		.uleb128 0x11
 11650 0265 0A010000 		.4byte	0x10a
 11651 0269 7F01     		.2byte	0x17f
 11652 026b 00       		.byte	0
 11653 026c 12       		.uleb128 0x12
 11654 026d 77020000 		.4byte	0x277
 11655 0271 13       		.uleb128 0x13
 11656 0272 11010000 		.4byte	0x111
 11657 0276 00       		.byte	0
 11658 0277 07       		.uleb128 0x7
 11659 0278 04       		.byte	0x4
 11660 0279 6C020000 		.4byte	0x26c
 11661 027d 03       		.uleb128 0x3
 11662 027e 101B0000 		.4byte	.LASF52
 11663 0282 06       		.byte	0x6
 11664 0283 64       		.byte	0x64
 11665 0284 88020000 		.4byte	0x288
 11666 0288 07       		.uleb128 0x7
 11667 0289 04       		.byte	0x4
 11668 028a AE010000 		.4byte	0x1ae
 11669 028e 0C       		.uleb128 0xc
 11670 028f 48080000 		.4byte	.LASF53
 11671 0293 01       		.byte	0x1
 11672 0294 07       		.byte	0x7
ARM GAS  C:\Users\RECEPC~1\AppData\Local\Temp\ccvxjDo6.s 			page 255


 11673 0295 0F       		.byte	0xf
 11674 0296 9D030000 		.4byte	0x39d
 11675 029a 0D       		.uleb128 0xd
 11676 029b E01D0000 		.4byte	.LASF54
 11677 029f 01       		.sleb128 1
 11678 02a0 0D       		.uleb128 0xd
 11679 02a1 3C220000 		.4byte	.LASF55
 11680 02a5 02       		.sleb128 2
 11681 02a6 0D       		.uleb128 0xd
 11682 02a7 EA020000 		.4byte	.LASF56
 11683 02ab 03       		.sleb128 3
 11684 02ac 0D       		.uleb128 0xd
 11685 02ad A7200000 		.4byte	.LASF57
 11686 02b1 04       		.sleb128 4
 11687 02b2 0D       		.uleb128 0xd
 11688 02b3 51020000 		.4byte	.LASF58
 11689 02b7 05       		.sleb128 5
 11690 02b8 0D       		.uleb128 0xd
 11691 02b9 82050000 		.4byte	.LASF59
 11692 02bd 06       		.sleb128 6
 11693 02be 0D       		.uleb128 0xd
 11694 02bf 25180000 		.4byte	.LASF60
 11695 02c3 07       		.sleb128 7
 11696 02c4 0D       		.uleb128 0xd
 11697 02c5 FF000000 		.4byte	.LASF61
 11698 02c9 08       		.sleb128 8
 11699 02ca 0D       		.uleb128 0xd
 11700 02cb 10160000 		.4byte	.LASF62
 11701 02cf 09       		.sleb128 9
 11702 02d0 0D       		.uleb128 0xd
 11703 02d1 D1080000 		.4byte	.LASF63
 11704 02d5 0A       		.sleb128 10
 11705 02d6 0D       		.uleb128 0xd
 11706 02d7 800A0000 		.4byte	.LASF64
 11707 02db 0B       		.sleb128 11
 11708 02dc 0D       		.uleb128 0xd
 11709 02dd 07040000 		.4byte	.LASF65
 11710 02e1 0C       		.sleb128 12
 11711 02e2 0D       		.uleb128 0xd
 11712 02e3 0C210000 		.4byte	.LASF66
 11713 02e7 0D       		.sleb128 13
 11714 02e8 0D       		.uleb128 0xd
 11715 02e9 6A250000 		.4byte	.LASF67
 11716 02ed 0E       		.sleb128 14
 11717 02ee 0D       		.uleb128 0xd
 11718 02ef A70D0000 		.4byte	.LASF68
 11719 02f3 0F       		.sleb128 15
 11720 02f4 0D       		.uleb128 0xd
 11721 02f5 4F090000 		.4byte	.LASF69
 11722 02f9 10       		.sleb128 16
 11723 02fa 0D       		.uleb128 0xd
 11724 02fb F8280000 		.4byte	.LASF70
 11725 02ff 11       		.sleb128 17
 11726 0300 0D       		.uleb128 0xd
 11727 0301 EE240000 		.4byte	.LASF71
 11728 0305 12       		.sleb128 18
 11729 0306 0D       		.uleb128 0xd
ARM GAS  C:\Users\RECEPC~1\AppData\Local\Temp\ccvxjDo6.s 			page 256


 11730 0307 69050000 		.4byte	.LASF72
 11731 030b 13       		.sleb128 19
 11732 030c 0D       		.uleb128 0xd
 11733 030d 001D0000 		.4byte	.LASF73
 11734 0311 14       		.sleb128 20
 11735 0312 0D       		.uleb128 0xd
 11736 0313 0E090000 		.4byte	.LASF74
 11737 0317 15       		.sleb128 21
 11738 0318 0D       		.uleb128 0xd
 11739 0319 59170000 		.4byte	.LASF75
 11740 031d 16       		.sleb128 22
 11741 031e 0D       		.uleb128 0xd
 11742 031f 67100000 		.4byte	.LASF76
 11743 0323 17       		.sleb128 23
 11744 0324 0D       		.uleb128 0xd
 11745 0325 4C060000 		.4byte	.LASF77
 11746 0329 18       		.sleb128 24
 11747 032a 0D       		.uleb128 0xd
 11748 032b 4B2A0000 		.4byte	.LASF78
 11749 032f 19       		.sleb128 25
 11750 0330 0D       		.uleb128 0xd
 11751 0331 12230000 		.4byte	.LASF79
 11752 0335 1A       		.sleb128 26
 11753 0336 0D       		.uleb128 0xd
 11754 0337 A50A0000 		.4byte	.LASF80
 11755 033b 1B       		.sleb128 27
 11756 033c 0D       		.uleb128 0xd
 11757 033d B9120000 		.4byte	.LASF81
 11758 0341 1C       		.sleb128 28
 11759 0342 0D       		.uleb128 0xd
 11760 0343 682C0000 		.4byte	.LASF82
 11761 0347 1D       		.sleb128 29
 11762 0348 0D       		.uleb128 0xd
 11763 0349 CF280000 		.4byte	.LASF83
 11764 034d 1E       		.sleb128 30
 11765 034e 0D       		.uleb128 0xd
 11766 034f 2B250000 		.4byte	.LASF84
 11767 0353 1F       		.sleb128 31
 11768 0354 0D       		.uleb128 0xd
 11769 0355 CA030000 		.4byte	.LASF85
 11770 0359 20       		.sleb128 32
 11771 035a 0D       		.uleb128 0xd
 11772 035b 9D0C0000 		.4byte	.LASF86
 11773 035f 21       		.sleb128 33
 11774 0360 0D       		.uleb128 0xd
 11775 0361 E4070000 		.4byte	.LASF87
 11776 0365 22       		.sleb128 34
 11777 0366 0D       		.uleb128 0xd
 11778 0367 58240000 		.4byte	.LASF88
 11779 036b 23       		.sleb128 35
 11780 036c 0D       		.uleb128 0xd
 11781 036d D60E0000 		.4byte	.LASF89
 11782 0371 24       		.sleb128 36
 11783 0372 0D       		.uleb128 0xd
 11784 0373 5B0A0000 		.4byte	.LASF90
 11785 0377 25       		.sleb128 37
 11786 0378 0D       		.uleb128 0xd
ARM GAS  C:\Users\RECEPC~1\AppData\Local\Temp\ccvxjDo6.s 			page 257


 11787 0379 A5280000 		.4byte	.LASF91
 11788 037d 26       		.sleb128 38
 11789 037e 0D       		.uleb128 0xd
 11790 037f CC020000 		.4byte	.LASF92
 11791 0383 27       		.sleb128 39
 11792 0384 0D       		.uleb128 0xd
 11793 0385 B12B0000 		.4byte	.LASF93
 11794 0389 28       		.sleb128 40
 11795 038a 0D       		.uleb128 0xd
 11796 038b BF1C0000 		.4byte	.LASF94
 11797 038f 29       		.sleb128 41
 11798 0390 0D       		.uleb128 0xd
 11799 0391 4C050000 		.4byte	.LASF95
 11800 0395 2A       		.sleb128 42
 11801 0396 0D       		.uleb128 0xd
 11802 0397 27170000 		.4byte	.LASF96
 11803 039b 2B       		.sleb128 43
 11804 039c 00       		.byte	0
 11805 039d 14       		.uleb128 0x14
 11806 039e 591B0000 		.4byte	.LASF98
 11807 03a2 4C       		.byte	0x4c
 11808 03a3 08       		.byte	0x8
 11809 03a4 2C       		.byte	0x2c
 11810 03a5 8E040000 		.4byte	0x48e
 11811 03a9 0F       		.uleb128 0xf
 11812 03aa 39210000 		.4byte	.LASF99
 11813 03ae 08       		.byte	0x8
 11814 03af 2E       		.byte	0x2e
 11815 03b0 97000000 		.4byte	0x97
 11816 03b4 00       		.byte	0
 11817 03b5 0F       		.uleb128 0xf
 11818 03b6 5B110000 		.4byte	.LASF100
 11819 03ba 08       		.byte	0x8
 11820 03bb 31       		.byte	0x31
 11821 03bc 77020000 		.4byte	0x277
 11822 03c0 04       		.byte	0x4
 11823 03c1 0F       		.uleb128 0xf
 11824 03c2 991E0000 		.4byte	.LASF101
 11825 03c6 08       		.byte	0x8
 11826 03c7 34       		.byte	0x34
 11827 03c8 03010000 		.4byte	0x103
 11828 03cc 08       		.byte	0x8
 11829 03cd 0F       		.uleb128 0xf
 11830 03ce 22040000 		.4byte	.LASF102
 11831 03d2 08       		.byte	0x8
 11832 03d3 35       		.byte	0x35
 11833 03d4 03010000 		.4byte	0x103
 11834 03d8 0C       		.byte	0xc
 11835 03d9 0F       		.uleb128 0xf
 11836 03da BC200000 		.4byte	.LASF103
 11837 03de 08       		.byte	0x8
 11838 03df 36       		.byte	0x36
 11839 03e0 93040000 		.4byte	0x493
 11840 03e4 10       		.byte	0x10
 11841 03e5 0F       		.uleb128 0xf
 11842 03e6 AA1C0000 		.4byte	.LASF104
 11843 03ea 08       		.byte	0x8
ARM GAS  C:\Users\RECEPC~1\AppData\Local\Temp\ccvxjDo6.s 			page 258


 11844 03eb 37       		.byte	0x37
 11845 03ec A4040000 		.4byte	0x4a4
 11846 03f0 14       		.byte	0x14
 11847 03f1 0F       		.uleb128 0xf
 11848 03f2 8C250000 		.4byte	.LASF105
 11849 03f6 08       		.byte	0x8
 11850 03f7 39       		.byte	0x39
 11851 03f8 93040000 		.4byte	0x493
 11852 03fc 18       		.byte	0x18
 11853 03fd 0F       		.uleb128 0xf
 11854 03fe 570F0000 		.4byte	.LASF106
 11855 0402 08       		.byte	0x8
 11856 0403 3A       		.byte	0x3a
 11857 0404 93040000 		.4byte	0x493
 11858 0408 1C       		.byte	0x1c
 11859 0409 0F       		.uleb128 0xf
 11860 040a D10B0000 		.4byte	.LASF107
 11861 040e 08       		.byte	0x8
 11862 040f 3B       		.byte	0x3b
 11863 0410 93040000 		.4byte	0x493
 11864 0414 20       		.byte	0x20
 11865 0415 0F       		.uleb128 0xf
 11866 0416 EC210000 		.4byte	.LASF108
 11867 041a 08       		.byte	0x8
 11868 041b 3C       		.byte	0x3c
 11869 041c AF040000 		.4byte	0x4af
 11870 0420 24       		.byte	0x24
 11871 0421 0F       		.uleb128 0xf
 11872 0422 271D0000 		.4byte	.LASF109
 11873 0426 08       		.byte	0x8
 11874 0427 3D       		.byte	0x3d
 11875 0428 AF040000 		.4byte	0x4af
 11876 042c 28       		.byte	0x28
 11877 042d 0F       		.uleb128 0xf
 11878 042e C30B0000 		.4byte	.LASF110
 11879 0432 08       		.byte	0x8
 11880 0433 3E       		.byte	0x3e
 11881 0434 03010000 		.4byte	0x103
 11882 0438 2C       		.byte	0x2c
 11883 0439 0F       		.uleb128 0xf
 11884 043a 250E0000 		.4byte	.LASF111
 11885 043e 08       		.byte	0x8
 11886 043f 40       		.byte	0x40
 11887 0440 A4040000 		.4byte	0x4a4
 11888 0444 30       		.byte	0x30
 11889 0445 0F       		.uleb128 0xf
 11890 0446 AA1A0000 		.4byte	.LASF112
 11891 044a 08       		.byte	0x8
 11892 044b 41       		.byte	0x41
 11893 044c 93040000 		.4byte	0x493
 11894 0450 34       		.byte	0x34
 11895 0451 0F       		.uleb128 0xf
 11896 0452 50240000 		.4byte	.LASF113
 11897 0456 08       		.byte	0x8
 11898 0457 42       		.byte	0x42
 11899 0458 A4040000 		.4byte	0x4a4
 11900 045c 38       		.byte	0x38
ARM GAS  C:\Users\RECEPC~1\AppData\Local\Temp\ccvxjDo6.s 			page 259


 11901 045d 0F       		.uleb128 0xf
 11902 045e 1C110000 		.4byte	.LASF114
 11903 0462 08       		.byte	0x8
 11904 0463 43       		.byte	0x43
 11905 0464 CB040000 		.4byte	0x4cb
 11906 0468 3C       		.byte	0x3c
 11907 0469 0F       		.uleb128 0xf
 11908 046a 37200000 		.4byte	.LASF115
 11909 046e 08       		.byte	0x8
 11910 046f 44       		.byte	0x44
 11911 0470 EC040000 		.4byte	0x4ec
 11912 0474 40       		.byte	0x40
 11913 0475 0F       		.uleb128 0xf
 11914 0476 D50F0000 		.4byte	.LASF116
 11915 047a 08       		.byte	0x8
 11916 047b 45       		.byte	0x45
 11917 047c A4040000 		.4byte	0x4a4
 11918 0480 44       		.byte	0x44
 11919 0481 0F       		.uleb128 0xf
 11920 0482 77180000 		.4byte	.LASF117
 11921 0486 08       		.byte	0x8
 11922 0487 46       		.byte	0x46
 11923 0488 03010000 		.4byte	0x103
 11924 048c 48       		.byte	0x48
 11925 048d 00       		.byte	0
 11926 048e 15       		.uleb128 0x15
 11927 048f 97000000 		.4byte	0x97
 11928 0493 07       		.uleb128 0x7
 11929 0494 04       		.byte	0x4
 11930 0495 8E040000 		.4byte	0x48e
 11931 0499 12       		.uleb128 0x12
 11932 049a A4040000 		.4byte	0x4a4
 11933 049e 13       		.uleb128 0x13
 11934 049f 97000000 		.4byte	0x97
 11935 04a3 00       		.byte	0
 11936 04a4 07       		.uleb128 0x7
 11937 04a5 04       		.byte	0x4
 11938 04a6 99040000 		.4byte	0x499
 11939 04aa 15       		.uleb128 0x15
 11940 04ab A3000000 		.4byte	0xa3
 11941 04af 07       		.uleb128 0x7
 11942 04b0 04       		.byte	0x4
 11943 04b1 AA040000 		.4byte	0x4aa
 11944 04b5 12       		.uleb128 0x12
 11945 04b6 C0040000 		.4byte	0x4c0
 11946 04ba 13       		.uleb128 0x13
 11947 04bb C0040000 		.4byte	0x4c0
 11948 04bf 00       		.byte	0
 11949 04c0 07       		.uleb128 0x7
 11950 04c1 04       		.byte	0x4
 11951 04c2 C6040000 		.4byte	0x4c6
 11952 04c6 16       		.uleb128 0x16
 11953 04c7 E1000000 		.4byte	0xe1
 11954 04cb 07       		.uleb128 0x7
 11955 04cc 04       		.byte	0x4
 11956 04cd B5040000 		.4byte	0x4b5
 11957 04d1 12       		.uleb128 0x12
ARM GAS  C:\Users\RECEPC~1\AppData\Local\Temp\ccvxjDo6.s 			page 260


 11958 04d2 E1040000 		.4byte	0x4e1
 11959 04d6 13       		.uleb128 0x13
 11960 04d7 E1040000 		.4byte	0x4e1
 11961 04db 13       		.uleb128 0x13
 11962 04dc 97000000 		.4byte	0x97
 11963 04e0 00       		.byte	0
 11964 04e1 07       		.uleb128 0x7
 11965 04e2 04       		.byte	0x4
 11966 04e3 E7040000 		.4byte	0x4e7
 11967 04e7 16       		.uleb128 0x16
 11968 04e8 97000000 		.4byte	0x97
 11969 04ec 07       		.uleb128 0x7
 11970 04ed 04       		.byte	0x4
 11971 04ee D1040000 		.4byte	0x4d1
 11972 04f2 03       		.uleb128 0x3
 11973 04f3 27040000 		.4byte	.LASF118
 11974 04f7 08       		.byte	0x8
 11975 04f8 48       		.byte	0x48
 11976 04f9 9D030000 		.4byte	0x39d
 11977 04fd 0C       		.uleb128 0xc
 11978 04fe 38070000 		.4byte	.LASF119
 11979 0502 01       		.byte	0x1
 11980 0503 08       		.byte	0x8
 11981 0504 51       		.byte	0x51
 11982 0505 1F050000 		.4byte	0x51f
 11983 0509 0D       		.uleb128 0xd
 11984 050a 770D0000 		.4byte	.LASF120
 11985 050e C001     		.sleb128 192
 11986 0510 0D       		.uleb128 0xd
 11987 0511 40240000 		.4byte	.LASF121
 11988 0515 C101     		.sleb128 193
 11989 0517 0D       		.uleb128 0xd
 11990 0518 950C0000 		.4byte	.LASF122
 11991 051c C201     		.sleb128 194
 11992 051e 00       		.byte	0
 11993 051f 0E       		.uleb128 0xe
 11994 0520 9F1E0000 		.4byte	.LASF123
 11995 0524 0C01     		.2byte	0x10c
 11996 0526 08       		.byte	0x8
 11997 0527 59       		.byte	0x59
 11998 0528 6B050000 		.4byte	0x56b
 11999 052c 0F       		.uleb128 0xf
 12000 052d 51280000 		.4byte	.LASF42
 12001 0531 08       		.byte	0x8
 12002 0532 5B       		.byte	0x5b
 12003 0533 F4000000 		.4byte	0xf4
 12004 0537 00       		.byte	0
 12005 0538 0F       		.uleb128 0xf
 12006 0539 1C010000 		.4byte	.LASF124
 12007 053d 08       		.byte	0x8
 12008 053e 5C       		.byte	0x5c
 12009 053f F9000000 		.4byte	0xf9
 12010 0543 02       		.byte	0x2
 12011 0544 0F       		.uleb128 0xf
 12012 0545 F5040000 		.4byte	.LASF125
 12013 0549 08       		.byte	0x8
 12014 054a 5D       		.byte	0x5d
ARM GAS  C:\Users\RECEPC~1\AppData\Local\Temp\ccvxjDo6.s 			page 261


 12015 054b 6B050000 		.4byte	0x56b
 12016 054f 04       		.byte	0x4
 12017 0550 10       		.uleb128 0x10
 12018 0551 0A2A0000 		.4byte	.LASF126
 12019 0555 08       		.byte	0x8
 12020 0556 5E       		.byte	0x5e
 12021 0557 8B050000 		.4byte	0x58b
 12022 055b 0401     		.2byte	0x104
 12023 055d 10       		.uleb128 0x10
 12024 055e 322C0000 		.4byte	.LASF127
 12025 0562 08       		.byte	0x8
 12026 0563 60       		.byte	0x60
 12027 0564 91050000 		.4byte	0x591
 12028 0568 0801     		.2byte	0x108
 12029 056a 00       		.byte	0
 12030 056b 0A       		.uleb128 0xa
 12031 056c E1000000 		.4byte	0xe1
 12032 0570 7B050000 		.4byte	0x57b
 12033 0574 0B       		.uleb128 0xb
 12034 0575 0A010000 		.4byte	0x10a
 12035 0579 FF       		.byte	0xff
 12036 057a 00       		.byte	0
 12037 057b 12       		.uleb128 0x12
 12038 057c 8B050000 		.4byte	0x58b
 12039 0580 13       		.uleb128 0x13
 12040 0581 97000000 		.4byte	0x97
 12041 0585 13       		.uleb128 0x13
 12042 0586 3B010000 		.4byte	0x13b
 12043 058a 00       		.byte	0
 12044 058b 07       		.uleb128 0x7
 12045 058c 04       		.byte	0x4
 12046 058d 7B050000 		.4byte	0x57b
 12047 0591 07       		.uleb128 0x7
 12048 0592 04       		.byte	0x4
 12049 0593 F2040000 		.4byte	0x4f2
 12050 0597 03       		.uleb128 0x3
 12051 0598 051F0000 		.4byte	.LASF128
 12052 059c 08       		.byte	0x8
 12053 059d 61       		.byte	0x61
 12054 059e A2050000 		.4byte	0x5a2
 12055 05a2 07       		.uleb128 0x7
 12056 05a3 04       		.byte	0x4
 12057 05a4 1F050000 		.4byte	0x51f
 12058 05a8 0C       		.uleb128 0xc
 12059 05a9 C9250000 		.4byte	.LASF129
 12060 05ad 01       		.byte	0x1
 12061 05ae 08       		.byte	0x8
 12062 05af 6D       		.byte	0x6d
 12063 05b0 DF050000 		.4byte	0x5df
 12064 05b4 0D       		.uleb128 0xd
 12065 05b5 64020000 		.4byte	.LASF130
 12066 05b9 A001     		.sleb128 160
 12067 05bb 0D       		.uleb128 0xd
 12068 05bc 110F0000 		.4byte	.LASF131
 12069 05c0 A101     		.sleb128 161
 12070 05c2 0D       		.uleb128 0xd
 12071 05c3 96160000 		.4byte	.LASF132
ARM GAS  C:\Users\RECEPC~1\AppData\Local\Temp\ccvxjDo6.s 			page 262


 12072 05c7 A201     		.sleb128 162
 12073 05c9 0D       		.uleb128 0xd
 12074 05ca C7090000 		.4byte	.LASF133
 12075 05ce A301     		.sleb128 163
 12076 05d0 0D       		.uleb128 0xd
 12077 05d1 D5090000 		.4byte	.LASF134
 12078 05d5 A401     		.sleb128 164
 12079 05d7 0D       		.uleb128 0xd
 12080 05d8 E31B0000 		.4byte	.LASF135
 12081 05dc A501     		.sleb128 165
 12082 05de 00       		.byte	0
 12083 05df 0C       		.uleb128 0xc
 12084 05e0 BC080000 		.4byte	.LASF136
 12085 05e4 01       		.byte	0x1
 12086 05e5 09       		.byte	0x9
 12087 05e6 21       		.byte	0x21
 12088 05e7 52070000 		.4byte	0x752
 12089 05eb 0D       		.uleb128 0xd
 12090 05ec D0110000 		.4byte	.LASF137
 12091 05f0 01       		.sleb128 1
 12092 05f1 0D       		.uleb128 0xd
 12093 05f2 E0110000 		.4byte	.LASF138
 12094 05f6 02       		.sleb128 2
 12095 05f7 0D       		.uleb128 0xd
 12096 05f8 F0110000 		.4byte	.LASF139
 12097 05fc 03       		.sleb128 3
 12098 05fd 0D       		.uleb128 0xd
 12099 05fe EE1F0000 		.4byte	.LASF140
 12100 0602 04       		.sleb128 4
 12101 0603 0D       		.uleb128 0xd
 12102 0604 01110000 		.4byte	.LASF141
 12103 0608 05       		.sleb128 5
 12104 0609 0D       		.uleb128 0xd
 12105 060a EF0C0000 		.4byte	.LASF142
 12106 060e 06       		.sleb128 6
 12107 060f 0D       		.uleb128 0xd
 12108 0610 AB070000 		.4byte	.LASF143
 12109 0614 0F       		.sleb128 15
 12110 0615 0D       		.uleb128 0xd
 12111 0616 2C190000 		.4byte	.LASF144
 12112 061a FE00     		.sleb128 126
 12113 061c 0D       		.uleb128 0xd
 12114 061d 49190000 		.4byte	.LASF145
 12115 0621 8601     		.sleb128 134
 12116 0623 0D       		.uleb128 0xd
 12117 0624 76010000 		.4byte	.LASF146
 12118 0628 07       		.sleb128 7
 12119 0629 0D       		.uleb128 0xd
 12120 062a D0220000 		.4byte	.LASF147
 12121 062e 08       		.sleb128 8
 12122 062f 0D       		.uleb128 0xd
 12123 0630 39100000 		.4byte	.LASF148
 12124 0634 09       		.sleb128 9
 12125 0635 0D       		.uleb128 0xd
 12126 0636 3A1B0000 		.4byte	.LASF149
 12127 063a 0A       		.sleb128 10
 12128 063b 0D       		.uleb128 0xd
ARM GAS  C:\Users\RECEPC~1\AppData\Local\Temp\ccvxjDo6.s 			page 263


 12129 063c DB170000 		.4byte	.LASF150
 12130 0640 0B       		.sleb128 11
 12131 0641 0D       		.uleb128 0xd
 12132 0642 6E170000 		.4byte	.LASF151
 12133 0646 25       		.sleb128 37
 12134 0647 0D       		.uleb128 0xd
 12135 0648 B5180000 		.4byte	.LASF152
 12136 064c 26       		.sleb128 38
 12137 064d 0D       		.uleb128 0xd
 12138 064e 88190000 		.4byte	.LASF153
 12139 0652 27       		.sleb128 39
 12140 0653 0D       		.uleb128 0xd
 12141 0654 561F0000 		.4byte	.LASF154
 12142 0658 2F       		.sleb128 47
 12143 0659 0D       		.uleb128 0xd
 12144 065a A20B0000 		.4byte	.LASF155
 12145 065e 2C       		.sleb128 44
 12146 065f 0D       		.uleb128 0xd
 12147 0660 F9170000 		.4byte	.LASF156
 12148 0664 0C       		.sleb128 12
 12149 0665 0D       		.uleb128 0xd
 12150 0666 8F0B0000 		.4byte	.LASF157
 12151 066a 8501     		.sleb128 133
 12152 066c 0D       		.uleb128 0xd
 12153 066d F71A0000 		.4byte	.LASF158
 12154 0671 1C       		.sleb128 28
 12155 0672 0D       		.uleb128 0xd
 12156 0673 951F0000 		.4byte	.LASF159
 12157 0677 12       		.sleb128 18
 12158 0678 0D       		.uleb128 0xd
 12159 0679 A5160000 		.4byte	.LASF160
 12160 067d 13       		.sleb128 19
 12161 067e 0D       		.uleb128 0xd
 12162 067f 8A260000 		.4byte	.LASF161
 12163 0683 24       		.sleb128 36
 12164 0684 0D       		.uleb128 0xd
 12165 0685 92230000 		.4byte	.LASF162
 12166 0689 0D       		.sleb128 13
 12167 068a 0D       		.uleb128 0xd
 12168 068b 110A0000 		.4byte	.LASF163
 12169 068f 0E       		.sleb128 14
 12170 0690 0D       		.uleb128 0xd
 12171 0691 CA1E0000 		.4byte	.LASF164
 12172 0695 8301     		.sleb128 131
 12173 0697 0D       		.uleb128 0xd
 12174 0698 DD040000 		.4byte	.LASF165
 12175 069c DA00     		.sleb128 90
 12176 069e 0D       		.uleb128 0xd
 12177 069f 4C030000 		.4byte	.LASF166
 12178 06a3 31       		.sleb128 49
 12179 06a4 0D       		.uleb128 0xd
 12180 06a5 38150000 		.4byte	.LASF167
 12181 06a9 35       		.sleb128 53
 12182 06aa 0D       		.uleb128 0xd
 12183 06ab 790C0000 		.4byte	.LASF168
 12184 06af 2E       		.sleb128 46
 12185 06b0 0D       		.uleb128 0xd
ARM GAS  C:\Users\RECEPC~1\AppData\Local\Temp\ccvxjDo6.s 			page 264


 12186 06b1 AE1E0000 		.4byte	.LASF169
 12187 06b5 8C01     		.sleb128 140
 12188 06b7 0D       		.uleb128 0xd
 12189 06b8 380D0000 		.4byte	.LASF170
 12190 06bc 9601     		.sleb128 150
 12191 06be 0D       		.uleb128 0xd
 12192 06bf BA0A0000 		.4byte	.LASF171
 12193 06c3 39       		.sleb128 57
 12194 06c4 0D       		.uleb128 0xd
 12195 06c5 BD170000 		.4byte	.LASF172
 12196 06c9 9701     		.sleb128 151
 12197 06cb 0D       		.uleb128 0xd
 12198 06cc B72C0000 		.4byte	.LASF173
 12199 06d0 9801     		.sleb128 152
 12200 06d2 0D       		.uleb128 0xd
 12201 06d3 A41D0000 		.4byte	.LASF174
 12202 06d7 3E       		.sleb128 62
 12203 06d8 0D       		.uleb128 0xd
 12204 06d9 05230000 		.4byte	.LASF175
 12205 06dd 3F       		.sleb128 63
 12206 06de 0D       		.uleb128 0xd
 12207 06df 120B0000 		.4byte	.LASF176
 12208 06e3 C000     		.sleb128 64
 12209 06e5 0D       		.uleb128 0xd
 12210 06e6 D5270000 		.4byte	.LASF177
 12211 06ea 8D01     		.sleb128 141
 12212 06ec 0D       		.uleb128 0xd
 12213 06ed 95040000 		.4byte	.LASF178
 12214 06f1 23       		.sleb128 35
 12215 06f2 0D       		.uleb128 0xd
 12216 06f3 450C0000 		.4byte	.LASF179
 12217 06f7 2A       		.sleb128 42
 12218 06f8 0D       		.uleb128 0xd
 12219 06f9 CF230000 		.4byte	.LASF180
 12220 06fd 2B       		.sleb128 43
 12221 06fe 0D       		.uleb128 0xd
 12222 06ff 210C0000 		.4byte	.LASF181
 12223 0703 3C       		.sleb128 60
 12224 0704 0D       		.uleb128 0xd
 12225 0705 54120000 		.4byte	.LASF182
 12226 0709 C100     		.sleb128 65
 12227 070b 0D       		.uleb128 0xd
 12228 070c A00E0000 		.4byte	.LASF183
 12229 0710 EB00     		.sleb128 107
 12230 0712 0D       		.uleb128 0xd
 12231 0713 38170000 		.4byte	.LASF184
 12232 0717 E700     		.sleb128 103
 12233 0719 0D       		.uleb128 0xd
 12234 071a C5070000 		.4byte	.LASF185
 12235 071e E400     		.sleb128 100
 12236 0720 0D       		.uleb128 0xd
 12237 0721 9D240000 		.4byte	.LASF186
 12238 0725 E500     		.sleb128 101
 12239 0727 0D       		.uleb128 0xd
 12240 0728 DA140000 		.4byte	.LASF187
 12241 072c 9901     		.sleb128 153
 12242 072e 0D       		.uleb128 0xd
ARM GAS  C:\Users\RECEPC~1\AppData\Local\Temp\ccvxjDo6.s 			page 265


 12243 072f E9140000 		.4byte	.LASF188
 12244 0733 9A01     		.sleb128 154
 12245 0735 0D       		.uleb128 0xd
 12246 0736 F8140000 		.4byte	.LASF189
 12247 073a 9B01     		.sleb128 155
 12248 073c 0D       		.uleb128 0xd
 12249 073d 07150000 		.4byte	.LASF190
 12250 0741 9C01     		.sleb128 156
 12251 0743 0D       		.uleb128 0xd
 12252 0744 891D0000 		.4byte	.LASF191
 12253 0748 FA01     		.sleb128 250
 12254 074a 0D       		.uleb128 0xd
 12255 074b CA240000 		.4byte	.LASF192
 12256 074f FF01     		.sleb128 255
 12257 0751 00       		.byte	0
 12258 0752 17       		.uleb128 0x17
 12259 0753 01       		.byte	0x1
 12260 0754 09       		.byte	0x9
 12261 0755 82       		.byte	0x82
 12262 0756 67070000 		.4byte	0x767
 12263 075a 0D       		.uleb128 0xd
 12264 075b 46000000 		.4byte	.LASF193
 12265 075f 00       		.sleb128 0
 12266 0760 0D       		.uleb128 0xd
 12267 0761 4F000000 		.4byte	.LASF194
 12268 0765 01       		.sleb128 1
 12269 0766 00       		.byte	0
 12270 0767 07       		.uleb128 0x7
 12271 0768 04       		.byte	0x4
 12272 0769 6D070000 		.4byte	0x76d
 12273 076d 18       		.uleb128 0x18
 12274 076e 54020000 		.4byte	0x254
 12275 0772 7C070000 		.4byte	0x77c
 12276 0776 13       		.uleb128 0x13
 12277 0777 11010000 		.4byte	0x111
 12278 077b 00       		.byte	0
 12279 077c 03       		.uleb128 0x3
 12280 077d 640F0000 		.4byte	.LASF195
 12281 0781 0A       		.byte	0xa
 12282 0782 23       		.byte	0x23
 12283 0783 13010000 		.4byte	0x113
 12284 0787 03       		.uleb128 0x3
 12285 0788 BB280000 		.4byte	.LASF196
 12286 078c 0A       		.byte	0xa
 12287 078d 24       		.byte	0x24
 12288 078e 4C010000 		.4byte	0x14c
 12289 0792 0C       		.uleb128 0xc
 12290 0793 091E0000 		.4byte	.LASF197
 12291 0797 01       		.byte	0x1
 12292 0798 0A       		.byte	0xa
 12293 0799 60       		.byte	0x60
 12294 079a AB070000 		.4byte	0x7ab
 12295 079e 0D       		.uleb128 0xd
 12296 079f CF150000 		.4byte	.LASF198
 12297 07a3 00       		.sleb128 0
 12298 07a4 0D       		.uleb128 0xd
 12299 07a5 9E210000 		.4byte	.LASF199
ARM GAS  C:\Users\RECEPC~1\AppData\Local\Temp\ccvxjDo6.s 			page 266


 12300 07a9 01       		.sleb128 1
 12301 07aa 00       		.byte	0
 12302 07ab 0C       		.uleb128 0xc
 12303 07ac 76040000 		.4byte	.LASF200
 12304 07b0 01       		.byte	0x1
 12305 07b1 0A       		.byte	0xa
 12306 07b2 78       		.byte	0x78
 12307 07b3 F3070000 		.4byte	0x7f3
 12308 07b7 0D       		.uleb128 0xd
 12309 07b8 3E1E0000 		.4byte	.LASF201
 12310 07bc 00       		.sleb128 0
 12311 07bd 0D       		.uleb128 0xd
 12312 07be 3E010000 		.4byte	.LASF202
 12313 07c2 10       		.sleb128 16
 12314 07c3 0D       		.uleb128 0xd
 12315 07c4 11290000 		.4byte	.LASF203
 12316 07c8 20       		.sleb128 32
 12317 07c9 0D       		.uleb128 0xd
 12318 07ca 84240000 		.4byte	.LASF204
 12319 07ce 30       		.sleb128 48
 12320 07cf 0D       		.uleb128 0xd
 12321 07d0 68270000 		.4byte	.LASF205
 12322 07d4 C000     		.sleb128 64
 12323 07d6 0D       		.uleb128 0xd
 12324 07d7 16100000 		.4byte	.LASF206
 12325 07db D000     		.sleb128 80
 12326 07dd 0D       		.uleb128 0xd
 12327 07de F9060000 		.4byte	.LASF207
 12328 07e2 E000     		.sleb128 96
 12329 07e4 0D       		.uleb128 0xd
 12330 07e5 A7030000 		.4byte	.LASF208
 12331 07e9 F000     		.sleb128 112
 12332 07eb 0D       		.uleb128 0xd
 12333 07ec 66190000 		.4byte	.LASF209
 12334 07f0 FC01     		.sleb128 252
 12335 07f2 00       		.byte	0
 12336 07f3 0C       		.uleb128 0xc
 12337 07f4 81210000 		.4byte	.LASF210
 12338 07f8 01       		.byte	0x1
 12339 07f9 0A       		.byte	0xa
 12340 07fa 87       		.byte	0x87
 12341 07fb 4D080000 		.4byte	0x84d
 12342 07ff 19       		.uleb128 0x19
 12343 0800 534F4D00 		.ascii	"SOM\000"
 12344 0804 FF01     		.sleb128 255
 12345 0806 19       		.uleb128 0x19
 12346 0807 56505400 		.ascii	"VPT\000"
 12347 080b F101     		.sleb128 241
 12348 080d 19       		.uleb128 0x19
 12349 080e 4D505400 		.ascii	"MPT\000"
 12350 0812 F201     		.sleb128 242
 12351 0814 19       		.uleb128 0x19
 12352 0815 48446E00 		.ascii	"HDn\000"
 12353 0819 F601     		.sleb128 246
 12354 081b 0D       		.uleb128 0xd
 12355 081c 95270000 		.4byte	.LASF211
 12356 0820 F701     		.sleb128 247
ARM GAS  C:\Users\RECEPC~1\AppData\Local\Temp\ccvxjDo6.s 			page 267


 12357 0822 0D       		.uleb128 0xd
 12358 0823 E70E0000 		.4byte	.LASF212
 12359 0827 F801     		.sleb128 248
 12360 0829 19       		.uleb128 0x19
 12361 082a 56446E00 		.ascii	"VDn\000"
 12362 082e F901     		.sleb128 249
 12363 0830 19       		.uleb128 0x19
 12364 0831 4D446E00 		.ascii	"MDn\000"
 12365 0835 FA01     		.sleb128 250
 12366 0837 0D       		.uleb128 0xd
 12367 0838 C40C0000 		.4byte	.LASF213
 12368 083c FB01     		.sleb128 251
 12369 083e 19       		.uleb128 0x19
 12370 083f 53466E00 		.ascii	"SFn\000"
 12371 0843 FE01     		.sleb128 254
 12372 0845 19       		.uleb128 0x19
 12373 0846 454F4D00 		.ascii	"EOM\000"
 12374 084a F001     		.sleb128 240
 12375 084c 00       		.byte	0
 12376 084d 0C       		.uleb128 0xc
 12377 084e 852A0000 		.4byte	.LASF214
 12378 0852 01       		.byte	0x1
 12379 0853 0A       		.byte	0xa
 12380 0854 96       		.byte	0x96
 12381 0855 97080000 		.4byte	0x897
 12382 0859 0D       		.uleb128 0xd
 12383 085a 8F1E0000 		.4byte	.LASF215
 12384 085e 00       		.sleb128 0
 12385 085f 0D       		.uleb128 0xd
 12386 0860 1B270000 		.4byte	.LASF216
 12387 0864 06       		.sleb128 6
 12388 0865 0D       		.uleb128 0xd
 12389 0866 D81C0000 		.4byte	.LASF217
 12390 086a 07       		.sleb128 7
 12391 086b 0D       		.uleb128 0xd
 12392 086c DA020000 		.4byte	.LASF218
 12393 0870 08       		.sleb128 8
 12394 0871 0D       		.uleb128 0xd
 12395 0872 2F100000 		.4byte	.LASF219
 12396 0876 09       		.sleb128 9
 12397 0877 0D       		.uleb128 0xd
 12398 0878 9D200000 		.4byte	.LASF220
 12399 087c 0A       		.sleb128 10
 12400 087d 0D       		.uleb128 0xd
 12401 087e DE1E0000 		.4byte	.LASF221
 12402 0882 0B       		.sleb128 11
 12403 0883 0D       		.uleb128 0xd
 12404 0884 712B0000 		.4byte	.LASF222
 12405 0888 0C       		.sleb128 12
 12406 0889 0D       		.uleb128 0xd
 12407 088a E4220000 		.4byte	.LASF223
 12408 088e 0D       		.sleb128 13
 12409 088f 0D       		.uleb128 0xd
 12410 0890 9A030000 		.4byte	.LASF224
 12411 0894 FF01     		.sleb128 255
 12412 0896 00       		.byte	0
 12413 0897 0C       		.uleb128 0xc
ARM GAS  C:\Users\RECEPC~1\AppData\Local\Temp\ccvxjDo6.s 			page 268


 12414 0898 98100000 		.4byte	.LASF225
 12415 089c 01       		.byte	0x1
 12416 089d 0A       		.byte	0xa
 12417 089e EB       		.byte	0xeb
 12418 089f 19090000 		.4byte	0x919
 12419 08a3 0D       		.uleb128 0xd
 12420 08a4 2B240000 		.4byte	.LASF226
 12421 08a8 0F       		.sleb128 15
 12422 08a9 0D       		.uleb128 0xd
 12423 08aa 511E0000 		.4byte	.LASF227
 12424 08ae 10       		.sleb128 16
 12425 08af 0D       		.uleb128 0xd
 12426 08b0 94280000 		.4byte	.LASF228
 12427 08b4 C300     		.sleb128 67
 12428 08b6 0D       		.uleb128 0xd
 12429 08b7 5A060000 		.4byte	.LASF229
 12430 08bb C400     		.sleb128 68
 12431 08bd 0D       		.uleb128 0xd
 12432 08be FD270000 		.4byte	.LASF230
 12433 08c2 C500     		.sleb128 69
 12434 08c4 0D       		.uleb128 0xd
 12435 08c5 25200000 		.4byte	.LASF231
 12436 08c9 C600     		.sleb128 70
 12437 08cb 0D       		.uleb128 0xd
 12438 08cc 61230000 		.4byte	.LASF232
 12439 08d0 C700     		.sleb128 71
 12440 08d2 0D       		.uleb128 0xd
 12441 08d3 6E080000 		.4byte	.LASF233
 12442 08d7 C800     		.sleb128 72
 12443 08d9 0D       		.uleb128 0xd
 12444 08da 93140000 		.4byte	.LASF234
 12445 08de C900     		.sleb128 73
 12446 08e0 0D       		.uleb128 0xd
 12447 08e1 111C0000 		.4byte	.LASF235
 12448 08e5 CA00     		.sleb128 74
 12449 08e7 0D       		.uleb128 0xd
 12450 08e8 C4280000 		.4byte	.LASF236
 12451 08ec CB00     		.sleb128 75
 12452 08ee 0D       		.uleb128 0xd
 12453 08ef AA060000 		.4byte	.LASF237
 12454 08f3 CC00     		.sleb128 76
 12455 08f5 0D       		.uleb128 0xd
 12456 08f6 E3090000 		.4byte	.LASF238
 12457 08fa CD00     		.sleb128 77
 12458 08fc 0D       		.uleb128 0xd
 12459 08fd C6140000 		.4byte	.LASF239
 12460 0901 CE00     		.sleb128 78
 12461 0903 0D       		.uleb128 0xd
 12462 0904 E21F0000 		.4byte	.LASF240
 12463 0908 CF00     		.sleb128 79
 12464 090a 0D       		.uleb128 0xd
 12465 090b BC270000 		.4byte	.LASF241
 12466 090f D000     		.sleb128 80
 12467 0911 0D       		.uleb128 0xd
 12468 0912 26110000 		.4byte	.LASF242
 12469 0916 D100     		.sleb128 81
 12470 0918 00       		.byte	0
ARM GAS  C:\Users\RECEPC~1\AppData\Local\Temp\ccvxjDo6.s 			page 269


 12471 0919 1A       		.uleb128 0x1a
 12472 091a 940F0000 		.4byte	.LASF243
 12473 091e 01       		.byte	0x1
 12474 091f 0A       		.byte	0xa
 12475 0920 0001     		.2byte	0x100
 12476 0922 39090000 		.4byte	0x939
 12477 0926 0D       		.uleb128 0xd
 12478 0927 82290000 		.4byte	.LASF244
 12479 092b 01       		.sleb128 1
 12480 092c 0D       		.uleb128 0xd
 12481 092d 740A0000 		.4byte	.LASF245
 12482 0931 02       		.sleb128 2
 12483 0932 0D       		.uleb128 0xd
 12484 0933 16150000 		.4byte	.LASF246
 12485 0937 03       		.sleb128 3
 12486 0938 00       		.byte	0
 12487 0939 1A       		.uleb128 0x1a
 12488 093a 62040000 		.4byte	.LASF247
 12489 093e 01       		.byte	0x1
 12490 093f 0A       		.byte	0xa
 12491 0940 0D01     		.2byte	0x10d
 12492 0942 53090000 		.4byte	0x953
 12493 0946 0D       		.uleb128 0xd
 12494 0947 011A0000 		.4byte	.LASF248
 12495 094b 01       		.sleb128 1
 12496 094c 0D       		.uleb128 0xd
 12497 094d 95220000 		.4byte	.LASF249
 12498 0951 02       		.sleb128 2
 12499 0952 00       		.byte	0
 12500 0953 1B       		.uleb128 0x1b
 12501 0954 0401     		.2byte	0x104
 12502 0956 0A       		.byte	0xa
 12503 0957 1A01     		.2byte	0x11a
 12504 0959 93090000 		.4byte	0x993
 12505 095d 1C       		.uleb128 0x1c
 12506 095e 45030000 		.4byte	.LASF250
 12507 0962 0A       		.byte	0xa
 12508 0963 1C01     		.2byte	0x11c
 12509 0965 97000000 		.4byte	0x97
 12510 0969 00       		.byte	0
 12511 096a 1C       		.uleb128 0x1c
 12512 096b 841E0000 		.4byte	.LASF251
 12513 096f 0A       		.byte	0xa
 12514 0970 1D01     		.2byte	0x11d
 12515 0972 97000000 		.4byte	0x97
 12516 0976 01       		.byte	0x1
 12517 0977 1C       		.uleb128 0x1c
 12518 0978 FA070000 		.4byte	.LASF47
 12519 097c 0A       		.byte	0xa
 12520 097d 1E01     		.2byte	0x11e
 12521 097f 93090000 		.4byte	0x993
 12522 0983 02       		.byte	0x2
 12523 0984 1D       		.uleb128 0x1d
 12524 0985 822C0000 		.4byte	.LASF48
 12525 0989 0A       		.byte	0xa
 12526 098a 1F01     		.2byte	0x11f
 12527 098c A3000000 		.4byte	0xa3
ARM GAS  C:\Users\RECEPC~1\AppData\Local\Temp\ccvxjDo6.s 			page 270


 12528 0990 0201     		.2byte	0x102
 12529 0992 00       		.byte	0
 12530 0993 0A       		.uleb128 0xa
 12531 0994 ED000000 		.4byte	0xed
 12532 0998 A3090000 		.4byte	0x9a3
 12533 099c 0B       		.uleb128 0xb
 12534 099d 0A010000 		.4byte	0x10a
 12535 09a1 FF       		.byte	0xff
 12536 09a2 00       		.byte	0
 12537 09a3 05       		.uleb128 0x5
 12538 09a4 392B0000 		.4byte	.LASF252
 12539 09a8 0A       		.byte	0xa
 12540 09a9 2101     		.2byte	0x121
 12541 09ab 53090000 		.4byte	0x953
 12542 09af 05       		.uleb128 0x5
 12543 09b0 34120000 		.4byte	.LASF253
 12544 09b4 0A       		.byte	0xa
 12545 09b5 2101     		.2byte	0x121
 12546 09b7 BB090000 		.4byte	0x9bb
 12547 09bb 07       		.uleb128 0x7
 12548 09bc 04       		.byte	0x4
 12549 09bd 53090000 		.4byte	0x953
 12550 09c1 1E       		.uleb128 0x1e
 12551 09c2 40       		.byte	0x40
 12552 09c3 0A       		.byte	0xa
 12553 09c4 2301     		.2byte	0x123
 12554 09c6 670A0000 		.4byte	0xa67
 12555 09ca 1C       		.uleb128 0x1c
 12556 09cb F3220000 		.4byte	.LASF254
 12557 09cf 0A       		.byte	0xa
 12558 09d0 2501     		.2byte	0x125
 12559 09d2 F4000000 		.4byte	0xf4
 12560 09d6 00       		.byte	0
 12561 09d7 1C       		.uleb128 0x1c
 12562 09d8 F9220000 		.4byte	.LASF255
 12563 09dc 0A       		.byte	0xa
 12564 09dd 2601     		.2byte	0x126
 12565 09df F4000000 		.4byte	0xf4
 12566 09e3 01       		.byte	0x1
 12567 09e4 1C       		.uleb128 0x1c
 12568 09e5 FF220000 		.4byte	.LASF256
 12569 09e9 0A       		.byte	0xa
 12570 09ea 2801     		.2byte	0x128
 12571 09ec F9000000 		.4byte	0xf9
 12572 09f0 02       		.byte	0x2
 12573 09f1 1C       		.uleb128 0x1c
 12574 09f2 EC200000 		.4byte	.LASF257
 12575 09f6 0A       		.byte	0xa
 12576 09f7 2901     		.2byte	0x129
 12577 09f9 F9000000 		.4byte	0xf9
 12578 09fd 04       		.byte	0x4
 12579 09fe 1C       		.uleb128 0x1c
 12580 09ff F2200000 		.4byte	.LASF258
 12581 0a03 0A       		.byte	0xa
 12582 0a04 2B01     		.2byte	0x12b
 12583 0a06 FE000000 		.4byte	0xfe
 12584 0a0a 08       		.byte	0x8
ARM GAS  C:\Users\RECEPC~1\AppData\Local\Temp\ccvxjDo6.s 			page 271


 12585 0a0b 1C       		.uleb128 0x1c
 12586 0a0c 27230000 		.4byte	.LASF259
 12587 0a10 0A       		.byte	0xa
 12588 0a11 2C01     		.2byte	0x12c
 12589 0a13 FE000000 		.4byte	0xfe
 12590 0a17 0C       		.byte	0xc
 12591 0a18 1C       		.uleb128 0x1c
 12592 0a19 2D230000 		.4byte	.LASF260
 12593 0a1d 0A       		.byte	0xa
 12594 0a1e 3101     		.2byte	0x131
 12595 0a20 670A0000 		.4byte	0xa67
 12596 0a24 10       		.byte	0x10
 12597 0a25 1C       		.uleb128 0x1c
 12598 0a26 33230000 		.4byte	.LASF261
 12599 0a2a 0A       		.byte	0xa
 12600 0a2b 3201     		.2byte	0x132
 12601 0a2d 670A0000 		.4byte	0xa67
 12602 0a31 18       		.byte	0x18
 12603 0a32 1C       		.uleb128 0x1c
 12604 0a33 39230000 		.4byte	.LASF262
 12605 0a37 0A       		.byte	0xa
 12606 0a38 3301     		.2byte	0x133
 12607 0a3a 670A0000 		.4byte	0xa67
 12608 0a3e 20       		.byte	0x20
 12609 0a3f 1C       		.uleb128 0x1c
 12610 0a40 3F230000 		.4byte	.LASF263
 12611 0a44 0A       		.byte	0xa
 12612 0a45 3401     		.2byte	0x134
 12613 0a47 670A0000 		.4byte	0xa67
 12614 0a4b 28       		.byte	0x28
 12615 0a4c 1C       		.uleb128 0x1c
 12616 0a4d 76230000 		.4byte	.LASF264
 12617 0a51 0A       		.byte	0xa
 12618 0a52 3601     		.2byte	0x136
 12619 0a54 6C0A0000 		.4byte	0xa6c
 12620 0a58 30       		.byte	0x30
 12621 0a59 1C       		.uleb128 0x1c
 12622 0a5a 7C230000 		.4byte	.LASF265
 12623 0a5e 0A       		.byte	0xa
 12624 0a5f 3701     		.2byte	0x137
 12625 0a61 6C0A0000 		.4byte	0xa6c
 12626 0a65 38       		.byte	0x38
 12627 0a66 00       		.byte	0
 12628 0a67 06       		.uleb128 0x6
 12629 0a68 D5000000 		.4byte	0xd5
 12630 0a6c 06       		.uleb128 0x6
 12631 0a6d CE000000 		.4byte	0xce
 12632 0a71 05       		.uleb128 0x5
 12633 0a72 661A0000 		.4byte	.LASF266
 12634 0a76 0A       		.byte	0xa
 12635 0a77 3901     		.2byte	0x139
 12636 0a79 C1090000 		.4byte	0x9c1
 12637 0a7d 1E       		.uleb128 0x1e
 12638 0a7e 18       		.byte	0x18
 12639 0a7f 0A       		.byte	0xa
 12640 0a80 4101     		.2byte	0x141
 12641 0a82 E20A0000 		.4byte	0xae2
ARM GAS  C:\Users\RECEPC~1\AppData\Local\Temp\ccvxjDo6.s 			page 272


 12642 0a86 1C       		.uleb128 0x1c
 12643 0a87 1D1E0000 		.4byte	.LASF267
 12644 0a8b 0A       		.byte	0xa
 12645 0a8c 4401     		.2byte	0x144
 12646 0a8e 4F020000 		.4byte	0x24f
 12647 0a92 00       		.byte	0
 12648 0a93 1C       		.uleb128 0x1c
 12649 0a94 07060000 		.4byte	.LASF268
 12650 0a98 0A       		.byte	0xa
 12651 0a99 4501     		.2byte	0x145
 12652 0a9b F4000000 		.4byte	0xf4
 12653 0a9f 01       		.byte	0x1
 12654 0aa0 1C       		.uleb128 0x1c
 12655 0aa1 0E100000 		.4byte	.LASF269
 12656 0aa5 0A       		.byte	0xa
 12657 0aa6 4601     		.2byte	0x146
 12658 0aa8 F4000000 		.4byte	0xf4
 12659 0aac 02       		.byte	0x2
 12660 0aad 1C       		.uleb128 0x1c
 12661 0aae 961A0000 		.4byte	.LASF270
 12662 0ab2 0A       		.byte	0xa
 12663 0ab3 4701     		.2byte	0x147
 12664 0ab5 F9000000 		.4byte	0xf9
 12665 0ab9 04       		.byte	0x4
 12666 0aba 1C       		.uleb128 0x1c
 12667 0abb 2B210000 		.4byte	.LASF271
 12668 0abf 0A       		.byte	0xa
 12669 0ac0 4801     		.2byte	0x148
 12670 0ac2 FE000000 		.4byte	0xfe
 12671 0ac6 08       		.byte	0x8
 12672 0ac7 1C       		.uleb128 0x1c
 12673 0ac8 070E0000 		.4byte	.LASF272
 12674 0acc 0A       		.byte	0xa
 12675 0acd 4901     		.2byte	0x149
 12676 0acf FE000000 		.4byte	0xfe
 12677 0ad3 0C       		.byte	0xc
 12678 0ad4 1C       		.uleb128 0x1c
 12679 0ad5 300D0000 		.4byte	.LASF273
 12680 0ad9 0A       		.byte	0xa
 12681 0ada 4A01     		.2byte	0x14a
 12682 0adc E20A0000 		.4byte	0xae2
 12683 0ae0 10       		.byte	0x10
 12684 0ae1 00       		.byte	0
 12685 0ae2 0A       		.uleb128 0xa
 12686 0ae3 E1000000 		.4byte	0xe1
 12687 0ae7 F20A0000 		.4byte	0xaf2
 12688 0aeb 0B       		.uleb128 0xb
 12689 0aec 0A010000 		.4byte	0x10a
 12690 0af0 07       		.byte	0x7
 12691 0af1 00       		.byte	0
 12692 0af2 05       		.uleb128 0x5
 12693 0af3 45130000 		.4byte	.LASF274
 12694 0af7 0A       		.byte	0xa
 12695 0af8 4C01     		.2byte	0x14c
 12696 0afa 7D0A0000 		.4byte	0xa7d
 12697 0afe 1F       		.uleb128 0x1f
 12698 0aff F8160000 		.4byte	.LASF275
ARM GAS  C:\Users\RECEPC~1\AppData\Local\Temp\ccvxjDo6.s 			page 273


 12699 0b03 980B     		.2byte	0xb98
 12700 0b05 0A       		.byte	0xa
 12701 0b06 4F01     		.2byte	0x14f
 12702 0b08 FD0C0000 		.4byte	0xcfd
 12703 0b0c 1C       		.uleb128 0x1c
 12704 0b0d A6110000 		.4byte	.LASF276
 12705 0b11 0A       		.byte	0xa
 12706 0b12 5101     		.2byte	0x151
 12707 0b14 97000000 		.4byte	0x97
 12708 0b18 00       		.byte	0
 12709 0b19 1C       		.uleb128 0x1c
 12710 0b1a E6230000 		.4byte	.LASF277
 12711 0b1e 0A       		.byte	0xa
 12712 0b1f 5201     		.2byte	0x152
 12713 0b21 97000000 		.4byte	0x97
 12714 0b25 01       		.byte	0x1
 12715 0b26 1C       		.uleb128 0x1c
 12716 0b27 B1080000 		.4byte	.LASF278
 12717 0b2b 0A       		.byte	0xa
 12718 0b2c 5401     		.2byte	0x154
 12719 0b2e F4000000 		.4byte	0xf4
 12720 0b32 02       		.byte	0x2
 12721 0b33 1C       		.uleb128 0x1c
 12722 0b34 63210000 		.4byte	.LASF279
 12723 0b38 0A       		.byte	0xa
 12724 0b39 5501     		.2byte	0x155
 12725 0b3b F4000000 		.4byte	0xf4
 12726 0b3f 03       		.byte	0x3
 12727 0b40 1C       		.uleb128 0x1c
 12728 0b41 251F0000 		.4byte	.LASF280
 12729 0b45 0A       		.byte	0xa
 12730 0b46 5601     		.2byte	0x156
 12731 0b48 F4000000 		.4byte	0xf4
 12732 0b4c 04       		.byte	0x4
 12733 0b4d 1C       		.uleb128 0x1c
 12734 0b4e A1220000 		.4byte	.LASF281
 12735 0b52 0A       		.byte	0xa
 12736 0b53 5701     		.2byte	0x157
 12737 0b55 4F020000 		.4byte	0x24f
 12738 0b59 05       		.byte	0x5
 12739 0b5a 1C       		.uleb128 0x1c
 12740 0b5b 51010000 		.4byte	.LASF282
 12741 0b5f 0A       		.byte	0xa
 12742 0b60 5901     		.2byte	0x159
 12743 0b62 F4000000 		.4byte	0xf4
 12744 0b66 06       		.byte	0x6
 12745 0b67 1C       		.uleb128 0x1c
 12746 0b68 BB230000 		.4byte	.LASF283
 12747 0b6c 0A       		.byte	0xa
 12748 0b6d 5A01     		.2byte	0x15a
 12749 0b6f F4000000 		.4byte	0xf4
 12750 0b73 07       		.byte	0x7
 12751 0b74 1C       		.uleb128 0x1c
 12752 0b75 1D1E0000 		.4byte	.LASF267
 12753 0b79 0A       		.byte	0xa
 12754 0b7a 5C01     		.2byte	0x15c
 12755 0b7c 4F020000 		.4byte	0x24f
ARM GAS  C:\Users\RECEPC~1\AppData\Local\Temp\ccvxjDo6.s 			page 274


 12756 0b80 08       		.byte	0x8
 12757 0b81 1C       		.uleb128 0x1c
 12758 0b82 EC150000 		.4byte	.LASF284
 12759 0b86 0A       		.byte	0xa
 12760 0b87 5D01     		.2byte	0x15d
 12761 0b89 4F020000 		.4byte	0x24f
 12762 0b8d 09       		.byte	0x9
 12763 0b8e 1C       		.uleb128 0x1c
 12764 0b8f BB210000 		.4byte	.LASF285
 12765 0b93 0A       		.byte	0xa
 12766 0b94 5E01     		.2byte	0x15e
 12767 0b96 4F020000 		.4byte	0x24f
 12768 0b9a 0A       		.byte	0xa
 12769 0b9b 1C       		.uleb128 0x1c
 12770 0b9c 14240000 		.4byte	.LASF286
 12771 0ba0 0A       		.byte	0xa
 12772 0ba1 5F01     		.2byte	0x15f
 12773 0ba3 4F020000 		.4byte	0x24f
 12774 0ba7 0B       		.byte	0xb
 12775 0ba8 1C       		.uleb128 0x1c
 12776 0ba9 A0080000 		.4byte	.LASF287
 12777 0bad 0A       		.byte	0xa
 12778 0bae 6001     		.2byte	0x160
 12779 0bb0 F4000000 		.4byte	0xf4
 12780 0bb4 0C       		.byte	0xc
 12781 0bb5 1C       		.uleb128 0x1c
 12782 0bb6 7D0F0000 		.4byte	.LASF288
 12783 0bba 0A       		.byte	0xa
 12784 0bbb 6101     		.2byte	0x161
 12785 0bbd 4F020000 		.4byte	0x24f
 12786 0bc1 0D       		.byte	0xd
 12787 0bc2 1C       		.uleb128 0x1c
 12788 0bc3 22000000 		.4byte	.LASF289
 12789 0bc7 0A       		.byte	0xa
 12790 0bc8 6201     		.2byte	0x162
 12791 0bca F4000000 		.4byte	0xf4
 12792 0bce 0E       		.byte	0xe
 12793 0bcf 1C       		.uleb128 0x1c
 12794 0bd0 7B290000 		.4byte	.LASF290
 12795 0bd4 0A       		.byte	0xa
 12796 0bd5 6401     		.2byte	0x164
 12797 0bd7 4F020000 		.4byte	0x24f
 12798 0bdb 0F       		.byte	0xf
 12799 0bdc 1C       		.uleb128 0x1c
 12800 0bdd A2190000 		.4byte	.LASF291
 12801 0be1 0A       		.byte	0xa
 12802 0be2 6601     		.2byte	0x166
 12803 0be4 FE000000 		.4byte	0xfe
 12804 0be8 10       		.byte	0x10
 12805 0be9 1C       		.uleb128 0x1c
 12806 0bea D3130000 		.4byte	.LASF292
 12807 0bee 0A       		.byte	0xa
 12808 0bef 6701     		.2byte	0x167
 12809 0bf1 FE000000 		.4byte	0xfe
 12810 0bf5 14       		.byte	0x14
 12811 0bf6 1C       		.uleb128 0x1c
 12812 0bf7 371D0000 		.4byte	.LASF293
ARM GAS  C:\Users\RECEPC~1\AppData\Local\Temp\ccvxjDo6.s 			page 275


 12813 0bfb 0A       		.byte	0xa
 12814 0bfc 6A01     		.2byte	0x16a
 12815 0bfe F4000000 		.4byte	0xf4
 12816 0c02 18       		.byte	0x18
 12817 0c03 1C       		.uleb128 0x1c
 12818 0c04 841E0000 		.4byte	.LASF251
 12819 0c08 0A       		.byte	0xa
 12820 0c09 6B01     		.2byte	0x16b
 12821 0c0b F4000000 		.4byte	0xf4
 12822 0c0f 19       		.byte	0x19
 12823 0c10 1C       		.uleb128 0x1c
 12824 0c11 40200000 		.4byte	.LASF294
 12825 0c15 0A       		.byte	0xa
 12826 0c16 6D01     		.2byte	0x16d
 12827 0c18 11010000 		.4byte	0x111
 12828 0c1c 1C       		.byte	0x1c
 12829 0c1d 1C       		.uleb128 0x1c
 12830 0c1e D3120000 		.4byte	.LASF295
 12831 0c22 0A       		.byte	0xa
 12832 0c23 6E01     		.2byte	0x16e
 12833 0c25 FD0C0000 		.4byte	0xcfd
 12834 0c29 20       		.byte	0x20
 12835 0c2a 1D       		.uleb128 0x1d
 12836 0c2b 15120000 		.4byte	.LASF296
 12837 0c2f 0A       		.byte	0xa
 12838 0c30 7001     		.2byte	0x170
 12839 0c32 FD0C0000 		.4byte	0xcfd
 12840 0c36 8801     		.2byte	0x188
 12841 0c38 1D       		.uleb128 0x1d
 12842 0c39 BE020000 		.4byte	.LASF297
 12843 0c3d 0A       		.byte	0xa
 12844 0c3e 7101     		.2byte	0x171
 12845 0c40 A3000000 		.4byte	0xa3
 12846 0c44 F002     		.2byte	0x2f0
 12847 0c46 1D       		.uleb128 0x1d
 12848 0c47 96050000 		.4byte	.LASF298
 12849 0c4b 0A       		.byte	0xa
 12850 0c4c 7501     		.2byte	0x175
 12851 0c4e 0E0D0000 		.4byte	0xd0e
 12852 0c52 F202     		.2byte	0x2f2
 12853 0c54 1D       		.uleb128 0x1d
 12854 0c55 FC0F0000 		.4byte	.LASF299
 12855 0c59 0A       		.byte	0xa
 12856 0c5a 7701     		.2byte	0x177
 12857 0c5c 4F020000 		.4byte	0x24f
 12858 0c60 120B     		.2byte	0xb12
 12859 0c62 1D       		.uleb128 0x1d
 12860 0c63 B7240000 		.4byte	.LASF300
 12861 0c67 0A       		.byte	0xa
 12862 0c68 7901     		.2byte	0x179
 12863 0c6a 77020000 		.4byte	0x277
 12864 0c6e 140B     		.2byte	0xb14
 12865 0c70 1D       		.uleb128 0x1d
 12866 0c71 1D2C0000 		.4byte	.LASF301
 12867 0c75 0A       		.byte	0xa
 12868 0c76 7A01     		.2byte	0x17a
 12869 0c78 77020000 		.4byte	0x277
ARM GAS  C:\Users\RECEPC~1\AppData\Local\Temp\ccvxjDo6.s 			page 276


 12870 0c7c 180B     		.2byte	0xb18
 12871 0c7e 1D       		.uleb128 0x1d
 12872 0c7f F7290000 		.4byte	.LASF302
 12873 0c83 0A       		.byte	0xa
 12874 0c84 7B01     		.2byte	0x17b
 12875 0c86 320D0000 		.4byte	0xd32
 12876 0c8a 1C0B     		.2byte	0xb1c
 12877 0c8c 1D       		.uleb128 0x1d
 12878 0c8d 3E250000 		.4byte	.LASF303
 12879 0c91 0A       		.byte	0xa
 12880 0c92 7C01     		.2byte	0x17c
 12881 0c94 480D0000 		.4byte	0xd48
 12882 0c98 200B     		.2byte	0xb20
 12883 0c9a 1D       		.uleb128 0x1d
 12884 0c9b E0060000 		.4byte	.LASF304
 12885 0c9f 0A       		.byte	0xa
 12886 0ca0 7D01     		.2byte	0x17d
 12887 0ca2 480D0000 		.4byte	0xd48
 12888 0ca6 240B     		.2byte	0xb24
 12889 0ca8 1D       		.uleb128 0x1d
 12890 0ca9 D7240000 		.4byte	.LASF305
 12891 0cad 0A       		.byte	0xa
 12892 0cae 7E01     		.2byte	0x17e
 12893 0cb0 5D0D0000 		.4byte	0xd5d
 12894 0cb4 280B     		.2byte	0xb28
 12895 0cb6 1D       		.uleb128 0x1d
 12896 0cb7 450E0000 		.4byte	.LASF306
 12897 0cbb 0A       		.byte	0xa
 12898 0cbc 7F01     		.2byte	0x17f
 12899 0cbe 5D0D0000 		.4byte	0xd5d
 12900 0cc2 2C0B     		.2byte	0xb2c
 12901 0cc4 1D       		.uleb128 0x1d
 12902 0cc5 9A270000 		.4byte	.LASF307
 12903 0cc9 0A       		.byte	0xa
 12904 0cca 8101     		.2byte	0x181
 12905 0ccc 67070000 		.4byte	0x767
 12906 0cd0 300B     		.2byte	0xb30
 12907 0cd2 1D       		.uleb128 0x1d
 12908 0cd3 502B0000 		.4byte	.LASF308
 12909 0cd7 0A       		.byte	0xa
 12910 0cd8 8301     		.2byte	0x183
 12911 0cda 710A0000 		.4byte	0xa71
 12912 0cde 380B     		.2byte	0xb38
 12913 0ce0 1D       		.uleb128 0x1d
 12914 0ce1 A9270000 		.4byte	.LASF309
 12915 0ce5 0A       		.byte	0xa
 12916 0ce6 8401     		.2byte	0x184
 12917 0ce8 F20A0000 		.4byte	0xaf2
 12918 0cec 780B     		.2byte	0xb78
 12919 0cee 1D       		.uleb128 0x1d
 12920 0cef 8D1F0000 		.4byte	.LASF310
 12921 0cf3 0A       		.byte	0xa
 12922 0cf4 8601     		.2byte	0x186
 12923 0cf6 77020000 		.4byte	0x277
 12924 0cfa 900B     		.2byte	0xb90
 12925 0cfc 00       		.byte	0
 12926 0cfd 0A       		.uleb128 0xa
ARM GAS  C:\Users\RECEPC~1\AppData\Local\Temp\ccvxjDo6.s 			page 277


 12927 0cfe E1000000 		.4byte	0xe1
 12928 0d02 0E0D0000 		.4byte	0xd0e
 12929 0d06 11       		.uleb128 0x11
 12930 0d07 0A010000 		.4byte	0x10a
 12931 0d0b 6701     		.2byte	0x167
 12932 0d0d 00       		.byte	0
 12933 0d0e 0A       		.uleb128 0xa
 12934 0d0f A3090000 		.4byte	0x9a3
 12935 0d13 1E0D0000 		.4byte	0xd1e
 12936 0d17 0B       		.uleb128 0xb
 12937 0d18 0A010000 		.4byte	0x10a
 12938 0d1c 07       		.byte	0x7
 12939 0d1d 00       		.byte	0
 12940 0d1e 18       		.uleb128 0x18
 12941 0d1f 54020000 		.4byte	0x254
 12942 0d23 320D0000 		.4byte	0xd32
 12943 0d27 13       		.uleb128 0x13
 12944 0d28 11010000 		.4byte	0x111
 12945 0d2c 13       		.uleb128 0x13
 12946 0d2d 97000000 		.4byte	0x97
 12947 0d31 00       		.byte	0
 12948 0d32 07       		.uleb128 0x7
 12949 0d33 04       		.byte	0x4
 12950 0d34 1E0D0000 		.4byte	0xd1e
 12951 0d38 12       		.uleb128 0x12
 12952 0d39 480D0000 		.4byte	0xd48
 12953 0d3d 13       		.uleb128 0x13
 12954 0d3e 11010000 		.4byte	0x111
 12955 0d42 13       		.uleb128 0x13
 12956 0d43 AF090000 		.4byte	0x9af
 12957 0d47 00       		.byte	0
 12958 0d48 07       		.uleb128 0x7
 12959 0d49 04       		.byte	0x4
 12960 0d4a 380D0000 		.4byte	0xd38
 12961 0d4e 18       		.uleb128 0x18
 12962 0d4f AF090000 		.4byte	0x9af
 12963 0d53 5D0D0000 		.4byte	0xd5d
 12964 0d57 13       		.uleb128 0x13
 12965 0d58 11010000 		.4byte	0x111
 12966 0d5c 00       		.byte	0
 12967 0d5d 07       		.uleb128 0x7
 12968 0d5e 04       		.byte	0x4
 12969 0d5f 4E0D0000 		.4byte	0xd4e
 12970 0d63 05       		.uleb128 0x5
 12971 0d64 DD1F0000 		.4byte	.LASF311
 12972 0d68 0A       		.byte	0xa
 12973 0d69 8801     		.2byte	0x188
 12974 0d6b FE0A0000 		.4byte	0xafe
 12975 0d6f 05       		.uleb128 0x5
 12976 0d70 F71E0000 		.4byte	.LASF312
 12977 0d74 0A       		.byte	0xa
 12978 0d75 8801     		.2byte	0x188
 12979 0d77 7B0D0000 		.4byte	0xd7b
 12980 0d7b 07       		.uleb128 0x7
 12981 0d7c 04       		.byte	0x4
 12982 0d7d FE0A0000 		.4byte	0xafe
 12983 0d81 20       		.uleb128 0x20
ARM GAS  C:\Users\RECEPC~1\AppData\Local\Temp\ccvxjDo6.s 			page 278


 12984 0d82 F21D0000 		.4byte	.LASF313
 12985 0d86 34       		.byte	0x34
 12986 0d87 0A       		.byte	0xa
 12987 0d88 8D01     		.2byte	0x18d
 12988 0d8a 450E0000 		.4byte	0xe45
 12989 0d8e 1C       		.uleb128 0x1c
 12990 0d8f F1230000 		.4byte	.LASF314
 12991 0d93 0A       		.byte	0xa
 12992 0d94 8F01     		.2byte	0x18f
 12993 0d96 77020000 		.4byte	0x277
 12994 0d9a 00       		.byte	0
 12995 0d9b 1C       		.uleb128 0x1c
 12996 0d9c EF0B0000 		.4byte	.LASF315
 12997 0da0 0A       		.byte	0xa
 12998 0da1 9001     		.2byte	0x190
 12999 0da3 77020000 		.4byte	0x277
 13000 0da7 04       		.byte	0x4
 13001 0da8 1C       		.uleb128 0x1c
 13002 0da9 7D1F0000 		.4byte	.LASF316
 13003 0dad 0A       		.byte	0xa
 13004 0dae 9101     		.2byte	0x191
 13005 0db0 77020000 		.4byte	0x277
 13006 0db4 08       		.byte	0x8
 13007 0db5 1C       		.uleb128 0x1c
 13008 0db6 89000000 		.4byte	.LASF317
 13009 0dba 0A       		.byte	0xa
 13010 0dbb 9201     		.2byte	0x192
 13011 0dbd 5E0E0000 		.4byte	0xe5e
 13012 0dc1 0C       		.byte	0xc
 13013 0dc2 1C       		.uleb128 0x1c
 13014 0dc3 43290000 		.4byte	.LASF318
 13015 0dc7 0A       		.byte	0xa
 13016 0dc8 9301     		.2byte	0x193
 13017 0dca A3000000 		.4byte	0xa3
 13018 0dce 10       		.byte	0x10
 13019 0dcf 1C       		.uleb128 0x1c
 13020 0dd0 F8200000 		.4byte	.LASF319
 13021 0dd4 0A       		.byte	0xa
 13022 0dd5 9401     		.2byte	0x194
 13023 0dd7 AF000000 		.4byte	0xaf
 13024 0ddb 14       		.byte	0x14
 13025 0ddc 1C       		.uleb128 0x1c
 13026 0ddd 1F120000 		.4byte	.LASF320
 13027 0de1 0A       		.byte	0xa
 13028 0de2 9501     		.2byte	0x195
 13029 0de4 97000000 		.4byte	0x97
 13030 0de8 18       		.byte	0x18
 13031 0de9 1C       		.uleb128 0x1c
 13032 0dea 7E280000 		.4byte	.LASF321
 13033 0dee 0A       		.byte	0xa
 13034 0def 9701     		.2byte	0x197
 13035 0df1 54020000 		.4byte	0x254
 13036 0df5 19       		.byte	0x19
 13037 0df6 1C       		.uleb128 0x1c
 13038 0df7 FB0E0000 		.4byte	.LASF322
 13039 0dfb 0A       		.byte	0xa
 13040 0dfc 9B01     		.2byte	0x19b
ARM GAS  C:\Users\RECEPC~1\AppData\Local\Temp\ccvxjDo6.s 			page 279


 13041 0dfe 640E0000 		.4byte	0xe64
 13042 0e02 1A       		.byte	0x1a
 13043 0e03 1C       		.uleb128 0x1c
 13044 0e04 E81E0000 		.4byte	.LASF323
 13045 0e08 0A       		.byte	0xa
 13046 0e09 9D01     		.2byte	0x19d
 13047 0e0b 19010000 		.4byte	0x119
 13048 0e0f 1E       		.byte	0x1e
 13049 0e10 1C       		.uleb128 0x1c
 13050 0e11 D31A0000 		.4byte	.LASF324
 13051 0e15 0A       		.byte	0xa
 13052 0e16 A101     		.2byte	0x1a1
 13053 0e18 640E0000 		.4byte	0xe64
 13054 0e1c 22       		.byte	0x22
 13055 0e1d 1C       		.uleb128 0x1c
 13056 0e1e 00050000 		.4byte	.LASF325
 13057 0e22 0A       		.byte	0xa
 13058 0e23 A301     		.2byte	0x1a3
 13059 0e25 19010000 		.4byte	0x119
 13060 0e29 26       		.byte	0x26
 13061 0e2a 1C       		.uleb128 0x1c
 13062 0e2b E4050000 		.4byte	.LASF326
 13063 0e2f 0A       		.byte	0xa
 13064 0e30 A501     		.2byte	0x1a5
 13065 0e32 77020000 		.4byte	0x277
 13066 0e36 2C       		.byte	0x2c
 13067 0e37 1C       		.uleb128 0x1c
 13068 0e38 FA150000 		.4byte	.LASF327
 13069 0e3c 0A       		.byte	0xa
 13070 0e3d A601     		.2byte	0x1a6
 13071 0e3f 77020000 		.4byte	0x277
 13072 0e43 30       		.byte	0x30
 13073 0e44 00       		.byte	0
 13074 0e45 18       		.uleb128 0x18
 13075 0e46 54020000 		.4byte	0x254
 13076 0e4a 5E0E0000 		.4byte	0xe5e
 13077 0e4e 13       		.uleb128 0x13
 13078 0e4f 11010000 		.4byte	0x111
 13079 0e53 13       		.uleb128 0x13
 13080 0e54 11010000 		.4byte	0x111
 13081 0e58 13       		.uleb128 0x13
 13082 0e59 A3000000 		.4byte	0xa3
 13083 0e5d 00       		.byte	0
 13084 0e5e 07       		.uleb128 0x7
 13085 0e5f 04       		.byte	0x4
 13086 0e60 450E0000 		.4byte	0xe45
 13087 0e64 0A       		.uleb128 0xa
 13088 0e65 54020000 		.4byte	0x254
 13089 0e69 740E0000 		.4byte	0xe74
 13090 0e6d 0B       		.uleb128 0xb
 13091 0e6e 0A010000 		.4byte	0x10a
 13092 0e72 03       		.byte	0x3
 13093 0e73 00       		.byte	0
 13094 0e74 05       		.uleb128 0x5
 13095 0e75 400B0000 		.4byte	.LASF328
 13096 0e79 0A       		.byte	0xa
 13097 0e7a A701     		.2byte	0x1a7
ARM GAS  C:\Users\RECEPC~1\AppData\Local\Temp\ccvxjDo6.s 			page 280


 13098 0e7c 810D0000 		.4byte	0xd81
 13099 0e80 1F       		.uleb128 0x1f
 13100 0e81 2B010000 		.4byte	.LASF329
 13101 0e85 AC03     		.2byte	0x3ac
 13102 0e87 0A       		.byte	0xa
 13103 0e88 A901     		.2byte	0x1a9
 13104 0e8a A90E0000 		.4byte	0xea9
 13105 0e8e 1C       		.uleb128 0x1c
 13106 0e8f AC170000 		.4byte	.LASF330
 13107 0e93 0A       		.byte	0xa
 13108 0e94 AB01     		.2byte	0x1ab
 13109 0e96 81000000 		.4byte	0x81
 13110 0e9a 00       		.byte	0
 13111 0e9b 1C       		.uleb128 0x1c
 13112 0e9c 92020000 		.4byte	.LASF331
 13113 0ea0 0A       		.byte	0xa
 13114 0ea1 AC01     		.2byte	0x1ac
 13115 0ea3 A90E0000 		.4byte	0xea9
 13116 0ea7 04       		.byte	0x4
 13117 0ea8 00       		.byte	0
 13118 0ea9 0A       		.uleb128 0xa
 13119 0eaa 740E0000 		.4byte	0xe74
 13120 0eae B90E0000 		.4byte	0xeb9
 13121 0eb2 0B       		.uleb128 0xb
 13122 0eb3 0A010000 		.4byte	0x10a
 13123 0eb7 11       		.byte	0x11
 13124 0eb8 00       		.byte	0
 13125 0eb9 05       		.uleb128 0x5
 13126 0eba 8C0D0000 		.4byte	.LASF332
 13127 0ebe 0A       		.byte	0xa
 13128 0ebf AD01     		.2byte	0x1ad
 13129 0ec1 800E0000 		.4byte	0xe80
 13130 0ec5 1E       		.uleb128 0x1e
 13131 0ec6 28       		.byte	0x28
 13132 0ec7 0A       		.byte	0xa
 13133 0ec8 B601     		.2byte	0x1b6
 13134 0eca 9F0F0000 		.4byte	0xf9f
 13135 0ece 1C       		.uleb128 0x1c
 13136 0ecf 200B0000 		.4byte	.LASF333
 13137 0ed3 0A       		.byte	0xa
 13138 0ed4 B801     		.2byte	0x1b8
 13139 0ed6 4F020000 		.4byte	0x24f
 13140 0eda 00       		.byte	0
 13141 0edb 1C       		.uleb128 0x1c
 13142 0edc 5F2B0000 		.4byte	.LASF334
 13143 0ee0 0A       		.byte	0xa
 13144 0ee1 B901     		.2byte	0x1b9
 13145 0ee3 F4000000 		.4byte	0xf4
 13146 0ee7 01       		.byte	0x1
 13147 0ee8 1C       		.uleb128 0x1c
 13148 0ee9 45030000 		.4byte	.LASF250
 13149 0eed 0A       		.byte	0xa
 13150 0eee BC01     		.2byte	0x1bc
 13151 0ef0 F4000000 		.4byte	0xf4
 13152 0ef4 02       		.byte	0x2
 13153 0ef5 1C       		.uleb128 0x1c
 13154 0ef6 E3130000 		.4byte	.LASF335
ARM GAS  C:\Users\RECEPC~1\AppData\Local\Temp\ccvxjDo6.s 			page 281


 13155 0efa 0A       		.byte	0xa
 13156 0efb BE01     		.2byte	0x1be
 13157 0efd F9000000 		.4byte	0xf9
 13158 0f01 04       		.byte	0x4
 13159 0f02 1C       		.uleb128 0x1c
 13160 0f03 781A0000 		.4byte	.LASF336
 13161 0f07 0A       		.byte	0xa
 13162 0f08 BF01     		.2byte	0x1bf
 13163 0f0a F9000000 		.4byte	0xf9
 13164 0f0e 06       		.byte	0x6
 13165 0f0f 1C       		.uleb128 0x1c
 13166 0f10 A4260000 		.4byte	.LASF337
 13167 0f14 0A       		.byte	0xa
 13168 0f15 C101     		.2byte	0x1c1
 13169 0f17 F9000000 		.4byte	0xf9
 13170 0f1b 08       		.byte	0x8
 13171 0f1c 1C       		.uleb128 0x1c
 13172 0f1d EA270000 		.4byte	.LASF338
 13173 0f21 0A       		.byte	0xa
 13174 0f22 C201     		.2byte	0x1c2
 13175 0f24 F9000000 		.4byte	0xf9
 13176 0f28 0A       		.byte	0xa
 13177 0f29 1C       		.uleb128 0x1c
 13178 0f2a BF000000 		.4byte	.LASF339
 13179 0f2e 0A       		.byte	0xa
 13180 0f2f C301     		.2byte	0x1c3
 13181 0f31 F9000000 		.4byte	0xf9
 13182 0f35 0C       		.byte	0xc
 13183 0f36 1C       		.uleb128 0x1c
 13184 0f37 171D0000 		.4byte	.LASF340
 13185 0f3b 0A       		.byte	0xa
 13186 0f3c C501     		.2byte	0x1c5
 13187 0f3e F9000000 		.4byte	0xf9
 13188 0f42 0E       		.byte	0xe
 13189 0f43 1C       		.uleb128 0x1c
 13190 0f44 BB160000 		.4byte	.LASF341
 13191 0f48 0A       		.byte	0xa
 13192 0f49 C601     		.2byte	0x1c6
 13193 0f4b F9000000 		.4byte	0xf9
 13194 0f4f 10       		.byte	0x10
 13195 0f50 1C       		.uleb128 0x1c
 13196 0f51 5B080000 		.4byte	.LASF342
 13197 0f55 0A       		.byte	0xa
 13198 0f56 C701     		.2byte	0x1c7
 13199 0f58 F9000000 		.4byte	0xf9
 13200 0f5c 12       		.byte	0x12
 13201 0f5d 1C       		.uleb128 0x1c
 13202 0f5e 52160000 		.4byte	.LASF343
 13203 0f62 0A       		.byte	0xa
 13204 0f63 C901     		.2byte	0x1c9
 13205 0f65 9F0F0000 		.4byte	0xf9f
 13206 0f69 14       		.byte	0x14
 13207 0f6a 1C       		.uleb128 0x1c
 13208 0f6b 5A0C0000 		.4byte	.LASF344
 13209 0f6f 0A       		.byte	0xa
 13210 0f70 CA01     		.2byte	0x1ca
 13211 0f72 9F0F0000 		.4byte	0xf9f
ARM GAS  C:\Users\RECEPC~1\AppData\Local\Temp\ccvxjDo6.s 			page 282


 13212 0f76 18       		.byte	0x18
 13213 0f77 1C       		.uleb128 0x1c
 13214 0f78 8D0F0000 		.4byte	.LASF345
 13215 0f7c 0A       		.byte	0xa
 13216 0f7d CB01     		.2byte	0x1cb
 13217 0f7f A50F0000 		.4byte	0xfa5
 13218 0f83 1C       		.byte	0x1c
 13219 0f84 1C       		.uleb128 0x1c
 13220 0f85 07160000 		.4byte	.LASF50
 13221 0f89 0A       		.byte	0xa
 13222 0f8a CD01     		.2byte	0x1cd
 13223 0f8c 77020000 		.4byte	0x277
 13224 0f90 20       		.byte	0x20
 13225 0f91 1C       		.uleb128 0x1c
 13226 0f92 B3150000 		.4byte	.LASF49
 13227 0f96 0A       		.byte	0xa
 13228 0f97 CE01     		.2byte	0x1ce
 13229 0f99 11010000 		.4byte	0x111
 13230 0f9d 24       		.byte	0x24
 13231 0f9e 00       		.byte	0
 13232 0f9f 07       		.uleb128 0x7
 13233 0fa0 04       		.byte	0x4
 13234 0fa1 740E0000 		.4byte	0xe74
 13235 0fa5 07       		.uleb128 0x7
 13236 0fa6 04       		.byte	0x4
 13237 0fa7 630D0000 		.4byte	0xd63
 13238 0fab 05       		.uleb128 0x5
 13239 0fac 72200000 		.4byte	.LASF346
 13240 0fb0 0A       		.byte	0xa
 13241 0fb1 D001     		.2byte	0x1d0
 13242 0fb3 C50E0000 		.4byte	0xec5
 13243 0fb7 05       		.uleb128 0x5
 13244 0fb8 5A1C0000 		.4byte	.LASF347
 13245 0fbc 0A       		.byte	0xa
 13246 0fbd D001     		.2byte	0x1d0
 13247 0fbf C30F0000 		.4byte	0xfc3
 13248 0fc3 07       		.uleb128 0x7
 13249 0fc4 04       		.byte	0x4
 13250 0fc5 C50E0000 		.4byte	0xec5
 13251 0fc9 1F       		.uleb128 0x1f
 13252 0fca 81020000 		.4byte	.LASF348
 13253 0fce 5407     		.2byte	0x754
 13254 0fd0 0A       		.byte	0xa
 13255 0fd1 D201     		.2byte	0x1d2
 13256 0fd3 54100000 		.4byte	0x1054
 13257 0fd7 1C       		.uleb128 0x1c
 13258 0fd8 8D1B0000 		.4byte	.LASF349
 13259 0fdc 0A       		.byte	0xa
 13260 0fdd D401     		.2byte	0x1d4
 13261 0fdf F9000000 		.4byte	0xf9
 13262 0fe3 00       		.byte	0
 13263 0fe4 1C       		.uleb128 0x1c
 13264 0fe5 AA1F0000 		.4byte	.LASF350
 13265 0fe9 0A       		.byte	0xa
 13266 0fea D601     		.2byte	0x1d6
 13267 0fec 54100000 		.4byte	0x1054
 13268 0ff0 04       		.byte	0x4
ARM GAS  C:\Users\RECEPC~1\AppData\Local\Temp\ccvxjDo6.s 			page 283


 13269 0ff1 1D       		.uleb128 0x1d
 13270 0ff2 FD090000 		.4byte	.LASF351
 13271 0ff6 0A       		.byte	0xa
 13272 0ff7 D701     		.2byte	0x1d7
 13273 0ff9 64100000 		.4byte	0x1064
 13274 0ffd 9406     		.2byte	0x694
 13275 0fff 1D       		.uleb128 0x1d
 13276 1000 2D120000 		.4byte	.LASF352
 13277 1004 0A       		.byte	0xa
 13278 1005 D901     		.2byte	0x1d9
 13279 1007 77020000 		.4byte	0x277
 13280 100b 3C07     		.2byte	0x73c
 13281 100d 1D       		.uleb128 0x1d
 13282 100e 351E0000 		.4byte	.LASF353
 13283 1012 0A       		.byte	0xa
 13284 1013 DA01     		.2byte	0x1da
 13285 1015 89100000 		.4byte	0x1089
 13286 1019 4007     		.2byte	0x740
 13287 101b 1D       		.uleb128 0x1d
 13288 101c 1B130000 		.4byte	.LASF354
 13289 1020 0A       		.byte	0xa
 13290 1021 DB01     		.2byte	0x1db
 13291 1023 9F100000 		.4byte	0x109f
 13292 1027 4407     		.2byte	0x744
 13293 1029 1D       		.uleb128 0x1d
 13294 102a 400E0000 		.4byte	.LASF355
 13295 102e 0A       		.byte	0xa
 13296 102f DC01     		.2byte	0x1dc
 13297 1031 89100000 		.4byte	0x1089
 13298 1035 4807     		.2byte	0x748
 13299 1037 1D       		.uleb128 0x1d
 13300 1038 62250000 		.4byte	.LASF356
 13301 103c 0A       		.byte	0xa
 13302 103d DD01     		.2byte	0x1dd
 13303 103f 77020000 		.4byte	0x277
 13304 1043 4C07     		.2byte	0x74c
 13305 1045 1D       		.uleb128 0x1d
 13306 1046 44110000 		.4byte	.LASF357
 13307 104a 0A       		.byte	0xa
 13308 104b DE01     		.2byte	0x1de
 13309 104d 77020000 		.4byte	0x277
 13310 1051 5007     		.2byte	0x750
 13311 1053 00       		.byte	0
 13312 1054 0A       		.uleb128 0xa
 13313 1055 AB0F0000 		.4byte	0xfab
 13314 1059 64100000 		.4byte	0x1064
 13315 105d 0B       		.uleb128 0xb
 13316 105e 0A010000 		.4byte	0x10a
 13317 1062 29       		.byte	0x29
 13318 1063 00       		.byte	0
 13319 1064 0A       		.uleb128 0xa
 13320 1065 74100000 		.4byte	0x1074
 13321 1069 74100000 		.4byte	0x1074
 13322 106d 0B       		.uleb128 0xb
 13323 106e 0A010000 		.4byte	0x10a
 13324 1072 29       		.byte	0x29
 13325 1073 00       		.byte	0
ARM GAS  C:\Users\RECEPC~1\AppData\Local\Temp\ccvxjDo6.s 			page 284


 13326 1074 07       		.uleb128 0x7
 13327 1075 04       		.byte	0x4
 13328 1076 AB0F0000 		.4byte	0xfab
 13329 107a 18       		.uleb128 0x18
 13330 107b 74100000 		.4byte	0x1074
 13331 107f 89100000 		.4byte	0x1089
 13332 1083 13       		.uleb128 0x13
 13333 1084 11010000 		.4byte	0x111
 13334 1088 00       		.byte	0
 13335 1089 07       		.uleb128 0x7
 13336 108a 04       		.byte	0x4
 13337 108b 7A100000 		.4byte	0x107a
 13338 108f 12       		.uleb128 0x12
 13339 1090 9F100000 		.4byte	0x109f
 13340 1094 13       		.uleb128 0x13
 13341 1095 11010000 		.4byte	0x111
 13342 1099 13       		.uleb128 0x13
 13343 109a 74100000 		.4byte	0x1074
 13344 109e 00       		.byte	0
 13345 109f 07       		.uleb128 0x7
 13346 10a0 04       		.byte	0x4
 13347 10a1 8F100000 		.4byte	0x108f
 13348 10a5 05       		.uleb128 0x5
 13349 10a6 55040000 		.4byte	.LASF358
 13350 10aa 0A       		.byte	0xa
 13351 10ab E001     		.2byte	0x1e0
 13352 10ad C90F0000 		.4byte	0xfc9
 13353 10b1 1E       		.uleb128 0x1e
 13354 10b2 14       		.byte	0x14
 13355 10b3 0A       		.byte	0xa
 13356 10b4 EC01     		.2byte	0x1ec
 13357 10b6 9B110000 		.4byte	0x119b
 13358 10ba 1C       		.uleb128 0x1c
 13359 10bb 82140000 		.4byte	.LASF359
 13360 10bf 0A       		.byte	0xa
 13361 10c0 EE01     		.2byte	0x1ee
 13362 10c2 4F020000 		.4byte	0x24f
 13363 10c6 00       		.byte	0
 13364 10c7 1C       		.uleb128 0x1c
 13365 10c8 8C200000 		.4byte	.LASF360
 13366 10cc 0A       		.byte	0xa
 13367 10cd EF01     		.2byte	0x1ef
 13368 10cf 4F020000 		.4byte	0x24f
 13369 10d3 01       		.byte	0x1
 13370 10d4 1C       		.uleb128 0x1c
 13371 10d5 D70C0000 		.4byte	.LASF361
 13372 10d9 0A       		.byte	0xa
 13373 10da F301     		.2byte	0x1f3
 13374 10dc 97000000 		.4byte	0x97
 13375 10e0 02       		.byte	0x2
 13376 10e1 1C       		.uleb128 0x1c
 13377 10e2 151F0000 		.4byte	.LASF362
 13378 10e6 0A       		.byte	0xa
 13379 10e7 0102     		.2byte	0x201
 13380 10e9 97000000 		.4byte	0x97
 13381 10ed 03       		.byte	0x3
 13382 10ee 1C       		.uleb128 0x1c
ARM GAS  C:\Users\RECEPC~1\AppData\Local\Temp\ccvxjDo6.s 			page 285


 13383 10ef F70D0000 		.4byte	.LASF363
 13384 10f3 0A       		.byte	0xa
 13385 10f4 0202     		.2byte	0x202
 13386 10f6 97000000 		.4byte	0x97
 13387 10fa 04       		.byte	0x4
 13388 10fb 1C       		.uleb128 0x1c
 13389 10fc 361F0000 		.4byte	.LASF364
 13390 1100 0A       		.byte	0xa
 13391 1101 0302     		.2byte	0x203
 13392 1103 97000000 		.4byte	0x97
 13393 1107 05       		.byte	0x5
 13394 1108 1C       		.uleb128 0x1c
 13395 1109 461F0000 		.4byte	.LASF365
 13396 110d 0A       		.byte	0xa
 13397 110e 0402     		.2byte	0x204
 13398 1110 97000000 		.4byte	0x97
 13399 1114 06       		.byte	0x6
 13400 1115 1C       		.uleb128 0x1c
 13401 1116 480F0000 		.4byte	.LASF366
 13402 111a 0A       		.byte	0xa
 13403 111b 0602     		.2byte	0x206
 13404 111d 97000000 		.4byte	0x97
 13405 1121 07       		.byte	0x7
 13406 1122 1C       		.uleb128 0x1c
 13407 1123 99110000 		.4byte	.LASF367
 13408 1127 0A       		.byte	0xa
 13409 1128 0702     		.2byte	0x207
 13410 112a 97000000 		.4byte	0x97
 13411 112e 08       		.byte	0x8
 13412 112f 1C       		.uleb128 0x1c
 13413 1130 E10D0000 		.4byte	.LASF368
 13414 1134 0A       		.byte	0xa
 13415 1135 0802     		.2byte	0x208
 13416 1137 97000000 		.4byte	0x97
 13417 113b 09       		.byte	0x9
 13418 113c 1C       		.uleb128 0x1c
 13419 113d 3A000000 		.4byte	.LASF369
 13420 1141 0A       		.byte	0xa
 13421 1142 0A02     		.2byte	0x20a
 13422 1144 97000000 		.4byte	0x97
 13423 1148 0A       		.byte	0xa
 13424 1149 1C       		.uleb128 0x1c
 13425 114a 690F0000 		.4byte	.LASF370
 13426 114e 0A       		.byte	0xa
 13427 114f 0C02     		.2byte	0x20c
 13428 1151 A3000000 		.4byte	0xa3
 13429 1155 0C       		.byte	0xc
 13430 1156 1C       		.uleb128 0x1c
 13431 1157 6D1F0000 		.4byte	.LASF371
 13432 115b 0A       		.byte	0xa
 13433 115c 0D02     		.2byte	0x20d
 13434 115e A3000000 		.4byte	0xa3
 13435 1162 0E       		.byte	0xe
 13436 1163 1C       		.uleb128 0x1c
 13437 1164 E32B0000 		.4byte	.LASF372
 13438 1168 0A       		.byte	0xa
 13439 1169 0F02     		.2byte	0x20f
ARM GAS  C:\Users\RECEPC~1\AppData\Local\Temp\ccvxjDo6.s 			page 286


 13440 116b 97000000 		.4byte	0x97
 13441 116f 10       		.byte	0x10
 13442 1170 1C       		.uleb128 0x1c
 13443 1171 B60C0000 		.4byte	.LASF373
 13444 1175 0A       		.byte	0xa
 13445 1176 1102     		.2byte	0x211
 13446 1178 97000000 		.4byte	0x97
 13447 117c 11       		.byte	0x11
 13448 117d 1C       		.uleb128 0x1c
 13449 117e 12000000 		.4byte	.LASF374
 13450 1182 0A       		.byte	0xa
 13451 1183 1302     		.2byte	0x213
 13452 1185 97000000 		.4byte	0x97
 13453 1189 12       		.byte	0x12
 13454 118a 21       		.uleb128 0x21
 13455 118b A31B0000 		.4byte	.LASF589
 13456 118f 0A       		.byte	0xa
 13457 1190 1502     		.2byte	0x215
 13458 1192 97000000 		.4byte	0x97
 13459 1196 01       		.byte	0x1
 13460 1197 01       		.byte	0x1
 13461 1198 07       		.byte	0x7
 13462 1199 13       		.byte	0x13
 13463 119a 00       		.byte	0
 13464 119b 05       		.uleb128 0x5
 13465 119c F4210000 		.4byte	.LASF375
 13466 11a0 0A       		.byte	0xa
 13467 11a1 1602     		.2byte	0x216
 13468 11a3 B1100000 		.4byte	0x10b1
 13469 11a7 03       		.uleb128 0x3
 13470 11a8 67000000 		.4byte	.LASF376
 13471 11ac 0B       		.byte	0xb
 13472 11ad 98       		.byte	0x98
 13473 11ae 77020000 		.4byte	0x277
 13474 11b2 0C       		.uleb128 0xc
 13475 11b3 7C080000 		.4byte	.LASF377
 13476 11b7 02       		.byte	0x2
 13477 11b8 0C       		.byte	0xc
 13478 11b9 2A       		.byte	0x2a
 13479 11ba D6120000 		.4byte	0x12d6
 13480 11be 0D       		.uleb128 0xd
 13481 11bf 8A010000 		.4byte	.LASF378
 13482 11c3 00       		.sleb128 0
 13483 11c4 0D       		.uleb128 0xd
 13484 11c5 A9040000 		.4byte	.LASF379
 13485 11c9 C000     		.sleb128 64
 13486 11cb 0D       		.uleb128 0xd
 13487 11cc AF010000 		.4byte	.LASF380
 13488 11d0 8001     		.sleb128 128
 13489 11d2 0D       		.uleb128 0xd
 13490 11d3 CA010000 		.4byte	.LASF381
 13491 11d7 C001     		.sleb128 192
 13492 11d9 0D       		.uleb128 0xd
 13493 11da E5010000 		.4byte	.LASF382
 13494 11de 8002     		.sleb128 256
 13495 11e0 0D       		.uleb128 0xd
 13496 11e1 00020000 		.4byte	.LASF383
ARM GAS  C:\Users\RECEPC~1\AppData\Local\Temp\ccvxjDo6.s 			page 287


 13497 11e5 C002     		.sleb128 320
 13498 11e7 0D       		.uleb128 0xd
 13499 11e8 1B020000 		.4byte	.LASF384
 13500 11ec 8003     		.sleb128 384
 13501 11ee 0D       		.uleb128 0xd
 13502 11ef 36020000 		.4byte	.LASF385
 13503 11f3 C003     		.sleb128 448
 13504 11f5 0D       		.uleb128 0xd
 13505 11f6 BD060000 		.4byte	.LASF386
 13506 11fa 8004     		.sleb128 512
 13507 11fc 0D       		.uleb128 0xd
 13508 11fd 6A090000 		.4byte	.LASF387
 13509 1201 C004     		.sleb128 576
 13510 1203 0D       		.uleb128 0xd
 13511 1204 8E290000 		.4byte	.LASF388
 13512 1208 8005     		.sleb128 640
 13513 120a 0D       		.uleb128 0xd
 13514 120b 75100000 		.4byte	.LASF389
 13515 120f C005     		.sleb128 704
 13516 1211 0D       		.uleb128 0xd
 13517 1212 AC050000 		.4byte	.LASF390
 13518 1216 8006     		.sleb128 768
 13519 1218 0D       		.uleb128 0xd
 13520 1219 1E0F0000 		.4byte	.LASF391
 13521 121d C006     		.sleb128 832
 13522 121f 0D       		.uleb128 0xd
 13523 1220 0F2B0000 		.4byte	.LASF392
 13524 1224 8007     		.sleb128 896
 13525 1226 0D       		.uleb128 0xd
 13526 1227 EA130000 		.4byte	.LASF393
 13527 122b C007     		.sleb128 960
 13528 122d 0D       		.uleb128 0xd
 13529 122e 8D090000 		.4byte	.LASF394
 13530 1232 8008     		.sleb128 1024
 13531 1234 0D       		.uleb128 0xd
 13532 1235 B81F0000 		.4byte	.LASF395
 13533 1239 C008     		.sleb128 1088
 13534 123b 0D       		.uleb128 0xd
 13535 123c 25270000 		.4byte	.LASF396
 13536 1240 8009     		.sleb128 1152
 13537 1242 0D       		.uleb128 0xd
 13538 1243 86120000 		.4byte	.LASF397
 13539 1247 C009     		.sleb128 1216
 13540 1249 0D       		.uleb128 0xd
 13541 124a 5B130000 		.4byte	.LASF398
 13542 124e 800A     		.sleb128 1280
 13543 1250 0D       		.uleb128 0xd
 13544 1251 79130000 		.4byte	.LASF399
 13545 1255 C00A     		.sleb128 1344
 13546 1257 0D       		.uleb128 0xd
 13547 1258 97130000 		.4byte	.LASF400
 13548 125c 800B     		.sleb128 1408
 13549 125e 0D       		.uleb128 0xd
 13550 125f B5130000 		.4byte	.LASF401
 13551 1263 C00B     		.sleb128 1472
 13552 1265 0D       		.uleb128 0xd
 13553 1266 0B1A0000 		.4byte	.LASF402
ARM GAS  C:\Users\RECEPC~1\AppData\Local\Temp\ccvxjDo6.s 			page 288


 13554 126a 800C     		.sleb128 1536
 13555 126c 0D       		.uleb128 0xd
 13556 126d 781C0000 		.4byte	.LASF403
 13557 1271 C00C     		.sleb128 1600
 13558 1273 0D       		.uleb128 0xd
 13559 1274 F80B0000 		.4byte	.LASF404
 13560 1278 800D     		.sleb128 1664
 13561 127a 0D       		.uleb128 0xd
 13562 127b 1F080000 		.4byte	.LASF405
 13563 127f C00D     		.sleb128 1728
 13564 1281 0D       		.uleb128 0xd
 13565 1282 601D0000 		.4byte	.LASF406
 13566 1286 800E     		.sleb128 1792
 13567 1288 0D       		.uleb128 0xd
 13568 1289 8E2C0000 		.4byte	.LASF407
 13569 128d C00E     		.sleb128 1856
 13570 128f 0D       		.uleb128 0xd
 13571 1290 A70F0000 		.4byte	.LASF408
 13572 1294 800F     		.sleb128 1920
 13573 1296 0D       		.uleb128 0xd
 13574 1297 23060000 		.4byte	.LASF409
 13575 129b C00F     		.sleb128 1984
 13576 129d 0D       		.uleb128 0xd
 13577 129e BA1B0000 		.4byte	.LASF410
 13578 12a2 8010     		.sleb128 2048
 13579 12a4 0D       		.uleb128 0xd
 13580 12a5 8C180000 		.4byte	.LASF411
 13581 12a9 C010     		.sleb128 2112
 13582 12ab 0D       		.uleb128 0xd
 13583 12ac 74070000 		.4byte	.LASF412
 13584 12b0 8011     		.sleb128 2176
 13585 12b2 0D       		.uleb128 0xd
 13586 12b3 71030000 		.4byte	.LASF413
 13587 12b7 C011     		.sleb128 2240
 13588 12b9 0D       		.uleb128 0xd
 13589 12ba D8190000 		.4byte	.LASF414
 13590 12be 8012     		.sleb128 2304
 13591 12c0 0D       		.uleb128 0xd
 13592 12c1 CF160000 		.4byte	.LASF415
 13593 12c5 C012     		.sleb128 2368
 13594 12c7 0D       		.uleb128 0xd
 13595 12c8 1D050000 		.4byte	.LASF416
 13596 12cc 8013     		.sleb128 2432
 13597 12ce 0D       		.uleb128 0xd
 13598 12cf 6C220000 		.4byte	.LASF417
 13599 12d3 C013     		.sleb128 2496
 13600 12d5 00       		.byte	0
 13601 12d6 17       		.uleb128 0x17
 13602 12d7 01       		.byte	0x1
 13603 12d8 0D       		.byte	0xd
 13604 12d9 26       		.byte	0x26
 13605 12da F0130000 		.4byte	0x13f0
 13606 12de 0D       		.uleb128 0xd
 13607 12df D30A0000 		.4byte	.LASF418
 13608 12e3 A101     		.sleb128 161
 13609 12e5 0D       		.uleb128 0xd
 13610 12e6 D90B0000 		.4byte	.LASF419
ARM GAS  C:\Users\RECEPC~1\AppData\Local\Temp\ccvxjDo6.s 			page 289


 13611 12ea A101     		.sleb128 161
 13612 12ec 0D       		.uleb128 0xd
 13613 12ed 05030000 		.4byte	.LASF420
 13614 12f1 A201     		.sleb128 162
 13615 12f3 0D       		.uleb128 0xd
 13616 12f4 49220000 		.4byte	.LASF421
 13617 12f8 A201     		.sleb128 162
 13618 12fa 0D       		.uleb128 0xd
 13619 12fb BC100000 		.4byte	.LASF422
 13620 12ff A301     		.sleb128 163
 13621 1301 0D       		.uleb128 0xd
 13622 1302 25280000 		.4byte	.LASF423
 13623 1306 A301     		.sleb128 163
 13624 1308 0D       		.uleb128 0xd
 13625 1309 E80A0000 		.4byte	.LASF424
 13626 130d AE01     		.sleb128 174
 13627 130f 0D       		.uleb128 0xd
 13628 1310 300A0000 		.4byte	.LASF425
 13629 1314 AE01     		.sleb128 174
 13630 1316 0D       		.uleb128 0xd
 13631 1317 080D0000 		.4byte	.LASF426
 13632 131b AA01     		.sleb128 170
 13633 131d 0D       		.uleb128 0xd
 13634 131e 23290000 		.4byte	.LASF427
 13635 1322 AA01     		.sleb128 170
 13636 1324 0D       		.uleb128 0xd
 13637 1325 ED1B0000 		.4byte	.LASF428
 13638 1329 A401     		.sleb128 164
 13639 132b 0D       		.uleb128 0xd
 13640 132c 78150000 		.4byte	.LASF429
 13641 1330 A401     		.sleb128 164
 13642 1332 0D       		.uleb128 0xd
 13643 1333 9D150000 		.4byte	.LASF430
 13644 1337 A501     		.sleb128 165
 13645 1339 0D       		.uleb128 0xd
 13646 133a 87170000 		.4byte	.LASF431
 13647 133e A501     		.sleb128 165
 13648 1340 0D       		.uleb128 0xd
 13649 1341 7C110000 		.4byte	.LASF432
 13650 1345 E801     		.sleb128 232
 13651 1347 0D       		.uleb128 0xd
 13652 1348 C21D0000 		.4byte	.LASF433
 13653 134c E801     		.sleb128 232
 13654 134e 0D       		.uleb128 0xd
 13655 134f 45230000 		.4byte	.LASF434
 13656 1353 A601     		.sleb128 166
 13657 1355 0D       		.uleb128 0xd
 13658 1356 B1290000 		.4byte	.LASF435
 13659 135a A601     		.sleb128 166
 13660 135c 0D       		.uleb128 0xd
 13661 135d F22A0000 		.4byte	.LASF436
 13662 1361 A701     		.sleb128 167
 13663 1363 0D       		.uleb128 0xd
 13664 1364 402C0000 		.4byte	.LASF437
 13665 1368 A701     		.sleb128 167
 13666 136a 0D       		.uleb128 0xd
 13667 136b 7F0E0000 		.4byte	.LASF438
ARM GAS  C:\Users\RECEPC~1\AppData\Local\Temp\ccvxjDo6.s 			page 290


 13668 136f A801     		.sleb128 168
 13669 1371 0D       		.uleb128 0xd
 13670 1372 16070000 		.4byte	.LASF439
 13671 1376 A801     		.sleb128 168
 13672 1378 0D       		.uleb128 0xd
 13673 1379 50180000 		.4byte	.LASF440
 13674 137d A901     		.sleb128 169
 13675 137f 0D       		.uleb128 0xd
 13676 1380 52200000 		.4byte	.LASF441
 13677 1384 A901     		.sleb128 169
 13678 1386 0D       		.uleb128 0xd
 13679 1387 14140000 		.4byte	.LASF442
 13680 138b AC01     		.sleb128 172
 13681 138d 0D       		.uleb128 0xd
 13682 138e BF2B0000 		.4byte	.LASF443
 13683 1392 AC01     		.sleb128 172
 13684 1394 0D       		.uleb128 0xd
 13685 1395 45210000 		.4byte	.LASF444
 13686 1399 AD01     		.sleb128 173
 13687 139b 0D       		.uleb128 0xd
 13688 139c 600E0000 		.4byte	.LASF445
 13689 13a0 AD01     		.sleb128 173
 13690 13a2 0D       		.uleb128 0xd
 13691 13a3 592A0000 		.4byte	.LASF446
 13692 13a7 E101     		.sleb128 225
 13693 13a9 0D       		.uleb128 0xd
 13694 13aa 4A270000 		.4byte	.LASF447
 13695 13ae E101     		.sleb128 225
 13696 13b0 0D       		.uleb128 0xd
 13697 13b1 0F250000 		.4byte	.LASF448
 13698 13b5 E201     		.sleb128 226
 13699 13b7 0D       		.uleb128 0xd
 13700 13b8 4D070000 		.4byte	.LASF449
 13701 13bc E201     		.sleb128 226
 13702 13be 0D       		.uleb128 0xd
 13703 13bf FD2B0000 		.4byte	.LASF450
 13704 13c3 E301     		.sleb128 227
 13705 13c5 0D       		.uleb128 0xd
 13706 13c6 72060000 		.4byte	.LASF451
 13707 13ca E301     		.sleb128 227
 13708 13cc 0D       		.uleb128 0xd
 13709 13cd D0200000 		.4byte	.LASF452
 13710 13d1 E401     		.sleb128 228
 13711 13d3 0D       		.uleb128 0xd
 13712 13d4 02080000 		.4byte	.LASF453
 13713 13d8 E401     		.sleb128 228
 13714 13da 0D       		.uleb128 0xd
 13715 13db F3050000 		.4byte	.LASF454
 13716 13df E601     		.sleb128 230
 13717 13e1 0D       		.uleb128 0xd
 13718 13e2 9D2A0000 		.4byte	.LASF455
 13719 13e6 E601     		.sleb128 230
 13720 13e8 0D       		.uleb128 0xd
 13721 13e9 8A160000 		.4byte	.LASF456
 13722 13ed FF01     		.sleb128 255
 13723 13ef 00       		.byte	0
 13724 13f0 0C       		.uleb128 0xc
ARM GAS  C:\Users\RECEPC~1\AppData\Local\Temp\ccvxjDo6.s 			page 291


 13725 13f1 33040000 		.4byte	.LASF457
 13726 13f5 01       		.byte	0x1
 13727 13f6 0D       		.byte	0xd
 13728 13f7 8A       		.byte	0x8a
 13729 13f8 33140000 		.4byte	0x1433
 13730 13fc 0D       		.uleb128 0xd
 13731 13fd C4040000 		.4byte	.LASF458
 13732 1401 08       		.sleb128 8
 13733 1402 0D       		.uleb128 0xd
 13734 1403 17180000 		.4byte	.LASF459
 13735 1407 01       		.sleb128 1
 13736 1408 0D       		.uleb128 0xd
 13737 1409 441D0000 		.4byte	.LASF460
 13738 140d 02       		.sleb128 2
 13739 140e 0D       		.uleb128 0xd
 13740 140f 72240000 		.4byte	.LASF461
 13741 1413 03       		.sleb128 3
 13742 1414 0D       		.uleb128 0xd
 13743 1415 7C0D0000 		.4byte	.LASF462
 13744 1419 05       		.sleb128 5
 13745 141a 0D       		.uleb128 0xd
 13746 141b 62010000 		.4byte	.LASF463
 13747 141f 06       		.sleb128 6
 13748 1420 0D       		.uleb128 0xd
 13749 1421 F01C0000 		.4byte	.LASF464
 13750 1425 04       		.sleb128 4
 13751 1426 0D       		.uleb128 0xd
 13752 1427 82230000 		.4byte	.LASF465
 13753 142b 0B       		.sleb128 11
 13754 142c 0D       		.uleb128 0xd
 13755 142d 380C0000 		.4byte	.LASF466
 13756 1431 0C       		.sleb128 12
 13757 1432 00       		.byte	0
 13758 1433 0C       		.uleb128 0xc
 13759 1434 B2090000 		.4byte	.LASF467
 13760 1438 01       		.byte	0x1
 13761 1439 0D       		.byte	0xd
 13762 143a AC       		.byte	0xac
 13763 143b 4C140000 		.4byte	0x144c
 13764 143f 0D       		.uleb128 0xd
 13765 1440 D6050000 		.4byte	.LASF468
 13766 1444 01       		.sleb128 1
 13767 1445 0D       		.uleb128 0xd
 13768 1446 6D120000 		.4byte	.LASF469
 13769 144a 02       		.sleb128 2
 13770 144b 00       		.byte	0
 13771 144c 22       		.uleb128 0x22
 13772 144d 0A       		.byte	0xa
 13773 144e 0D       		.byte	0xd
 13774 144f B2       		.byte	0xb2
 13775 1450 91140000 		.4byte	0x1491
 13776 1454 0F       		.uleb128 0xf
 13777 1455 45030000 		.4byte	.LASF250
 13778 1459 0D       		.byte	0xd
 13779 145a B4       		.byte	0xb4
 13780 145b F4000000 		.4byte	0xf4
 13781 145f 00       		.byte	0
ARM GAS  C:\Users\RECEPC~1\AppData\Local\Temp\ccvxjDo6.s 			page 292


 13782 1460 0F       		.uleb128 0xf
 13783 1461 93060000 		.4byte	.LASF470
 13784 1465 0D       		.byte	0xd
 13785 1466 B5       		.byte	0xb5
 13786 1467 F9000000 		.4byte	0xf9
 13787 146b 02       		.byte	0x2
 13788 146c 0F       		.uleb128 0xf
 13789 146d 5C160000 		.4byte	.LASF471
 13790 1471 0D       		.byte	0xd
 13791 1472 B6       		.byte	0xb6
 13792 1473 F4000000 		.4byte	0xf4
 13793 1477 04       		.byte	0x4
 13794 1478 0F       		.uleb128 0xf
 13795 1479 83040000 		.4byte	.LASF472
 13796 147d 0D       		.byte	0xd
 13797 147e B8       		.byte	0xb8
 13798 147f F9000000 		.4byte	0xf9
 13799 1483 06       		.byte	0x6
 13800 1484 0F       		.uleb128 0xf
 13801 1485 172A0000 		.4byte	.LASF473
 13802 1489 0D       		.byte	0xd
 13803 148a B9       		.byte	0xb9
 13804 148b F9000000 		.4byte	0xf9
 13805 148f 08       		.byte	0x8
 13806 1490 00       		.byte	0
 13807 1491 03       		.uleb128 0x3
 13808 1492 5E2C0000 		.4byte	.LASF474
 13809 1496 0D       		.byte	0xd
 13810 1497 BA       		.byte	0xba
 13811 1498 4C140000 		.4byte	0x144c
 13812 149c 22       		.uleb128 0x22
 13813 149d 02       		.byte	0x2
 13814 149e 0E       		.byte	0xe
 13815 149f 72       		.byte	0x72
 13816 14a0 BD140000 		.4byte	0x14bd
 13817 14a4 0F       		.uleb128 0xf
 13818 14a5 D62C0000 		.4byte	.LASF475
 13819 14a9 0E       		.byte	0xe
 13820 14aa 74       		.byte	0x74
 13821 14ab 97000000 		.4byte	0x97
 13822 14af 00       		.byte	0
 13823 14b0 0F       		.uleb128 0xf
 13824 14b1 00000000 		.4byte	.LASF476
 13825 14b5 0E       		.byte	0xe
 13826 14b6 75       		.byte	0x75
 13827 14b7 97000000 		.4byte	0x97
 13828 14bb 01       		.byte	0x1
 13829 14bc 00       		.byte	0
 13830 14bd 03       		.uleb128 0x3
 13831 14be 54250000 		.4byte	.LASF477
 13832 14c2 0E       		.byte	0xe
 13833 14c3 77       		.byte	0x77
 13834 14c4 9C140000 		.4byte	0x149c
 13835 14c8 23       		.uleb128 0x23
 13836 14c9 53150000 		.4byte	.LASF481
 13837 14cd 01       		.byte	0x1
 13838 14ce 2C       		.byte	0x2c
ARM GAS  C:\Users\RECEPC~1\AppData\Local\Temp\ccvxjDo6.s 			page 293


 13839 14cf 00000000 		.4byte	.LFB63
 13840 14d3 34010000 		.4byte	.LFE63-.LFB63
 13841 14d7 01       		.uleb128 0x1
 13842 14d8 9C       		.byte	0x9c
 13843 14d9 20150000 		.4byte	0x1520
 13844 14dd 24       		.uleb128 0x24
 13845 14de 6B240000 		.4byte	.LASF483
 13846 14e2 01       		.byte	0x1
 13847 14e3 2C       		.byte	0x2c
 13848 14e4 11010000 		.4byte	0x111
 13849 14e8 02       		.uleb128 0x2
 13850 14e9 91       		.byte	0x91
 13851 14ea 6C       		.sleb128 -20
 13852 14eb 25       		.uleb128 0x25
 13853 14ec 09200000 		.4byte	.LASF478
 13854 14f0 01       		.byte	0x1
 13855 14f1 2E       		.byte	0x2e
 13856 14f2 B70F0000 		.4byte	0xfb7
 13857 14f6 02       		.uleb128 0x2
 13858 14f7 91       		.byte	0x91
 13859 14f8 74       		.sleb128 -12
 13860 14f9 26       		.uleb128 0x26
 13861 14fa 14000000 		.4byte	.LBB2
 13862 14fe 14010000 		.4byte	.LBE2-.LBB2
 13863 1502 25       		.uleb128 0x25
 13864 1503 A2050000 		.4byte	.LASF479
 13865 1507 01       		.byte	0x1
 13866 1508 31       		.byte	0x31
 13867 1509 97000000 		.4byte	0x97
 13868 150d 02       		.uleb128 0x2
 13869 150e 91       		.byte	0x91
 13870 150f 73       		.sleb128 -13
 13871 1510 25       		.uleb128 0x25
 13872 1511 6C150000 		.4byte	.LASF480
 13873 1515 01       		.byte	0x1
 13874 1516 32       		.byte	0x32
 13875 1517 97000000 		.4byte	0x97
 13876 151b 02       		.uleb128 0x2
 13877 151c 91       		.byte	0x91
 13878 151d 72       		.sleb128 -14
 13879 151e 00       		.byte	0
 13880 151f 00       		.byte	0
 13881 1520 27       		.uleb128 0x27
 13882 1521 E7100000 		.4byte	.LASF482
 13883 1525 01       		.byte	0x1
 13884 1526 5B       		.byte	0x5b
 13885 1527 00000000 		.4byte	.LFB64
 13886 152b 48000000 		.4byte	.LFE64-.LFB64
 13887 152f 01       		.uleb128 0x1
 13888 1530 9C       		.byte	0x9c
 13889 1531 52150000 		.4byte	0x1552
 13890 1535 24       		.uleb128 0x24
 13891 1536 6B240000 		.4byte	.LASF483
 13892 153a 01       		.byte	0x1
 13893 153b 5B       		.byte	0x5b
 13894 153c 11010000 		.4byte	0x111
 13895 1540 02       		.uleb128 0x2
ARM GAS  C:\Users\RECEPC~1\AppData\Local\Temp\ccvxjDo6.s 			page 294


 13896 1541 91       		.byte	0x91
 13897 1542 6C       		.sleb128 -20
 13898 1543 25       		.uleb128 0x25
 13899 1544 09200000 		.4byte	.LASF478
 13900 1548 01       		.byte	0x1
 13901 1549 5D       		.byte	0x5d
 13902 154a B70F0000 		.4byte	0xfb7
 13903 154e 02       		.uleb128 0x2
 13904 154f 91       		.byte	0x91
 13905 1550 74       		.sleb128 -12
 13906 1551 00       		.byte	0
 13907 1552 23       		.uleb128 0x23
 13908 1553 4D100000 		.4byte	.LASF484
 13909 1557 01       		.byte	0x1
 13910 1558 65       		.byte	0x65
 13911 1559 00000000 		.4byte	.LFB65
 13912 155d E0000000 		.4byte	.LFE65-.LFB65
 13913 1561 01       		.uleb128 0x1
 13914 1562 9C       		.byte	0x9c
 13915 1563 84150000 		.4byte	0x1584
 13916 1567 24       		.uleb128 0x24
 13917 1568 6B240000 		.4byte	.LASF483
 13918 156c 01       		.byte	0x1
 13919 156d 65       		.byte	0x65
 13920 156e 11010000 		.4byte	0x111
 13921 1572 02       		.uleb128 0x2
 13922 1573 91       		.byte	0x91
 13923 1574 64       		.sleb128 -28
 13924 1575 25       		.uleb128 0x25
 13925 1576 09200000 		.4byte	.LASF478
 13926 157a 01       		.byte	0x1
 13927 157b 67       		.byte	0x67
 13928 157c B70F0000 		.4byte	0xfb7
 13929 1580 02       		.uleb128 0x2
 13930 1581 91       		.byte	0x91
 13931 1582 6C       		.sleb128 -20
 13932 1583 00       		.byte	0
 13933 1584 23       		.uleb128 0x23
 13934 1585 B1220000 		.4byte	.LASF485
 13935 1589 01       		.byte	0x1
 13936 158a 77       		.byte	0x77
 13937 158b 00000000 		.4byte	.LFB66
 13938 158f F4000000 		.4byte	.LFE66-.LFB66
 13939 1593 01       		.uleb128 0x1
 13940 1594 9C       		.byte	0x9c
 13941 1595 B6150000 		.4byte	0x15b6
 13942 1599 24       		.uleb128 0x24
 13943 159a 6B240000 		.4byte	.LASF483
 13944 159e 01       		.byte	0x1
 13945 159f 77       		.byte	0x77
 13946 15a0 11010000 		.4byte	0x111
 13947 15a4 02       		.uleb128 0x2
 13948 15a5 91       		.byte	0x91
 13949 15a6 64       		.sleb128 -28
 13950 15a7 25       		.uleb128 0x25
 13951 15a8 09200000 		.4byte	.LASF478
 13952 15ac 01       		.byte	0x1
ARM GAS  C:\Users\RECEPC~1\AppData\Local\Temp\ccvxjDo6.s 			page 295


 13953 15ad 79       		.byte	0x79
 13954 15ae B70F0000 		.4byte	0xfb7
 13955 15b2 02       		.uleb128 0x2
 13956 15b3 91       		.byte	0x91
 13957 15b4 6C       		.sleb128 -20
 13958 15b5 00       		.byte	0
 13959 15b6 23       		.uleb128 0x23
 13960 15b7 ED120000 		.4byte	.LASF486
 13961 15bb 01       		.byte	0x1
 13962 15bc 8B       		.byte	0x8b
 13963 15bd 00000000 		.4byte	.LFB67
 13964 15c1 5A000000 		.4byte	.LFE67-.LFB67
 13965 15c5 01       		.uleb128 0x1
 13966 15c6 9C       		.byte	0x9c
 13967 15c7 E8150000 		.4byte	0x15e8
 13968 15cb 24       		.uleb128 0x24
 13969 15cc 6B240000 		.4byte	.LASF483
 13970 15d0 01       		.byte	0x1
 13971 15d1 8B       		.byte	0x8b
 13972 15d2 11010000 		.4byte	0x111
 13973 15d6 02       		.uleb128 0x2
 13974 15d7 91       		.byte	0x91
 13975 15d8 6C       		.sleb128 -20
 13976 15d9 25       		.uleb128 0x25
 13977 15da 09200000 		.4byte	.LASF478
 13978 15de 01       		.byte	0x1
 13979 15df 8D       		.byte	0x8d
 13980 15e0 B70F0000 		.4byte	0xfb7
 13981 15e4 02       		.uleb128 0x2
 13982 15e5 91       		.byte	0x91
 13983 15e6 74       		.sleb128 -12
 13984 15e7 00       		.byte	0
 13985 15e8 23       		.uleb128 0x23
 13986 15e9 F9230000 		.4byte	.LASF487
 13987 15ed 01       		.byte	0x1
 13988 15ee 9B       		.byte	0x9b
 13989 15ef 00000000 		.4byte	.LFB68
 13990 15f3 F4080000 		.4byte	.LFE68-.LFB68
 13991 15f7 01       		.uleb128 0x1
 13992 15f8 9C       		.byte	0x9c
 13993 15f9 4B160000 		.4byte	0x164b
 13994 15fd 24       		.uleb128 0x24
 13995 15fe 6B240000 		.4byte	.LASF483
 13996 1602 01       		.byte	0x1
 13997 1603 9B       		.byte	0x9b
 13998 1604 11010000 		.4byte	0x111
 13999 1608 02       		.uleb128 0x2
 14000 1609 91       		.byte	0x91
 14001 160a 5C       		.sleb128 -36
 14002 160b 25       		.uleb128 0x25
 14003 160c 09200000 		.4byte	.LASF478
 14004 1610 01       		.byte	0x1
 14005 1611 9D       		.byte	0x9d
 14006 1612 B70F0000 		.4byte	0xfb7
 14007 1616 02       		.uleb128 0x2
 14008 1617 91       		.byte	0x91
 14009 1618 6C       		.sleb128 -20
ARM GAS  C:\Users\RECEPC~1\AppData\Local\Temp\ccvxjDo6.s 			page 296


 14010 1619 26       		.uleb128 0x26
 14011 161a 14000000 		.4byte	.LBB3
 14012 161e DA080000 		.4byte	.LBE3-.LBB3
 14013 1622 28       		.uleb128 0x28
 14014 1623 70747300 		.ascii	"pts\000"
 14015 1627 01       		.byte	0x1
 14016 1628 7C01     		.2byte	0x17c
 14017 162a AF090000 		.4byte	0x9af
 14018 162e 02       		.uleb128 0x2
 14019 162f 91       		.byte	0x91
 14020 1630 64       		.sleb128 -28
 14021 1631 26       		.uleb128 0x26
 14022 1632 48000000 		.4byte	.LBB4
 14023 1636 BE010000 		.4byte	.LBE4-.LBB4
 14024 163a 25       		.uleb128 0x25
 14025 163b 9C0D0000 		.4byte	.LASF488
 14026 163f 01       		.byte	0x1
 14027 1640 A9       		.byte	0xa9
 14028 1641 A3000000 		.4byte	0xa3
 14029 1645 02       		.uleb128 0x2
 14030 1646 91       		.byte	0x91
 14031 1647 6A       		.sleb128 -22
 14032 1648 00       		.byte	0
 14033 1649 00       		.byte	0
 14034 164a 00       		.byte	0
 14035 164b 29       		.uleb128 0x29
 14036 164c DB030000 		.4byte	.LASF489
 14037 1650 01       		.byte	0x1
 14038 1651 9201     		.2byte	0x192
 14039 1653 00000000 		.4byte	.LFB69
 14040 1657 8C010000 		.4byte	.LFE69-.LFB69
 14041 165b 01       		.uleb128 0x1
 14042 165c 9C       		.byte	0x9c
 14043 165d A8160000 		.4byte	0x16a8
 14044 1661 2A       		.uleb128 0x2a
 14045 1662 6B240000 		.4byte	.LASF483
 14046 1666 01       		.byte	0x1
 14047 1667 9201     		.2byte	0x192
 14048 1669 11010000 		.4byte	0x111
 14049 166d 02       		.uleb128 0x2
 14050 166e 91       		.byte	0x91
 14051 166f 64       		.sleb128 -28
 14052 1670 2B       		.uleb128 0x2b
 14053 1671 09200000 		.4byte	.LASF478
 14054 1675 01       		.byte	0x1
 14055 1676 9401     		.2byte	0x194
 14056 1678 B70F0000 		.4byte	0xfb7
 14057 167c 02       		.uleb128 0x2
 14058 167d 91       		.byte	0x91
 14059 167e 68       		.sleb128 -24
 14060 167f 26       		.uleb128 0x26
 14061 1680 14000000 		.4byte	.LBB5
 14062 1684 6A010000 		.4byte	.LBE5-.LBB5
 14063 1688 2B       		.uleb128 0x2b
 14064 1689 E50C0000 		.4byte	.LASF490
 14065 168d 01       		.byte	0x1
 14066 168e 9701     		.2byte	0x197
ARM GAS  C:\Users\RECEPC~1\AppData\Local\Temp\ccvxjDo6.s 			page 297


 14067 1690 97000000 		.4byte	0x97
 14068 1694 02       		.uleb128 0x2
 14069 1695 91       		.byte	0x91
 14070 1696 6F       		.sleb128 -17
 14071 1697 2B       		.uleb128 0x2b
 14072 1698 84260000 		.4byte	.LASF491
 14073 169c 01       		.byte	0x1
 14074 169d 9801     		.2byte	0x198
 14075 169f 97000000 		.4byte	0x97
 14076 16a3 02       		.uleb128 0x2
 14077 16a4 91       		.byte	0x91
 14078 16a5 6E       		.sleb128 -18
 14079 16a6 00       		.byte	0
 14080 16a7 00       		.byte	0
 14081 16a8 29       		.uleb128 0x29
 14082 16a9 2C130000 		.4byte	.LASF492
 14083 16ad 01       		.byte	0x1
 14084 16ae C601     		.2byte	0x1c6
 14085 16b0 00000000 		.4byte	.LFB70
 14086 16b4 04020000 		.4byte	.LFE70-.LFB70
 14087 16b8 01       		.uleb128 0x1
 14088 16b9 9C       		.byte	0x9c
 14089 16ba 41170000 		.4byte	0x1741
 14090 16be 2A       		.uleb128 0x2a
 14091 16bf 6B240000 		.4byte	.LASF483
 14092 16c3 01       		.byte	0x1
 14093 16c4 C601     		.2byte	0x1c6
 14094 16c6 11010000 		.4byte	0x111
 14095 16ca 02       		.uleb128 0x2
 14096 16cb 91       		.byte	0x91
 14097 16cc 44       		.sleb128 -60
 14098 16cd 2B       		.uleb128 0x2b
 14099 16ce 09200000 		.4byte	.LASF478
 14100 16d2 01       		.byte	0x1
 14101 16d3 C801     		.2byte	0x1c8
 14102 16d5 B70F0000 		.4byte	0xfb7
 14103 16d9 02       		.uleb128 0x2
 14104 16da 91       		.byte	0x91
 14105 16db 5C       		.sleb128 -36
 14106 16dc 26       		.uleb128 0x26
 14107 16dd 14000000 		.4byte	.LBB6
 14108 16e1 E2010000 		.4byte	.LBE6-.LBB6
 14109 16e5 2B       		.uleb128 0x2b
 14110 16e6 E50C0000 		.4byte	.LASF490
 14111 16ea 01       		.byte	0x1
 14112 16eb CB01     		.2byte	0x1cb
 14113 16ed 97000000 		.4byte	0x97
 14114 16f1 02       		.uleb128 0x2
 14115 16f2 91       		.byte	0x91
 14116 16f3 77       		.sleb128 -9
 14117 16f4 2B       		.uleb128 0x2b
 14118 16f5 84260000 		.4byte	.LASF491
 14119 16f9 01       		.byte	0x1
 14120 16fa CC01     		.2byte	0x1cc
 14121 16fc 97000000 		.4byte	0x97
 14122 1700 02       		.uleb128 0x2
 14123 1701 91       		.byte	0x91
ARM GAS  C:\Users\RECEPC~1\AppData\Local\Temp\ccvxjDo6.s 			page 298


 14124 1702 76       		.sleb128 -10
 14125 1703 2B       		.uleb128 0x2b
 14126 1704 24220000 		.4byte	.LASF493
 14127 1708 01       		.byte	0x1
 14128 1709 E301     		.2byte	0x1e3
 14129 170b D5000000 		.4byte	0xd5
 14130 170f 02       		.uleb128 0x2
 14131 1710 91       		.byte	0x91
 14132 1711 68       		.sleb128 -24
 14133 1712 2B       		.uleb128 0x2b
 14134 1713 2A220000 		.4byte	.LASF494
 14135 1717 01       		.byte	0x1
 14136 1718 E301     		.2byte	0x1e3
 14137 171a D5000000 		.4byte	0xd5
 14138 171e 02       		.uleb128 0x2
 14139 171f 91       		.byte	0x91
 14140 1720 50       		.sleb128 -48
 14141 1721 2B       		.uleb128 0x2b
 14142 1722 30220000 		.4byte	.LASF495
 14143 1726 01       		.byte	0x1
 14144 1727 E301     		.2byte	0x1e3
 14145 1729 D5000000 		.4byte	0xd5
 14146 172d 02       		.uleb128 0x2
 14147 172e 91       		.byte	0x91
 14148 172f 60       		.sleb128 -32
 14149 1730 2B       		.uleb128 0x2b
 14150 1731 36220000 		.4byte	.LASF496
 14151 1735 01       		.byte	0x1
 14152 1736 E301     		.2byte	0x1e3
 14153 1738 D5000000 		.4byte	0xd5
 14154 173c 02       		.uleb128 0x2
 14155 173d 91       		.byte	0x91
 14156 173e 48       		.sleb128 -56
 14157 173f 00       		.byte	0
 14158 1740 00       		.byte	0
 14159 1741 29       		.uleb128 0x29
 14160 1742 711B0000 		.4byte	.LASF497
 14161 1746 01       		.byte	0x1
 14162 1747 1702     		.2byte	0x217
 14163 1749 00000000 		.4byte	.LFB71
 14164 174d A8010000 		.4byte	.LFE71-.LFB71
 14165 1751 01       		.uleb128 0x1
 14166 1752 9C       		.byte	0x9c
 14167 1753 CB170000 		.4byte	0x17cb
 14168 1757 2A       		.uleb128 0x2a
 14169 1758 6B240000 		.4byte	.LASF483
 14170 175c 01       		.byte	0x1
 14171 175d 1702     		.2byte	0x217
 14172 175f 11010000 		.4byte	0x111
 14173 1763 02       		.uleb128 0x2
 14174 1764 91       		.byte	0x91
 14175 1765 64       		.sleb128 -28
 14176 1766 2B       		.uleb128 0x2b
 14177 1767 09200000 		.4byte	.LASF478
 14178 176b 01       		.byte	0x1
 14179 176c 1902     		.2byte	0x219
 14180 176e B70F0000 		.4byte	0xfb7
ARM GAS  C:\Users\RECEPC~1\AppData\Local\Temp\ccvxjDo6.s 			page 299


 14181 1772 02       		.uleb128 0x2
 14182 1773 91       		.byte	0x91
 14183 1774 74       		.sleb128 -12
 14184 1775 26       		.uleb128 0x26
 14185 1776 14000000 		.4byte	.LBB7
 14186 177a 8A010000 		.4byte	.LBE7-.LBB7
 14187 177e 2B       		.uleb128 0x2b
 14188 177f 16050000 		.4byte	.LASF498
 14189 1783 01       		.byte	0x1
 14190 1784 1C02     		.2byte	0x21c
 14191 1786 54020000 		.4byte	0x254
 14192 178a 02       		.uleb128 0x2
 14193 178b 91       		.byte	0x91
 14194 178c 73       		.sleb128 -13
 14195 178d 2B       		.uleb128 0x2b
 14196 178e 681B0000 		.4byte	.LASF499
 14197 1792 01       		.byte	0x1
 14198 1793 1D02     		.2byte	0x21d
 14199 1795 97000000 		.4byte	0x97
 14200 1799 02       		.uleb128 0x2
 14201 179a 91       		.byte	0x91
 14202 179b 72       		.sleb128 -14
 14203 179c 2B       		.uleb128 0x2b
 14204 179d 0C270000 		.4byte	.LASF500
 14205 17a1 01       		.byte	0x1
 14206 17a2 2F02     		.2byte	0x22f
 14207 17a4 54020000 		.4byte	0x254
 14208 17a8 02       		.uleb128 0x2
 14209 17a9 91       		.byte	0x91
 14210 17aa 71       		.sleb128 -15
 14211 17ab 28       		.uleb128 0x28
 14212 17ac 70747300 		.ascii	"pts\000"
 14213 17b0 01       		.byte	0x1
 14214 17b1 3002     		.2byte	0x230
 14215 17b3 AF090000 		.4byte	0x9af
 14216 17b7 02       		.uleb128 0x2
 14217 17b8 91       		.byte	0x91
 14218 17b9 6C       		.sleb128 -20
 14219 17ba 2B       		.uleb128 0x2b
 14220 17bb 2C160000 		.4byte	.LASF501
 14221 17bf 01       		.byte	0x1
 14222 17c0 3102     		.2byte	0x231
 14223 17c2 AF090000 		.4byte	0x9af
 14224 17c6 02       		.uleb128 0x2
 14225 17c7 91       		.byte	0x91
 14226 17c8 68       		.sleb128 -24
 14227 17c9 00       		.byte	0
 14228 17ca 00       		.byte	0
 14229 17cb 29       		.uleb128 0x29
 14230 17cc E1000000 		.4byte	.LASF502
 14231 17d0 01       		.byte	0x1
 14232 17d1 5302     		.2byte	0x253
 14233 17d3 00000000 		.4byte	.LFB72
 14234 17d7 2C000000 		.4byte	.LFE72-.LFB72
 14235 17db 01       		.uleb128 0x1
 14236 17dc 9C       		.byte	0x9c
 14237 17dd 00180000 		.4byte	0x1800
ARM GAS  C:\Users\RECEPC~1\AppData\Local\Temp\ccvxjDo6.s 			page 300


 14238 17e1 2A       		.uleb128 0x2a
 14239 17e2 6B240000 		.4byte	.LASF483
 14240 17e6 01       		.byte	0x1
 14241 17e7 5302     		.2byte	0x253
 14242 17e9 11010000 		.4byte	0x111
 14243 17ed 02       		.uleb128 0x2
 14244 17ee 91       		.byte	0x91
 14245 17ef 6C       		.sleb128 -20
 14246 17f0 2B       		.uleb128 0x2b
 14247 17f1 09200000 		.4byte	.LASF478
 14248 17f5 01       		.byte	0x1
 14249 17f6 5502     		.2byte	0x255
 14250 17f8 B70F0000 		.4byte	0xfb7
 14251 17fc 02       		.uleb128 0x2
 14252 17fd 91       		.byte	0x91
 14253 17fe 74       		.sleb128 -12
 14254 17ff 00       		.byte	0
 14255 1800 2C       		.uleb128 0x2c
 14256 1801 762A0000 		.4byte	.LASF503
 14257 1805 01       		.byte	0x1
 14258 1806 9902     		.2byte	0x299
 14259 1808 00000000 		.4byte	.LFB73
 14260 180c 36000000 		.4byte	.LFE73-.LFB73
 14261 1810 01       		.uleb128 0x1
 14262 1811 9C       		.byte	0x9c
 14263 1812 35180000 		.4byte	0x1835
 14264 1816 2A       		.uleb128 0x2a
 14265 1817 6B240000 		.4byte	.LASF483
 14266 181b 01       		.byte	0x1
 14267 181c 9902     		.2byte	0x299
 14268 181e 11010000 		.4byte	0x111
 14269 1822 02       		.uleb128 0x2
 14270 1823 91       		.byte	0x91
 14271 1824 6C       		.sleb128 -20
 14272 1825 2B       		.uleb128 0x2b
 14273 1826 09200000 		.4byte	.LASF478
 14274 182a 01       		.byte	0x1
 14275 182b 9B02     		.2byte	0x29b
 14276 182d B70F0000 		.4byte	0xfb7
 14277 1831 02       		.uleb128 0x2
 14278 1832 91       		.byte	0x91
 14279 1833 74       		.sleb128 -12
 14280 1834 00       		.byte	0
 14281 1835 2C       		.uleb128 0x2c
 14282 1836 9D2B0000 		.4byte	.LASF504
 14283 183a 01       		.byte	0x1
 14284 183b AA02     		.2byte	0x2aa
 14285 183d 00000000 		.4byte	.LFB74
 14286 1841 36000000 		.4byte	.LFE74-.LFB74
 14287 1845 01       		.uleb128 0x1
 14288 1846 9C       		.byte	0x9c
 14289 1847 6A180000 		.4byte	0x186a
 14290 184b 2A       		.uleb128 0x2a
 14291 184c 6B240000 		.4byte	.LASF483
 14292 1850 01       		.byte	0x1
 14293 1851 AA02     		.2byte	0x2aa
 14294 1853 11010000 		.4byte	0x111
ARM GAS  C:\Users\RECEPC~1\AppData\Local\Temp\ccvxjDo6.s 			page 301


 14295 1857 02       		.uleb128 0x2
 14296 1858 91       		.byte	0x91
 14297 1859 6C       		.sleb128 -20
 14298 185a 2B       		.uleb128 0x2b
 14299 185b 09200000 		.4byte	.LASF478
 14300 185f 01       		.byte	0x1
 14301 1860 AC02     		.2byte	0x2ac
 14302 1862 B70F0000 		.4byte	0xfb7
 14303 1866 02       		.uleb128 0x2
 14304 1867 91       		.byte	0x91
 14305 1868 74       		.sleb128 -12
 14306 1869 00       		.byte	0
 14307 186a 29       		.uleb128 0x29
 14308 186b 6A110000 		.4byte	.LASF505
 14309 186f 01       		.byte	0x1
 14310 1870 BF02     		.2byte	0x2bf
 14311 1872 00000000 		.4byte	.LFB75
 14312 1876 82000000 		.4byte	.LFE75-.LFB75
 14313 187a 01       		.uleb128 0x1
 14314 187b 9C       		.byte	0x9c
 14315 187c C7180000 		.4byte	0x18c7
 14316 1880 2A       		.uleb128 0x2a
 14317 1881 6B240000 		.4byte	.LASF483
 14318 1885 01       		.byte	0x1
 14319 1886 BF02     		.2byte	0x2bf
 14320 1888 11010000 		.4byte	0x111
 14321 188c 02       		.uleb128 0x2
 14322 188d 91       		.byte	0x91
 14323 188e 64       		.sleb128 -28
 14324 188f 2B       		.uleb128 0x2b
 14325 1890 34000000 		.4byte	.LASF506
 14326 1894 01       		.byte	0x1
 14327 1895 C102     		.2byte	0x2c1
 14328 1897 6F0D0000 		.4byte	0xd6f
 14329 189b 02       		.uleb128 0x2
 14330 189c 91       		.byte	0x91
 14331 189d 74       		.sleb128 -12
 14332 189e 26       		.uleb128 0x26
 14333 189f 12000000 		.4byte	.LBB8
 14334 18a3 6A000000 		.4byte	.LBE8-.LBB8
 14335 18a7 2B       		.uleb128 0x2b
 14336 18a8 84260000 		.4byte	.LASF491
 14337 18ac 01       		.byte	0x1
 14338 18ad C802     		.2byte	0x2c8
 14339 18af 81000000 		.4byte	0x81
 14340 18b3 02       		.uleb128 0x2
 14341 18b4 91       		.byte	0x91
 14342 18b5 73       		.sleb128 -13
 14343 18b6 2B       		.uleb128 0x2b
 14344 18b7 6D0D0000 		.4byte	.LASF507
 14345 18bb 01       		.byte	0x1
 14346 18bc CA02     		.2byte	0x2ca
 14347 18be 97050000 		.4byte	0x597
 14348 18c2 02       		.uleb128 0x2
 14349 18c3 91       		.byte	0x91
 14350 18c4 6C       		.sleb128 -20
 14351 18c5 00       		.byte	0
ARM GAS  C:\Users\RECEPC~1\AppData\Local\Temp\ccvxjDo6.s 			page 302


 14352 18c6 00       		.byte	0
 14353 18c7 29       		.uleb128 0x29
 14354 18c8 760B0000 		.4byte	.LASF508
 14355 18cc 01       		.byte	0x1
 14356 18cd DA02     		.2byte	0x2da
 14357 18cf 00000000 		.4byte	.LFB76
 14358 18d3 70000000 		.4byte	.LFE76-.LFB76
 14359 18d7 01       		.uleb128 0x1
 14360 18d8 9C       		.byte	0x9c
 14361 18d9 24190000 		.4byte	0x1924
 14362 18dd 2A       		.uleb128 0x2a
 14363 18de 6B240000 		.4byte	.LASF483
 14364 18e2 01       		.byte	0x1
 14365 18e3 DA02     		.2byte	0x2da
 14366 18e5 11010000 		.4byte	0x111
 14367 18e9 02       		.uleb128 0x2
 14368 18ea 91       		.byte	0x91
 14369 18eb 64       		.sleb128 -28
 14370 18ec 2B       		.uleb128 0x2b
 14371 18ed 34000000 		.4byte	.LASF506
 14372 18f1 01       		.byte	0x1
 14373 18f2 DC02     		.2byte	0x2dc
 14374 18f4 6F0D0000 		.4byte	0xd6f
 14375 18f8 02       		.uleb128 0x2
 14376 18f9 91       		.byte	0x91
 14377 18fa 74       		.sleb128 -12
 14378 18fb 26       		.uleb128 0x26
 14379 18fc 12000000 		.4byte	.LBB9
 14380 1900 58000000 		.4byte	.LBE9-.LBB9
 14381 1904 2B       		.uleb128 0x2b
 14382 1905 84260000 		.4byte	.LASF491
 14383 1909 01       		.byte	0x1
 14384 190a DF02     		.2byte	0x2df
 14385 190c 81000000 		.4byte	0x81
 14386 1910 02       		.uleb128 0x2
 14387 1911 91       		.byte	0x91
 14388 1912 73       		.sleb128 -13
 14389 1913 2B       		.uleb128 0x2b
 14390 1914 6D0D0000 		.4byte	.LASF507
 14391 1918 01       		.byte	0x1
 14392 1919 E102     		.2byte	0x2e1
 14393 191b 97050000 		.4byte	0x597
 14394 191f 02       		.uleb128 0x2
 14395 1920 91       		.byte	0x91
 14396 1921 6C       		.sleb128 -20
 14397 1922 00       		.byte	0
 14398 1923 00       		.byte	0
 14399 1924 29       		.uleb128 0x29
 14400 1925 CC040000 		.4byte	.LASF509
 14401 1929 01       		.byte	0x1
 14402 192a F102     		.2byte	0x2f1
 14403 192c 00000000 		.4byte	.LFB77
 14404 1930 60000000 		.4byte	.LFE77-.LFB77
 14405 1934 01       		.uleb128 0x1
 14406 1935 9C       		.byte	0x9c
 14407 1936 81190000 		.4byte	0x1981
 14408 193a 2A       		.uleb128 0x2a
ARM GAS  C:\Users\RECEPC~1\AppData\Local\Temp\ccvxjDo6.s 			page 303


 14409 193b 6B240000 		.4byte	.LASF483
 14410 193f 01       		.byte	0x1
 14411 1940 F102     		.2byte	0x2f1
 14412 1942 11010000 		.4byte	0x111
 14413 1946 02       		.uleb128 0x2
 14414 1947 91       		.byte	0x91
 14415 1948 64       		.sleb128 -28
 14416 1949 2B       		.uleb128 0x2b
 14417 194a 34000000 		.4byte	.LASF506
 14418 194e 01       		.byte	0x1
 14419 194f F302     		.2byte	0x2f3
 14420 1951 6F0D0000 		.4byte	0xd6f
 14421 1955 02       		.uleb128 0x2
 14422 1956 91       		.byte	0x91
 14423 1957 74       		.sleb128 -12
 14424 1958 26       		.uleb128 0x26
 14425 1959 12000000 		.4byte	.LBB10
 14426 195d 48000000 		.4byte	.LBE10-.LBB10
 14427 1961 2B       		.uleb128 0x2b
 14428 1962 84260000 		.4byte	.LASF491
 14429 1966 01       		.byte	0x1
 14430 1967 F602     		.2byte	0x2f6
 14431 1969 81000000 		.4byte	0x81
 14432 196d 02       		.uleb128 0x2
 14433 196e 91       		.byte	0x91
 14434 196f 73       		.sleb128 -13
 14435 1970 2B       		.uleb128 0x2b
 14436 1971 6D0D0000 		.4byte	.LASF507
 14437 1975 01       		.byte	0x1
 14438 1976 F802     		.2byte	0x2f8
 14439 1978 97050000 		.4byte	0x597
 14440 197c 02       		.uleb128 0x2
 14441 197d 91       		.byte	0x91
 14442 197e 6C       		.sleb128 -20
 14443 197f 00       		.byte	0
 14444 1980 00       		.byte	0
 14445 1981 29       		.uleb128 0x29
 14446 1982 71260000 		.4byte	.LASF510
 14447 1986 01       		.byte	0x1
 14448 1987 0403     		.2byte	0x304
 14449 1989 00000000 		.4byte	.LFB78
 14450 198d 6A000000 		.4byte	.LFE78-.LFB78
 14451 1991 01       		.uleb128 0x1
 14452 1992 9C       		.byte	0x9c
 14453 1993 DE190000 		.4byte	0x19de
 14454 1997 2A       		.uleb128 0x2a
 14455 1998 6B240000 		.4byte	.LASF483
 14456 199c 01       		.byte	0x1
 14457 199d 0403     		.2byte	0x304
 14458 199f 11010000 		.4byte	0x111
 14459 19a3 02       		.uleb128 0x2
 14460 19a4 91       		.byte	0x91
 14461 19a5 64       		.sleb128 -28
 14462 19a6 2B       		.uleb128 0x2b
 14463 19a7 34000000 		.4byte	.LASF506
 14464 19ab 01       		.byte	0x1
 14465 19ac 0603     		.2byte	0x306
ARM GAS  C:\Users\RECEPC~1\AppData\Local\Temp\ccvxjDo6.s 			page 304


 14466 19ae 6F0D0000 		.4byte	0xd6f
 14467 19b2 02       		.uleb128 0x2
 14468 19b3 91       		.byte	0x91
 14469 19b4 74       		.sleb128 -12
 14470 19b5 26       		.uleb128 0x26
 14471 19b6 12000000 		.4byte	.LBB11
 14472 19ba 52000000 		.4byte	.LBE11-.LBB11
 14473 19be 2B       		.uleb128 0x2b
 14474 19bf 84260000 		.4byte	.LASF491
 14475 19c3 01       		.byte	0x1
 14476 19c4 0903     		.2byte	0x309
 14477 19c6 81000000 		.4byte	0x81
 14478 19ca 02       		.uleb128 0x2
 14479 19cb 91       		.byte	0x91
 14480 19cc 73       		.sleb128 -13
 14481 19cd 2B       		.uleb128 0x2b
 14482 19ce 6D0D0000 		.4byte	.LASF507
 14483 19d2 01       		.byte	0x1
 14484 19d3 0B03     		.2byte	0x30b
 14485 19d5 97050000 		.4byte	0x597
 14486 19d9 02       		.uleb128 0x2
 14487 19da 91       		.byte	0x91
 14488 19db 6C       		.sleb128 -20
 14489 19dc 00       		.byte	0
 14490 19dd 00       		.byte	0
 14491 19de 29       		.uleb128 0x29
 14492 19df 332A0000 		.4byte	.LASF511
 14493 19e3 01       		.byte	0x1
 14494 19e4 1703     		.2byte	0x317
 14495 19e6 00000000 		.4byte	.LFB79
 14496 19ea 6A000000 		.4byte	.LFE79-.LFB79
 14497 19ee 01       		.uleb128 0x1
 14498 19ef 9C       		.byte	0x9c
 14499 19f0 3B1A0000 		.4byte	0x1a3b
 14500 19f4 2A       		.uleb128 0x2a
 14501 19f5 6B240000 		.4byte	.LASF483
 14502 19f9 01       		.byte	0x1
 14503 19fa 1703     		.2byte	0x317
 14504 19fc 11010000 		.4byte	0x111
 14505 1a00 02       		.uleb128 0x2
 14506 1a01 91       		.byte	0x91
 14507 1a02 64       		.sleb128 -28
 14508 1a03 2B       		.uleb128 0x2b
 14509 1a04 34000000 		.4byte	.LASF506
 14510 1a08 01       		.byte	0x1
 14511 1a09 1903     		.2byte	0x319
 14512 1a0b 6F0D0000 		.4byte	0xd6f
 14513 1a0f 02       		.uleb128 0x2
 14514 1a10 91       		.byte	0x91
 14515 1a11 74       		.sleb128 -12
 14516 1a12 26       		.uleb128 0x26
 14517 1a13 12000000 		.4byte	.LBB12
 14518 1a17 52000000 		.4byte	.LBE12-.LBB12
 14519 1a1b 2B       		.uleb128 0x2b
 14520 1a1c 84260000 		.4byte	.LASF491
 14521 1a20 01       		.byte	0x1
 14522 1a21 1C03     		.2byte	0x31c
ARM GAS  C:\Users\RECEPC~1\AppData\Local\Temp\ccvxjDo6.s 			page 305


 14523 1a23 81000000 		.4byte	0x81
 14524 1a27 02       		.uleb128 0x2
 14525 1a28 91       		.byte	0x91
 14526 1a29 73       		.sleb128 -13
 14527 1a2a 2B       		.uleb128 0x2b
 14528 1a2b 6D0D0000 		.4byte	.LASF507
 14529 1a2f 01       		.byte	0x1
 14530 1a30 1E03     		.2byte	0x31e
 14531 1a32 97050000 		.4byte	0x597
 14532 1a36 02       		.uleb128 0x2
 14533 1a37 91       		.byte	0x91
 14534 1a38 6C       		.sleb128 -20
 14535 1a39 00       		.byte	0
 14536 1a3a 00       		.byte	0
 14537 1a3b 29       		.uleb128 0x29
 14538 1a3c CC260000 		.4byte	.LASF512
 14539 1a40 01       		.byte	0x1
 14540 1a41 2B03     		.2byte	0x32b
 14541 1a43 00000000 		.4byte	.LFB80
 14542 1a47 6A000000 		.4byte	.LFE80-.LFB80
 14543 1a4b 01       		.uleb128 0x1
 14544 1a4c 9C       		.byte	0x9c
 14545 1a4d 981A0000 		.4byte	0x1a98
 14546 1a51 2A       		.uleb128 0x2a
 14547 1a52 6B240000 		.4byte	.LASF483
 14548 1a56 01       		.byte	0x1
 14549 1a57 2B03     		.2byte	0x32b
 14550 1a59 11010000 		.4byte	0x111
 14551 1a5d 02       		.uleb128 0x2
 14552 1a5e 91       		.byte	0x91
 14553 1a5f 64       		.sleb128 -28
 14554 1a60 2B       		.uleb128 0x2b
 14555 1a61 34000000 		.4byte	.LASF506
 14556 1a65 01       		.byte	0x1
 14557 1a66 2D03     		.2byte	0x32d
 14558 1a68 6F0D0000 		.4byte	0xd6f
 14559 1a6c 02       		.uleb128 0x2
 14560 1a6d 91       		.byte	0x91
 14561 1a6e 74       		.sleb128 -12
 14562 1a6f 26       		.uleb128 0x26
 14563 1a70 12000000 		.4byte	.LBB13
 14564 1a74 52000000 		.4byte	.LBE13-.LBB13
 14565 1a78 2B       		.uleb128 0x2b
 14566 1a79 84260000 		.4byte	.LASF491
 14567 1a7d 01       		.byte	0x1
 14568 1a7e 3003     		.2byte	0x330
 14569 1a80 81000000 		.4byte	0x81
 14570 1a84 02       		.uleb128 0x2
 14571 1a85 91       		.byte	0x91
 14572 1a86 73       		.sleb128 -13
 14573 1a87 2B       		.uleb128 0x2b
 14574 1a88 6D0D0000 		.4byte	.LASF507
 14575 1a8c 01       		.byte	0x1
 14576 1a8d 3203     		.2byte	0x332
 14577 1a8f 97050000 		.4byte	0x597
 14578 1a93 02       		.uleb128 0x2
 14579 1a94 91       		.byte	0x91
ARM GAS  C:\Users\RECEPC~1\AppData\Local\Temp\ccvxjDo6.s 			page 306


 14580 1a95 6C       		.sleb128 -20
 14581 1a96 00       		.byte	0
 14582 1a97 00       		.byte	0
 14583 1a98 29       		.uleb128 0x29
 14584 1a99 3F040000 		.4byte	.LASF513
 14585 1a9d 01       		.byte	0x1
 14586 1a9e 4003     		.2byte	0x340
 14587 1aa0 00000000 		.4byte	.LFB81
 14588 1aa4 6A000000 		.4byte	.LFE81-.LFB81
 14589 1aa8 01       		.uleb128 0x1
 14590 1aa9 9C       		.byte	0x9c
 14591 1aaa F51A0000 		.4byte	0x1af5
 14592 1aae 2A       		.uleb128 0x2a
 14593 1aaf 6B240000 		.4byte	.LASF483
 14594 1ab3 01       		.byte	0x1
 14595 1ab4 4003     		.2byte	0x340
 14596 1ab6 11010000 		.4byte	0x111
 14597 1aba 02       		.uleb128 0x2
 14598 1abb 91       		.byte	0x91
 14599 1abc 64       		.sleb128 -28
 14600 1abd 2B       		.uleb128 0x2b
 14601 1abe 34000000 		.4byte	.LASF506
 14602 1ac2 01       		.byte	0x1
 14603 1ac3 4203     		.2byte	0x342
 14604 1ac5 6F0D0000 		.4byte	0xd6f
 14605 1ac9 02       		.uleb128 0x2
 14606 1aca 91       		.byte	0x91
 14607 1acb 74       		.sleb128 -12
 14608 1acc 26       		.uleb128 0x26
 14609 1acd 12000000 		.4byte	.LBB14
 14610 1ad1 52000000 		.4byte	.LBE14-.LBB14
 14611 1ad5 2B       		.uleb128 0x2b
 14612 1ad6 84260000 		.4byte	.LASF491
 14613 1ada 01       		.byte	0x1
 14614 1adb 4503     		.2byte	0x345
 14615 1add 81000000 		.4byte	0x81
 14616 1ae1 02       		.uleb128 0x2
 14617 1ae2 91       		.byte	0x91
 14618 1ae3 73       		.sleb128 -13
 14619 1ae4 2B       		.uleb128 0x2b
 14620 1ae5 6D0D0000 		.4byte	.LASF507
 14621 1ae9 01       		.byte	0x1
 14622 1aea 4703     		.2byte	0x347
 14623 1aec 97050000 		.4byte	0x597
 14624 1af0 02       		.uleb128 0x2
 14625 1af1 91       		.byte	0x91
 14626 1af2 6C       		.sleb128 -20
 14627 1af3 00       		.byte	0
 14628 1af4 00       		.byte	0
 14629 1af5 29       		.uleb128 0x29
 14630 1af6 EC0E0000 		.4byte	.LASF514
 14631 1afa 01       		.byte	0x1
 14632 1afb 5503     		.2byte	0x355
 14633 1afd 00000000 		.4byte	.LFB82
 14634 1b01 6A000000 		.4byte	.LFE82-.LFB82
 14635 1b05 01       		.uleb128 0x1
 14636 1b06 9C       		.byte	0x9c
ARM GAS  C:\Users\RECEPC~1\AppData\Local\Temp\ccvxjDo6.s 			page 307


 14637 1b07 521B0000 		.4byte	0x1b52
 14638 1b0b 2A       		.uleb128 0x2a
 14639 1b0c 6B240000 		.4byte	.LASF483
 14640 1b10 01       		.byte	0x1
 14641 1b11 5503     		.2byte	0x355
 14642 1b13 11010000 		.4byte	0x111
 14643 1b17 02       		.uleb128 0x2
 14644 1b18 91       		.byte	0x91
 14645 1b19 64       		.sleb128 -28
 14646 1b1a 2B       		.uleb128 0x2b
 14647 1b1b 34000000 		.4byte	.LASF506
 14648 1b1f 01       		.byte	0x1
 14649 1b20 5703     		.2byte	0x357
 14650 1b22 6F0D0000 		.4byte	0xd6f
 14651 1b26 02       		.uleb128 0x2
 14652 1b27 91       		.byte	0x91
 14653 1b28 74       		.sleb128 -12
 14654 1b29 26       		.uleb128 0x26
 14655 1b2a 12000000 		.4byte	.LBB15
 14656 1b2e 52000000 		.4byte	.LBE15-.LBB15
 14657 1b32 2B       		.uleb128 0x2b
 14658 1b33 84260000 		.4byte	.LASF491
 14659 1b37 01       		.byte	0x1
 14660 1b38 5A03     		.2byte	0x35a
 14661 1b3a 81000000 		.4byte	0x81
 14662 1b3e 02       		.uleb128 0x2
 14663 1b3f 91       		.byte	0x91
 14664 1b40 73       		.sleb128 -13
 14665 1b41 2B       		.uleb128 0x2b
 14666 1b42 6D0D0000 		.4byte	.LASF507
 14667 1b46 01       		.byte	0x1
 14668 1b47 5C03     		.2byte	0x35c
 14669 1b49 97050000 		.4byte	0x597
 14670 1b4d 02       		.uleb128 0x2
 14671 1b4e 91       		.byte	0x91
 14672 1b4f 6C       		.sleb128 -20
 14673 1b50 00       		.byte	0
 14674 1b51 00       		.byte	0
 14675 1b52 29       		.uleb128 0x29
 14676 1b53 2A090000 		.4byte	.LASF515
 14677 1b57 01       		.byte	0x1
 14678 1b58 7003     		.2byte	0x370
 14679 1b5a 00000000 		.4byte	.LFB83
 14680 1b5e 4A010000 		.4byte	.LFE83-.LFB83
 14681 1b62 01       		.uleb128 0x1
 14682 1b63 9C       		.byte	0x9c
 14683 1b64 E61B0000 		.4byte	0x1be6
 14684 1b68 2A       		.uleb128 0x2a
 14685 1b69 6B240000 		.4byte	.LASF483
 14686 1b6d 01       		.byte	0x1
 14687 1b6e 7003     		.2byte	0x370
 14688 1b70 11010000 		.4byte	0x111
 14689 1b74 02       		.uleb128 0x2
 14690 1b75 91       		.byte	0x91
 14691 1b76 54       		.sleb128 -44
 14692 1b77 2B       		.uleb128 0x2b
 14693 1b78 34000000 		.4byte	.LASF506
ARM GAS  C:\Users\RECEPC~1\AppData\Local\Temp\ccvxjDo6.s 			page 308


 14694 1b7c 01       		.byte	0x1
 14695 1b7d 7203     		.2byte	0x372
 14696 1b7f 6F0D0000 		.4byte	0xd6f
 14697 1b83 02       		.uleb128 0x2
 14698 1b84 91       		.byte	0x91
 14699 1b85 68       		.sleb128 -24
 14700 1b86 26       		.uleb128 0x26
 14701 1b87 14000000 		.4byte	.LBB16
 14702 1b8b 30010000 		.4byte	.LBE16-.LBB16
 14703 1b8f 2B       		.uleb128 0x2b
 14704 1b90 84260000 		.4byte	.LASF491
 14705 1b94 01       		.byte	0x1
 14706 1b95 7503     		.2byte	0x375
 14707 1b97 81000000 		.4byte	0x81
 14708 1b9b 02       		.uleb128 0x2
 14709 1b9c 91       		.byte	0x91
 14710 1b9d 6F       		.sleb128 -17
 14711 1b9e 2B       		.uleb128 0x2b
 14712 1b9f 6D0D0000 		.4byte	.LASF507
 14713 1ba3 01       		.byte	0x1
 14714 1ba4 7603     		.2byte	0x376
 14715 1ba6 97050000 		.4byte	0x597
 14716 1baa 02       		.uleb128 0x2
 14717 1bab 91       		.byte	0x91
 14718 1bac 64       		.sleb128 -28
 14719 1bad 26       		.uleb128 0x26
 14720 1bae 3A000000 		.4byte	.LBB17
 14721 1bb2 0A010000 		.4byte	.LBE17-.LBB17
 14722 1bb6 2B       		.uleb128 0x2b
 14723 1bb7 CB270000 		.4byte	.LASF516
 14724 1bbb 01       		.byte	0x1
 14725 1bbc 8603     		.2byte	0x386
 14726 1bbe 97000000 		.4byte	0x97
 14727 1bc2 02       		.uleb128 0x2
 14728 1bc3 91       		.byte	0x91
 14729 1bc4 63       		.sleb128 -29
 14730 1bc5 28       		.uleb128 0x28
 14731 1bc6 70747200 		.ascii	"ptr\000"
 14732 1bca 01       		.byte	0x1
 14733 1bcb 9403     		.2byte	0x394
 14734 1bcd 3B010000 		.4byte	0x13b
 14735 1bd1 02       		.uleb128 0x2
 14736 1bd2 91       		.byte	0x91
 14737 1bd3 5C       		.sleb128 -36
 14738 1bd4 2B       		.uleb128 0x2b
 14739 1bd5 1F170000 		.4byte	.LASF517
 14740 1bd9 01       		.byte	0x1
 14741 1bda 9F03     		.2byte	0x39f
 14742 1bdc 97000000 		.4byte	0x97
 14743 1be0 02       		.uleb128 0x2
 14744 1be1 91       		.byte	0x91
 14745 1be2 6E       		.sleb128 -18
 14746 1be3 00       		.byte	0
 14747 1be4 00       		.byte	0
 14748 1be5 00       		.byte	0
 14749 1be6 29       		.uleb128 0x29
 14750 1be7 3E1C0000 		.4byte	.LASF518
ARM GAS  C:\Users\RECEPC~1\AppData\Local\Temp\ccvxjDo6.s 			page 309


 14751 1beb 01       		.byte	0x1
 14752 1bec B403     		.2byte	0x3b4
 14753 1bee 00000000 		.4byte	.LFB84
 14754 1bf2 60010000 		.4byte	.LFE84-.LFB84
 14755 1bf6 01       		.uleb128 0x1
 14756 1bf7 9C       		.byte	0x9c
 14757 1bf8 7A1C0000 		.4byte	0x1c7a
 14758 1bfc 2A       		.uleb128 0x2a
 14759 1bfd 6B240000 		.4byte	.LASF483
 14760 1c01 01       		.byte	0x1
 14761 1c02 B403     		.2byte	0x3b4
 14762 1c04 11010000 		.4byte	0x111
 14763 1c08 02       		.uleb128 0x2
 14764 1c09 91       		.byte	0x91
 14765 1c0a 54       		.sleb128 -44
 14766 1c0b 2B       		.uleb128 0x2b
 14767 1c0c 34000000 		.4byte	.LASF506
 14768 1c10 01       		.byte	0x1
 14769 1c11 B603     		.2byte	0x3b6
 14770 1c13 6F0D0000 		.4byte	0xd6f
 14771 1c17 02       		.uleb128 0x2
 14772 1c18 91       		.byte	0x91
 14773 1c19 68       		.sleb128 -24
 14774 1c1a 26       		.uleb128 0x26
 14775 1c1b 14000000 		.4byte	.LBB18
 14776 1c1f 46010000 		.4byte	.LBE18-.LBB18
 14777 1c23 2B       		.uleb128 0x2b
 14778 1c24 84260000 		.4byte	.LASF491
 14779 1c28 01       		.byte	0x1
 14780 1c29 B903     		.2byte	0x3b9
 14781 1c2b 81000000 		.4byte	0x81
 14782 1c2f 02       		.uleb128 0x2
 14783 1c30 91       		.byte	0x91
 14784 1c31 6F       		.sleb128 -17
 14785 1c32 2B       		.uleb128 0x2b
 14786 1c33 6D0D0000 		.4byte	.LASF507
 14787 1c37 01       		.byte	0x1
 14788 1c38 BA03     		.2byte	0x3ba
 14789 1c3a 97050000 		.4byte	0x597
 14790 1c3e 02       		.uleb128 0x2
 14791 1c3f 91       		.byte	0x91
 14792 1c40 64       		.sleb128 -28
 14793 1c41 26       		.uleb128 0x26
 14794 1c42 3A000000 		.4byte	.LBB19
 14795 1c46 20010000 		.4byte	.LBE19-.LBB19
 14796 1c4a 2B       		.uleb128 0x2b
 14797 1c4b CB270000 		.4byte	.LASF516
 14798 1c4f 01       		.byte	0x1
 14799 1c50 C903     		.2byte	0x3c9
 14800 1c52 97000000 		.4byte	0x97
 14801 1c56 02       		.uleb128 0x2
 14802 1c57 91       		.byte	0x91
 14803 1c58 63       		.sleb128 -29
 14804 1c59 28       		.uleb128 0x28
 14805 1c5a 70747200 		.ascii	"ptr\000"
 14806 1c5e 01       		.byte	0x1
 14807 1c5f D903     		.2byte	0x3d9
ARM GAS  C:\Users\RECEPC~1\AppData\Local\Temp\ccvxjDo6.s 			page 310


 14808 1c61 3B010000 		.4byte	0x13b
 14809 1c65 02       		.uleb128 0x2
 14810 1c66 91       		.byte	0x91
 14811 1c67 5C       		.sleb128 -36
 14812 1c68 2B       		.uleb128 0x2b
 14813 1c69 1F170000 		.4byte	.LASF517
 14814 1c6d 01       		.byte	0x1
 14815 1c6e E103     		.2byte	0x3e1
 14816 1c70 97000000 		.4byte	0x97
 14817 1c74 02       		.uleb128 0x2
 14818 1c75 91       		.byte	0x91
 14819 1c76 6E       		.sleb128 -18
 14820 1c77 00       		.byte	0
 14821 1c78 00       		.byte	0
 14822 1c79 00       		.byte	0
 14823 1c7a 29       		.uleb128 0x29
 14824 1c7b F6030000 		.4byte	.LASF519
 14825 1c7f 01       		.byte	0x1
 14826 1c80 FB03     		.2byte	0x3fb
 14827 1c82 00000000 		.4byte	.LFB85
 14828 1c86 4E010000 		.4byte	.LFE85-.LFB85
 14829 1c8a 01       		.uleb128 0x1
 14830 1c8b 9C       		.byte	0x9c
 14831 1c8c 0E1D0000 		.4byte	0x1d0e
 14832 1c90 2A       		.uleb128 0x2a
 14833 1c91 6B240000 		.4byte	.LASF483
 14834 1c95 01       		.byte	0x1
 14835 1c96 FB03     		.2byte	0x3fb
 14836 1c98 11010000 		.4byte	0x111
 14837 1c9c 02       		.uleb128 0x2
 14838 1c9d 91       		.byte	0x91
 14839 1c9e 54       		.sleb128 -44
 14840 1c9f 2B       		.uleb128 0x2b
 14841 1ca0 34000000 		.4byte	.LASF506
 14842 1ca4 01       		.byte	0x1
 14843 1ca5 FD03     		.2byte	0x3fd
 14844 1ca7 6F0D0000 		.4byte	0xd6f
 14845 1cab 02       		.uleb128 0x2
 14846 1cac 91       		.byte	0x91
 14847 1cad 68       		.sleb128 -24
 14848 1cae 26       		.uleb128 0x26
 14849 1caf 14000000 		.4byte	.LBB20
 14850 1cb3 34010000 		.4byte	.LBE20-.LBB20
 14851 1cb7 2B       		.uleb128 0x2b
 14852 1cb8 84260000 		.4byte	.LASF491
 14853 1cbc 01       		.byte	0x1
 14854 1cbd 0004     		.2byte	0x400
 14855 1cbf 81000000 		.4byte	0x81
 14856 1cc3 02       		.uleb128 0x2
 14857 1cc4 91       		.byte	0x91
 14858 1cc5 6F       		.sleb128 -17
 14859 1cc6 2B       		.uleb128 0x2b
 14860 1cc7 6D0D0000 		.4byte	.LASF507
 14861 1ccb 01       		.byte	0x1
 14862 1ccc 0204     		.2byte	0x402
 14863 1cce 97050000 		.4byte	0x597
 14864 1cd2 02       		.uleb128 0x2
ARM GAS  C:\Users\RECEPC~1\AppData\Local\Temp\ccvxjDo6.s 			page 311


 14865 1cd3 91       		.byte	0x91
 14866 1cd4 64       		.sleb128 -28
 14867 1cd5 26       		.uleb128 0x26
 14868 1cd6 3A000000 		.4byte	.LBB21
 14869 1cda 0E010000 		.4byte	.LBE21-.LBB21
 14870 1cde 2B       		.uleb128 0x2b
 14871 1cdf CB270000 		.4byte	.LASF516
 14872 1ce3 01       		.byte	0x1
 14873 1ce4 0A04     		.2byte	0x40a
 14874 1ce6 97000000 		.4byte	0x97
 14875 1cea 02       		.uleb128 0x2
 14876 1ceb 91       		.byte	0x91
 14877 1cec 63       		.sleb128 -29
 14878 1ced 28       		.uleb128 0x28
 14879 1cee 70747200 		.ascii	"ptr\000"
 14880 1cf2 01       		.byte	0x1
 14881 1cf3 1104     		.2byte	0x411
 14882 1cf5 3B010000 		.4byte	0x13b
 14883 1cf9 02       		.uleb128 0x2
 14884 1cfa 91       		.byte	0x91
 14885 1cfb 5C       		.sleb128 -36
 14886 1cfc 2B       		.uleb128 0x2b
 14887 1cfd 1F170000 		.4byte	.LASF517
 14888 1d01 01       		.byte	0x1
 14889 1d02 1C04     		.2byte	0x41c
 14890 1d04 97000000 		.4byte	0x97
 14891 1d08 02       		.uleb128 0x2
 14892 1d09 91       		.byte	0x91
 14893 1d0a 6E       		.sleb128 -18
 14894 1d0b 00       		.byte	0
 14895 1d0c 00       		.byte	0
 14896 1d0d 00       		.byte	0
 14897 1d0e 29       		.uleb128 0x29
 14898 1d0f E50F0000 		.4byte	.LASF520
 14899 1d13 01       		.byte	0x1
 14900 1d14 2E04     		.2byte	0x42e
 14901 1d16 00000000 		.4byte	.LFB86
 14902 1d1a B6010000 		.4byte	.LFE86-.LFB86
 14903 1d1e 01       		.uleb128 0x1
 14904 1d1f 9C       		.byte	0x9c
 14905 1d20 841D0000 		.4byte	0x1d84
 14906 1d24 2A       		.uleb128 0x2a
 14907 1d25 6B240000 		.4byte	.LASF483
 14908 1d29 01       		.byte	0x1
 14909 1d2a 2E04     		.2byte	0x42e
 14910 1d2c 30010000 		.4byte	0x130
 14911 1d30 02       		.uleb128 0x2
 14912 1d31 91       		.byte	0x91
 14913 1d32 5C       		.sleb128 -36
 14914 1d33 2B       		.uleb128 0x2b
 14915 1d34 09200000 		.4byte	.LASF478
 14916 1d38 01       		.byte	0x1
 14917 1d39 3004     		.2byte	0x430
 14918 1d3b B70F0000 		.4byte	0xfb7
 14919 1d3f 02       		.uleb128 0x2
 14920 1d40 91       		.byte	0x91
 14921 1d41 6C       		.sleb128 -20
ARM GAS  C:\Users\RECEPC~1\AppData\Local\Temp\ccvxjDo6.s 			page 312


 14922 1d42 26       		.uleb128 0x26
 14923 1d43 14000000 		.4byte	.LBB22
 14924 1d47 9C010000 		.4byte	.LBE22-.LBB22
 14925 1d4b 28       		.uleb128 0x28
 14926 1d4c 70747300 		.ascii	"pts\000"
 14927 1d50 01       		.byte	0x1
 14928 1d51 3704     		.2byte	0x437
 14929 1d53 AF090000 		.4byte	0x9af
 14930 1d57 02       		.uleb128 0x2
 14931 1d58 91       		.byte	0x91
 14932 1d59 68       		.sleb128 -24
 14933 1d5a 26       		.uleb128 0x26
 14934 1d5b 4E000000 		.4byte	.LBB23
 14935 1d5f 62010000 		.4byte	.LBE23-.LBB23
 14936 1d63 2B       		.uleb128 0x2b
 14937 1d64 84260000 		.4byte	.LASF491
 14938 1d68 01       		.byte	0x1
 14939 1d69 3B04     		.2byte	0x43b
 14940 1d6b 97000000 		.4byte	0x97
 14941 1d6f 02       		.uleb128 0x2
 14942 1d70 91       		.byte	0x91
 14943 1d71 67       		.sleb128 -25
 14944 1d72 2B       		.uleb128 0x2b
 14945 1d73 2C160000 		.4byte	.LASF501
 14946 1d77 01       		.byte	0x1
 14947 1d78 5004     		.2byte	0x450
 14948 1d7a AF090000 		.4byte	0x9af
 14949 1d7e 02       		.uleb128 0x2
 14950 1d7f 91       		.byte	0x91
 14951 1d80 60       		.sleb128 -32
 14952 1d81 00       		.byte	0
 14953 1d82 00       		.byte	0
 14954 1d83 00       		.byte	0
 14955 1d84 29       		.uleb128 0x29
 14956 1d85 671E0000 		.4byte	.LASF521
 14957 1d89 01       		.byte	0x1
 14958 1d8a 6104     		.2byte	0x461
 14959 1d8c 00000000 		.4byte	.LFB87
 14960 1d90 E8000000 		.4byte	.LFE87-.LFB87
 14961 1d94 01       		.uleb128 0x1
 14962 1d95 9C       		.byte	0x9c
 14963 1d96 FA1D0000 		.4byte	0x1dfa
 14964 1d9a 2A       		.uleb128 0x2a
 14965 1d9b 6B240000 		.4byte	.LASF483
 14966 1d9f 01       		.byte	0x1
 14967 1da0 6104     		.2byte	0x461
 14968 1da2 30010000 		.4byte	0x130
 14969 1da6 02       		.uleb128 0x2
 14970 1da7 91       		.byte	0x91
 14971 1da8 64       		.sleb128 -28
 14972 1da9 2B       		.uleb128 0x2b
 14973 1daa 09200000 		.4byte	.LASF478
 14974 1dae 01       		.byte	0x1
 14975 1daf 6304     		.2byte	0x463
 14976 1db1 B70F0000 		.4byte	0xfb7
 14977 1db5 02       		.uleb128 0x2
 14978 1db6 91       		.byte	0x91
ARM GAS  C:\Users\RECEPC~1\AppData\Local\Temp\ccvxjDo6.s 			page 313


 14979 1db7 74       		.sleb128 -12
 14980 1db8 26       		.uleb128 0x26
 14981 1db9 12000000 		.4byte	.LBB24
 14982 1dbd D0000000 		.4byte	.LBE24-.LBB24
 14983 1dc1 28       		.uleb128 0x28
 14984 1dc2 70747300 		.ascii	"pts\000"
 14985 1dc6 01       		.byte	0x1
 14986 1dc7 6A04     		.2byte	0x46a
 14987 1dc9 AF090000 		.4byte	0x9af
 14988 1dcd 02       		.uleb128 0x2
 14989 1dce 91       		.byte	0x91
 14990 1dcf 70       		.sleb128 -16
 14991 1dd0 26       		.uleb128 0x26
 14992 1dd1 4A000000 		.4byte	.LBB25
 14993 1dd5 98000000 		.4byte	.LBE25-.LBB25
 14994 1dd9 2B       		.uleb128 0x2b
 14995 1dda 84260000 		.4byte	.LASF491
 14996 1dde 01       		.byte	0x1
 14997 1ddf 6E04     		.2byte	0x46e
 14998 1de1 97000000 		.4byte	0x97
 14999 1de5 02       		.uleb128 0x2
 15000 1de6 91       		.byte	0x91
 15001 1de7 6F       		.sleb128 -17
 15002 1de8 2B       		.uleb128 0x2b
 15003 1de9 2C160000 		.4byte	.LASF501
 15004 1ded 01       		.byte	0x1
 15005 1dee 7404     		.2byte	0x474
 15006 1df0 AF090000 		.4byte	0x9af
 15007 1df4 02       		.uleb128 0x2
 15008 1df5 91       		.byte	0x91
 15009 1df6 68       		.sleb128 -24
 15010 1df7 00       		.byte	0
 15011 1df8 00       		.byte	0
 15012 1df9 00       		.byte	0
 15013 1dfa 29       		.uleb128 0x29
 15014 1dfb F9260000 		.4byte	.LASF522
 15015 1dff 01       		.byte	0x1
 15016 1e00 8B04     		.2byte	0x48b
 15017 1e02 00000000 		.4byte	.LFB88
 15018 1e06 78010000 		.4byte	.LFE88-.LFB88
 15019 1e0a 01       		.uleb128 0x1
 15020 1e0b 9C       		.byte	0x9c
 15021 1e0c 8E1E0000 		.4byte	0x1e8e
 15022 1e10 2A       		.uleb128 0x2a
 15023 1e11 6B240000 		.4byte	.LASF483
 15024 1e15 01       		.byte	0x1
 15025 1e16 8B04     		.2byte	0x48b
 15026 1e18 11010000 		.4byte	0x111
 15027 1e1c 02       		.uleb128 0x2
 15028 1e1d 91       		.byte	0x91
 15029 1e1e 54       		.sleb128 -44
 15030 1e1f 2B       		.uleb128 0x2b
 15031 1e20 34000000 		.4byte	.LASF506
 15032 1e24 01       		.byte	0x1
 15033 1e25 8D04     		.2byte	0x48d
 15034 1e27 6F0D0000 		.4byte	0xd6f
 15035 1e2b 02       		.uleb128 0x2
ARM GAS  C:\Users\RECEPC~1\AppData\Local\Temp\ccvxjDo6.s 			page 314


 15036 1e2c 91       		.byte	0x91
 15037 1e2d 68       		.sleb128 -24
 15038 1e2e 26       		.uleb128 0x26
 15039 1e2f 14000000 		.4byte	.LBB26
 15040 1e33 58010000 		.4byte	.LBE26-.LBB26
 15041 1e37 2B       		.uleb128 0x2b
 15042 1e38 84260000 		.4byte	.LASF491
 15043 1e3c 01       		.byte	0x1
 15044 1e3d 9004     		.2byte	0x490
 15045 1e3f 81000000 		.4byte	0x81
 15046 1e43 02       		.uleb128 0x2
 15047 1e44 91       		.byte	0x91
 15048 1e45 6F       		.sleb128 -17
 15049 1e46 2B       		.uleb128 0x2b
 15050 1e47 6D0D0000 		.4byte	.LASF507
 15051 1e4b 01       		.byte	0x1
 15052 1e4c 9104     		.2byte	0x491
 15053 1e4e 97050000 		.4byte	0x597
 15054 1e52 02       		.uleb128 0x2
 15055 1e53 91       		.byte	0x91
 15056 1e54 64       		.sleb128 -28
 15057 1e55 26       		.uleb128 0x26
 15058 1e56 3A000000 		.4byte	.LBB27
 15059 1e5a 32010000 		.4byte	.LBE27-.LBB27
 15060 1e5e 2B       		.uleb128 0x2b
 15061 1e5f CB270000 		.4byte	.LASF516
 15062 1e63 01       		.byte	0x1
 15063 1e64 A104     		.2byte	0x4a1
 15064 1e66 97000000 		.4byte	0x97
 15065 1e6a 02       		.uleb128 0x2
 15066 1e6b 91       		.byte	0x91
 15067 1e6c 63       		.sleb128 -29
 15068 1e6d 28       		.uleb128 0x28
 15069 1e6e 70747200 		.ascii	"ptr\000"
 15070 1e72 01       		.byte	0x1
 15071 1e73 AF04     		.2byte	0x4af
 15072 1e75 3B010000 		.4byte	0x13b
 15073 1e79 02       		.uleb128 0x2
 15074 1e7a 91       		.byte	0x91
 15075 1e7b 5C       		.sleb128 -36
 15076 1e7c 2B       		.uleb128 0x2b
 15077 1e7d 1F170000 		.4byte	.LASF517
 15078 1e81 01       		.byte	0x1
 15079 1e82 C004     		.2byte	0x4c0
 15080 1e84 97000000 		.4byte	0x97
 15081 1e88 02       		.uleb128 0x2
 15082 1e89 91       		.byte	0x91
 15083 1e8a 6E       		.sleb128 -18
 15084 1e8b 00       		.byte	0
 15085 1e8c 00       		.byte	0
 15086 1e8d 00       		.byte	0
 15087 1e8e 29       		.uleb128 0x29
 15088 1e8f 2B0B0000 		.4byte	.LASF523
 15089 1e93 01       		.byte	0x1
 15090 1e94 DC04     		.2byte	0x4dc
 15091 1e96 00000000 		.4byte	.LFB89
 15092 1e9a 88010000 		.4byte	.LFE89-.LFB89
ARM GAS  C:\Users\RECEPC~1\AppData\Local\Temp\ccvxjDo6.s 			page 315


 15093 1e9e 01       		.uleb128 0x1
 15094 1e9f 9C       		.byte	0x9c
 15095 1ea0 221F0000 		.4byte	0x1f22
 15096 1ea4 2A       		.uleb128 0x2a
 15097 1ea5 6B240000 		.4byte	.LASF483
 15098 1ea9 01       		.byte	0x1
 15099 1eaa DC04     		.2byte	0x4dc
 15100 1eac 11010000 		.4byte	0x111
 15101 1eb0 02       		.uleb128 0x2
 15102 1eb1 91       		.byte	0x91
 15103 1eb2 54       		.sleb128 -44
 15104 1eb3 2B       		.uleb128 0x2b
 15105 1eb4 34000000 		.4byte	.LASF506
 15106 1eb8 01       		.byte	0x1
 15107 1eb9 DE04     		.2byte	0x4de
 15108 1ebb 6F0D0000 		.4byte	0xd6f
 15109 1ebf 02       		.uleb128 0x2
 15110 1ec0 91       		.byte	0x91
 15111 1ec1 68       		.sleb128 -24
 15112 1ec2 26       		.uleb128 0x26
 15113 1ec3 14000000 		.4byte	.LBB28
 15114 1ec7 6A010000 		.4byte	.LBE28-.LBB28
 15115 1ecb 2B       		.uleb128 0x2b
 15116 1ecc 84260000 		.4byte	.LASF491
 15117 1ed0 01       		.byte	0x1
 15118 1ed1 E104     		.2byte	0x4e1
 15119 1ed3 81000000 		.4byte	0x81
 15120 1ed7 02       		.uleb128 0x2
 15121 1ed8 91       		.byte	0x91
 15122 1ed9 6F       		.sleb128 -17
 15123 1eda 2B       		.uleb128 0x2b
 15124 1edb 6D0D0000 		.4byte	.LASF507
 15125 1edf 01       		.byte	0x1
 15126 1ee0 E204     		.2byte	0x4e2
 15127 1ee2 97050000 		.4byte	0x597
 15128 1ee6 02       		.uleb128 0x2
 15129 1ee7 91       		.byte	0x91
 15130 1ee8 64       		.sleb128 -28
 15131 1ee9 26       		.uleb128 0x26
 15132 1eea 3A000000 		.4byte	.LBB29
 15133 1eee 44010000 		.4byte	.LBE29-.LBB29
 15134 1ef2 2B       		.uleb128 0x2b
 15135 1ef3 CB270000 		.4byte	.LASF516
 15136 1ef7 01       		.byte	0x1
 15137 1ef8 ED04     		.2byte	0x4ed
 15138 1efa 97000000 		.4byte	0x97
 15139 1efe 02       		.uleb128 0x2
 15140 1eff 91       		.byte	0x91
 15141 1f00 63       		.sleb128 -29
 15142 1f01 28       		.uleb128 0x28
 15143 1f02 70747200 		.ascii	"ptr\000"
 15144 1f06 01       		.byte	0x1
 15145 1f07 F504     		.2byte	0x4f5
 15146 1f09 3B010000 		.4byte	0x13b
 15147 1f0d 02       		.uleb128 0x2
 15148 1f0e 91       		.byte	0x91
 15149 1f0f 5C       		.sleb128 -36
ARM GAS  C:\Users\RECEPC~1\AppData\Local\Temp\ccvxjDo6.s 			page 316


 15150 1f10 2B       		.uleb128 0x2b
 15151 1f11 1F170000 		.4byte	.LASF517
 15152 1f15 01       		.byte	0x1
 15153 1f16 0905     		.2byte	0x509
 15154 1f18 97000000 		.4byte	0x97
 15155 1f1c 02       		.uleb128 0x2
 15156 1f1d 91       		.byte	0x91
 15157 1f1e 6E       		.sleb128 -18
 15158 1f1f 00       		.byte	0
 15159 1f20 00       		.byte	0
 15160 1f21 00       		.byte	0
 15161 1f22 29       		.uleb128 0x29
 15162 1f23 9D070000 		.4byte	.LASF524
 15163 1f27 01       		.byte	0x1
 15164 1f28 2305     		.2byte	0x523
 15165 1f2a 00000000 		.4byte	.LFB90
 15166 1f2e 5E020000 		.4byte	.LFE90-.LFB90
 15167 1f32 01       		.uleb128 0x1
 15168 1f33 9C       		.byte	0x9c
 15169 1f34 C51F0000 		.4byte	0x1fc5
 15170 1f38 2A       		.uleb128 0x2a
 15171 1f39 6B240000 		.4byte	.LASF483
 15172 1f3d 01       		.byte	0x1
 15173 1f3e 2305     		.2byte	0x523
 15174 1f40 11010000 		.4byte	0x111
 15175 1f44 02       		.uleb128 0x2
 15176 1f45 91       		.byte	0x91
 15177 1f46 54       		.sleb128 -44
 15178 1f47 2B       		.uleb128 0x2b
 15179 1f48 34000000 		.4byte	.LASF506
 15180 1f4c 01       		.byte	0x1
 15181 1f4d 2505     		.2byte	0x525
 15182 1f4f 6F0D0000 		.4byte	0xd6f
 15183 1f53 02       		.uleb128 0x2
 15184 1f54 91       		.byte	0x91
 15185 1f55 68       		.sleb128 -24
 15186 1f56 26       		.uleb128 0x26
 15187 1f57 14000000 		.4byte	.LBB30
 15188 1f5b 44020000 		.4byte	.LBE30-.LBB30
 15189 1f5f 2B       		.uleb128 0x2b
 15190 1f60 84260000 		.4byte	.LASF491
 15191 1f64 01       		.byte	0x1
 15192 1f65 2805     		.2byte	0x528
 15193 1f67 81000000 		.4byte	0x81
 15194 1f6b 02       		.uleb128 0x2
 15195 1f6c 91       		.byte	0x91
 15196 1f6d 6F       		.sleb128 -17
 15197 1f6e 2B       		.uleb128 0x2b
 15198 1f6f 6D0D0000 		.4byte	.LASF507
 15199 1f73 01       		.byte	0x1
 15200 1f74 2A05     		.2byte	0x52a
 15201 1f76 97050000 		.4byte	0x597
 15202 1f7a 02       		.uleb128 0x2
 15203 1f7b 91       		.byte	0x91
 15204 1f7c 64       		.sleb128 -28
 15205 1f7d 26       		.uleb128 0x26
 15206 1f7e 3A000000 		.4byte	.LBB31
ARM GAS  C:\Users\RECEPC~1\AppData\Local\Temp\ccvxjDo6.s 			page 317


 15207 1f82 1E020000 		.4byte	.LBE31-.LBB31
 15208 1f86 2B       		.uleb128 0x2b
 15209 1f87 9C0D0000 		.4byte	.LASF488
 15210 1f8b 01       		.byte	0x1
 15211 1f8c 3905     		.2byte	0x539
 15212 1f8e A3000000 		.4byte	0xa3
 15213 1f92 02       		.uleb128 0x2
 15214 1f93 91       		.byte	0x91
 15215 1f94 62       		.sleb128 -30
 15216 1f95 2B       		.uleb128 0x2b
 15217 1f96 EA1A0000 		.4byte	.LASF525
 15218 1f9a 01       		.byte	0x1
 15219 1f9b 5405     		.2byte	0x554
 15220 1f9d 97000000 		.4byte	0x97
 15221 1fa1 02       		.uleb128 0x2
 15222 1fa2 91       		.byte	0x91
 15223 1fa3 61       		.sleb128 -31
 15224 1fa4 28       		.uleb128 0x28
 15225 1fa5 70747200 		.ascii	"ptr\000"
 15226 1fa9 01       		.byte	0x1
 15227 1faa 5505     		.2byte	0x555
 15228 1fac 3B010000 		.4byte	0x13b
 15229 1fb0 02       		.uleb128 0x2
 15230 1fb1 91       		.byte	0x91
 15231 1fb2 5C       		.sleb128 -36
 15232 1fb3 2B       		.uleb128 0x2b
 15233 1fb4 1F170000 		.4byte	.LASF517
 15234 1fb8 01       		.byte	0x1
 15235 1fb9 5605     		.2byte	0x556
 15236 1fbb 97000000 		.4byte	0x97
 15237 1fbf 02       		.uleb128 0x2
 15238 1fc0 91       		.byte	0x91
 15239 1fc1 6E       		.sleb128 -18
 15240 1fc2 00       		.byte	0
 15241 1fc3 00       		.byte	0
 15242 1fc4 00       		.byte	0
 15243 1fc5 29       		.uleb128 0x29
 15244 1fc6 B71A0000 		.4byte	.LASF526
 15245 1fca 01       		.byte	0x1
 15246 1fcb 6805     		.2byte	0x568
 15247 1fcd 00000000 		.4byte	.LFB91
 15248 1fd1 54010000 		.4byte	.LFE91-.LFB91
 15249 1fd5 01       		.uleb128 0x1
 15250 1fd6 9C       		.byte	0x9c
 15251 1fd7 4A200000 		.4byte	0x204a
 15252 1fdb 2A       		.uleb128 0x2a
 15253 1fdc 6B240000 		.4byte	.LASF483
 15254 1fe0 01       		.byte	0x1
 15255 1fe1 6805     		.2byte	0x568
 15256 1fe3 11010000 		.4byte	0x111
 15257 1fe7 02       		.uleb128 0x2
 15258 1fe8 91       		.byte	0x91
 15259 1fe9 5C       		.sleb128 -36
 15260 1fea 2B       		.uleb128 0x2b
 15261 1feb 34000000 		.4byte	.LASF506
 15262 1fef 01       		.byte	0x1
 15263 1ff0 6A05     		.2byte	0x56a
ARM GAS  C:\Users\RECEPC~1\AppData\Local\Temp\ccvxjDo6.s 			page 318


 15264 1ff2 6F0D0000 		.4byte	0xd6f
 15265 1ff6 02       		.uleb128 0x2
 15266 1ff7 91       		.byte	0x91
 15267 1ff8 68       		.sleb128 -24
 15268 1ff9 26       		.uleb128 0x26
 15269 1ffa 14000000 		.4byte	.LBB32
 15270 1ffe 3A010000 		.4byte	.LBE32-.LBB32
 15271 2002 2B       		.uleb128 0x2b
 15272 2003 84260000 		.4byte	.LASF491
 15273 2007 01       		.byte	0x1
 15274 2008 6D05     		.2byte	0x56d
 15275 200a 81000000 		.4byte	0x81
 15276 200e 02       		.uleb128 0x2
 15277 200f 91       		.byte	0x91
 15278 2010 6F       		.sleb128 -17
 15279 2011 2B       		.uleb128 0x2b
 15280 2012 6D0D0000 		.4byte	.LASF507
 15281 2016 01       		.byte	0x1
 15282 2017 6F05     		.2byte	0x56f
 15283 2019 97050000 		.4byte	0x597
 15284 201d 02       		.uleb128 0x2
 15285 201e 91       		.byte	0x91
 15286 201f 64       		.sleb128 -28
 15287 2020 26       		.uleb128 0x26
 15288 2021 3A000000 		.4byte	.LBB33
 15289 2025 14010000 		.4byte	.LBE33-.LBB33
 15290 2029 28       		.uleb128 0x28
 15291 202a 70747200 		.ascii	"ptr\000"
 15292 202e 01       		.byte	0x1
 15293 202f 8005     		.2byte	0x580
 15294 2031 3B010000 		.4byte	0x13b
 15295 2035 02       		.uleb128 0x2
 15296 2036 91       		.byte	0x91
 15297 2037 60       		.sleb128 -32
 15298 2038 2B       		.uleb128 0x2b
 15299 2039 1F170000 		.4byte	.LASF517
 15300 203d 01       		.byte	0x1
 15301 203e 8105     		.2byte	0x581
 15302 2040 97000000 		.4byte	0x97
 15303 2044 02       		.uleb128 0x2
 15304 2045 91       		.byte	0x91
 15305 2046 6E       		.sleb128 -18
 15306 2047 00       		.byte	0
 15307 2048 00       		.byte	0
 15308 2049 00       		.byte	0
 15309 204a 29       		.uleb128 0x29
 15310 204b 08220000 		.4byte	.LASF527
 15311 204f 01       		.byte	0x1
 15312 2050 9205     		.2byte	0x592
 15313 2052 00000000 		.4byte	.LFB92
 15314 2056 E2010000 		.4byte	.LFE92-.LFB92
 15315 205a 01       		.uleb128 0x1
 15316 205b 9C       		.byte	0x9c
 15317 205c DE200000 		.4byte	0x20de
 15318 2060 2A       		.uleb128 0x2a
 15319 2061 6B240000 		.4byte	.LASF483
 15320 2065 01       		.byte	0x1
ARM GAS  C:\Users\RECEPC~1\AppData\Local\Temp\ccvxjDo6.s 			page 319


 15321 2066 9205     		.2byte	0x592
 15322 2068 11010000 		.4byte	0x111
 15323 206c 02       		.uleb128 0x2
 15324 206d 91       		.byte	0x91
 15325 206e 54       		.sleb128 -44
 15326 206f 2B       		.uleb128 0x2b
 15327 2070 34000000 		.4byte	.LASF506
 15328 2074 01       		.byte	0x1
 15329 2075 9405     		.2byte	0x594
 15330 2077 6F0D0000 		.4byte	0xd6f
 15331 207b 02       		.uleb128 0x2
 15332 207c 91       		.byte	0x91
 15333 207d 68       		.sleb128 -24
 15334 207e 26       		.uleb128 0x26
 15335 207f 14000000 		.4byte	.LBB34
 15336 2083 C8010000 		.4byte	.LBE34-.LBB34
 15337 2087 2B       		.uleb128 0x2b
 15338 2088 84260000 		.4byte	.LASF491
 15339 208c 01       		.byte	0x1
 15340 208d 9705     		.2byte	0x597
 15341 208f 81000000 		.4byte	0x81
 15342 2093 02       		.uleb128 0x2
 15343 2094 91       		.byte	0x91
 15344 2095 6F       		.sleb128 -17
 15345 2096 2B       		.uleb128 0x2b
 15346 2097 6D0D0000 		.4byte	.LASF507
 15347 209b 01       		.byte	0x1
 15348 209c 9905     		.2byte	0x599
 15349 209e 97050000 		.4byte	0x597
 15350 20a2 02       		.uleb128 0x2
 15351 20a3 91       		.byte	0x91
 15352 20a4 64       		.sleb128 -28
 15353 20a5 26       		.uleb128 0x26
 15354 20a6 3A000000 		.4byte	.LBB35
 15355 20aa 9C010000 		.4byte	.LBE35-.LBB35
 15356 20ae 2B       		.uleb128 0x2b
 15357 20af 9C0D0000 		.4byte	.LASF488
 15358 20b3 01       		.byte	0x1
 15359 20b4 A905     		.2byte	0x5a9
 15360 20b6 A3000000 		.4byte	0xa3
 15361 20ba 02       		.uleb128 0x2
 15362 20bb 91       		.byte	0x91
 15363 20bc 62       		.sleb128 -30
 15364 20bd 28       		.uleb128 0x28
 15365 20be 70747200 		.ascii	"ptr\000"
 15366 20c2 01       		.byte	0x1
 15367 20c3 C005     		.2byte	0x5c0
 15368 20c5 3B010000 		.4byte	0x13b
 15369 20c9 02       		.uleb128 0x2
 15370 20ca 91       		.byte	0x91
 15371 20cb 5C       		.sleb128 -36
 15372 20cc 2B       		.uleb128 0x2b
 15373 20cd 1F170000 		.4byte	.LASF517
 15374 20d1 01       		.byte	0x1
 15375 20d2 C105     		.2byte	0x5c1
 15376 20d4 97000000 		.4byte	0x97
 15377 20d8 02       		.uleb128 0x2
ARM GAS  C:\Users\RECEPC~1\AppData\Local\Temp\ccvxjDo6.s 			page 320


 15378 20d9 91       		.byte	0x91
 15379 20da 6E       		.sleb128 -18
 15380 20db 00       		.byte	0
 15381 20dc 00       		.byte	0
 15382 20dd 00       		.byte	0
 15383 20de 29       		.uleb128 0x29
 15384 20df 61030000 		.4byte	.LASF528
 15385 20e3 01       		.byte	0x1
 15386 20e4 D605     		.2byte	0x5d6
 15387 20e6 00000000 		.4byte	.LFB93
 15388 20ea 6A000000 		.4byte	.LFE93-.LFB93
 15389 20ee 01       		.uleb128 0x1
 15390 20ef 9C       		.byte	0x9c
 15391 20f0 3B210000 		.4byte	0x213b
 15392 20f4 2A       		.uleb128 0x2a
 15393 20f5 6B240000 		.4byte	.LASF483
 15394 20f9 01       		.byte	0x1
 15395 20fa D605     		.2byte	0x5d6
 15396 20fc 11010000 		.4byte	0x111
 15397 2100 02       		.uleb128 0x2
 15398 2101 91       		.byte	0x91
 15399 2102 64       		.sleb128 -28
 15400 2103 2B       		.uleb128 0x2b
 15401 2104 34000000 		.4byte	.LASF506
 15402 2108 01       		.byte	0x1
 15403 2109 D805     		.2byte	0x5d8
 15404 210b 6F0D0000 		.4byte	0xd6f
 15405 210f 02       		.uleb128 0x2
 15406 2110 91       		.byte	0x91
 15407 2111 74       		.sleb128 -12
 15408 2112 26       		.uleb128 0x26
 15409 2113 12000000 		.4byte	.LBB36
 15410 2117 52000000 		.4byte	.LBE36-.LBB36
 15411 211b 2B       		.uleb128 0x2b
 15412 211c 84260000 		.4byte	.LASF491
 15413 2120 01       		.byte	0x1
 15414 2121 DB05     		.2byte	0x5db
 15415 2123 81000000 		.4byte	0x81
 15416 2127 02       		.uleb128 0x2
 15417 2128 91       		.byte	0x91
 15418 2129 73       		.sleb128 -13
 15419 212a 2B       		.uleb128 0x2b
 15420 212b 6D0D0000 		.4byte	.LASF507
 15421 212f 01       		.byte	0x1
 15422 2130 DD05     		.2byte	0x5dd
 15423 2132 97050000 		.4byte	0x597
 15424 2136 02       		.uleb128 0x2
 15425 2137 91       		.byte	0x91
 15426 2138 6C       		.sleb128 -20
 15427 2139 00       		.byte	0
 15428 213a 00       		.byte	0
 15429 213b 29       		.uleb128 0x29
 15430 213c 25150000 		.4byte	.LASF529
 15431 2140 01       		.byte	0x1
 15432 2141 EA05     		.2byte	0x5ea
 15433 2143 00000000 		.4byte	.LFB94
 15434 2147 60000000 		.4byte	.LFE94-.LFB94
ARM GAS  C:\Users\RECEPC~1\AppData\Local\Temp\ccvxjDo6.s 			page 321


 15435 214b 01       		.uleb128 0x1
 15436 214c 9C       		.byte	0x9c
 15437 214d 98210000 		.4byte	0x2198
 15438 2151 2A       		.uleb128 0x2a
 15439 2152 6B240000 		.4byte	.LASF483
 15440 2156 01       		.byte	0x1
 15441 2157 EA05     		.2byte	0x5ea
 15442 2159 11010000 		.4byte	0x111
 15443 215d 02       		.uleb128 0x2
 15444 215e 91       		.byte	0x91
 15445 215f 64       		.sleb128 -28
 15446 2160 2B       		.uleb128 0x2b
 15447 2161 34000000 		.4byte	.LASF506
 15448 2165 01       		.byte	0x1
 15449 2166 EC05     		.2byte	0x5ec
 15450 2168 6F0D0000 		.4byte	0xd6f
 15451 216c 02       		.uleb128 0x2
 15452 216d 91       		.byte	0x91
 15453 216e 74       		.sleb128 -12
 15454 216f 26       		.uleb128 0x26
 15455 2170 12000000 		.4byte	.LBB37
 15456 2174 48000000 		.4byte	.LBE37-.LBB37
 15457 2178 2B       		.uleb128 0x2b
 15458 2179 84260000 		.4byte	.LASF491
 15459 217d 01       		.byte	0x1
 15460 217e EF05     		.2byte	0x5ef
 15461 2180 81000000 		.4byte	0x81
 15462 2184 02       		.uleb128 0x2
 15463 2185 91       		.byte	0x91
 15464 2186 73       		.sleb128 -13
 15465 2187 2B       		.uleb128 0x2b
 15466 2188 6D0D0000 		.4byte	.LASF507
 15467 218c 01       		.byte	0x1
 15468 218d F105     		.2byte	0x5f1
 15469 218f 97050000 		.4byte	0x597
 15470 2193 02       		.uleb128 0x2
 15471 2194 91       		.byte	0x91
 15472 2195 6C       		.sleb128 -20
 15473 2196 00       		.byte	0
 15474 2197 00       		.byte	0
 15475 2198 29       		.uleb128 0x29
 15476 2199 5F280000 		.4byte	.LASF530
 15477 219d 01       		.byte	0x1
 15478 219e FE05     		.2byte	0x5fe
 15479 21a0 00000000 		.4byte	.LFB95
 15480 21a4 E6000000 		.4byte	.LFE95-.LFB95
 15481 21a8 01       		.uleb128 0x1
 15482 21a9 9C       		.byte	0x9c
 15483 21aa F5210000 		.4byte	0x21f5
 15484 21ae 2A       		.uleb128 0x2a
 15485 21af 6B240000 		.4byte	.LASF483
 15486 21b3 01       		.byte	0x1
 15487 21b4 FE05     		.2byte	0x5fe
 15488 21b6 30010000 		.4byte	0x130
 15489 21ba 02       		.uleb128 0x2
 15490 21bb 91       		.byte	0x91
 15491 21bc 5C       		.sleb128 -36
ARM GAS  C:\Users\RECEPC~1\AppData\Local\Temp\ccvxjDo6.s 			page 322


 15492 21bd 2B       		.uleb128 0x2b
 15493 21be 34000000 		.4byte	.LASF506
 15494 21c2 01       		.byte	0x1
 15495 21c3 0006     		.2byte	0x600
 15496 21c5 6F0D0000 		.4byte	0xd6f
 15497 21c9 02       		.uleb128 0x2
 15498 21ca 91       		.byte	0x91
 15499 21cb 6C       		.sleb128 -20
 15500 21cc 26       		.uleb128 0x26
 15501 21cd 12000000 		.4byte	.LBB38
 15502 21d1 CE000000 		.4byte	.LBE38-.LBB38
 15503 21d5 2B       		.uleb128 0x2b
 15504 21d6 84260000 		.4byte	.LASF491
 15505 21da 01       		.byte	0x1
 15506 21db 0306     		.2byte	0x603
 15507 21dd 81000000 		.4byte	0x81
 15508 21e1 02       		.uleb128 0x2
 15509 21e2 91       		.byte	0x91
 15510 21e3 6B       		.sleb128 -21
 15511 21e4 2B       		.uleb128 0x2b
 15512 21e5 6D0D0000 		.4byte	.LASF507
 15513 21e9 01       		.byte	0x1
 15514 21ea 0506     		.2byte	0x605
 15515 21ec 97050000 		.4byte	0x597
 15516 21f0 02       		.uleb128 0x2
 15517 21f1 91       		.byte	0x91
 15518 21f2 64       		.sleb128 -28
 15519 21f3 00       		.byte	0
 15520 21f4 00       		.byte	0
 15521 21f5 2C       		.uleb128 0x2c
 15522 21f6 98020000 		.4byte	.LASF531
 15523 21fa 01       		.byte	0x1
 15524 21fb 1D06     		.2byte	0x61d
 15525 21fd 00000000 		.4byte	.LFB96
 15526 2201 16000000 		.4byte	.LFE96-.LFB96
 15527 2205 01       		.uleb128 0x1
 15528 2206 9C       		.byte	0x9c
 15529 2207 2A220000 		.4byte	0x222a
 15530 220b 2A       		.uleb128 0x2a
 15531 220c 6B240000 		.4byte	.LASF483
 15532 2210 01       		.byte	0x1
 15533 2211 1D06     		.2byte	0x61d
 15534 2213 11010000 		.4byte	0x111
 15535 2217 02       		.uleb128 0x2
 15536 2218 91       		.byte	0x91
 15537 2219 6C       		.sleb128 -20
 15538 221a 2B       		.uleb128 0x2b
 15539 221b 09200000 		.4byte	.LASF478
 15540 221f 01       		.byte	0x1
 15541 2220 1F06     		.2byte	0x61f
 15542 2222 B70F0000 		.4byte	0xfb7
 15543 2226 02       		.uleb128 0x2
 15544 2227 91       		.byte	0x91
 15545 2228 74       		.sleb128 -12
 15546 2229 00       		.byte	0
 15547 222a 29       		.uleb128 0x29
 15548 222b 241C0000 		.4byte	.LASF532
ARM GAS  C:\Users\RECEPC~1\AppData\Local\Temp\ccvxjDo6.s 			page 323


 15549 222f 01       		.byte	0x1
 15550 2230 2906     		.2byte	0x629
 15551 2232 00000000 		.4byte	.LFB97
 15552 2236 E6000000 		.4byte	.LFE97-.LFB97
 15553 223a 01       		.uleb128 0x1
 15554 223b 9C       		.byte	0x9c
 15555 223c 87220000 		.4byte	0x2287
 15556 2240 2A       		.uleb128 0x2a
 15557 2241 6B240000 		.4byte	.LASF483
 15558 2245 01       		.byte	0x1
 15559 2246 2906     		.2byte	0x629
 15560 2248 30010000 		.4byte	0x130
 15561 224c 02       		.uleb128 0x2
 15562 224d 91       		.byte	0x91
 15563 224e 5C       		.sleb128 -36
 15564 224f 2B       		.uleb128 0x2b
 15565 2250 34000000 		.4byte	.LASF506
 15566 2254 01       		.byte	0x1
 15567 2255 2B06     		.2byte	0x62b
 15568 2257 6F0D0000 		.4byte	0xd6f
 15569 225b 02       		.uleb128 0x2
 15570 225c 91       		.byte	0x91
 15571 225d 6C       		.sleb128 -20
 15572 225e 26       		.uleb128 0x26
 15573 225f 12000000 		.4byte	.LBB39
 15574 2263 CE000000 		.4byte	.LBE39-.LBB39
 15575 2267 2B       		.uleb128 0x2b
 15576 2268 84260000 		.4byte	.LASF491
 15577 226c 01       		.byte	0x1
 15578 226d 2E06     		.2byte	0x62e
 15579 226f 81000000 		.4byte	0x81
 15580 2273 02       		.uleb128 0x2
 15581 2274 91       		.byte	0x91
 15582 2275 6B       		.sleb128 -21
 15583 2276 2B       		.uleb128 0x2b
 15584 2277 6D0D0000 		.4byte	.LASF507
 15585 227b 01       		.byte	0x1
 15586 227c 3006     		.2byte	0x630
 15587 227e 97050000 		.4byte	0x597
 15588 2282 02       		.uleb128 0x2
 15589 2283 91       		.byte	0x91
 15590 2284 64       		.sleb128 -28
 15591 2285 00       		.byte	0
 15592 2286 00       		.byte	0
 15593 2287 29       		.uleb128 0x29
 15594 2288 650C0000 		.4byte	.LASF533
 15595 228c 01       		.byte	0x1
 15596 228d 4806     		.2byte	0x648
 15597 228f 00000000 		.4byte	.LFB98
 15598 2293 EC000000 		.4byte	.LFE98-.LFB98
 15599 2297 01       		.uleb128 0x1
 15600 2298 9C       		.byte	0x9c
 15601 2299 E4220000 		.4byte	0x22e4
 15602 229d 2A       		.uleb128 0x2a
 15603 229e 6B240000 		.4byte	.LASF483
 15604 22a2 01       		.byte	0x1
 15605 22a3 4806     		.2byte	0x648
ARM GAS  C:\Users\RECEPC~1\AppData\Local\Temp\ccvxjDo6.s 			page 324


 15606 22a5 30010000 		.4byte	0x130
 15607 22a9 02       		.uleb128 0x2
 15608 22aa 91       		.byte	0x91
 15609 22ab 5C       		.sleb128 -36
 15610 22ac 2B       		.uleb128 0x2b
 15611 22ad 34000000 		.4byte	.LASF506
 15612 22b1 01       		.byte	0x1
 15613 22b2 4A06     		.2byte	0x64a
 15614 22b4 6F0D0000 		.4byte	0xd6f
 15615 22b8 02       		.uleb128 0x2
 15616 22b9 91       		.byte	0x91
 15617 22ba 6C       		.sleb128 -20
 15618 22bb 26       		.uleb128 0x26
 15619 22bc 12000000 		.4byte	.LBB40
 15620 22c0 D4000000 		.4byte	.LBE40-.LBB40
 15621 22c4 2B       		.uleb128 0x2b
 15622 22c5 84260000 		.4byte	.LASF491
 15623 22c9 01       		.byte	0x1
 15624 22ca 4D06     		.2byte	0x64d
 15625 22cc 81000000 		.4byte	0x81
 15626 22d0 02       		.uleb128 0x2
 15627 22d1 91       		.byte	0x91
 15628 22d2 6B       		.sleb128 -21
 15629 22d3 2B       		.uleb128 0x2b
 15630 22d4 6D0D0000 		.4byte	.LASF507
 15631 22d8 01       		.byte	0x1
 15632 22d9 4F06     		.2byte	0x64f
 15633 22db 97050000 		.4byte	0x597
 15634 22df 02       		.uleb128 0x2
 15635 22e0 91       		.byte	0x91
 15636 22e1 64       		.sleb128 -28
 15637 22e2 00       		.byte	0
 15638 22e3 00       		.byte	0
 15639 22e4 29       		.uleb128 0x29
 15640 22e5 D72A0000 		.4byte	.LASF534
 15641 22e9 01       		.byte	0x1
 15642 22ea 6506     		.2byte	0x665
 15643 22ec 00000000 		.4byte	.LFB99
 15644 22f0 E8010000 		.4byte	.LFE99-.LFB99
 15645 22f4 01       		.uleb128 0x1
 15646 22f5 9C       		.byte	0x9c
 15647 22f6 85230000 		.4byte	0x2385
 15648 22fa 2A       		.uleb128 0x2a
 15649 22fb 6B240000 		.4byte	.LASF483
 15650 22ff 01       		.byte	0x1
 15651 2300 6506     		.2byte	0x665
 15652 2302 11010000 		.4byte	0x111
 15653 2306 02       		.uleb128 0x2
 15654 2307 91       		.byte	0x91
 15655 2308 5C       		.sleb128 -36
 15656 2309 2B       		.uleb128 0x2b
 15657 230a 09200000 		.4byte	.LASF478
 15658 230e 01       		.byte	0x1
 15659 230f 6706     		.2byte	0x667
 15660 2311 B70F0000 		.4byte	0xfb7
 15661 2315 02       		.uleb128 0x2
 15662 2316 91       		.byte	0x91
ARM GAS  C:\Users\RECEPC~1\AppData\Local\Temp\ccvxjDo6.s 			page 325


 15663 2317 74       		.sleb128 -12
 15664 2318 2D       		.uleb128 0x2d
 15665 2319 94000000 		.4byte	.LBB41
 15666 231d 38000000 		.4byte	.LBE41-.LBB41
 15667 2321 35230000 		.4byte	0x2335
 15668 2325 2B       		.uleb128 0x2b
 15669 2326 23130000 		.4byte	.LASF535
 15670 232a 01       		.byte	0x1
 15671 232b 8406     		.2byte	0x684
 15672 232d 7D020000 		.4byte	0x27d
 15673 2331 02       		.uleb128 0x2
 15674 2332 91       		.byte	0x91
 15675 2333 70       		.sleb128 -16
 15676 2334 00       		.byte	0
 15677 2335 2D       		.uleb128 0x2d
 15678 2336 EA000000 		.4byte	.LBB42
 15679 233a 60000000 		.4byte	.LBE42-.LBB42
 15680 233e 52230000 		.4byte	0x2352
 15681 2342 2B       		.uleb128 0x2b
 15682 2343 23130000 		.4byte	.LASF535
 15683 2347 01       		.byte	0x1
 15684 2348 9406     		.2byte	0x694
 15685 234a 7D020000 		.4byte	0x27d
 15686 234e 02       		.uleb128 0x2
 15687 234f 91       		.byte	0x91
 15688 2350 6C       		.sleb128 -20
 15689 2351 00       		.byte	0
 15690 2352 26       		.uleb128 0x26
 15691 2353 4E010000 		.4byte	.LBB43
 15692 2357 8C000000 		.4byte	.LBE43-.LBB43
 15693 235b 2B       		.uleb128 0x2b
 15694 235c 23130000 		.4byte	.LASF535
 15695 2360 01       		.byte	0x1
 15696 2361 AB06     		.2byte	0x6ab
 15697 2363 7D020000 		.4byte	0x27d
 15698 2367 02       		.uleb128 0x2
 15699 2368 91       		.byte	0x91
 15700 2369 68       		.sleb128 -24
 15701 236a 26       		.uleb128 0x26
 15702 236b 62010000 		.4byte	.LBB44
 15703 236f 78000000 		.4byte	.LBE44-.LBB44
 15704 2373 2B       		.uleb128 0x2b
 15705 2374 10050000 		.4byte	.LASF536
 15706 2378 01       		.byte	0x1
 15707 2379 AE06     		.2byte	0x6ae
 15708 237b 97000000 		.4byte	0x97
 15709 237f 02       		.uleb128 0x2
 15710 2380 91       		.byte	0x91
 15711 2381 67       		.sleb128 -25
 15712 2382 00       		.byte	0
 15713 2383 00       		.byte	0
 15714 2384 00       		.byte	0
 15715 2385 29       		.uleb128 0x29
 15716 2386 9E000000 		.4byte	.LASF537
 15717 238a 01       		.byte	0x1
 15718 238b C106     		.2byte	0x6c1
 15719 238d 00000000 		.4byte	.LFB100
ARM GAS  C:\Users\RECEPC~1\AppData\Local\Temp\ccvxjDo6.s 			page 326


 15720 2391 40100000 		.4byte	.LFE100-.LFB100
 15721 2395 01       		.uleb128 0x1
 15722 2396 9C       		.byte	0x9c
 15723 2397 28240000 		.4byte	0x2428
 15724 239b 2A       		.uleb128 0x2a
 15725 239c 6B240000 		.4byte	.LASF483
 15726 23a0 01       		.byte	0x1
 15727 23a1 C106     		.2byte	0x6c1
 15728 23a3 11010000 		.4byte	0x111
 15729 23a7 02       		.uleb128 0x2
 15730 23a8 91       		.byte	0x91
 15731 23a9 54       		.sleb128 -44
 15732 23aa 2B       		.uleb128 0x2b
 15733 23ab 09200000 		.4byte	.LASF478
 15734 23af 01       		.byte	0x1
 15735 23b0 C306     		.2byte	0x6c3
 15736 23b2 B70F0000 		.4byte	0xfb7
 15737 23b6 02       		.uleb128 0x2
 15738 23b7 91       		.byte	0x91
 15739 23b8 68       		.sleb128 -24
 15740 23b9 26       		.uleb128 0x26
 15741 23ba 14000000 		.4byte	.LBB45
 15742 23be 20100000 		.4byte	.LBE45-.LBB45
 15743 23c2 2B       		.uleb128 0x2b
 15744 23c3 84260000 		.4byte	.LASF491
 15745 23c7 01       		.byte	0x1
 15746 23c8 C606     		.2byte	0x6c6
 15747 23ca 97000000 		.4byte	0x97
 15748 23ce 02       		.uleb128 0x2
 15749 23cf 91       		.byte	0x91
 15750 23d0 67       		.sleb128 -25
 15751 23d1 26       		.uleb128 0x26
 15752 23d2 34000000 		.4byte	.LBB46
 15753 23d6 00100000 		.4byte	.LBE46-.LBB46
 15754 23da 2B       		.uleb128 0x2b
 15755 23db E1290000 		.4byte	.LASF538
 15756 23df 01       		.byte	0x1
 15757 23e0 D006     		.2byte	0x6d0
 15758 23e2 54020000 		.4byte	0x254
 15759 23e6 02       		.uleb128 0x2
 15760 23e7 91       		.byte	0x91
 15761 23e8 6F       		.sleb128 -17
 15762 23e9 2B       		.uleb128 0x2b
 15763 23ea BA2A0000 		.4byte	.LASF539
 15764 23ee 01       		.byte	0x1
 15765 23ef D106     		.2byte	0x6d1
 15766 23f1 A3000000 		.4byte	0xa3
 15767 23f5 02       		.uleb128 0x2
 15768 23f6 91       		.byte	0x91
 15769 23f7 6C       		.sleb128 -20
 15770 23f8 2B       		.uleb128 0x2b
 15771 23f9 CE190000 		.4byte	.LASF540
 15772 23fd 01       		.byte	0x1
 15773 23fe F106     		.2byte	0x6f1
 15774 2400 87070000 		.4byte	0x787
 15775 2404 02       		.uleb128 0x2
 15776 2405 91       		.byte	0x91
ARM GAS  C:\Users\RECEPC~1\AppData\Local\Temp\ccvxjDo6.s 			page 327


 15777 2406 60       		.sleb128 -32
 15778 2407 2B       		.uleb128 0x2b
 15779 2408 A11C0000 		.4byte	.LASF541
 15780 240c 01       		.byte	0x1
 15781 240d F306     		.2byte	0x6f3
 15782 240f 97000000 		.4byte	0x97
 15783 2413 02       		.uleb128 0x2
 15784 2414 91       		.byte	0x91
 15785 2415 5F       		.sleb128 -33
 15786 2416 2B       		.uleb128 0x2b
 15787 2417 23130000 		.4byte	.LASF535
 15788 241b 01       		.byte	0x1
 15789 241c D607     		.2byte	0x7d6
 15790 241e 7D020000 		.4byte	0x27d
 15791 2422 02       		.uleb128 0x2
 15792 2423 91       		.byte	0x91
 15793 2424 58       		.sleb128 -40
 15794 2425 00       		.byte	0
 15795 2426 00       		.byte	0
 15796 2427 00       		.byte	0
 15797 2428 2C       		.uleb128 0x2c
 15798 2429 AE110000 		.4byte	.LASF542
 15799 242d 01       		.byte	0x1
 15800 242e ED07     		.2byte	0x7ed
 15801 2430 00000000 		.4byte	.LFB101
 15802 2434 E4010000 		.4byte	.LFE101-.LFB101
 15803 2438 01       		.uleb128 0x1
 15804 2439 9C       		.byte	0x9c
 15805 243a 5D240000 		.4byte	0x245d
 15806 243e 2A       		.uleb128 0x2a
 15807 243f 6B240000 		.4byte	.LASF483
 15808 2443 01       		.byte	0x1
 15809 2444 ED07     		.2byte	0x7ed
 15810 2446 30010000 		.4byte	0x130
 15811 244a 02       		.uleb128 0x2
 15812 244b 91       		.byte	0x91
 15813 244c 6C       		.sleb128 -20
 15814 244d 2B       		.uleb128 0x2b
 15815 244e 6F180000 		.4byte	.LASF543
 15816 2452 01       		.byte	0x1
 15817 2453 EF07     		.2byte	0x7ef
 15818 2455 87070000 		.4byte	0x787
 15819 2459 02       		.uleb128 0x2
 15820 245a 91       		.byte	0x91
 15821 245b 74       		.sleb128 -12
 15822 245c 00       		.byte	0
 15823 245d 2E       		.uleb128 0x2e
 15824 245e 57140000 		.4byte	.LASF554
 15825 2462 01       		.byte	0x1
 15826 2463 6F08     		.2byte	0x86f
 15827 2465 54020000 		.4byte	0x254
 15828 2469 00000000 		.4byte	.LFB102
 15829 246d 24010000 		.4byte	.LFE102-.LFB102
 15830 2471 01       		.uleb128 0x1
 15831 2472 9C       		.byte	0x9c
 15832 2473 F8240000 		.4byte	0x24f8
 15833 2477 2A       		.uleb128 0x2a
ARM GAS  C:\Users\RECEPC~1\AppData\Local\Temp\ccvxjDo6.s 			page 328


 15834 2478 6B240000 		.4byte	.LASF483
 15835 247c 01       		.byte	0x1
 15836 247d 6F08     		.2byte	0x86f
 15837 247f 11010000 		.4byte	0x111
 15838 2483 02       		.uleb128 0x2
 15839 2484 91       		.byte	0x91
 15840 2485 64       		.sleb128 -28
 15841 2486 2A       		.uleb128 0x2a
 15842 2487 DD0F0000 		.4byte	.LASF544
 15843 248b 01       		.byte	0x1
 15844 248c 6F08     		.2byte	0x86f
 15845 248e 11010000 		.4byte	0x111
 15846 2492 02       		.uleb128 0x2
 15847 2493 91       		.byte	0x91
 15848 2494 60       		.sleb128 -32
 15849 2495 2A       		.uleb128 0x2a
 15850 2496 201B0000 		.4byte	.LASF545
 15851 249a 01       		.byte	0x1
 15852 249b 6F08     		.2byte	0x86f
 15853 249d A3000000 		.4byte	0xa3
 15854 24a1 02       		.uleb128 0x2
 15855 24a2 91       		.byte	0x91
 15856 24a3 5E       		.sleb128 -34
 15857 24a4 2B       		.uleb128 0x2b
 15858 24a5 C8160000 		.4byte	.LASF546
 15859 24a9 01       		.byte	0x1
 15860 24aa 7108     		.2byte	0x871
 15861 24ac 54020000 		.4byte	0x254
 15862 24b0 02       		.uleb128 0x2
 15863 24b1 91       		.byte	0x91
 15864 24b2 6F       		.sleb128 -17
 15865 24b3 2B       		.uleb128 0x2b
 15866 24b4 84260000 		.4byte	.LASF491
 15867 24b8 01       		.byte	0x1
 15868 24b9 7208     		.2byte	0x872
 15869 24bb 97000000 		.4byte	0x97
 15870 24bf 05       		.uleb128 0x5
 15871 24c0 03       		.byte	0x3
 15872 24c1 01000000 		.4byte	index.9631
 15873 24c5 26       		.uleb128 0x26
 15874 24c6 34000000 		.4byte	.LBB47
 15875 24ca E2000000 		.4byte	.LBE47-.LBB47
 15876 24ce 2B       		.uleb128 0x2b
 15877 24cf 991B0000 		.4byte	.LASF547
 15878 24d3 01       		.byte	0x1
 15879 24d4 7A08     		.2byte	0x87a
 15880 24d6 97000000 		.4byte	0x97
 15881 24da 02       		.uleb128 0x2
 15882 24db 91       		.byte	0x91
 15883 24dc 6E       		.sleb128 -18
 15884 24dd 26       		.uleb128 0x26
 15885 24de A6000000 		.4byte	.LBB48
 15886 24e2 70000000 		.4byte	.LBE48-.LBB48
 15887 24e6 2B       		.uleb128 0x2b
 15888 24e7 561D0000 		.4byte	.LASF548
 15889 24eb 01       		.byte	0x1
 15890 24ec 8108     		.2byte	0x881
ARM GAS  C:\Users\RECEPC~1\AppData\Local\Temp\ccvxjDo6.s 			page 329


 15891 24ee 97000000 		.4byte	0x97
 15892 24f2 02       		.uleb128 0x2
 15893 24f3 91       		.byte	0x91
 15894 24f4 6D       		.sleb128 -19
 15895 24f5 00       		.byte	0
 15896 24f6 00       		.byte	0
 15897 24f7 00       		.byte	0
 15898 24f8 29       		.uleb128 0x29
 15899 24f9 39090000 		.4byte	.LASF549
 15900 24fd 01       		.byte	0x1
 15901 24fe 9008     		.2byte	0x890
 15902 2500 00000000 		.4byte	.LFB103
 15903 2504 60000000 		.4byte	.LFE103-.LFB103
 15904 2508 01       		.uleb128 0x1
 15905 2509 9C       		.byte	0x9c
 15906 250a 55250000 		.4byte	0x2555
 15907 250e 2A       		.uleb128 0x2a
 15908 250f 6B240000 		.4byte	.LASF483
 15909 2513 01       		.byte	0x1
 15910 2514 9008     		.2byte	0x890
 15911 2516 30010000 		.4byte	0x130
 15912 251a 02       		.uleb128 0x2
 15913 251b 91       		.byte	0x91
 15914 251c 64       		.sleb128 -28
 15915 251d 2B       		.uleb128 0x2b
 15916 251e 34000000 		.4byte	.LASF506
 15917 2522 01       		.byte	0x1
 15918 2523 9208     		.2byte	0x892
 15919 2525 6F0D0000 		.4byte	0xd6f
 15920 2529 02       		.uleb128 0x2
 15921 252a 91       		.byte	0x91
 15922 252b 74       		.sleb128 -12
 15923 252c 26       		.uleb128 0x26
 15924 252d 12000000 		.4byte	.LBB49
 15925 2531 48000000 		.4byte	.LBE49-.LBB49
 15926 2535 2B       		.uleb128 0x2b
 15927 2536 84260000 		.4byte	.LASF491
 15928 253a 01       		.byte	0x1
 15929 253b 9508     		.2byte	0x895
 15930 253d 81000000 		.4byte	0x81
 15931 2541 02       		.uleb128 0x2
 15932 2542 91       		.byte	0x91
 15933 2543 73       		.sleb128 -13
 15934 2544 2B       		.uleb128 0x2b
 15935 2545 6D0D0000 		.4byte	.LASF507
 15936 2549 01       		.byte	0x1
 15937 254a 9708     		.2byte	0x897
 15938 254c 97050000 		.4byte	0x597
 15939 2550 02       		.uleb128 0x2
 15940 2551 91       		.byte	0x91
 15941 2552 6C       		.sleb128 -20
 15942 2553 00       		.byte	0
 15943 2554 00       		.byte	0
 15944 2555 29       		.uleb128 0x29
 15945 2556 34160000 		.4byte	.LASF550
 15946 255a 01       		.byte	0x1
 15947 255b A308     		.2byte	0x8a3
ARM GAS  C:\Users\RECEPC~1\AppData\Local\Temp\ccvxjDo6.s 			page 330


 15948 255d 00000000 		.4byte	.LFB104
 15949 2561 40020000 		.4byte	.LFE104-.LFB104
 15950 2565 01       		.uleb128 0x1
 15951 2566 9C       		.byte	0x9c
 15952 2567 0A260000 		.4byte	0x260a
 15953 256b 2A       		.uleb128 0x2a
 15954 256c 6B240000 		.4byte	.LASF483
 15955 2570 01       		.byte	0x1
 15956 2571 A308     		.2byte	0x8a3
 15957 2573 30010000 		.4byte	0x130
 15958 2577 02       		.uleb128 0x2
 15959 2578 91       		.byte	0x91
 15960 2579 64       		.sleb128 -28
 15961 257a 2B       		.uleb128 0x2b
 15962 257b 09200000 		.4byte	.LASF478
 15963 257f 01       		.byte	0x1
 15964 2580 A608     		.2byte	0x8a6
 15965 2582 B70F0000 		.4byte	0xfb7
 15966 2586 02       		.uleb128 0x2
 15967 2587 91       		.byte	0x91
 15968 2588 74       		.sleb128 -12
 15969 2589 2D       		.uleb128 0x2d
 15970 258a 48000000 		.4byte	.LBB50
 15971 258e 6C000000 		.4byte	.LBE50-.LBB50
 15972 2592 B5250000 		.4byte	0x25b5
 15973 2596 2B       		.uleb128 0x2b
 15974 2597 780F0000 		.4byte	.LASF551
 15975 259b 01       		.byte	0x1
 15976 259c B408     		.2byte	0x8b4
 15977 259e 97000000 		.4byte	0x97
 15978 25a2 02       		.uleb128 0x2
 15979 25a3 91       		.byte	0x91
 15980 25a4 73       		.sleb128 -13
 15981 25a5 2B       		.uleb128 0x2b
 15982 25a6 D00F0000 		.4byte	.LASF552
 15983 25aa 01       		.byte	0x1
 15984 25ab B508     		.2byte	0x8b5
 15985 25ad 97000000 		.4byte	0x97
 15986 25b1 02       		.uleb128 0x2
 15987 25b2 91       		.byte	0x91
 15988 25b3 72       		.sleb128 -14
 15989 25b4 00       		.byte	0
 15990 25b5 2D       		.uleb128 0x2d
 15991 25b6 B4000000 		.4byte	.LBB51
 15992 25ba 6C000000 		.4byte	.LBE51-.LBB51
 15993 25be E1250000 		.4byte	0x25e1
 15994 25c2 2B       		.uleb128 0x2b
 15995 25c3 780F0000 		.4byte	.LASF551
 15996 25c7 01       		.byte	0x1
 15997 25c8 C608     		.2byte	0x8c6
 15998 25ca 97000000 		.4byte	0x97
 15999 25ce 02       		.uleb128 0x2
 16000 25cf 91       		.byte	0x91
 16001 25d0 71       		.sleb128 -15
 16002 25d1 2B       		.uleb128 0x2b
 16003 25d2 D00F0000 		.4byte	.LASF552
 16004 25d6 01       		.byte	0x1
ARM GAS  C:\Users\RECEPC~1\AppData\Local\Temp\ccvxjDo6.s 			page 331


 16005 25d7 C708     		.2byte	0x8c7
 16006 25d9 97000000 		.4byte	0x97
 16007 25dd 02       		.uleb128 0x2
 16008 25de 91       		.byte	0x91
 16009 25df 70       		.sleb128 -16
 16010 25e0 00       		.byte	0
 16011 25e1 26       		.uleb128 0x26
 16012 25e2 20010000 		.4byte	.LBB52
 16013 25e6 6C000000 		.4byte	.LBE52-.LBB52
 16014 25ea 2B       		.uleb128 0x2b
 16015 25eb 780F0000 		.4byte	.LASF551
 16016 25ef 01       		.byte	0x1
 16017 25f0 D808     		.2byte	0x8d8
 16018 25f2 97000000 		.4byte	0x97
 16019 25f6 02       		.uleb128 0x2
 16020 25f7 91       		.byte	0x91
 16021 25f8 6F       		.sleb128 -17
 16022 25f9 2B       		.uleb128 0x2b
 16023 25fa D00F0000 		.4byte	.LASF552
 16024 25fe 01       		.byte	0x1
 16025 25ff D908     		.2byte	0x8d9
 16026 2601 97000000 		.4byte	0x97
 16027 2605 02       		.uleb128 0x2
 16028 2606 91       		.byte	0x91
 16029 2607 6E       		.sleb128 -18
 16030 2608 00       		.byte	0
 16031 2609 00       		.byte	0
 16032 260a 2C       		.uleb128 0x2c
 16033 260b 570D0000 		.4byte	.LASF553
 16034 260f 01       		.byte	0x1
 16035 2610 0609     		.2byte	0x906
 16036 2612 00000000 		.4byte	.LFB105
 16037 2616 6C000000 		.4byte	.LFE105-.LFB105
 16038 261a 01       		.uleb128 0x1
 16039 261b 9C       		.byte	0x9c
 16040 261c 3F260000 		.4byte	0x263f
 16041 2620 2A       		.uleb128 0x2a
 16042 2621 6B240000 		.4byte	.LASF483
 16043 2625 01       		.byte	0x1
 16044 2626 0609     		.2byte	0x906
 16045 2628 11010000 		.4byte	0x111
 16046 262c 02       		.uleb128 0x2
 16047 262d 91       		.byte	0x91
 16048 262e 6C       		.sleb128 -20
 16049 262f 2B       		.uleb128 0x2b
 16050 2630 09200000 		.4byte	.LASF478
 16051 2634 01       		.byte	0x1
 16052 2635 0809     		.2byte	0x908
 16053 2637 B70F0000 		.4byte	0xfb7
 16054 263b 02       		.uleb128 0x2
 16055 263c 91       		.byte	0x91
 16056 263d 74       		.sleb128 -12
 16057 263e 00       		.byte	0
 16058 263f 2F       		.uleb128 0x2f
 16059 2640 59290000 		.4byte	.LASF555
 16060 2644 01       		.byte	0x1
 16061 2645 1A09     		.2byte	0x91a
ARM GAS  C:\Users\RECEPC~1\AppData\Local\Temp\ccvxjDo6.s 			page 332


 16062 2647 54020000 		.4byte	0x254
 16063 264b 00000000 		.4byte	.LFB106
 16064 264f B8000000 		.4byte	.LFE106-.LFB106
 16065 2653 01       		.uleb128 0x1
 16066 2654 9C       		.byte	0x9c
 16067 2655 A5260000 		.4byte	0x26a5
 16068 2659 2A       		.uleb128 0x2a
 16069 265a 6B240000 		.4byte	.LASF483
 16070 265e 01       		.byte	0x1
 16071 265f 1A09     		.2byte	0x91a
 16072 2661 11010000 		.4byte	0x111
 16073 2665 02       		.uleb128 0x2
 16074 2666 91       		.byte	0x91
 16075 2667 6C       		.sleb128 -20
 16076 2668 2A       		.uleb128 0x2a
 16077 2669 DD0F0000 		.4byte	.LASF544
 16078 266d 01       		.byte	0x1
 16079 266e 1A09     		.2byte	0x91a
 16080 2670 11010000 		.4byte	0x111
 16081 2674 02       		.uleb128 0x2
 16082 2675 91       		.byte	0x91
 16083 2676 68       		.sleb128 -24
 16084 2677 2A       		.uleb128 0x2a
 16085 2678 201B0000 		.4byte	.LASF545
 16086 267c 01       		.byte	0x1
 16087 267d 1A09     		.2byte	0x91a
 16088 267f A3000000 		.4byte	0xa3
 16089 2683 02       		.uleb128 0x2
 16090 2684 91       		.byte	0x91
 16091 2685 66       		.sleb128 -26
 16092 2686 2B       		.uleb128 0x2b
 16093 2687 C8160000 		.4byte	.LASF546
 16094 268b 01       		.byte	0x1
 16095 268c 1C09     		.2byte	0x91c
 16096 268e 54020000 		.4byte	0x254
 16097 2692 02       		.uleb128 0x2
 16098 2693 91       		.byte	0x91
 16099 2694 77       		.sleb128 -9
 16100 2695 2B       		.uleb128 0x2b
 16101 2696 34000000 		.4byte	.LASF506
 16102 269a 01       		.byte	0x1
 16103 269b 1D09     		.2byte	0x91d
 16104 269d 6F0D0000 		.4byte	0xd6f
 16105 26a1 02       		.uleb128 0x2
 16106 26a2 91       		.byte	0x91
 16107 26a3 70       		.sleb128 -16
 16108 26a4 00       		.byte	0
 16109 26a5 2C       		.uleb128 0x2c
 16110 26a6 06170000 		.4byte	.LASF556
 16111 26aa 01       		.byte	0x1
 16112 26ab 3009     		.2byte	0x930
 16113 26ad 00000000 		.4byte	.LFB107
 16114 26b1 98000000 		.4byte	.LFE107-.LFB107
 16115 26b5 01       		.uleb128 0x1
 16116 26b6 9C       		.byte	0x9c
 16117 26b7 DA260000 		.4byte	0x26da
 16118 26bb 2A       		.uleb128 0x2a
ARM GAS  C:\Users\RECEPC~1\AppData\Local\Temp\ccvxjDo6.s 			page 333


 16119 26bc 6B240000 		.4byte	.LASF483
 16120 26c0 01       		.byte	0x1
 16121 26c1 3009     		.2byte	0x930
 16122 26c3 11010000 		.4byte	0x111
 16123 26c7 02       		.uleb128 0x2
 16124 26c8 91       		.byte	0x91
 16125 26c9 6C       		.sleb128 -20
 16126 26ca 2B       		.uleb128 0x2b
 16127 26cb 09200000 		.4byte	.LASF478
 16128 26cf 01       		.byte	0x1
 16129 26d0 3209     		.2byte	0x932
 16130 26d2 B70F0000 		.4byte	0xfb7
 16131 26d6 02       		.uleb128 0x2
 16132 26d7 91       		.byte	0x91
 16133 26d8 74       		.sleb128 -12
 16134 26d9 00       		.byte	0
 16135 26da 29       		.uleb128 0x29
 16136 26db 71160000 		.4byte	.LASF557
 16137 26df 01       		.byte	0x1
 16138 26e0 4D09     		.2byte	0x94d
 16139 26e2 00000000 		.4byte	.LFB108
 16140 26e6 AC000000 		.4byte	.LFE108-.LFB108
 16141 26ea 01       		.uleb128 0x1
 16142 26eb 9C       		.byte	0x9c
 16143 26ec 50270000 		.4byte	0x2750
 16144 26f0 2A       		.uleb128 0x2a
 16145 26f1 6B240000 		.4byte	.LASF483
 16146 26f5 01       		.byte	0x1
 16147 26f6 4D09     		.2byte	0x94d
 16148 26f8 30010000 		.4byte	0x130
 16149 26fc 02       		.uleb128 0x2
 16150 26fd 91       		.byte	0x91
 16151 26fe 64       		.sleb128 -28
 16152 26ff 2B       		.uleb128 0x2b
 16153 2700 34000000 		.4byte	.LASF506
 16154 2704 01       		.byte	0x1
 16155 2705 4F09     		.2byte	0x94f
 16156 2707 6F0D0000 		.4byte	0xd6f
 16157 270b 02       		.uleb128 0x2
 16158 270c 91       		.byte	0x91
 16159 270d 70       		.sleb128 -16
 16160 270e 2B       		.uleb128 0x2b
 16161 270f BA260000 		.4byte	.LASF558
 16162 2713 01       		.byte	0x1
 16163 2714 5009     		.2byte	0x950
 16164 2716 7D020000 		.4byte	0x27d
 16165 271a 02       		.uleb128 0x2
 16166 271b 91       		.byte	0x91
 16167 271c 6C       		.sleb128 -20
 16168 271d 26       		.uleb128 0x26
 16169 271e 16000000 		.4byte	.LBB53
 16170 2722 86000000 		.4byte	.LBE53-.LBB53
 16171 2726 2B       		.uleb128 0x2b
 16172 2727 7F120000 		.4byte	.LASF559
 16173 272b 01       		.byte	0x1
 16174 272c 5509     		.2byte	0x955
 16175 272e 9F0F0000 		.4byte	0xf9f
ARM GAS  C:\Users\RECEPC~1\AppData\Local\Temp\ccvxjDo6.s 			page 334


 16176 2732 02       		.uleb128 0x2
 16177 2733 91       		.byte	0x91
 16178 2734 74       		.sleb128 -12
 16179 2735 26       		.uleb128 0x26
 16180 2736 38000000 		.4byte	.LBB54
 16181 273a 5C000000 		.4byte	.LBE54-.LBB54
 16182 273e 2B       		.uleb128 0x2b
 16183 273f 270D0000 		.4byte	.LASF560
 16184 2743 01       		.byte	0x1
 16185 2744 5A09     		.2byte	0x95a
 16186 2746 B70F0000 		.4byte	0xfb7
 16187 274a 02       		.uleb128 0x2
 16188 274b 91       		.byte	0x91
 16189 274c 68       		.sleb128 -24
 16190 274d 00       		.byte	0
 16191 274e 00       		.byte	0
 16192 274f 00       		.byte	0
 16193 2750 29       		.uleb128 0x29
 16194 2751 C7210000 		.4byte	.LASF561
 16195 2755 01       		.byte	0x1
 16196 2756 6E09     		.2byte	0x96e
 16197 2758 00000000 		.4byte	.LFB109
 16198 275c 88000000 		.4byte	.LFE109-.LFB109
 16199 2760 01       		.uleb128 0x1
 16200 2761 9C       		.byte	0x9c
 16201 2762 AD270000 		.4byte	0x27ad
 16202 2766 2A       		.uleb128 0x2a
 16203 2767 6B240000 		.4byte	.LASF483
 16204 276b 01       		.byte	0x1
 16205 276c 6E09     		.2byte	0x96e
 16206 276e 30010000 		.4byte	0x130
 16207 2772 02       		.uleb128 0x2
 16208 2773 91       		.byte	0x91
 16209 2774 64       		.sleb128 -28
 16210 2775 2B       		.uleb128 0x2b
 16211 2776 34000000 		.4byte	.LASF506
 16212 277a 01       		.byte	0x1
 16213 277b 7009     		.2byte	0x970
 16214 277d 6F0D0000 		.4byte	0xd6f
 16215 2781 02       		.uleb128 0x2
 16216 2782 91       		.byte	0x91
 16217 2783 70       		.sleb128 -16
 16218 2784 2B       		.uleb128 0x2b
 16219 2785 7F120000 		.4byte	.LASF559
 16220 2789 01       		.byte	0x1
 16221 278a 7209     		.2byte	0x972
 16222 278c 9F0F0000 		.4byte	0xf9f
 16223 2790 02       		.uleb128 0x2
 16224 2791 91       		.byte	0x91
 16225 2792 74       		.sleb128 -12
 16226 2793 26       		.uleb128 0x26
 16227 2794 28000000 		.4byte	.LBB55
 16228 2798 4C000000 		.4byte	.LBE55-.LBB55
 16229 279c 2B       		.uleb128 0x2b
 16230 279d 270D0000 		.4byte	.LASF560
 16231 27a1 01       		.byte	0x1
 16232 27a2 7709     		.2byte	0x977
ARM GAS  C:\Users\RECEPC~1\AppData\Local\Temp\ccvxjDo6.s 			page 335


 16233 27a4 B70F0000 		.4byte	0xfb7
 16234 27a8 02       		.uleb128 0x2
 16235 27a9 91       		.byte	0x91
 16236 27aa 6C       		.sleb128 -20
 16237 27ab 00       		.byte	0
 16238 27ac 00       		.byte	0
 16239 27ad 2F       		.uleb128 0x2f
 16240 27ae 67170000 		.4byte	.LASF562
 16241 27b2 01       		.byte	0x1
 16242 27b3 9109     		.2byte	0x991
 16243 27b5 81000000 		.4byte	0x81
 16244 27b9 00000000 		.4byte	.LFB110
 16245 27bd 5E000000 		.4byte	.LFE110-.LFB110
 16246 27c1 01       		.uleb128 0x1
 16247 27c2 9C       		.byte	0x9c
 16248 27c3 E6270000 		.4byte	0x27e6
 16249 27c7 2A       		.uleb128 0x2a
 16250 27c8 BA0B0000 		.4byte	.LASF563
 16251 27cc 01       		.byte	0x1
 16252 27cd 9109     		.2byte	0x991
 16253 27cf 3B010000 		.4byte	0x13b
 16254 27d3 02       		.uleb128 0x2
 16255 27d4 91       		.byte	0x91
 16256 27d5 6C       		.sleb128 -20
 16257 27d6 28       		.uleb128 0x28
 16258 27d7 6C726300 		.ascii	"lrc\000"
 16259 27db 01       		.byte	0x1
 16260 27dc 9309     		.2byte	0x993
 16261 27de 81000000 		.4byte	0x81
 16262 27e2 02       		.uleb128 0x2
 16263 27e3 91       		.byte	0x91
 16264 27e4 77       		.sleb128 -9
 16265 27e5 00       		.byte	0
 16266 27e6 2F       		.uleb128 0x2f
 16267 27e7 E5120000 		.4byte	.LASF564
 16268 27eb 01       		.byte	0x1
 16269 27ec 9D09     		.2byte	0x99d
 16270 27ee 81000000 		.4byte	0x81
 16271 27f2 00000000 		.4byte	.LFB111
 16272 27f6 2E000000 		.4byte	.LFE111-.LFB111
 16273 27fa 01       		.uleb128 0x1
 16274 27fb 9C       		.byte	0x9c
 16275 27fc 10280000 		.4byte	0x2810
 16276 2800 2A       		.uleb128 0x2a
 16277 2801 BA0B0000 		.4byte	.LASF563
 16278 2805 01       		.byte	0x1
 16279 2806 9D09     		.2byte	0x99d
 16280 2808 3B010000 		.4byte	0x13b
 16281 280c 02       		.uleb128 0x2
 16282 280d 91       		.byte	0x91
 16283 280e 74       		.sleb128 -12
 16284 280f 00       		.byte	0
 16285 2810 2C       		.uleb128 0x2c
 16286 2811 A0140000 		.4byte	.LASF565
 16287 2815 01       		.byte	0x1
 16288 2816 A809     		.2byte	0x9a8
 16289 2818 00000000 		.4byte	.LFB112
ARM GAS  C:\Users\RECEPC~1\AppData\Local\Temp\ccvxjDo6.s 			page 336


 16290 281c 2C000000 		.4byte	.LFE112-.LFB112
 16291 2820 01       		.uleb128 0x1
 16292 2821 9C       		.byte	0x9c
 16293 2822 45280000 		.4byte	0x2845
 16294 2826 2A       		.uleb128 0x2a
 16295 2827 6B240000 		.4byte	.LASF483
 16296 282b 01       		.byte	0x1
 16297 282c A809     		.2byte	0x9a8
 16298 282e 11010000 		.4byte	0x111
 16299 2832 02       		.uleb128 0x2
 16300 2833 91       		.byte	0x91
 16301 2834 6C       		.sleb128 -20
 16302 2835 2B       		.uleb128 0x2b
 16303 2836 09200000 		.4byte	.LASF478
 16304 283a 01       		.byte	0x1
 16305 283b AA09     		.2byte	0x9aa
 16306 283d 74100000 		.4byte	0x1074
 16307 2841 02       		.uleb128 0x2
 16308 2842 91       		.byte	0x91
 16309 2843 74       		.sleb128 -12
 16310 2844 00       		.byte	0
 16311 2845 2C       		.uleb128 0x2c
 16312 2846 BA150000 		.4byte	.LASF566
 16313 284a 01       		.byte	0x1
 16314 284b B409     		.2byte	0x9b4
 16315 284d 00000000 		.4byte	.LFB113
 16316 2851 2C000000 		.4byte	.LFE113-.LFB113
 16317 2855 01       		.uleb128 0x1
 16318 2856 9C       		.byte	0x9c
 16319 2857 7A280000 		.4byte	0x287a
 16320 285b 2A       		.uleb128 0x2a
 16321 285c 6B240000 		.4byte	.LASF483
 16322 2860 01       		.byte	0x1
 16323 2861 B409     		.2byte	0x9b4
 16324 2863 11010000 		.4byte	0x111
 16325 2867 02       		.uleb128 0x2
 16326 2868 91       		.byte	0x91
 16327 2869 6C       		.sleb128 -20
 16328 286a 2B       		.uleb128 0x2b
 16329 286b 09200000 		.4byte	.LASF478
 16330 286f 01       		.byte	0x1
 16331 2870 B609     		.2byte	0x9b6
 16332 2872 B70F0000 		.4byte	0xfb7
 16333 2876 02       		.uleb128 0x2
 16334 2877 91       		.byte	0x91
 16335 2878 74       		.sleb128 -12
 16336 2879 00       		.byte	0
 16337 287a 29       		.uleb128 0x29
 16338 287b 341A0000 		.4byte	.LASF567
 16339 287f 01       		.byte	0x1
 16340 2880 BF09     		.2byte	0x9bf
 16341 2882 00000000 		.4byte	.LFB114
 16342 2886 08020000 		.4byte	.LFE114-.LFB114
 16343 288a 01       		.uleb128 0x1
 16344 288b 9C       		.byte	0x9c
 16345 288c C8280000 		.4byte	0x28c8
 16346 2890 2A       		.uleb128 0x2a
ARM GAS  C:\Users\RECEPC~1\AppData\Local\Temp\ccvxjDo6.s 			page 337


 16347 2891 6B240000 		.4byte	.LASF483
 16348 2895 01       		.byte	0x1
 16349 2896 BF09     		.2byte	0x9bf
 16350 2898 11010000 		.4byte	0x111
 16351 289c 02       		.uleb128 0x2
 16352 289d 91       		.byte	0x91
 16353 289e 64       		.sleb128 -28
 16354 289f 2B       		.uleb128 0x2b
 16355 28a0 09200000 		.4byte	.LASF478
 16356 28a4 01       		.byte	0x1
 16357 28a5 C109     		.2byte	0x9c1
 16358 28a7 B70F0000 		.4byte	0xfb7
 16359 28ab 02       		.uleb128 0x2
 16360 28ac 91       		.byte	0x91
 16361 28ad 6C       		.sleb128 -20
 16362 28ae 26       		.uleb128 0x26
 16363 28af 3C000000 		.4byte	.LBB56
 16364 28b3 BE010000 		.4byte	.LBE56-.LBB56
 16365 28b7 2B       		.uleb128 0x2b
 16366 28b8 23130000 		.4byte	.LASF535
 16367 28bc 01       		.byte	0x1
 16368 28bd CA09     		.2byte	0x9ca
 16369 28bf 7D020000 		.4byte	0x27d
 16370 28c3 02       		.uleb128 0x2
 16371 28c4 91       		.byte	0x91
 16372 28c5 68       		.sleb128 -24
 16373 28c6 00       		.byte	0
 16374 28c7 00       		.byte	0
 16375 28c8 2C       		.uleb128 0x2c
 16376 28c9 150E0000 		.4byte	.LASF568
 16377 28cd 01       		.byte	0x1
 16378 28ce 150A     		.2byte	0xa15
 16379 28d0 00000000 		.4byte	.LFB115
 16380 28d4 64010000 		.4byte	.LFE115-.LFB115
 16381 28d8 01       		.uleb128 0x1
 16382 28d9 9C       		.byte	0x9c
 16383 28da 39290000 		.4byte	0x2939
 16384 28de 2A       		.uleb128 0x2a
 16385 28df DD0F0000 		.4byte	.LASF544
 16386 28e3 01       		.byte	0x1
 16387 28e4 150A     		.2byte	0xa15
 16388 28e6 3B010000 		.4byte	0x13b
 16389 28ea 02       		.uleb128 0x2
 16390 28eb 91       		.byte	0x91
 16391 28ec 6C       		.sleb128 -20
 16392 28ed 2A       		.uleb128 0x2a
 16393 28ee 201B0000 		.4byte	.LASF545
 16394 28f2 01       		.byte	0x1
 16395 28f3 150A     		.2byte	0xa15
 16396 28f5 97000000 		.4byte	0x97
 16397 28f9 02       		.uleb128 0x2
 16398 28fa 91       		.byte	0x91
 16399 28fb 6B       		.sleb128 -21
 16400 28fc 2B       		.uleb128 0x2b
 16401 28fd 2B1B0000 		.4byte	.LASF569
 16402 2901 01       		.byte	0x1
 16403 2902 170A     		.2byte	0xa17
ARM GAS  C:\Users\RECEPC~1\AppData\Local\Temp\ccvxjDo6.s 			page 338


 16404 2904 97000000 		.4byte	0x97
 16405 2908 02       		.uleb128 0x2
 16406 2909 91       		.byte	0x91
 16407 290a 77       		.sleb128 -9
 16408 290b 2B       		.uleb128 0x2b
 16409 290c 4A110000 		.4byte	.LASF570
 16410 2910 01       		.byte	0x1
 16411 2911 180A     		.2byte	0xa18
 16412 2913 54020000 		.4byte	0x254
 16413 2917 02       		.uleb128 0x2
 16414 2918 91       		.byte	0x91
 16415 2919 76       		.sleb128 -10
 16416 291a 2B       		.uleb128 0x2b
 16417 291b 84260000 		.4byte	.LASF491
 16418 291f 01       		.byte	0x1
 16419 2920 1A0A     		.2byte	0xa1a
 16420 2922 BB000000 		.4byte	0xbb
 16421 2926 02       		.uleb128 0x2
 16422 2927 91       		.byte	0x91
 16423 2928 75       		.sleb128 -11
 16424 2929 2B       		.uleb128 0x2b
 16425 292a 37140000 		.4byte	.LASF571
 16426 292e 01       		.byte	0x1
 16427 292f 2A0A     		.2byte	0xa2a
 16428 2931 BB000000 		.4byte	0xbb
 16429 2935 02       		.uleb128 0x2
 16430 2936 91       		.byte	0x91
 16431 2937 74       		.sleb128 -12
 16432 2938 00       		.byte	0
 16433 2939 2C       		.uleb128 0x2c
 16434 293a 86270000 		.4byte	.LASF572
 16435 293e 01       		.byte	0x1
 16436 293f 4D0A     		.2byte	0xa4d
 16437 2941 00000000 		.4byte	.LFB116
 16438 2945 64010000 		.4byte	.LFE116-.LFB116
 16439 2949 01       		.uleb128 0x1
 16440 294a 9C       		.byte	0x9c
 16441 294b AA290000 		.4byte	0x29aa
 16442 294f 2A       		.uleb128 0x2a
 16443 2950 DD0F0000 		.4byte	.LASF544
 16444 2954 01       		.byte	0x1
 16445 2955 4D0A     		.2byte	0xa4d
 16446 2957 3B010000 		.4byte	0x13b
 16447 295b 02       		.uleb128 0x2
 16448 295c 91       		.byte	0x91
 16449 295d 6C       		.sleb128 -20
 16450 295e 2A       		.uleb128 0x2a
 16451 295f 201B0000 		.4byte	.LASF545
 16452 2963 01       		.byte	0x1
 16453 2964 4D0A     		.2byte	0xa4d
 16454 2966 97000000 		.4byte	0x97
 16455 296a 02       		.uleb128 0x2
 16456 296b 91       		.byte	0x91
 16457 296c 6B       		.sleb128 -21
 16458 296d 2B       		.uleb128 0x2b
 16459 296e 2B1B0000 		.4byte	.LASF569
 16460 2972 01       		.byte	0x1
ARM GAS  C:\Users\RECEPC~1\AppData\Local\Temp\ccvxjDo6.s 			page 339


 16461 2973 4F0A     		.2byte	0xa4f
 16462 2975 97000000 		.4byte	0x97
 16463 2979 02       		.uleb128 0x2
 16464 297a 91       		.byte	0x91
 16465 297b 77       		.sleb128 -9
 16466 297c 2B       		.uleb128 0x2b
 16467 297d 4A110000 		.4byte	.LASF570
 16468 2981 01       		.byte	0x1
 16469 2982 500A     		.2byte	0xa50
 16470 2984 54020000 		.4byte	0x254
 16471 2988 02       		.uleb128 0x2
 16472 2989 91       		.byte	0x91
 16473 298a 76       		.sleb128 -10
 16474 298b 2B       		.uleb128 0x2b
 16475 298c 84260000 		.4byte	.LASF491
 16476 2990 01       		.byte	0x1
 16477 2991 520A     		.2byte	0xa52
 16478 2993 BB000000 		.4byte	0xbb
 16479 2997 02       		.uleb128 0x2
 16480 2998 91       		.byte	0x91
 16481 2999 75       		.sleb128 -11
 16482 299a 2B       		.uleb128 0x2b
 16483 299b 37140000 		.4byte	.LASF571
 16484 299f 01       		.byte	0x1
 16485 29a0 620A     		.2byte	0xa62
 16486 29a2 BB000000 		.4byte	0xbb
 16487 29a6 02       		.uleb128 0x2
 16488 29a7 91       		.byte	0x91
 16489 29a8 74       		.sleb128 -12
 16490 29a9 00       		.byte	0
 16491 29aa 2F       		.uleb128 0x2f
 16492 29ab 97250000 		.4byte	.LASF573
 16493 29af 01       		.byte	0x1
 16494 29b0 8B0A     		.2byte	0xa8b
 16495 29b2 E1000000 		.4byte	0xe1
 16496 29b6 00000000 		.4byte	.LFB117
 16497 29ba 48000000 		.4byte	.LFE117-.LFB117
 16498 29be 01       		.uleb128 0x1
 16499 29bf 9C       		.byte	0x9c
 16500 29c0 F2290000 		.4byte	0x29f2
 16501 29c4 2A       		.uleb128 0x2a
 16502 29c5 1E280000 		.4byte	.LASF574
 16503 29c9 01       		.byte	0x1
 16504 29ca 8B0A     		.2byte	0xa8b
 16505 29cc E1000000 		.4byte	0xe1
 16506 29d0 02       		.uleb128 0x2
 16507 29d1 91       		.byte	0x91
 16508 29d2 6F       		.sleb128 -17
 16509 29d3 2B       		.uleb128 0x2b
 16510 29d4 C8160000 		.4byte	.LASF546
 16511 29d8 01       		.byte	0x1
 16512 29d9 8D0A     		.2byte	0xa8d
 16513 29db E1000000 		.4byte	0xe1
 16514 29df 02       		.uleb128 0x2
 16515 29e0 91       		.byte	0x91
 16516 29e1 77       		.sleb128 -9
 16517 29e2 2B       		.uleb128 0x2b
ARM GAS  C:\Users\RECEPC~1\AppData\Local\Temp\ccvxjDo6.s 			page 340


 16518 29e3 531C0000 		.4byte	.LASF575
 16519 29e7 01       		.byte	0x1
 16520 29e8 8E0A     		.2byte	0xa8e
 16521 29ea 7C070000 		.4byte	0x77c
 16522 29ee 02       		.uleb128 0x2
 16523 29ef 91       		.byte	0x91
 16524 29f0 70       		.sleb128 -16
 16525 29f1 00       		.byte	0
 16526 29f2 30       		.uleb128 0x30
 16527 29f3 B1190000 		.4byte	.LASF576
 16528 29f7 0F       		.byte	0xf
 16529 29f8 5506     		.2byte	0x655
 16530 29fa FE290000 		.4byte	0x29fe
 16531 29fe 06       		.uleb128 0x6
 16532 29ff 8C000000 		.4byte	0x8c
 16533 2a03 31       		.uleb128 0x31
 16534 2a04 AB120000 		.4byte	.LASF577
 16535 2a08 05       		.byte	0x5
 16536 2a09 52       		.byte	0x52
 16537 2a0a 97000000 		.4byte	0x97
 16538 2a0e 05       		.uleb128 0x5
 16539 2a0f 03       		.byte	0x3
 16540 2a10 00000000 		.4byte	HoseDispenser
 16541 2a14 30       		.uleb128 0x30
 16542 2a15 13060000 		.4byte	.LASF578
 16543 2a19 0A       		.byte	0xa
 16544 2a1a 5602     		.2byte	0x256
 16545 2a1c A5100000 		.4byte	0x10a5
 16546 2a20 0A       		.uleb128 0xa
 16547 2a21 630D0000 		.4byte	0xd63
 16548 2a25 302A0000 		.4byte	0x2a30
 16549 2a29 0B       		.uleb128 0xb
 16550 2a2a 0A010000 		.4byte	0x10a
 16551 2a2e 03       		.byte	0x3
 16552 2a2f 00       		.byte	0
 16553 2a30 30       		.uleb128 0x30
 16554 2a31 12130000 		.4byte	.LASF579
 16555 2a35 0A       		.byte	0xa
 16556 2a36 5702     		.2byte	0x257
 16557 2a38 202A0000 		.4byte	0x2a20
 16558 2a3c 30       		.uleb128 0x30
 16559 2a3d 27030000 		.4byte	.LASF580
 16560 2a41 0A       		.byte	0xa
 16561 2a42 5902     		.2byte	0x259
 16562 2a44 9B110000 		.4byte	0x119b
 16563 2a48 32       		.uleb128 0x32
 16564 2a49 91210000 		.4byte	.LASF581
 16565 2a4d 0D       		.byte	0xd
 16566 2a4e C3       		.byte	0xc3
 16567 2a4f 91140000 		.4byte	0x1491
 16568 2a53 32       		.uleb128 0x32
 16569 2a54 70210000 		.4byte	.LASF582
 16570 2a58 0E       		.byte	0xe
 16571 2a59 79       		.byte	0x79
 16572 2a5a BD140000 		.4byte	0x14bd
 16573 2a5e 31       		.uleb128 0x31
 16574 2a5f 74020000 		.4byte	.LASF583
ARM GAS  C:\Users\RECEPC~1\AppData\Local\Temp\ccvxjDo6.s 			page 341


 16575 2a63 01       		.byte	0x1
 16576 2a64 1F       		.byte	0x1f
 16577 2a65 97000000 		.4byte	0x97
 16578 2a69 05       		.uleb128 0x5
 16579 2a6a 03       		.byte	0x3
 16580 2a6b 00000000 		.4byte	errorCounter
 16581 2a6f 32       		.uleb128 0x32
 16582 2a70 511A0000 		.4byte	.LASF584
 16583 2a74 01       		.byte	0x1
 16584 2a75 23       		.byte	0x23
 16585 2a76 A7110000 		.4byte	0x11a7
 16586 2a7a 0A       		.uleb128 0xa
 16587 2a7b E1000000 		.4byte	0xe1
 16588 2a7f 902A0000 		.4byte	0x2a90
 16589 2a83 0B       		.uleb128 0xb
 16590 2a84 0A010000 		.4byte	0x10a
 16591 2a88 0F       		.byte	0xf
 16592 2a89 0B       		.uleb128 0xb
 16593 2a8a 0A010000 		.4byte	0x10a
 16594 2a8e 01       		.byte	0x1
 16595 2a8f 00       		.byte	0
 16596 2a90 33       		.uleb128 0x33
 16597 2a91 891A0000 		.4byte	.LASF585
 16598 2a95 01       		.byte	0x1
 16599 2a96 830A     		.2byte	0xa83
 16600 2a98 7A2A0000 		.4byte	0x2a7a
 16601 2a9c 05       		.uleb128 0x5
 16602 2a9d 03       		.byte	0x3
 16603 2a9e 00000000 		.4byte	_g_sfcharmap
 16604 2aa2 00       		.byte	0
 16605              		.section	.debug_abbrev,"",%progbits
 16606              	.Ldebug_abbrev0:
 16607 0000 01       		.uleb128 0x1
 16608 0001 11       		.uleb128 0x11
 16609 0002 01       		.byte	0x1
 16610 0003 25       		.uleb128 0x25
 16611 0004 0E       		.uleb128 0xe
 16612 0005 13       		.uleb128 0x13
 16613 0006 0B       		.uleb128 0xb
 16614 0007 03       		.uleb128 0x3
 16615 0008 0E       		.uleb128 0xe
 16616 0009 1B       		.uleb128 0x1b
 16617 000a 0E       		.uleb128 0xe
 16618 000b 55       		.uleb128 0x55
 16619 000c 17       		.uleb128 0x17
 16620 000d 11       		.uleb128 0x11
 16621 000e 01       		.uleb128 0x1
 16622 000f 10       		.uleb128 0x10
 16623 0010 17       		.uleb128 0x17
 16624 0011 00       		.byte	0
 16625 0012 00       		.byte	0
 16626 0013 02       		.uleb128 0x2
 16627 0014 24       		.uleb128 0x24
 16628 0015 00       		.byte	0
 16629 0016 0B       		.uleb128 0xb
 16630 0017 0B       		.uleb128 0xb
 16631 0018 3E       		.uleb128 0x3e
ARM GAS  C:\Users\RECEPC~1\AppData\Local\Temp\ccvxjDo6.s 			page 342


 16632 0019 0B       		.uleb128 0xb
 16633 001a 03       		.uleb128 0x3
 16634 001b 0E       		.uleb128 0xe
 16635 001c 00       		.byte	0
 16636 001d 00       		.byte	0
 16637 001e 03       		.uleb128 0x3
 16638 001f 16       		.uleb128 0x16
 16639 0020 00       		.byte	0
 16640 0021 03       		.uleb128 0x3
 16641 0022 0E       		.uleb128 0xe
 16642 0023 3A       		.uleb128 0x3a
 16643 0024 0B       		.uleb128 0xb
 16644 0025 3B       		.uleb128 0x3b
 16645 0026 0B       		.uleb128 0xb
 16646 0027 49       		.uleb128 0x49
 16647 0028 13       		.uleb128 0x13
 16648 0029 00       		.byte	0
 16649 002a 00       		.byte	0
 16650 002b 04       		.uleb128 0x4
 16651 002c 24       		.uleb128 0x24
 16652 002d 00       		.byte	0
 16653 002e 0B       		.uleb128 0xb
 16654 002f 0B       		.uleb128 0xb
 16655 0030 3E       		.uleb128 0x3e
 16656 0031 0B       		.uleb128 0xb
 16657 0032 03       		.uleb128 0x3
 16658 0033 08       		.uleb128 0x8
 16659 0034 00       		.byte	0
 16660 0035 00       		.byte	0
 16661 0036 05       		.uleb128 0x5
 16662 0037 16       		.uleb128 0x16
 16663 0038 00       		.byte	0
 16664 0039 03       		.uleb128 0x3
 16665 003a 0E       		.uleb128 0xe
 16666 003b 3A       		.uleb128 0x3a
 16667 003c 0B       		.uleb128 0xb
 16668 003d 3B       		.uleb128 0x3b
 16669 003e 05       		.uleb128 0x5
 16670 003f 49       		.uleb128 0x49
 16671 0040 13       		.uleb128 0x13
 16672 0041 00       		.byte	0
 16673 0042 00       		.byte	0
 16674 0043 06       		.uleb128 0x6
 16675 0044 35       		.uleb128 0x35
 16676 0045 00       		.byte	0
 16677 0046 49       		.uleb128 0x49
 16678 0047 13       		.uleb128 0x13
 16679 0048 00       		.byte	0
 16680 0049 00       		.byte	0
 16681 004a 07       		.uleb128 0x7
 16682 004b 0F       		.uleb128 0xf
 16683 004c 00       		.byte	0
 16684 004d 0B       		.uleb128 0xb
 16685 004e 0B       		.uleb128 0xb
 16686 004f 49       		.uleb128 0x49
 16687 0050 13       		.uleb128 0x13
 16688 0051 00       		.byte	0
ARM GAS  C:\Users\RECEPC~1\AppData\Local\Temp\ccvxjDo6.s 			page 343


 16689 0052 00       		.byte	0
 16690 0053 08       		.uleb128 0x8
 16691 0054 15       		.uleb128 0x15
 16692 0055 00       		.byte	0
 16693 0056 27       		.uleb128 0x27
 16694 0057 19       		.uleb128 0x19
 16695 0058 00       		.byte	0
 16696 0059 00       		.byte	0
 16697 005a 09       		.uleb128 0x9
 16698 005b 0F       		.uleb128 0xf
 16699 005c 00       		.byte	0
 16700 005d 0B       		.uleb128 0xb
 16701 005e 0B       		.uleb128 0xb
 16702 005f 00       		.byte	0
 16703 0060 00       		.byte	0
 16704 0061 0A       		.uleb128 0xa
 16705 0062 01       		.uleb128 0x1
 16706 0063 01       		.byte	0x1
 16707 0064 49       		.uleb128 0x49
 16708 0065 13       		.uleb128 0x13
 16709 0066 01       		.uleb128 0x1
 16710 0067 13       		.uleb128 0x13
 16711 0068 00       		.byte	0
 16712 0069 00       		.byte	0
 16713 006a 0B       		.uleb128 0xb
 16714 006b 21       		.uleb128 0x21
 16715 006c 00       		.byte	0
 16716 006d 49       		.uleb128 0x49
 16717 006e 13       		.uleb128 0x13
 16718 006f 2F       		.uleb128 0x2f
 16719 0070 0B       		.uleb128 0xb
 16720 0071 00       		.byte	0
 16721 0072 00       		.byte	0
 16722 0073 0C       		.uleb128 0xc
 16723 0074 04       		.uleb128 0x4
 16724 0075 01       		.byte	0x1
 16725 0076 03       		.uleb128 0x3
 16726 0077 0E       		.uleb128 0xe
 16727 0078 0B       		.uleb128 0xb
 16728 0079 0B       		.uleb128 0xb
 16729 007a 3A       		.uleb128 0x3a
 16730 007b 0B       		.uleb128 0xb
 16731 007c 3B       		.uleb128 0x3b
 16732 007d 0B       		.uleb128 0xb
 16733 007e 01       		.uleb128 0x1
 16734 007f 13       		.uleb128 0x13
 16735 0080 00       		.byte	0
 16736 0081 00       		.byte	0
 16737 0082 0D       		.uleb128 0xd
 16738 0083 28       		.uleb128 0x28
 16739 0084 00       		.byte	0
 16740 0085 03       		.uleb128 0x3
 16741 0086 0E       		.uleb128 0xe
 16742 0087 1C       		.uleb128 0x1c
 16743 0088 0D       		.uleb128 0xd
 16744 0089 00       		.byte	0
 16745 008a 00       		.byte	0
ARM GAS  C:\Users\RECEPC~1\AppData\Local\Temp\ccvxjDo6.s 			page 344


 16746 008b 0E       		.uleb128 0xe
 16747 008c 13       		.uleb128 0x13
 16748 008d 01       		.byte	0x1
 16749 008e 03       		.uleb128 0x3
 16750 008f 0E       		.uleb128 0xe
 16751 0090 0B       		.uleb128 0xb
 16752 0091 05       		.uleb128 0x5
 16753 0092 3A       		.uleb128 0x3a
 16754 0093 0B       		.uleb128 0xb
 16755 0094 3B       		.uleb128 0x3b
 16756 0095 0B       		.uleb128 0xb
 16757 0096 01       		.uleb128 0x1
 16758 0097 13       		.uleb128 0x13
 16759 0098 00       		.byte	0
 16760 0099 00       		.byte	0
 16761 009a 0F       		.uleb128 0xf
 16762 009b 0D       		.uleb128 0xd
 16763 009c 00       		.byte	0
 16764 009d 03       		.uleb128 0x3
 16765 009e 0E       		.uleb128 0xe
 16766 009f 3A       		.uleb128 0x3a
 16767 00a0 0B       		.uleb128 0xb
 16768 00a1 3B       		.uleb128 0x3b
 16769 00a2 0B       		.uleb128 0xb
 16770 00a3 49       		.uleb128 0x49
 16771 00a4 13       		.uleb128 0x13
 16772 00a5 38       		.uleb128 0x38
 16773 00a6 0B       		.uleb128 0xb
 16774 00a7 00       		.byte	0
 16775 00a8 00       		.byte	0
 16776 00a9 10       		.uleb128 0x10
 16777 00aa 0D       		.uleb128 0xd
 16778 00ab 00       		.byte	0
 16779 00ac 03       		.uleb128 0x3
 16780 00ad 0E       		.uleb128 0xe
 16781 00ae 3A       		.uleb128 0x3a
 16782 00af 0B       		.uleb128 0xb
 16783 00b0 3B       		.uleb128 0x3b
 16784 00b1 0B       		.uleb128 0xb
 16785 00b2 49       		.uleb128 0x49
 16786 00b3 13       		.uleb128 0x13
 16787 00b4 38       		.uleb128 0x38
 16788 00b5 05       		.uleb128 0x5
 16789 00b6 00       		.byte	0
 16790 00b7 00       		.byte	0
 16791 00b8 11       		.uleb128 0x11
 16792 00b9 21       		.uleb128 0x21
 16793 00ba 00       		.byte	0
 16794 00bb 49       		.uleb128 0x49
 16795 00bc 13       		.uleb128 0x13
 16796 00bd 2F       		.uleb128 0x2f
 16797 00be 05       		.uleb128 0x5
 16798 00bf 00       		.byte	0
 16799 00c0 00       		.byte	0
 16800 00c1 12       		.uleb128 0x12
 16801 00c2 15       		.uleb128 0x15
 16802 00c3 01       		.byte	0x1
ARM GAS  C:\Users\RECEPC~1\AppData\Local\Temp\ccvxjDo6.s 			page 345


 16803 00c4 27       		.uleb128 0x27
 16804 00c5 19       		.uleb128 0x19
 16805 00c6 01       		.uleb128 0x1
 16806 00c7 13       		.uleb128 0x13
 16807 00c8 00       		.byte	0
 16808 00c9 00       		.byte	0
 16809 00ca 13       		.uleb128 0x13
 16810 00cb 05       		.uleb128 0x5
 16811 00cc 00       		.byte	0
 16812 00cd 49       		.uleb128 0x49
 16813 00ce 13       		.uleb128 0x13
 16814 00cf 00       		.byte	0
 16815 00d0 00       		.byte	0
 16816 00d1 14       		.uleb128 0x14
 16817 00d2 13       		.uleb128 0x13
 16818 00d3 01       		.byte	0x1
 16819 00d4 03       		.uleb128 0x3
 16820 00d5 0E       		.uleb128 0xe
 16821 00d6 0B       		.uleb128 0xb
 16822 00d7 0B       		.uleb128 0xb
 16823 00d8 3A       		.uleb128 0x3a
 16824 00d9 0B       		.uleb128 0xb
 16825 00da 3B       		.uleb128 0x3b
 16826 00db 0B       		.uleb128 0xb
 16827 00dc 01       		.uleb128 0x1
 16828 00dd 13       		.uleb128 0x13
 16829 00de 00       		.byte	0
 16830 00df 00       		.byte	0
 16831 00e0 15       		.uleb128 0x15
 16832 00e1 15       		.uleb128 0x15
 16833 00e2 00       		.byte	0
 16834 00e3 27       		.uleb128 0x27
 16835 00e4 19       		.uleb128 0x19
 16836 00e5 49       		.uleb128 0x49
 16837 00e6 13       		.uleb128 0x13
 16838 00e7 00       		.byte	0
 16839 00e8 00       		.byte	0
 16840 00e9 16       		.uleb128 0x16
 16841 00ea 26       		.uleb128 0x26
 16842 00eb 00       		.byte	0
 16843 00ec 49       		.uleb128 0x49
 16844 00ed 13       		.uleb128 0x13
 16845 00ee 00       		.byte	0
 16846 00ef 00       		.byte	0
 16847 00f0 17       		.uleb128 0x17
 16848 00f1 04       		.uleb128 0x4
 16849 00f2 01       		.byte	0x1
 16850 00f3 0B       		.uleb128 0xb
 16851 00f4 0B       		.uleb128 0xb
 16852 00f5 3A       		.uleb128 0x3a
 16853 00f6 0B       		.uleb128 0xb
 16854 00f7 3B       		.uleb128 0x3b
 16855 00f8 0B       		.uleb128 0xb
 16856 00f9 01       		.uleb128 0x1
 16857 00fa 13       		.uleb128 0x13
 16858 00fb 00       		.byte	0
 16859 00fc 00       		.byte	0
ARM GAS  C:\Users\RECEPC~1\AppData\Local\Temp\ccvxjDo6.s 			page 346


 16860 00fd 18       		.uleb128 0x18
 16861 00fe 15       		.uleb128 0x15
 16862 00ff 01       		.byte	0x1
 16863 0100 27       		.uleb128 0x27
 16864 0101 19       		.uleb128 0x19
 16865 0102 49       		.uleb128 0x49
 16866 0103 13       		.uleb128 0x13
 16867 0104 01       		.uleb128 0x1
 16868 0105 13       		.uleb128 0x13
 16869 0106 00       		.byte	0
 16870 0107 00       		.byte	0
 16871 0108 19       		.uleb128 0x19
 16872 0109 28       		.uleb128 0x28
 16873 010a 00       		.byte	0
 16874 010b 03       		.uleb128 0x3
 16875 010c 08       		.uleb128 0x8
 16876 010d 1C       		.uleb128 0x1c
 16877 010e 0D       		.uleb128 0xd
 16878 010f 00       		.byte	0
 16879 0110 00       		.byte	0
 16880 0111 1A       		.uleb128 0x1a
 16881 0112 04       		.uleb128 0x4
 16882 0113 01       		.byte	0x1
 16883 0114 03       		.uleb128 0x3
 16884 0115 0E       		.uleb128 0xe
 16885 0116 0B       		.uleb128 0xb
 16886 0117 0B       		.uleb128 0xb
 16887 0118 3A       		.uleb128 0x3a
 16888 0119 0B       		.uleb128 0xb
 16889 011a 3B       		.uleb128 0x3b
 16890 011b 05       		.uleb128 0x5
 16891 011c 01       		.uleb128 0x1
 16892 011d 13       		.uleb128 0x13
 16893 011e 00       		.byte	0
 16894 011f 00       		.byte	0
 16895 0120 1B       		.uleb128 0x1b
 16896 0121 13       		.uleb128 0x13
 16897 0122 01       		.byte	0x1
 16898 0123 0B       		.uleb128 0xb
 16899 0124 05       		.uleb128 0x5
 16900 0125 3A       		.uleb128 0x3a
 16901 0126 0B       		.uleb128 0xb
 16902 0127 3B       		.uleb128 0x3b
 16903 0128 05       		.uleb128 0x5
 16904 0129 01       		.uleb128 0x1
 16905 012a 13       		.uleb128 0x13
 16906 012b 00       		.byte	0
 16907 012c 00       		.byte	0
 16908 012d 1C       		.uleb128 0x1c
 16909 012e 0D       		.uleb128 0xd
 16910 012f 00       		.byte	0
 16911 0130 03       		.uleb128 0x3
 16912 0131 0E       		.uleb128 0xe
 16913 0132 3A       		.uleb128 0x3a
 16914 0133 0B       		.uleb128 0xb
 16915 0134 3B       		.uleb128 0x3b
 16916 0135 05       		.uleb128 0x5
ARM GAS  C:\Users\RECEPC~1\AppData\Local\Temp\ccvxjDo6.s 			page 347


 16917 0136 49       		.uleb128 0x49
 16918 0137 13       		.uleb128 0x13
 16919 0138 38       		.uleb128 0x38
 16920 0139 0B       		.uleb128 0xb
 16921 013a 00       		.byte	0
 16922 013b 00       		.byte	0
 16923 013c 1D       		.uleb128 0x1d
 16924 013d 0D       		.uleb128 0xd
 16925 013e 00       		.byte	0
 16926 013f 03       		.uleb128 0x3
 16927 0140 0E       		.uleb128 0xe
 16928 0141 3A       		.uleb128 0x3a
 16929 0142 0B       		.uleb128 0xb
 16930 0143 3B       		.uleb128 0x3b
 16931 0144 05       		.uleb128 0x5
 16932 0145 49       		.uleb128 0x49
 16933 0146 13       		.uleb128 0x13
 16934 0147 38       		.uleb128 0x38
 16935 0148 05       		.uleb128 0x5
 16936 0149 00       		.byte	0
 16937 014a 00       		.byte	0
 16938 014b 1E       		.uleb128 0x1e
 16939 014c 13       		.uleb128 0x13
 16940 014d 01       		.byte	0x1
 16941 014e 0B       		.uleb128 0xb
 16942 014f 0B       		.uleb128 0xb
 16943 0150 3A       		.uleb128 0x3a
 16944 0151 0B       		.uleb128 0xb
 16945 0152 3B       		.uleb128 0x3b
 16946 0153 05       		.uleb128 0x5
 16947 0154 01       		.uleb128 0x1
 16948 0155 13       		.uleb128 0x13
 16949 0156 00       		.byte	0
 16950 0157 00       		.byte	0
 16951 0158 1F       		.uleb128 0x1f
 16952 0159 13       		.uleb128 0x13
 16953 015a 01       		.byte	0x1
 16954 015b 03       		.uleb128 0x3
 16955 015c 0E       		.uleb128 0xe
 16956 015d 0B       		.uleb128 0xb
 16957 015e 05       		.uleb128 0x5
 16958 015f 3A       		.uleb128 0x3a
 16959 0160 0B       		.uleb128 0xb
 16960 0161 3B       		.uleb128 0x3b
 16961 0162 05       		.uleb128 0x5
 16962 0163 01       		.uleb128 0x1
 16963 0164 13       		.uleb128 0x13
 16964 0165 00       		.byte	0
 16965 0166 00       		.byte	0
 16966 0167 20       		.uleb128 0x20
 16967 0168 13       		.uleb128 0x13
 16968 0169 01       		.byte	0x1
 16969 016a 03       		.uleb128 0x3
 16970 016b 0E       		.uleb128 0xe
 16971 016c 0B       		.uleb128 0xb
 16972 016d 0B       		.uleb128 0xb
 16973 016e 3A       		.uleb128 0x3a
ARM GAS  C:\Users\RECEPC~1\AppData\Local\Temp\ccvxjDo6.s 			page 348


 16974 016f 0B       		.uleb128 0xb
 16975 0170 3B       		.uleb128 0x3b
 16976 0171 05       		.uleb128 0x5
 16977 0172 01       		.uleb128 0x1
 16978 0173 13       		.uleb128 0x13
 16979 0174 00       		.byte	0
 16980 0175 00       		.byte	0
 16981 0176 21       		.uleb128 0x21
 16982 0177 0D       		.uleb128 0xd
 16983 0178 00       		.byte	0
 16984 0179 03       		.uleb128 0x3
 16985 017a 0E       		.uleb128 0xe
 16986 017b 3A       		.uleb128 0x3a
 16987 017c 0B       		.uleb128 0xb
 16988 017d 3B       		.uleb128 0x3b
 16989 017e 05       		.uleb128 0x5
 16990 017f 49       		.uleb128 0x49
 16991 0180 13       		.uleb128 0x13
 16992 0181 0B       		.uleb128 0xb
 16993 0182 0B       		.uleb128 0xb
 16994 0183 0D       		.uleb128 0xd
 16995 0184 0B       		.uleb128 0xb
 16996 0185 0C       		.uleb128 0xc
 16997 0186 0B       		.uleb128 0xb
 16998 0187 38       		.uleb128 0x38
 16999 0188 0B       		.uleb128 0xb
 17000 0189 00       		.byte	0
 17001 018a 00       		.byte	0
 17002 018b 22       		.uleb128 0x22
 17003 018c 13       		.uleb128 0x13
 17004 018d 01       		.byte	0x1
 17005 018e 0B       		.uleb128 0xb
 17006 018f 0B       		.uleb128 0xb
 17007 0190 3A       		.uleb128 0x3a
 17008 0191 0B       		.uleb128 0xb
 17009 0192 3B       		.uleb128 0x3b
 17010 0193 0B       		.uleb128 0xb
 17011 0194 01       		.uleb128 0x1
 17012 0195 13       		.uleb128 0x13
 17013 0196 00       		.byte	0
 17014 0197 00       		.byte	0
 17015 0198 23       		.uleb128 0x23
 17016 0199 2E       		.uleb128 0x2e
 17017 019a 01       		.byte	0x1
 17018 019b 3F       		.uleb128 0x3f
 17019 019c 19       		.uleb128 0x19
 17020 019d 03       		.uleb128 0x3
 17021 019e 0E       		.uleb128 0xe
 17022 019f 3A       		.uleb128 0x3a
 17023 01a0 0B       		.uleb128 0xb
 17024 01a1 3B       		.uleb128 0x3b
 17025 01a2 0B       		.uleb128 0xb
 17026 01a3 27       		.uleb128 0x27
 17027 01a4 19       		.uleb128 0x19
 17028 01a5 11       		.uleb128 0x11
 17029 01a6 01       		.uleb128 0x1
 17030 01a7 12       		.uleb128 0x12
ARM GAS  C:\Users\RECEPC~1\AppData\Local\Temp\ccvxjDo6.s 			page 349


 17031 01a8 06       		.uleb128 0x6
 17032 01a9 40       		.uleb128 0x40
 17033 01aa 18       		.uleb128 0x18
 17034 01ab 9642     		.uleb128 0x2116
 17035 01ad 19       		.uleb128 0x19
 17036 01ae 01       		.uleb128 0x1
 17037 01af 13       		.uleb128 0x13
 17038 01b0 00       		.byte	0
 17039 01b1 00       		.byte	0
 17040 01b2 24       		.uleb128 0x24
 17041 01b3 05       		.uleb128 0x5
 17042 01b4 00       		.byte	0
 17043 01b5 03       		.uleb128 0x3
 17044 01b6 0E       		.uleb128 0xe
 17045 01b7 3A       		.uleb128 0x3a
 17046 01b8 0B       		.uleb128 0xb
 17047 01b9 3B       		.uleb128 0x3b
 17048 01ba 0B       		.uleb128 0xb
 17049 01bb 49       		.uleb128 0x49
 17050 01bc 13       		.uleb128 0x13
 17051 01bd 02       		.uleb128 0x2
 17052 01be 18       		.uleb128 0x18
 17053 01bf 00       		.byte	0
 17054 01c0 00       		.byte	0
 17055 01c1 25       		.uleb128 0x25
 17056 01c2 34       		.uleb128 0x34
 17057 01c3 00       		.byte	0
 17058 01c4 03       		.uleb128 0x3
 17059 01c5 0E       		.uleb128 0xe
 17060 01c6 3A       		.uleb128 0x3a
 17061 01c7 0B       		.uleb128 0xb
 17062 01c8 3B       		.uleb128 0x3b
 17063 01c9 0B       		.uleb128 0xb
 17064 01ca 49       		.uleb128 0x49
 17065 01cb 13       		.uleb128 0x13
 17066 01cc 02       		.uleb128 0x2
 17067 01cd 18       		.uleb128 0x18
 17068 01ce 00       		.byte	0
 17069 01cf 00       		.byte	0
 17070 01d0 26       		.uleb128 0x26
 17071 01d1 0B       		.uleb128 0xb
 17072 01d2 01       		.byte	0x1
 17073 01d3 11       		.uleb128 0x11
 17074 01d4 01       		.uleb128 0x1
 17075 01d5 12       		.uleb128 0x12
 17076 01d6 06       		.uleb128 0x6
 17077 01d7 00       		.byte	0
 17078 01d8 00       		.byte	0
 17079 01d9 27       		.uleb128 0x27
 17080 01da 2E       		.uleb128 0x2e
 17081 01db 01       		.byte	0x1
 17082 01dc 3F       		.uleb128 0x3f
 17083 01dd 19       		.uleb128 0x19
 17084 01de 03       		.uleb128 0x3
 17085 01df 0E       		.uleb128 0xe
 17086 01e0 3A       		.uleb128 0x3a
 17087 01e1 0B       		.uleb128 0xb
ARM GAS  C:\Users\RECEPC~1\AppData\Local\Temp\ccvxjDo6.s 			page 350


 17088 01e2 3B       		.uleb128 0x3b
 17089 01e3 0B       		.uleb128 0xb
 17090 01e4 27       		.uleb128 0x27
 17091 01e5 19       		.uleb128 0x19
 17092 01e6 11       		.uleb128 0x11
 17093 01e7 01       		.uleb128 0x1
 17094 01e8 12       		.uleb128 0x12
 17095 01e9 06       		.uleb128 0x6
 17096 01ea 40       		.uleb128 0x40
 17097 01eb 18       		.uleb128 0x18
 17098 01ec 9742     		.uleb128 0x2117
 17099 01ee 19       		.uleb128 0x19
 17100 01ef 01       		.uleb128 0x1
 17101 01f0 13       		.uleb128 0x13
 17102 01f1 00       		.byte	0
 17103 01f2 00       		.byte	0
 17104 01f3 28       		.uleb128 0x28
 17105 01f4 34       		.uleb128 0x34
 17106 01f5 00       		.byte	0
 17107 01f6 03       		.uleb128 0x3
 17108 01f7 08       		.uleb128 0x8
 17109 01f8 3A       		.uleb128 0x3a
 17110 01f9 0B       		.uleb128 0xb
 17111 01fa 3B       		.uleb128 0x3b
 17112 01fb 05       		.uleb128 0x5
 17113 01fc 49       		.uleb128 0x49
 17114 01fd 13       		.uleb128 0x13
 17115 01fe 02       		.uleb128 0x2
 17116 01ff 18       		.uleb128 0x18
 17117 0200 00       		.byte	0
 17118 0201 00       		.byte	0
 17119 0202 29       		.uleb128 0x29
 17120 0203 2E       		.uleb128 0x2e
 17121 0204 01       		.byte	0x1
 17122 0205 3F       		.uleb128 0x3f
 17123 0206 19       		.uleb128 0x19
 17124 0207 03       		.uleb128 0x3
 17125 0208 0E       		.uleb128 0xe
 17126 0209 3A       		.uleb128 0x3a
 17127 020a 0B       		.uleb128 0xb
 17128 020b 3B       		.uleb128 0x3b
 17129 020c 05       		.uleb128 0x5
 17130 020d 27       		.uleb128 0x27
 17131 020e 19       		.uleb128 0x19
 17132 020f 11       		.uleb128 0x11
 17133 0210 01       		.uleb128 0x1
 17134 0211 12       		.uleb128 0x12
 17135 0212 06       		.uleb128 0x6
 17136 0213 40       		.uleb128 0x40
 17137 0214 18       		.uleb128 0x18
 17138 0215 9642     		.uleb128 0x2116
 17139 0217 19       		.uleb128 0x19
 17140 0218 01       		.uleb128 0x1
 17141 0219 13       		.uleb128 0x13
 17142 021a 00       		.byte	0
 17143 021b 00       		.byte	0
 17144 021c 2A       		.uleb128 0x2a
ARM GAS  C:\Users\RECEPC~1\AppData\Local\Temp\ccvxjDo6.s 			page 351


 17145 021d 05       		.uleb128 0x5
 17146 021e 00       		.byte	0
 17147 021f 03       		.uleb128 0x3
 17148 0220 0E       		.uleb128 0xe
 17149 0221 3A       		.uleb128 0x3a
 17150 0222 0B       		.uleb128 0xb
 17151 0223 3B       		.uleb128 0x3b
 17152 0224 05       		.uleb128 0x5
 17153 0225 49       		.uleb128 0x49
 17154 0226 13       		.uleb128 0x13
 17155 0227 02       		.uleb128 0x2
 17156 0228 18       		.uleb128 0x18
 17157 0229 00       		.byte	0
 17158 022a 00       		.byte	0
 17159 022b 2B       		.uleb128 0x2b
 17160 022c 34       		.uleb128 0x34
 17161 022d 00       		.byte	0
 17162 022e 03       		.uleb128 0x3
 17163 022f 0E       		.uleb128 0xe
 17164 0230 3A       		.uleb128 0x3a
 17165 0231 0B       		.uleb128 0xb
 17166 0232 3B       		.uleb128 0x3b
 17167 0233 05       		.uleb128 0x5
 17168 0234 49       		.uleb128 0x49
 17169 0235 13       		.uleb128 0x13
 17170 0236 02       		.uleb128 0x2
 17171 0237 18       		.uleb128 0x18
 17172 0238 00       		.byte	0
 17173 0239 00       		.byte	0
 17174 023a 2C       		.uleb128 0x2c
 17175 023b 2E       		.uleb128 0x2e
 17176 023c 01       		.byte	0x1
 17177 023d 3F       		.uleb128 0x3f
 17178 023e 19       		.uleb128 0x19
 17179 023f 03       		.uleb128 0x3
 17180 0240 0E       		.uleb128 0xe
 17181 0241 3A       		.uleb128 0x3a
 17182 0242 0B       		.uleb128 0xb
 17183 0243 3B       		.uleb128 0x3b
 17184 0244 05       		.uleb128 0x5
 17185 0245 27       		.uleb128 0x27
 17186 0246 19       		.uleb128 0x19
 17187 0247 11       		.uleb128 0x11
 17188 0248 01       		.uleb128 0x1
 17189 0249 12       		.uleb128 0x12
 17190 024a 06       		.uleb128 0x6
 17191 024b 40       		.uleb128 0x40
 17192 024c 18       		.uleb128 0x18
 17193 024d 9742     		.uleb128 0x2117
 17194 024f 19       		.uleb128 0x19
 17195 0250 01       		.uleb128 0x1
 17196 0251 13       		.uleb128 0x13
 17197 0252 00       		.byte	0
 17198 0253 00       		.byte	0
 17199 0254 2D       		.uleb128 0x2d
 17200 0255 0B       		.uleb128 0xb
 17201 0256 01       		.byte	0x1
ARM GAS  C:\Users\RECEPC~1\AppData\Local\Temp\ccvxjDo6.s 			page 352


 17202 0257 11       		.uleb128 0x11
 17203 0258 01       		.uleb128 0x1
 17204 0259 12       		.uleb128 0x12
 17205 025a 06       		.uleb128 0x6
 17206 025b 01       		.uleb128 0x1
 17207 025c 13       		.uleb128 0x13
 17208 025d 00       		.byte	0
 17209 025e 00       		.byte	0
 17210 025f 2E       		.uleb128 0x2e
 17211 0260 2E       		.uleb128 0x2e
 17212 0261 01       		.byte	0x1
 17213 0262 3F       		.uleb128 0x3f
 17214 0263 19       		.uleb128 0x19
 17215 0264 03       		.uleb128 0x3
 17216 0265 0E       		.uleb128 0xe
 17217 0266 3A       		.uleb128 0x3a
 17218 0267 0B       		.uleb128 0xb
 17219 0268 3B       		.uleb128 0x3b
 17220 0269 05       		.uleb128 0x5
 17221 026a 27       		.uleb128 0x27
 17222 026b 19       		.uleb128 0x19
 17223 026c 49       		.uleb128 0x49
 17224 026d 13       		.uleb128 0x13
 17225 026e 11       		.uleb128 0x11
 17226 026f 01       		.uleb128 0x1
 17227 0270 12       		.uleb128 0x12
 17228 0271 06       		.uleb128 0x6
 17229 0272 40       		.uleb128 0x40
 17230 0273 18       		.uleb128 0x18
 17231 0274 9642     		.uleb128 0x2116
 17232 0276 19       		.uleb128 0x19
 17233 0277 01       		.uleb128 0x1
 17234 0278 13       		.uleb128 0x13
 17235 0279 00       		.byte	0
 17236 027a 00       		.byte	0
 17237 027b 2F       		.uleb128 0x2f
 17238 027c 2E       		.uleb128 0x2e
 17239 027d 01       		.byte	0x1
 17240 027e 3F       		.uleb128 0x3f
 17241 027f 19       		.uleb128 0x19
 17242 0280 03       		.uleb128 0x3
 17243 0281 0E       		.uleb128 0xe
 17244 0282 3A       		.uleb128 0x3a
 17245 0283 0B       		.uleb128 0xb
 17246 0284 3B       		.uleb128 0x3b
 17247 0285 05       		.uleb128 0x5
 17248 0286 27       		.uleb128 0x27
 17249 0287 19       		.uleb128 0x19
 17250 0288 49       		.uleb128 0x49
 17251 0289 13       		.uleb128 0x13
 17252 028a 11       		.uleb128 0x11
 17253 028b 01       		.uleb128 0x1
 17254 028c 12       		.uleb128 0x12
 17255 028d 06       		.uleb128 0x6
 17256 028e 40       		.uleb128 0x40
 17257 028f 18       		.uleb128 0x18
 17258 0290 9742     		.uleb128 0x2117
ARM GAS  C:\Users\RECEPC~1\AppData\Local\Temp\ccvxjDo6.s 			page 353


 17259 0292 19       		.uleb128 0x19
 17260 0293 01       		.uleb128 0x1
 17261 0294 13       		.uleb128 0x13
 17262 0295 00       		.byte	0
 17263 0296 00       		.byte	0
 17264 0297 30       		.uleb128 0x30
 17265 0298 34       		.uleb128 0x34
 17266 0299 00       		.byte	0
 17267 029a 03       		.uleb128 0x3
 17268 029b 0E       		.uleb128 0xe
 17269 029c 3A       		.uleb128 0x3a
 17270 029d 0B       		.uleb128 0xb
 17271 029e 3B       		.uleb128 0x3b
 17272 029f 05       		.uleb128 0x5
 17273 02a0 49       		.uleb128 0x49
 17274 02a1 13       		.uleb128 0x13
 17275 02a2 3F       		.uleb128 0x3f
 17276 02a3 19       		.uleb128 0x19
 17277 02a4 3C       		.uleb128 0x3c
 17278 02a5 19       		.uleb128 0x19
 17279 02a6 00       		.byte	0
 17280 02a7 00       		.byte	0
 17281 02a8 31       		.uleb128 0x31
 17282 02a9 34       		.uleb128 0x34
 17283 02aa 00       		.byte	0
 17284 02ab 03       		.uleb128 0x3
 17285 02ac 0E       		.uleb128 0xe
 17286 02ad 3A       		.uleb128 0x3a
 17287 02ae 0B       		.uleb128 0xb
 17288 02af 3B       		.uleb128 0x3b
 17289 02b0 0B       		.uleb128 0xb
 17290 02b1 49       		.uleb128 0x49
 17291 02b2 13       		.uleb128 0x13
 17292 02b3 3F       		.uleb128 0x3f
 17293 02b4 19       		.uleb128 0x19
 17294 02b5 02       		.uleb128 0x2
 17295 02b6 18       		.uleb128 0x18
 17296 02b7 00       		.byte	0
 17297 02b8 00       		.byte	0
 17298 02b9 32       		.uleb128 0x32
 17299 02ba 34       		.uleb128 0x34
 17300 02bb 00       		.byte	0
 17301 02bc 03       		.uleb128 0x3
 17302 02bd 0E       		.uleb128 0xe
 17303 02be 3A       		.uleb128 0x3a
 17304 02bf 0B       		.uleb128 0xb
 17305 02c0 3B       		.uleb128 0x3b
 17306 02c1 0B       		.uleb128 0xb
 17307 02c2 49       		.uleb128 0x49
 17308 02c3 13       		.uleb128 0x13
 17309 02c4 3F       		.uleb128 0x3f
 17310 02c5 19       		.uleb128 0x19
 17311 02c6 3C       		.uleb128 0x3c
 17312 02c7 19       		.uleb128 0x19
 17313 02c8 00       		.byte	0
 17314 02c9 00       		.byte	0
 17315 02ca 33       		.uleb128 0x33
ARM GAS  C:\Users\RECEPC~1\AppData\Local\Temp\ccvxjDo6.s 			page 354


 17316 02cb 34       		.uleb128 0x34
 17317 02cc 00       		.byte	0
 17318 02cd 03       		.uleb128 0x3
 17319 02ce 0E       		.uleb128 0xe
 17320 02cf 3A       		.uleb128 0x3a
 17321 02d0 0B       		.uleb128 0xb
 17322 02d1 3B       		.uleb128 0x3b
 17323 02d2 05       		.uleb128 0x5
 17324 02d3 49       		.uleb128 0x49
 17325 02d4 13       		.uleb128 0x13
 17326 02d5 3F       		.uleb128 0x3f
 17327 02d6 19       		.uleb128 0x19
 17328 02d7 02       		.uleb128 0x2
 17329 02d8 18       		.uleb128 0x18
 17330 02d9 00       		.byte	0
 17331 02da 00       		.byte	0
 17332 02db 00       		.byte	0
 17333              		.section	.debug_aranges,"",%progbits
 17334 0000 CC010000 		.4byte	0x1cc
 17335 0004 0200     		.2byte	0x2
 17336 0006 00000000 		.4byte	.Ldebug_info0
 17337 000a 04       		.byte	0x4
 17338 000b 00       		.byte	0
 17339 000c 0000     		.2byte	0
 17340 000e 0000     		.2byte	0
 17341 0010 00000000 		.4byte	.LFB63
 17342 0014 34010000 		.4byte	.LFE63-.LFB63
 17343 0018 00000000 		.4byte	.LFB64
 17344 001c 48000000 		.4byte	.LFE64-.LFB64
 17345 0020 00000000 		.4byte	.LFB65
 17346 0024 E0000000 		.4byte	.LFE65-.LFB65
 17347 0028 00000000 		.4byte	.LFB66
 17348 002c F4000000 		.4byte	.LFE66-.LFB66
 17349 0030 00000000 		.4byte	.LFB67
 17350 0034 5A000000 		.4byte	.LFE67-.LFB67
 17351 0038 00000000 		.4byte	.LFB68
 17352 003c F4080000 		.4byte	.LFE68-.LFB68
 17353 0040 00000000 		.4byte	.LFB69
 17354 0044 8C010000 		.4byte	.LFE69-.LFB69
 17355 0048 00000000 		.4byte	.LFB70
 17356 004c 04020000 		.4byte	.LFE70-.LFB70
 17357 0050 00000000 		.4byte	.LFB71
 17358 0054 A8010000 		.4byte	.LFE71-.LFB71
 17359 0058 00000000 		.4byte	.LFB72
 17360 005c 2C000000 		.4byte	.LFE72-.LFB72
 17361 0060 00000000 		.4byte	.LFB73
 17362 0064 36000000 		.4byte	.LFE73-.LFB73
 17363 0068 00000000 		.4byte	.LFB74
 17364 006c 36000000 		.4byte	.LFE74-.LFB74
 17365 0070 00000000 		.4byte	.LFB75
 17366 0074 82000000 		.4byte	.LFE75-.LFB75
 17367 0078 00000000 		.4byte	.LFB76
 17368 007c 70000000 		.4byte	.LFE76-.LFB76
 17369 0080 00000000 		.4byte	.LFB77
 17370 0084 60000000 		.4byte	.LFE77-.LFB77
 17371 0088 00000000 		.4byte	.LFB78
 17372 008c 6A000000 		.4byte	.LFE78-.LFB78
ARM GAS  C:\Users\RECEPC~1\AppData\Local\Temp\ccvxjDo6.s 			page 355


 17373 0090 00000000 		.4byte	.LFB79
 17374 0094 6A000000 		.4byte	.LFE79-.LFB79
 17375 0098 00000000 		.4byte	.LFB80
 17376 009c 6A000000 		.4byte	.LFE80-.LFB80
 17377 00a0 00000000 		.4byte	.LFB81
 17378 00a4 6A000000 		.4byte	.LFE81-.LFB81
 17379 00a8 00000000 		.4byte	.LFB82
 17380 00ac 6A000000 		.4byte	.LFE82-.LFB82
 17381 00b0 00000000 		.4byte	.LFB83
 17382 00b4 4A010000 		.4byte	.LFE83-.LFB83
 17383 00b8 00000000 		.4byte	.LFB84
 17384 00bc 60010000 		.4byte	.LFE84-.LFB84
 17385 00c0 00000000 		.4byte	.LFB85
 17386 00c4 4E010000 		.4byte	.LFE85-.LFB85
 17387 00c8 00000000 		.4byte	.LFB86
 17388 00cc B6010000 		.4byte	.LFE86-.LFB86
 17389 00d0 00000000 		.4byte	.LFB87
 17390 00d4 E8000000 		.4byte	.LFE87-.LFB87
 17391 00d8 00000000 		.4byte	.LFB88
 17392 00dc 78010000 		.4byte	.LFE88-.LFB88
 17393 00e0 00000000 		.4byte	.LFB89
 17394 00e4 88010000 		.4byte	.LFE89-.LFB89
 17395 00e8 00000000 		.4byte	.LFB90
 17396 00ec 5E020000 		.4byte	.LFE90-.LFB90
 17397 00f0 00000000 		.4byte	.LFB91
 17398 00f4 54010000 		.4byte	.LFE91-.LFB91
 17399 00f8 00000000 		.4byte	.LFB92
 17400 00fc E2010000 		.4byte	.LFE92-.LFB92
 17401 0100 00000000 		.4byte	.LFB93
 17402 0104 6A000000 		.4byte	.LFE93-.LFB93
 17403 0108 00000000 		.4byte	.LFB94
 17404 010c 60000000 		.4byte	.LFE94-.LFB94
 17405 0110 00000000 		.4byte	.LFB95
 17406 0114 E6000000 		.4byte	.LFE95-.LFB95
 17407 0118 00000000 		.4byte	.LFB96
 17408 011c 16000000 		.4byte	.LFE96-.LFB96
 17409 0120 00000000 		.4byte	.LFB97
 17410 0124 E6000000 		.4byte	.LFE97-.LFB97
 17411 0128 00000000 		.4byte	.LFB98
 17412 012c EC000000 		.4byte	.LFE98-.LFB98
 17413 0130 00000000 		.4byte	.LFB99
 17414 0134 E8010000 		.4byte	.LFE99-.LFB99
 17415 0138 00000000 		.4byte	.LFB100
 17416 013c 40100000 		.4byte	.LFE100-.LFB100
 17417 0140 00000000 		.4byte	.LFB101
 17418 0144 E4010000 		.4byte	.LFE101-.LFB101
 17419 0148 00000000 		.4byte	.LFB102
 17420 014c 24010000 		.4byte	.LFE102-.LFB102
 17421 0150 00000000 		.4byte	.LFB103
 17422 0154 60000000 		.4byte	.LFE103-.LFB103
 17423 0158 00000000 		.4byte	.LFB104
 17424 015c 40020000 		.4byte	.LFE104-.LFB104
 17425 0160 00000000 		.4byte	.LFB105
 17426 0164 6C000000 		.4byte	.LFE105-.LFB105
 17427 0168 00000000 		.4byte	.LFB106
 17428 016c B8000000 		.4byte	.LFE106-.LFB106
 17429 0170 00000000 		.4byte	.LFB107
ARM GAS  C:\Users\RECEPC~1\AppData\Local\Temp\ccvxjDo6.s 			page 356


 17430 0174 98000000 		.4byte	.LFE107-.LFB107
 17431 0178 00000000 		.4byte	.LFB108
 17432 017c AC000000 		.4byte	.LFE108-.LFB108
 17433 0180 00000000 		.4byte	.LFB109
 17434 0184 88000000 		.4byte	.LFE109-.LFB109
 17435 0188 00000000 		.4byte	.LFB110
 17436 018c 5E000000 		.4byte	.LFE110-.LFB110
 17437 0190 00000000 		.4byte	.LFB111
 17438 0194 2E000000 		.4byte	.LFE111-.LFB111
 17439 0198 00000000 		.4byte	.LFB112
 17440 019c 2C000000 		.4byte	.LFE112-.LFB112
 17441 01a0 00000000 		.4byte	.LFB113
 17442 01a4 2C000000 		.4byte	.LFE113-.LFB113
 17443 01a8 00000000 		.4byte	.LFB114
 17444 01ac 08020000 		.4byte	.LFE114-.LFB114
 17445 01b0 00000000 		.4byte	.LFB115
 17446 01b4 64010000 		.4byte	.LFE115-.LFB115
 17447 01b8 00000000 		.4byte	.LFB116
 17448 01bc 64010000 		.4byte	.LFE116-.LFB116
 17449 01c0 00000000 		.4byte	.LFB117
 17450 01c4 48000000 		.4byte	.LFE117-.LFB117
 17451 01c8 00000000 		.4byte	0
 17452 01cc 00000000 		.4byte	0
 17453              		.section	.debug_ranges,"",%progbits
 17454              	.Ldebug_ranges0:
 17455 0000 00000000 		.4byte	.LFB63
 17456 0004 34010000 		.4byte	.LFE63
 17457 0008 00000000 		.4byte	.LFB64
 17458 000c 48000000 		.4byte	.LFE64
 17459 0010 00000000 		.4byte	.LFB65
 17460 0014 E0000000 		.4byte	.LFE65
 17461 0018 00000000 		.4byte	.LFB66
 17462 001c F4000000 		.4byte	.LFE66
 17463 0020 00000000 		.4byte	.LFB67
 17464 0024 5A000000 		.4byte	.LFE67
 17465 0028 00000000 		.4byte	.LFB68
 17466 002c F4080000 		.4byte	.LFE68
 17467 0030 00000000 		.4byte	.LFB69
 17468 0034 8C010000 		.4byte	.LFE69
 17469 0038 00000000 		.4byte	.LFB70
 17470 003c 04020000 		.4byte	.LFE70
 17471 0040 00000000 		.4byte	.LFB71
 17472 0044 A8010000 		.4byte	.LFE71
 17473 0048 00000000 		.4byte	.LFB72
 17474 004c 2C000000 		.4byte	.LFE72
 17475 0050 00000000 		.4byte	.LFB73
 17476 0054 36000000 		.4byte	.LFE73
 17477 0058 00000000 		.4byte	.LFB74
 17478 005c 36000000 		.4byte	.LFE74
 17479 0060 00000000 		.4byte	.LFB75
 17480 0064 82000000 		.4byte	.LFE75
 17481 0068 00000000 		.4byte	.LFB76
 17482 006c 70000000 		.4byte	.LFE76
 17483 0070 00000000 		.4byte	.LFB77
 17484 0074 60000000 		.4byte	.LFE77
 17485 0078 00000000 		.4byte	.LFB78
 17486 007c 6A000000 		.4byte	.LFE78
ARM GAS  C:\Users\RECEPC~1\AppData\Local\Temp\ccvxjDo6.s 			page 357


 17487 0080 00000000 		.4byte	.LFB79
 17488 0084 6A000000 		.4byte	.LFE79
 17489 0088 00000000 		.4byte	.LFB80
 17490 008c 6A000000 		.4byte	.LFE80
 17491 0090 00000000 		.4byte	.LFB81
 17492 0094 6A000000 		.4byte	.LFE81
 17493 0098 00000000 		.4byte	.LFB82
 17494 009c 6A000000 		.4byte	.LFE82
 17495 00a0 00000000 		.4byte	.LFB83
 17496 00a4 4A010000 		.4byte	.LFE83
 17497 00a8 00000000 		.4byte	.LFB84
 17498 00ac 60010000 		.4byte	.LFE84
 17499 00b0 00000000 		.4byte	.LFB85
 17500 00b4 4E010000 		.4byte	.LFE85
 17501 00b8 00000000 		.4byte	.LFB86
 17502 00bc B6010000 		.4byte	.LFE86
 17503 00c0 00000000 		.4byte	.LFB87
 17504 00c4 E8000000 		.4byte	.LFE87
 17505 00c8 00000000 		.4byte	.LFB88
 17506 00cc 78010000 		.4byte	.LFE88
 17507 00d0 00000000 		.4byte	.LFB89
 17508 00d4 88010000 		.4byte	.LFE89
 17509 00d8 00000000 		.4byte	.LFB90
 17510 00dc 5E020000 		.4byte	.LFE90
 17511 00e0 00000000 		.4byte	.LFB91
 17512 00e4 54010000 		.4byte	.LFE91
 17513 00e8 00000000 		.4byte	.LFB92
 17514 00ec E2010000 		.4byte	.LFE92
 17515 00f0 00000000 		.4byte	.LFB93
 17516 00f4 6A000000 		.4byte	.LFE93
 17517 00f8 00000000 		.4byte	.LFB94
 17518 00fc 60000000 		.4byte	.LFE94
 17519 0100 00000000 		.4byte	.LFB95
 17520 0104 E6000000 		.4byte	.LFE95
 17521 0108 00000000 		.4byte	.LFB96
 17522 010c 16000000 		.4byte	.LFE96
 17523 0110 00000000 		.4byte	.LFB97
 17524 0114 E6000000 		.4byte	.LFE97
 17525 0118 00000000 		.4byte	.LFB98
 17526 011c EC000000 		.4byte	.LFE98
 17527 0120 00000000 		.4byte	.LFB99
 17528 0124 E8010000 		.4byte	.LFE99
 17529 0128 00000000 		.4byte	.LFB100
 17530 012c 40100000 		.4byte	.LFE100
 17531 0130 00000000 		.4byte	.LFB101
 17532 0134 E4010000 		.4byte	.LFE101
 17533 0138 00000000 		.4byte	.LFB102
 17534 013c 24010000 		.4byte	.LFE102
 17535 0140 00000000 		.4byte	.LFB103
 17536 0144 60000000 		.4byte	.LFE103
 17537 0148 00000000 		.4byte	.LFB104
 17538 014c 40020000 		.4byte	.LFE104
 17539 0150 00000000 		.4byte	.LFB105
 17540 0154 6C000000 		.4byte	.LFE105
 17541 0158 00000000 		.4byte	.LFB106
 17542 015c B8000000 		.4byte	.LFE106
 17543 0160 00000000 		.4byte	.LFB107
ARM GAS  C:\Users\RECEPC~1\AppData\Local\Temp\ccvxjDo6.s 			page 358


 17544 0164 98000000 		.4byte	.LFE107
 17545 0168 00000000 		.4byte	.LFB108
 17546 016c AC000000 		.4byte	.LFE108
 17547 0170 00000000 		.4byte	.LFB109
 17548 0174 88000000 		.4byte	.LFE109
 17549 0178 00000000 		.4byte	.LFB110
 17550 017c 5E000000 		.4byte	.LFE110
 17551 0180 00000000 		.4byte	.LFB111
 17552 0184 2E000000 		.4byte	.LFE111
 17553 0188 00000000 		.4byte	.LFB112
 17554 018c 2C000000 		.4byte	.LFE112
 17555 0190 00000000 		.4byte	.LFB113
 17556 0194 2C000000 		.4byte	.LFE113
 17557 0198 00000000 		.4byte	.LFB114
 17558 019c 08020000 		.4byte	.LFE114
 17559 01a0 00000000 		.4byte	.LFB115
 17560 01a4 64010000 		.4byte	.LFE115
 17561 01a8 00000000 		.4byte	.LFB116
 17562 01ac 64010000 		.4byte	.LFE116
 17563 01b0 00000000 		.4byte	.LFB117
 17564 01b4 48000000 		.4byte	.LFE117
 17565 01b8 00000000 		.4byte	0
 17566 01bc 00000000 		.4byte	0
 17567              		.section	.debug_line,"",%progbits
 17568              	.Ldebug_line0:
 17569 0000 5B0D0000 		.section	.debug_str,"MS",%progbits,1
 17569      0200FC01 
 17569      00000201 
 17569      FB0E0D00 
 17569      01010101 
 17570              	.LASF476:
 17571 0000 5F707269 		.ascii	"_printerportside2\000"
 17571      6E746572 
 17571      706F7274 
 17571      73696465 
 17571      3200
 17572              	.LASF374:
 17573 0012 5F706F73 		.ascii	"_positionoffset\000"
 17573      6974696F 
 17573      6E6F6666 
 17573      73657400 
 17574              	.LASF289:
 17575 0022 5F70756D 		.ascii	"_pumprftransstate\000"
 17575      70726674 
 17575      72616E73 
 17575      73746174 
 17575      6500
 17576              	.LASF506:
 17577 0034 7070756D 		.ascii	"ppump\000"
 17577      7000
 17578              	.LASF369:
 17579 003a 5F766F6C 		.ascii	"_volumeunit\000"
 17579      756D6575 
 17579      6E697400 
 17580              	.LASF193:
 17581 0046 44495350 		.ascii	"DISPLAY1\000"
 17581      4C415931 
ARM GAS  C:\Users\RECEPC~1\AppData\Local\Temp\ccvxjDo6.s 			page 359


 17581      00
 17582              	.LASF194:
 17583 004f 44495350 		.ascii	"DISPLAY2\000"
 17583      4C415932 
 17583      00
 17584              	.LASF97:
 17585 0058 5F53494E 		.ascii	"_SINK_MESSAGE_\000"
 17585      4B5F4D45 
 17585      53534147 
 17585      455F00
 17586              	.LASF376:
 17587 0067 504E4541 		.ascii	"PNEARDISPENSERACTIVATEPROGRAMMING\000"
 17587      52444953 
 17587      50454E53 
 17587      45524143 
 17587      54495641 
 17588              	.LASF317:
 17589 0089 52657370 		.ascii	"ResponseSizeResolver\000"
 17589      6F6E7365 
 17589      53697A65 
 17589      5265736F 
 17589      6C766572 
 17590              	.LASF537:
 17591 009e 41637175 		.ascii	"AcquirePumpCompleteConfiguration\000"
 17591      69726550 
 17591      756D7043 
 17591      6F6D706C 
 17591      65746543 
 17592              	.LASF339:
 17593 00bf 5F726570 		.ascii	"_repushtimeoutmultiplier\000"
 17593      75736874 
 17593      696D656F 
 17593      75746D75 
 17593      6C746970 
 17594              	.LASF22:
 17595 00d8 73697A65 		.ascii	"sizetype\000"
 17595      74797065 
 17595      00
 17596              	.LASF502:
 17597 00e1 50726F63 		.ascii	"ProcessPumpTotalsDataPpuCheck\000"
 17597      65737350 
 17597      756D7054 
 17597      6F74616C 
 17597      73446174 
 17598              	.LASF61:
 17599 00ff 44495350 		.ascii	"DISPENSER_ACQUIRE_PUMP_STATE\000"
 17599      454E5345 
 17599      525F4143 
 17599      51554952 
 17599      455F5055 
 17600              	.LASF124:
 17601 011c 5F6D6573 		.ascii	"_messagelength\000"
 17601      73616765 
 17601      6C656E67 
 17601      746800
 17602              	.LASF329:
 17603 012b 5F50554D 		.ascii	"_PUMP_TRANSACTION_\000"
ARM GAS  C:\Users\RECEPC~1\AppData\Local\Temp\ccvxjDo6.s 			page 360


 17603      505F5452 
 17603      414E5341 
 17603      4354494F 
 17603      4E5F00
 17604              	.LASF202:
 17605 013e 50554D50 		.ascii	"PUMP_AUTHORIZATION\000"
 17605      5F415554 
 17605      484F5249 
 17605      5A415449 
 17605      4F4E00
 17606              	.LASF282:
 17607 0151 5F73696E 		.ascii	"_sinktransaction\000"
 17607      6B747261 
 17607      6E736163 
 17607      74696F6E 
 17607      00
 17608              	.LASF463:
 17609 0162 52465F43 		.ascii	"RF_CREDITSALEREPORT\000"
 17609      52454449 
 17609      5453414C 
 17609      45524550 
 17609      4F525400 
 17610              	.LASF146:
 17611 0176 44495350 		.ascii	"DISPLAY_SUBA_MANIJA\000"
 17611      4C41595F 
 17611      53554241 
 17611      5F4D414E 
 17611      494A4100 
 17612              	.LASF378:
 17613 018a 45455052 		.ascii	"EEPROM_CONFIGURATION_PAGE0\000"
 17613      4F4D5F43 
 17613      4F4E4649 
 17613      47555241 
 17613      54494F4E 
 17614              	.LASF38:
 17615 01a5 53494E4B 		.ascii	"SINK_BUSY\000"
 17615      5F425553 
 17615      5900
 17616              	.LASF380:
 17617 01af 45455052 		.ascii	"EEPROM_CONFIGURATION_PAGE2\000"
 17617      4F4D5F43 
 17617      4F4E4649 
 17617      47555241 
 17617      54494F4E 
 17618              	.LASF381:
 17619 01ca 45455052 		.ascii	"EEPROM_CONFIGURATION_PAGE3\000"
 17619      4F4D5F43 
 17619      4F4E4649 
 17619      47555241 
 17619      54494F4E 
 17620              	.LASF382:
 17621 01e5 45455052 		.ascii	"EEPROM_CONFIGURATION_PAGE4\000"
 17621      4F4D5F43 
 17621      4F4E4649 
 17621      47555241 
 17621      54494F4E 
 17622              	.LASF383:
ARM GAS  C:\Users\RECEPC~1\AppData\Local\Temp\ccvxjDo6.s 			page 361


 17623 0200 45455052 		.ascii	"EEPROM_CONFIGURATION_PAGE5\000"
 17623      4F4D5F43 
 17623      4F4E4649 
 17623      47555241 
 17623      54494F4E 
 17624              	.LASF384:
 17625 021b 45455052 		.ascii	"EEPROM_CONFIGURATION_PAGE6\000"
 17625      4F4D5F43 
 17625      4F4E4649 
 17625      47555241 
 17625      54494F4E 
 17626              	.LASF385:
 17627 0236 45455052 		.ascii	"EEPROM_CONFIGURATION_PAGE7\000"
 17627      4F4D5F43 
 17627      4F4E4649 
 17627      47555241 
 17627      54494F4E 
 17628              	.LASF58:
 17629 0251 53494E4B 		.ascii	"SINK_RELEASE_BY_ID\000"
 17629      5F52454C 
 17629      45415345 
 17629      5F42595F 
 17629      494400
 17630              	.LASF130:
 17631 0264 55415254 		.ascii	"UART_RF\000"
 17631      5F524600 
 17632              	.LASF12:
 17633 026c 696E7433 		.ascii	"int32_t\000"
 17633      325F7400 
 17634              	.LASF583:
 17635 0274 6572726F 		.ascii	"errorCounter\000"
 17635      72436F75 
 17635      6E746572 
 17635      00
 17636              	.LASF348:
 17637 0281 5F50554D 		.ascii	"_PUMP_JOB_QUEUE_\000"
 17637      505F4A4F 
 17637      425F5155 
 17637      4555455F 
 17637      00
 17638              	.LASF331:
 17639 0292 5F6A6F62 		.ascii	"_jobs\000"
 17639      7300
 17640              	.LASF531:
 17641 0298 41637175 		.ascii	"AcquirePumpMiscellaneousConfiguration\000"
 17641      69726550 
 17641      756D704D 
 17641      69736365 
 17641      6C6C616E 
 17642              	.LASF297:
 17643 02be 5F727862 		.ascii	"_rxbuffersize\000"
 17643      75666665 
 17643      7273697A 
 17643      6500
 17644              	.LASF92:
 17645 02cc 49425554 		.ascii	"IBUTTON1_SCAN\000"
 17645      544F4E31 
ARM GAS  C:\Users\RECEPC~1\AppData\Local\Temp\ccvxjDo6.s 			page 362


 17645      5F534341 
 17645      4E00
 17646              	.LASF218:
 17647 02da 50554D50 		.ascii	"PUMP_AUTHORIZED\000"
 17647      5F415554 
 17647      484F5249 
 17647      5A454400 
 17648              	.LASF56:
 17649 02ea 55415254 		.ascii	"UART_RF_AUTONOMOUS_MONITOR\000"
 17649      5F52465F 
 17649      4155544F 
 17649      4E4F4D4F 
 17649      55535F4D 
 17650              	.LASF420:
 17651 0305 52465F4D 		.ascii	"RF_MUX_CREDIT_SERIAL_AUTH_REQUEST\000"
 17651      55585F43 
 17651      52454449 
 17651      545F5345 
 17651      5249414C 
 17652              	.LASF580:
 17653 0327 5F675F64 		.ascii	"_g_dispenserlayoutinfo\000"
 17653      69737065 
 17653      6E736572 
 17653      6C61796F 
 17653      7574696E 
 17654              	.LASF15:
 17655 033e 75696E74 		.ascii	"uint32\000"
 17655      333200
 17656              	.LASF250:
 17657 0345 5F737461 		.ascii	"_state\000"
 17657      746500
 17658              	.LASF166:
 17659 034c 44495350 		.ascii	"DISPLAY_COPIA_RECIBO\000"
 17659      4C41595F 
 17659      434F5049 
 17659      415F5245 
 17659      4349424F 
 17660              	.LASF528:
 17661 0361 50756D70 		.ascii	"PumpStopRequest\000"
 17661      53746F70 
 17661      52657175 
 17661      65737400 
 17662              	.LASF413:
 17663 0371 45455052 		.ascii	"EEPROM_DISPENSER_PUMP34_TRANSACTION_PAGE\000"
 17663      4F4D5F44 
 17663      49535045 
 17663      4E534552 
 17663      5F50554D 
 17664              	.LASF224:
 17665 039a 50554D50 		.ascii	"PUMP_UNKNOWN\000"
 17665      5F554E4B 
 17665      4E4F574E 
 17665      00
 17666              	.LASF208:
 17667 03a7 50554D50 		.ascii	"PUMP_REAL_TIME_HOSE_VOLUME_REQUEST\000"
 17667      5F524541 
 17667      4C5F5449 
ARM GAS  C:\Users\RECEPC~1\AppData\Local\Temp\ccvxjDo6.s 			page 363


 17667      4D455F48 
 17667      4F53455F 
 17668              	.LASF85:
 17669 03ca 44495350 		.ascii	"DISPLAY1_MESSAGE\000"
 17669      4C415931 
 17669      5F4D4553 
 17669      53414745 
 17669      00
 17670              	.LASF489:
 17671 03db 50726F63 		.ascii	"ProcessPumpTotalsDataStart\000"
 17671      65737350 
 17671      756D7054 
 17671      6F74616C 
 17671      73446174 
 17672              	.LASF519:
 17673 03f6 50756D70 		.ascii	"PumpPresetNoHose\000"
 17673      50726573 
 17673      65744E6F 
 17673      486F7365 
 17673      00
 17674              	.LASF65:
 17675 0407 44495350 		.ascii	"DISPENSER_UNLOCK_EOT_PUMPS\000"
 17675      454E5345 
 17675      525F554E 
 17675      4C4F434B 
 17675      5F454F54 
 17676              	.LASF102:
 17677 0422 53746F70 		.ascii	"Stop\000"
 17677      00
 17678              	.LASF118:
 17679 0427 55415254 		.ascii	"UARTManager\000"
 17679      4D616E61 
 17679      67657200 
 17680              	.LASF457:
 17681 0433 5F52465F 		.ascii	"_RF_STATES_\000"
 17681      53544154 
 17681      45535F00 
 17682              	.LASF513:
 17683 043f 50756D70 		.ascii	"PumpTotalsDataRequest\000"
 17683      546F7461 
 17683      6C734461 
 17683      74615265 
 17683      71756573 
 17684              	.LASF358:
 17685 0455 50756D70 		.ascii	"PumpJobQueue\000"
 17685      4A6F6251 
 17685      75657565 
 17685      00
 17686              	.LASF247:
 17687 0462 5F50554D 		.ascii	"_PUMP_TRANS_HEALTH_\000"
 17687      505F5452 
 17687      414E535F 
 17687      4845414C 
 17687      54485F00 
 17688              	.LASF200:
 17689 0476 5F434F4D 		.ascii	"_COMMAND_ID_\000"
 17689      4D414E44 
ARM GAS  C:\Users\RECEPC~1\AppData\Local\Temp\ccvxjDo6.s 			page 364


 17689      5F49445F 
 17689      00
 17690              	.LASF472:
 17691 0483 5F74696D 		.ascii	"_timeouttoreceive\000"
 17691      656F7574 
 17691      746F7265 
 17691      63656976 
 17691      6500
 17692              	.LASF178:
 17693 0495 44495350 		.ascii	"DISPLAY_ABRIR_TURNO\000"
 17693      4C41595F 
 17693      41425249 
 17693      525F5455 
 17693      524E4F00 
 17694              	.LASF379:
 17695 04a9 45455052 		.ascii	"EEPROM_CONFIGURATION_PAGE1\000"
 17695      4F4D5F43 
 17695      4F4E4649 
 17695      47555241 
 17695      54494F4E 
 17696              	.LASF458:
 17697 04c4 52465F49 		.ascii	"RF_IDLE\000"
 17697      444C4500 
 17698              	.LASF509:
 17699 04cc 50756D70 		.ascii	"PumpStateRequest\000"
 17699      53746174 
 17699      65526571 
 17699      75657374 
 17699      00
 17700              	.LASF165:
 17701 04dd 44495350 		.ascii	"DISPLAY_CONFIGURACIONES\000"
 17701      4C41595F 
 17701      434F4E46 
 17701      49475552 
 17701      4143494F 
 17702              	.LASF125:
 17703 04f5 5F6D6573 		.ascii	"_messagetx\000"
 17703      73616765 
 17703      747800
 17704              	.LASF325:
 17705 0500 5F706F73 		.ascii	"_postconditions\000"
 17705      74636F6E 
 17705      64697469 
 17705      6F6E7300 
 17706              	.LASF536:
 17707 0510 67726164 		.ascii	"grado\000"
 17707      6F00
 17708              	.LASF498:
 17709 0516 64617461 		.ascii	"dataok\000"
 17709      6F6B00
 17710              	.LASF416:
 17711 051d 45455052 		.ascii	"EEPROM_DISPENSER_PUMP43_TRANSACTION_PAGE\000"
 17711      4F4D5F44 
 17711      49535045 
 17711      4E534552 
 17711      5F50554D 
 17712              	.LASF20:
ARM GAS  C:\Users\RECEPC~1\AppData\Local\Temp\ccvxjDo6.s 			page 365


 17713 0546 63686172 		.ascii	"char8\000"
 17713      3800
 17714              	.LASF95:
 17715 054c 544F4747 		.ascii	"TOGGLE_SCREEN_AND_WRITE_TEST\000"
 17715      4C455F53 
 17715      43524545 
 17715      4E5F414E 
 17715      445F5752 
 17716              	.LASF72:
 17717 0569 44495350 		.ascii	"DISPENSER_ACQUIRE_TOTALS\000"
 17717      454E5345 
 17717      525F4143 
 17717      51554952 
 17717      455F544F 
 17718              	.LASF59:
 17719 0582 53494E4B 		.ascii	"SINK_RELEASE_BY_PTR\000"
 17719      5F52454C 
 17719      45415345 
 17719      5F42595F 
 17719      50545200 
 17720              	.LASF298:
 17721 0596 5F747261 		.ascii	"_transqueue\000"
 17721      6E737175 
 17721      65756500 
 17722              	.LASF479:
 17723 05a2 70726576 		.ascii	"prevstate\000"
 17723      73746174 
 17723      6500
 17724              	.LASF390:
 17725 05ac 45455052 		.ascii	"EEPROM_DISPENSER_PUMP1_PRODUCT_NAMES_PAGE\000"
 17725      4F4D5F44 
 17725      49535045 
 17725      4E534552 
 17725      5F50554D 
 17726              	.LASF468:
 17727 05d6 52465F41 		.ascii	"RF_AUTONOMOUS\000"
 17727      55544F4E 
 17727      4F4D4F55 
 17727      5300
 17728              	.LASF326:
 17729 05e4 496E6974 		.ascii	"Initialization\000"
 17729      69616C69 
 17729      7A617469 
 17729      6F6E00
 17730              	.LASF454:
 17731 05f3 52465F4D 		.ascii	"RF_MUX_COPY_REQUEST\000"
 17731      55585F43 
 17731      4F50595F 
 17731      52455155 
 17731      45535400 
 17732              	.LASF268:
 17733 0607 5F707265 		.ascii	"_presettype\000"
 17733      73657474 
 17733      79706500 
 17734              	.LASF578:
 17735 0613 5F675F70 		.ascii	"_g_pumpjobqueue\000"
 17735      756D706A 
ARM GAS  C:\Users\RECEPC~1\AppData\Local\Temp\ccvxjDo6.s 			page 366


 17735      6F627175 
 17735      65756500 
 17736              	.LASF409:
 17737 0623 45455052 		.ascii	"EEPROM_DISPENSER_PUMP24_TRANSACTION_PAGE\000"
 17737      4F4D5F44 
 17737      49535045 
 17737      4E534552 
 17737      5F50554D 
 17738              	.LASF77:
 17739 064c 5052494E 		.ascii	"PRINTER21_JOB\000"
 17739      54455232 
 17739      315F4A4F 
 17739      4200
 17740              	.LASF229:
 17741 065a 5F50554D 		.ascii	"_PUMP_FILL_CREDIT_\000"
 17741      505F4649 
 17741      4C4C5F43 
 17741      52454449 
 17741      545F00
 17742              	.LASF16:
 17743 066d 696E7438 		.ascii	"int8\000"
 17743      00
 17744              	.LASF451:
 17745 0672 52465F4D 		.ascii	"RF_MUX_ISLAND_OPER_DATA_RESPONSE\000"
 17745      55585F49 
 17745      534C414E 
 17745      445F4F50 
 17745      45525F44 
 17746              	.LASF470:
 17747 0693 5F746F61 		.ascii	"_toautonomoustimetoken\000"
 17747      75746F6E 
 17747      6F6D6F75 
 17747      7374696D 
 17747      65746F6B 
 17748              	.LASF237:
 17749 06aa 5F50554D 		.ascii	"_PUMP_EOT_STARTUP_\000"
 17749      505F454F 
 17749      545F5354 
 17749      41525455 
 17749      505F00
 17750              	.LASF386:
 17751 06bd 45455052 		.ascii	"EEPROM_DISPENSER_PUMP1_LAYOUT_PAGE\000"
 17751      4F4D5F44 
 17751      49535045 
 17751      4E534552 
 17751      5F50554D 
 17752              	.LASF304:
 17753 06e0 50756D70 		.ascii	"PumpTransQueueDeallocate\000"
 17753      5472616E 
 17753      73517565 
 17753      75654465 
 17753      616C6C6F 
 17754              	.LASF207:
 17755 06f9 50554D50 		.ascii	"PUMP_REAL_TIME_MONEY_REQUEST\000"
 17755      5F524541 
 17755      4C5F5449 
 17755      4D455F4D 
ARM GAS  C:\Users\RECEPC~1\AppData\Local\Temp\ccvxjDo6.s 			page 367


 17755      4F4E4559 
 17756              	.LASF439:
 17757 0716 52465F4D 		.ascii	"RF_MUX_CREDIT_SALE_PRINT_RESPONSE\000"
 17757      55585F43 
 17757      52454449 
 17757      545F5341 
 17757      4C455F50 
 17758              	.LASF119:
 17759 0738 5F554152 		.ascii	"_UART_MESSAGE_STATE_\000"
 17759      545F4D45 
 17759      53534147 
 17759      455F5354 
 17759      4154455F 
 17760              	.LASF449:
 17761 074d 52465F4D 		.ascii	"RF_MUX_POSITION_CFG_RESPONSE\000"
 17761      55585F50 
 17761      4F534954 
 17761      494F4E5F 
 17761      4346475F 
 17762              	.LASF4:
 17763 076a 5F5F7569 		.ascii	"__uint8_t\000"
 17763      6E74385F 
 17763      7400
 17764              	.LASF412:
 17765 0774 45455052 		.ascii	"EEPROM_DISPENSER_PUMP33_TRANSACTION_PAGE\000"
 17765      4F4D5F44 
 17765      49535045 
 17765      4E534552 
 17765      5F50554D 
 17766              	.LASF524:
 17767 079d 50756D70 		.ascii	"PumpPpuChange\000"
 17767      50707543 
 17767      68616E67 
 17767      6500
 17768              	.LASF143:
 17769 07ab 44495350 		.ascii	"DISPLAY_INTRODUZCA_VALOR2\000"
 17769      4C41595F 
 17769      494E5452 
 17769      4F44555A 
 17769      43415F56 
 17770              	.LASF185:
 17771 07c5 44495350 		.ascii	"DISPLAY_IDENTIFICADOR_ESTACION\000"
 17771      4C41595F 
 17771      4944454E 
 17771      54494649 
 17771      4341444F 
 17772              	.LASF87:
 17773 07e4 44495350 		.ascii	"DISPLAY1_ANIMATE_HOME\000"
 17773      4C415931 
 17773      5F414E49 
 17773      4D415445 
 17773      5F484F4D 
 17774              	.LASF47:
 17775 07fa 5F627566 		.ascii	"_buffer\000"
 17775      66657200 
 17776              	.LASF453:
 17777 0802 52465F4D 		.ascii	"RF_MUX_ISLAND_ADMIN_RESPONSE\000"
ARM GAS  C:\Users\RECEPC~1\AppData\Local\Temp\ccvxjDo6.s 			page 368


 17777      55585F49 
 17777      534C414E 
 17777      445F4144 
 17777      4D494E5F 
 17778              	.LASF405:
 17779 081f 45455052 		.ascii	"EEPROM_DISPENSER_PUMP14_TRANSACTION_PAGE\000"
 17779      4F4D5F44 
 17779      49535045 
 17779      4E534552 
 17779      5F50554D 
 17780              	.LASF53:
 17781 0848 5F53494E 		.ascii	"_SINK_OBSERVABLES_\000"
 17781      4B5F4F42 
 17781      53455256 
 17781      41424C45 
 17781      535F00
 17782              	.LASF342:
 17783 085b 5F74696D 		.ascii	"_timeoutmultiplier\000"
 17783      656F7574 
 17783      6D756C74 
 17783      69706C69 
 17783      657200
 17784              	.LASF233:
 17785 086e 5F50554D 		.ascii	"_PUMP_TOTALS_\000"
 17785      505F544F 
 17785      54414C53 
 17785      5F00
 17786              	.LASF377:
 17787 087c 5F454550 		.ascii	"_EEPROM_MEM_FORMAT_\000"
 17787      524F4D5F 
 17787      4D454D5F 
 17787      464F524D 
 17787      41545F00 
 17788              	.LASF19:
 17789 0890 75696E74 		.ascii	"uint64\000"
 17789      363400
 17790              	.LASF6:
 17791 0897 6C6F6E67 		.ascii	"long int\000"
 17791      20696E74 
 17791      00
 17792              	.LASF287:
 17793 08a0 5F726F75 		.ascii	"_roundrobinstate\000"
 17793      6E64726F 
 17793      62696E73 
 17793      74617465 
 17793      00
 17794              	.LASF278:
 17795 08b1 5F70756D 		.ascii	"_pumpstate\000"
 17795      70737461 
 17795      746500
 17796              	.LASF136:
 17797 08bc 5F415641 		.ascii	"_AVAILABLE_DISPLAYS_\000"
 17797      494C4142 
 17797      4C455F44 
 17797      4953504C 
 17797      4159535F 
 17798              	.LASF63:
ARM GAS  C:\Users\RECEPC~1\AppData\Local\Temp\ccvxjDo6.s 			page 369


 17799 08d1 44495350 		.ascii	"DISPENSER_EXECUTE_CASH_TRANSACTION\000"
 17799      454E5345 
 17799      525F4558 
 17799      45435554 
 17799      455F4341 
 17800              	.LASF45:
 17801 08f4 5F6D6573 		.ascii	"_messagetimeoutmultiplier\000"
 17801      73616765 
 17801      74696D65 
 17801      6F75746D 
 17801      756C7469 
 17802              	.LASF74:
 17803 090e 44495350 		.ascii	"DISPENSER_PUMP_BEEP_WARNING\000"
 17803      454E5345 
 17803      525F5055 
 17803      4D505F42 
 17803      4545505F 
 17804              	.LASF515:
 17805 092a 50756D70 		.ascii	"PumpPresetHose\000"
 17805      50726573 
 17805      6574486F 
 17805      736500
 17806              	.LASF549:
 17807 0939 50756D70 		.ascii	"PumpEnumeratorRequest\000"
 17807      456E756D 
 17807      65726174 
 17807      6F725265 
 17807      71756573 
 17808              	.LASF69:
 17809 094f 44495350 		.ascii	"DISPENSER_CONFIGURE_PRICES\000"
 17809      454E5345 
 17809      525F434F 
 17809      4E464947 
 17809      5552455F 
 17810              	.LASF387:
 17811 096a 45455052 		.ascii	"EEPROM_DISPENSER_PUMP2_LAYOUT_PAGE\000"
 17811      4F4D5F44 
 17811      49535045 
 17811      4E534552 
 17811      5F50554D 
 17812              	.LASF394:
 17813 098d 45455052 		.ascii	"EEPROM_DISPENSER_PUMP1_PPU_INFO_PAGE\000"
 17813      4F4D5F44 
 17813      49535045 
 17813      4E534552 
 17813      5F50554D 
 17814              	.LASF467:
 17815 09b2 5F52465F 		.ascii	"_RF_AUTONOMOUS_MODE_\000"
 17815      4155544F 
 17815      4E4F4D4F 
 17815      55535F4D 
 17815      4F44455F 
 17816              	.LASF133:
 17817 09c7 55415254 		.ascii	"UART_DISPLAY1\000"
 17817      5F444953 
 17817      504C4159 
 17817      3100
ARM GAS  C:\Users\RECEPC~1\AppData\Local\Temp\ccvxjDo6.s 			page 370


 17818              	.LASF134:
 17819 09d5 55415254 		.ascii	"UART_DISPLAY2\000"
 17819      5F444953 
 17819      504C4159 
 17819      3200
 17820              	.LASF238:
 17821 09e3 5F50554D 		.ascii	"_PUMP_NETWORK_ENUMERATOR_\000"
 17821      505F4E45 
 17821      54574F52 
 17821      4B5F454E 
 17821      554D4552 
 17822              	.LASF351:
 17823 09fd 5F706A6F 		.ascii	"_pjobqueueallocated\000"
 17823      62717565 
 17823      7565616C 
 17823      6C6F6361 
 17823      74656400 
 17824              	.LASF163:
 17825 0a11 44495350 		.ascii	"DISPLAY_INTRODUZCA_KILOMETRAJE\000"
 17825      4C41595F 
 17825      494E5452 
 17825      4F44555A 
 17825      43415F4B 
 17826              	.LASF425:
 17827 0a30 52465F4D 		.ascii	"RF_MUX_CREDIT_PRESET_NOTIFICATION_RESPONSE\000"
 17827      55585F43 
 17827      52454449 
 17827      545F5052 
 17827      45534554 
 17828              	.LASF90:
 17829 0a5b 44495350 		.ascii	"DISPLAY2_UPDATE_DATETIME\000"
 17829      4C415932 
 17829      5F555044 
 17829      4154455F 
 17829      44415445 
 17830              	.LASF245:
 17831 0a74 5F50554D 		.ascii	"_PUMP_IDLE_\000"
 17831      505F4944 
 17831      4C455F00 
 17832              	.LASF64:
 17833 0a80 44495350 		.ascii	"DISPENSER_EXECUTE_CREDIT_TRANSACTION\000"
 17833      454E5345 
 17833      525F4558 
 17833      45435554 
 17833      455F4352 
 17834              	.LASF80:
 17835 0aa5 5052494E 		.ascii	"PRINTER2_GENERIC_JOB\000"
 17835      54455232 
 17835      5F47454E 
 17835      45524943 
 17835      5F4A4F42 
 17836              	.LASF171:
 17837 0aba 44495350 		.ascii	"DISPLAY_POR_FAVOR_ESPERE\000"
 17837      4C41595F 
 17837      504F525F 
 17837      4641564F 
 17837      525F4553 
ARM GAS  C:\Users\RECEPC~1\AppData\Local\Temp\ccvxjDo6.s 			page 371


 17838              	.LASF418:
 17839 0ad3 52465F4D 		.ascii	"RF_MUX_STATE_REQUEST\000"
 17839      55585F53 
 17839      54415445 
 17839      5F524551 
 17839      55455354 
 17840              	.LASF424:
 17841 0ae8 52465F4D 		.ascii	"RF_MUX_CREDIT_PRESET_NOTIFICATION_REQUEST\000"
 17841      55585F43 
 17841      52454449 
 17841      545F5052 
 17841      45534554 
 17842              	.LASF176:
 17843 0b12 44495350 		.ascii	"DISPLAY_FECHA\000"
 17843      4C41595F 
 17843      46454348 
 17843      4100
 17844              	.LASF333:
 17845 0b20 5F726565 		.ascii	"_reenqueue\000"
 17845      6E717565 
 17845      756500
 17846              	.LASF523:
 17847 0b2b 50756D70 		.ascii	"PumpFullPresetNoHose\000"
 17847      46756C6C 
 17847      50726573 
 17847      65744E6F 
 17847      486F7365 
 17848              	.LASF328:
 17849 0b40 50756D70 		.ascii	"PumpTransactionJob\000"
 17849      5472616E 
 17849      73616374 
 17849      696F6E4A 
 17849      6F6200
 17850              	.LASF0:
 17851 0b53 7369676E 		.ascii	"signed char\000"
 17851      65642063 
 17851      68617200 
 17852              	.LASF25:
 17853 0b5f 504E4541 		.ascii	"PNEAR_BYTE_PTR\000"
 17853      525F4259 
 17853      54455F50 
 17853      545200
 17854              	.LASF11:
 17855 0b6e 75696E74 		.ascii	"uint8_t\000"
 17855      385F7400 
 17856              	.LASF508:
 17857 0b76 50756D70 		.ascii	"PumpStartupAuthorization\000"
 17857      53746172 
 17857      74757041 
 17857      7574686F 
 17857      72697A61 
 17858              	.LASF157:
 17859 0b8f 44495350 		.ascii	"DISPLAY_ID_DIGITAL\000"
 17859      4C41595F 
 17859      49445F44 
 17859      49474954 
 17859      414C00
ARM GAS  C:\Users\RECEPC~1\AppData\Local\Temp\ccvxjDo6.s 			page 372


 17860              	.LASF155:
 17861 0ba2 44495350 		.ascii	"DISPLAY_TIEMPO_EXPIRADO\000"
 17861      4C41595F 
 17861      5449454D 
 17861      504F5F45 
 17861      58504952 
 17862              	.LASF563:
 17863 0bba 5F706275 		.ascii	"_pbuffer\000"
 17863      66666572 
 17863      00
 17864              	.LASF110:
 17865 0bc3 436C6561 		.ascii	"ClearRxBuffer\000"
 17865      72527842 
 17865      75666665 
 17865      7200
 17866              	.LASF107:
 17867 0bd1 47657443 		.ascii	"GetChar\000"
 17867      68617200 
 17868              	.LASF419:
 17869 0bd9 52465F4D 		.ascii	"RF_MUX_STATE_RESPONSE\000"
 17869      55585F53 
 17869      54415445 
 17869      5F524553 
 17869      504F4E53 
 17870              	.LASF315:
 17871 0bef 52657370 		.ascii	"Response\000"
 17871      6F6E7365 
 17871      00
 17872              	.LASF404:
 17873 0bf8 45455052 		.ascii	"EEPROM_DISPENSER_PUMP13_TRANSACTION_PAGE\000"
 17873      4F4D5F44 
 17873      49535045 
 17873      4E534552 
 17873      5F50554D 
 17874              	.LASF181:
 17875 0c21 44495350 		.ascii	"DISPLAY_USUARIO_VALIDO\000"
 17875      4C41595F 
 17875      55535541 
 17875      52494F5F 
 17875      56414C49 
 17876              	.LASF466:
 17877 0c38 52465F5A 		.ascii	"RF_ZERO_SALE\000"
 17877      45524F5F 
 17877      53414C45 
 17877      00
 17878              	.LASF179:
 17879 0c45 44495350 		.ascii	"DISPLAY_CERRAR_TURNO\000"
 17879      4C41595F 
 17879      43455252 
 17879      41525F54 
 17879      55524E4F 
 17880              	.LASF344:
 17881 0c5a 5F707265 		.ascii	"_presponse\000"
 17881      73706F6E 
 17881      736500
 17882              	.LASF533:
 17883 0c65 50756D70 		.ascii	"PumpHoseActiveState\000"
ARM GAS  C:\Users\RECEPC~1\AppData\Local\Temp\ccvxjDo6.s 			page 373


 17883      486F7365 
 17883      41637469 
 17883      76655374 
 17883      61746500 
 17884              	.LASF168:
 17885 0c79 44495350 		.ascii	"DISPLAY_SELECCIONE_POSICION\000"
 17885      4C41595F 
 17885      53454C45 
 17885      4343494F 
 17885      4E455F50 
 17886              	.LASF122:
 17887 0c95 50454E44 		.ascii	"PENDING\000"
 17887      494E4700 
 17888              	.LASF86:
 17889 0c9d 44495350 		.ascii	"DISPLAY1_UPDATE_DATETIME\000"
 17889      4C415931 
 17889      5F555044 
 17889      4154455F 
 17889      44415445 
 17890              	.LASF373:
 17891 0cb6 5F707265 		.ascii	"_presetdigits\000"
 17891      73657464 
 17891      69676974 
 17891      7300
 17892              	.LASF213:
 17893 0cc4 4C52436E 		.ascii	"LRCn\000"
 17893      00
 17894              	.LASF1:
 17895 0cc9 756E7369 		.ascii	"unsigned char\000"
 17895      676E6564 
 17895      20636861 
 17895      7200
 17896              	.LASF361:
 17897 0cd7 5F6E756D 		.ascii	"_numpositions\000"
 17897      706F7369 
 17897      74696F6E 
 17897      7300
 17898              	.LASF490:
 17899 0ce5 686F7365 		.ascii	"hosecount\000"
 17899      636F756E 
 17899      7400
 17900              	.LASF142:
 17901 0cef 44495350 		.ascii	"DISPLAY_INTRODUZCA_VALOR\000"
 17901      4C41595F 
 17901      494E5452 
 17901      4F44555A 
 17901      43415F56 
 17902              	.LASF426:
 17903 0d08 52465F4D 		.ascii	"RF_MUX_CASH_SALE_START_REQUEST\000"
 17903      55585F43 
 17903      4153485F 
 17903      53414C45 
 17903      5F535441 
 17904              	.LASF560:
 17905 0d27 706A6F62 		.ascii	"pjobcntr\000"
 17905      636E7472 
 17905      00
ARM GAS  C:\Users\RECEPC~1\AppData\Local\Temp\ccvxjDo6.s 			page 374


 17906              	.LASF273:
 17907 0d30 5F736572 		.ascii	"_serial\000"
 17907      69616C00 
 17908              	.LASF170:
 17909 0d38 44495350 		.ascii	"DISPLAY_ESPERANDO_AUTORIZACION\000"
 17909      4C41595F 
 17909      45535045 
 17909      52414E44 
 17909      4F5F4155 
 17910              	.LASF553:
 17911 0d57 50756D70 		.ascii	"PumpEnumeratorTimeout\000"
 17911      456E756D 
 17911      65726174 
 17911      6F725469 
 17911      6D656F75 
 17912              	.LASF507:
 17913 0d6d 70756172 		.ascii	"puartdisp\000"
 17913      74646973 
 17913      7000
 17914              	.LASF120:
 17915 0d77 46524545 		.ascii	"FREE\000"
 17915      00
 17916              	.LASF462:
 17917 0d7c 52465F57 		.ascii	"RF_WORKSHIFTREQ\000"
 17917      4F524B53 
 17917      48494654 
 17917      52455100 
 17918              	.LASF332:
 17919 0d8c 50756D70 		.ascii	"PumpTransaction\000"
 17919      5472616E 
 17919      73616374 
 17919      696F6E00 
 17920              	.LASF488:
 17921 0d9c 65657072 		.ascii	"eeprompage\000"
 17921      6F6D7061 
 17921      676500
 17922              	.LASF68:
 17923 0da7 44495350 		.ascii	"DISPENSER_ACQUIRE_CONFIGURATION_INFORMATION\000"
 17923      454E5345 
 17923      525F4143 
 17923      51554952 
 17923      455F434F 
 17924              	.LASF43:
 17925 0dd3 5F6D6573 		.ascii	"_messagedelay\000"
 17925      73616765 
 17925      64656C61 
 17925      7900
 17926              	.LASF368:
 17927 0de1 5F766F6C 		.ascii	"_volumedecimals\000"
 17927      756D6564 
 17927      6563696D 
 17927      616C7300 
 17928              	.LASF51:
 17929 0df1 5F426F6F 		.ascii	"_Bool\000"
 17929      6C00
 17930              	.LASF363:
 17931 0df7 5F686F73 		.ascii	"_hosesposition2\000"
ARM GAS  C:\Users\RECEPC~1\AppData\Local\Temp\ccvxjDo6.s 			page 375


 17931      6573706F 
 17931      73697469 
 17931      6F6E3200 
 17932              	.LASF272:
 17933 0e07 5F766F6C 		.ascii	"_volumeamount\000"
 17933      756D6561 
 17933      6D6F756E 
 17933      7400
 17934              	.LASF568:
 17935 0e15 43617374 		.ascii	"CastVolumeValue\000"
 17935      566F6C75 
 17935      6D655661 
 17935      6C756500 
 17936              	.LASF111:
 17937 0e25 57726974 		.ascii	"WriteTxData\000"
 17937      65547844 
 17937      61746100 
 17938              	.LASF37:
 17939 0e31 53494E4B 		.ascii	"SINK_ALLOCATED\000"
 17939      5F414C4C 
 17939      4F434154 
 17939      454400
 17940              	.LASF355:
 17941 0e40 5065656B 		.ascii	"Peek\000"
 17941      00
 17942              	.LASF306:
 17943 0e45 50756D70 		.ascii	"PumpTransQueueDequeue\000"
 17943      5472616E 
 17943      73517565 
 17943      75654465 
 17943      71756575 
 17944              	.LASF21:
 17945 0e5b 63686172 		.ascii	"char\000"
 17945      00
 17946              	.LASF445:
 17947 0e60 52465F4D 		.ascii	"RF_MUX_LAST_CASH_SALE_RESPONSE\000"
 17947      55585F4C 
 17947      4153545F 
 17947      43415348 
 17947      5F53414C 
 17948              	.LASF438:
 17949 0e7f 52465F4D 		.ascii	"RF_MUX_CREDIT_SALE_PRINT_REQUEST\000"
 17949      55585F43 
 17949      52454449 
 17949      545F5341 
 17949      4C455F50 
 17950              	.LASF183:
 17951 0ea0 44495350 		.ascii	"DISPLAY_AMBAS_IMPRESORAS_FUNCIONANDO\000"
 17951      4C41595F 
 17951      414D4241 
 17951      535F494D 
 17951      50524553 
 17952              	.LASF32:
 17953 0ec5 42524F41 		.ascii	"BROADCASTFOREVER\000"
 17953      44434153 
 17953      54464F52 
 17953      45564552 
ARM GAS  C:\Users\RECEPC~1\AppData\Local\Temp\ccvxjDo6.s 			page 376


 17953      00
 17954              	.LASF89:
 17955 0ed6 44495350 		.ascii	"DISPLAY2_MESSAGE\000"
 17955      4C415932 
 17955      5F4D4553 
 17955      53414745 
 17955      00
 17956              	.LASF212:
 17957 0ee7 5052446E 		.ascii	"PRDn\000"
 17957      00
 17958              	.LASF514:
 17959 0eec 50756D70 		.ascii	"PumpDataToPump\000"
 17959      44617461 
 17959      546F5075 
 17959      6D7000
 17960              	.LASF322:
 17961 0efb 5F6F6E65 		.ascii	"_oneshotpreconditions\000"
 17961      73686F74 
 17961      70726563 
 17961      6F6E6469 
 17961      74696F6E 
 17962              	.LASF131:
 17963 0f11 55415254 		.ascii	"UART_PRINTER\000"
 17963      5F505249 
 17963      4E544552 
 17963      00
 17964              	.LASF391:
 17965 0f1e 45455052 		.ascii	"EEPROM_DISPENSER_PUMP2_PRODUCT_NAMES_PAGE\000"
 17965      4F4D5F44 
 17965      49535045 
 17965      4E534552 
 17965      5F50554D 
 17966              	.LASF366:
 17967 0f48 5F6D6F6E 		.ascii	"_moneydecimals\000"
 17967      65796465 
 17967      63696D61 
 17967      6C7300
 17968              	.LASF106:
 17969 0f57 52656164 		.ascii	"ReadRxStatus\000"
 17969      52785374 
 17969      61747573 
 17969      00
 17970              	.LASF195:
 17971 0f64 50535452 		.ascii	"PSTR\000"
 17971      00
 17972              	.LASF370:
 17973 0f69 5F6D696E 		.ascii	"_minmoneyvalue\000"
 17973      6D6F6E65 
 17973      7976616C 
 17973      756500
 17974              	.LASF551:
 17975 0f78 76617230 		.ascii	"var0\000"
 17975      00
 17976              	.LASF288:
 17977 0f7d 5F706F73 		.ascii	"_positionlocked\000"
 17977      6974696F 
 17977      6E6C6F63 
ARM GAS  C:\Users\RECEPC~1\AppData\Local\Temp\ccvxjDo6.s 			page 377


 17977      6B656400 
 17978              	.LASF345:
 17979 0f8d 5F707075 		.ascii	"_ppump\000"
 17979      6D7000
 17980              	.LASF243:
 17981 0f94 5F50554D 		.ascii	"_PUMP_TRANS_STATE_\000"
 17981      505F5452 
 17981      414E535F 
 17981      53544154 
 17981      455F00
 17982              	.LASF408:
 17983 0fa7 45455052 		.ascii	"EEPROM_DISPENSER_PUMP23_TRANSACTION_PAGE\000"
 17983      4F4D5F44 
 17983      49535045 
 17983      4E534552 
 17983      5F50554D 
 17984              	.LASF552:
 17985 0fd0 76617231 		.ascii	"var1\000"
 17985      00
 17986              	.LASF116:
 17987 0fd5 50757443 		.ascii	"PutCRLF\000"
 17987      524C4600 
 17988              	.LASF544:
 17989 0fdd 70627566 		.ascii	"pbuffer\000"
 17989      66657200 
 17990              	.LASF520:
 17991 0fe5 50756D70 		.ascii	"PumpPresetNotification\000"
 17991      50726573 
 17991      65744E6F 
 17991      74696669 
 17991      63617469 
 17992              	.LASF299:
 17993 0ffc 5F747261 		.ascii	"_transqueuelocked\000"
 17993      6E737175 
 17993      6575656C 
 17993      6F636B65 
 17993      6400
 17994              	.LASF269:
 17995 100e 5F686F73 		.ascii	"_hoseid\000"
 17995      65696400 
 17996              	.LASF206:
 17997 1016 50554D50 		.ascii	"PUMP_TOTALS_DATA_REQUEST\000"
 17997      5F544F54 
 17997      414C535F 
 17997      44415441 
 17997      5F524551 
 17998              	.LASF219:
 17999 102f 50554D50 		.ascii	"PUMP_BUSY\000"
 17999      5F425553 
 17999      5900
 18000              	.LASF148:
 18001 1039 44495350 		.ascii	"DISPLAY_BAJE_MANIJA\000"
 18001      4C41595F 
 18001      42414A45 
 18001      5F4D414E 
 18001      494A4100 
 18002              	.LASF484:
ARM GAS  C:\Users\RECEPC~1\AppData\Local\Temp\ccvxjDo6.s 			page 378


 18003 104d 50726F63 		.ascii	"ProcessPumpRTMoneyRequest\000"
 18003      65737350 
 18003      756D7052 
 18003      544D6F6E 
 18003      65795265 
 18004              	.LASF76:
 18005 1067 5052494E 		.ascii	"PRINTER12_JOB\000"
 18005      54455231 
 18005      325F4A4F 
 18005      4200
 18006              	.LASF389:
 18007 1075 45455052 		.ascii	"EEPROM_DISPENSER_PUMP4_LAYOUT_PAGE\000"
 18007      4F4D5F44 
 18007      49535045 
 18007      4E534552 
 18007      5F50554D 
 18008              	.LASF225:
 18009 1098 5F545241 		.ascii	"_TRANSACTION_NAMES_\000"
 18009      4E534143 
 18009      54494F4E 
 18009      5F4E414D 
 18009      45535F00 
 18010              	.LASF44:
 18011 10ac 5F6D6573 		.ascii	"_messagetimeout\000"
 18011      73616765 
 18011      74696D65 
 18011      6F757400 
 18012              	.LASF422:
 18013 10bc 52465F4D 		.ascii	"RF_MUX_CREDIT_PRESET_AUTHORIZATION_REQUEST\000"
 18013      55585F43 
 18013      52454449 
 18013      545F5052 
 18013      45534554 
 18014              	.LASF482:
 18015 10e7 41637175 		.ascii	"AcquireDatatoPumpResponse\000"
 18015      69726544 
 18015      61746174 
 18015      6F50756D 
 18015      70526573 
 18016              	.LASF141:
 18017 1101 44495350 		.ascii	"DISPLAY_FORMA_PROGRAMACION\000"
 18017      4C41595F 
 18017      464F524D 
 18017      415F5052 
 18017      4F475241 
 18018              	.LASF114:
 18019 111c 50757453 		.ascii	"PutString\000"
 18019      7472696E 
 18019      6700
 18020              	.LASF242:
 18021 1126 5F50554D 		.ascii	"_PUMP_COMPLETE_CONFIGURATION_\000"
 18021      505F434F 
 18021      4D504C45 
 18021      54455F43 
 18021      4F4E4649 
 18022              	.LASF357:
 18023 1144 436C6561 		.ascii	"Clear\000"
ARM GAS  C:\Users\RECEPC~1\AppData\Local\Temp\ccvxjDo6.s 			page 379


 18023      7200
 18024              	.LASF570:
 18025 114a 73686966 		.ascii	"shiftbydelimiter\000"
 18025      74627964 
 18025      656C696D 
 18025      69746572 
 18025      00
 18026              	.LASF100:
 18027 115b 43757374 		.ascii	"CustomUARTSend\000"
 18027      6F6D5541 
 18027      52545365 
 18027      6E6400
 18028              	.LASF505:
 18029 116a 50756D70 		.ascii	"PumpAuthorization\000"
 18029      41757468 
 18029      6F72697A 
 18029      6174696F 
 18029      6E00
 18030              	.LASF432:
 18031 117c 52465F4D 		.ascii	"RF_MUX_TOTALS_REPORT_REQUEST\000"
 18031      55585F54 
 18031      4F54414C 
 18031      535F5245 
 18031      504F5254 
 18032              	.LASF367:
 18033 1199 5F707075 		.ascii	"_ppudecimals\000"
 18033      64656369 
 18033      6D616C73 
 18033      00
 18034              	.LASF276:
 18035 11a6 5F70756D 		.ascii	"_pumpid\000"
 18035      70696400 
 18036              	.LASF542:
 18037 11ae 41637175 		.ascii	"AcquireDispenserLayoutInformation\000"
 18037      69726544 
 18037      69737065 
 18037      6E736572 
 18037      4C61796F 
 18038              	.LASF137:
 18039 11d0 44495350 		.ascii	"DISPLAY_INICIO0\000"
 18039      4C41595F 
 18039      494E4943 
 18039      494F3000 
 18040              	.LASF138:
 18041 11e0 44495350 		.ascii	"DISPLAY_INICIO1\000"
 18041      4C41595F 
 18041      494E4943 
 18041      494F3100 
 18042              	.LASF139:
 18043 11f0 44495350 		.ascii	"DISPLAY_INICIO2\000"
 18043      4C41595F 
 18043      494E4943 
 18043      494F3200 
 18044              	.LASF30:
 18045 1200 44454C41 		.ascii	"DELAYEDALLINTERESTED\000"
 18045      59454441 
 18045      4C4C494E 
ARM GAS  C:\Users\RECEPC~1\AppData\Local\Temp\ccvxjDo6.s 			page 380


 18045      54455245 
 18045      53544544 
 18046              	.LASF296:
 18047 1215 5F727862 		.ascii	"_rxbuffer\000"
 18047      75666665 
 18047      7200
 18048              	.LASF320:
 18049 121f 5F726573 		.ascii	"_responsesize\000"
 18049      706F6E73 
 18049      6573697A 
 18049      6500
 18050              	.LASF352:
 18051 122d 526F7461 		.ascii	"Rotate\000"
 18051      746500
 18052              	.LASF253:
 18053 1234 504E4541 		.ascii	"PNEAR_PUMPTRANSACTIONALSTATEPTR\000"
 18053      525F5055 
 18053      4D505452 
 18053      414E5341 
 18053      4354494F 
 18054              	.LASF182:
 18055 1254 44495350 		.ascii	"DISPLAY_USUARIO_INVALIDO\000"
 18055      4C41595F 
 18055      55535541 
 18055      52494F5F 
 18055      494E5641 
 18056              	.LASF469:
 18057 126d 52465F4E 		.ascii	"RF_NON_AUTONOMOUS\000"
 18057      4F4E5F41 
 18057      55544F4E 
 18057      4F4D4F55 
 18057      5300
 18058              	.LASF559:
 18059 127f 7074726A 		.ascii	"ptrjob\000"
 18059      6F6200
 18060              	.LASF397:
 18061 1286 45455052 		.ascii	"EEPROM_DISPENSER_PUMP4_PPU_INFO_PAGE\000"
 18061      4F4D5F44 
 18061      49535045 
 18061      4E534552 
 18061      5F50554D 
 18062              	.LASF577:
 18063 12ab 486F7365 		.ascii	"HoseDispenser\000"
 18063      44697370 
 18063      656E7365 
 18063      7200
 18064              	.LASF81:
 18065 12b9 5052494E 		.ascii	"PRINTER1_GENERIC_JOB_LOGO\000"
 18065      54455231 
 18065      5F47454E 
 18065      45524943 
 18065      5F4A4F42 
 18066              	.LASF295:
 18067 12d3 5F747261 		.ascii	"_trasactionbuffer\000"
 18067      73616374 
 18067      696F6E62 
 18067      75666665 
ARM GAS  C:\Users\RECEPC~1\AppData\Local\Temp\ccvxjDo6.s 			page 381


 18067      7200
 18068              	.LASF564:
 18069 12e5 46696E64 		.ascii	"FindLRC\000"
 18069      4C524300 
 18070              	.LASF486:
 18071 12ed 50726F63 		.ascii	"ProcessPumpRTHoseVolumeRequestGlobal\000"
 18071      65737350 
 18071      756D7052 
 18071      54486F73 
 18071      65566F6C 
 18072              	.LASF579:
 18073 1312 5F675F70 		.ascii	"_g_pumps\000"
 18073      756D7073 
 18073      00
 18074              	.LASF354:
 18075 131b 456E7175 		.ascii	"Enqueue\000"
 18075      65756500 
 18076              	.LASF535:
 18077 1323 7073696E 		.ascii	"psinkmsg\000"
 18077      6B6D7367 
 18077      00
 18078              	.LASF492:
 18079 132c 50726F63 		.ascii	"ProcessPumpTotalsDataEnd\000"
 18079      65737350 
 18079      756D7054 
 18079      6F74616C 
 18079      73446174 
 18080              	.LASF274:
 18081 1345 50756D70 		.ascii	"PumpAuthorizationInfo\000"
 18081      41757468 
 18081      6F72697A 
 18081      6174696F 
 18081      6E496E66 
 18082              	.LASF398:
 18083 135b 45455052 		.ascii	"EEPROM_INSEPET_RESERVED_PAGE1\000"
 18083      4F4D5F49 
 18083      4E534550 
 18083      45545F52 
 18083      45534552 
 18084              	.LASF399:
 18085 1379 45455052 		.ascii	"EEPROM_INSEPET_RESERVED_PAGE2\000"
 18085      4F4D5F49 
 18085      4E534550 
 18085      45545F52 
 18085      45534552 
 18086              	.LASF400:
 18087 1397 45455052 		.ascii	"EEPROM_INSEPET_RESERVED_PAGE3\000"
 18087      4F4D5F49 
 18087      4E534550 
 18087      45545F52 
 18087      45534552 
 18088              	.LASF401:
 18089 13b5 45455052 		.ascii	"EEPROM_INSEPET_RESERVED_PAGE4\000"
 18089      4F4D5F49 
 18089      4E534550 
 18089      45545F52 
 18089      45534552 
ARM GAS  C:\Users\RECEPC~1\AppData\Local\Temp\ccvxjDo6.s 			page 382


 18090              	.LASF292:
 18091 13d3 5F727476 		.ascii	"_rtvolumeamount\000"
 18091      6F6C756D 
 18091      65616D6F 
 18091      756E7400 
 18092              	.LASF335:
 18093 13e3 5F64656C 		.ascii	"_delay\000"
 18093      617900
 18094              	.LASF393:
 18095 13ea 45455052 		.ascii	"EEPROM_DISPENSER_PUMP4_PRODUCT_NAMES_PAGE\000"
 18095      4F4D5F44 
 18095      49535045 
 18095      4E534552 
 18095      5F50554D 
 18096              	.LASF442:
 18097 1414 52465F4D 		.ascii	"RF_MUX_PENDING_CREDIT_SALE_REQUEST\000"
 18097      55585F50 
 18097      454E4449 
 18097      4E475F43 
 18097      52454449 
 18098              	.LASF571:
 18099 1437 73686966 		.ascii	"shiftcount\000"
 18099      74636F75 
 18099      6E7400
 18100              	.LASF33:
 18101 1442 414C4C49 		.ascii	"ALLINTERESTEDFOREVER\000"
 18101      4E544552 
 18101      45535445 
 18101      44464F52 
 18101      45564552 
 18102              	.LASF554:
 18103 1457 41637175 		.ascii	"AcquirePumpSpecialFunctionResponseResolver\000"
 18103      69726550 
 18103      756D7053 
 18103      70656369 
 18103      616C4675 
 18104              	.LASF359:
 18105 1482 5F696E63 		.ascii	"_inconfiguration\000"
 18105      6F6E6669 
 18105      67757261 
 18105      74696F6E 
 18105      00
 18106              	.LASF234:
 18107 1493 5F50554D 		.ascii	"_PUMP_STATE_\000"
 18107      505F5354 
 18107      4154455F 
 18107      00
 18108              	.LASF565:
 18109 14a0 496E6974 		.ascii	"InitiateTransaction\000"
 18109      69617465 
 18109      5472616E 
 18109      73616374 
 18109      696F6E00 
 18110              	.LASF7:
 18111 14b4 6C6F6E67 		.ascii	"long unsigned int\000"
 18111      20756E73 
 18111      69676E65 
ARM GAS  C:\Users\RECEPC~1\AppData\Local\Temp\ccvxjDo6.s 			page 383


 18111      6420696E 
 18111      7400
 18112              	.LASF239:
 18113 14c6 5F50554D 		.ascii	"_PUMP_PROGRAM_MODE_\000"
 18113      505F5052 
 18113      4F475241 
 18113      4D5F4D4F 
 18113      44455F00 
 18114              	.LASF187:
 18115 14da 44495350 		.ascii	"DISPLAY_DUMMY0\000"
 18115      4C41595F 
 18115      44554D4D 
 18115      593000
 18116              	.LASF188:
 18117 14e9 44495350 		.ascii	"DISPLAY_DUMMY1\000"
 18117      4C41595F 
 18117      44554D4D 
 18117      593100
 18118              	.LASF189:
 18119 14f8 44495350 		.ascii	"DISPLAY_DUMMY2\000"
 18119      4C41595F 
 18119      44554D4D 
 18119      593200
 18120              	.LASF190:
 18121 1507 44495350 		.ascii	"DISPLAY_DUMMY3\000"
 18121      4C41595F 
 18121      44554D4D 
 18121      593300
 18122              	.LASF246:
 18123 1516 5F50554D 		.ascii	"_PUMP_UNKNOWN_\000"
 18123      505F554E 
 18123      4B4E4F57 
 18123      4E5F00
 18124              	.LASF529:
 18125 1525 50756D70 		.ascii	"PumpStopAllRequest\000"
 18125      53746F70 
 18125      416C6C52 
 18125      65717565 
 18125      737400
 18126              	.LASF167:
 18127 1538 44495350 		.ascii	"DISPLAY_IMPRIMIENDO_RECIBO\000"
 18127      4C41595F 
 18127      494D5052 
 18127      494D4945 
 18127      4E444F5F 
 18128              	.LASF481:
 18129 1553 41637175 		.ascii	"AcquirePumpStateResponse\000"
 18129      69726550 
 18129      756D7053 
 18129      74617465 
 18129      52657370 
 18130              	.LASF480:
 18131 156c 70726576 		.ascii	"prevrfstate\000"
 18131      72667374 
 18131      61746500 
 18132              	.LASF429:
 18133 1578 52465F4D 		.ascii	"RF_MUX_CASH_SALE_END_REPORT_RESPONSE\000"
ARM GAS  C:\Users\RECEPC~1\AppData\Local\Temp\ccvxjDo6.s 			page 384


 18133      55585F43 
 18133      4153485F 
 18133      53414C45 
 18133      5F454E44 
 18134              	.LASF430:
 18135 159d 52465F4D 		.ascii	"RF_MUX_TOTALS_REQUEST\000"
 18135      55585F54 
 18135      4F54414C 
 18135      535F5245 
 18135      51554553 
 18136              	.LASF49:
 18137 15b3 5F706461 		.ascii	"_pdata\000"
 18137      746100
 18138              	.LASF566:
 18139 15ba 5465726D 		.ascii	"TerminateTransaction\000"
 18139      696E6174 
 18139      65547261 
 18139      6E736163 
 18139      74696F6E 
 18140              	.LASF198:
 18141 15cf 5F504F49 		.ascii	"_POINT_AS_DECIMAL_SEPARATOR_\000"
 18141      4E545F41 
 18141      535F4445 
 18141      43494D41 
 18141      4C5F5345 
 18142              	.LASF284:
 18143 15ec 5F726573 		.ascii	"_restoreprice\000"
 18143      746F7265 
 18143      70726963 
 18143      6500
 18144              	.LASF327:
 18145 15fa 46696E61 		.ascii	"Finalization\000"
 18145      6C697A61 
 18145      74696F6E 
 18145      00
 18146              	.LASF50:
 18147 1607 43616C6C 		.ascii	"Callback\000"
 18147      6261636B 
 18147      00
 18148              	.LASF62:
 18149 1610 44495350 		.ascii	"DISPENSER_ACQUIRE_PUMP_HOSE\000"
 18149      454E5345 
 18149      525F4143 
 18149      51554952 
 18149      455F5055 
 18150              	.LASF501:
 18151 162c 70747374 		.ascii	"ptstemp\000"
 18151      656D7000 
 18152              	.LASF550:
 18153 1634 41637175 		.ascii	"AcquirePumpEnumeratorResponse\000"
 18153      69726550 
 18153      756D7045 
 18153      6E756D65 
 18153      7261746F 
 18154              	.LASF343:
 18155 1652 5F707265 		.ascii	"_prequest\000"
 18155      71756573 
ARM GAS  C:\Users\RECEPC~1\AppData\Local\Temp\ccvxjDo6.s 			page 385


 18155      7400
 18156              	.LASF471:
 18157 165c 5F74696D 		.ascii	"_timeouttoautonomous\000"
 18157      656F7574 
 18157      746F6175 
 18157      746F6E6F 
 18157      6D6F7573 
 18158              	.LASF557:
 18159 1671 5072696D 		.ascii	"PrimeActivateProgramming\000"
 18159      65416374 
 18159      69766174 
 18159      6550726F 
 18159      6772616D 
 18160              	.LASF456:
 18161 168a 52465F4D 		.ascii	"RF_MUX_NULL\000"
 18161      55585F4E 
 18161      554C4C00 
 18162              	.LASF132:
 18163 1696 55415254 		.ascii	"UART_DISPENSER\000"
 18163      5F444953 
 18163      50454E53 
 18163      455200
 18164              	.LASF160:
 18165 16a5 44495350 		.ascii	"DISPLAY_ID_RECONOCIDO\000"
 18165      4C41595F 
 18165      49445F52 
 18165      45434F4E 
 18165      4F434944 
 18166              	.LASF341:
 18167 16bb 5F74696D 		.ascii	"_timeoutseed\000"
 18167      656F7574 
 18167      73656564 
 18167      00
 18168              	.LASF546:
 18169 16c8 72657476 		.ascii	"retval\000"
 18169      616C00
 18170              	.LASF415:
 18171 16cf 45455052 		.ascii	"EEPROM_DISPENSER_PUMP42_TRANSACTION_PAGE\000"
 18171      4F4D5F44 
 18171      49535045 
 18171      4E534552 
 18171      5F50554D 
 18172              	.LASF275:
 18173 16f8 5F50554D 		.ascii	"_PUMP_LAYOUT_\000"
 18173      505F4C41 
 18173      594F5554 
 18173      5F00
 18174              	.LASF556:
 18175 1706 41637175 		.ascii	"AcquirePpuChangeResponse\000"
 18175      69726550 
 18175      70754368 
 18175      616E6765 
 18175      52657370 
 18176              	.LASF517:
 18177 171f 62756666 		.ascii	"buffndx\000"
 18177      6E647800 
 18178              	.LASF96:
ARM GAS  C:\Users\RECEPC~1\AppData\Local\Temp\ccvxjDo6.s 			page 386


 18179 1727 57415443 		.ascii	"WATCHDOG_STARTUP\000"
 18179      48444F47 
 18179      5F535441 
 18179      52545550 
 18179      00
 18180              	.LASF184:
 18181 1738 44495350 		.ascii	"DISPLAY_IMPRESORA_NO_FUNCIONANDO\000"
 18181      4C41595F 
 18181      494D5052 
 18181      45534F52 
 18181      415F4E4F 
 18182              	.LASF75:
 18183 1759 5052494E 		.ascii	"PRINTER11_JOB\000"
 18183      54455231 
 18183      315F4A4F 
 18183      4200
 18184              	.LASF562:
 18185 1767 4765744C 		.ascii	"GetLRC\000"
 18185      524300
 18186              	.LASF151:
 18187 176e 44495350 		.ascii	"DISPLAY_INGRESE_PASSWORD\000"
 18187      4C41595F 
 18187      494E4752 
 18187      4553455F 
 18187      50415353 
 18188              	.LASF431:
 18189 1787 52465F4D 		.ascii	"RF_MUX_TOTALS_RESPONSE\000"
 18189      55585F54 
 18189      4F54414C 
 18189      535F5245 
 18189      53504F4E 
 18190              	.LASF8:
 18191 179e 6C6F6E67 		.ascii	"long long int\000"
 18191      206C6F6E 
 18191      6720696E 
 18191      7400
 18192              	.LASF330:
 18193 17ac 5F747261 		.ascii	"_transactionname\000"
 18193      6E736163 
 18193      74696F6E 
 18193      6E616D65 
 18193      00
 18194              	.LASF172:
 18195 17bd 44495350 		.ascii	"DISPLAY_AUTORIZACION_ACEPTADA\000"
 18195      4C41595F 
 18195      4155544F 
 18195      52495A41 
 18195      43494F4E 
 18196              	.LASF150:
 18197 17db 44495350 		.ascii	"DISPLAY_DESEA_IMPRIMIR_RECIBO\000"
 18197      4C41595F 
 18197      44455345 
 18197      415F494D 
 18197      5052494D 
 18198              	.LASF156:
 18199 17f9 44495350 		.ascii	"DISPLAY_GRACIAS_VUELVA_PRONTO\000"
 18199      4C41595F 
ARM GAS  C:\Users\RECEPC~1\AppData\Local\Temp\ccvxjDo6.s 			page 387


 18199      47524143 
 18199      4941535F 
 18199      5655454C 
 18200              	.LASF459:
 18201 1817 52465F44 		.ascii	"RF_DELIVERING\000"
 18201      454C4956 
 18201      4552494E 
 18201      4700
 18202              	.LASF60:
 18203 1825 44495350 		.ascii	"DISPENSER_UPDATE_PUMP_TRANSACTION_TIMEOUTS\000"
 18203      454E5345 
 18203      525F5550 
 18203      44415445 
 18203      5F50554D 
 18204              	.LASF440:
 18205 1850 52465F4D 		.ascii	"RF_MUX_CASH_SALE_PRINT_REQUEST\000"
 18205      55585F43 
 18205      4153485F 
 18205      53414C45 
 18205      5F505249 
 18206              	.LASF543:
 18207 186f 70747262 		.ascii	"ptrbuff\000"
 18207      75666600 
 18208              	.LASF117:
 18209 1877 436C6561 		.ascii	"ClearTxBuffer\000"
 18209      72547842 
 18209      75666665 
 18209      7200
 18210              	.LASF18:
 18211 1885 646F7562 		.ascii	"double\000"
 18211      6C6500
 18212              	.LASF411:
 18213 188c 45455052 		.ascii	"EEPROM_DISPENSER_PUMP32_TRANSACTION_PAGE\000"
 18213      4F4D5F44 
 18213      49535045 
 18213      4E534552 
 18213      5F50554D 
 18214              	.LASF152:
 18215 18b5 44495350 		.ascii	"DISPLAY_PASSWORD_VALIDO\000"
 18215      4C41595F 
 18215      50415353 
 18215      574F5244 
 18215      5F56414C 
 18216              	.LASF588:
 18217 18cd 433A5C54 		.ascii	"C:\\TeamInsepet\\NSX-Prime\\Hardware\\CorEx-MUX-Ker"
 18217      65616D49 
 18217      6E736570 
 18217      65745C4E 
 18217      53582D50 
 18218 18fc 6E656C2D 		.ascii	"nel-Enhanced\\Workspace01\\CorEx-Mux-Kernel.cydsn\000"
 18218      456E6861 
 18218      6E636564 
 18218      5C576F72 
 18218      6B737061 
 18219              	.LASF144:
 18220 192c 44495350 		.ascii	"DISPLAY_SELECCIONE_PRODUCTO3\000"
 18220      4C41595F 
ARM GAS  C:\Users\RECEPC~1\AppData\Local\Temp\ccvxjDo6.s 			page 388


 18220      53454C45 
 18220      4343494F 
 18220      4E455F50 
 18221              	.LASF145:
 18222 1949 44495350 		.ascii	"DISPLAY_SELECCIONE_PRODUCTO4\000"
 18222      4C41595F 
 18222      53454C45 
 18222      4343494F 
 18222      4E455F50 
 18223              	.LASF209:
 18224 1966 50554D50 		.ascii	"PUMP_ALL_PUMPS_STOP\000"
 18224      5F414C4C 
 18224      5F50554D 
 18224      50535F53 
 18224      544F5000 
 18225              	.LASF587:
 18226 197a 2E5C5072 		.ascii	".\\PrimeImpl.c\000"
 18226      696D6549 
 18226      6D706C2E 
 18226      6300
 18227              	.LASF153:
 18228 1988 44495350 		.ascii	"DISPLAY_PASSWORD_INVALIDO\000"
 18228      4C41595F 
 18228      50415353 
 18228      574F5244 
 18228      5F494E56 
 18229              	.LASF291:
 18230 19a2 5F72746D 		.ascii	"_rtmoneyamount\000"
 18230      6F6E6579 
 18230      616D6F75 
 18230      6E7400
 18231              	.LASF576:
 18232 19b1 49544D5F 		.ascii	"ITM_RxBuffer\000"
 18232      52784275 
 18232      66666572 
 18232      00
 18233              	.LASF39:
 18234 19be 5F73656C 		.ascii	"_selfkill\000"
 18234      666B696C 
 18234      6C00
 18235              	.LASF17:
 18236 19c8 666C6F61 		.ascii	"float\000"
 18236      7400
 18237              	.LASF540:
 18238 19ce 70747265 		.ascii	"ptreeprom\000"
 18238      6570726F 
 18238      6D00
 18239              	.LASF414:
 18240 19d8 45455052 		.ascii	"EEPROM_DISPENSER_PUMP41_TRANSACTION_PAGE\000"
 18240      4F4D5F44 
 18240      49535045 
 18240      4E534552 
 18240      5F50554D 
 18241              	.LASF248:
 18242 1a01 5F50554D 		.ascii	"_PUMP_OK_\000"
 18242      505F4F4B 
 18242      5F00
ARM GAS  C:\Users\RECEPC~1\AppData\Local\Temp\ccvxjDo6.s 			page 389


 18243              	.LASF402:
 18244 1a0b 45455052 		.ascii	"EEPROM_DISPENSER_PUMP11_TRANSACTION_PAGE\000"
 18244      4F4D5F44 
 18244      49535045 
 18244      4E534552 
 18244      5F50554D 
 18245              	.LASF567:
 18246 1a34 5465726D 		.ascii	"TerminateTransactionAndPrint\000"
 18246      696E6174 
 18246      65547261 
 18246      6E736163 
 18246      74696F6E 
 18247              	.LASF584:
 18248 1a51 5F675F70 		.ascii	"_g_ptractprogramming\000"
 18248      74726163 
 18248      7470726F 
 18248      6772616D 
 18248      6D696E67 
 18249              	.LASF266:
 18250 1a66 50756D70 		.ascii	"PumpDataContainer\000"
 18250      44617461 
 18250      436F6E74 
 18250      61696E65 
 18250      7200
 18251              	.LASF336:
 18252 1a78 5F64656C 		.ascii	"_delaymultiplier\000"
 18252      61796D75 
 18252      6C746970 
 18252      6C696572 
 18252      00
 18253              	.LASF585:
 18254 1a89 5F675F73 		.ascii	"_g_sfcharmap\000"
 18254      66636861 
 18254      726D6170 
 18254      00
 18255              	.LASF270:
 18256 1a96 5F707269 		.ascii	"_price\000"
 18256      636500
 18257              	.LASF10:
 18258 1a9d 756E7369 		.ascii	"unsigned int\000"
 18258      676E6564 
 18258      20696E74 
 18258      00
 18259              	.LASF112:
 18260 1aaa 52656164 		.ascii	"ReadTxStatus\000"
 18260      54785374 
 18260      61747573 
 18260      00
 18261              	.LASF526:
 18262 1ab7 50756D70 		.ascii	"PumpDefault2CreditPpuChange\000"
 18262      44656661 
 18262      756C7432 
 18262      43726564 
 18262      69745070 
 18263              	.LASF324:
 18264 1ad3 5F6F6E65 		.ascii	"_oneshotpostconditions\000"
 18264      73686F74 
ARM GAS  C:\Users\RECEPC~1\AppData\Local\Temp\ccvxjDo6.s 			page 390


 18264      706F7374 
 18264      636F6E64 
 18264      6974696F 
 18265              	.LASF525:
 18266 1aea 62756666 		.ascii	"bufferlength\000"
 18266      65726C65 
 18266      6E677468 
 18266      00
 18267              	.LASF158:
 18268 1af7 44495350 		.ascii	"DISPLAY_ID_NO_RECONOCIDO\000"
 18268      4C41595F 
 18268      49445F4E 
 18268      4F5F5245 
 18268      434F4E4F 
 18269              	.LASF52:
 18270 1b10 5053494E 		.ascii	"PSINKMESSAGEPTR\000"
 18270      4B4D4553 
 18270      53414745 
 18270      50545200 
 18271              	.LASF545:
 18272 1b20 62756666 		.ascii	"buffersize\000"
 18272      65727369 
 18272      7A6500
 18273              	.LASF569:
 18274 1b2b 64656C69 		.ascii	"delimiterindex\000"
 18274      6D697465 
 18274      72696E64 
 18274      657800
 18275              	.LASF149:
 18276 1b3a 44495350 		.ascii	"DISPLAY_DIGITE_PLACA\000"
 18276      4C41595F 
 18276      44494749 
 18276      54455F50 
 18276      4C414341 
 18277              	.LASF27:
 18278 1b4f 42524F41 		.ascii	"BROADCAST\000"
 18278      44434153 
 18278      5400
 18279              	.LASF98:
 18280 1b59 5F554152 		.ascii	"_UART_MANAGER_\000"
 18280      545F4D41 
 18280      4E414745 
 18280      525F00
 18281              	.LASF499:
 18282 1b68 6E756D68 		.ascii	"numhoses\000"
 18282      6F736573 
 18282      00
 18283              	.LASF497:
 18284 1b71 50726F63 		.ascii	"ProcessPumpTotalsDataReport\000"
 18284      65737350 
 18284      756D7054 
 18284      6F74616C 
 18284      73446174 
 18285              	.LASF349:
 18286 1b8d 5F717565 		.ascii	"_queueindex\000"
 18286      7565696E 
 18286      64657800 
ARM GAS  C:\Users\RECEPC~1\AppData\Local\Temp\ccvxjDo6.s 			page 391


 18287              	.LASF547:
 18288 1b99 6D73676C 		.ascii	"msglength\000"
 18288      656E6774 
 18288      6800
 18289              	.LASF589:
 18290 1ba3 5F706F69 		.ascii	"_pointcommadecimalmode\000"
 18290      6E74636F 
 18290      6D6D6164 
 18290      6563696D 
 18290      616C6D6F 
 18291              	.LASF410:
 18292 1bba 45455052 		.ascii	"EEPROM_DISPENSER_PUMP31_TRANSACTION_PAGE\000"
 18292      4F4D5F44 
 18292      49535045 
 18292      4E534552 
 18292      5F50554D 
 18293              	.LASF135:
 18294 1be3 55415254 		.ascii	"UART_NULL\000"
 18294      5F4E554C 
 18294      4C00
 18295              	.LASF428:
 18296 1bed 52465F4D 		.ascii	"RF_MUX_CASH_SALE_END_REPORT_REQUEST\000"
 18296      55585F43 
 18296      4153485F 
 18296      53414C45 
 18296      5F454E44 
 18297              	.LASF235:
 18298 1c11 5F50554D 		.ascii	"_PUMP_ACTIVE_HOSE_\000"
 18298      505F4143 
 18298      54495645 
 18298      5F484F53 
 18298      455F00
 18299              	.LASF532:
 18300 1c24 50756D70 		.ascii	"PumpCompleteConfiguration\000"
 18300      436F6D70 
 18300      6C657465 
 18300      436F6E66 
 18300      69677572 
 18301              	.LASF518:
 18302 1c3e 50756D70 		.ascii	"PumpCreditPresetHose\000"
 18302      43726564 
 18302      69745072 
 18302      65736574 
 18302      486F7365 
 18303              	.LASF575:
 18304 1c53 70747273 		.ascii	"ptrstr\000"
 18304      747200
 18305              	.LASF347:
 18306 1c5a 5050554D 		.ascii	"PPUMPTRANSACTIONJOBCONTEXTPTR\000"
 18306      50545241 
 18306      4E534143 
 18306      54494F4E 
 18306      4A4F4243 
 18307              	.LASF403:
 18308 1c78 45455052 		.ascii	"EEPROM_DISPENSER_PUMP12_TRANSACTION_PAGE\000"
 18308      4F4D5F44 
 18308      49535045 
ARM GAS  C:\Users\RECEPC~1\AppData\Local\Temp\ccvxjDo6.s 			page 392


 18308      4E534552 
 18308      5F50554D 
 18309              	.LASF541:
 18310 1ca1 626C6B69 		.ascii	"blkindex\000"
 18310      6E646578 
 18310      00
 18311              	.LASF104:
 18312 1caa 57726974 		.ascii	"WriteControlRegister\000"
 18312      65436F6E 
 18312      74726F6C 
 18312      52656769 
 18312      73746572 
 18313              	.LASF94:
 18314 1cbf 474C4F42 		.ascii	"GLOBAL_TICK_NOTIFICATION\000"
 18314      414C5F54 
 18314      49434B5F 
 18314      4E4F5449 
 18314      46494341 
 18315              	.LASF217:
 18316 1cd8 50554D50 		.ascii	"PUMP_CALLING\000"
 18316      5F43414C 
 18316      4C494E47 
 18316      00
 18317              	.LASF28:
 18318 1ce5 46495253 		.ascii	"FIRSTFOUND\000"
 18318      54464F55 
 18318      4E4400
 18319              	.LASF464:
 18320 1cf0 52465F45 		.ascii	"RF_ERROR\000"
 18320      52524F52 
 18320      00
 18321              	.LASF24:
 18322 1cf9 4C50564F 		.ascii	"LPVOID\000"
 18322      494400
 18323              	.LASF73:
 18324 1d00 44495350 		.ascii	"DISPENSER_PUMP_HANDLER\000"
 18324      454E5345 
 18324      525F5055 
 18324      4D505F48 
 18324      414E444C 
 18325              	.LASF340:
 18326 1d17 5F726574 		.ascii	"_retriescounter\000"
 18326      72696573 
 18326      636F756E 
 18326      74657200 
 18327              	.LASF109:
 18328 1d27 47657452 		.ascii	"GetRxBufferSize\000"
 18328      78427566 
 18328      66657253 
 18328      697A6500 
 18329              	.LASF293:
 18330 1d37 5F747261 		.ascii	"_transhealth\000"
 18330      6E736865 
 18330      616C7468 
 18330      00
 18331              	.LASF460:
 18332 1d44 52465F43 		.ascii	"RF_CASHSALEREPORT\000"
ARM GAS  C:\Users\RECEPC~1\AppData\Local\Temp\ccvxjDo6.s 			page 393


 18332      41534853 
 18332      414C4552 
 18332      45504F52 
 18332      5400
 18333              	.LASF548:
 18334 1d56 72656D62 		.ascii	"remblocks\000"
 18334      6C6F636B 
 18334      7300
 18335              	.LASF406:
 18336 1d60 45455052 		.ascii	"EEPROM_DISPENSER_PUMP21_TRANSACTION_PAGE\000"
 18336      4F4D5F44 
 18336      49535045 
 18336      4E534552 
 18336      5F50554D 
 18337              	.LASF191:
 18338 1d89 44495350 		.ascii	"DISPLAY_SIDE_DUMMY_DISPLAY\000"
 18338      4C41595F 
 18338      53494445 
 18338      5F44554D 
 18338      4D595F44 
 18339              	.LASF174:
 18340 1da4 44495350 		.ascii	"DISPLAY_CONFIGURAR_FECHA_HORA\000"
 18340      4C41595F 
 18340      434F4E46 
 18340      49475552 
 18340      41525F46 
 18341              	.LASF433:
 18342 1dc2 52465F4D 		.ascii	"RF_MUX_TOTALS_REPORT_RESPONSE\000"
 18342      55585F54 
 18342      4F54414C 
 18342      535F5245 
 18342      504F5254 
 18343              	.LASF54:
 18344 1de0 55415254 		.ascii	"UART_RF_RECEPTION\000"
 18344      5F52465F 
 18344      52454345 
 18344      5054494F 
 18344      4E00
 18345              	.LASF313:
 18346 1df2 5F50554D 		.ascii	"_PUMP_TRANSACTION_JOB_\000"
 18346      505F5452 
 18346      414E5341 
 18346      4354494F 
 18346      4E5F4A4F 
 18347              	.LASF197:
 18348 1e09 5F444543 		.ascii	"_DECIMAL_SEPARATOR_\000"
 18348      494D414C 
 18348      5F534550 
 18348      41524154 
 18348      4F525F00 
 18349              	.LASF267:
 18350 1e1d 5F617574 		.ascii	"_authorized\000"
 18350      686F7269 
 18350      7A656400 
 18351              	.LASF23:
 18352 1e29 6C6F6E67 		.ascii	"long double\000"
 18352      20646F75 
ARM GAS  C:\Users\RECEPC~1\AppData\Local\Temp\ccvxjDo6.s 			page 394


 18352      626C6500 
 18353              	.LASF353:
 18354 1e35 416C6C6F 		.ascii	"Allocate\000"
 18354      63617465 
 18354      00
 18355              	.LASF201:
 18356 1e3e 50554D50 		.ascii	"PUMP_STATE_REQUEST\000"
 18356      5F535441 
 18356      54455F52 
 18356      45515545 
 18356      535400
 18357              	.LASF227:
 18358 1e51 5F50554D 		.ascii	"_PUMP_FILL_BY_VOLUME_\000"
 18358      505F4649 
 18358      4C4C5F42 
 18358      595F564F 
 18358      4C554D45 
 18359              	.LASF521:
 18360 1e67 50756D70 		.ascii	"PumpCreditPresetNotification\000"
 18360      43726564 
 18360      69745072 
 18360      65736574 
 18360      4E6F7469 
 18361              	.LASF251:
 18362 1e84 5F747261 		.ascii	"_transtate\000"
 18362      6E737461 
 18362      746500
 18363              	.LASF215:
 18364 1e8f 50554D50 		.ascii	"PUMP_FAIL\000"
 18364      5F464149 
 18364      4C00
 18365              	.LASF101:
 18366 1e99 53746172 		.ascii	"Start\000"
 18366      7400
 18367              	.LASF123:
 18368 1e9f 5F554152 		.ascii	"_UART_MESSAGE_\000"
 18368      545F4D45 
 18368      53534147 
 18368      455F00
 18369              	.LASF169:
 18370 1eae 44495350 		.ascii	"DISPLAY_OPERACION_CANCELADA\000"
 18370      4C41595F 
 18370      4F504552 
 18370      4143494F 
 18370      4E5F4341 
 18371              	.LASF164:
 18372 1eca 44495350 		.ascii	"DISPLAY_OPERACIONES\000"
 18372      4C41595F 
 18372      4F504552 
 18372      4143494F 
 18372      4E455300 
 18373              	.LASF221:
 18374 1ede 50554D50 		.ascii	"PUMP_FEOT\000"
 18374      5F46454F 
 18374      5400
 18375              	.LASF323:
 18376 1ee8 5F707265 		.ascii	"_preconditions\000"
ARM GAS  C:\Users\RECEPC~1\AppData\Local\Temp\ccvxjDo6.s 			page 395


 18376      636F6E64 
 18376      6974696F 
 18376      6E7300
 18377              	.LASF312:
 18378 1ef7 504E4541 		.ascii	"PNEAR_PUMPPTR\000"
 18378      525F5055 
 18378      4D505054 
 18378      5200
 18379              	.LASF128:
 18380 1f05 50554152 		.ascii	"PUARTMESSAGEPTR\000"
 18380      544D4553 
 18380      53414745 
 18380      50545200 
 18381              	.LASF362:
 18382 1f15 5F686F73 		.ascii	"_hosesposition1\000"
 18382      6573706F 
 18382      73697469 
 18382      6F6E3100 
 18383              	.LASF280:
 18384 1f25 5F686F73 		.ascii	"_hoseactivestate\000"
 18384      65616374 
 18384      69766573 
 18384      74617465 
 18384      00
 18385              	.LASF364:
 18386 1f36 5F686F73 		.ascii	"_hosesposition3\000"
 18386      6573706F 
 18386      73697469 
 18386      6F6E3300 
 18387              	.LASF365:
 18388 1f46 5F686F73 		.ascii	"_hosesposition4\000"
 18388      6573706F 
 18388      73697469 
 18388      6F6E3400 
 18389              	.LASF154:
 18390 1f56 44495350 		.ascii	"DISPLAY_NUEVO_PASSWORD\000"
 18390      4C41595F 
 18390      4E554556 
 18390      4F5F5041 
 18390      5353574F 
 18391              	.LASF371:
 18392 1f6d 5F6D696E 		.ascii	"_minvolumevalue\000"
 18392      766F6C75 
 18392      6D657661 
 18392      6C756500 
 18393              	.LASF316:
 18394 1f7d 54696D65 		.ascii	"TimeoutCallback\000"
 18394      6F757443 
 18394      616C6C62 
 18394      61636B00 
 18395              	.LASF310:
 18396 1f8d 436C6561 		.ascii	"CleanUp\000"
 18396      6E557000 
 18397              	.LASF159:
 18398 1f95 44495350 		.ascii	"DISPLAY_ESPERANDO_ID\000"
 18398      4C41595F 
 18398      45535045 
ARM GAS  C:\Users\RECEPC~1\AppData\Local\Temp\ccvxjDo6.s 			page 396


 18398      52414E44 
 18398      4F5F4944 
 18399              	.LASF350:
 18400 1faa 5F6A6F62 		.ascii	"_jobqueueheap\000"
 18400      71756575 
 18400      65686561 
 18400      7000
 18401              	.LASF395:
 18402 1fb8 45455052 		.ascii	"EEPROM_DISPENSER_PUMP2_PPU_INFO_PAGE\000"
 18402      4F4D5F44 
 18402      49535045 
 18402      4E534552 
 18402      5F50554D 
 18403              	.LASF311:
 18404 1fdd 50756D70 		.ascii	"Pump\000"
 18404      00
 18405              	.LASF240:
 18406 1fe2 5F50554D 		.ascii	"_PUMP_STOP_\000"
 18406      505F5354 
 18406      4F505F00 
 18407              	.LASF140:
 18408 1fee 44495350 		.ascii	"DISPLAY_FORMA_PAGO_DESEADA\000"
 18408      4C41595F 
 18408      464F524D 
 18408      415F5041 
 18408      474F5F44 
 18409              	.LASF478:
 18410 2009 706A6F62 		.ascii	"pjob\000"
 18410      00
 18411              	.LASF9:
 18412 200e 6C6F6E67 		.ascii	"long long unsigned int\000"
 18412      206C6F6E 
 18412      6720756E 
 18412      7369676E 
 18412      65642069 
 18413              	.LASF231:
 18414 2025 5F50554D 		.ascii	"_PUMP_PPU_CHANGE_\000"
 18414      505F5050 
 18414      555F4348 
 18414      414E4745 
 18414      5F00
 18415              	.LASF115:
 18416 2037 50757441 		.ascii	"PutArray\000"
 18416      72726179 
 18416      00
 18417              	.LASF294:
 18418 2040 5F706375 		.ascii	"_pcurrtransaction\000"
 18418      72727472 
 18418      616E7361 
 18418      6374696F 
 18418      6E00
 18419              	.LASF441:
 18420 2052 52465F4D 		.ascii	"RF_MUX_CASH_SALE_PRINT_RESPONSE\000"
 18420      55585F43 
 18420      4153485F 
 18420      53414C45 
 18420      5F505249 
ARM GAS  C:\Users\RECEPC~1\AppData\Local\Temp\ccvxjDo6.s 			page 397


 18421              	.LASF346:
 18422 2072 50756D70 		.ascii	"PumpTransactionJobContext\000"
 18422      5472616E 
 18422      73616374 
 18422      696F6E4A 
 18422      6F62436F 
 18423              	.LASF360:
 18424 208c 5F637572 		.ascii	"_currentloopopen\000"
 18424      72656E74 
 18424      6C6F6F70 
 18424      6F70656E 
 18424      00
 18425              	.LASF220:
 18426 209d 50554D50 		.ascii	"PUMP_PEOT\000"
 18426      5F50454F 
 18426      5400
 18427              	.LASF57:
 18428 20a7 53494E4B 		.ascii	"SINK_UPDATE_COUNTERS\000"
 18428      5F555044 
 18428      4154455F 
 18428      434F554E 
 18428      54455253 
 18429              	.LASF103:
 18430 20bc 52656164 		.ascii	"ReadControlRegister\000"
 18430      436F6E74 
 18430      726F6C52 
 18430      65676973 
 18430      74657200 
 18431              	.LASF452:
 18432 20d0 52465F4D 		.ascii	"RF_MUX_ISLAND_ADMIN_REQUEST\000"
 18432      55585F49 
 18432      534C414E 
 18432      445F4144 
 18432      4D494E5F 
 18433              	.LASF257:
 18434 20ec 5F766172 		.ascii	"_var3\000"
 18434      3300
 18435              	.LASF258:
 18436 20f2 5F766172 		.ascii	"_var4\000"
 18436      3400
 18437              	.LASF319:
 18438 20f8 5F726570 		.ascii	"_repushtimeoutlimit\000"
 18438      75736874 
 18438      696D656F 
 18438      75746C69 
 18438      6D697400 
 18439              	.LASF66:
 18440 210c 44495350 		.ascii	"DISPENSER_LOAD_EEPROM_SETTINGS\000"
 18440      454E5345 
 18440      525F4C4F 
 18440      41445F45 
 18440      4550524F 
 18441              	.LASF271:
 18442 212b 5F707265 		.ascii	"_presetamount\000"
 18442      73657461 
 18442      6D6F756E 
 18442      7400
ARM GAS  C:\Users\RECEPC~1\AppData\Local\Temp\ccvxjDo6.s 			page 398


 18443              	.LASF99:
 18444 2139 5F696465 		.ascii	"_identifier\000"
 18444      6E746966 
 18444      69657200 
 18445              	.LASF444:
 18446 2145 52465F4D 		.ascii	"RF_MUX_LAST_CASH_SALE_REQUEST\000"
 18446      55585F4C 
 18446      4153545F 
 18446      43415348 
 18446      5F53414C 
 18447              	.LASF279:
 18448 2163 5F637572 		.ascii	"_currenthose\000"
 18448      72656E74 
 18448      686F7365 
 18448      00
 18449              	.LASF582:
 18450 2170 5F675F70 		.ascii	"_g_printerlayout\000"
 18450      72696E74 
 18450      65726C61 
 18450      796F7574 
 18450      00
 18451              	.LASF210:
 18452 2181 5F434F4E 		.ascii	"_CONTROL_WORDS_\000"
 18452      54524F4C 
 18452      5F574F52 
 18452      44535F00 
 18453              	.LASF581:
 18454 2191 5F675F72 		.ascii	"_g_rfautorun\000"
 18454      66617574 
 18454      6F72756E 
 18454      00
 18455              	.LASF199:
 18456 219e 5F434F4D 		.ascii	"_COMMA_AS_DECIMAL_SEPARATOR_\000"
 18456      4D415F41 
 18456      535F4445 
 18456      43494D41 
 18456      4C5F5345 
 18457              	.LASF285:
 18458 21bb 5F707265 		.ascii	"_presetdone\000"
 18458      73657464 
 18458      6F6E6500 
 18459              	.LASF561:
 18460 21c7 436F6D70 		.ascii	"ComplementaryCreditTransactionOnHose\000"
 18460      6C656D65 
 18460      6E746172 
 18460      79437265 
 18460      64697454 
 18461              	.LASF108:
 18462 21ec 47657442 		.ascii	"GetByte\000"
 18462      79746500 
 18463              	.LASF375:
 18464 21f4 44697370 		.ascii	"DispenserLayoutInfo\000"
 18464      656E7365 
 18464      724C6179 
 18464      6F757449 
 18464      6E666F00 
 18465              	.LASF527:
ARM GAS  C:\Users\RECEPC~1\AppData\Local\Temp\ccvxjDo6.s 			page 399


 18466 2208 50756D70 		.ascii	"PumpCredit2DefaultPpuChange\000"
 18466      43726564 
 18466      69743244 
 18466      65666175 
 18466      6C745070 
 18467              	.LASF493:
 18468 2224 6C766172 		.ascii	"lvar6\000"
 18468      3600
 18469              	.LASF494:
 18470 222a 6C766172 		.ascii	"lvar7\000"
 18470      3700
 18471              	.LASF495:
 18472 2230 6C766172 		.ascii	"lvar8\000"
 18472      3800
 18473              	.LASF496:
 18474 2236 6C766172 		.ascii	"lvar9\000"
 18474      3900
 18475              	.LASF55:
 18476 223c 55415254 		.ascii	"UART_RF_TEST\000"
 18476      5F52465F 
 18476      54455354 
 18476      00
 18477              	.LASF421:
 18478 2249 52465F4D 		.ascii	"RF_MUX_CREDIT_SERIAL_AUTH_RESPONSE\000"
 18478      55585F43 
 18478      52454449 
 18478      545F5345 
 18478      5249414C 
 18479              	.LASF417:
 18480 226c 45455052 		.ascii	"EEPROM_DISPENSER_PUMP44_TRANSACTION_PAGE\000"
 18480      4F4D5F44 
 18480      49535045 
 18480      4E534552 
 18480      5F50554D 
 18481              	.LASF249:
 18482 2295 5F50554D 		.ascii	"_PUMP_FAIL_\000"
 18482      505F4641 
 18482      494C5F00 
 18483              	.LASF281:
 18484 22a1 5F616371 		.ascii	"_acquiringstate\000"
 18484      75697269 
 18484      6E677374 
 18484      61746500 
 18485              	.LASF485:
 18486 22b1 50726F63 		.ascii	"ProcessPumpRTHoseVolumeRequest\000"
 18486      65737350 
 18486      756D7052 
 18486      54486F73 
 18486      65566F6C 
 18487              	.LASF147:
 18488 22d0 44495350 		.ascii	"DISPLAY_DESPACHANDO\000"
 18488      4C41595F 
 18488      44455350 
 18488      41434841 
 18488      4E444F00 
 18489              	.LASF223:
 18490 22e4 50554D50 		.ascii	"PUMP_SEND_DATA\000"
ARM GAS  C:\Users\RECEPC~1\AppData\Local\Temp\ccvxjDo6.s 			page 400


 18490      5F53454E 
 18490      445F4441 
 18490      544100
 18491              	.LASF254:
 18492 22f3 5F766172 		.ascii	"_var0\000"
 18492      3000
 18493              	.LASF255:
 18494 22f9 5F766172 		.ascii	"_var1\000"
 18494      3100
 18495              	.LASF256:
 18496 22ff 5F766172 		.ascii	"_var2\000"
 18496      3200
 18497              	.LASF175:
 18498 2305 44495350 		.ascii	"DISPLAY_HORA\000"
 18498      4C41595F 
 18498      484F5241 
 18498      00
 18499              	.LASF79:
 18500 2312 5052494E 		.ascii	"PRINTER1_GENERIC_JOB\000"
 18500      54455231 
 18500      5F47454E 
 18500      45524943 
 18500      5F4A4F42 
 18501              	.LASF259:
 18502 2327 5F766172 		.ascii	"_var5\000"
 18502      3500
 18503              	.LASF260:
 18504 232d 5F766172 		.ascii	"_var6\000"
 18504      3600
 18505              	.LASF261:
 18506 2333 5F766172 		.ascii	"_var7\000"
 18506      3700
 18507              	.LASF262:
 18508 2339 5F766172 		.ascii	"_var8\000"
 18508      3800
 18509              	.LASF263:
 18510 233f 5F766172 		.ascii	"_var9\000"
 18510      3900
 18511              	.LASF434:
 18512 2345 52465F4D 		.ascii	"RF_MUX_PRICE_CHANGE_REQUEST\000"
 18512      55585F50 
 18512      52494345 
 18512      5F434841 
 18512      4E47455F 
 18513              	.LASF232:
 18514 2361 5F50554D 		.ascii	"_PUMP_RESTORE_PRICE_\000"
 18514      505F5245 
 18514      53544F52 
 18514      455F5052 
 18514      4943455F 
 18515              	.LASF264:
 18516 2376 5F766172 		.ascii	"_varA\000"
 18516      4100
 18517              	.LASF265:
 18518 237c 5F766172 		.ascii	"_varB\000"
 18518      4200
 18519              	.LASF465:
ARM GAS  C:\Users\RECEPC~1\AppData\Local\Temp\ccvxjDo6.s 			page 401


 18520 2382 52465F43 		.ascii	"RF_COPY_RECEIPT\000"
 18520      4F50595F 
 18520      52454345 
 18520      49505400 
 18521              	.LASF162:
 18522 2392 44495350 		.ascii	"DISPLAY_INTRODUZCA_VOLUMEN\000"
 18522      4C41595F 
 18522      494E5452 
 18522      4F44555A 
 18522      43415F56 
 18523              	.LASF29:
 18524 23ad 414C4C49 		.ascii	"ALLINTERESTED\000"
 18524      4E544552 
 18524      45535445 
 18524      4400
 18525              	.LASF283:
 18526 23bb 5F70656E 		.ascii	"_pendingtransaction\000"
 18526      64696E67 
 18526      7472616E 
 18526      73616374 
 18526      696F6E00 
 18527              	.LASF180:
 18528 23cf 44495350 		.ascii	"DISPLAY_CANCELADO_X_PC\000"
 18528      4C41595F 
 18528      43414E43 
 18528      454C4144 
 18528      4F5F585F 
 18529              	.LASF277:
 18530 23e6 5F70756D 		.ascii	"_pumpindex\000"
 18530      70696E64 
 18530      657800
 18531              	.LASF314:
 18532 23f1 52657175 		.ascii	"Request\000"
 18532      65737400 
 18533              	.LASF487:
 18534 23f9 50726F63 		.ascii	"ProcessPumpTransactionData\000"
 18534      65737350 
 18534      756D7054 
 18534      72616E73 
 18534      61637469 
 18535              	.LASF286:
 18536 2414 5F70756D 		.ascii	"_pumplocked\000"
 18536      706C6F63 
 18536      6B656400 
 18537              	.LASF40:
 18538 2420 5F6D6573 		.ascii	"_messageid\000"
 18538      73616765 
 18538      696400
 18539              	.LASF226:
 18540 242b 5F50554D 		.ascii	"_PUMP_FILL_BY_MONEY_\000"
 18540      505F4649 
 18540      4C4C5F42 
 18540      595F4D4F 
 18540      4E45595F 
 18541              	.LASF121:
 18542 2440 414C4C4F 		.ascii	"ALLOCATED\000"
 18542      43415445 
ARM GAS  C:\Users\RECEPC~1\AppData\Local\Temp\ccvxjDo6.s 			page 402


 18542      4400
 18543              	.LASF13:
 18544 244a 75696E74 		.ascii	"uint8\000"
 18544      3800
 18545              	.LASF113:
 18546 2450 50757443 		.ascii	"PutChar\000"
 18546      68617200 
 18547              	.LASF88:
 18548 2458 44495350 		.ascii	"DISPLAY2_RECEPTION\000"
 18548      4C415932 
 18548      5F524543 
 18548      45505449 
 18548      4F4E00
 18549              	.LASF483:
 18550 246b 70706172 		.ascii	"pparam\000"
 18550      616D00
 18551              	.LASF461:
 18552 2472 52465F43 		.ascii	"RF_CREDITSALEAUTH\000"
 18552      52454449 
 18552      5453414C 
 18552      45415554 
 18552      4800
 18553              	.LASF204:
 18554 2484 50554D50 		.ascii	"PUMP_PUMP_STOP\000"
 18554      5F50554D 
 18554      505F5354 
 18554      4F5000
 18555              	.LASF2:
 18556 2493 73686F72 		.ascii	"short int\000"
 18556      7420696E 
 18556      7400
 18557              	.LASF186:
 18558 249d 44495350 		.ascii	"DISPLAY_PRECIO_POR_UNIDAD\000"
 18558      4C41595F 
 18558      50524543 
 18558      494F5F50 
 18558      4F525F55 
 18559              	.LASF300:
 18560 24b7 50756D70 		.ascii	"PumpTransQueueLock\000"
 18560      5472616E 
 18560      73517565 
 18560      75654C6F 
 18560      636B00
 18561              	.LASF192:
 18562 24ca 44495350 		.ascii	"DISPLAY_NULL\000"
 18562      4C41595F 
 18562      4E554C4C 
 18562      00
 18563              	.LASF305:
 18564 24d7 50756D70 		.ascii	"PumpTransQueueAllocate\000"
 18564      5472616E 
 18564      73517565 
 18564      7565416C 
 18564      6C6F6361 
 18565              	.LASF71:
 18566 24ee 44495350 		.ascii	"DISPENSER_CONFIGURE_SINGLE_PRICE\000"
 18566      454E5345 
ARM GAS  C:\Users\RECEPC~1\AppData\Local\Temp\ccvxjDo6.s 			page 403


 18566      525F434F 
 18566      4E464947 
 18566      5552455F 
 18567              	.LASF448:
 18568 250f 52465F4D 		.ascii	"RF_MUX_POSITION_CFG_REQUEST\000"
 18568      55585F50 
 18568      4F534954 
 18568      494F4E5F 
 18568      4346475F 
 18569              	.LASF84:
 18570 252b 44495350 		.ascii	"DISPLAY1_RECEPTION\000"
 18570      4C415931 
 18570      5F524543 
 18570      45505449 
 18570      4F4E00
 18571              	.LASF303:
 18572 253e 50756D70 		.ascii	"PumpTransQueueEnqueue\000"
 18572      5472616E 
 18572      73517565 
 18572      7565456E 
 18572      71756575 
 18573              	.LASF477:
 18574 2554 5072696E 		.ascii	"PrinterLayout\000"
 18574      7465724C 
 18574      61796F75 
 18574      7400
 18575              	.LASF356:
 18576 2562 44657175 		.ascii	"Dequeue\000"
 18576      65756500 
 18577              	.LASF67:
 18578 256a 44495350 		.ascii	"DISPENSER_ENUMERATE_VISIBLE_PUMPS\000"
 18578      454E5345 
 18578      525F454E 
 18578      554D4552 
 18578      4154455F 
 18579              	.LASF105:
 18580 258c 52656164 		.ascii	"ReadRxData\000"
 18580      52784461 
 18580      746100
 18581              	.LASF573:
 18582 2597 5472616E 		.ascii	"TranslateSpecialFuncionDigit\000"
 18582      736C6174 
 18582      65537065 
 18582      6369616C 
 18582      46756E63 
 18583              	.LASF46:
 18584 25b4 5F6D6573 		.ascii	"_messagetimeoutlimit\000"
 18584      73616765 
 18584      74696D65 
 18584      6F75746C 
 18584      696D6974 
 18585              	.LASF129:
 18586 25c9 5F554152 		.ascii	"_UART_MANAGERS_AVAILABLE_\000"
 18586      545F4D41 
 18586      4E414745 
 18586      52535F41 
 18586      5641494C 
ARM GAS  C:\Users\RECEPC~1\AppData\Local\Temp\ccvxjDo6.s 			page 404


 18587              	.LASF586:
 18588 25e3 474E5520 		.ascii	"GNU C 4.9.3 20150303 (release) [ARM/embedded-4_9-br"
 18588      4320342E 
 18588      392E3320 
 18588      32303135 
 18588      30333033 
 18589 2616 616E6368 		.ascii	"anch revision 221220] -mcpu=cortex-m3 -mthumb -g -O"
 18589      20726576 
 18589      6973696F 
 18589      6E203232 
 18589      31323230 
 18590 2649 30202D66 		.ascii	"0 -ffunction-sections -ffat-lto-objects\000"
 18590      66756E63 
 18590      74696F6E 
 18590      2D736563 
 18590      74696F6E 
 18591              	.LASF510:
 18592 2671 50756D70 		.ascii	"PumpRTMoneyRequest\000"
 18592      52544D6F 
 18592      6E657952 
 18592      65717565 
 18592      737400
 18593              	.LASF491:
 18594 2684 696E6465 		.ascii	"index\000"
 18594      7800
 18595              	.LASF161:
 18596 268a 44495350 		.ascii	"DISPLAY_INTRODUZCA_CEDULA\000"
 18596      4C41595F 
 18596      494E5452 
 18596      4F44555A 
 18596      43415F43 
 18597              	.LASF337:
 18598 26a4 5F726570 		.ascii	"_repushretriescounter\000"
 18598      75736872 
 18598      65747269 
 18598      6573636F 
 18598      756E7465 
 18599              	.LASF558:
 18600 26ba 706D7367 		.ascii	"pmsg\000"
 18600      00
 18601              	.LASF41:
 18602 26bf 5F6D6573 		.ascii	"_messagetype\000"
 18602      73616765 
 18602      74797065 
 18602      00
 18603              	.LASF512:
 18604 26cc 50756D70 		.ascii	"PumpTransactionDataRequest\000"
 18604      5472616E 
 18604      73616374 
 18604      696F6E44 
 18604      61746152 
 18605              	.LASF31:
 18606 26e7 46495253 		.ascii	"FIRSTFOUNDFOREVER\000"
 18606      54464F55 
 18606      4E44464F 
 18606      52455645 
 18606      5200
ARM GAS  C:\Users\RECEPC~1\AppData\Local\Temp\ccvxjDo6.s 			page 405


 18607              	.LASF522:
 18608 26f9 50756D70 		.ascii	"PumpFullPresetHose\000"
 18608      46756C6C 
 18608      50726573 
 18608      6574486F 
 18608      736500
 18609              	.LASF500:
 18610 270c 7472616E 		.ascii	"transtatefound\000"
 18610      73746174 
 18610      65666F75 
 18610      6E6400
 18611              	.LASF216:
 18612 271b 50554D50 		.ascii	"PUMP_IDLE\000"
 18612      5F49444C 
 18612      4500
 18613              	.LASF396:
 18614 2725 45455052 		.ascii	"EEPROM_DISPENSER_PUMP3_PPU_INFO_PAGE\000"
 18614      4F4D5F44 
 18614      49535045 
 18614      4E534552 
 18614      5F50554D 
 18615              	.LASF447:
 18616 274a 52465F4D 		.ascii	"RF_MUX_BROADCAST_CFG_RESPONSE\000"
 18616      55585F42 
 18616      524F4144 
 18616      43415354 
 18616      5F434647 
 18617              	.LASF205:
 18618 2768 50554D50 		.ascii	"PUMP_TRANSACTION_DATA_REQUEST\000"
 18618      5F545241 
 18618      4E534143 
 18618      54494F4E 
 18618      5F444154 
 18619              	.LASF572:
 18620 2786 43617374 		.ascii	"CastMoneyValue\000"
 18620      4D6F6E65 
 18620      7956616C 
 18620      756500
 18621              	.LASF211:
 18622 2795 5055446E 		.ascii	"PUDn\000"
 18622      00
 18623              	.LASF307:
 18624 279a 50756D70 		.ascii	"PumpValidState\000"
 18624      56616C69 
 18624      64537461 
 18624      746500
 18625              	.LASF309:
 18626 27a9 5F617574 		.ascii	"_authorizationinfo\000"
 18626      686F7269 
 18626      7A617469 
 18626      6F6E696E 
 18626      666F00
 18627              	.LASF241:
 18628 27bc 5F50554D 		.ascii	"_PUMP_STOPALL_\000"
 18628      505F5354 
 18628      4F50414C 
 18628      4C5F00
ARM GAS  C:\Users\RECEPC~1\AppData\Local\Temp\ccvxjDo6.s 			page 406


 18629              	.LASF516:
 18630 27cb 7472616E 		.ascii	"transtype\000"
 18630      73747970 
 18630      6500
 18631              	.LASF177:
 18632 27d5 44495350 		.ascii	"DISPLAY_OPCION_TURNO\000"
 18632      4C41595F 
 18632      4F504349 
 18632      4F4E5F54 
 18632      55524E4F 
 18633              	.LASF338:
 18634 27ea 5F726570 		.ascii	"_repushtimeoutseed\000"
 18634      75736874 
 18634      696D656F 
 18634      75747365 
 18634      656400
 18635              	.LASF230:
 18636 27fd 5F50554D 		.ascii	"_PUMP_FILL_CREDIT_COMPLEMENTARY_\000"
 18636      505F4649 
 18636      4C4C5F43 
 18636      52454449 
 18636      545F434F 
 18637              	.LASF574:
 18638 281e 72656676 		.ascii	"refval\000"
 18638      616C00
 18639              	.LASF423:
 18640 2825 52465F4D 		.ascii	"RF_MUX_CREDIT_PRESET_AUTHORIZATION_RESPONSE\000"
 18640      55585F43 
 18640      52454449 
 18640      545F5052 
 18640      45534554 
 18641              	.LASF42:
 18642 2851 5F6D6573 		.ascii	"_messagestate\000"
 18642      73616765 
 18642      73746174 
 18642      6500
 18643              	.LASF530:
 18644 285f 50756D70 		.ascii	"PumpMiscellaneousConfiguration\000"
 18644      4D697363 
 18644      656C6C61 
 18644      6E656F75 
 18644      73436F6E 
 18645              	.LASF321:
 18646 287e 5F726574 		.ascii	"_retryinsteadofrepush\000"
 18646      7279696E 
 18646      73746561 
 18646      646F6672 
 18646      65707573 
 18647              	.LASF228:
 18648 2894 5F50554D 		.ascii	"_PUMP_FILL_FULL_\000"
 18648      505F4649 
 18648      4C4C5F46 
 18648      554C4C5F 
 18648      00
 18649              	.LASF91:
 18650 28a5 44495350 		.ascii	"DISPLAY2_ANIMATE_HOME\000"
 18650      4C415932 
ARM GAS  C:\Users\RECEPC~1\AppData\Local\Temp\ccvxjDo6.s 			page 407


 18650      5F414E49 
 18650      4D415445 
 18650      5F484F4D 
 18651              	.LASF196:
 18652 28bb 4C505241 		.ascii	"LPRAWPTR\000"
 18652      57505452 
 18652      00
 18653              	.LASF236:
 18654 28c4 5F50554D 		.ascii	"_PUMP_EOT_\000"
 18654      505F454F 
 18654      545F00
 18655              	.LASF83:
 18656 28cf 44495350 		.ascii	"DISPLAY_UPDATE_PUMP_STATE\000"
 18656      4C41595F 
 18656      55504441 
 18656      54455F50 
 18656      554D505F 
 18657              	.LASF34:
 18658 28e9 5F4D4553 		.ascii	"_MESSAGE_TYPE_\000"
 18658      53414745 
 18658      5F545950 
 18658      455F00
 18659              	.LASF70:
 18660 28f8 44495350 		.ascii	"DISPENSER_RESTORE_PRICES\000"
 18660      454E5345 
 18660      525F5245 
 18660      53544F52 
 18660      455F5052 
 18661              	.LASF203:
 18662 2911 50554D50 		.ascii	"PUMP_DATA_TO_PUMP\000"
 18662      5F444154 
 18662      415F544F 
 18662      5F50554D 
 18662      5000
 18663              	.LASF427:
 18664 2923 52465F4D 		.ascii	"RF_MUX_CASH_SALE_START_RESPONSE\000"
 18664      55585F43 
 18664      4153485F 
 18664      53414C45 
 18664      5F535441 
 18665              	.LASF318:
 18666 2943 5F726573 		.ascii	"_responsetimeoutlimit\000"
 18666      706F6E73 
 18666      6574696D 
 18666      656F7574 
 18666      6C696D69 
 18667              	.LASF555:
 18668 2959 41637175 		.ascii	"AcquirePumpTotalsResponseResolver\000"
 18668      69726550 
 18668      756D7054 
 18668      6F74616C 
 18668      73526573 
 18669              	.LASF290:
 18670 297b 5F707269 		.ascii	"_print\000"
 18670      6E7400
 18671              	.LASF244:
 18672 2982 5F50554D 		.ascii	"_PUMP_BUSY_\000"
ARM GAS  C:\Users\RECEPC~1\AppData\Local\Temp\ccvxjDo6.s 			page 408


 18672      505F4255 
 18672      53595F00 
 18673              	.LASF388:
 18674 298e 45455052 		.ascii	"EEPROM_DISPENSER_PUMP3_LAYOUT_PAGE\000"
 18674      4F4D5F44 
 18674      49535045 
 18674      4E534552 
 18674      5F50554D 
 18675              	.LASF435:
 18676 29b1 52465F4D 		.ascii	"RF_MUX_PRICE_CHANGE_RESPONSE\000"
 18676      55585F50 
 18676      52494345 
 18676      5F434841 
 18676      4E47455F 
 18677              	.LASF3:
 18678 29ce 73686F72 		.ascii	"short unsigned int\000"
 18678      7420756E 
 18678      7369676E 
 18678      65642069 
 18678      6E7400
 18679              	.LASF538:
 18680 29e1 74617267 		.ascii	"targetmemoryareafound\000"
 18680      65746D65 
 18680      6D6F7279 
 18680      61726561 
 18680      666F756E 
 18681              	.LASF302:
 18682 29f7 50756D70 		.ascii	"PumpTransQueueFind\000"
 18682      5472616E 
 18682      73517565 
 18682      75654669 
 18682      6E6400
 18683              	.LASF126:
 18684 2a0a 4572726F 		.ascii	"ErrorHandler\000"
 18684      7248616E 
 18684      646C6572 
 18684      00
 18685              	.LASF473:
 18686 2a17 5F74696D 		.ascii	"_timeouttoreceivemultiplier\000"
 18686      656F7574 
 18686      746F7265 
 18686      63656976 
 18686      656D756C 
 18687              	.LASF511:
 18688 2a33 50756D70 		.ascii	"PumpRTHoseVolumeRequest\000"
 18688      5254486F 
 18688      7365566F 
 18688      6C756D65 
 18688      52657175 
 18689              	.LASF78:
 18690 2a4b 5052494E 		.ascii	"PRINTER22_JOB\000"
 18690      54455232 
 18690      325F4A4F 
 18690      4200
 18691              	.LASF446:
 18692 2a59 52465F4D 		.ascii	"RF_MUX_BROADCAST_CFG_REQUEST\000"
 18692      55585F42 
ARM GAS  C:\Users\RECEPC~1\AppData\Local\Temp\ccvxjDo6.s 			page 409


 18692      524F4144 
 18692      43415354 
 18692      5F434647 
 18693              	.LASF503:
 18694 2a76 50756D70 		.ascii	"PumpJobTimeout\000"
 18694      4A6F6254 
 18694      696D656F 
 18694      757400
 18695              	.LASF214:
 18696 2a85 5F50554D 		.ascii	"_PUMP_STATES_\000"
 18696      505F5354 
 18696      41544553 
 18696      5F00
 18697              	.LASF5:
 18698 2a93 5F5F696E 		.ascii	"__int32_t\000"
 18698      7433325F 
 18698      7400
 18699              	.LASF455:
 18700 2a9d 52465F4D 		.ascii	"RF_MUX_COPY_REQUEST_RESPONSE\000"
 18700      55585F43 
 18700      4F50595F 
 18700      52455155 
 18700      4553545F 
 18701              	.LASF539:
 18702 2aba 65657072 		.ascii	"eeprompumpconfigmemorypageid\000"
 18702      6F6D7075 
 18702      6D70636F 
 18702      6E666967 
 18702      6D656D6F 
 18703              	.LASF534:
 18704 2ad7 41637175 		.ascii	"AcquirePumpHoseActiveState\000"
 18704      69726550 
 18704      756D7048 
 18704      6F736541 
 18704      63746976 
 18705              	.LASF436:
 18706 2af2 52465F4D 		.ascii	"RF_MUX_GENERAL_PRINT_REQUEST\000"
 18706      55585F47 
 18706      454E4552 
 18706      414C5F50 
 18706      52494E54 
 18707              	.LASF392:
 18708 2b0f 45455052 		.ascii	"EEPROM_DISPENSER_PUMP3_PRODUCT_NAMES_PAGE\000"
 18708      4F4D5F44 
 18708      49535045 
 18708      4E534552 
 18708      5F50554D 
 18709              	.LASF252:
 18710 2b39 50756D70 		.ascii	"PumpTransactionalState\000"
 18710      5472616E 
 18710      73616374 
 18710      696F6E61 
 18710      6C537461 
 18711              	.LASF308:
 18712 2b50 5F646174 		.ascii	"_datacontainer\000"
 18712      61636F6E 
 18712      7461696E 
ARM GAS  C:\Users\RECEPC~1\AppData\Local\Temp\ccvxjDo6.s 			page 410


 18712      657200
 18713              	.LASF334:
 18714 2b5f 5F726565 		.ascii	"_reenqueuecounter\000"
 18714      6E717565 
 18714      7565636F 
 18714      756E7465 
 18714      7200
 18715              	.LASF222:
 18716 2b71 50554D50 		.ascii	"PUMP_STOPPED\000"
 18716      5F53544F 
 18716      50504544 
 18716      00
 18717              	.LASF35:
 18718 2b7e 5F4D4553 		.ascii	"_MESSAGE_STATE_\000"
 18718      53414745 
 18718      5F535441 
 18718      54455F00 
 18719              	.LASF36:
 18720 2b8e 53494E4B 		.ascii	"SINK_FREE\000"
 18720      5F465245 
 18720      4500
 18721              	.LASF26:
 18722 2b98 4E4F4E45 		.ascii	"NONE\000"
 18722      00
 18723              	.LASF504:
 18724 2b9d 50756D70 		.ascii	"PumpStateJobTimeout\000"
 18724      53746174 
 18724      654A6F62 
 18724      54696D65 
 18724      6F757400 
 18725              	.LASF93:
 18726 2bb1 49425554 		.ascii	"IBUTTON2_SCAN\000"
 18726      544F4E32 
 18726      5F534341 
 18726      4E00
 18727              	.LASF443:
 18728 2bbf 52465F4D 		.ascii	"RF_MUX_PENDING_CREDIT_SALE_RESPONSE\000"
 18728      55585F50 
 18728      454E4449 
 18728      4E475F43 
 18728      52454449 
 18729              	.LASF372:
 18730 2be3 5F646973 		.ascii	"_displaydigitsmode\000"
 18730      706C6179 
 18730      64696769 
 18730      74736D6F 
 18730      646500
 18731              	.LASF14:
 18732 2bf6 75696E74 		.ascii	"uint16\000"
 18732      313600
 18733              	.LASF450:
 18734 2bfd 52465F4D 		.ascii	"RF_MUX_ISLAND_OPER_DATA_REQUEST\000"
 18734      55585F49 
 18734      534C414E 
 18734      445F4F50 
 18734      45525F44 
 18735              	.LASF301:
ARM GAS  C:\Users\RECEPC~1\AppData\Local\Temp\ccvxjDo6.s 			page 411


 18736 2c1d 50756D70 		.ascii	"PumpTransQueueUnlock\000"
 18736      5472616E 
 18736      73517565 
 18736      7565556E 
 18736      6C6F636B 
 18737              	.LASF127:
 18738 2c32 5F707561 		.ascii	"_puartmanager\000"
 18738      72746D61 
 18738      6E616765 
 18738      7200
 18739              	.LASF437:
 18740 2c40 52465F4D 		.ascii	"RF_MUX_GENERAL_PRINT_RESPONSE\000"
 18740      55585F47 
 18740      454E4552 
 18740      414C5F50 
 18740      52494E54 
 18741              	.LASF474:
 18742 2c5e 52464175 		.ascii	"RFAutoRun\000"
 18742      746F5275 
 18742      6E00
 18743              	.LASF82:
 18744 2c68 5052494E 		.ascii	"PRINTER2_GENERIC_JOB_LOGO\000"
 18744      54455232 
 18744      5F47454E 
 18744      45524943 
 18744      5F4A4F42 
 18745              	.LASF48:
 18746 2c82 5F627566 		.ascii	"_buffersize\000"
 18746      66657273 
 18746      697A6500 
 18747              	.LASF407:
 18748 2c8e 45455052 		.ascii	"EEPROM_DISPENSER_PUMP22_TRANSACTION_PAGE\000"
 18748      4F4D5F44 
 18748      49535045 
 18748      4E534552 
 18748      5F50554D 
 18749              	.LASF173:
 18750 2cb7 44495350 		.ascii	"DISPLAY_AUTORIZACION_RECHAZADA\000"
 18750      4C41595F 
 18750      4155544F 
 18750      52495A41 
 18750      43494F4E 
 18751              	.LASF475:
 18752 2cd6 5F707269 		.ascii	"_printerportside1\000"
 18752      6E746572 
 18752      706F7274 
 18752      73696465 
 18752      3100
 18753              		.ident	"GCC: (GNU Tools for ARM Embedded Processors) 4.9.3 20150303 (release) [ARM/embedded-4_9-br
