ARM GAS  C:\Users\RECEPC~1\AppData\Local\Temp\ccNQP0pp.s 			page 1


   1              		.syntax unified
   2              		.cpu cortex-m3
   3              		.fpu softvfp
   4              		.eabi_attribute 20, 1
   5              		.eabi_attribute 21, 1
   6              		.eabi_attribute 23, 3
   7              		.eabi_attribute 24, 1
   8              		.eabi_attribute 25, 1
   9              		.eabi_attribute 26, 1
  10              		.eabi_attribute 30, 6
  11              		.eabi_attribute 34, 1
  12              		.eabi_attribute 18, 4
  13              		.thumb
  14              		.file	"PrimeImpl.c"
  15              		.text
  16              	.Ltext0:
  17              		.cfi_sections	.debug_frame
  18              		.section	.text.AcquirePumpStateResponse,"ax",%progbits
  19              		.align	2
  20              		.global	AcquirePumpStateResponse
  21              		.thumb
  22              		.thumb_func
  23              		.type	AcquirePumpStateResponse, %function
  24              	AcquirePumpStateResponse:
  25              	.LFB63:
  26              		.file 1 ".\\PrimeImpl.c"
   1:.\PrimeImpl.c **** /* ========================================
   2:.\PrimeImpl.c ****  *
   3:.\PrimeImpl.c ****  * Copyright INSEPET SISTEMAS, 2016
   4:.\PrimeImpl.c ****  * All Rights Reserved
   5:.\PrimeImpl.c ****  * UNPUBLISHED, LICENSED SOFTWARE.
   6:.\PrimeImpl.c ****  *
   7:.\PrimeImpl.c ****  * CONFIDENTIAL AND PROPRIETARY INFORMATION
   8:.\PrimeImpl.c ****  * WHICH IS THE PROPERTY OF your company.
   9:.\PrimeImpl.c ****  *
  10:.\PrimeImpl.c ****  * ========================================
  11:.\PrimeImpl.c **** @Created By: HIJH
  12:.\PrimeImpl.c **** @Date: Septembre de 2016
  13:.\PrimeImpl.c **** */
  14:.\PrimeImpl.c **** 
  15:.\PrimeImpl.c **** #include <project.h>
  16:.\PrimeImpl.c **** #include "GlobalDefinitions.h"
  17:.\PrimeImpl.c **** #include "SinkManager.h"
  18:.\PrimeImpl.c **** #include "SinkObservables.h"
  19:.\PrimeImpl.c **** #include "UARTManager.h"
  20:.\PrimeImpl.c **** #include "Display.h"
  21:.\PrimeImpl.c **** #include "Dispenser.h"
  22:.\PrimeImpl.c **** #include "Eeprom.h"
  23:.\PrimeImpl.c **** #include "RFLink.h"
  24:.\PrimeImpl.c **** #include "Printer.h"
  25:.\PrimeImpl.c **** #include "Rtc.h"
  26:.\PrimeImpl.c **** 
  27:.\PrimeImpl.c **** #ifdef PRIME_PROTOCOL
  28:.\PrimeImpl.c **** 
  29:.\PrimeImpl.c **** uint8_t FindLRC(char8 *_pbuffer);
  30:.\PrimeImpl.c **** uint8_t GetLRC(char8 *_pbuffer);
  31:.\PrimeImpl.c **** 
ARM GAS  C:\Users\RECEPC~1\AppData\Local\Temp\ccNQP0pp.s 			page 2


  32:.\PrimeImpl.c **** void ComplementaryCreditTransactionOnHose(LPVOID pparam);
  33:.\PrimeImpl.c **** void PrimeActivateProgramming(LPVOID pparam);
  34:.\PrimeImpl.c **** extern PNEARDISPENSERACTIVATEPROGRAMMING _g_ptractprogramming;
  35:.\PrimeImpl.c **** 
  36:.\PrimeImpl.c **** ///////////////////////////////////////////////////////////////////////////////////////////////////
  37:.\PrimeImpl.c **** //////////////////////                 BLOCK OF AVAILABLE RESPONSE HANDLERS
  38:.\PrimeImpl.c **** ///////////////////////////////////////////////////////////////////////////////////////////////////
  39:.\PrimeImpl.c **** 
  40:.\PrimeImpl.c **** //@Created By: HIJH
  41:.\PrimeImpl.c **** //@Date: Septembre de 2016
  42:.\PrimeImpl.c **** //Updates the pump state into the pump structure
  43:.\PrimeImpl.c **** void AcquirePumpStateResponse(void *pparam)
  44:.\PrimeImpl.c **** {
  27              		.loc 1 44 0
  28              		.cfi_startproc
  29              		@ args = 0, pretend = 0, frame = 16
  30              		@ frame_needed = 1, uses_anonymous_args = 0
  31 0000 80B5     		push	{r7, lr}
  32              		.cfi_def_cfa_offset 8
  33              		.cfi_offset 7, -8
  34              		.cfi_offset 14, -4
  35 0002 84B0     		sub	sp, sp, #16
  36              		.cfi_def_cfa_offset 24
  37 0004 00AF     		add	r7, sp, #0
  38              		.cfi_def_cfa_register 7
  39 0006 7860     		str	r0, [r7, #4]
  45:.\PrimeImpl.c ****     PPUMPTRANSACTIONJOBCONTEXTPTR pjob = (PPUMPTRANSACTIONJOBCONTEXTPTR)pparam;
  40              		.loc 1 45 0
  41 0008 7B68     		ldr	r3, [r7, #4]
  42 000a FB60     		str	r3, [r7, #12]
  46:.\PrimeImpl.c ****     if(pjob)
  43              		.loc 1 46 0
  44 000c FB68     		ldr	r3, [r7, #12]
  45 000e 002B     		cmp	r3, #0
  46 0010 44D0     		beq	.L1
  47              	.LBB2:
  47:.\PrimeImpl.c ****     {
  48:.\PrimeImpl.c ****         uint8 prevstate = pjob->_ppump->_pumpstate;
  48              		.loc 1 48 0
  49 0012 FB68     		ldr	r3, [r7, #12]
  50 0014 DB69     		ldr	r3, [r3, #28]
  51 0016 9B78     		ldrb	r3, [r3, #2]
  52 0018 FB72     		strb	r3, [r7, #11]
  49:.\PrimeImpl.c ****         pjob->_ppump->_pumpstate = ((pjob->_ppump->_rxbuffer[0x00] & 0xF0) >> 4);
  53              		.loc 1 49 0
  54 001a FB68     		ldr	r3, [r7, #12]
  55 001c DB69     		ldr	r3, [r3, #28]
  56 001e FA68     		ldr	r2, [r7, #12]
  57 0020 D269     		ldr	r2, [r2, #28]
  58 0022 92F88821 		ldrb	r2, [r2, #392]	@ zero_extendqisi2
  59 0026 1209     		lsrs	r2, r2, #4
  60 0028 D2B2     		uxtb	r2, r2
  61 002a 9A70     		strb	r2, [r3, #2]
  50:.\PrimeImpl.c ****         if(pjob->_ppump->PumpValidState(pjob->_ppump))
  62              		.loc 1 50 0
  63 002c FB68     		ldr	r3, [r7, #12]
  64 002e DB69     		ldr	r3, [r3, #28]
ARM GAS  C:\Users\RECEPC~1\AppData\Local\Temp\ccNQP0pp.s 			page 3


  65 0030 D3F82839 		ldr	r3, [r3, #2344]
  66 0034 FA68     		ldr	r2, [r7, #12]
  67 0036 D269     		ldr	r2, [r2, #28]
  68 0038 1046     		mov	r0, r2
  69 003a 9847     		blx	r3
  70 003c 0346     		mov	r3, r0
  71 003e 002B     		cmp	r3, #0
  72 0040 04D0     		beq	.L3
  51:.\PrimeImpl.c ****             pjob->_ppump->_transhealth = _PUMP_OK_;
  73              		.loc 1 51 0
  74 0042 FB68     		ldr	r3, [r7, #12]
  75 0044 DB69     		ldr	r3, [r3, #28]
  76 0046 0122     		movs	r2, #1
  77 0048 1A76     		strb	r2, [r3, #24]
  78 004a 07E0     		b	.L4
  79              	.L3:
  52:.\PrimeImpl.c ****         else
  53:.\PrimeImpl.c ****         {
  54:.\PrimeImpl.c ****             pjob->_ppump->_transhealth = _PUMP_FAIL_;
  80              		.loc 1 54 0
  81 004c FB68     		ldr	r3, [r7, #12]
  82 004e DB69     		ldr	r3, [r3, #28]
  83 0050 0222     		movs	r2, #2
  84 0052 1A76     		strb	r2, [r3, #24]
  55:.\PrimeImpl.c ****             pjob->_ppump->_pumpstate = prevstate;
  85              		.loc 1 55 0
  86 0054 FB68     		ldr	r3, [r7, #12]
  87 0056 DB69     		ldr	r3, [r3, #28]
  88 0058 FA7A     		ldrb	r2, [r7, #11]
  89 005a 9A70     		strb	r2, [r3, #2]
  90              	.L4:
  56:.\PrimeImpl.c ****         }
  57:.\PrimeImpl.c ****         
  58:.\PrimeImpl.c ****         #ifdef CREDIT_SALE_PUMP_LOCK
  59:.\PrimeImpl.c ****         if(pjob->_ppump->_pumpstate == PUMP_CALLING)
  60:.\PrimeImpl.c ****             pjob->_ppump->_pumplocked = false;
  61:.\PrimeImpl.c ****         #endif
  62:.\PrimeImpl.c ****         
  63:.\PrimeImpl.c ****         if((pjob->_ppump->_pumpstate == PUMP_IDLE || pjob->_ppump->_pumpstate == PUMP_CALLING) && 
  91              		.loc 1 63 0
  92 005c FB68     		ldr	r3, [r7, #12]
  93 005e DB69     		ldr	r3, [r3, #28]
  94 0060 9B78     		ldrb	r3, [r3, #2]
  95 0062 DBB2     		uxtb	r3, r3
  96 0064 062B     		cmp	r3, #6
  97 0066 05D0     		beq	.L5
  98              		.loc 1 63 0 is_stmt 0 discriminator 2
  99 0068 FB68     		ldr	r3, [r7, #12]
 100 006a DB69     		ldr	r3, [r3, #28]
 101 006c 9B78     		ldrb	r3, [r3, #2]
 102 006e DBB2     		uxtb	r3, r3
 103 0070 072B     		cmp	r3, #7
 104 0072 0FD1     		bne	.L6
 105              	.L5:
 106              		.loc 1 63 0 discriminator 3
 107 0074 FB7A     		ldrb	r3, [r7, #11]	@ zero_extendqisi2
 108 0076 0B2B     		cmp	r3, #11
ARM GAS  C:\Users\RECEPC~1\AppData\Local\Temp\ccNQP0pp.s 			page 4


 109 0078 08D0     		beq	.L7
  64:.\PrimeImpl.c ****             (prevstate == PUMP_FEOT || prevstate == PUMP_PEOT || prevstate == PUMP_BUSY || prevstat
 110              		.loc 1 64 0 is_stmt 1
 111 007a FB7A     		ldrb	r3, [r7, #11]	@ zero_extendqisi2
 112 007c 0A2B     		cmp	r3, #10
 113 007e 05D0     		beq	.L7
 114              		.loc 1 64 0 is_stmt 0 discriminator 1
 115 0080 FB7A     		ldrb	r3, [r7, #11]	@ zero_extendqisi2
 116 0082 092B     		cmp	r3, #9
 117 0084 02D0     		beq	.L7
 118              		.loc 1 64 0 discriminator 2
 119 0086 FB7A     		ldrb	r3, [r7, #11]	@ zero_extendqisi2
 120 0088 082B     		cmp	r3, #8
 121 008a 03D1     		bne	.L6
 122              	.L7:
  65:.\PrimeImpl.c ****             pjob->_ppump->_pumprftransstate = RF_IDLE;
 123              		.loc 1 65 0 is_stmt 1
 124 008c FB68     		ldr	r3, [r7, #12]
 125 008e DB69     		ldr	r3, [r3, #28]
 126 0090 0822     		movs	r2, #8
 127 0092 9A73     		strb	r2, [r3, #14]
 128              	.L6:
  66:.\PrimeImpl.c ****         
  67:.\PrimeImpl.c ****         pjob->_ppump->_acquiringstate = false;
 129              		.loc 1 67 0
 130 0094 FB68     		ldr	r3, [r7, #12]
 131 0096 DB69     		ldr	r3, [r3, #28]
 132 0098 0022     		movs	r2, #0
 133 009a 5A71     		strb	r2, [r3, #5]
 134              	.L1:
 135              	.LBE2:
  68:.\PrimeImpl.c ****     }
  69:.\PrimeImpl.c **** }
 136              		.loc 1 69 0
 137 009c 1037     		adds	r7, r7, #16
 138              		.cfi_def_cfa_offset 8
 139 009e BD46     		mov	sp, r7
 140              		.cfi_def_cfa_register 13
 141              		@ sp needed
 142 00a0 80BD     		pop	{r7, pc}
 143              		.cfi_endproc
 144              	.LFE63:
 145              		.size	AcquirePumpStateResponse, .-AcquirePumpStateResponse
 146 00a2 00BF     		.section	.text.AcquireDatatoPumpResponse,"ax",%progbits
 147              		.align	2
 148              		.global	AcquireDatatoPumpResponse
 149              		.thumb
 150              		.thumb_func
 151              		.type	AcquireDatatoPumpResponse, %function
 152              	AcquireDatatoPumpResponse:
 153              	.LFB64:
  70:.\PrimeImpl.c **** 
  71:.\PrimeImpl.c **** //@Created By: HIJH
  72:.\PrimeImpl.c **** //@Date: Septembre de 2016
  73:.\PrimeImpl.c **** //Validates the response from the pump previous batch transfer (0xDp)
  74:.\PrimeImpl.c **** void AcquireDatatoPumpResponse(void *pparam)
  75:.\PrimeImpl.c **** {
ARM GAS  C:\Users\RECEPC~1\AppData\Local\Temp\ccNQP0pp.s 			page 5


 154              		.loc 1 75 0
 155              		.cfi_startproc
 156              		@ args = 0, pretend = 0, frame = 16
 157              		@ frame_needed = 1, uses_anonymous_args = 0
 158              		@ link register save eliminated.
 159 0000 80B4     		push	{r7}
 160              		.cfi_def_cfa_offset 4
 161              		.cfi_offset 7, -4
 162 0002 85B0     		sub	sp, sp, #20
 163              		.cfi_def_cfa_offset 24
 164 0004 00AF     		add	r7, sp, #0
 165              		.cfi_def_cfa_register 7
 166 0006 7860     		str	r0, [r7, #4]
  76:.\PrimeImpl.c ****     PPUMPTRANSACTIONJOBCONTEXTPTR pjob = (PPUMPTRANSACTIONJOBCONTEXTPTR)pparam;
 167              		.loc 1 76 0
 168 0008 7B68     		ldr	r3, [r7, #4]
 169 000a FB60     		str	r3, [r7, #12]
  77:.\PrimeImpl.c ****     if(pjob)
 170              		.loc 1 77 0
 171 000c FB68     		ldr	r3, [r7, #12]
 172 000e 002B     		cmp	r3, #0
 173 0010 15D0     		beq	.L8
  78:.\PrimeImpl.c ****     {
  79:.\PrimeImpl.c ****         if((0x0F & pjob->_ppump->_pumpid) == (pjob->_ppump->_rxbuffer[0x00] & 0x0F))
 174              		.loc 1 79 0
 175 0012 FB68     		ldr	r3, [r7, #12]
 176 0014 DB69     		ldr	r3, [r3, #28]
 177 0016 1B78     		ldrb	r3, [r3]	@ zero_extendqisi2
 178 0018 1A46     		mov	r2, r3
 179 001a FB68     		ldr	r3, [r7, #12]
 180 001c DB69     		ldr	r3, [r3, #28]
 181 001e 93F88831 		ldrb	r3, [r3, #392]	@ zero_extendqisi2
 182 0022 5340     		eors	r3, r3, r2
 183 0024 03F00F03 		and	r3, r3, #15
 184 0028 002B     		cmp	r3, #0
 185 002a 08D1     		bne	.L8
  80:.\PrimeImpl.c ****             pjob->_ppump->_pumpstate = ((pjob->_ppump->_rxbuffer[0x00] & 0xF0) >> 4);
 186              		.loc 1 80 0
 187 002c FB68     		ldr	r3, [r7, #12]
 188 002e DB69     		ldr	r3, [r3, #28]
 189 0030 FA68     		ldr	r2, [r7, #12]
 190 0032 D269     		ldr	r2, [r2, #28]
 191 0034 92F88821 		ldrb	r2, [r2, #392]	@ zero_extendqisi2
 192 0038 1209     		lsrs	r2, r2, #4
 193 003a D2B2     		uxtb	r2, r2
 194 003c 9A70     		strb	r2, [r3, #2]
 195              	.L8:
  81:.\PrimeImpl.c ****     }
  82:.\PrimeImpl.c **** }
 196              		.loc 1 82 0
 197 003e 1437     		adds	r7, r7, #20
 198              		.cfi_def_cfa_offset 4
 199 0040 BD46     		mov	sp, r7
 200              		.cfi_def_cfa_register 13
 201              		@ sp needed
 202 0042 5DF8047B 		ldr	r7, [sp], #4
 203              		.cfi_restore 7
ARM GAS  C:\Users\RECEPC~1\AppData\Local\Temp\ccNQP0pp.s 			page 6


 204              		.cfi_def_cfa_offset 0
 205 0046 7047     		bx	lr
 206              		.cfi_endproc
 207              	.LFE64:
 208              		.size	AcquireDatatoPumpResponse, .-AcquireDatatoPumpResponse
 209              		.section	.text.ProcessPumpRTMoneyRequest,"ax",%progbits
 210              		.align	2
 211              		.global	ProcessPumpRTMoneyRequest
 212              		.thumb
 213              		.thumb_func
 214              		.type	ProcessPumpRTMoneyRequest, %function
 215              	ProcessPumpRTMoneyRequest:
 216              	.LFB65:
  83:.\PrimeImpl.c **** 
  84:.\PrimeImpl.c **** void ProcessPumpRTMoneyRequest(void *pparam)
  85:.\PrimeImpl.c **** {
 217              		.loc 1 85 0
 218              		.cfi_startproc
 219              		@ args = 0, pretend = 0, frame = 16
 220              		@ frame_needed = 1, uses_anonymous_args = 0
 221 0000 90B5     		push	{r4, r7, lr}
 222              		.cfi_def_cfa_offset 12
 223              		.cfi_offset 4, -12
 224              		.cfi_offset 7, -8
 225              		.cfi_offset 14, -4
 226 0002 85B0     		sub	sp, sp, #20
 227              		.cfi_def_cfa_offset 32
 228 0004 00AF     		add	r7, sp, #0
 229              		.cfi_def_cfa_register 7
 230 0006 7860     		str	r0, [r7, #4]
  86:.\PrimeImpl.c ****     PPUMPTRANSACTIONJOBCONTEXTPTR pjob = (PPUMPTRANSACTIONJOBCONTEXTPTR)pparam;
 231              		.loc 1 86 0
 232 0008 7B68     		ldr	r3, [r7, #4]
 233 000a FB60     		str	r3, [r7, #12]
  87:.\PrimeImpl.c ****     if(pjob)
 234              		.loc 1 87 0
 235 000c FB68     		ldr	r3, [r7, #12]
 236 000e 002B     		cmp	r3, #0
 237 0010 63D0     		beq	.L10
  88:.\PrimeImpl.c ****     {
  89:.\PrimeImpl.c ****         //Bytes from index 0 to 7 are the digits for the Real Time Money Data in BCD format
  90:.\PrimeImpl.c ****         pjob->_ppump->_rxbuffer[0x00] = (pjob->_ppump->_rxbuffer[0x00] & 0x0F);
 238              		.loc 1 90 0
 239 0012 FB68     		ldr	r3, [r7, #12]
 240 0014 DB69     		ldr	r3, [r3, #28]
 241 0016 FA68     		ldr	r2, [r7, #12]
 242 0018 D269     		ldr	r2, [r2, #28]
 243 001a 92F88821 		ldrb	r2, [r2, #392]	@ zero_extendqisi2
 244 001e 02F00F02 		and	r2, r2, #15
 245 0022 D2B2     		uxtb	r2, r2
 246 0024 83F88821 		strb	r2, [r3, #392]
  91:.\PrimeImpl.c ****         pjob->_ppump->_rxbuffer[0x01] = (pjob->_ppump->_rxbuffer[0x01] & 0x0F);
 247              		.loc 1 91 0
 248 0028 FB68     		ldr	r3, [r7, #12]
 249 002a DB69     		ldr	r3, [r3, #28]
 250 002c FA68     		ldr	r2, [r7, #12]
 251 002e D269     		ldr	r2, [r2, #28]
ARM GAS  C:\Users\RECEPC~1\AppData\Local\Temp\ccNQP0pp.s 			page 7


 252 0030 92F88921 		ldrb	r2, [r2, #393]	@ zero_extendqisi2
 253 0034 02F00F02 		and	r2, r2, #15
 254 0038 D2B2     		uxtb	r2, r2
 255 003a 83F88921 		strb	r2, [r3, #393]
  92:.\PrimeImpl.c ****         pjob->_ppump->_rxbuffer[0x02] = (pjob->_ppump->_rxbuffer[0x02] & 0x0F);
 256              		.loc 1 92 0
 257 003e FB68     		ldr	r3, [r7, #12]
 258 0040 DB69     		ldr	r3, [r3, #28]
 259 0042 FA68     		ldr	r2, [r7, #12]
 260 0044 D269     		ldr	r2, [r2, #28]
 261 0046 92F88A21 		ldrb	r2, [r2, #394]	@ zero_extendqisi2
 262 004a 02F00F02 		and	r2, r2, #15
 263 004e D2B2     		uxtb	r2, r2
 264 0050 83F88A21 		strb	r2, [r3, #394]
  93:.\PrimeImpl.c ****         pjob->_ppump->_rxbuffer[0x03] = (pjob->_ppump->_rxbuffer[0x03] & 0x0F);
 265              		.loc 1 93 0
 266 0054 FB68     		ldr	r3, [r7, #12]
 267 0056 DB69     		ldr	r3, [r3, #28]
 268 0058 FA68     		ldr	r2, [r7, #12]
 269 005a D269     		ldr	r2, [r2, #28]
 270 005c 92F88B21 		ldrb	r2, [r2, #395]	@ zero_extendqisi2
 271 0060 02F00F02 		and	r2, r2, #15
 272 0064 D2B2     		uxtb	r2, r2
 273 0066 83F88B21 		strb	r2, [r3, #395]
  94:.\PrimeImpl.c ****         pjob->_ppump->_rxbuffer[0x04] = (pjob->_ppump->_rxbuffer[0x04] & 0x0F);
 274              		.loc 1 94 0
 275 006a FB68     		ldr	r3, [r7, #12]
 276 006c DB69     		ldr	r3, [r3, #28]
 277 006e FA68     		ldr	r2, [r7, #12]
 278 0070 D269     		ldr	r2, [r2, #28]
 279 0072 92F88C21 		ldrb	r2, [r2, #396]	@ zero_extendqisi2
 280 0076 02F00F02 		and	r2, r2, #15
 281 007a D2B2     		uxtb	r2, r2
 282 007c 83F88C21 		strb	r2, [r3, #396]
  95:.\PrimeImpl.c ****         pjob->_ppump->_rxbuffer[0x05] = (pjob->_ppump->_rxbuffer[0x05] & 0x0F);
 283              		.loc 1 95 0
 284 0080 FB68     		ldr	r3, [r7, #12]
 285 0082 DB69     		ldr	r3, [r3, #28]
 286 0084 FA68     		ldr	r2, [r7, #12]
 287 0086 D269     		ldr	r2, [r2, #28]
 288 0088 92F88D21 		ldrb	r2, [r2, #397]	@ zero_extendqisi2
 289 008c 02F00F02 		and	r2, r2, #15
 290 0090 D2B2     		uxtb	r2, r2
 291 0092 83F88D21 		strb	r2, [r3, #397]
  96:.\PrimeImpl.c ****         pjob->_ppump->_rxbuffer[0x06] = (pjob->_ppump->_rxbuffer[0x06] & 0x0F);
 292              		.loc 1 96 0
 293 0096 FB68     		ldr	r3, [r7, #12]
 294 0098 DB69     		ldr	r3, [r3, #28]
 295 009a FA68     		ldr	r2, [r7, #12]
 296 009c D269     		ldr	r2, [r2, #28]
 297 009e 92F88E21 		ldrb	r2, [r2, #398]	@ zero_extendqisi2
 298 00a2 02F00F02 		and	r2, r2, #15
 299 00a6 D2B2     		uxtb	r2, r2
 300 00a8 83F88E21 		strb	r2, [r3, #398]
  97:.\PrimeImpl.c ****         pjob->_ppump->_rxbuffer[0x07] = (pjob->_ppump->_rxbuffer[0x07] & 0x0F);
 301              		.loc 1 97 0
 302 00ac FB68     		ldr	r3, [r7, #12]
ARM GAS  C:\Users\RECEPC~1\AppData\Local\Temp\ccNQP0pp.s 			page 8


 303 00ae DB69     		ldr	r3, [r3, #28]
 304 00b0 FA68     		ldr	r2, [r7, #12]
 305 00b2 D269     		ldr	r2, [r2, #28]
 306 00b4 92F88F21 		ldrb	r2, [r2, #399]	@ zero_extendqisi2
 307 00b8 02F00F02 		and	r2, r2, #15
 308 00bc D2B2     		uxtb	r2, r2
 309 00be 83F88F21 		strb	r2, [r3, #399]
  98:.\PrimeImpl.c ****         pjob->_ppump->_rtmoneyamount = LSDBCDBUFF2HEX(PBYTECAST(&pjob->_ppump->_rxbuffer[0x00]), 0x
 310              		.loc 1 98 0
 311 00c2 FB68     		ldr	r3, [r7, #12]
 312 00c4 DC69     		ldr	r4, [r3, #28]
 313 00c6 FB68     		ldr	r3, [r7, #12]
 314 00c8 DB69     		ldr	r3, [r3, #28]
 315 00ca 03F5C473 		add	r3, r3, #392
 316 00ce 1846     		mov	r0, r3
 317 00d0 0821     		movs	r1, #8
 318 00d2 FFF7FEFF 		bl	LSDBCDBUFF2HEX
 319 00d6 0346     		mov	r3, r0
 320 00d8 2361     		str	r3, [r4, #16]
 321              	.L10:
  99:.\PrimeImpl.c ****     }
 100:.\PrimeImpl.c **** }
 322              		.loc 1 100 0
 323 00da 1437     		adds	r7, r7, #20
 324              		.cfi_def_cfa_offset 12
 325 00dc BD46     		mov	sp, r7
 326              		.cfi_def_cfa_register 13
 327              		@ sp needed
 328 00de 90BD     		pop	{r4, r7, pc}
 329              		.cfi_endproc
 330              	.LFE65:
 331              		.size	ProcessPumpRTMoneyRequest, .-ProcessPumpRTMoneyRequest
 332              		.section	.text.ProcessPumpRTHoseVolumeRequest,"ax",%progbits
 333              		.align	2
 334              		.global	ProcessPumpRTHoseVolumeRequest
 335              		.thumb
 336              		.thumb_func
 337              		.type	ProcessPumpRTHoseVolumeRequest, %function
 338              	ProcessPumpRTHoseVolumeRequest:
 339              	.LFB66:
 101:.\PrimeImpl.c **** 
 102:.\PrimeImpl.c **** void ProcessPumpRTHoseVolumeRequest(void *pparam)
 103:.\PrimeImpl.c **** {
 340              		.loc 1 103 0
 341              		.cfi_startproc
 342              		@ args = 0, pretend = 0, frame = 16
 343              		@ frame_needed = 1, uses_anonymous_args = 0
 344 0000 90B5     		push	{r4, r7, lr}
 345              		.cfi_def_cfa_offset 12
 346              		.cfi_offset 4, -12
 347              		.cfi_offset 7, -8
 348              		.cfi_offset 14, -4
 349 0002 85B0     		sub	sp, sp, #20
 350              		.cfi_def_cfa_offset 32
 351 0004 00AF     		add	r7, sp, #0
 352              		.cfi_def_cfa_register 7
 353 0006 7860     		str	r0, [r7, #4]
ARM GAS  C:\Users\RECEPC~1\AppData\Local\Temp\ccNQP0pp.s 			page 9


 104:.\PrimeImpl.c ****     PPUMPTRANSACTIONJOBCONTEXTPTR pjob = (PPUMPTRANSACTIONJOBCONTEXTPTR)pparam;
 354              		.loc 1 104 0
 355 0008 7B68     		ldr	r3, [r7, #4]
 356 000a FB60     		str	r3, [r7, #12]
 105:.\PrimeImpl.c ****     if(pjob)
 357              		.loc 1 105 0
 358 000c FB68     		ldr	r3, [r7, #12]
 359 000e 002B     		cmp	r3, #0
 360 0010 6DD0     		beq	.L12
 106:.\PrimeImpl.c ****     {
 107:.\PrimeImpl.c ****         pjob->_ppump->_currenthose = (pjob->_ppump->_rxbuffer[0x00] & 0x0F);//Real Time Hose Data
 361              		.loc 1 107 0
 362 0012 FB68     		ldr	r3, [r7, #12]
 363 0014 DB69     		ldr	r3, [r3, #28]
 364 0016 FA68     		ldr	r2, [r7, #12]
 365 0018 D269     		ldr	r2, [r2, #28]
 366 001a 92F88821 		ldrb	r2, [r2, #392]	@ zero_extendqisi2
 367 001e 02F00F02 		and	r2, r2, #15
 368 0022 D2B2     		uxtb	r2, r2
 369 0024 DA70     		strb	r2, [r3, #3]
 108:.\PrimeImpl.c ****         
 109:.\PrimeImpl.c ****         //Bytes from index 1 to 8 are the digits for the Real Time Volume Data in BCD format
 110:.\PrimeImpl.c ****         pjob->_ppump->_rxbuffer[0x01] = (pjob->_ppump->_rxbuffer[0x01] & 0x0F);
 370              		.loc 1 110 0
 371 0026 FB68     		ldr	r3, [r7, #12]
 372 0028 DB69     		ldr	r3, [r3, #28]
 373 002a FA68     		ldr	r2, [r7, #12]
 374 002c D269     		ldr	r2, [r2, #28]
 375 002e 92F88921 		ldrb	r2, [r2, #393]	@ zero_extendqisi2
 376 0032 02F00F02 		and	r2, r2, #15
 377 0036 D2B2     		uxtb	r2, r2
 378 0038 83F88921 		strb	r2, [r3, #393]
 111:.\PrimeImpl.c ****         pjob->_ppump->_rxbuffer[0x02] = (pjob->_ppump->_rxbuffer[0x02] & 0x0F);
 379              		.loc 1 111 0
 380 003c FB68     		ldr	r3, [r7, #12]
 381 003e DB69     		ldr	r3, [r3, #28]
 382 0040 FA68     		ldr	r2, [r7, #12]
 383 0042 D269     		ldr	r2, [r2, #28]
 384 0044 92F88A21 		ldrb	r2, [r2, #394]	@ zero_extendqisi2
 385 0048 02F00F02 		and	r2, r2, #15
 386 004c D2B2     		uxtb	r2, r2
 387 004e 83F88A21 		strb	r2, [r3, #394]
 112:.\PrimeImpl.c ****         pjob->_ppump->_rxbuffer[0x03] = (pjob->_ppump->_rxbuffer[0x03] & 0x0F);
 388              		.loc 1 112 0
 389 0052 FB68     		ldr	r3, [r7, #12]
 390 0054 DB69     		ldr	r3, [r3, #28]
 391 0056 FA68     		ldr	r2, [r7, #12]
 392 0058 D269     		ldr	r2, [r2, #28]
 393 005a 92F88B21 		ldrb	r2, [r2, #395]	@ zero_extendqisi2
 394 005e 02F00F02 		and	r2, r2, #15
 395 0062 D2B2     		uxtb	r2, r2
 396 0064 83F88B21 		strb	r2, [r3, #395]
 113:.\PrimeImpl.c ****         pjob->_ppump->_rxbuffer[0x04] = (pjob->_ppump->_rxbuffer[0x04] & 0x0F);
 397              		.loc 1 113 0
 398 0068 FB68     		ldr	r3, [r7, #12]
 399 006a DB69     		ldr	r3, [r3, #28]
 400 006c FA68     		ldr	r2, [r7, #12]
ARM GAS  C:\Users\RECEPC~1\AppData\Local\Temp\ccNQP0pp.s 			page 10


 401 006e D269     		ldr	r2, [r2, #28]
 402 0070 92F88C21 		ldrb	r2, [r2, #396]	@ zero_extendqisi2
 403 0074 02F00F02 		and	r2, r2, #15
 404 0078 D2B2     		uxtb	r2, r2
 405 007a 83F88C21 		strb	r2, [r3, #396]
 114:.\PrimeImpl.c ****         pjob->_ppump->_rxbuffer[0x05] = (pjob->_ppump->_rxbuffer[0x05] & 0x0F);
 406              		.loc 1 114 0
 407 007e FB68     		ldr	r3, [r7, #12]
 408 0080 DB69     		ldr	r3, [r3, #28]
 409 0082 FA68     		ldr	r2, [r7, #12]
 410 0084 D269     		ldr	r2, [r2, #28]
 411 0086 92F88D21 		ldrb	r2, [r2, #397]	@ zero_extendqisi2
 412 008a 02F00F02 		and	r2, r2, #15
 413 008e D2B2     		uxtb	r2, r2
 414 0090 83F88D21 		strb	r2, [r3, #397]
 115:.\PrimeImpl.c ****         pjob->_ppump->_rxbuffer[0x06] = (pjob->_ppump->_rxbuffer[0x06] & 0x0F);
 415              		.loc 1 115 0
 416 0094 FB68     		ldr	r3, [r7, #12]
 417 0096 DB69     		ldr	r3, [r3, #28]
 418 0098 FA68     		ldr	r2, [r7, #12]
 419 009a D269     		ldr	r2, [r2, #28]
 420 009c 92F88E21 		ldrb	r2, [r2, #398]	@ zero_extendqisi2
 421 00a0 02F00F02 		and	r2, r2, #15
 422 00a4 D2B2     		uxtb	r2, r2
 423 00a6 83F88E21 		strb	r2, [r3, #398]
 116:.\PrimeImpl.c ****         pjob->_ppump->_rxbuffer[0x07] = (pjob->_ppump->_rxbuffer[0x07] & 0x0F);
 424              		.loc 1 116 0
 425 00aa FB68     		ldr	r3, [r7, #12]
 426 00ac DB69     		ldr	r3, [r3, #28]
 427 00ae FA68     		ldr	r2, [r7, #12]
 428 00b0 D269     		ldr	r2, [r2, #28]
 429 00b2 92F88F21 		ldrb	r2, [r2, #399]	@ zero_extendqisi2
 430 00b6 02F00F02 		and	r2, r2, #15
 431 00ba D2B2     		uxtb	r2, r2
 432 00bc 83F88F21 		strb	r2, [r3, #399]
 117:.\PrimeImpl.c ****         pjob->_ppump->_rxbuffer[0x08] = (pjob->_ppump->_rxbuffer[0x08] & 0x0F);
 433              		.loc 1 117 0
 434 00c0 FB68     		ldr	r3, [r7, #12]
 435 00c2 DB69     		ldr	r3, [r3, #28]
 436 00c4 FA68     		ldr	r2, [r7, #12]
 437 00c6 D269     		ldr	r2, [r2, #28]
 438 00c8 92F89021 		ldrb	r2, [r2, #400]	@ zero_extendqisi2
 439 00cc 02F00F02 		and	r2, r2, #15
 440 00d0 D2B2     		uxtb	r2, r2
 441 00d2 83F89021 		strb	r2, [r3, #400]
 118:.\PrimeImpl.c ****         pjob->_ppump->_rtvolumeamount = LSDBCDBUFF2HEX(PBYTECAST(&pjob->_ppump->_rxbuffer[0x01]), 0
 442              		.loc 1 118 0
 443 00d6 FB68     		ldr	r3, [r7, #12]
 444 00d8 DC69     		ldr	r4, [r3, #28]
 445 00da FB68     		ldr	r3, [r7, #12]
 446 00dc DB69     		ldr	r3, [r3, #28]
 447 00de 03F28913 		addw	r3, r3, #393
 448 00e2 1846     		mov	r0, r3
 449 00e4 0821     		movs	r1, #8
 450 00e6 FFF7FEFF 		bl	LSDBCDBUFF2HEX
 451 00ea 0346     		mov	r3, r0
 452 00ec 6361     		str	r3, [r4, #20]
ARM GAS  C:\Users\RECEPC~1\AppData\Local\Temp\ccNQP0pp.s 			page 11


 453              	.L12:
 119:.\PrimeImpl.c ****     }
 120:.\PrimeImpl.c **** }
 454              		.loc 1 120 0
 455 00ee 1437     		adds	r7, r7, #20
 456              		.cfi_def_cfa_offset 12
 457 00f0 BD46     		mov	sp, r7
 458              		.cfi_def_cfa_register 13
 459              		@ sp needed
 460 00f2 90BD     		pop	{r4, r7, pc}
 461              		.cfi_endproc
 462              	.LFE66:
 463              		.size	ProcessPumpRTHoseVolumeRequest, .-ProcessPumpRTHoseVolumeRequest
 464              		.section	.text.ProcessPumpRTHoseVolumeRequestGlobal,"ax",%progbits
 465              		.align	2
 466              		.global	ProcessPumpRTHoseVolumeRequestGlobal
 467              		.thumb
 468              		.thumb_func
 469              		.type	ProcessPumpRTHoseVolumeRequestGlobal, %function
 470              	ProcessPumpRTHoseVolumeRequestGlobal:
 471              	.LFB67:
 121:.\PrimeImpl.c **** 
 122:.\PrimeImpl.c **** void ProcessPumpRTHoseVolumeRequestGlobal(void *pparam)
 123:.\PrimeImpl.c **** {
 472              		.loc 1 123 0
 473              		.cfi_startproc
 474              		@ args = 0, pretend = 0, frame = 16
 475              		@ frame_needed = 1, uses_anonymous_args = 0
 476 0000 80B5     		push	{r7, lr}
 477              		.cfi_def_cfa_offset 8
 478              		.cfi_offset 7, -8
 479              		.cfi_offset 14, -4
 480 0002 84B0     		sub	sp, sp, #16
 481              		.cfi_def_cfa_offset 24
 482 0004 00AF     		add	r7, sp, #0
 483              		.cfi_def_cfa_register 7
 484 0006 7860     		str	r0, [r7, #4]
 124:.\PrimeImpl.c ****     PPUMPTRANSACTIONJOBCONTEXTPTR pjob = (PPUMPTRANSACTIONJOBCONTEXTPTR)pparam;
 485              		.loc 1 124 0
 486 0008 7B68     		ldr	r3, [r7, #4]
 487 000a FB60     		str	r3, [r7, #12]
 125:.\PrimeImpl.c ****     if(pjob)
 488              		.loc 1 125 0
 489 000c FB68     		ldr	r3, [r7, #12]
 490 000e 002B     		cmp	r3, #0
 491 0010 20D0     		beq	.L14
 126:.\PrimeImpl.c ****     {
 127:.\PrimeImpl.c ****         pjob->_ppump->_currenthose = (pjob->_ppump->_rxbuffer[0x00] & 0x0F);//Real Time Hose Data
 492              		.loc 1 127 0
 493 0012 FB68     		ldr	r3, [r7, #12]
 494 0014 DB69     		ldr	r3, [r3, #28]
 495 0016 FA68     		ldr	r2, [r7, #12]
 496 0018 D269     		ldr	r2, [r2, #28]
 497 001a 92F88821 		ldrb	r2, [r2, #392]	@ zero_extendqisi2
 498 001e 02F00F02 		and	r2, r2, #15
 499 0022 D2B2     		uxtb	r2, r2
 500 0024 DA70     		strb	r2, [r3, #3]
ARM GAS  C:\Users\RECEPC~1\AppData\Local\Temp\ccNQP0pp.s 			page 12


 128:.\PrimeImpl.c ****         
 129:.\PrimeImpl.c ****         if(pjob->_ppump->_authorizationinfo._hoseid != pjob->_ppump->_currenthose)
 501              		.loc 1 129 0
 502 0026 FB68     		ldr	r3, [r7, #12]
 503 0028 DB69     		ldr	r3, [r3, #28]
 504 002a 93F87239 		ldrb	r3, [r3, #2418]
 505 002e DAB2     		uxtb	r2, r3
 506 0030 FB68     		ldr	r3, [r7, #12]
 507 0032 DB69     		ldr	r3, [r3, #28]
 508 0034 DB78     		ldrb	r3, [r3, #3]
 509 0036 DBB2     		uxtb	r3, r3
 510 0038 9A42     		cmp	r2, r3
 511 003a 08D0     		beq	.L16
 130:.\PrimeImpl.c ****         {
 131:.\PrimeImpl.c ****             pjob->_reenqueue = false;
 512              		.loc 1 131 0
 513 003c FB68     		ldr	r3, [r7, #12]
 514 003e 0022     		movs	r2, #0
 515 0040 1A70     		strb	r2, [r3]
 132:.\PrimeImpl.c ****             ComplementaryCreditTransactionOnHose(pjob->_ppump);
 516              		.loc 1 132 0
 517 0042 FB68     		ldr	r3, [r7, #12]
 518 0044 DB69     		ldr	r3, [r3, #28]
 519 0046 1846     		mov	r0, r3
 520 0048 FFF7FEFF 		bl	ComplementaryCreditTransactionOnHose
 521 004c 02E0     		b	.L14
 522              	.L16:
 133:.\PrimeImpl.c ****         }else
 134:.\PrimeImpl.c ****             pjob->_reenqueue = true;
 523              		.loc 1 134 0
 524 004e FB68     		ldr	r3, [r7, #12]
 525 0050 0122     		movs	r2, #1
 526 0052 1A70     		strb	r2, [r3]
 527              	.L14:
 135:.\PrimeImpl.c ****     }
 136:.\PrimeImpl.c **** }
 528              		.loc 1 136 0
 529 0054 1037     		adds	r7, r7, #16
 530              		.cfi_def_cfa_offset 8
 531 0056 BD46     		mov	sp, r7
 532              		.cfi_def_cfa_register 13
 533              		@ sp needed
 534 0058 80BD     		pop	{r7, pc}
 535              		.cfi_endproc
 536              	.LFE67:
 537              		.size	ProcessPumpRTHoseVolumeRequestGlobal, .-ProcessPumpRTHoseVolumeRequestGlobal
 538 005a 00BF     		.section	.text.ProcessPumpTransactionData,"ax",%progbits
 539              		.align	2
 540              		.global	ProcessPumpTransactionData
 541              		.thumb
 542              		.thumb_func
 543              		.type	ProcessPumpTransactionData, %function
 544              	ProcessPumpTransactionData:
 545              	.LFB68:
 137:.\PrimeImpl.c **** 
 138:.\PrimeImpl.c **** void ProcessPumpTransactionData(void *pparam)
 139:.\PrimeImpl.c **** {
ARM GAS  C:\Users\RECEPC~1\AppData\Local\Temp\ccNQP0pp.s 			page 13


 546              		.loc 1 139 0
 547              		.cfi_startproc
 548              		@ args = 0, pretend = 0, frame = 24
 549              		@ frame_needed = 1, uses_anonymous_args = 0
 550 0000 B0B5     		push	{r4, r5, r7, lr}
 551              		.cfi_def_cfa_offset 16
 552              		.cfi_offset 4, -16
 553              		.cfi_offset 5, -12
 554              		.cfi_offset 7, -8
 555              		.cfi_offset 14, -4
 556 0002 86B0     		sub	sp, sp, #24
 557              		.cfi_def_cfa_offset 40
 558 0004 00AF     		add	r7, sp, #0
 559              		.cfi_def_cfa_register 7
 560 0006 7860     		str	r0, [r7, #4]
 140:.\PrimeImpl.c ****     PPUMPTRANSACTIONJOBCONTEXTPTR pjob = (PPUMPTRANSACTIONJOBCONTEXTPTR)pparam;
 561              		.loc 1 140 0
 562 0008 7B68     		ldr	r3, [r7, #4]
 563 000a 7B61     		str	r3, [r7, #20]
 141:.\PrimeImpl.c ****     if(pjob)
 564              		.loc 1 141 0
 565 000c 7B69     		ldr	r3, [r7, #20]
 566 000e 002B     		cmp	r3, #0
 567 0010 00F06D84 		beq	.L17
 568              	.LBB3:
 142:.\PrimeImpl.c ****     {        
 143:.\PrimeImpl.c ****         {
 144:.\PrimeImpl.c ****             pjob->_ppump->_rxbuffer[0x09] = (pjob->_ppump->_rxbuffer[0x09] & 0x0F);//Hose id
 569              		.loc 1 144 0
 570 0014 7B69     		ldr	r3, [r7, #20]
 571 0016 DB69     		ldr	r3, [r3, #28]
 572 0018 7A69     		ldr	r2, [r7, #20]
 573 001a D269     		ldr	r2, [r2, #28]
 574 001c 92F89121 		ldrb	r2, [r2, #401]	@ zero_extendqisi2
 575 0020 02F00F02 		and	r2, r2, #15
 576 0024 D2B2     		uxtb	r2, r2
 577 0026 83F89121 		strb	r2, [r3, #401]
 145:.\PrimeImpl.c ****             pjob->_ppump->_authorizationinfo._hoseid = pjob->_ppump->_rxbuffer[0x09];//Hose id
 578              		.loc 1 145 0
 579 002a 7B69     		ldr	r3, [r7, #20]
 580 002c DB69     		ldr	r3, [r3, #28]
 581 002e 7A69     		ldr	r2, [r7, #20]
 582 0030 D269     		ldr	r2, [r2, #28]
 583 0032 92F89121 		ldrb	r2, [r2, #401]	@ zero_extendqisi2
 584 0036 83F87229 		strb	r2, [r3, #2418]
 146:.\PrimeImpl.c ****             
 147:.\PrimeImpl.c ****             //In this position is located the payment type (CREDIT: 0x0E , CASH:0x0D)
 148:.\PrimeImpl.c ****             if(pjob->_ppump->_trasactionbuffer[0x00] == 0x0D)
 585              		.loc 1 148 0
 586 003a 7B69     		ldr	r3, [r7, #20]
 587 003c DB69     		ldr	r3, [r3, #28]
 588 003e 93F82030 		ldrb	r3, [r3, #32]	@ zero_extendqisi2
 589 0042 0D2B     		cmp	r3, #13
 590 0044 40F0E080 		bne	.L19
 591              	.LBB4:
 149:.\PrimeImpl.c ****             {
 150:.\PrimeImpl.c ****                 I2CBusLock();
ARM GAS  C:\Users\RECEPC~1\AppData\Local\Temp\ccNQP0pp.s 			page 14


 592              		.loc 1 150 0
 593 0048 FFF7FEFF 		bl	I2CBusLock
 151:.\PrimeImpl.c ****                 ClearEepromBuffer();
 594              		.loc 1 151 0
 595 004c FFF7FEFF 		bl	ClearEepromBuffer
 152:.\PrimeImpl.c ****                 uint16 eeprompage = DispenserGetEepromPPUPageFromPumpID(pjob->_ppump->_pumpid);
 596              		.loc 1 152 0
 597 0050 7B69     		ldr	r3, [r7, #20]
 598 0052 DB69     		ldr	r3, [r3, #28]
 599 0054 1B78     		ldrb	r3, [r3]	@ zero_extendqisi2
 600 0056 1846     		mov	r0, r3
 601 0058 FFF7FEFF 		bl	DispenserGetEepromPPUPageFromPumpID
 602 005c 0346     		mov	r3, r0
 603 005e 7B82     		strh	r3, [r7, #18]	@ movhi
 153:.\PrimeImpl.c ****                 LoadEepromPage(eeprompage);
 604              		.loc 1 153 0
 605 0060 7B8A     		ldrh	r3, [r7, #18]
 606 0062 1846     		mov	r0, r3
 607 0064 FFF7FEFF 		bl	LoadEepromPage
 154:.\PrimeImpl.c ****                 switch(pjob->_ppump->_authorizationinfo._hoseid)
 608              		.loc 1 154 0
 609 0068 7B69     		ldr	r3, [r7, #20]
 610 006a DB69     		ldr	r3, [r3, #28]
 611 006c 93F87239 		ldrb	r3, [r3, #2418]
 612 0070 DBB2     		uxtb	r3, r3
 613 0072 032B     		cmp	r3, #3
 614 0074 64D8     		bhi	.L20
 615 0076 01A2     		adr	r2, .L22
 616 0078 52F823F0 		ldr	pc, [r2, r3, lsl #2]
 617              		.p2align 2
 618              	.L22:
 619 007c 8D000000 		.word	.L21+1
 620 0080 B7000000 		.word	.L23+1
 621 0084 E5000000 		.word	.L24+1
 622 0088 13010000 		.word	.L25+1
 623              		.p2align 1
 624              	.L21:
 155:.\PrimeImpl.c ****                 {
 156:.\PrimeImpl.c ****                     case 0x00:
 157:.\PrimeImpl.c ****                     //Six bytes only since the PPU is constrained to this length
 158:.\PrimeImpl.c ****                     memcpy(PBYTECAST(&pjob->_ppump->_trasactionbuffer[GetBufferIndexFromDisplayID(D
 625              		.loc 1 158 0
 626 008c 7B69     		ldr	r3, [r7, #20]
 627 008e DC69     		ldr	r4, [r3, #28]
 628 0090 6520     		movs	r0, #101
 629 0092 FFF7FEFF 		bl	GetBufferIndexFromDisplayID
 630 0096 0346     		mov	r3, r0
 631 0098 2033     		adds	r3, r3, #32
 632 009a 1C44     		add	r4, r4, r3
 633 009c FFF7FEFF 		bl	GetEepromBuffer
 634 00a0 0546     		mov	r5, r0
 635 00a2 6520     		movs	r0, #101
 636 00a4 FFF7FEFF 		bl	GetBufferLengthFromDisplayID
 637 00a8 0346     		mov	r3, r0
 638 00aa 2046     		mov	r0, r4
 639 00ac 2946     		mov	r1, r5
 640 00ae 1A46     		mov	r2, r3
ARM GAS  C:\Users\RECEPC~1\AppData\Local\Temp\ccNQP0pp.s 			page 15


 641 00b0 FFF7FEFF 		bl	memcpy
 159:.\PrimeImpl.c ****                     break;
 642              		.loc 1 159 0
 643 00b4 44E0     		b	.L20
 644              	.L23:
 160:.\PrimeImpl.c ****                     case 0x01:
 161:.\PrimeImpl.c ****                     //Six bytes only since the PPU is constrained to this length
 162:.\PrimeImpl.c ****                     memcpy(PBYTECAST(&pjob->_ppump->_trasactionbuffer[GetBufferIndexFromDisplayID(D
 645              		.loc 1 162 0
 646 00b6 7B69     		ldr	r3, [r7, #20]
 647 00b8 DC69     		ldr	r4, [r3, #28]
 648 00ba 6520     		movs	r0, #101
 649 00bc FFF7FEFF 		bl	GetBufferIndexFromDisplayID
 650 00c0 0346     		mov	r3, r0
 651 00c2 2033     		adds	r3, r3, #32
 652 00c4 E518     		adds	r5, r4, r3
 653 00c6 FFF7FEFF 		bl	GetEepromBuffer
 654 00ca 0346     		mov	r3, r0
 655 00cc 03F11004 		add	r4, r3, #16
 656 00d0 6520     		movs	r0, #101
 657 00d2 FFF7FEFF 		bl	GetBufferLengthFromDisplayID
 658 00d6 0346     		mov	r3, r0
 659 00d8 2846     		mov	r0, r5
 660 00da 2146     		mov	r1, r4
 661 00dc 1A46     		mov	r2, r3
 662 00de FFF7FEFF 		bl	memcpy
 163:.\PrimeImpl.c ****                     break;
 663              		.loc 1 163 0
 664 00e2 2DE0     		b	.L20
 665              	.L24:
 164:.\PrimeImpl.c ****                     case 0x02:
 165:.\PrimeImpl.c ****                     //Six bytes only since the PPU is constrained to this length
 166:.\PrimeImpl.c ****                     memcpy(PBYTECAST(&pjob->_ppump->_trasactionbuffer[GetBufferIndexFromDisplayID(D
 666              		.loc 1 166 0
 667 00e4 7B69     		ldr	r3, [r7, #20]
 668 00e6 DC69     		ldr	r4, [r3, #28]
 669 00e8 6520     		movs	r0, #101
 670 00ea FFF7FEFF 		bl	GetBufferIndexFromDisplayID
 671 00ee 0346     		mov	r3, r0
 672 00f0 2033     		adds	r3, r3, #32
 673 00f2 E518     		adds	r5, r4, r3
 674 00f4 FFF7FEFF 		bl	GetEepromBuffer
 675 00f8 0346     		mov	r3, r0
 676 00fa 03F12004 		add	r4, r3, #32
 677 00fe 6520     		movs	r0, #101
 678 0100 FFF7FEFF 		bl	GetBufferLengthFromDisplayID
 679 0104 0346     		mov	r3, r0
 680 0106 2846     		mov	r0, r5
 681 0108 2146     		mov	r1, r4
 682 010a 1A46     		mov	r2, r3
 683 010c FFF7FEFF 		bl	memcpy
 167:.\PrimeImpl.c ****                     break;
 684              		.loc 1 167 0
 685 0110 16E0     		b	.L20
 686              	.L25:
 168:.\PrimeImpl.c ****                     case 0x03:
 169:.\PrimeImpl.c ****                     //Six bytes only since the PPU is constrained to this length
ARM GAS  C:\Users\RECEPC~1\AppData\Local\Temp\ccNQP0pp.s 			page 16


 170:.\PrimeImpl.c ****                     memcpy(PBYTECAST(&pjob->_ppump->_trasactionbuffer[GetBufferIndexFromDisplayID(D
 687              		.loc 1 170 0
 688 0112 7B69     		ldr	r3, [r7, #20]
 689 0114 DC69     		ldr	r4, [r3, #28]
 690 0116 6520     		movs	r0, #101
 691 0118 FFF7FEFF 		bl	GetBufferIndexFromDisplayID
 692 011c 0346     		mov	r3, r0
 693 011e 2033     		adds	r3, r3, #32
 694 0120 E518     		adds	r5, r4, r3
 695 0122 FFF7FEFF 		bl	GetEepromBuffer
 696 0126 0346     		mov	r3, r0
 697 0128 03F13004 		add	r4, r3, #48
 698 012c 6520     		movs	r0, #101
 699 012e FFF7FEFF 		bl	GetBufferLengthFromDisplayID
 700 0132 0346     		mov	r3, r0
 701 0134 2846     		mov	r0, r5
 702 0136 2146     		mov	r1, r4
 703 0138 1A46     		mov	r2, r3
 704 013a FFF7FEFF 		bl	memcpy
 171:.\PrimeImpl.c ****                     break;
 705              		.loc 1 171 0
 706 013e 00BF     		nop
 707              	.L20:
 172:.\PrimeImpl.c ****                 }
 173:.\PrimeImpl.c ****                 I2CBusUnlock();
 708              		.loc 1 173 0
 709 0140 FFF7FEFF 		bl	I2CBusUnlock
 174:.\PrimeImpl.c ****                 
 175:.\PrimeImpl.c ****                 memcpy(PBYTECAST(&pjob->_ppump->_rxbuffer[0x0C]), PBYTECAST(&pjob->_ppump->_trasact
 710              		.loc 1 175 0
 711 0144 7B69     		ldr	r3, [r7, #20]
 712 0146 DB69     		ldr	r3, [r3, #28]
 713 0148 03F5CA75 		add	r5, r3, #404
 714 014c 7B69     		ldr	r3, [r7, #20]
 715 014e DC69     		ldr	r4, [r3, #28]
 716 0150 6520     		movs	r0, #101
 717 0152 FFF7FEFF 		bl	GetBufferIndexFromDisplayID
 718 0156 0346     		mov	r3, r0
 719 0158 2033     		adds	r3, r3, #32
 720 015a 2344     		add	r3, r3, r4
 721 015c 2846     		mov	r0, r5
 722 015e 1946     		mov	r1, r3
 723 0160 0622     		movs	r2, #6
 724 0162 FFF7FEFF 		bl	memcpy
 176:.\PrimeImpl.c ****                 
 177:.\PrimeImpl.c ****                 //Bytes from index 12 to 17 are the digits for the PPU used for the transaction
 178:.\PrimeImpl.c ****                 //Digits are in BCD format
 179:.\PrimeImpl.c ****                 pjob->_ppump->_rxbuffer[0x0C] = (pjob->_ppump->_rxbuffer[0x0C] & 0x0F);
 725              		.loc 1 179 0
 726 0166 7B69     		ldr	r3, [r7, #20]
 727 0168 DB69     		ldr	r3, [r3, #28]
 728 016a 7A69     		ldr	r2, [r7, #20]
 729 016c D269     		ldr	r2, [r2, #28]
 730 016e 92F89421 		ldrb	r2, [r2, #404]	@ zero_extendqisi2
 731 0172 02F00F02 		and	r2, r2, #15
 732 0176 D2B2     		uxtb	r2, r2
 733 0178 83F89421 		strb	r2, [r3, #404]
ARM GAS  C:\Users\RECEPC~1\AppData\Local\Temp\ccNQP0pp.s 			page 17


 180:.\PrimeImpl.c ****                 pjob->_ppump->_rxbuffer[0x0D] = (pjob->_ppump->_rxbuffer[0x0D] & 0x0F);
 734              		.loc 1 180 0
 735 017c 7B69     		ldr	r3, [r7, #20]
 736 017e DB69     		ldr	r3, [r3, #28]
 737 0180 7A69     		ldr	r2, [r7, #20]
 738 0182 D269     		ldr	r2, [r2, #28]
 739 0184 92F89521 		ldrb	r2, [r2, #405]	@ zero_extendqisi2
 740 0188 02F00F02 		and	r2, r2, #15
 741 018c D2B2     		uxtb	r2, r2
 742 018e 83F89521 		strb	r2, [r3, #405]
 181:.\PrimeImpl.c ****                 pjob->_ppump->_rxbuffer[0x0E] = (pjob->_ppump->_rxbuffer[0x0E] & 0x0F);
 743              		.loc 1 181 0
 744 0192 7B69     		ldr	r3, [r7, #20]
 745 0194 DB69     		ldr	r3, [r3, #28]
 746 0196 7A69     		ldr	r2, [r7, #20]
 747 0198 D269     		ldr	r2, [r2, #28]
 748 019a 92F89621 		ldrb	r2, [r2, #406]	@ zero_extendqisi2
 749 019e 02F00F02 		and	r2, r2, #15
 750 01a2 D2B2     		uxtb	r2, r2
 751 01a4 83F89621 		strb	r2, [r3, #406]
 182:.\PrimeImpl.c ****                 pjob->_ppump->_rxbuffer[0x0F] = (pjob->_ppump->_rxbuffer[0x0F] & 0x0F);
 752              		.loc 1 182 0
 753 01a8 7B69     		ldr	r3, [r7, #20]
 754 01aa DB69     		ldr	r3, [r3, #28]
 755 01ac 7A69     		ldr	r2, [r7, #20]
 756 01ae D269     		ldr	r2, [r2, #28]
 757 01b0 92F89721 		ldrb	r2, [r2, #407]	@ zero_extendqisi2
 758 01b4 02F00F02 		and	r2, r2, #15
 759 01b8 D2B2     		uxtb	r2, r2
 760 01ba 83F89721 		strb	r2, [r3, #407]
 183:.\PrimeImpl.c ****                 pjob->_ppump->_rxbuffer[0x10] = (pjob->_ppump->_rxbuffer[0x10] & 0x0F);
 761              		.loc 1 183 0
 762 01be 7B69     		ldr	r3, [r7, #20]
 763 01c0 DB69     		ldr	r3, [r3, #28]
 764 01c2 7A69     		ldr	r2, [r7, #20]
 765 01c4 D269     		ldr	r2, [r2, #28]
 766 01c6 92F89821 		ldrb	r2, [r2, #408]	@ zero_extendqisi2
 767 01ca 02F00F02 		and	r2, r2, #15
 768 01ce D2B2     		uxtb	r2, r2
 769 01d0 83F89821 		strb	r2, [r3, #408]
 184:.\PrimeImpl.c ****                 pjob->_ppump->_rxbuffer[0x11] = (pjob->_ppump->_rxbuffer[0x11] & 0x0F);
 770              		.loc 1 184 0
 771 01d4 7B69     		ldr	r3, [r7, #20]
 772 01d6 DB69     		ldr	r3, [r3, #28]
 773 01d8 7A69     		ldr	r2, [r7, #20]
 774 01da D269     		ldr	r2, [r2, #28]
 775 01dc 92F89921 		ldrb	r2, [r2, #409]	@ zero_extendqisi2
 776 01e0 02F00F02 		and	r2, r2, #15
 777 01e4 D2B2     		uxtb	r2, r2
 778 01e6 83F89921 		strb	r2, [r3, #409]
 185:.\PrimeImpl.c ****                 pjob->_ppump->_authorizationinfo._price = LSDBCDBUFF2HEX(PBYTECAST(&pjob->_ppump->_
 779              		.loc 1 185 0
 780 01ea 7B69     		ldr	r3, [r7, #20]
 781 01ec DC69     		ldr	r4, [r3, #28]
 782 01ee 7B69     		ldr	r3, [r7, #20]
 783 01f0 DB69     		ldr	r3, [r3, #28]
 784 01f2 03F5CA73 		add	r3, r3, #404
ARM GAS  C:\Users\RECEPC~1\AppData\Local\Temp\ccNQP0pp.s 			page 18


 785 01f6 1846     		mov	r0, r3
 786 01f8 0621     		movs	r1, #6
 787 01fa FFF7FEFF 		bl	LSDBCDBUFF2HEX
 788 01fe 0346     		mov	r3, r0
 789 0200 9BB2     		uxth	r3, r3
 790 0202 A4F87439 		strh	r3, [r4, #2420]	@ movhi
 791              	.LBE4:
 792 0206 41E0     		b	.L26
 793              	.L19:
 186:.\PrimeImpl.c ****                 
 187:.\PrimeImpl.c ****             }
 188:.\PrimeImpl.c ****             else
 189:.\PrimeImpl.c ****             {
 190:.\PrimeImpl.c ****                 pjob->_ppump->_rxbuffer[0x0C] = (pjob->_ppump->_rxbuffer[0x0C] & 0x0F);
 794              		.loc 1 190 0
 795 0208 7B69     		ldr	r3, [r7, #20]
 796 020a DB69     		ldr	r3, [r3, #28]
 797 020c 7A69     		ldr	r2, [r7, #20]
 798 020e D269     		ldr	r2, [r2, #28]
 799 0210 92F89421 		ldrb	r2, [r2, #404]	@ zero_extendqisi2
 800 0214 02F00F02 		and	r2, r2, #15
 801 0218 D2B2     		uxtb	r2, r2
 802 021a 83F89421 		strb	r2, [r3, #404]
 191:.\PrimeImpl.c ****                 pjob->_ppump->_rxbuffer[0x0D] = (pjob->_ppump->_rxbuffer[0x0D] & 0x0F);
 803              		.loc 1 191 0
 804 021e 7B69     		ldr	r3, [r7, #20]
 805 0220 DB69     		ldr	r3, [r3, #28]
 806 0222 7A69     		ldr	r2, [r7, #20]
 807 0224 D269     		ldr	r2, [r2, #28]
 808 0226 92F89521 		ldrb	r2, [r2, #405]	@ zero_extendqisi2
 809 022a 02F00F02 		and	r2, r2, #15
 810 022e D2B2     		uxtb	r2, r2
 811 0230 83F89521 		strb	r2, [r3, #405]
 192:.\PrimeImpl.c ****                 pjob->_ppump->_rxbuffer[0x0E] = (pjob->_ppump->_rxbuffer[0x0E] & 0x0F);
 812              		.loc 1 192 0
 813 0234 7B69     		ldr	r3, [r7, #20]
 814 0236 DB69     		ldr	r3, [r3, #28]
 815 0238 7A69     		ldr	r2, [r7, #20]
 816 023a D269     		ldr	r2, [r2, #28]
 817 023c 92F89621 		ldrb	r2, [r2, #406]	@ zero_extendqisi2
 818 0240 02F00F02 		and	r2, r2, #15
 819 0244 D2B2     		uxtb	r2, r2
 820 0246 83F89621 		strb	r2, [r3, #406]
 193:.\PrimeImpl.c ****                 pjob->_ppump->_rxbuffer[0x0F] = (pjob->_ppump->_rxbuffer[0x0F] & 0x0F);
 821              		.loc 1 193 0
 822 024a 7B69     		ldr	r3, [r7, #20]
 823 024c DB69     		ldr	r3, [r3, #28]
 824 024e 7A69     		ldr	r2, [r7, #20]
 825 0250 D269     		ldr	r2, [r2, #28]
 826 0252 92F89721 		ldrb	r2, [r2, #407]	@ zero_extendqisi2
 827 0256 02F00F02 		and	r2, r2, #15
 828 025a D2B2     		uxtb	r2, r2
 829 025c 83F89721 		strb	r2, [r3, #407]
 194:.\PrimeImpl.c ****                 pjob->_ppump->_rxbuffer[0x10] = (pjob->_ppump->_rxbuffer[0x10] & 0x0F);
 830              		.loc 1 194 0
 831 0260 7B69     		ldr	r3, [r7, #20]
 832 0262 DB69     		ldr	r3, [r3, #28]
ARM GAS  C:\Users\RECEPC~1\AppData\Local\Temp\ccNQP0pp.s 			page 19


 833 0264 7A69     		ldr	r2, [r7, #20]
 834 0266 D269     		ldr	r2, [r2, #28]
 835 0268 92F89821 		ldrb	r2, [r2, #408]	@ zero_extendqisi2
 836 026c 02F00F02 		and	r2, r2, #15
 837 0270 D2B2     		uxtb	r2, r2
 838 0272 83F89821 		strb	r2, [r3, #408]
 195:.\PrimeImpl.c ****                 pjob->_ppump->_rxbuffer[0x11] = (pjob->_ppump->_rxbuffer[0x11] & 0x0F);
 839              		.loc 1 195 0
 840 0276 7B69     		ldr	r3, [r7, #20]
 841 0278 DB69     		ldr	r3, [r3, #28]
 842 027a 7A69     		ldr	r2, [r7, #20]
 843 027c D269     		ldr	r2, [r2, #28]
 844 027e 92F89921 		ldrb	r2, [r2, #409]	@ zero_extendqisi2
 845 0282 02F00F02 		and	r2, r2, #15
 846 0286 D2B2     		uxtb	r2, r2
 847 0288 83F89921 		strb	r2, [r3, #409]
 848              	.L26:
 196:.\PrimeImpl.c ****             }
 197:.\PrimeImpl.c ****             
 198:.\PrimeImpl.c ****             #ifdef _FDBD65F5_2FFE_4AA7_9C5F_F70414D772FF_
 199:.\PrimeImpl.c ****             memset(&pjob->_ppump->_rxbuffer[0x13], 0x00, 0x08);
 849              		.loc 1 199 0
 850 028c 7B69     		ldr	r3, [r7, #20]
 851 028e DB69     		ldr	r3, [r3, #28]
 852 0290 03F29B13 		addw	r3, r3, #411
 853 0294 1846     		mov	r0, r3
 854 0296 0021     		movs	r1, #0
 855 0298 0822     		movs	r2, #8
 856 029a FFF7FEFF 		bl	memset
 200:.\PrimeImpl.c ****             B78AD90CF552D9B30A(pjob->_ppump->_rtvolumeamount, (PNEAR_BYTE_PTR)&pjob->_ppump->_rxbuf
 857              		.loc 1 200 0
 858 029e 7B69     		ldr	r3, [r7, #20]
 859 02a0 DB69     		ldr	r3, [r3, #28]
 860 02a2 5B69     		ldr	r3, [r3, #20]
 861 02a4 1A46     		mov	r2, r3
 862 02a6 4FF00003 		mov	r3, #0
 863 02aa 7969     		ldr	r1, [r7, #20]
 864 02ac C969     		ldr	r1, [r1, #28]
 865 02ae 01F29B14 		addw	r4, r1, #411
 866 02b2 1046     		mov	r0, r2
 867 02b4 1946     		mov	r1, r3
 868 02b6 2246     		mov	r2, r4
 869 02b8 FFF7FEFF 		bl	B78AD90CF552D9B30A
 201:.\PrimeImpl.c ****             memset(&pjob->_ppump->_rxbuffer[0x1C], 0x00, 0x08);
 870              		.loc 1 201 0
 871 02bc 7B69     		ldr	r3, [r7, #20]
 872 02be DB69     		ldr	r3, [r3, #28]
 873 02c0 03F5D273 		add	r3, r3, #420
 874 02c4 1846     		mov	r0, r3
 875 02c6 0021     		movs	r1, #0
 876 02c8 0822     		movs	r2, #8
 877 02ca FFF7FEFF 		bl	memset
 202:.\PrimeImpl.c ****             B78AD90CF552D9B30A(pjob->_ppump->_rtmoneyamount, (PNEAR_BYTE_PTR)&pjob->_ppump->_rxbuff
 878              		.loc 1 202 0
 879 02ce 7B69     		ldr	r3, [r7, #20]
 880 02d0 DB69     		ldr	r3, [r3, #28]
 881 02d2 1B69     		ldr	r3, [r3, #16]
ARM GAS  C:\Users\RECEPC~1\AppData\Local\Temp\ccNQP0pp.s 			page 20


 882 02d4 1A46     		mov	r2, r3
 883 02d6 4FF00003 		mov	r3, #0
 884 02da 7969     		ldr	r1, [r7, #20]
 885 02dc C969     		ldr	r1, [r1, #28]
 886 02de 01F2A514 		addw	r4, r1, #421
 887 02e2 1046     		mov	r0, r2
 888 02e4 1946     		mov	r1, r3
 889 02e6 2246     		mov	r2, r4
 890 02e8 FFF7FEFF 		bl	B78AD90CF552D9B30A
 203:.\PrimeImpl.c ****             #endif
 204:.\PrimeImpl.c **** 
 205:.\PrimeImpl.c ****             //Bytes from index 19 to 26 are the digits for the fuel volume delivered in the transac
 206:.\PrimeImpl.c ****             //Digits are in BCD format
 207:.\PrimeImpl.c ****             pjob->_ppump->_rxbuffer[0x13] = (pjob->_ppump->_rxbuffer[0x13] & 0x0F);
 891              		.loc 1 207 0
 892 02ec 7B69     		ldr	r3, [r7, #20]
 893 02ee DB69     		ldr	r3, [r3, #28]
 894 02f0 7A69     		ldr	r2, [r7, #20]
 895 02f2 D269     		ldr	r2, [r2, #28]
 896 02f4 92F89B21 		ldrb	r2, [r2, #411]	@ zero_extendqisi2
 897 02f8 02F00F02 		and	r2, r2, #15
 898 02fc D2B2     		uxtb	r2, r2
 899 02fe 83F89B21 		strb	r2, [r3, #411]
 208:.\PrimeImpl.c ****             pjob->_ppump->_rxbuffer[0x14] = (pjob->_ppump->_rxbuffer[0x14] & 0x0F);
 900              		.loc 1 208 0
 901 0302 7B69     		ldr	r3, [r7, #20]
 902 0304 DB69     		ldr	r3, [r3, #28]
 903 0306 7A69     		ldr	r2, [r7, #20]
 904 0308 D269     		ldr	r2, [r2, #28]
 905 030a 92F89C21 		ldrb	r2, [r2, #412]	@ zero_extendqisi2
 906 030e 02F00F02 		and	r2, r2, #15
 907 0312 D2B2     		uxtb	r2, r2
 908 0314 83F89C21 		strb	r2, [r3, #412]
 209:.\PrimeImpl.c ****             pjob->_ppump->_rxbuffer[0x15] = (pjob->_ppump->_rxbuffer[0x15] & 0x0F);
 909              		.loc 1 209 0
 910 0318 7B69     		ldr	r3, [r7, #20]
 911 031a DB69     		ldr	r3, [r3, #28]
 912 031c 7A69     		ldr	r2, [r7, #20]
 913 031e D269     		ldr	r2, [r2, #28]
 914 0320 92F89D21 		ldrb	r2, [r2, #413]	@ zero_extendqisi2
 915 0324 02F00F02 		and	r2, r2, #15
 916 0328 D2B2     		uxtb	r2, r2
 917 032a 83F89D21 		strb	r2, [r3, #413]
 210:.\PrimeImpl.c ****             pjob->_ppump->_rxbuffer[0x16] = (pjob->_ppump->_rxbuffer[0x16] & 0x0F);
 918              		.loc 1 210 0
 919 032e 7B69     		ldr	r3, [r7, #20]
 920 0330 DB69     		ldr	r3, [r3, #28]
 921 0332 7A69     		ldr	r2, [r7, #20]
 922 0334 D269     		ldr	r2, [r2, #28]
 923 0336 92F89E21 		ldrb	r2, [r2, #414]	@ zero_extendqisi2
 924 033a 02F00F02 		and	r2, r2, #15
 925 033e D2B2     		uxtb	r2, r2
 926 0340 83F89E21 		strb	r2, [r3, #414]
 211:.\PrimeImpl.c ****             pjob->_ppump->_rxbuffer[0x17] = (pjob->_ppump->_rxbuffer[0x17] & 0x0F);
 927              		.loc 1 211 0
 928 0344 7B69     		ldr	r3, [r7, #20]
 929 0346 DB69     		ldr	r3, [r3, #28]
ARM GAS  C:\Users\RECEPC~1\AppData\Local\Temp\ccNQP0pp.s 			page 21


 930 0348 7A69     		ldr	r2, [r7, #20]
 931 034a D269     		ldr	r2, [r2, #28]
 932 034c 92F89F21 		ldrb	r2, [r2, #415]	@ zero_extendqisi2
 933 0350 02F00F02 		and	r2, r2, #15
 934 0354 D2B2     		uxtb	r2, r2
 935 0356 83F89F21 		strb	r2, [r3, #415]
 212:.\PrimeImpl.c ****             pjob->_ppump->_rxbuffer[0x18] = (pjob->_ppump->_rxbuffer[0x18] & 0x0F);
 936              		.loc 1 212 0
 937 035a 7B69     		ldr	r3, [r7, #20]
 938 035c DB69     		ldr	r3, [r3, #28]
 939 035e 7A69     		ldr	r2, [r7, #20]
 940 0360 D269     		ldr	r2, [r2, #28]
 941 0362 92F8A021 		ldrb	r2, [r2, #416]	@ zero_extendqisi2
 942 0366 02F00F02 		and	r2, r2, #15
 943 036a D2B2     		uxtb	r2, r2
 944 036c 83F8A021 		strb	r2, [r3, #416]
 213:.\PrimeImpl.c ****             pjob->_ppump->_rxbuffer[0x19] = (pjob->_ppump->_rxbuffer[0x19] & 0x0F);
 945              		.loc 1 213 0
 946 0370 7B69     		ldr	r3, [r7, #20]
 947 0372 DB69     		ldr	r3, [r3, #28]
 948 0374 7A69     		ldr	r2, [r7, #20]
 949 0376 D269     		ldr	r2, [r2, #28]
 950 0378 92F8A121 		ldrb	r2, [r2, #417]	@ zero_extendqisi2
 951 037c 02F00F02 		and	r2, r2, #15
 952 0380 D2B2     		uxtb	r2, r2
 953 0382 83F8A121 		strb	r2, [r3, #417]
 214:.\PrimeImpl.c ****             pjob->_ppump->_rxbuffer[0x1A] = (pjob->_ppump->_rxbuffer[0x1A] & 0x0F);
 954              		.loc 1 214 0
 955 0386 7B69     		ldr	r3, [r7, #20]
 956 0388 DB69     		ldr	r3, [r3, #28]
 957 038a 7A69     		ldr	r2, [r7, #20]
 958 038c D269     		ldr	r2, [r2, #28]
 959 038e 92F8A221 		ldrb	r2, [r2, #418]	@ zero_extendqisi2
 960 0392 02F00F02 		and	r2, r2, #15
 961 0396 D2B2     		uxtb	r2, r2
 962 0398 83F8A221 		strb	r2, [r3, #418]
 215:.\PrimeImpl.c ****             pjob->_ppump->_authorizationinfo._volumeamount = LSDBCDBUFF2HEX(PBYTECAST(&pjob->_ppump
 963              		.loc 1 215 0
 964 039c 7B69     		ldr	r3, [r7, #20]
 965 039e DC69     		ldr	r4, [r3, #28]
 966 03a0 7B69     		ldr	r3, [r7, #20]
 967 03a2 DB69     		ldr	r3, [r3, #28]
 968 03a4 03F29B13 		addw	r3, r3, #411
 969 03a8 1846     		mov	r0, r3
 970 03aa 0821     		movs	r1, #8
 971 03ac FFF7FEFF 		bl	LSDBCDBUFF2HEX
 972 03b0 0346     		mov	r3, r0
 973 03b2 C4F87C39 		str	r3, [r4, #2428]
 216:.\PrimeImpl.c ****             
 217:.\PrimeImpl.c ****             ////////////////////////////////////////////////////////////////////////////////
 218:.\PrimeImpl.c ****             ////////////////////////////////////////////////////////////////////////////////
 219:.\PrimeImpl.c ****             
 220:.\PrimeImpl.c ****             //Bytes from index 28 to 35 are the digits for the money charged to the transaction
 221:.\PrimeImpl.c ****             //Digits are in BCD format
 222:.\PrimeImpl.c ****             if(_g_dispenserlayoutinfo._displaydigitsmode == 0x07)
 974              		.loc 1 222 0
 975 03b6 B74B     		ldr	r3, .L40
ARM GAS  C:\Users\RECEPC~1\AppData\Local\Temp\ccNQP0pp.s 			page 22


 976 03b8 1B7C     		ldrb	r3, [r3, #16]	@ zero_extendqisi2
 977 03ba 072B     		cmp	r3, #7
 978 03bc 05D1     		bne	.L27
 223:.\PrimeImpl.c ****                 pjob->_ppump->_rxbuffer[0x1C] = (pjob->_ppump->_rxbuffer[0x1C] & 0x00);//Zero to ma
 979              		.loc 1 223 0
 980 03be 7B69     		ldr	r3, [r7, #20]
 981 03c0 DB69     		ldr	r3, [r3, #28]
 982 03c2 0022     		movs	r2, #0
 983 03c4 83F8A421 		strb	r2, [r3, #420]
 984 03c8 0AE0     		b	.L28
 985              	.L27:
 224:.\PrimeImpl.c ****             else
 225:.\PrimeImpl.c ****                 pjob->_ppump->_rxbuffer[0x1C] = (pjob->_ppump->_rxbuffer[0x1C] & 0x0F);
 986              		.loc 1 225 0
 987 03ca 7B69     		ldr	r3, [r7, #20]
 988 03cc DB69     		ldr	r3, [r3, #28]
 989 03ce 7A69     		ldr	r2, [r7, #20]
 990 03d0 D269     		ldr	r2, [r2, #28]
 991 03d2 92F8A421 		ldrb	r2, [r2, #420]	@ zero_extendqisi2
 992 03d6 02F00F02 		and	r2, r2, #15
 993 03da D2B2     		uxtb	r2, r2
 994 03dc 83F8A421 		strb	r2, [r3, #420]
 995              	.L28:
 226:.\PrimeImpl.c ****             
 227:.\PrimeImpl.c ****             pjob->_ppump->_rxbuffer[0x1D] = (pjob->_ppump->_rxbuffer[0x1D] & 0x0F);
 996              		.loc 1 227 0
 997 03e0 7B69     		ldr	r3, [r7, #20]
 998 03e2 DB69     		ldr	r3, [r3, #28]
 999 03e4 7A69     		ldr	r2, [r7, #20]
 1000 03e6 D269     		ldr	r2, [r2, #28]
 1001 03e8 92F8A521 		ldrb	r2, [r2, #421]	@ zero_extendqisi2
 1002 03ec 02F00F02 		and	r2, r2, #15
 1003 03f0 D2B2     		uxtb	r2, r2
 1004 03f2 83F8A521 		strb	r2, [r3, #421]
 228:.\PrimeImpl.c ****             pjob->_ppump->_rxbuffer[0x1E] = (pjob->_ppump->_rxbuffer[0x1E] & 0x0F);
 1005              		.loc 1 228 0
 1006 03f6 7B69     		ldr	r3, [r7, #20]
 1007 03f8 DB69     		ldr	r3, [r3, #28]
 1008 03fa 7A69     		ldr	r2, [r7, #20]
 1009 03fc D269     		ldr	r2, [r2, #28]
 1010 03fe 92F8A621 		ldrb	r2, [r2, #422]	@ zero_extendqisi2
 1011 0402 02F00F02 		and	r2, r2, #15
 1012 0406 D2B2     		uxtb	r2, r2
 1013 0408 83F8A621 		strb	r2, [r3, #422]
 229:.\PrimeImpl.c ****             pjob->_ppump->_rxbuffer[0x1F] = (pjob->_ppump->_rxbuffer[0x1F] & 0x0F);
 1014              		.loc 1 229 0
 1015 040c 7B69     		ldr	r3, [r7, #20]
 1016 040e DB69     		ldr	r3, [r3, #28]
 1017 0410 7A69     		ldr	r2, [r7, #20]
 1018 0412 D269     		ldr	r2, [r2, #28]
 1019 0414 92F8A721 		ldrb	r2, [r2, #423]	@ zero_extendqisi2
 1020 0418 02F00F02 		and	r2, r2, #15
 1021 041c D2B2     		uxtb	r2, r2
 1022 041e 83F8A721 		strb	r2, [r3, #423]
 230:.\PrimeImpl.c ****             pjob->_ppump->_rxbuffer[0x20] = (pjob->_ppump->_rxbuffer[0x20] & 0x0F);
 1023              		.loc 1 230 0
 1024 0422 7B69     		ldr	r3, [r7, #20]
ARM GAS  C:\Users\RECEPC~1\AppData\Local\Temp\ccNQP0pp.s 			page 23


 1025 0424 DB69     		ldr	r3, [r3, #28]
 1026 0426 7A69     		ldr	r2, [r7, #20]
 1027 0428 D269     		ldr	r2, [r2, #28]
 1028 042a 92F8A821 		ldrb	r2, [r2, #424]	@ zero_extendqisi2
 1029 042e 02F00F02 		and	r2, r2, #15
 1030 0432 D2B2     		uxtb	r2, r2
 1031 0434 83F8A821 		strb	r2, [r3, #424]
 231:.\PrimeImpl.c ****             pjob->_ppump->_rxbuffer[0x21] = (pjob->_ppump->_rxbuffer[0x21] & 0x0F);
 1032              		.loc 1 231 0
 1033 0438 7B69     		ldr	r3, [r7, #20]
 1034 043a DB69     		ldr	r3, [r3, #28]
 1035 043c 7A69     		ldr	r2, [r7, #20]
 1036 043e D269     		ldr	r2, [r2, #28]
 1037 0440 92F8A921 		ldrb	r2, [r2, #425]	@ zero_extendqisi2
 1038 0444 02F00F02 		and	r2, r2, #15
 1039 0448 D2B2     		uxtb	r2, r2
 1040 044a 83F8A921 		strb	r2, [r3, #425]
 232:.\PrimeImpl.c ****             pjob->_ppump->_rxbuffer[0x22] = (pjob->_ppump->_rxbuffer[0x22] & 0x0F);
 1041              		.loc 1 232 0
 1042 044e 7B69     		ldr	r3, [r7, #20]
 1043 0450 DB69     		ldr	r3, [r3, #28]
 1044 0452 7A69     		ldr	r2, [r7, #20]
 1045 0454 D269     		ldr	r2, [r2, #28]
 1046 0456 92F8AA21 		ldrb	r2, [r2, #426]	@ zero_extendqisi2
 1047 045a 02F00F02 		and	r2, r2, #15
 1048 045e D2B2     		uxtb	r2, r2
 1049 0460 83F8AA21 		strb	r2, [r3, #426]
 233:.\PrimeImpl.c ****             pjob->_ppump->_rxbuffer[0x23] = (pjob->_ppump->_rxbuffer[0x23] & 0x0F);
 1050              		.loc 1 233 0
 1051 0464 7B69     		ldr	r3, [r7, #20]
 1052 0466 DB69     		ldr	r3, [r3, #28]
 1053 0468 7A69     		ldr	r2, [r7, #20]
 1054 046a D269     		ldr	r2, [r2, #28]
 1055 046c 92F8AB21 		ldrb	r2, [r2, #427]	@ zero_extendqisi2
 1056 0470 02F00F02 		and	r2, r2, #15
 1057 0474 D2B2     		uxtb	r2, r2
 1058 0476 83F8AB21 		strb	r2, [r3, #427]
 234:.\PrimeImpl.c ****             //INQUIRY ABOUT THE EXTRA x10 RESULT SINCE THERE IS AN EXTRA 0 IN THE RESPONSE FOR THE 
 235:.\PrimeImpl.c ****             //MEANWHILE DIVIDING BY 10 TO REMOVE THE ZERO
 236:.\PrimeImpl.c ****             if(_g_dispenserlayoutinfo._displaydigitsmode == 0x07)
 1059              		.loc 1 236 0
 1060 047a 864B     		ldr	r3, .L40
 1061 047c 1B7C     		ldrb	r3, [r3, #16]	@ zero_extendqisi2
 1062 047e 072B     		cmp	r3, #7
 1063 0480 11D1     		bne	.L29
 237:.\PrimeImpl.c ****                 pjob->_ppump->_authorizationinfo._presetamount = (LSDBCDBUFF2HEX(PBYTECAST(&pjob->_
 1064              		.loc 1 237 0
 1065 0482 7B69     		ldr	r3, [r7, #20]
 1066 0484 DC69     		ldr	r4, [r3, #28]
 1067 0486 7B69     		ldr	r3, [r7, #20]
 1068 0488 DB69     		ldr	r3, [r3, #28]
 1069 048a 03F5D273 		add	r3, r3, #420
 1070 048e 1846     		mov	r0, r3
 1071 0490 0821     		movs	r1, #8
 1072 0492 FFF7FEFF 		bl	LSDBCDBUFF2HEX
 1073 0496 0246     		mov	r2, r0
 1074 0498 7F4B     		ldr	r3, .L40+4
ARM GAS  C:\Users\RECEPC~1\AppData\Local\Temp\ccNQP0pp.s 			page 24


 1075 049a A3FB0223 		umull	r2, r3, r3, r2
 1076 049e DB08     		lsrs	r3, r3, #3
 1077 04a0 C4F87839 		str	r3, [r4, #2424]
 1078 04a4 0CE0     		b	.L30
 1079              	.L29:
 238:.\PrimeImpl.c ****             else
 239:.\PrimeImpl.c ****                 pjob->_ppump->_authorizationinfo._presetamount = LSDBCDBUFF2HEX(PBYTECAST(&pjob->_p
 1080              		.loc 1 239 0
 1081 04a6 7B69     		ldr	r3, [r7, #20]
 1082 04a8 DC69     		ldr	r4, [r3, #28]
 1083 04aa 7B69     		ldr	r3, [r7, #20]
 1084 04ac DB69     		ldr	r3, [r3, #28]
 1085 04ae 03F5D273 		add	r3, r3, #420
 1086 04b2 1846     		mov	r0, r3
 1087 04b4 0821     		movs	r1, #8
 1088 04b6 FFF7FEFF 		bl	LSDBCDBUFF2HEX
 1089 04ba 0346     		mov	r3, r0
 1090 04bc C4F87839 		str	r3, [r4, #2424]
 1091              	.L30:
 240:.\PrimeImpl.c ****                 
 241:.\PrimeImpl.c ****             ClearRtcBuffer();
 1092              		.loc 1 241 0
 1093 04c0 FFF7FEFF 		bl	ClearRtcBuffer
 242:.\PrimeImpl.c ****             ReadRTC();
 1094              		.loc 1 242 0
 1095 04c4 FFF7FEFF 		bl	ReadRTC
 243:.\PrimeImpl.c ****             //CAREFUL WITH RETURNS BETWEEN THE LOCK/UNLOCK CALLS
 244:.\PrimeImpl.c ****             //AND RECURSIVE CALLS THAT WOULD DEADLOCK!
 245:.\PrimeImpl.c ****             I2CBusLock();
 1096              		.loc 1 245 0
 1097 04c8 FFF7FEFF 		bl	I2CBusLock
 246:.\PrimeImpl.c ****         
 247:.\PrimeImpl.c ****             ClearEepromBuffer();
 1098              		.loc 1 247 0
 1099 04cc FFF7FEFF 		bl	ClearEepromBuffer
 248:.\PrimeImpl.c ****             //In this position is located the payment type (CREDIT: 0x0E , CASH:0x0D)
 249:.\PrimeImpl.c ****             if(pjob->_ppump->_trasactionbuffer[0x00] == 0x0D)
 1100              		.loc 1 249 0
 1101 04d0 7B69     		ldr	r3, [r7, #20]
 1102 04d2 DB69     		ldr	r3, [r3, #28]
 1103 04d4 93F82030 		ldrb	r3, [r3, #32]	@ zero_extendqisi2
 1104 04d8 0D2B     		cmp	r3, #13
 1105 04da 40F0DF80 		bne	.L31
 250:.\PrimeImpl.c ****             {
 251:.\PrimeImpl.c ****                 //HERE WE STORE THE LAST TRANSACTION IN EEPROM! ALWAYS THE PREVIOUS TRANSACTION REP
 252:.\PrimeImpl.c ****                 //WILL BE OVERWRITTEN AND LOST.
 253:.\PrimeImpl.c ****                 //IN CASE OF A "CREDIT SALE", THE WHOLE DATA WILL BE STORED IN A SEPARATE MEMORY RE
 254:.\PrimeImpl.c ****                 //SINCE IN CASE OF A RF LINK DROP, THE STATE OF THE SALE COULD BE RECOVERED BY THE 
 255:.\PrimeImpl.c ****                 LoadEepromPage(EEPROM_DISPENSER_PUMP1_LAYOUT_PAGE);
 1106              		.loc 1 255 0
 1107 04de 4FF40070 		mov	r0, #512
 1108 04e2 FFF7FEFF 		bl	LoadEepromPage
 256:.\PrimeImpl.c ****                 if(GetEepromBuffer()[0] == ((pjob->_ppump->_rxbuffer[0x04] & 0x0F) + 1))
 1109              		.loc 1 256 0
 1110 04e6 FFF7FEFF 		bl	GetEepromBuffer
 1111 04ea 0346     		mov	r3, r0
 1112 04ec 1B78     		ldrb	r3, [r3]	@ zero_extendqisi2
ARM GAS  C:\Users\RECEPC~1\AppData\Local\Temp\ccNQP0pp.s 			page 25


 1113 04ee 1A46     		mov	r2, r3
 1114 04f0 7B69     		ldr	r3, [r7, #20]
 1115 04f2 DB69     		ldr	r3, [r3, #28]
 1116 04f4 93F88C31 		ldrb	r3, [r3, #396]	@ zero_extendqisi2
 1117 04f8 03F00F03 		and	r3, r3, #15
 1118 04fc 0133     		adds	r3, r3, #1
 1119 04fe 9A42     		cmp	r2, r3
 1120 0500 22D1     		bne	.L32
 257:.\PrimeImpl.c ****                 {
 258:.\PrimeImpl.c ****                     ClearEepromBuffer();
 1121              		.loc 1 258 0
 1122 0502 FFF7FEFF 		bl	ClearEepromBuffer
 259:.\PrimeImpl.c ****                     //Storing the current Date/Time for this transaction
 260:.\PrimeImpl.c ****                     memcpy(GetEepromBuffer(), GetRtcBuffer(), 0x07);
 1123              		.loc 1 260 0
 1124 0506 FFF7FEFF 		bl	GetEepromBuffer
 1125 050a 0446     		mov	r4, r0
 1126 050c FFF7FEFF 		bl	GetRtcBuffer
 1127 0510 0346     		mov	r3, r0
 1128 0512 2046     		mov	r0, r4
 1129 0514 1946     		mov	r1, r3
 1130 0516 0722     		movs	r2, #7
 1131 0518 FFF7FEFF 		bl	memcpy
 261:.\PrimeImpl.c ****                     memcpy(&GetEepromBuffer()[0x07], pjob->_ppump->_rxbuffer, pjob->_ppump->_rxbuff
 1132              		.loc 1 261 0
 1133 051c FFF7FEFF 		bl	GetEepromBuffer
 1134 0520 0346     		mov	r3, r0
 1135 0522 D91D     		adds	r1, r3, #7
 1136 0524 7B69     		ldr	r3, [r7, #20]
 1137 0526 DB69     		ldr	r3, [r3, #28]
 1138 0528 03F5C472 		add	r2, r3, #392
 1139 052c 7B69     		ldr	r3, [r7, #20]
 1140 052e DB69     		ldr	r3, [r3, #28]
 1141 0530 B3F8F032 		ldrh	r3, [r3, #752]
 1142 0534 0846     		mov	r0, r1
 1143 0536 1146     		mov	r1, r2
 1144 0538 1A46     		mov	r2, r3
 1145 053a FFF7FEFF 		bl	memcpy
 262:.\PrimeImpl.c ****                     StoreEepromPage(EEPROM_DISPENSER_PUMP12_TRANSACTION_PAGE);
 1146              		.loc 1 262 0
 1147 053e 4FF4C860 		mov	r0, #1600
 1148 0542 FFF7FEFF 		bl	StoreEepromPage
 1149 0546 82E1     		b	.L36
 1150              	.L32:
 263:.\PrimeImpl.c ****                 }
 264:.\PrimeImpl.c ****                 else
 265:.\PrimeImpl.c ****                 {
 266:.\PrimeImpl.c ****                     ClearEepromBuffer();
 1151              		.loc 1 266 0
 1152 0548 FFF7FEFF 		bl	ClearEepromBuffer
 267:.\PrimeImpl.c ****                     LoadEepromPage(EEPROM_DISPENSER_PUMP2_LAYOUT_PAGE);
 1153              		.loc 1 267 0
 1154 054c 4FF41070 		mov	r0, #576
 1155 0550 FFF7FEFF 		bl	LoadEepromPage
 268:.\PrimeImpl.c ****                     if(GetEepromBuffer()[0] == ((pjob->_ppump->_rxbuffer[0x04] & 0x0F) + 1))
 1156              		.loc 1 268 0
 1157 0554 FFF7FEFF 		bl	GetEepromBuffer
ARM GAS  C:\Users\RECEPC~1\AppData\Local\Temp\ccNQP0pp.s 			page 26


 1158 0558 0346     		mov	r3, r0
 1159 055a 1B78     		ldrb	r3, [r3]	@ zero_extendqisi2
 1160 055c 1A46     		mov	r2, r3
 1161 055e 7B69     		ldr	r3, [r7, #20]
 1162 0560 DB69     		ldr	r3, [r3, #28]
 1163 0562 93F88C31 		ldrb	r3, [r3, #396]	@ zero_extendqisi2
 1164 0566 03F00F03 		and	r3, r3, #15
 1165 056a 0133     		adds	r3, r3, #1
 1166 056c 9A42     		cmp	r2, r3
 1167 056e 22D1     		bne	.L34
 269:.\PrimeImpl.c ****                     {
 270:.\PrimeImpl.c ****                         ClearEepromBuffer();
 1168              		.loc 1 270 0
 1169 0570 FFF7FEFF 		bl	ClearEepromBuffer
 271:.\PrimeImpl.c ****                         //Storing the current Date/Time for this transaction
 272:.\PrimeImpl.c ****                         memcpy(GetEepromBuffer(), GetRtcBuffer(), 0x07);
 1170              		.loc 1 272 0
 1171 0574 FFF7FEFF 		bl	GetEepromBuffer
 1172 0578 0446     		mov	r4, r0
 1173 057a FFF7FEFF 		bl	GetRtcBuffer
 1174 057e 0346     		mov	r3, r0
 1175 0580 2046     		mov	r0, r4
 1176 0582 1946     		mov	r1, r3
 1177 0584 0722     		movs	r2, #7
 1178 0586 FFF7FEFF 		bl	memcpy
 273:.\PrimeImpl.c ****                         memcpy(&GetEepromBuffer()[0x07], pjob->_ppump->_rxbuffer, pjob->_ppump->_rx
 1179              		.loc 1 273 0
 1180 058a FFF7FEFF 		bl	GetEepromBuffer
 1181 058e 0346     		mov	r3, r0
 1182 0590 D91D     		adds	r1, r3, #7
 1183 0592 7B69     		ldr	r3, [r7, #20]
 1184 0594 DB69     		ldr	r3, [r3, #28]
 1185 0596 03F5C472 		add	r2, r3, #392
 1186 059a 7B69     		ldr	r3, [r7, #20]
 1187 059c DB69     		ldr	r3, [r3, #28]
 1188 059e B3F8F032 		ldrh	r3, [r3, #752]
 1189 05a2 0846     		mov	r0, r1
 1190 05a4 1146     		mov	r1, r2
 1191 05a6 1A46     		mov	r2, r3
 1192 05a8 FFF7FEFF 		bl	memcpy
 274:.\PrimeImpl.c ****                         StoreEepromPage(EEPROM_DISPENSER_PUMP22_TRANSACTION_PAGE);
 1193              		.loc 1 274 0
 1194 05ac 4FF4E860 		mov	r0, #1856
 1195 05b0 FFF7FEFF 		bl	StoreEepromPage
 1196 05b4 4BE1     		b	.L36
 1197              	.L34:
 275:.\PrimeImpl.c ****                     }
 276:.\PrimeImpl.c ****                     else
 277:.\PrimeImpl.c ****                     {
 278:.\PrimeImpl.c ****                         ClearEepromBuffer();
 1198              		.loc 1 278 0
 1199 05b6 FFF7FEFF 		bl	ClearEepromBuffer
 279:.\PrimeImpl.c ****                         LoadEepromPage(EEPROM_DISPENSER_PUMP3_LAYOUT_PAGE);
 1200              		.loc 1 279 0
 1201 05ba 4FF42070 		mov	r0, #640
 1202 05be FFF7FEFF 		bl	LoadEepromPage
 280:.\PrimeImpl.c ****                         if(GetEepromBuffer()[0] == ((pjob->_ppump->_rxbuffer[0x04] & 0x0F) + 1))
ARM GAS  C:\Users\RECEPC~1\AppData\Local\Temp\ccNQP0pp.s 			page 27


 1203              		.loc 1 280 0
 1204 05c2 FFF7FEFF 		bl	GetEepromBuffer
 1205 05c6 0346     		mov	r3, r0
 1206 05c8 1B78     		ldrb	r3, [r3]	@ zero_extendqisi2
 1207 05ca 1A46     		mov	r2, r3
 1208 05cc 7B69     		ldr	r3, [r7, #20]
 1209 05ce DB69     		ldr	r3, [r3, #28]
 1210 05d0 93F88C31 		ldrb	r3, [r3, #396]	@ zero_extendqisi2
 1211 05d4 03F00F03 		and	r3, r3, #15
 1212 05d8 0133     		adds	r3, r3, #1
 1213 05da 9A42     		cmp	r2, r3
 1214 05dc 22D1     		bne	.L35
 281:.\PrimeImpl.c ****                         {
 282:.\PrimeImpl.c ****                             ClearEepromBuffer();
 1215              		.loc 1 282 0
 1216 05de FFF7FEFF 		bl	ClearEepromBuffer
 283:.\PrimeImpl.c ****                             //Storing the current Date/Time for this transaction
 284:.\PrimeImpl.c ****                             memcpy(GetEepromBuffer(), GetRtcBuffer(), 0x07);
 1217              		.loc 1 284 0
 1218 05e2 FFF7FEFF 		bl	GetEepromBuffer
 1219 05e6 0446     		mov	r4, r0
 1220 05e8 FFF7FEFF 		bl	GetRtcBuffer
 1221 05ec 0346     		mov	r3, r0
 1222 05ee 2046     		mov	r0, r4
 1223 05f0 1946     		mov	r1, r3
 1224 05f2 0722     		movs	r2, #7
 1225 05f4 FFF7FEFF 		bl	memcpy
 285:.\PrimeImpl.c ****                             memcpy(&GetEepromBuffer()[0x07], pjob->_ppump->_rxbuffer, pjob->_ppump-
 1226              		.loc 1 285 0
 1227 05f8 FFF7FEFF 		bl	GetEepromBuffer
 1228 05fc 0346     		mov	r3, r0
 1229 05fe D91D     		adds	r1, r3, #7
 1230 0600 7B69     		ldr	r3, [r7, #20]
 1231 0602 DB69     		ldr	r3, [r3, #28]
 1232 0604 03F5C472 		add	r2, r3, #392
 1233 0608 7B69     		ldr	r3, [r7, #20]
 1234 060a DB69     		ldr	r3, [r3, #28]
 1235 060c B3F8F032 		ldrh	r3, [r3, #752]
 1236 0610 0846     		mov	r0, r1
 1237 0612 1146     		mov	r1, r2
 1238 0614 1A46     		mov	r2, r3
 1239 0616 FFF7FEFF 		bl	memcpy
 286:.\PrimeImpl.c ****                             StoreEepromPage(EEPROM_DISPENSER_PUMP32_TRANSACTION_PAGE);
 1240              		.loc 1 286 0
 1241 061a 4FF40460 		mov	r0, #2112
 1242 061e FFF7FEFF 		bl	StoreEepromPage
 1243 0622 14E1     		b	.L36
 1244              	.L35:
 287:.\PrimeImpl.c ****                         }
 288:.\PrimeImpl.c ****                         else
 289:.\PrimeImpl.c ****                         {
 290:.\PrimeImpl.c ****                             ClearEepromBuffer();
 1245              		.loc 1 290 0
 1246 0624 FFF7FEFF 		bl	ClearEepromBuffer
 291:.\PrimeImpl.c ****                             LoadEepromPage(EEPROM_DISPENSER_PUMP4_LAYOUT_PAGE);
 1247              		.loc 1 291 0
 1248 0628 4FF43070 		mov	r0, #704
ARM GAS  C:\Users\RECEPC~1\AppData\Local\Temp\ccNQP0pp.s 			page 28


 1249 062c FFF7FEFF 		bl	LoadEepromPage
 292:.\PrimeImpl.c ****                             if(GetEepromBuffer()[0] == ((pjob->_ppump->_rxbuffer[0x04] & 0x0F) + 1)
 1250              		.loc 1 292 0
 1251 0630 FFF7FEFF 		bl	GetEepromBuffer
 1252 0634 0346     		mov	r3, r0
 1253 0636 1B78     		ldrb	r3, [r3]	@ zero_extendqisi2
 1254 0638 1A46     		mov	r2, r3
 1255 063a 7B69     		ldr	r3, [r7, #20]
 1256 063c DB69     		ldr	r3, [r3, #28]
 1257 063e 93F88C31 		ldrb	r3, [r3, #396]	@ zero_extendqisi2
 1258 0642 03F00F03 		and	r3, r3, #15
 1259 0646 0133     		adds	r3, r3, #1
 1260 0648 9A42     		cmp	r2, r3
 1261 064a 40F00081 		bne	.L36
 293:.\PrimeImpl.c ****                             {
 294:.\PrimeImpl.c ****                                 ClearEepromBuffer();
 1262              		.loc 1 294 0
 1263 064e FFF7FEFF 		bl	ClearEepromBuffer
 295:.\PrimeImpl.c ****                                 //Storing the current Date/Time for this transaction
 296:.\PrimeImpl.c ****                                 memcpy(GetEepromBuffer(), GetRtcBuffer(), 0x07);
 1264              		.loc 1 296 0
 1265 0652 FFF7FEFF 		bl	GetEepromBuffer
 1266 0656 0446     		mov	r4, r0
 1267 0658 FFF7FEFF 		bl	GetRtcBuffer
 1268 065c 0346     		mov	r3, r0
 1269 065e 2046     		mov	r0, r4
 1270 0660 1946     		mov	r1, r3
 1271 0662 0722     		movs	r2, #7
 1272 0664 FFF7FEFF 		bl	memcpy
 297:.\PrimeImpl.c ****                                 memcpy(&GetEepromBuffer()[0x07], pjob->_ppump->_rxbuffer, pjob->_pp
 1273              		.loc 1 297 0
 1274 0668 FFF7FEFF 		bl	GetEepromBuffer
 1275 066c 0346     		mov	r3, r0
 1276 066e D91D     		adds	r1, r3, #7
 1277 0670 7B69     		ldr	r3, [r7, #20]
 1278 0672 DB69     		ldr	r3, [r3, #28]
 1279 0674 03F5C472 		add	r2, r3, #392
 1280 0678 7B69     		ldr	r3, [r7, #20]
 1281 067a DB69     		ldr	r3, [r3, #28]
 1282 067c B3F8F032 		ldrh	r3, [r3, #752]
 1283 0680 0846     		mov	r0, r1
 1284 0682 1146     		mov	r1, r2
 1285 0684 1A46     		mov	r2, r3
 1286 0686 FFF7FEFF 		bl	memcpy
 298:.\PrimeImpl.c ****                                 StoreEepromPage(EEPROM_DISPENSER_PUMP42_TRANSACTION_PAGE);
 1287              		.loc 1 298 0
 1288 068a 4FF41460 		mov	r0, #2368
 1289 068e FFF7FEFF 		bl	StoreEepromPage
 1290 0692 DCE0     		b	.L36
 1291              	.L41:
 1292              		.align	2
 1293              	.L40:
 1294 0694 00000000 		.word	_g_dispenserlayoutinfo
 1295 0698 CDCCCCCC 		.word	-858993459
 1296              	.L31:
 299:.\PrimeImpl.c ****                             }
 300:.\PrimeImpl.c ****                         }
ARM GAS  C:\Users\RECEPC~1\AppData\Local\Temp\ccNQP0pp.s 			page 29


 301:.\PrimeImpl.c ****                     }
 302:.\PrimeImpl.c ****                 }
 303:.\PrimeImpl.c ****             }else{//CREDIT TRANSACTION
 304:.\PrimeImpl.c ****                 //HERE WE STORE THE LAST TRANSACTION IN EEPROM! ALWAYS THE PREVIOUS TRANSACTION REP
 305:.\PrimeImpl.c ****                 //WILL BE OVERWRITTEN AND LOST.
 306:.\PrimeImpl.c ****                 //IN CASE OF A "CREDIT SALE", THE WHOLE DATA WILL BE STORED IN A SEPARATE MEMORY RE
 307:.\PrimeImpl.c ****                 //SINCE IN CASE OF A RF LINK DROP, THE STATE OF THE SALE COULD BE RECOVERED BY THE 
 308:.\PrimeImpl.c ****                 LoadEepromPage(EEPROM_DISPENSER_PUMP1_LAYOUT_PAGE);
 1297              		.loc 1 308 0
 1298 069c 4FF40070 		mov	r0, #512
 1299 06a0 FFF7FEFF 		bl	LoadEepromPage
 309:.\PrimeImpl.c ****                 if(GetEepromBuffer()[0] == ((pjob->_ppump->_rxbuffer[0x04] & 0x0F) + 1))
 1300              		.loc 1 309 0
 1301 06a4 FFF7FEFF 		bl	GetEepromBuffer
 1302 06a8 0346     		mov	r3, r0
 1303 06aa 1B78     		ldrb	r3, [r3]	@ zero_extendqisi2
 1304 06ac 1A46     		mov	r2, r3
 1305 06ae 7B69     		ldr	r3, [r7, #20]
 1306 06b0 DB69     		ldr	r3, [r3, #28]
 1307 06b2 93F88C31 		ldrb	r3, [r3, #396]	@ zero_extendqisi2
 1308 06b6 03F00F03 		and	r3, r3, #15
 1309 06ba 0133     		adds	r3, r3, #1
 1310 06bc 9A42     		cmp	r2, r3
 1311 06be 22D1     		bne	.L37
 310:.\PrimeImpl.c ****                 {
 311:.\PrimeImpl.c ****                     ClearEepromBuffer();
 1312              		.loc 1 311 0
 1313 06c0 FFF7FEFF 		bl	ClearEepromBuffer
 312:.\PrimeImpl.c ****                     //Storing the current Date/Time for this transaction
 313:.\PrimeImpl.c ****                     memcpy(GetEepromBuffer(), GetRtcBuffer(), 0x07);
 1314              		.loc 1 313 0
 1315 06c4 FFF7FEFF 		bl	GetEepromBuffer
 1316 06c8 0446     		mov	r4, r0
 1317 06ca FFF7FEFF 		bl	GetRtcBuffer
 1318 06ce 0346     		mov	r3, r0
 1319 06d0 2046     		mov	r0, r4
 1320 06d2 1946     		mov	r1, r3
 1321 06d4 0722     		movs	r2, #7
 1322 06d6 FFF7FEFF 		bl	memcpy
 314:.\PrimeImpl.c ****                     memcpy(&GetEepromBuffer()[0x07], pjob->_ppump->_rxbuffer, pjob->_ppump->_rxbuff
 1323              		.loc 1 314 0
 1324 06da FFF7FEFF 		bl	GetEepromBuffer
 1325 06de 0346     		mov	r3, r0
 1326 06e0 D91D     		adds	r1, r3, #7
 1327 06e2 7B69     		ldr	r3, [r7, #20]
 1328 06e4 DB69     		ldr	r3, [r3, #28]
 1329 06e6 03F5C472 		add	r2, r3, #392
 1330 06ea 7B69     		ldr	r3, [r7, #20]
 1331 06ec DB69     		ldr	r3, [r3, #28]
 1332 06ee B3F8F032 		ldrh	r3, [r3, #752]
 1333 06f2 0846     		mov	r0, r1
 1334 06f4 1146     		mov	r1, r2
 1335 06f6 1A46     		mov	r2, r3
 1336 06f8 FFF7FEFF 		bl	memcpy
 315:.\PrimeImpl.c ****                     StoreEepromPage(EEPROM_DISPENSER_PUMP14_TRANSACTION_PAGE);
 1337              		.loc 1 315 0
 1338 06fc 4FF4D860 		mov	r0, #1728
ARM GAS  C:\Users\RECEPC~1\AppData\Local\Temp\ccNQP0pp.s 			page 30


 1339 0700 FFF7FEFF 		bl	StoreEepromPage
 1340 0704 A3E0     		b	.L36
 1341              	.L37:
 316:.\PrimeImpl.c ****                 }
 317:.\PrimeImpl.c ****                 else
 318:.\PrimeImpl.c ****                 {
 319:.\PrimeImpl.c ****                     ClearEepromBuffer();
 1342              		.loc 1 319 0
 1343 0706 FFF7FEFF 		bl	ClearEepromBuffer
 320:.\PrimeImpl.c ****                     LoadEepromPage(EEPROM_DISPENSER_PUMP2_LAYOUT_PAGE);
 1344              		.loc 1 320 0
 1345 070a 4FF41070 		mov	r0, #576
 1346 070e FFF7FEFF 		bl	LoadEepromPage
 321:.\PrimeImpl.c ****                     if(GetEepromBuffer()[0] == ((pjob->_ppump->_rxbuffer[0x04] & 0x0F) + 1))
 1347              		.loc 1 321 0
 1348 0712 FFF7FEFF 		bl	GetEepromBuffer
 1349 0716 0346     		mov	r3, r0
 1350 0718 1B78     		ldrb	r3, [r3]	@ zero_extendqisi2
 1351 071a 1A46     		mov	r2, r3
 1352 071c 7B69     		ldr	r3, [r7, #20]
 1353 071e DB69     		ldr	r3, [r3, #28]
 1354 0720 93F88C31 		ldrb	r3, [r3, #396]	@ zero_extendqisi2
 1355 0724 03F00F03 		and	r3, r3, #15
 1356 0728 0133     		adds	r3, r3, #1
 1357 072a 9A42     		cmp	r2, r3
 1358 072c 22D1     		bne	.L38
 322:.\PrimeImpl.c ****                     {
 323:.\PrimeImpl.c ****                         ClearEepromBuffer();
 1359              		.loc 1 323 0
 1360 072e FFF7FEFF 		bl	ClearEepromBuffer
 324:.\PrimeImpl.c ****                         //Storing the current Date/Time for this transaction
 325:.\PrimeImpl.c ****                         memcpy(GetEepromBuffer(), GetRtcBuffer(), 0x07);
 1361              		.loc 1 325 0
 1362 0732 FFF7FEFF 		bl	GetEepromBuffer
 1363 0736 0446     		mov	r4, r0
 1364 0738 FFF7FEFF 		bl	GetRtcBuffer
 1365 073c 0346     		mov	r3, r0
 1366 073e 2046     		mov	r0, r4
 1367 0740 1946     		mov	r1, r3
 1368 0742 0722     		movs	r2, #7
 1369 0744 FFF7FEFF 		bl	memcpy
 326:.\PrimeImpl.c ****                         memcpy(&GetEepromBuffer()[0x07], pjob->_ppump->_rxbuffer, pjob->_ppump->_rx
 1370              		.loc 1 326 0
 1371 0748 FFF7FEFF 		bl	GetEepromBuffer
 1372 074c 0346     		mov	r3, r0
 1373 074e D91D     		adds	r1, r3, #7
 1374 0750 7B69     		ldr	r3, [r7, #20]
 1375 0752 DB69     		ldr	r3, [r3, #28]
 1376 0754 03F5C472 		add	r2, r3, #392
 1377 0758 7B69     		ldr	r3, [r7, #20]
 1378 075a DB69     		ldr	r3, [r3, #28]
 1379 075c B3F8F032 		ldrh	r3, [r3, #752]
 1380 0760 0846     		mov	r0, r1
 1381 0762 1146     		mov	r1, r2
 1382 0764 1A46     		mov	r2, r3
 1383 0766 FFF7FEFF 		bl	memcpy
 327:.\PrimeImpl.c ****                         StoreEepromPage(EEPROM_DISPENSER_PUMP24_TRANSACTION_PAGE);
ARM GAS  C:\Users\RECEPC~1\AppData\Local\Temp\ccNQP0pp.s 			page 31


 1384              		.loc 1 327 0
 1385 076a 4FF4F860 		mov	r0, #1984
 1386 076e FFF7FEFF 		bl	StoreEepromPage
 1387 0772 6CE0     		b	.L36
 1388              	.L38:
 328:.\PrimeImpl.c ****                     }
 329:.\PrimeImpl.c ****                     else
 330:.\PrimeImpl.c ****                     {
 331:.\PrimeImpl.c ****                         ClearEepromBuffer();
 1389              		.loc 1 331 0
 1390 0774 FFF7FEFF 		bl	ClearEepromBuffer
 332:.\PrimeImpl.c ****                         LoadEepromPage(EEPROM_DISPENSER_PUMP3_LAYOUT_PAGE);
 1391              		.loc 1 332 0
 1392 0778 4FF42070 		mov	r0, #640
 1393 077c FFF7FEFF 		bl	LoadEepromPage
 333:.\PrimeImpl.c ****                         if(GetEepromBuffer()[0] == ((pjob->_ppump->_rxbuffer[0x04] & 0x0F) + 1))
 1394              		.loc 1 333 0
 1395 0780 FFF7FEFF 		bl	GetEepromBuffer
 1396 0784 0346     		mov	r3, r0
 1397 0786 1B78     		ldrb	r3, [r3]	@ zero_extendqisi2
 1398 0788 1A46     		mov	r2, r3
 1399 078a 7B69     		ldr	r3, [r7, #20]
 1400 078c DB69     		ldr	r3, [r3, #28]
 1401 078e 93F88C31 		ldrb	r3, [r3, #396]	@ zero_extendqisi2
 1402 0792 03F00F03 		and	r3, r3, #15
 1403 0796 0133     		adds	r3, r3, #1
 1404 0798 9A42     		cmp	r2, r3
 1405 079a 22D1     		bne	.L39
 334:.\PrimeImpl.c ****                         {
 335:.\PrimeImpl.c ****                             ClearEepromBuffer();
 1406              		.loc 1 335 0
 1407 079c FFF7FEFF 		bl	ClearEepromBuffer
 336:.\PrimeImpl.c ****                             //Storing the current Date/Time for this transaction
 337:.\PrimeImpl.c ****                             memcpy(GetEepromBuffer(), GetRtcBuffer(), 0x07);
 1408              		.loc 1 337 0
 1409 07a0 FFF7FEFF 		bl	GetEepromBuffer
 1410 07a4 0446     		mov	r4, r0
 1411 07a6 FFF7FEFF 		bl	GetRtcBuffer
 1412 07aa 0346     		mov	r3, r0
 1413 07ac 2046     		mov	r0, r4
 1414 07ae 1946     		mov	r1, r3
 1415 07b0 0722     		movs	r2, #7
 1416 07b2 FFF7FEFF 		bl	memcpy
 338:.\PrimeImpl.c ****                             memcpy(&GetEepromBuffer()[0x07], pjob->_ppump->_rxbuffer, pjob->_ppump-
 1417              		.loc 1 338 0
 1418 07b6 FFF7FEFF 		bl	GetEepromBuffer
 1419 07ba 0346     		mov	r3, r0
 1420 07bc D91D     		adds	r1, r3, #7
 1421 07be 7B69     		ldr	r3, [r7, #20]
 1422 07c0 DB69     		ldr	r3, [r3, #28]
 1423 07c2 03F5C472 		add	r2, r3, #392
 1424 07c6 7B69     		ldr	r3, [r7, #20]
 1425 07c8 DB69     		ldr	r3, [r3, #28]
 1426 07ca B3F8F032 		ldrh	r3, [r3, #752]
 1427 07ce 0846     		mov	r0, r1
 1428 07d0 1146     		mov	r1, r2
 1429 07d2 1A46     		mov	r2, r3
ARM GAS  C:\Users\RECEPC~1\AppData\Local\Temp\ccNQP0pp.s 			page 32


 1430 07d4 FFF7FEFF 		bl	memcpy
 339:.\PrimeImpl.c ****                             StoreEepromPage(EEPROM_DISPENSER_PUMP34_TRANSACTION_PAGE);
 1431              		.loc 1 339 0
 1432 07d8 4FF40C60 		mov	r0, #2240
 1433 07dc FFF7FEFF 		bl	StoreEepromPage
 1434 07e0 35E0     		b	.L36
 1435              	.L39:
 340:.\PrimeImpl.c ****                         }
 341:.\PrimeImpl.c ****                         else
 342:.\PrimeImpl.c ****                         {
 343:.\PrimeImpl.c ****                             ClearEepromBuffer();
 1436              		.loc 1 343 0
 1437 07e2 FFF7FEFF 		bl	ClearEepromBuffer
 344:.\PrimeImpl.c ****                             LoadEepromPage(EEPROM_DISPENSER_PUMP4_LAYOUT_PAGE);
 1438              		.loc 1 344 0
 1439 07e6 4FF43070 		mov	r0, #704
 1440 07ea FFF7FEFF 		bl	LoadEepromPage
 345:.\PrimeImpl.c ****                             if(GetEepromBuffer()[0] == ((pjob->_ppump->_rxbuffer[0x04] & 0x0F) + 1)
 1441              		.loc 1 345 0
 1442 07ee FFF7FEFF 		bl	GetEepromBuffer
 1443 07f2 0346     		mov	r3, r0
 1444 07f4 1B78     		ldrb	r3, [r3]	@ zero_extendqisi2
 1445 07f6 1A46     		mov	r2, r3
 1446 07f8 7B69     		ldr	r3, [r7, #20]
 1447 07fa DB69     		ldr	r3, [r3, #28]
 1448 07fc 93F88C31 		ldrb	r3, [r3, #396]	@ zero_extendqisi2
 1449 0800 03F00F03 		and	r3, r3, #15
 1450 0804 0133     		adds	r3, r3, #1
 1451 0806 9A42     		cmp	r2, r3
 1452 0808 21D1     		bne	.L36
 346:.\PrimeImpl.c ****                             {
 347:.\PrimeImpl.c ****                                 ClearEepromBuffer();
 1453              		.loc 1 347 0
 1454 080a FFF7FEFF 		bl	ClearEepromBuffer
 348:.\PrimeImpl.c ****                                 //Storing the current Date/Time for this transaction
 349:.\PrimeImpl.c ****                                 memcpy(GetEepromBuffer(), GetRtcBuffer(), 0x07);
 1455              		.loc 1 349 0
 1456 080e FFF7FEFF 		bl	GetEepromBuffer
 1457 0812 0446     		mov	r4, r0
 1458 0814 FFF7FEFF 		bl	GetRtcBuffer
 1459 0818 0346     		mov	r3, r0
 1460 081a 2046     		mov	r0, r4
 1461 081c 1946     		mov	r1, r3
 1462 081e 0722     		movs	r2, #7
 1463 0820 FFF7FEFF 		bl	memcpy
 350:.\PrimeImpl.c ****                                 memcpy(&GetEepromBuffer()[0x07], pjob->_ppump->_rxbuffer, pjob->_pp
 1464              		.loc 1 350 0
 1465 0824 FFF7FEFF 		bl	GetEepromBuffer
 1466 0828 0346     		mov	r3, r0
 1467 082a D91D     		adds	r1, r3, #7
 1468 082c 7B69     		ldr	r3, [r7, #20]
 1469 082e DB69     		ldr	r3, [r3, #28]
 1470 0830 03F5C472 		add	r2, r3, #392
 1471 0834 7B69     		ldr	r3, [r7, #20]
 1472 0836 DB69     		ldr	r3, [r3, #28]
 1473 0838 B3F8F032 		ldrh	r3, [r3, #752]
 1474 083c 0846     		mov	r0, r1
ARM GAS  C:\Users\RECEPC~1\AppData\Local\Temp\ccNQP0pp.s 			page 33


 1475 083e 1146     		mov	r1, r2
 1476 0840 1A46     		mov	r2, r3
 1477 0842 FFF7FEFF 		bl	memcpy
 351:.\PrimeImpl.c ****                                 StoreEepromPage(EEPROM_DISPENSER_PUMP44_TRANSACTION_PAGE);
 1478              		.loc 1 351 0
 1479 0846 4FF41C60 		mov	r0, #2496
 1480 084a FFF7FEFF 		bl	StoreEepromPage
 1481              	.L36:
 352:.\PrimeImpl.c ****                             }
 353:.\PrimeImpl.c ****                         }
 354:.\PrimeImpl.c ****                     }
 355:.\PrimeImpl.c ****                 }
 356:.\PrimeImpl.c ****             }
 357:.\PrimeImpl.c ****             I2CBusUnlock();
 1482              		.loc 1 357 0
 1483 084e FFF7FEFF 		bl	I2CBusUnlock
 358:.\PrimeImpl.c ****                 
 359:.\PrimeImpl.c ****             //HERE WE ATTEMPT TO PUSH THE TRANSACTION INTO THE PUMP'S TRANSACTIONAL QUEUE.
 360:.\PrimeImpl.c ****             //THIS IS DONE ONLY IF THERE IS ROOM IN THE QUEUE, OTHERWISE THIS STATE WON'T
 361:.\PrimeImpl.c ****             //BE REPORTED TO THE REMOTE PEER.
 362:.\PrimeImpl.c ****             pjob->_ppump->PumpTransQueueLock(pjob->_ppump);
 1484              		.loc 1 362 0
 1485 0852 7B69     		ldr	r3, [r7, #20]
 1486 0854 DB69     		ldr	r3, [r3, #28]
 1487 0856 D3F80C39 		ldr	r3, [r3, #2316]
 1488 085a 7A69     		ldr	r2, [r7, #20]
 1489 085c D269     		ldr	r2, [r2, #28]
 1490 085e 1046     		mov	r0, r2
 1491 0860 9847     		blx	r3
 363:.\PrimeImpl.c ****             PNEAR_PUMPTRANSACTIONALSTATEPTR pts = pjob->_ppump->PumpTransQueueAllocate(pjob->_ppump
 1492              		.loc 1 363 0
 1493 0862 7B69     		ldr	r3, [r7, #20]
 1494 0864 DB69     		ldr	r3, [r3, #28]
 1495 0866 D3F82039 		ldr	r3, [r3, #2336]
 1496 086a 7A69     		ldr	r2, [r7, #20]
 1497 086c D269     		ldr	r2, [r2, #28]
 1498 086e 1046     		mov	r0, r2
 1499 0870 9847     		blx	r3
 1500 0872 F860     		str	r0, [r7, #12]
 364:.\PrimeImpl.c ****             pjob->_ppump->PumpTransQueueUnlock(pjob->_ppump);
 1501              		.loc 1 364 0
 1502 0874 7B69     		ldr	r3, [r7, #20]
 1503 0876 DB69     		ldr	r3, [r3, #28]
 1504 0878 D3F81039 		ldr	r3, [r3, #2320]
 1505 087c 7A69     		ldr	r2, [r7, #20]
 1506 087e D269     		ldr	r2, [r2, #28]
 1507 0880 1046     		mov	r0, r2
 1508 0882 9847     		blx	r3
 365:.\PrimeImpl.c ****             if(pts)
 1509              		.loc 1 365 0
 1510 0884 FB68     		ldr	r3, [r7, #12]
 1511 0886 002B     		cmp	r3, #0
 1512 0888 31D0     		beq	.L17
 366:.\PrimeImpl.c ****             {
 367:.\PrimeImpl.c ****                 pts->_transtate = RF_MUX_CASH_SALE_END_REPORT_RESPONSE;
 1513              		.loc 1 367 0
 1514 088a FB68     		ldr	r3, [r7, #12]
ARM GAS  C:\Users\RECEPC~1\AppData\Local\Temp\ccNQP0pp.s 			page 34


 1515 088c A422     		movs	r2, #164
 1516 088e 5A70     		strb	r2, [r3, #1]
 368:.\PrimeImpl.c ****                 memcpy(pts->_buffer, pjob->_ppump->_rxbuffer, pjob->_ppump->_rxbuffersize);
 1517              		.loc 1 368 0
 1518 0890 FB68     		ldr	r3, [r7, #12]
 1519 0892 991C     		adds	r1, r3, #2
 1520 0894 7B69     		ldr	r3, [r7, #20]
 1521 0896 DB69     		ldr	r3, [r3, #28]
 1522 0898 03F5C472 		add	r2, r3, #392
 1523 089c 7B69     		ldr	r3, [r7, #20]
 1524 089e DB69     		ldr	r3, [r3, #28]
 1525 08a0 B3F8F032 		ldrh	r3, [r3, #752]
 1526 08a4 0846     		mov	r0, r1
 1527 08a6 1146     		mov	r1, r2
 1528 08a8 1A46     		mov	r2, r3
 1529 08aa FFF7FEFF 		bl	memcpy
 369:.\PrimeImpl.c ****                 pts->_buffersize = pjob->_ppump->_rxbuffersize;
 1530              		.loc 1 369 0
 1531 08ae 7B69     		ldr	r3, [r7, #20]
 1532 08b0 DB69     		ldr	r3, [r3, #28]
 1533 08b2 B3F8F022 		ldrh	r2, [r3, #752]
 1534 08b6 FB68     		ldr	r3, [r7, #12]
 1535 08b8 A3F80221 		strh	r2, [r3, #258]	@ movhi
 370:.\PrimeImpl.c ****                 
 371:.\PrimeImpl.c ****                 pjob->_ppump->PumpTransQueueLock(pjob->_ppump);
 1536              		.loc 1 371 0
 1537 08bc 7B69     		ldr	r3, [r7, #20]
 1538 08be DB69     		ldr	r3, [r3, #28]
 1539 08c0 D3F80C39 		ldr	r3, [r3, #2316]
 1540 08c4 7A69     		ldr	r2, [r7, #20]
 1541 08c6 D269     		ldr	r2, [r2, #28]
 1542 08c8 1046     		mov	r0, r2
 1543 08ca 9847     		blx	r3
 372:.\PrimeImpl.c ****                 pjob->_ppump->PumpTransQueueEnqueue(pjob->_ppump, pts);
 1544              		.loc 1 372 0
 1545 08cc 7B69     		ldr	r3, [r7, #20]
 1546 08ce DB69     		ldr	r3, [r3, #28]
 1547 08d0 D3F81839 		ldr	r3, [r3, #2328]
 1548 08d4 7A69     		ldr	r2, [r7, #20]
 1549 08d6 D269     		ldr	r2, [r2, #28]
 1550 08d8 1046     		mov	r0, r2
 1551 08da F968     		ldr	r1, [r7, #12]
 1552 08dc 9847     		blx	r3
 373:.\PrimeImpl.c ****                 pjob->_ppump->PumpTransQueueUnlock(pjob->_ppump);
 1553              		.loc 1 373 0
 1554 08de 7B69     		ldr	r3, [r7, #20]
 1555 08e0 DB69     		ldr	r3, [r3, #28]
 1556 08e2 D3F81039 		ldr	r3, [r3, #2320]
 1557 08e6 7A69     		ldr	r2, [r7, #20]
 1558 08e8 D269     		ldr	r2, [r2, #28]
 1559 08ea 1046     		mov	r0, r2
 1560 08ec 9847     		blx	r3
 1561              	.L17:
 1562              	.LBE3:
 374:.\PrimeImpl.c ****             }
 375:.\PrimeImpl.c ****             
 376:.\PrimeImpl.c ****         }  
ARM GAS  C:\Users\RECEPC~1\AppData\Local\Temp\ccNQP0pp.s 			page 35


 377:.\PrimeImpl.c ****     }
 378:.\PrimeImpl.c **** }
 1563              		.loc 1 378 0
 1564 08ee 1837     		adds	r7, r7, #24
 1565              		.cfi_def_cfa_offset 16
 1566 08f0 BD46     		mov	sp, r7
 1567              		.cfi_def_cfa_register 13
 1568              		@ sp needed
 1569 08f2 B0BD     		pop	{r4, r5, r7, pc}
 1570              		.cfi_endproc
 1571              	.LFE68:
 1572              		.size	ProcessPumpTransactionData, .-ProcessPumpTransactionData
 1573              		.section	.text.ProcessPumpTotalsDataStart,"ax",%progbits
 1574              		.align	2
 1575              		.global	ProcessPumpTotalsDataStart
 1576              		.thumb
 1577              		.thumb_func
 1578              		.type	ProcessPumpTotalsDataStart, %function
 1579              	ProcessPumpTotalsDataStart:
 1580              	.LFB69:
 379:.\PrimeImpl.c **** 
 380:.\PrimeImpl.c **** 
 381:.\PrimeImpl.c **** //@Created By: HIJH
 382:.\PrimeImpl.c **** //@Date: Septembre de 2016
 383:.\PrimeImpl.c **** //Processes the totals data buffer dynamically since it changes its size
 384:.\PrimeImpl.c **** //depending on the Pump-Hose layout
 385:.\PrimeImpl.c **** void ProcessPumpTotalsDataStart(void *pparam)
 386:.\PrimeImpl.c **** {
 1581              		.loc 1 386 0
 1582              		.cfi_startproc
 1583              		@ args = 0, pretend = 0, frame = 16
 1584              		@ frame_needed = 1, uses_anonymous_args = 0
 1585 0000 90B5     		push	{r4, r7, lr}
 1586              		.cfi_def_cfa_offset 12
 1587              		.cfi_offset 4, -12
 1588              		.cfi_offset 7, -8
 1589              		.cfi_offset 14, -4
 1590 0002 85B0     		sub	sp, sp, #20
 1591              		.cfi_def_cfa_offset 32
 1592 0004 00AF     		add	r7, sp, #0
 1593              		.cfi_def_cfa_register 7
 1594 0006 7860     		str	r0, [r7, #4]
 387:.\PrimeImpl.c ****     PPUMPTRANSACTIONJOBCONTEXTPTR pjob = (PPUMPTRANSACTIONJOBCONTEXTPTR)pparam;
 1595              		.loc 1 387 0
 1596 0008 7B68     		ldr	r3, [r7, #4]
 1597 000a BB60     		str	r3, [r7, #8]
 388:.\PrimeImpl.c ****     if(pjob)
 1598              		.loc 1 388 0
 1599 000c BB68     		ldr	r3, [r7, #8]
 1600 000e 002B     		cmp	r3, #0
 1601 0010 00F0B580 		beq	.L42
 1602              	.LBB5:
 389:.\PrimeImpl.c ****     {        
 390:.\PrimeImpl.c ****         uint8 hosecount = 0x00;
 1603              		.loc 1 390 0
 1604 0014 0023     		movs	r3, #0
 1605 0016 FB73     		strb	r3, [r7, #15]
ARM GAS  C:\Users\RECEPC~1\AppData\Local\Temp\ccNQP0pp.s 			page 36


 391:.\PrimeImpl.c ****         FOR(uint8 index = 0, index < _g_dispenserlayoutinfo._numpositions, index++)
 1606              		.loc 1 391 0
 1607 0018 0023     		movs	r3, #0
 1608 001a BB73     		strb	r3, [r7, #14]
 1609 001c 30E0     		b	.L44
 1610              	.L53:
 392:.\PrimeImpl.c ****         {
 393:.\PrimeImpl.c ****             if(pjob->_ppump->_pumpid == _g_pumps[index]._pumpid)
 1611              		.loc 1 393 0
 1612 001e BB68     		ldr	r3, [r7, #8]
 1613 0020 DB69     		ldr	r3, [r3, #28]
 1614 0022 1A78     		ldrb	r2, [r3]	@ zero_extendqisi2
 1615 0024 BB7B     		ldrb	r3, [r7, #14]	@ zero_extendqisi2
 1616 0026 5749     		ldr	r1, .L60
 1617 0028 4FF41960 		mov	r0, #2448
 1618 002c 00FB03F3 		mul	r3, r0, r3
 1619 0030 0B44     		add	r3, r3, r1
 1620 0032 1B78     		ldrb	r3, [r3]	@ zero_extendqisi2
 1621 0034 9A42     		cmp	r2, r3
 1622 0036 20D1     		bne	.L45
 394:.\PrimeImpl.c ****             {
 395:.\PrimeImpl.c ****                 switch(index)
 1623              		.loc 1 395 0
 1624 0038 BB7B     		ldrb	r3, [r7, #14]	@ zero_extendqisi2
 1625 003a 042B     		cmp	r3, #4
 1626 003c 26D8     		bhi	.L59
 1627 003e 01A2     		adr	r2, .L48
 1628 0040 52F823F0 		ldr	pc, [r2, r3, lsl #2]
 1629              		.p2align 2
 1630              	.L48:
 1631 0044 59000000 		.word	.L47+1
 1632 0048 61000000 		.word	.L49+1
 1633 004c 69000000 		.word	.L50+1
 1634 0050 8D000000 		.word	.L59+1
 1635 0054 71000000 		.word	.L51+1
 1636              		.p2align 1
 1637              	.L47:
 396:.\PrimeImpl.c ****                 {
 397:.\PrimeImpl.c ****                     case 0x0:
 398:.\PrimeImpl.c ****                     hosecount = _g_dispenserlayoutinfo._hosesposition1;
 1638              		.loc 1 398 0
 1639 0058 4B4B     		ldr	r3, .L60+4
 1640 005a DB78     		ldrb	r3, [r3, #3]
 1641 005c FB73     		strb	r3, [r7, #15]
 399:.\PrimeImpl.c ****                     break;
 1642              		.loc 1 399 0
 1643 005e 0BE0     		b	.L46
 1644              	.L49:
 400:.\PrimeImpl.c ****                     case 0x1:
 401:.\PrimeImpl.c ****                     hosecount = _g_dispenserlayoutinfo._hosesposition2;
 1645              		.loc 1 401 0
 1646 0060 494B     		ldr	r3, .L60+4
 1647 0062 1B79     		ldrb	r3, [r3, #4]
 1648 0064 FB73     		strb	r3, [r7, #15]
 402:.\PrimeImpl.c ****                     break;
 1649              		.loc 1 402 0
 1650 0066 07E0     		b	.L46
ARM GAS  C:\Users\RECEPC~1\AppData\Local\Temp\ccNQP0pp.s 			page 37


 1651              	.L50:
 403:.\PrimeImpl.c ****                     case 0x2:
 404:.\PrimeImpl.c ****                     hosecount = _g_dispenserlayoutinfo._hosesposition3;
 1652              		.loc 1 404 0
 1653 0068 474B     		ldr	r3, .L60+4
 1654 006a 5B79     		ldrb	r3, [r3, #5]
 1655 006c FB73     		strb	r3, [r7, #15]
 405:.\PrimeImpl.c ****                     break;
 1656              		.loc 1 405 0
 1657 006e 03E0     		b	.L46
 1658              	.L51:
 406:.\PrimeImpl.c ****                     case 0x4:
 407:.\PrimeImpl.c ****                     hosecount = _g_dispenserlayoutinfo._hosesposition4;
 1659              		.loc 1 407 0
 1660 0070 454B     		ldr	r3, .L60+4
 1661 0072 9B79     		ldrb	r3, [r3, #6]
 1662 0074 FB73     		strb	r3, [r7, #15]
 408:.\PrimeImpl.c ****                     break;
 1663              		.loc 1 408 0
 1664 0076 00BF     		nop
 1665              	.L46:
 409:.\PrimeImpl.c ****                 }
 410:.\PrimeImpl.c ****                 break;
 1666              		.loc 1 410 0
 1667 0078 08E0     		b	.L59
 1668              	.L45:
 391:.\PrimeImpl.c ****         {
 1669              		.loc 1 391 0 discriminator 2
 1670 007a BB7B     		ldrb	r3, [r7, #14]	@ zero_extendqisi2
 1671 007c 0133     		adds	r3, r3, #1
 1672 007e BB73     		strb	r3, [r7, #14]
 1673              	.L44:
 391:.\PrimeImpl.c ****         {
 1674              		.loc 1 391 0 is_stmt 0 discriminator 1
 1675 0080 414B     		ldr	r3, .L60+4
 1676 0082 9B78     		ldrb	r3, [r3, #2]	@ zero_extendqisi2
 1677 0084 BA7B     		ldrb	r2, [r7, #14]	@ zero_extendqisi2
 1678 0086 9A42     		cmp	r2, r3
 1679 0088 C9D3     		bcc	.L53
 1680 008a 00E0     		b	.L52
 1681              	.L59:
 1682              		.loc 1 410 0 is_stmt 1
 1683 008c 00BF     		nop
 1684              	.L52:
 411:.\PrimeImpl.c ****             }
 412:.\PrimeImpl.c ****         }
 413:.\PrimeImpl.c ****         
 414:.\PrimeImpl.c ****         //All indexes were taken according to the documentation
 415:.\PrimeImpl.c ****         FOR(index = 0, index < hosecount, index++)
 1685              		.loc 1 415 0
 1686 008e 0023     		movs	r3, #0
 1687 0090 BB73     		strb	r3, [r7, #14]
 1688 0092 66E0     		b	.L54
 1689              	.L58:
 416:.\PrimeImpl.c ****         {
 417:.\PrimeImpl.c ****             switch(index)
 1690              		.loc 1 417 0
ARM GAS  C:\Users\RECEPC~1\AppData\Local\Temp\ccNQP0pp.s 			page 38


 1691 0094 BB7B     		ldrb	r3, [r7, #14]	@ zero_extendqisi2
 1692 0096 002B     		cmp	r3, #0
 1693 0098 02D0     		beq	.L56
 1694 009a 012B     		cmp	r3, #1
 1695 009c 2FD0     		beq	.L57
 1696 009e 5DE0     		b	.L55
 1697              	.L56:
 418:.\PrimeImpl.c ****             {
 419:.\PrimeImpl.c ****             case 0x00:
 420:.\PrimeImpl.c ****                 pjob->_ppump->_datacontainer._var6 = BCDPositiveValueToUInt((LPRAWPTR)&pjob->_ppump
 1698              		.loc 1 420 0
 1699 00a0 BB68     		ldr	r3, [r7, #8]
 1700 00a2 DC69     		ldr	r4, [r3, #28]
 1701 00a4 BB68     		ldr	r3, [r7, #8]
 1702 00a6 DA69     		ldr	r2, [r3, #28]
 1703 00a8 BB7B     		ldrb	r3, [r7, #14]	@ zero_extendqisi2
 1704 00aa 2A21     		movs	r1, #42
 1705 00ac 01FB03F3 		mul	r3, r1, r3
 1706 00b0 0233     		adds	r3, r3, #2
 1707 00b2 03F5C473 		add	r3, r3, #392
 1708 00b6 1344     		add	r3, r3, r2
 1709 00b8 1846     		mov	r0, r3
 1710 00ba 0C21     		movs	r1, #12
 1711 00bc 0F22     		movs	r2, #15
 1712 00be FFF7FEFF 		bl	BCDPositiveValueToUInt
 1713 00c2 0246     		mov	r2, r0
 1714 00c4 0B46     		mov	r3, r1
 1715 00c6 04F51461 		add	r1, r4, #2368
 1716 00ca C1E90023 		strd	r2, [r1]
 421:.\PrimeImpl.c ****                 pjob->_ppump->_datacontainer._var7 = BCDPositiveValueToUInt((LPRAWPTR)&pjob->_ppump
 1717              		.loc 1 421 0
 1718 00ce BB68     		ldr	r3, [r7, #8]
 1719 00d0 DC69     		ldr	r4, [r3, #28]
 1720 00d2 BB68     		ldr	r3, [r7, #8]
 1721 00d4 DA69     		ldr	r2, [r3, #28]
 1722 00d6 BB7B     		ldrb	r3, [r7, #14]	@ zero_extendqisi2
 1723 00d8 2A21     		movs	r1, #42
 1724 00da 01FB03F3 		mul	r3, r1, r3
 1725 00de 1133     		adds	r3, r3, #17
 1726 00e0 03F5C473 		add	r3, r3, #392
 1727 00e4 1344     		add	r3, r3, r2
 1728 00e6 1846     		mov	r0, r3
 1729 00e8 0C21     		movs	r1, #12
 1730 00ea 0F22     		movs	r2, #15
 1731 00ec FFF7FEFF 		bl	BCDPositiveValueToUInt
 1732 00f0 0246     		mov	r2, r0
 1733 00f2 0B46     		mov	r3, r1
 1734 00f4 04F64811 		addw	r1, r4, #2376
 1735 00f8 C1E90023 		strd	r2, [r1]
 422:.\PrimeImpl.c ****                 break;
 1736              		.loc 1 422 0
 1737 00fc 2EE0     		b	.L55
 1738              	.L57:
 423:.\PrimeImpl.c ****             case 0x01:
 424:.\PrimeImpl.c ****                 pjob->_ppump->_datacontainer._var8 = BCDPositiveValueToUInt((LPRAWPTR)&pjob->_ppump
 1739              		.loc 1 424 0
 1740 00fe BB68     		ldr	r3, [r7, #8]
ARM GAS  C:\Users\RECEPC~1\AppData\Local\Temp\ccNQP0pp.s 			page 39


 1741 0100 DC69     		ldr	r4, [r3, #28]
 1742 0102 BB68     		ldr	r3, [r7, #8]
 1743 0104 DA69     		ldr	r2, [r3, #28]
 1744 0106 BB7B     		ldrb	r3, [r7, #14]	@ zero_extendqisi2
 1745 0108 2A21     		movs	r1, #42
 1746 010a 01FB03F3 		mul	r3, r1, r3
 1747 010e 0233     		adds	r3, r3, #2
 1748 0110 03F5C473 		add	r3, r3, #392
 1749 0114 1344     		add	r3, r3, r2
 1750 0116 1846     		mov	r0, r3
 1751 0118 0C21     		movs	r1, #12
 1752 011a 0F22     		movs	r2, #15
 1753 011c FFF7FEFF 		bl	BCDPositiveValueToUInt
 1754 0120 0246     		mov	r2, r0
 1755 0122 0B46     		mov	r3, r1
 1756 0124 04F51561 		add	r1, r4, #2384
 1757 0128 C1E90023 		strd	r2, [r1]
 425:.\PrimeImpl.c ****                 pjob->_ppump->_datacontainer._var9 = BCDPositiveValueToUInt((LPRAWPTR)&pjob->_ppump
 1758              		.loc 1 425 0
 1759 012c BB68     		ldr	r3, [r7, #8]
 1760 012e DC69     		ldr	r4, [r3, #28]
 1761 0130 BB68     		ldr	r3, [r7, #8]
 1762 0132 DA69     		ldr	r2, [r3, #28]
 1763 0134 BB7B     		ldrb	r3, [r7, #14]	@ zero_extendqisi2
 1764 0136 2A21     		movs	r1, #42
 1765 0138 01FB03F3 		mul	r3, r1, r3
 1766 013c 1133     		adds	r3, r3, #17
 1767 013e 03F5C473 		add	r3, r3, #392
 1768 0142 1344     		add	r3, r3, r2
 1769 0144 1846     		mov	r0, r3
 1770 0146 0C21     		movs	r1, #12
 1771 0148 0F22     		movs	r2, #15
 1772 014a FFF7FEFF 		bl	BCDPositiveValueToUInt
 1773 014e 0246     		mov	r2, r0
 1774 0150 0B46     		mov	r3, r1
 1775 0152 04F65811 		addw	r1, r4, #2392
 1776 0156 C1E90023 		strd	r2, [r1]
 426:.\PrimeImpl.c ****                 break;
 1777              		.loc 1 426 0
 1778 015a 00BF     		nop
 1779              	.L55:
 415:.\PrimeImpl.c ****         {
 1780              		.loc 1 415 0 discriminator 2
 1781 015c BB7B     		ldrb	r3, [r7, #14]	@ zero_extendqisi2
 1782 015e 0133     		adds	r3, r3, #1
 1783 0160 BB73     		strb	r3, [r7, #14]
 1784              	.L54:
 415:.\PrimeImpl.c ****         {
 1785              		.loc 1 415 0 is_stmt 0 discriminator 1
 1786 0162 BA7B     		ldrb	r2, [r7, #14]	@ zero_extendqisi2
 1787 0164 FB7B     		ldrb	r3, [r7, #15]	@ zero_extendqisi2
 1788 0166 9A42     		cmp	r2, r3
 1789 0168 94D3     		bcc	.L58
 427:.\PrimeImpl.c ****             //WARNING: IN CASE OF AN ENCORE DISPENSER OR ANOTHER WITH MORE THAN TWO HOSES PER POSIT
 428:.\PrimeImpl.c ****             }
 429:.\PrimeImpl.c ****         }
 430:.\PrimeImpl.c ****         
ARM GAS  C:\Users\RECEPC~1\AppData\Local\Temp\ccNQP0pp.s 			page 40


 431:.\PrimeImpl.c ****         memset(pjob->_ppump->_rxbuffer, 0x00, _PUMP_RX_BUFFER_SIZE_);
 1790              		.loc 1 431 0 is_stmt 1
 1791 016a BB68     		ldr	r3, [r7, #8]
 1792 016c DB69     		ldr	r3, [r3, #28]
 1793 016e 03F5C473 		add	r3, r3, #392
 1794 0172 1846     		mov	r0, r3
 1795 0174 0021     		movs	r1, #0
 1796 0176 4FF4B472 		mov	r2, #360
 1797 017a FFF7FEFF 		bl	memset
 1798              	.L42:
 1799              	.LBE5:
 432:.\PrimeImpl.c ****     }
 433:.\PrimeImpl.c **** }
 1800              		.loc 1 433 0
 1801 017e 1437     		adds	r7, r7, #20
 1802              		.cfi_def_cfa_offset 12
 1803 0180 BD46     		mov	sp, r7
 1804              		.cfi_def_cfa_register 13
 1805              		@ sp needed
 1806 0182 90BD     		pop	{r4, r7, pc}
 1807              	.L61:
 1808              		.align	2
 1809              	.L60:
 1810 0184 00000000 		.word	_g_pumps
 1811 0188 00000000 		.word	_g_dispenserlayoutinfo
 1812              		.cfi_endproc
 1813              	.LFE69:
 1814              		.size	ProcessPumpTotalsDataStart, .-ProcessPumpTotalsDataStart
 1815              		.section	.text.ProcessPumpTotalsDataEnd,"ax",%progbits
 1816              		.align	2
 1817              		.global	ProcessPumpTotalsDataEnd
 1818              		.thumb
 1819              		.thumb_func
 1820              		.type	ProcessPumpTotalsDataEnd, %function
 1821              	ProcessPumpTotalsDataEnd:
 1822              	.LFB70:
 434:.\PrimeImpl.c **** 
 435:.\PrimeImpl.c **** //@Created By: HIJH
 436:.\PrimeImpl.c **** //@Septembre de 2016
 437:.\PrimeImpl.c **** void ProcessPumpTotalsDataEnd(void *pparam)
 438:.\PrimeImpl.c **** {
 1823              		.loc 1 438 0
 1824              		.cfi_startproc
 1825              		@ args = 0, pretend = 0, frame = 56
 1826              		@ frame_needed = 1, uses_anonymous_args = 0
 1827 0000 80B5     		push	{r7, lr}
 1828              		.cfi_def_cfa_offset 8
 1829              		.cfi_offset 7, -8
 1830              		.cfi_offset 14, -4
 1831 0002 8EB0     		sub	sp, sp, #56
 1832              		.cfi_def_cfa_offset 64
 1833 0004 00AF     		add	r7, sp, #0
 1834              		.cfi_def_cfa_register 7
 1835 0006 7860     		str	r0, [r7, #4]
 439:.\PrimeImpl.c ****     PPUMPTRANSACTIONJOBCONTEXTPTR pjob = (PPUMPTRANSACTIONJOBCONTEXTPTR)pparam;
 1836              		.loc 1 439 0
 1837 0008 7B68     		ldr	r3, [r7, #4]
ARM GAS  C:\Users\RECEPC~1\AppData\Local\Temp\ccNQP0pp.s 			page 41


 1838 000a FB61     		str	r3, [r7, #28]
 440:.\PrimeImpl.c ****     if(pjob)
 1839              		.loc 1 440 0
 1840 000c FB69     		ldr	r3, [r7, #28]
 1841 000e 002B     		cmp	r3, #0
 1842 0010 00F0F180 		beq	.L62
 1843              	.LBB6:
 441:.\PrimeImpl.c ****     {
 442:.\PrimeImpl.c ****         uint8 hosecount = 0x00;
 1844              		.loc 1 442 0
 1845 0014 0023     		movs	r3, #0
 1846 0016 87F83730 		strb	r3, [r7, #55]
 443:.\PrimeImpl.c ****         FOR(uint8 index = 0, index < _g_dispenserlayoutinfo._numpositions, index++)
 1847              		.loc 1 443 0
 1848 001a 0023     		movs	r3, #0
 1849 001c 87F83630 		strb	r3, [r7, #54]
 1850 0020 38E0     		b	.L64
 1851              	.L73:
 444:.\PrimeImpl.c ****         {
 445:.\PrimeImpl.c ****             if(pjob->_ppump->_pumpid == _g_pumps[index]._pumpid)
 1852              		.loc 1 445 0
 1853 0022 FB69     		ldr	r3, [r7, #28]
 1854 0024 DB69     		ldr	r3, [r3, #28]
 1855 0026 1A78     		ldrb	r2, [r3]	@ zero_extendqisi2
 1856 0028 97F83630 		ldrb	r3, [r7, #54]	@ zero_extendqisi2
 1857 002c 7349     		ldr	r1, .L86
 1858 002e 4FF41960 		mov	r0, #2448
 1859 0032 00FB03F3 		mul	r3, r0, r3
 1860 0036 0B44     		add	r3, r3, r1
 1861 0038 1B78     		ldrb	r3, [r3]	@ zero_extendqisi2
 1862 003a 9A42     		cmp	r2, r3
 1863 003c 25D1     		bne	.L65
 446:.\PrimeImpl.c ****             {
 447:.\PrimeImpl.c ****                 switch(index)
 1864              		.loc 1 447 0
 1865 003e 97F83630 		ldrb	r3, [r7, #54]	@ zero_extendqisi2
 1866 0042 042B     		cmp	r3, #4
 1867 0044 2DD8     		bhi	.L85
 1868 0046 01A2     		adr	r2, .L68
 1869 0048 52F823F0 		ldr	pc, [r2, r3, lsl #2]
 1870              		.p2align 2
 1871              	.L68:
 1872 004c 61000000 		.word	.L67+1
 1873 0050 6B000000 		.word	.L69+1
 1874 0054 75000000 		.word	.L70+1
 1875 0058 A3000000 		.word	.L85+1
 1876 005c 7F000000 		.word	.L71+1
 1877              		.p2align 1
 1878              	.L67:
 448:.\PrimeImpl.c ****                 {
 449:.\PrimeImpl.c ****                     case 0x0:
 450:.\PrimeImpl.c ****                     hosecount = _g_dispenserlayoutinfo._hosesposition1;
 1879              		.loc 1 450 0
 1880 0060 674B     		ldr	r3, .L86+4
 1881 0062 DB78     		ldrb	r3, [r3, #3]
 1882 0064 87F83730 		strb	r3, [r7, #55]
 451:.\PrimeImpl.c ****                     break;
ARM GAS  C:\Users\RECEPC~1\AppData\Local\Temp\ccNQP0pp.s 			page 42


 1883              		.loc 1 451 0
 1884 0068 0EE0     		b	.L66
 1885              	.L69:
 452:.\PrimeImpl.c ****                     case 0x1:
 453:.\PrimeImpl.c ****                     hosecount = _g_dispenserlayoutinfo._hosesposition2;
 1886              		.loc 1 453 0
 1887 006a 654B     		ldr	r3, .L86+4
 1888 006c 1B79     		ldrb	r3, [r3, #4]
 1889 006e 87F83730 		strb	r3, [r7, #55]
 454:.\PrimeImpl.c ****                     break;
 1890              		.loc 1 454 0
 1891 0072 09E0     		b	.L66
 1892              	.L70:
 455:.\PrimeImpl.c ****                     case 0x2:
 456:.\PrimeImpl.c ****                     hosecount = _g_dispenserlayoutinfo._hosesposition3;
 1893              		.loc 1 456 0
 1894 0074 624B     		ldr	r3, .L86+4
 1895 0076 5B79     		ldrb	r3, [r3, #5]
 1896 0078 87F83730 		strb	r3, [r7, #55]
 457:.\PrimeImpl.c ****                     break;
 1897              		.loc 1 457 0
 1898 007c 04E0     		b	.L66
 1899              	.L71:
 458:.\PrimeImpl.c ****                     case 0x4:
 459:.\PrimeImpl.c ****                     hosecount = _g_dispenserlayoutinfo._hosesposition4;
 1900              		.loc 1 459 0
 1901 007e 604B     		ldr	r3, .L86+4
 1902 0080 9B79     		ldrb	r3, [r3, #6]
 1903 0082 87F83730 		strb	r3, [r7, #55]
 460:.\PrimeImpl.c ****                     break;
 1904              		.loc 1 460 0
 1905 0086 00BF     		nop
 1906              	.L66:
 461:.\PrimeImpl.c ****                 }
 462:.\PrimeImpl.c ****                 break;
 1907              		.loc 1 462 0
 1908 0088 0BE0     		b	.L85
 1909              	.L65:
 443:.\PrimeImpl.c ****         {
 1910              		.loc 1 443 0 discriminator 2
 1911 008a 97F83630 		ldrb	r3, [r7, #54]	@ zero_extendqisi2
 1912 008e 0133     		adds	r3, r3, #1
 1913 0090 87F83630 		strb	r3, [r7, #54]
 1914              	.L64:
 443:.\PrimeImpl.c ****         {
 1915              		.loc 1 443 0 is_stmt 0 discriminator 1
 1916 0094 5A4B     		ldr	r3, .L86+4
 1917 0096 9B78     		ldrb	r3, [r3, #2]	@ zero_extendqisi2
 1918 0098 97F83620 		ldrb	r2, [r7, #54]	@ zero_extendqisi2
 1919 009c 9A42     		cmp	r2, r3
 1920 009e C0D3     		bcc	.L73
 1921 00a0 00E0     		b	.L72
 1922              	.L85:
 1923              		.loc 1 462 0 is_stmt 1
 1924 00a2 00BF     		nop
 1925              	.L72:
 463:.\PrimeImpl.c ****             }
ARM GAS  C:\Users\RECEPC~1\AppData\Local\Temp\ccNQP0pp.s 			page 43


 464:.\PrimeImpl.c ****         }
 465:.\PrimeImpl.c ****         
 466:.\PrimeImpl.c ****         uint64 lvar6, lvar7, lvar8, lvar9;
 467:.\PrimeImpl.c ****         //All indexes were taken according to the documentation
 468:.\PrimeImpl.c ****         FOR(index = 0, index < hosecount, index++)
 1926              		.loc 1 468 0
 1927 00a4 0023     		movs	r3, #0
 1928 00a6 87F83630 		strb	r3, [r7, #54]
 1929 00aa 55E0     		b	.L74
 1930              	.L78:
 469:.\PrimeImpl.c ****         {
 470:.\PrimeImpl.c ****             switch(index)
 1931              		.loc 1 470 0
 1932 00ac 97F83630 		ldrb	r3, [r7, #54]	@ zero_extendqisi2
 1933 00b0 002B     		cmp	r3, #0
 1934 00b2 02D0     		beq	.L76
 1935 00b4 012B     		cmp	r3, #1
 1936 00b6 25D0     		beq	.L77
 1937 00b8 49E0     		b	.L75
 1938              	.L76:
 471:.\PrimeImpl.c ****             {
 472:.\PrimeImpl.c ****             case 0x00:
 473:.\PrimeImpl.c ****                 lvar6 = BCDPositiveValueToUInt((LPRAWPTR)&pjob->_ppump->_rxbuffer[0x02 + _PUMP_TOTA
 1939              		.loc 1 473 0
 1940 00ba FB69     		ldr	r3, [r7, #28]
 1941 00bc DA69     		ldr	r2, [r3, #28]
 1942 00be 97F83630 		ldrb	r3, [r7, #54]	@ zero_extendqisi2
 1943 00c2 2A21     		movs	r1, #42
 1944 00c4 01FB03F3 		mul	r3, r1, r3
 1945 00c8 0233     		adds	r3, r3, #2
 1946 00ca 03F5C473 		add	r3, r3, #392
 1947 00ce 1344     		add	r3, r3, r2
 1948 00d0 1846     		mov	r0, r3
 1949 00d2 0C21     		movs	r1, #12
 1950 00d4 0F22     		movs	r2, #15
 1951 00d6 FFF7FEFF 		bl	BCDPositiveValueToUInt
 1952 00da C7E90A01 		strd	r0, [r7, #40]
 474:.\PrimeImpl.c ****                 lvar7 = BCDPositiveValueToUInt((LPRAWPTR)&pjob->_ppump->_rxbuffer[0x11 + _PUMP_TOTA
 1953              		.loc 1 474 0
 1954 00de FB69     		ldr	r3, [r7, #28]
 1955 00e0 DA69     		ldr	r2, [r3, #28]
 1956 00e2 97F83630 		ldrb	r3, [r7, #54]	@ zero_extendqisi2
 1957 00e6 2A21     		movs	r1, #42
 1958 00e8 01FB03F3 		mul	r3, r1, r3
 1959 00ec 1133     		adds	r3, r3, #17
 1960 00ee 03F5C473 		add	r3, r3, #392
 1961 00f2 1344     		add	r3, r3, r2
 1962 00f4 1846     		mov	r0, r3
 1963 00f6 0C21     		movs	r1, #12
 1964 00f8 0F22     		movs	r2, #15
 1965 00fa FFF7FEFF 		bl	BCDPositiveValueToUInt
 1966 00fe C7E90401 		strd	r0, [r7, #16]
 475:.\PrimeImpl.c ****                 break;
 1967              		.loc 1 475 0
 1968 0102 24E0     		b	.L75
 1969              	.L77:
 476:.\PrimeImpl.c ****             case 0x01:
ARM GAS  C:\Users\RECEPC~1\AppData\Local\Temp\ccNQP0pp.s 			page 44


 477:.\PrimeImpl.c ****                 lvar8 = BCDPositiveValueToUInt((LPRAWPTR)&pjob->_ppump->_rxbuffer[0x02 + _PUMP_TOTA
 1970              		.loc 1 477 0
 1971 0104 FB69     		ldr	r3, [r7, #28]
 1972 0106 DA69     		ldr	r2, [r3, #28]
 1973 0108 97F83630 		ldrb	r3, [r7, #54]	@ zero_extendqisi2
 1974 010c 2A21     		movs	r1, #42
 1975 010e 01FB03F3 		mul	r3, r1, r3
 1976 0112 0233     		adds	r3, r3, #2
 1977 0114 03F5C473 		add	r3, r3, #392
 1978 0118 1344     		add	r3, r3, r2
 1979 011a 1846     		mov	r0, r3
 1980 011c 0C21     		movs	r1, #12
 1981 011e 0F22     		movs	r2, #15
 1982 0120 FFF7FEFF 		bl	BCDPositiveValueToUInt
 1983 0124 C7E90801 		strd	r0, [r7, #32]
 478:.\PrimeImpl.c ****                 lvar9 = BCDPositiveValueToUInt((LPRAWPTR)&pjob->_ppump->_rxbuffer[0x11 + _PUMP_TOTA
 1984              		.loc 1 478 0
 1985 0128 FB69     		ldr	r3, [r7, #28]
 1986 012a DA69     		ldr	r2, [r3, #28]
 1987 012c 97F83630 		ldrb	r3, [r7, #54]	@ zero_extendqisi2
 1988 0130 2A21     		movs	r1, #42
 1989 0132 01FB03F3 		mul	r3, r1, r3
 1990 0136 1133     		adds	r3, r3, #17
 1991 0138 03F5C473 		add	r3, r3, #392
 1992 013c 1344     		add	r3, r3, r2
 1993 013e 1846     		mov	r0, r3
 1994 0140 0C21     		movs	r1, #12
 1995 0142 0F22     		movs	r2, #15
 1996 0144 FFF7FEFF 		bl	BCDPositiveValueToUInt
 1997 0148 C7E90201 		strd	r0, [r7, #8]
 479:.\PrimeImpl.c ****                 break;
 1998              		.loc 1 479 0
 1999 014c 00BF     		nop
 2000              	.L75:
 468:.\PrimeImpl.c ****         {
 2001              		.loc 1 468 0 discriminator 2
 2002 014e 97F83630 		ldrb	r3, [r7, #54]	@ zero_extendqisi2
 2003 0152 0133     		adds	r3, r3, #1
 2004 0154 87F83630 		strb	r3, [r7, #54]
 2005              	.L74:
 468:.\PrimeImpl.c ****         {
 2006              		.loc 1 468 0 is_stmt 0 discriminator 1
 2007 0158 97F83620 		ldrb	r2, [r7, #54]	@ zero_extendqisi2
 2008 015c 97F83730 		ldrb	r3, [r7, #55]	@ zero_extendqisi2
 2009 0160 9A42     		cmp	r2, r3
 2010 0162 A3D3     		bcc	.L78
 480:.\PrimeImpl.c ****             //WARNING: IN CASE OF AN ENCORE DISPENSER OR ANOTHER WITH MORE THAN TWO HOSES PER POSIT
 481:.\PrimeImpl.c ****             }
 482:.\PrimeImpl.c ****         }
 483:.\PrimeImpl.c ****         //INSPECT FOR ANY DIFFERENCE BETWEEN THE SOT AND THE EOT TOTALS TO INFORM THE REMOTE PEER
 484:.\PrimeImpl.c ****         switch(hosecount)
 2011              		.loc 1 484 0 is_stmt 1
 2012 0164 97F83730 		ldrb	r3, [r7, #55]	@ zero_extendqisi2
 2013 0168 012B     		cmp	r3, #1
 2014 016a 02D0     		beq	.L80
 2015 016c 022B     		cmp	r3, #2
 2016 016e 13D0     		beq	.L81
ARM GAS  C:\Users\RECEPC~1\AppData\Local\Temp\ccNQP0pp.s 			page 45


 2017 0170 37E0     		b	.L79
 2018              	.L80:
 485:.\PrimeImpl.c ****         {
 486:.\PrimeImpl.c ****             case 0x1:
 487:.\PrimeImpl.c ****             {
 488:.\PrimeImpl.c ****                 if((lvar6 - pjob->_ppump->_datacontainer._var6) ||
 2019              		.loc 1 488 0
 2020 0172 FB69     		ldr	r3, [r7, #28]
 2021 0174 DB69     		ldr	r3, [r3, #28]
 2022 0176 03F51463 		add	r3, r3, #2368
 2023 017a D3E90001 		ldrd	r0, [r3]
 2024 017e D7E90A23 		ldrd	r2, [r7, #40]
 2025 0182 9942     		cmp	r1, r3
 2026 0184 08BF     		it	eq
 2027 0186 9042     		cmpeq	r0, r2
 2028 0188 05D1     		bne	.L82
 489:.\PrimeImpl.c ****                     (lvar7 - pjob->_ppump->_datacontainer._var7))
 2029              		.loc 1 489 0 discriminator 1
 2030 018a FB69     		ldr	r3, [r7, #28]
 2031 018c DB69     		ldr	r3, [r3, #28]
 2032 018e 03F64813 		addw	r3, r3, #2376
 2033 0192 D3E90023 		ldrd	r2, [r3]
 2034              	.L82:
 490:.\PrimeImpl.c ****                 {
 491:.\PrimeImpl.c ****                     //TODO: SAVE THIS CONDITION AND NOTIFY THE REMOTE PEER (NSX IN THIS CASE)
 492:.\PrimeImpl.c ****                 }
 493:.\PrimeImpl.c ****                 break;
 2035              		.loc 1 493 0
 2036 0196 24E0     		b	.L79
 2037              	.L81:
 494:.\PrimeImpl.c ****             }
 495:.\PrimeImpl.c ****             case 0x2:
 496:.\PrimeImpl.c ****             {
 497:.\PrimeImpl.c ****                 if((lvar6 - pjob->_ppump->_datacontainer._var6) ||
 2038              		.loc 1 497 0
 2039 0198 FB69     		ldr	r3, [r7, #28]
 2040 019a DB69     		ldr	r3, [r3, #28]
 2041 019c 03F51463 		add	r3, r3, #2368
 2042 01a0 D3E90001 		ldrd	r0, [r3]
 2043 01a4 D7E90A23 		ldrd	r2, [r7, #40]
 2044 01a8 9942     		cmp	r1, r3
 2045 01aa 08BF     		it	eq
 2046 01ac 9042     		cmpeq	r0, r2
 2047 01ae 05D1     		bne	.L83
 498:.\PrimeImpl.c ****                     (lvar7 - pjob->_ppump->_datacontainer._var7))
 2048              		.loc 1 498 0 discriminator 1
 2049 01b0 FB69     		ldr	r3, [r7, #28]
 2050 01b2 DB69     		ldr	r3, [r3, #28]
 2051 01b4 03F64813 		addw	r3, r3, #2376
 2052 01b8 D3E90023 		ldrd	r2, [r3]
 2053              	.L83:
 499:.\PrimeImpl.c ****                 {
 500:.\PrimeImpl.c ****                     //TODO: SAVE THIS CONDITION AND NOTIFY THE REMOTE PEER (NSX IN THIS CASE)
 501:.\PrimeImpl.c ****                 }
 502:.\PrimeImpl.c ****                 if((lvar8 - pjob->_ppump->_datacontainer._var8) ||
 2054              		.loc 1 502 0
 2055 01bc FB69     		ldr	r3, [r7, #28]
ARM GAS  C:\Users\RECEPC~1\AppData\Local\Temp\ccNQP0pp.s 			page 46


 2056 01be DB69     		ldr	r3, [r3, #28]
 2057 01c0 03F51563 		add	r3, r3, #2384
 2058 01c4 D3E90001 		ldrd	r0, [r3]
 2059 01c8 D7E90823 		ldrd	r2, [r7, #32]
 2060 01cc 9942     		cmp	r1, r3
 2061 01ce 08BF     		it	eq
 2062 01d0 9042     		cmpeq	r0, r2
 2063 01d2 05D1     		bne	.L84
 503:.\PrimeImpl.c ****                     (lvar9 - pjob->_ppump->_datacontainer._var9))
 2064              		.loc 1 503 0 discriminator 1
 2065 01d4 FB69     		ldr	r3, [r7, #28]
 2066 01d6 DB69     		ldr	r3, [r3, #28]
 2067 01d8 03F65813 		addw	r3, r3, #2392
 2068 01dc D3E90023 		ldrd	r2, [r3]
 2069              	.L84:
 504:.\PrimeImpl.c ****                 {
 505:.\PrimeImpl.c ****                     //TODO: SAVE THIS CONDITION AND NOTIFY THE REMOTE PEER (NSX IN THIS CASE)
 506:.\PrimeImpl.c ****                 }
 507:.\PrimeImpl.c ****                 break;
 2070              		.loc 1 507 0
 2071 01e0 00BF     		nop
 2072              	.L79:
 508:.\PrimeImpl.c ****             }
 509:.\PrimeImpl.c ****             //WARNING: IN CASE OF AN ENCORE DISPENSER OR ANOTHER WITH MORE THAN TWO HOSES PER POSIT
 510:.\PrimeImpl.c ****         }
 511:.\PrimeImpl.c ****         
 512:.\PrimeImpl.c ****         memset(pjob->_ppump->_rxbuffer, 0x00, _PUMP_RX_BUFFER_SIZE_);
 2073              		.loc 1 512 0
 2074 01e2 FB69     		ldr	r3, [r7, #28]
 2075 01e4 DB69     		ldr	r3, [r3, #28]
 2076 01e6 03F5C473 		add	r3, r3, #392
 2077 01ea 1846     		mov	r0, r3
 2078 01ec 0021     		movs	r1, #0
 2079 01ee 4FF4B472 		mov	r2, #360
 2080 01f2 FFF7FEFF 		bl	memset
 2081              	.L62:
 2082              	.LBE6:
 513:.\PrimeImpl.c ****     }
 514:.\PrimeImpl.c **** }
 2083              		.loc 1 514 0
 2084 01f6 3837     		adds	r7, r7, #56
 2085              		.cfi_def_cfa_offset 8
 2086 01f8 BD46     		mov	sp, r7
 2087              		.cfi_def_cfa_register 13
 2088              		@ sp needed
 2089 01fa 80BD     		pop	{r7, pc}
 2090              	.L87:
 2091              		.align	2
 2092              	.L86:
 2093 01fc 00000000 		.word	_g_pumps
 2094 0200 00000000 		.word	_g_dispenserlayoutinfo
 2095              		.cfi_endproc
 2096              	.LFE70:
 2097              		.size	ProcessPumpTotalsDataEnd, .-ProcessPumpTotalsDataEnd
 2098              		.section	.text.ProcessPumpTotalsDataReport,"ax",%progbits
 2099              		.align	2
 2100              		.global	ProcessPumpTotalsDataReport
ARM GAS  C:\Users\RECEPC~1\AppData\Local\Temp\ccNQP0pp.s 			page 47


 2101              		.thumb
 2102              		.thumb_func
 2103              		.type	ProcessPumpTotalsDataReport, %function
 2104              	ProcessPumpTotalsDataReport:
 2105              	.LFB71:
 515:.\PrimeImpl.c **** 
 516:.\PrimeImpl.c **** //@Created By: HIJH
 517:.\PrimeImpl.c **** //@Septembre de 2016
 518:.\PrimeImpl.c **** void ProcessPumpTotalsDataReport(void *pparam)
 519:.\PrimeImpl.c **** {
 2106              		.loc 1 519 0
 2107              		.cfi_startproc
 2108              		@ args = 0, pretend = 0, frame = 24
 2109              		@ frame_needed = 1, uses_anonymous_args = 0
 2110 0000 80B5     		push	{r7, lr}
 2111              		.cfi_def_cfa_offset 8
 2112              		.cfi_offset 7, -8
 2113              		.cfi_offset 14, -4
 2114 0002 86B0     		sub	sp, sp, #24
 2115              		.cfi_def_cfa_offset 32
 2116 0004 00AF     		add	r7, sp, #0
 2117              		.cfi_def_cfa_register 7
 2118 0006 7860     		str	r0, [r7, #4]
 520:.\PrimeImpl.c ****     PPUMPTRANSACTIONJOBCONTEXTPTR pjob = (PPUMPTRANSACTIONJOBCONTEXTPTR)pparam;
 2119              		.loc 1 520 0
 2120 0008 7B68     		ldr	r3, [r7, #4]
 2121 000a 7B61     		str	r3, [r7, #20]
 521:.\PrimeImpl.c ****     if(pjob)
 2122              		.loc 1 521 0
 2123 000c 7B69     		ldr	r3, [r7, #20]
 2124 000e 002B     		cmp	r3, #0
 2125 0010 00F0AC80 		beq	.L88
 2126              	.LBB7:
 522:.\PrimeImpl.c ****     {
 523:.\PrimeImpl.c ****         //If the response is corrupted, then re-throw the transaction node for a limited number of 
 524:.\PrimeImpl.c ****         uint8 strmlrc = FindLRC(pjob->_ppump->_rxbuffer);
 2127              		.loc 1 524 0
 2128 0014 7B69     		ldr	r3, [r7, #20]
 2129 0016 DB69     		ldr	r3, [r3, #28]
 2130 0018 03F5C473 		add	r3, r3, #392
 2131 001c 1846     		mov	r0, r3
 2132 001e FFF7FEFF 		bl	FindLRC
 2133 0022 0346     		mov	r3, r0
 2134 0024 FB74     		strb	r3, [r7, #19]
 525:.\PrimeImpl.c ****         uint8 locallrc = GetLRC(pjob->_ppump->_rxbuffer);
 2135              		.loc 1 525 0
 2136 0026 7B69     		ldr	r3, [r7, #20]
 2137 0028 DB69     		ldr	r3, [r3, #28]
 2138 002a 03F5C473 		add	r3, r3, #392
 2139 002e 1846     		mov	r0, r3
 2140 0030 FFF7FEFF 		bl	GetLRC
 2141 0034 0346     		mov	r3, r0
 2142 0036 BB74     		strb	r3, [r7, #18]
 526:.\PrimeImpl.c ****         if(strmlrc != locallrc && pjob->_reenqueuecounter < _MAX_RETRIES_)
 2143              		.loc 1 526 0
 2144 0038 FA7C     		ldrb	r2, [r7, #19]	@ zero_extendqisi2
 2145 003a BB7C     		ldrb	r3, [r7, #18]	@ zero_extendqisi2
ARM GAS  C:\Users\RECEPC~1\AppData\Local\Temp\ccNQP0pp.s 			page 48


 2146 003c 9A42     		cmp	r2, r3
 2147 003e 0FD0     		beq	.L90
 2148              		.loc 1 526 0 is_stmt 0 discriminator 1
 2149 0040 7B69     		ldr	r3, [r7, #20]
 2150 0042 5B78     		ldrb	r3, [r3, #1]
 2151 0044 DBB2     		uxtb	r3, r3
 2152 0046 132B     		cmp	r3, #19
 2153 0048 0AD8     		bhi	.L90
 527:.\PrimeImpl.c ****         {
 528:.\PrimeImpl.c ****             pjob->_reenqueuecounter++;
 2154              		.loc 1 528 0 is_stmt 1
 2155 004a 7B69     		ldr	r3, [r7, #20]
 2156 004c 5B78     		ldrb	r3, [r3, #1]
 2157 004e DBB2     		uxtb	r3, r3
 2158 0050 0133     		adds	r3, r3, #1
 2159 0052 DAB2     		uxtb	r2, r3
 2160 0054 7B69     		ldr	r3, [r7, #20]
 2161 0056 5A70     		strb	r2, [r3, #1]
 529:.\PrimeImpl.c ****             pjob->_reenqueue = true;
 2162              		.loc 1 529 0
 2163 0058 7B69     		ldr	r3, [r7, #20]
 2164 005a 0122     		movs	r2, #1
 2165 005c 1A70     		strb	r2, [r3]
 530:.\PrimeImpl.c ****             return;
 2166              		.loc 1 530 0
 2167 005e 85E0     		b	.L88
 2168              	.L90:
 531:.\PrimeImpl.c ****         }
 532:.\PrimeImpl.c ****         pjob->_reenqueue = false;
 2169              		.loc 1 532 0
 2170 0060 7B69     		ldr	r3, [r7, #20]
 2171 0062 0022     		movs	r2, #0
 2172 0064 1A70     		strb	r2, [r3]
 533:.\PrimeImpl.c ****         
 534:.\PrimeImpl.c ****         pjob->_ppump->PumpTransQueueLock(pjob->_ppump);
 2173              		.loc 1 534 0
 2174 0066 7B69     		ldr	r3, [r7, #20]
 2175 0068 DB69     		ldr	r3, [r3, #28]
 2176 006a D3F80C39 		ldr	r3, [r3, #2316]
 2177 006e 7A69     		ldr	r2, [r7, #20]
 2178 0070 D269     		ldr	r2, [r2, #28]
 2179 0072 1046     		mov	r0, r2
 2180 0074 9847     		blx	r3
 535:.\PrimeImpl.c ****         bool transtatefound = pjob->_ppump->PumpTransQueueFind(pjob->_ppump, RF_MUX_TOTALS_REPORT_R
 2181              		.loc 1 535 0
 2182 0076 7B69     		ldr	r3, [r7, #20]
 2183 0078 DB69     		ldr	r3, [r3, #28]
 2184 007a D3F81439 		ldr	r3, [r3, #2324]
 2185 007e 7A69     		ldr	r2, [r7, #20]
 2186 0080 D269     		ldr	r2, [r2, #28]
 2187 0082 1046     		mov	r0, r2
 2188 0084 E821     		movs	r1, #232
 2189 0086 9847     		blx	r3
 2190 0088 0346     		mov	r3, r0
 2191 008a 7B74     		strb	r3, [r7, #17]
 536:.\PrimeImpl.c ****         PNEAR_PUMPTRANSACTIONALSTATEPTR pts = pjob->_ppump->PumpTransQueueAllocate(pjob->_ppump);
 2192              		.loc 1 536 0
ARM GAS  C:\Users\RECEPC~1\AppData\Local\Temp\ccNQP0pp.s 			page 49


 2193 008c 7B69     		ldr	r3, [r7, #20]
 2194 008e DB69     		ldr	r3, [r3, #28]
 2195 0090 D3F82039 		ldr	r3, [r3, #2336]
 2196 0094 7A69     		ldr	r2, [r7, #20]
 2197 0096 D269     		ldr	r2, [r2, #28]
 2198 0098 1046     		mov	r0, r2
 2199 009a 9847     		blx	r3
 2200 009c F860     		str	r0, [r7, #12]
 537:.\PrimeImpl.c ****         pjob->_ppump->PumpTransQueueUnlock(pjob->_ppump);
 2201              		.loc 1 537 0
 2202 009e 7B69     		ldr	r3, [r7, #20]
 2203 00a0 DB69     		ldr	r3, [r3, #28]
 2204 00a2 D3F81039 		ldr	r3, [r3, #2320]
 2205 00a6 7A69     		ldr	r2, [r7, #20]
 2206 00a8 D269     		ldr	r2, [r2, #28]
 2207 00aa 1046     		mov	r0, r2
 2208 00ac 9847     		blx	r3
 538:.\PrimeImpl.c ****         if(pts && !transtatefound)
 2209              		.loc 1 538 0
 2210 00ae FB68     		ldr	r3, [r7, #12]
 2211 00b0 002B     		cmp	r3, #0
 2212 00b2 38D0     		beq	.L91
 2213              		.loc 1 538 0 is_stmt 0 discriminator 1
 2214 00b4 7B7C     		ldrb	r3, [r7, #17]
 2215 00b6 83F00103 		eor	r3, r3, #1
 2216 00ba DBB2     		uxtb	r3, r3
 2217 00bc 002B     		cmp	r3, #0
 2218 00be 32D0     		beq	.L91
 539:.\PrimeImpl.c ****         {
 540:.\PrimeImpl.c ****             pts->_transtate = RF_MUX_TOTALS_REPORT_RESPONSE;
 2219              		.loc 1 540 0 is_stmt 1
 2220 00c0 FB68     		ldr	r3, [r7, #12]
 2221 00c2 E822     		movs	r2, #232
 2222 00c4 5A70     		strb	r2, [r3, #1]
 541:.\PrimeImpl.c ****             
 542:.\PrimeImpl.c ****             memcpy(pts->_buffer, pjob->_ppump->_rxbuffer, pjob->_ppump->_rxbuffersize);
 2223              		.loc 1 542 0
 2224 00c6 FB68     		ldr	r3, [r7, #12]
 2225 00c8 991C     		adds	r1, r3, #2
 2226 00ca 7B69     		ldr	r3, [r7, #20]
 2227 00cc DB69     		ldr	r3, [r3, #28]
 2228 00ce 03F5C472 		add	r2, r3, #392
 2229 00d2 7B69     		ldr	r3, [r7, #20]
 2230 00d4 DB69     		ldr	r3, [r3, #28]
 2231 00d6 B3F8F032 		ldrh	r3, [r3, #752]
 2232 00da 0846     		mov	r0, r1
 2233 00dc 1146     		mov	r1, r2
 2234 00de 1A46     		mov	r2, r3
 2235 00e0 FFF7FEFF 		bl	memcpy
 543:.\PrimeImpl.c ****             pts->_buffersize = pjob->_ppump->_rxbuffersize;
 2236              		.loc 1 543 0
 2237 00e4 7B69     		ldr	r3, [r7, #20]
 2238 00e6 DB69     		ldr	r3, [r3, #28]
 2239 00e8 B3F8F022 		ldrh	r2, [r3, #752]
 2240 00ec FB68     		ldr	r3, [r7, #12]
 2241 00ee A3F80221 		strh	r2, [r3, #258]	@ movhi
 544:.\PrimeImpl.c ****             
ARM GAS  C:\Users\RECEPC~1\AppData\Local\Temp\ccNQP0pp.s 			page 50


 545:.\PrimeImpl.c ****             pjob->_ppump->PumpTransQueueLock(pjob->_ppump);
 2242              		.loc 1 545 0
 2243 00f2 7B69     		ldr	r3, [r7, #20]
 2244 00f4 DB69     		ldr	r3, [r3, #28]
 2245 00f6 D3F80C39 		ldr	r3, [r3, #2316]
 2246 00fa 7A69     		ldr	r2, [r7, #20]
 2247 00fc D269     		ldr	r2, [r2, #28]
 2248 00fe 1046     		mov	r0, r2
 2249 0100 9847     		blx	r3
 546:.\PrimeImpl.c ****             pjob->_ppump->PumpTransQueueEnqueue(pjob->_ppump, pts);
 2250              		.loc 1 546 0
 2251 0102 7B69     		ldr	r3, [r7, #20]
 2252 0104 DB69     		ldr	r3, [r3, #28]
 2253 0106 D3F81839 		ldr	r3, [r3, #2328]
 2254 010a 7A69     		ldr	r2, [r7, #20]
 2255 010c D269     		ldr	r2, [r2, #28]
 2256 010e 1046     		mov	r0, r2
 2257 0110 F968     		ldr	r1, [r7, #12]
 2258 0112 9847     		blx	r3
 547:.\PrimeImpl.c ****             pjob->_ppump->PumpTransQueueUnlock(pjob->_ppump);
 2259              		.loc 1 547 0
 2260 0114 7B69     		ldr	r3, [r7, #20]
 2261 0116 DB69     		ldr	r3, [r3, #28]
 2262 0118 D3F81039 		ldr	r3, [r3, #2320]
 2263 011c 7A69     		ldr	r2, [r7, #20]
 2264 011e D269     		ldr	r2, [r2, #28]
 2265 0120 1046     		mov	r0, r2
 2266 0122 9847     		blx	r3
 2267 0124 18E0     		b	.L92
 2268              	.L91:
 548:.\PrimeImpl.c ****         }
 549:.\PrimeImpl.c ****         else
 550:.\PrimeImpl.c ****         {
 551:.\PrimeImpl.c ****             pjob->_ppump->PumpTransQueueLock(pjob->_ppump);
 2269              		.loc 1 551 0
 2270 0126 7B69     		ldr	r3, [r7, #20]
 2271 0128 DB69     		ldr	r3, [r3, #28]
 2272 012a D3F80C39 		ldr	r3, [r3, #2316]
 2273 012e 7A69     		ldr	r2, [r7, #20]
 2274 0130 D269     		ldr	r2, [r2, #28]
 2275 0132 1046     		mov	r0, r2
 2276 0134 9847     		blx	r3
 552:.\PrimeImpl.c ****             pjob->_ppump->PumpTransQueueDeallocate(pjob->_ppump, pts);
 2277              		.loc 1 552 0
 2278 0136 7B69     		ldr	r3, [r7, #20]
 2279 0138 DB69     		ldr	r3, [r3, #28]
 2280 013a D3F81C39 		ldr	r3, [r3, #2332]
 2281 013e 7A69     		ldr	r2, [r7, #20]
 2282 0140 D269     		ldr	r2, [r2, #28]
 2283 0142 1046     		mov	r0, r2
 2284 0144 F968     		ldr	r1, [r7, #12]
 2285 0146 9847     		blx	r3
 553:.\PrimeImpl.c ****             pjob->_ppump->PumpTransQueueUnlock(pjob->_ppump);
 2286              		.loc 1 553 0
 2287 0148 7B69     		ldr	r3, [r7, #20]
 2288 014a DB69     		ldr	r3, [r3, #28]
 2289 014c D3F81039 		ldr	r3, [r3, #2320]
ARM GAS  C:\Users\RECEPC~1\AppData\Local\Temp\ccNQP0pp.s 			page 51


 2290 0150 7A69     		ldr	r2, [r7, #20]
 2291 0152 D269     		ldr	r2, [r2, #28]
 2292 0154 1046     		mov	r0, r2
 2293 0156 9847     		blx	r3
 2294              	.L92:
 554:.\PrimeImpl.c ****         }
 555:.\PrimeImpl.c ****         memset(pjob->_ppump->_rxbuffer, 0x00, _PUMP_RX_BUFFER_SIZE_);
 2295              		.loc 1 555 0
 2296 0158 7B69     		ldr	r3, [r7, #20]
 2297 015a DB69     		ldr	r3, [r3, #28]
 2298 015c 03F5C473 		add	r3, r3, #392
 2299 0160 1846     		mov	r0, r3
 2300 0162 0021     		movs	r1, #0
 2301 0164 4FF4B472 		mov	r2, #360
 2302 0168 FFF7FEFF 		bl	memset
 2303              	.L88:
 2304              	.LBE7:
 556:.\PrimeImpl.c ****     }
 557:.\PrimeImpl.c **** }
 2305              		.loc 1 557 0
 2306 016c 1837     		adds	r7, r7, #24
 2307              		.cfi_def_cfa_offset 8
 2308 016e BD46     		mov	sp, r7
 2309              		.cfi_def_cfa_register 13
 2310              		@ sp needed
 2311 0170 80BD     		pop	{r7, pc}
 2312              		.cfi_endproc
 2313              	.LFE71:
 2314              		.size	ProcessPumpTotalsDataReport, .-ProcessPumpTotalsDataReport
 2315 0172 00BF     		.section	.text.ProcessPumpTotalsDataPpuCheck,"ax",%progbits
 2316              		.align	2
 2317              		.global	ProcessPumpTotalsDataPpuCheck
 2318              		.thumb
 2319              		.thumb_func
 2320              		.type	ProcessPumpTotalsDataPpuCheck, %function
 2321              	ProcessPumpTotalsDataPpuCheck:
 2322              	.LFB72:
 558:.\PrimeImpl.c **** 
 559:.\PrimeImpl.c **** //@Created By: HIJH
 560:.\PrimeImpl.c **** //@Septembre de 2016
 561:.\PrimeImpl.c **** void ProcessPumpTotalsDataPpuCheck(void *pparam)
 562:.\PrimeImpl.c **** {
 2323              		.loc 1 562 0
 2324              		.cfi_startproc
 2325              		@ args = 0, pretend = 0, frame = 16
 2326              		@ frame_needed = 1, uses_anonymous_args = 0
 2327 0000 80B5     		push	{r7, lr}
 2328              		.cfi_def_cfa_offset 8
 2329              		.cfi_offset 7, -8
 2330              		.cfi_offset 14, -4
 2331 0002 84B0     		sub	sp, sp, #16
 2332              		.cfi_def_cfa_offset 24
 2333 0004 00AF     		add	r7, sp, #0
 2334              		.cfi_def_cfa_register 7
 2335 0006 7860     		str	r0, [r7, #4]
 563:.\PrimeImpl.c ****     PPUMPTRANSACTIONJOBCONTEXTPTR pjob = (PPUMPTRANSACTIONJOBCONTEXTPTR)pparam;
 2336              		.loc 1 563 0
ARM GAS  C:\Users\RECEPC~1\AppData\Local\Temp\ccNQP0pp.s 			page 52


 2337 0008 7B68     		ldr	r3, [r7, #4]
 2338 000a FB60     		str	r3, [r7, #12]
 564:.\PrimeImpl.c ****     if(pjob)
 2339              		.loc 1 564 0
 2340 000c FB68     		ldr	r3, [r7, #12]
 2341 000e 002B     		cmp	r3, #0
 2342 0010 09D0     		beq	.L93
 565:.\PrimeImpl.c ****     {
 566:.\PrimeImpl.c **** /*        
 567:.\PrimeImpl.c ****         
 568:.\PrimeImpl.c ****         PNEAR_PUMPTRANSACTIONALSTATEPTR pts = pjob->_ppump->PumpTransQueueAllocate(pjob->_ppump);
 569:.\PrimeImpl.c ****         if(pts)
 570:.\PrimeImpl.c ****         {
 571:.\PrimeImpl.c ****             pts->_transtate = _PUMP_POSITION_TRANSREPORT_;
 572:.\PrimeImpl.c ****             memcpy(pts->_buffer, pjob->_ppump->_rxbuffer, pjob->_ppump->_rxbuffersize);
 573:.\PrimeImpl.c ****             pts->_buffersize = pjob->_ppump->_rxbuffersize;
 574:.\PrimeImpl.c ****         }
 575:.\PrimeImpl.c ****         
 576:.\PrimeImpl.c ****         
 577:.\PrimeImpl.c ****         uint8 var = 0;//THIS IS A DUMMY VAR TO DROP THE WARNING IF THERE IS NO ASSIGNMENT!!
 578:.\PrimeImpl.c ****         uint8 index = 0;
 579:.\PrimeImpl.c ****         //All indexes were taken according to the documentation
 580:.\PrimeImpl.c ****         var = (pjob->_ppump->_rxbuffer[0x02 + _PUMP_TOTALS_BUFFER_SHIFT_*index] & 0x0F);//Hose id
 581:.\PrimeImpl.c **** 
 582:.\PrimeImpl.c ****         //Bytes from index 0x04 + _PUMP_TOTALS_BUFFER_SHIFT_*index to 0x0F + _PUMP_TOTALS_BUFFER_SH
 583:.\PrimeImpl.c ****         //are the digits for the total fuel volume delivered until now on this pump
 584:.\PrimeImpl.c ****         //Digits are in BCD format
 585:.\PrimeImpl.c ****         var = (pjob->_ppump->_rxbuffer[0x04 + _PUMP_TOTALS_BUFFER_SHIFT_*index] & 0x0F);
 586:.\PrimeImpl.c ****         var = (pjob->_ppump->_rxbuffer[0x05 + _PUMP_TOTALS_BUFFER_SHIFT_*index] & 0x0F);
 587:.\PrimeImpl.c ****         var = (pjob->_ppump->_rxbuffer[0x06 + _PUMP_TOTALS_BUFFER_SHIFT_*index] & 0x0F);
 588:.\PrimeImpl.c ****         var = (pjob->_ppump->_rxbuffer[0x07 + _PUMP_TOTALS_BUFFER_SHIFT_*index] & 0x0F);
 589:.\PrimeImpl.c ****         var = (pjob->_ppump->_rxbuffer[0x08 + _PUMP_TOTALS_BUFFER_SHIFT_*index] & 0x0F);
 590:.\PrimeImpl.c ****         var = (pjob->_ppump->_rxbuffer[0x09 + _PUMP_TOTALS_BUFFER_SHIFT_*index] & 0x0F);
 591:.\PrimeImpl.c ****         var = (pjob->_ppump->_rxbuffer[0x0A + _PUMP_TOTALS_BUFFER_SHIFT_*index] & 0x0F);
 592:.\PrimeImpl.c ****         var = (pjob->_ppump->_rxbuffer[0x0B + _PUMP_TOTALS_BUFFER_SHIFT_*index] & 0x0F);
 593:.\PrimeImpl.c ****         var = (pjob->_ppump->_rxbuffer[0x0C + _PUMP_TOTALS_BUFFER_SHIFT_*index] & 0x0F);
 594:.\PrimeImpl.c ****         var = (pjob->_ppump->_rxbuffer[0x0D + _PUMP_TOTALS_BUFFER_SHIFT_*index] & 0x0F);
 595:.\PrimeImpl.c ****         var = (pjob->_ppump->_rxbuffer[0x0E + _PUMP_TOTALS_BUFFER_SHIFT_*index] & 0x0F);
 596:.\PrimeImpl.c ****         var = (pjob->_ppump->_rxbuffer[0x0F + _PUMP_TOTALS_BUFFER_SHIFT_*index] & 0x0F);
 597:.\PrimeImpl.c **** 
 598:.\PrimeImpl.c ****         //Bytes from index 0x11 + _PUMP_TOTALS_BUFFER_SHIFT_*index to 0x1C + _PUMP_TOTALS_BUFFER_SH
 599:.\PrimeImpl.c ****         //are the digits for the total money charged until now on this pump
 600:.\PrimeImpl.c ****         //Digits are in BCD format
 601:.\PrimeImpl.c ****         var = (pjob->_ppump->_rxbuffer[0x11 + _PUMP_TOTALS_BUFFER_SHIFT_*index] & 0x0F);
 602:.\PrimeImpl.c ****         var = (pjob->_ppump->_rxbuffer[0x12 + _PUMP_TOTALS_BUFFER_SHIFT_*index] & 0x0F);
 603:.\PrimeImpl.c ****         var = (pjob->_ppump->_rxbuffer[0x13 + _PUMP_TOTALS_BUFFER_SHIFT_*index] & 0x0F);
 604:.\PrimeImpl.c ****         var = (pjob->_ppump->_rxbuffer[0x14 + _PUMP_TOTALS_BUFFER_SHIFT_*index] & 0x0F);
 605:.\PrimeImpl.c ****         var = (pjob->_ppump->_rxbuffer[0x15 + _PUMP_TOTALS_BUFFER_SHIFT_*index] & 0x0F);
 606:.\PrimeImpl.c ****         var = (pjob->_ppump->_rxbuffer[0x16 + _PUMP_TOTALS_BUFFER_SHIFT_*index] & 0x0F);
 607:.\PrimeImpl.c ****         var = (pjob->_ppump->_rxbuffer[0x17 + _PUMP_TOTALS_BUFFER_SHIFT_*index] & 0x0F);
 608:.\PrimeImpl.c ****         var = (pjob->_ppump->_rxbuffer[0x18 + _PUMP_TOTALS_BUFFER_SHIFT_*index] & 0x0F);
 609:.\PrimeImpl.c ****         var = (pjob->_ppump->_rxbuffer[0x19 + _PUMP_TOTALS_BUFFER_SHIFT_*index] & 0x0F);
 610:.\PrimeImpl.c ****         var = (pjob->_ppump->_rxbuffer[0x1A + _PUMP_TOTALS_BUFFER_SHIFT_*index] & 0x0F);
 611:.\PrimeImpl.c ****         var = (pjob->_ppump->_rxbuffer[0x1B + _PUMP_TOTALS_BUFFER_SHIFT_*index] & 0x0F);
 612:.\PrimeImpl.c ****         var = (pjob->_ppump->_rxbuffer[0x1C + _PUMP_TOTALS_BUFFER_SHIFT_*index] & 0x0F);
 613:.\PrimeImpl.c ****         
 614:.\PrimeImpl.c ****         //Bytes from index 0x1E + _PUMP_TOTALS_BUFFER_SHIFT_*index to 0x23 + _PUMP_TOTALS_BUFFER_SH
ARM GAS  C:\Users\RECEPC~1\AppData\Local\Temp\ccNQP0pp.s 			page 53


 615:.\PrimeImpl.c ****         //are the digits for the reference PPU used on this pump/hose
 616:.\PrimeImpl.c ****         //Digits are in BCD format
 617:.\PrimeImpl.c ****         var = (pjob->_ppump->_rxbuffer[0x1E + _PUMP_TOTALS_BUFFER_SHIFT_*index] & 0x0F);
 618:.\PrimeImpl.c ****         var = (pjob->_ppump->_rxbuffer[0x1F + _PUMP_TOTALS_BUFFER_SHIFT_*index] & 0x0F);
 619:.\PrimeImpl.c ****         var = (pjob->_ppump->_rxbuffer[0x20 + _PUMP_TOTALS_BUFFER_SHIFT_*index] & 0x0F);
 620:.\PrimeImpl.c ****         var = (pjob->_ppump->_rxbuffer[0x21 + _PUMP_TOTALS_BUFFER_SHIFT_*index] & 0x0F);
 621:.\PrimeImpl.c ****         var = (pjob->_ppump->_rxbuffer[0x22 + _PUMP_TOTALS_BUFFER_SHIFT_*index] & 0x0F);
 622:.\PrimeImpl.c ****         var = (pjob->_ppump->_rxbuffer[0x23 + _PUMP_TOTALS_BUFFER_SHIFT_*index] & 0x0F);
 623:.\PrimeImpl.c **** */        
 624:.\PrimeImpl.c ****         memset(pjob->_ppump->_rxbuffer, 0x00, _PUMP_RX_BUFFER_SIZE_);
 2343              		.loc 1 624 0
 2344 0012 FB68     		ldr	r3, [r7, #12]
 2345 0014 DB69     		ldr	r3, [r3, #28]
 2346 0016 03F5C473 		add	r3, r3, #392
 2347 001a 1846     		mov	r0, r3
 2348 001c 0021     		movs	r1, #0
 2349 001e 4FF4B472 		mov	r2, #360
 2350 0022 FFF7FEFF 		bl	memset
 2351              	.L93:
 625:.\PrimeImpl.c ****     }
 626:.\PrimeImpl.c **** }
 2352              		.loc 1 626 0
 2353 0026 1037     		adds	r7, r7, #16
 2354              		.cfi_def_cfa_offset 8
 2355 0028 BD46     		mov	sp, r7
 2356              		.cfi_def_cfa_register 13
 2357              		@ sp needed
 2358 002a 80BD     		pop	{r7, pc}
 2359              		.cfi_endproc
 2360              	.LFE72:
 2361              		.size	ProcessPumpTotalsDataPpuCheck, .-ProcessPumpTotalsDataPpuCheck
 2362              		.section	.text.PumpJobTimeout,"ax",%progbits
 2363              		.align	2
 2364              		.global	PumpJobTimeout
 2365              		.thumb
 2366              		.thumb_func
 2367              		.type	PumpJobTimeout, %function
 2368              	PumpJobTimeout:
 2369              	.LFB73:
 627:.\PrimeImpl.c **** 
 628:.\PrimeImpl.c **** //@Created By: HIJH
 629:.\PrimeImpl.c **** //@Date: Septembre de 2016
 630:.\PrimeImpl.c **** //This must be used to notify the log registry about the timeout issue
 631:.\PrimeImpl.c **** void PumpJobTimeout(void *pparam)
 632:.\PrimeImpl.c **** {
 2370              		.loc 1 632 0
 2371              		.cfi_startproc
 2372              		@ args = 0, pretend = 0, frame = 16
 2373              		@ frame_needed = 1, uses_anonymous_args = 0
 2374              		@ link register save eliminated.
 2375 0000 80B4     		push	{r7}
 2376              		.cfi_def_cfa_offset 4
 2377              		.cfi_offset 7, -4
 2378 0002 85B0     		sub	sp, sp, #20
 2379              		.cfi_def_cfa_offset 24
 2380 0004 00AF     		add	r7, sp, #0
 2381              		.cfi_def_cfa_register 7
ARM GAS  C:\Users\RECEPC~1\AppData\Local\Temp\ccNQP0pp.s 			page 54


 2382 0006 7860     		str	r0, [r7, #4]
 633:.\PrimeImpl.c ****     PPUMPTRANSACTIONJOBCONTEXTPTR pjob = (PPUMPTRANSACTIONJOBCONTEXTPTR)pparam;
 2383              		.loc 1 633 0
 2384 0008 7B68     		ldr	r3, [r7, #4]
 2385 000a FB60     		str	r3, [r7, #12]
 634:.\PrimeImpl.c ****     if(pjob)
 2386              		.loc 1 634 0
 2387 000c FB68     		ldr	r3, [r7, #12]
 2388 000e 002B     		cmp	r3, #0
 2389 0010 0CD0     		beq	.L95
 635:.\PrimeImpl.c ****     {
 636:.\PrimeImpl.c ****         //Release the Current Loop and log if possible
 637:.\PrimeImpl.c ****         if(pjob->_retriescounter >= _MAX_RETRIES_)
 2390              		.loc 1 637 0
 2391 0012 FB68     		ldr	r3, [r7, #12]
 2392 0014 DB89     		ldrh	r3, [r3, #14]	@ movhi
 2393 0016 9BB2     		uxth	r3, r3
 2394 0018 132B     		cmp	r3, #19
 2395 001a 07D9     		bls	.L95
 638:.\PrimeImpl.c ****         {
 639:.\PrimeImpl.c ****             pjob->_ppump->_pumpstate = PUMP_UNKNOWN;
 2396              		.loc 1 639 0
 2397 001c FB68     		ldr	r3, [r7, #12]
 2398 001e DB69     		ldr	r3, [r3, #28]
 2399 0020 FF22     		movs	r2, #255
 2400 0022 9A70     		strb	r2, [r3, #2]
 640:.\PrimeImpl.c ****             pjob->_ppump->_transhealth = _PUMP_FAIL_;
 2401              		.loc 1 640 0
 2402 0024 FB68     		ldr	r3, [r7, #12]
 2403 0026 DB69     		ldr	r3, [r3, #28]
 2404 0028 0222     		movs	r2, #2
 2405 002a 1A76     		strb	r2, [r3, #24]
 2406              	.L95:
 641:.\PrimeImpl.c ****         }
 642:.\PrimeImpl.c ****     }
 643:.\PrimeImpl.c **** }
 2407              		.loc 1 643 0
 2408 002c 1437     		adds	r7, r7, #20
 2409              		.cfi_def_cfa_offset 4
 2410 002e BD46     		mov	sp, r7
 2411              		.cfi_def_cfa_register 13
 2412              		@ sp needed
 2413 0030 5DF8047B 		ldr	r7, [sp], #4
 2414              		.cfi_restore 7
 2415              		.cfi_def_cfa_offset 0
 2416 0034 7047     		bx	lr
 2417              		.cfi_endproc
 2418              	.LFE73:
 2419              		.size	PumpJobTimeout, .-PumpJobTimeout
 2420 0036 00BF     		.section	.text.PumpStateJobTimeout,"ax",%progbits
 2421              		.align	2
 2422              		.global	PumpStateJobTimeout
 2423              		.thumb
 2424              		.thumb_func
 2425              		.type	PumpStateJobTimeout, %function
 2426              	PumpStateJobTimeout:
 2427              	.LFB74:
ARM GAS  C:\Users\RECEPC~1\AppData\Local\Temp\ccNQP0pp.s 			page 55


 644:.\PrimeImpl.c **** 
 645:.\PrimeImpl.c **** //@Created By: HIJH
 646:.\PrimeImpl.c **** //@Date: Septembre de 2016
 647:.\PrimeImpl.c **** //This must be used to notify the log registry about the timeout issue
 648:.\PrimeImpl.c **** void PumpStateJobTimeout(void *pparam)
 649:.\PrimeImpl.c **** {
 2428              		.loc 1 649 0
 2429              		.cfi_startproc
 2430              		@ args = 0, pretend = 0, frame = 16
 2431              		@ frame_needed = 1, uses_anonymous_args = 0
 2432              		@ link register save eliminated.
 2433 0000 80B4     		push	{r7}
 2434              		.cfi_def_cfa_offset 4
 2435              		.cfi_offset 7, -4
 2436 0002 85B0     		sub	sp, sp, #20
 2437              		.cfi_def_cfa_offset 24
 2438 0004 00AF     		add	r7, sp, #0
 2439              		.cfi_def_cfa_register 7
 2440 0006 7860     		str	r0, [r7, #4]
 650:.\PrimeImpl.c ****     PPUMPTRANSACTIONJOBCONTEXTPTR pjob = (PPUMPTRANSACTIONJOBCONTEXTPTR)pparam;
 2441              		.loc 1 650 0
 2442 0008 7B68     		ldr	r3, [r7, #4]
 2443 000a FB60     		str	r3, [r7, #12]
 651:.\PrimeImpl.c ****     if(pjob)
 2444              		.loc 1 651 0
 2445 000c FB68     		ldr	r3, [r7, #12]
 2446 000e 002B     		cmp	r3, #0
 2447 0010 0CD0     		beq	.L97
 652:.\PrimeImpl.c ****     {
 653:.\PrimeImpl.c ****         //Release the Current Loop and log if possible
 654:.\PrimeImpl.c ****         if(pjob->_retriescounter >= _MAX_RETRIES_)
 2448              		.loc 1 654 0
 2449 0012 FB68     		ldr	r3, [r7, #12]
 2450 0014 DB89     		ldrh	r3, [r3, #14]	@ movhi
 2451 0016 9BB2     		uxth	r3, r3
 2452 0018 132B     		cmp	r3, #19
 2453 001a 07D9     		bls	.L97
 655:.\PrimeImpl.c ****         {
 656:.\PrimeImpl.c ****             pjob->_ppump->_pumpstate = PUMP_UNKNOWN;
 2454              		.loc 1 656 0
 2455 001c FB68     		ldr	r3, [r7, #12]
 2456 001e DB69     		ldr	r3, [r3, #28]
 2457 0020 FF22     		movs	r2, #255
 2458 0022 9A70     		strb	r2, [r3, #2]
 657:.\PrimeImpl.c ****             pjob->_ppump->_transhealth = _PUMP_FAIL_;
 2459              		.loc 1 657 0
 2460 0024 FB68     		ldr	r3, [r7, #12]
 2461 0026 DB69     		ldr	r3, [r3, #28]
 2462 0028 0222     		movs	r2, #2
 2463 002a 1A76     		strb	r2, [r3, #24]
 2464              	.L97:
 658:.\PrimeImpl.c ****         }
 659:.\PrimeImpl.c ****     }
 660:.\PrimeImpl.c **** }
 2465              		.loc 1 660 0
 2466 002c 1437     		adds	r7, r7, #20
 2467              		.cfi_def_cfa_offset 4
ARM GAS  C:\Users\RECEPC~1\AppData\Local\Temp\ccNQP0pp.s 			page 56


 2468 002e BD46     		mov	sp, r7
 2469              		.cfi_def_cfa_register 13
 2470              		@ sp needed
 2471 0030 5DF8047B 		ldr	r7, [sp], #4
 2472              		.cfi_restore 7
 2473              		.cfi_def_cfa_offset 0
 2474 0034 7047     		bx	lr
 2475              		.cfi_endproc
 2476              	.LFE74:
 2477              		.size	PumpStateJobTimeout, .-PumpStateJobTimeout
 2478 0036 00BF     		.section	.text.PumpAuthorization,"ax",%progbits
 2479              		.align	2
 2480              		.global	PumpAuthorization
 2481              		.thumb
 2482              		.thumb_func
 2483              		.type	PumpAuthorization, %function
 2484              	PumpAuthorization:
 2485              	.LFB75:
 661:.\PrimeImpl.c **** 
 662:.\PrimeImpl.c **** ///////////////////////////////////////////////////////////////////////////////////////////////////
 663:.\PrimeImpl.c **** //////////////////////                 BLOCK OF AVAILABLE REQUEST HANDLERS
 664:.\PrimeImpl.c **** ///////////////////////////////////////////////////////////////////////////////////////////////////
 665:.\PrimeImpl.c **** 
 666:.\PrimeImpl.c **** //@Created By: HIJH
 667:.\PrimeImpl.c **** //@Date: Septembre de 2016
 668:.\PrimeImpl.c **** //Sends the authorization request to the pump. This is a single byte command with no response
 669:.\PrimeImpl.c **** void PumpAuthorization(void *pparam)
 670:.\PrimeImpl.c **** {
 2486              		.loc 1 670 0
 2487              		.cfi_startproc
 2488              		@ args = 0, pretend = 0, frame = 24
 2489              		@ frame_needed = 1, uses_anonymous_args = 0
 2490 0000 80B5     		push	{r7, lr}
 2491              		.cfi_def_cfa_offset 8
 2492              		.cfi_offset 7, -8
 2493              		.cfi_offset 14, -4
 2494 0002 86B0     		sub	sp, sp, #24
 2495              		.cfi_def_cfa_offset 32
 2496 0004 00AF     		add	r7, sp, #0
 2497              		.cfi_def_cfa_register 7
 2498 0006 7860     		str	r0, [r7, #4]
 671:.\PrimeImpl.c ****     PNEAR_PUMPPTR ppump = (PNEAR_PUMPPTR)pparam;
 2499              		.loc 1 671 0
 2500 0008 7B68     		ldr	r3, [r7, #4]
 2501 000a 7B61     		str	r3, [r7, #20]
 672:.\PrimeImpl.c ****     if(ppump)
 2502              		.loc 1 672 0
 2503 000c 7B69     		ldr	r3, [r7, #20]
 2504 000e 002B     		cmp	r3, #0
 2505 0010 34D0     		beq	.L99
 2506              	.LBB8:
 673:.\PrimeImpl.c ****     {
 674:.\PrimeImpl.c ****         
 675:.\PrimeImpl.c ****         if(!ppump->_presetdone)
 2507              		.loc 1 675 0
 2508 0012 7B69     		ldr	r3, [r7, #20]
 2509 0014 9B7A     		ldrb	r3, [r3, #10]
ARM GAS  C:\Users\RECEPC~1\AppData\Local\Temp\ccNQP0pp.s 			page 57


 2510 0016 DBB2     		uxtb	r3, r3
 2511 0018 83F00103 		eor	r3, r3, #1
 2512 001c DBB2     		uxtb	r3, r3
 2513 001e 002B     		cmp	r3, #0
 2514 0020 00D0     		beq	.L101
 676:.\PrimeImpl.c ****             return;
 2515              		.loc 1 676 0
 2516 0022 2BE0     		b	.L99
 2517              	.L101:
 677:.\PrimeImpl.c ****         
 678:.\PrimeImpl.c ****         uint8_t index = 0;
 2518              		.loc 1 678 0
 2519 0024 0023     		movs	r3, #0
 2520 0026 FB74     		strb	r3, [r7, #19]
 679:.\PrimeImpl.c ****         memset(ppump->_rxbuffer, 0x00, _PUMP_RX_BUFFER_SIZE_);
 2521              		.loc 1 679 0
 2522 0028 7B69     		ldr	r3, [r7, #20]
 2523 002a 03F5C473 		add	r3, r3, #392
 2524 002e 1846     		mov	r0, r3
 2525 0030 0021     		movs	r1, #0
 2526 0032 4FF4B472 		mov	r2, #360
 2527 0036 FFF7FEFF 		bl	memset
 680:.\PrimeImpl.c ****         PUARTMESSAGEPTR puartdisp = GetUARTMessageSlot(UART_DISPENSER);
 2528              		.loc 1 680 0
 2529 003a A220     		movs	r0, #162
 2530 003c FFF7FEFF 		bl	GetUARTMessageSlot
 2531 0040 F860     		str	r0, [r7, #12]
 681:.\PrimeImpl.c ****         if(puartdisp)
 2532              		.loc 1 681 0
 2533 0042 FB68     		ldr	r3, [r7, #12]
 2534 0044 002B     		cmp	r3, #0
 2535 0046 19D0     		beq	.L99
 682:.\PrimeImpl.c ****         {
 683:.\PrimeImpl.c ****             //Just one byte for the response
 684:.\PrimeImpl.c ****             puartdisp->_messagetx[index++] = PUMP_COMMAND(PUMP_AUTHORIZATION, ppump->_pumpid);
 2536              		.loc 1 684 0
 2537 0048 FB7C     		ldrb	r3, [r7, #19]	@ zero_extendqisi2
 2538 004a 5A1C     		adds	r2, r3, #1
 2539 004c FA74     		strb	r2, [r7, #19]
 2540 004e 1946     		mov	r1, r3
 2541 0050 7B69     		ldr	r3, [r7, #20]
 2542 0052 1B78     		ldrb	r3, [r3]	@ zero_extendqisi2
 2543 0054 DBB2     		uxtb	r3, r3
 2544 0056 03F00F03 		and	r3, r3, #15
 2545 005a DBB2     		uxtb	r3, r3
 2546 005c 43F01003 		orr	r3, r3, #16
 2547 0060 DBB2     		uxtb	r3, r3
 2548 0062 DAB2     		uxtb	r2, r3
 2549 0064 FB68     		ldr	r3, [r7, #12]
 2550 0066 0B44     		add	r3, r3, r1
 2551 0068 1A71     		strb	r2, [r3, #4]
 685:.\PrimeImpl.c ****             puartdisp->_messagelength = 1;//One byte
 2552              		.loc 1 685 0
 2553 006a FB68     		ldr	r3, [r7, #12]
 2554 006c 0122     		movs	r2, #1
 2555 006e 5A80     		strh	r2, [r3, #2]	@ movhi
 686:.\PrimeImpl.c ****             puartdisp->_messagestate = PENDING;
ARM GAS  C:\Users\RECEPC~1\AppData\Local\Temp\ccNQP0pp.s 			page 58


 2556              		.loc 1 686 0
 2557 0070 FB68     		ldr	r3, [r7, #12]
 2558 0072 C222     		movs	r2, #194
 2559 0074 1A70     		strb	r2, [r3]
 687:.\PrimeImpl.c ****             
 688:.\PrimeImpl.c ****             ppump->_authorized = true;
 2560              		.loc 1 688 0
 2561 0076 7B69     		ldr	r3, [r7, #20]
 2562 0078 0122     		movs	r2, #1
 2563 007a 1A72     		strb	r2, [r3, #8]
 2564              	.L99:
 2565              	.LBE8:
 689:.\PrimeImpl.c ****         }
 690:.\PrimeImpl.c ****     }
 691:.\PrimeImpl.c **** }
 2566              		.loc 1 691 0
 2567 007c 1837     		adds	r7, r7, #24
 2568              		.cfi_def_cfa_offset 8
 2569 007e BD46     		mov	sp, r7
 2570              		.cfi_def_cfa_register 13
 2571              		@ sp needed
 2572 0080 80BD     		pop	{r7, pc}
 2573              		.cfi_endproc
 2574              	.LFE75:
 2575              		.size	PumpAuthorization, .-PumpAuthorization
 2576 0082 00BF     		.section	.text.PumpStartupAuthorization,"ax",%progbits
 2577              		.align	2
 2578              		.global	PumpStartupAuthorization
 2579              		.thumb
 2580              		.thumb_func
 2581              		.type	PumpStartupAuthorization, %function
 2582              	PumpStartupAuthorization:
 2583              	.LFB76:
 692:.\PrimeImpl.c **** 
 693:.\PrimeImpl.c **** //@Created By: HIJH
 694:.\PrimeImpl.c **** //@Date: Septembre de 2016
 695:.\PrimeImpl.c **** //Sends the authorization request to the pump. This is a single byte command with no response
 696:.\PrimeImpl.c **** void PumpStartupAuthorization(void *pparam)
 697:.\PrimeImpl.c **** {
 2584              		.loc 1 697 0
 2585              		.cfi_startproc
 2586              		@ args = 0, pretend = 0, frame = 24
 2587              		@ frame_needed = 1, uses_anonymous_args = 0
 2588 0000 80B5     		push	{r7, lr}
 2589              		.cfi_def_cfa_offset 8
 2590              		.cfi_offset 7, -8
 2591              		.cfi_offset 14, -4
 2592 0002 86B0     		sub	sp, sp, #24
 2593              		.cfi_def_cfa_offset 32
 2594 0004 00AF     		add	r7, sp, #0
 2595              		.cfi_def_cfa_register 7
 2596 0006 7860     		str	r0, [r7, #4]
 698:.\PrimeImpl.c ****     PNEAR_PUMPPTR ppump = (PNEAR_PUMPPTR)pparam;
 2597              		.loc 1 698 0
 2598 0008 7B68     		ldr	r3, [r7, #4]
 2599 000a 7B61     		str	r3, [r7, #20]
 699:.\PrimeImpl.c ****     if(ppump)
ARM GAS  C:\Users\RECEPC~1\AppData\Local\Temp\ccNQP0pp.s 			page 59


 2600              		.loc 1 699 0
 2601 000c 7B69     		ldr	r3, [r7, #20]
 2602 000e 002B     		cmp	r3, #0
 2603 0010 2BD0     		beq	.L102
 2604              	.LBB9:
 700:.\PrimeImpl.c ****     {                
 701:.\PrimeImpl.c ****         uint8_t index = 0;
 2605              		.loc 1 701 0
 2606 0012 0023     		movs	r3, #0
 2607 0014 FB74     		strb	r3, [r7, #19]
 702:.\PrimeImpl.c ****         memset(ppump->_rxbuffer, 0x00, _PUMP_RX_BUFFER_SIZE_);
 2608              		.loc 1 702 0
 2609 0016 7B69     		ldr	r3, [r7, #20]
 2610 0018 03F5C473 		add	r3, r3, #392
 2611 001c 1846     		mov	r0, r3
 2612 001e 0021     		movs	r1, #0
 2613 0020 4FF4B472 		mov	r2, #360
 2614 0024 FFF7FEFF 		bl	memset
 703:.\PrimeImpl.c ****         PUARTMESSAGEPTR puartdisp = GetUARTMessageSlot(UART_DISPENSER);
 2615              		.loc 1 703 0
 2616 0028 A220     		movs	r0, #162
 2617 002a FFF7FEFF 		bl	GetUARTMessageSlot
 2618 002e F860     		str	r0, [r7, #12]
 704:.\PrimeImpl.c ****         if(puartdisp)
 2619              		.loc 1 704 0
 2620 0030 FB68     		ldr	r3, [r7, #12]
 2621 0032 002B     		cmp	r3, #0
 2622 0034 16D0     		beq	.L104
 705:.\PrimeImpl.c ****         {
 706:.\PrimeImpl.c ****             //Just one byte for the response
 707:.\PrimeImpl.c ****             puartdisp->_messagetx[index++] = PUMP_COMMAND(PUMP_AUTHORIZATION, ppump->_pumpid);
 2623              		.loc 1 707 0
 2624 0036 FB7C     		ldrb	r3, [r7, #19]	@ zero_extendqisi2
 2625 0038 5A1C     		adds	r2, r3, #1
 2626 003a FA74     		strb	r2, [r7, #19]
 2627 003c 1946     		mov	r1, r3
 2628 003e 7B69     		ldr	r3, [r7, #20]
 2629 0040 1B78     		ldrb	r3, [r3]	@ zero_extendqisi2
 2630 0042 DBB2     		uxtb	r3, r3
 2631 0044 03F00F03 		and	r3, r3, #15
 2632 0048 DBB2     		uxtb	r3, r3
 2633 004a 43F01003 		orr	r3, r3, #16
 2634 004e DBB2     		uxtb	r3, r3
 2635 0050 DAB2     		uxtb	r2, r3
 2636 0052 FB68     		ldr	r3, [r7, #12]
 2637 0054 0B44     		add	r3, r3, r1
 2638 0056 1A71     		strb	r2, [r3, #4]
 708:.\PrimeImpl.c ****             puartdisp->_messagelength = 1;//One byte
 2639              		.loc 1 708 0
 2640 0058 FB68     		ldr	r3, [r7, #12]
 2641 005a 0122     		movs	r2, #1
 2642 005c 5A80     		strh	r2, [r3, #2]	@ movhi
 709:.\PrimeImpl.c ****             puartdisp->_messagestate = PENDING;
 2643              		.loc 1 709 0
 2644 005e FB68     		ldr	r3, [r7, #12]
 2645 0060 C222     		movs	r2, #194
 2646 0062 1A70     		strb	r2, [r3]
ARM GAS  C:\Users\RECEPC~1\AppData\Local\Temp\ccNQP0pp.s 			page 60


 2647              	.L104:
 710:.\PrimeImpl.c ****             
 711:.\PrimeImpl.c ****         }
 712:.\PrimeImpl.c ****         CyDelay(100);
 2648              		.loc 1 712 0
 2649 0064 6420     		movs	r0, #100
 2650 0066 FFF7FEFF 		bl	CyDelay
 2651              	.L102:
 2652              	.LBE9:
 713:.\PrimeImpl.c ****     }
 714:.\PrimeImpl.c **** }
 2653              		.loc 1 714 0
 2654 006a 1837     		adds	r7, r7, #24
 2655              		.cfi_def_cfa_offset 8
 2656 006c BD46     		mov	sp, r7
 2657              		.cfi_def_cfa_register 13
 2658              		@ sp needed
 2659 006e 80BD     		pop	{r7, pc}
 2660              		.cfi_endproc
 2661              	.LFE76:
 2662              		.size	PumpStartupAuthorization, .-PumpStartupAuthorization
 2663              		.section	.text.PumpStateRequest,"ax",%progbits
 2664              		.align	2
 2665              		.global	PumpStateRequest
 2666              		.thumb
 2667              		.thumb_func
 2668              		.type	PumpStateRequest, %function
 2669              	PumpStateRequest:
 2670              	.LFB77:
 715:.\PrimeImpl.c **** 
 716:.\PrimeImpl.c **** //@Created By: HIJH
 717:.\PrimeImpl.c **** //@Date: Septembre de 2016
 718:.\PrimeImpl.c **** //Sends the state request to the pump. This is a single byte command with one byte of response
 719:.\PrimeImpl.c **** void PumpStateRequest(void *pparam)
 720:.\PrimeImpl.c **** {
 2671              		.loc 1 720 0
 2672              		.cfi_startproc
 2673              		@ args = 0, pretend = 0, frame = 24
 2674              		@ frame_needed = 1, uses_anonymous_args = 0
 2675 0000 80B5     		push	{r7, lr}
 2676              		.cfi_def_cfa_offset 8
 2677              		.cfi_offset 7, -8
 2678              		.cfi_offset 14, -4
 2679 0002 86B0     		sub	sp, sp, #24
 2680              		.cfi_def_cfa_offset 32
 2681 0004 00AF     		add	r7, sp, #0
 2682              		.cfi_def_cfa_register 7
 2683 0006 7860     		str	r0, [r7, #4]
 721:.\PrimeImpl.c ****     PNEAR_PUMPPTR ppump = (PNEAR_PUMPPTR)pparam;
 2684              		.loc 1 721 0
 2685 0008 7B68     		ldr	r3, [r7, #4]
 2686 000a 7B61     		str	r3, [r7, #20]
 722:.\PrimeImpl.c ****     if(ppump)
 2687              		.loc 1 722 0
 2688 000c 7B69     		ldr	r3, [r7, #20]
 2689 000e 002B     		cmp	r3, #0
 2690 0010 23D0     		beq	.L105
ARM GAS  C:\Users\RECEPC~1\AppData\Local\Temp\ccNQP0pp.s 			page 61


 2691              	.LBB10:
 723:.\PrimeImpl.c ****     {
 724:.\PrimeImpl.c ****         uint8_t index = 0;
 2692              		.loc 1 724 0
 2693 0012 0023     		movs	r3, #0
 2694 0014 FB74     		strb	r3, [r7, #19]
 725:.\PrimeImpl.c ****         memset(ppump->_rxbuffer, 0x00, _PUMP_RX_BUFFER_SIZE_);
 2695              		.loc 1 725 0
 2696 0016 7B69     		ldr	r3, [r7, #20]
 2697 0018 03F5C473 		add	r3, r3, #392
 2698 001c 1846     		mov	r0, r3
 2699 001e 0021     		movs	r1, #0
 2700 0020 4FF4B472 		mov	r2, #360
 2701 0024 FFF7FEFF 		bl	memset
 726:.\PrimeImpl.c ****         PUARTMESSAGEPTR puartdisp = GetUARTMessageSlot(UART_DISPENSER);
 2702              		.loc 1 726 0
 2703 0028 A220     		movs	r0, #162
 2704 002a FFF7FEFF 		bl	GetUARTMessageSlot
 2705 002e F860     		str	r0, [r7, #12]
 727:.\PrimeImpl.c ****         if(puartdisp)
 2706              		.loc 1 727 0
 2707 0030 FB68     		ldr	r3, [r7, #12]
 2708 0032 002B     		cmp	r3, #0
 2709 0034 11D0     		beq	.L105
 728:.\PrimeImpl.c ****         {
 729:.\PrimeImpl.c ****             puartdisp->_messagetx[index++] = PUMP_COMMAND(PUMP_STATE_REQUEST, ppump->_pumpid);
 2710              		.loc 1 729 0
 2711 0036 FB7C     		ldrb	r3, [r7, #19]	@ zero_extendqisi2
 2712 0038 5A1C     		adds	r2, r3, #1
 2713 003a FA74     		strb	r2, [r7, #19]
 2714 003c 1946     		mov	r1, r3
 2715 003e 7B69     		ldr	r3, [r7, #20]
 2716 0040 1B78     		ldrb	r3, [r3]	@ zero_extendqisi2
 2717 0042 03F00F03 		and	r3, r3, #15
 2718 0046 DAB2     		uxtb	r2, r3
 2719 0048 FB68     		ldr	r3, [r7, #12]
 2720 004a 0B44     		add	r3, r3, r1
 2721 004c 1A71     		strb	r2, [r3, #4]
 730:.\PrimeImpl.c ****             puartdisp->_messagelength = 1;//One byte
 2722              		.loc 1 730 0
 2723 004e FB68     		ldr	r3, [r7, #12]
 2724 0050 0122     		movs	r2, #1
 2725 0052 5A80     		strh	r2, [r3, #2]	@ movhi
 731:.\PrimeImpl.c ****             puartdisp->_messagestate = PENDING;
 2726              		.loc 1 731 0
 2727 0054 FB68     		ldr	r3, [r7, #12]
 2728 0056 C222     		movs	r2, #194
 2729 0058 1A70     		strb	r2, [r3]
 2730              	.L105:
 2731              	.LBE10:
 732:.\PrimeImpl.c ****         }
 733:.\PrimeImpl.c ****     }
 734:.\PrimeImpl.c **** }
 2732              		.loc 1 734 0
 2733 005a 1837     		adds	r7, r7, #24
 2734              		.cfi_def_cfa_offset 8
 2735 005c BD46     		mov	sp, r7
ARM GAS  C:\Users\RECEPC~1\AppData\Local\Temp\ccNQP0pp.s 			page 62


 2736              		.cfi_def_cfa_register 13
 2737              		@ sp needed
 2738 005e 80BD     		pop	{r7, pc}
 2739              		.cfi_endproc
 2740              	.LFE77:
 2741              		.size	PumpStateRequest, .-PumpStateRequest
 2742              		.section	.text.PumpRTMoneyRequest,"ax",%progbits
 2743              		.align	2
 2744              		.global	PumpRTMoneyRequest
 2745              		.thumb
 2746              		.thumb_func
 2747              		.type	PumpRTMoneyRequest, %function
 2748              	PumpRTMoneyRequest:
 2749              	.LFB78:
 735:.\PrimeImpl.c **** 
 736:.\PrimeImpl.c **** //@Created By: HIJH
 737:.\PrimeImpl.c **** //@Date: Septembre de 2016
 738:.\PrimeImpl.c **** void PumpRTMoneyRequest(void *pparam)
 739:.\PrimeImpl.c **** {
 2750              		.loc 1 739 0
 2751              		.cfi_startproc
 2752              		@ args = 0, pretend = 0, frame = 24
 2753              		@ frame_needed = 1, uses_anonymous_args = 0
 2754 0000 80B5     		push	{r7, lr}
 2755              		.cfi_def_cfa_offset 8
 2756              		.cfi_offset 7, -8
 2757              		.cfi_offset 14, -4
 2758 0002 86B0     		sub	sp, sp, #24
 2759              		.cfi_def_cfa_offset 32
 2760 0004 00AF     		add	r7, sp, #0
 2761              		.cfi_def_cfa_register 7
 2762 0006 7860     		str	r0, [r7, #4]
 740:.\PrimeImpl.c ****     PNEAR_PUMPPTR ppump = (PNEAR_PUMPPTR)pparam;
 2763              		.loc 1 740 0
 2764 0008 7B68     		ldr	r3, [r7, #4]
 2765 000a 7B61     		str	r3, [r7, #20]
 741:.\PrimeImpl.c ****     if(ppump)
 2766              		.loc 1 741 0
 2767 000c 7B69     		ldr	r3, [r7, #20]
 2768 000e 002B     		cmp	r3, #0
 2769 0010 28D0     		beq	.L107
 2770              	.LBB11:
 742:.\PrimeImpl.c ****     {
 743:.\PrimeImpl.c ****         uint8_t index = 0;
 2771              		.loc 1 743 0
 2772 0012 0023     		movs	r3, #0
 2773 0014 FB74     		strb	r3, [r7, #19]
 744:.\PrimeImpl.c ****         memset(ppump->_rxbuffer, 0x00, _PUMP_RX_BUFFER_SIZE_);
 2774              		.loc 1 744 0
 2775 0016 7B69     		ldr	r3, [r7, #20]
 2776 0018 03F5C473 		add	r3, r3, #392
 2777 001c 1846     		mov	r0, r3
 2778 001e 0021     		movs	r1, #0
 2779 0020 4FF4B472 		mov	r2, #360
 2780 0024 FFF7FEFF 		bl	memset
 745:.\PrimeImpl.c ****         PUARTMESSAGEPTR puartdisp = GetUARTMessageSlot(UART_DISPENSER);
 2781              		.loc 1 745 0
ARM GAS  C:\Users\RECEPC~1\AppData\Local\Temp\ccNQP0pp.s 			page 63


 2782 0028 A220     		movs	r0, #162
 2783 002a FFF7FEFF 		bl	GetUARTMessageSlot
 2784 002e F860     		str	r0, [r7, #12]
 746:.\PrimeImpl.c ****         if(puartdisp)
 2785              		.loc 1 746 0
 2786 0030 FB68     		ldr	r3, [r7, #12]
 2787 0032 002B     		cmp	r3, #0
 2788 0034 16D0     		beq	.L107
 747:.\PrimeImpl.c ****         {
 748:.\PrimeImpl.c ****             puartdisp->_messagetx[index++] = PUMP_COMMAND(PUMP_REAL_TIME_MONEY_REQUEST, ppump->_pum
 2789              		.loc 1 748 0
 2790 0036 FB7C     		ldrb	r3, [r7, #19]	@ zero_extendqisi2
 2791 0038 5A1C     		adds	r2, r3, #1
 2792 003a FA74     		strb	r2, [r7, #19]
 2793 003c 1946     		mov	r1, r3
 2794 003e 7B69     		ldr	r3, [r7, #20]
 2795 0040 1B78     		ldrb	r3, [r3]	@ zero_extendqisi2
 2796 0042 DBB2     		uxtb	r3, r3
 2797 0044 03F00F03 		and	r3, r3, #15
 2798 0048 DBB2     		uxtb	r3, r3
 2799 004a 43F06003 		orr	r3, r3, #96
 2800 004e DBB2     		uxtb	r3, r3
 2801 0050 DAB2     		uxtb	r2, r3
 2802 0052 FB68     		ldr	r3, [r7, #12]
 2803 0054 0B44     		add	r3, r3, r1
 2804 0056 1A71     		strb	r2, [r3, #4]
 749:.\PrimeImpl.c ****             puartdisp->_messagelength = 1;//One byte
 2805              		.loc 1 749 0
 2806 0058 FB68     		ldr	r3, [r7, #12]
 2807 005a 0122     		movs	r2, #1
 2808 005c 5A80     		strh	r2, [r3, #2]	@ movhi
 750:.\PrimeImpl.c ****             puartdisp->_messagestate = PENDING;
 2809              		.loc 1 750 0
 2810 005e FB68     		ldr	r3, [r7, #12]
 2811 0060 C222     		movs	r2, #194
 2812 0062 1A70     		strb	r2, [r3]
 2813              	.L107:
 2814              	.LBE11:
 751:.\PrimeImpl.c ****         }
 752:.\PrimeImpl.c ****     }
 753:.\PrimeImpl.c **** }
 2815              		.loc 1 753 0
 2816 0064 1837     		adds	r7, r7, #24
 2817              		.cfi_def_cfa_offset 8
 2818 0066 BD46     		mov	sp, r7
 2819              		.cfi_def_cfa_register 13
 2820              		@ sp needed
 2821 0068 80BD     		pop	{r7, pc}
 2822              		.cfi_endproc
 2823              	.LFE78:
 2824              		.size	PumpRTMoneyRequest, .-PumpRTMoneyRequest
 2825 006a 00BF     		.section	.text.PumpRTHoseVolumeRequest,"ax",%progbits
 2826              		.align	2
 2827              		.global	PumpRTHoseVolumeRequest
 2828              		.thumb
 2829              		.thumb_func
 2830              		.type	PumpRTHoseVolumeRequest, %function
ARM GAS  C:\Users\RECEPC~1\AppData\Local\Temp\ccNQP0pp.s 			page 64


 2831              	PumpRTHoseVolumeRequest:
 2832              	.LFB79:
 754:.\PrimeImpl.c **** 
 755:.\PrimeImpl.c **** //@Created By: HIJH
 756:.\PrimeImpl.c **** //@Date: Septembre de 2016
 757:.\PrimeImpl.c **** void PumpRTHoseVolumeRequest(void *pparam)
 758:.\PrimeImpl.c **** {
 2833              		.loc 1 758 0
 2834              		.cfi_startproc
 2835              		@ args = 0, pretend = 0, frame = 24
 2836              		@ frame_needed = 1, uses_anonymous_args = 0
 2837 0000 80B5     		push	{r7, lr}
 2838              		.cfi_def_cfa_offset 8
 2839              		.cfi_offset 7, -8
 2840              		.cfi_offset 14, -4
 2841 0002 86B0     		sub	sp, sp, #24
 2842              		.cfi_def_cfa_offset 32
 2843 0004 00AF     		add	r7, sp, #0
 2844              		.cfi_def_cfa_register 7
 2845 0006 7860     		str	r0, [r7, #4]
 759:.\PrimeImpl.c ****     PNEAR_PUMPPTR ppump = (PNEAR_PUMPPTR)pparam;
 2846              		.loc 1 759 0
 2847 0008 7B68     		ldr	r3, [r7, #4]
 2848 000a 7B61     		str	r3, [r7, #20]
 760:.\PrimeImpl.c ****     if(ppump)
 2849              		.loc 1 760 0
 2850 000c 7B69     		ldr	r3, [r7, #20]
 2851 000e 002B     		cmp	r3, #0
 2852 0010 28D0     		beq	.L109
 2853              	.LBB12:
 761:.\PrimeImpl.c ****     {
 762:.\PrimeImpl.c ****         uint8_t index = 0;
 2854              		.loc 1 762 0
 2855 0012 0023     		movs	r3, #0
 2856 0014 FB74     		strb	r3, [r7, #19]
 763:.\PrimeImpl.c ****         memset(ppump->_rxbuffer, 0x00, _PUMP_RX_BUFFER_SIZE_);
 2857              		.loc 1 763 0
 2858 0016 7B69     		ldr	r3, [r7, #20]
 2859 0018 03F5C473 		add	r3, r3, #392
 2860 001c 1846     		mov	r0, r3
 2861 001e 0021     		movs	r1, #0
 2862 0020 4FF4B472 		mov	r2, #360
 2863 0024 FFF7FEFF 		bl	memset
 764:.\PrimeImpl.c ****         PUARTMESSAGEPTR puartdisp = GetUARTMessageSlot(UART_DISPENSER);
 2864              		.loc 1 764 0
 2865 0028 A220     		movs	r0, #162
 2866 002a FFF7FEFF 		bl	GetUARTMessageSlot
 2867 002e F860     		str	r0, [r7, #12]
 765:.\PrimeImpl.c ****         if(puartdisp)
 2868              		.loc 1 765 0
 2869 0030 FB68     		ldr	r3, [r7, #12]
 2870 0032 002B     		cmp	r3, #0
 2871 0034 16D0     		beq	.L109
 766:.\PrimeImpl.c ****         {
 767:.\PrimeImpl.c ****             puartdisp->_messagetx[index++] = PUMP_COMMAND(PUMP_REAL_TIME_HOSE_VOLUME_REQUEST, ppump
 2872              		.loc 1 767 0
 2873 0036 FB7C     		ldrb	r3, [r7, #19]	@ zero_extendqisi2
ARM GAS  C:\Users\RECEPC~1\AppData\Local\Temp\ccNQP0pp.s 			page 65


 2874 0038 5A1C     		adds	r2, r3, #1
 2875 003a FA74     		strb	r2, [r7, #19]
 2876 003c 1946     		mov	r1, r3
 2877 003e 7B69     		ldr	r3, [r7, #20]
 2878 0040 1B78     		ldrb	r3, [r3]	@ zero_extendqisi2
 2879 0042 DBB2     		uxtb	r3, r3
 2880 0044 03F00F03 		and	r3, r3, #15
 2881 0048 DBB2     		uxtb	r3, r3
 2882 004a 43F07003 		orr	r3, r3, #112
 2883 004e DBB2     		uxtb	r3, r3
 2884 0050 DAB2     		uxtb	r2, r3
 2885 0052 FB68     		ldr	r3, [r7, #12]
 2886 0054 0B44     		add	r3, r3, r1
 2887 0056 1A71     		strb	r2, [r3, #4]
 768:.\PrimeImpl.c ****             puartdisp->_messagelength = 1;//One byte
 2888              		.loc 1 768 0
 2889 0058 FB68     		ldr	r3, [r7, #12]
 2890 005a 0122     		movs	r2, #1
 2891 005c 5A80     		strh	r2, [r3, #2]	@ movhi
 769:.\PrimeImpl.c ****             puartdisp->_messagestate = PENDING;
 2892              		.loc 1 769 0
 2893 005e FB68     		ldr	r3, [r7, #12]
 2894 0060 C222     		movs	r2, #194
 2895 0062 1A70     		strb	r2, [r3]
 2896              	.L109:
 2897              	.LBE12:
 770:.\PrimeImpl.c ****         }
 771:.\PrimeImpl.c ****     }
 772:.\PrimeImpl.c **** }
 2898              		.loc 1 772 0
 2899 0064 1837     		adds	r7, r7, #24
 2900              		.cfi_def_cfa_offset 8
 2901 0066 BD46     		mov	sp, r7
 2902              		.cfi_def_cfa_register 13
 2903              		@ sp needed
 2904 0068 80BD     		pop	{r7, pc}
 2905              		.cfi_endproc
 2906              	.LFE79:
 2907              		.size	PumpRTHoseVolumeRequest, .-PumpRTHoseVolumeRequest
 2908 006a 00BF     		.section	.text.PumpTransactionDataRequest,"ax",%progbits
 2909              		.align	2
 2910              		.global	PumpTransactionDataRequest
 2911              		.thumb
 2912              		.thumb_func
 2913              		.type	PumpTransactionDataRequest, %function
 2914              	PumpTransactionDataRequest:
 2915              	.LFB80:
 773:.\PrimeImpl.c **** 
 774:.\PrimeImpl.c **** //@Created By: HIJH
 775:.\PrimeImpl.c **** //@Date: Septembre de 2016
 776:.\PrimeImpl.c **** //Requests the last transaction data to the pump. This is a single byte command with a fixed length
 777:.\PrimeImpl.c **** void PumpTransactionDataRequest(void *pparam)
 778:.\PrimeImpl.c **** {
 2916              		.loc 1 778 0
 2917              		.cfi_startproc
 2918              		@ args = 0, pretend = 0, frame = 24
 2919              		@ frame_needed = 1, uses_anonymous_args = 0
ARM GAS  C:\Users\RECEPC~1\AppData\Local\Temp\ccNQP0pp.s 			page 66


 2920 0000 80B5     		push	{r7, lr}
 2921              		.cfi_def_cfa_offset 8
 2922              		.cfi_offset 7, -8
 2923              		.cfi_offset 14, -4
 2924 0002 86B0     		sub	sp, sp, #24
 2925              		.cfi_def_cfa_offset 32
 2926 0004 00AF     		add	r7, sp, #0
 2927              		.cfi_def_cfa_register 7
 2928 0006 7860     		str	r0, [r7, #4]
 779:.\PrimeImpl.c ****     PNEAR_PUMPPTR ppump = (PNEAR_PUMPPTR)pparam;
 2929              		.loc 1 779 0
 2930 0008 7B68     		ldr	r3, [r7, #4]
 2931 000a 7B61     		str	r3, [r7, #20]
 780:.\PrimeImpl.c ****     if(ppump)
 2932              		.loc 1 780 0
 2933 000c 7B69     		ldr	r3, [r7, #20]
 2934 000e 002B     		cmp	r3, #0
 2935 0010 28D0     		beq	.L111
 2936              	.LBB13:
 781:.\PrimeImpl.c ****     {        
 782:.\PrimeImpl.c ****         uint8_t index = 0;
 2937              		.loc 1 782 0
 2938 0012 0023     		movs	r3, #0
 2939 0014 FB74     		strb	r3, [r7, #19]
 783:.\PrimeImpl.c ****         memset(ppump->_rxbuffer, 0x00, _PUMP_RX_BUFFER_SIZE_);
 2940              		.loc 1 783 0
 2941 0016 7B69     		ldr	r3, [r7, #20]
 2942 0018 03F5C473 		add	r3, r3, #392
 2943 001c 1846     		mov	r0, r3
 2944 001e 0021     		movs	r1, #0
 2945 0020 4FF4B472 		mov	r2, #360
 2946 0024 FFF7FEFF 		bl	memset
 784:.\PrimeImpl.c ****         PUARTMESSAGEPTR puartdisp = GetUARTMessageSlot(UART_DISPENSER);
 2947              		.loc 1 784 0
 2948 0028 A220     		movs	r0, #162
 2949 002a FFF7FEFF 		bl	GetUARTMessageSlot
 2950 002e F860     		str	r0, [r7, #12]
 785:.\PrimeImpl.c ****         if(puartdisp)
 2951              		.loc 1 785 0
 2952 0030 FB68     		ldr	r3, [r7, #12]
 2953 0032 002B     		cmp	r3, #0
 2954 0034 16D0     		beq	.L111
 786:.\PrimeImpl.c ****         {
 787:.\PrimeImpl.c ****             puartdisp->_messagetx[index++] = PUMP_COMMAND(PUMP_TRANSACTION_DATA_REQUEST, ppump->_pu
 2955              		.loc 1 787 0
 2956 0036 FB7C     		ldrb	r3, [r7, #19]	@ zero_extendqisi2
 2957 0038 5A1C     		adds	r2, r3, #1
 2958 003a FA74     		strb	r2, [r7, #19]
 2959 003c 1946     		mov	r1, r3
 2960 003e 7B69     		ldr	r3, [r7, #20]
 2961 0040 1B78     		ldrb	r3, [r3]	@ zero_extendqisi2
 2962 0042 DBB2     		uxtb	r3, r3
 2963 0044 03F00F03 		and	r3, r3, #15
 2964 0048 DBB2     		uxtb	r3, r3
 2965 004a 43F04003 		orr	r3, r3, #64
 2966 004e DBB2     		uxtb	r3, r3
 2967 0050 DAB2     		uxtb	r2, r3
ARM GAS  C:\Users\RECEPC~1\AppData\Local\Temp\ccNQP0pp.s 			page 67


 2968 0052 FB68     		ldr	r3, [r7, #12]
 2969 0054 0B44     		add	r3, r3, r1
 2970 0056 1A71     		strb	r2, [r3, #4]
 788:.\PrimeImpl.c ****             puartdisp->_messagelength = 1;//One byte
 2971              		.loc 1 788 0
 2972 0058 FB68     		ldr	r3, [r7, #12]
 2973 005a 0122     		movs	r2, #1
 2974 005c 5A80     		strh	r2, [r3, #2]	@ movhi
 789:.\PrimeImpl.c ****             puartdisp->_messagestate = PENDING;
 2975              		.loc 1 789 0
 2976 005e FB68     		ldr	r3, [r7, #12]
 2977 0060 C222     		movs	r2, #194
 2978 0062 1A70     		strb	r2, [r3]
 2979              	.L111:
 2980              	.LBE13:
 790:.\PrimeImpl.c ****         }
 791:.\PrimeImpl.c ****     }
 792:.\PrimeImpl.c **** }
 2981              		.loc 1 792 0
 2982 0064 1837     		adds	r7, r7, #24
 2983              		.cfi_def_cfa_offset 8
 2984 0066 BD46     		mov	sp, r7
 2985              		.cfi_def_cfa_register 13
 2986              		@ sp needed
 2987 0068 80BD     		pop	{r7, pc}
 2988              		.cfi_endproc
 2989              	.LFE80:
 2990              		.size	PumpTransactionDataRequest, .-PumpTransactionDataRequest
 2991 006a 00BF     		.section	.text.PumpTotalsDataRequest,"ax",%progbits
 2992              		.align	2
 2993              		.global	PumpTotalsDataRequest
 2994              		.thumb
 2995              		.thumb_func
 2996              		.type	PumpTotalsDataRequest, %function
 2997              	PumpTotalsDataRequest:
 2998              	.LFB81:
 793:.\PrimeImpl.c **** 
 794:.\PrimeImpl.c **** //@Created By: HIJH
 795:.\PrimeImpl.c **** //@Date: Septembre de 2016
 796:.\PrimeImpl.c **** //Requests the report of totals for the current pump. This is a single byte command with a variable
 797:.\PrimeImpl.c **** //that depends on the number of available hoses.
 798:.\PrimeImpl.c **** void PumpTotalsDataRequest(void *pparam)
 799:.\PrimeImpl.c **** {
 2999              		.loc 1 799 0
 3000              		.cfi_startproc
 3001              		@ args = 0, pretend = 0, frame = 24
 3002              		@ frame_needed = 1, uses_anonymous_args = 0
 3003 0000 80B5     		push	{r7, lr}
 3004              		.cfi_def_cfa_offset 8
 3005              		.cfi_offset 7, -8
 3006              		.cfi_offset 14, -4
 3007 0002 86B0     		sub	sp, sp, #24
 3008              		.cfi_def_cfa_offset 32
 3009 0004 00AF     		add	r7, sp, #0
 3010              		.cfi_def_cfa_register 7
 3011 0006 7860     		str	r0, [r7, #4]
 800:.\PrimeImpl.c ****     PNEAR_PUMPPTR ppump = (PNEAR_PUMPPTR)pparam;
ARM GAS  C:\Users\RECEPC~1\AppData\Local\Temp\ccNQP0pp.s 			page 68


 3012              		.loc 1 800 0
 3013 0008 7B68     		ldr	r3, [r7, #4]
 3014 000a 7B61     		str	r3, [r7, #20]
 801:.\PrimeImpl.c ****     if(ppump)
 3015              		.loc 1 801 0
 3016 000c 7B69     		ldr	r3, [r7, #20]
 3017 000e 002B     		cmp	r3, #0
 3018 0010 28D0     		beq	.L113
 3019              	.LBB14:
 802:.\PrimeImpl.c ****     {        
 803:.\PrimeImpl.c ****         uint8_t index = 0;
 3020              		.loc 1 803 0
 3021 0012 0023     		movs	r3, #0
 3022 0014 FB74     		strb	r3, [r7, #19]
 804:.\PrimeImpl.c ****         memset(ppump->_rxbuffer, 0x00, _PUMP_RX_BUFFER_SIZE_);
 3023              		.loc 1 804 0
 3024 0016 7B69     		ldr	r3, [r7, #20]
 3025 0018 03F5C473 		add	r3, r3, #392
 3026 001c 1846     		mov	r0, r3
 3027 001e 0021     		movs	r1, #0
 3028 0020 4FF4B472 		mov	r2, #360
 3029 0024 FFF7FEFF 		bl	memset
 805:.\PrimeImpl.c ****         PUARTMESSAGEPTR puartdisp = GetUARTMessageSlot(UART_DISPENSER);
 3030              		.loc 1 805 0
 3031 0028 A220     		movs	r0, #162
 3032 002a FFF7FEFF 		bl	GetUARTMessageSlot
 3033 002e F860     		str	r0, [r7, #12]
 806:.\PrimeImpl.c ****         if(puartdisp)
 3034              		.loc 1 806 0
 3035 0030 FB68     		ldr	r3, [r7, #12]
 3036 0032 002B     		cmp	r3, #0
 3037 0034 16D0     		beq	.L113
 807:.\PrimeImpl.c ****         {
 808:.\PrimeImpl.c ****             puartdisp->_messagetx[index++] = PUMP_COMMAND(PUMP_TOTALS_DATA_REQUEST, ppump->_pumpid)
 3038              		.loc 1 808 0
 3039 0036 FB7C     		ldrb	r3, [r7, #19]	@ zero_extendqisi2
 3040 0038 5A1C     		adds	r2, r3, #1
 3041 003a FA74     		strb	r2, [r7, #19]
 3042 003c 1946     		mov	r1, r3
 3043 003e 7B69     		ldr	r3, [r7, #20]
 3044 0040 1B78     		ldrb	r3, [r3]	@ zero_extendqisi2
 3045 0042 DBB2     		uxtb	r3, r3
 3046 0044 03F00F03 		and	r3, r3, #15
 3047 0048 DBB2     		uxtb	r3, r3
 3048 004a 43F05003 		orr	r3, r3, #80
 3049 004e DBB2     		uxtb	r3, r3
 3050 0050 DAB2     		uxtb	r2, r3
 3051 0052 FB68     		ldr	r3, [r7, #12]
 3052 0054 0B44     		add	r3, r3, r1
 3053 0056 1A71     		strb	r2, [r3, #4]
 809:.\PrimeImpl.c ****             puartdisp->_messagelength = 1;//One byte
 3054              		.loc 1 809 0
 3055 0058 FB68     		ldr	r3, [r7, #12]
 3056 005a 0122     		movs	r2, #1
 3057 005c 5A80     		strh	r2, [r3, #2]	@ movhi
 810:.\PrimeImpl.c ****             puartdisp->_messagestate = PENDING;
 3058              		.loc 1 810 0
ARM GAS  C:\Users\RECEPC~1\AppData\Local\Temp\ccNQP0pp.s 			page 69


 3059 005e FB68     		ldr	r3, [r7, #12]
 3060 0060 C222     		movs	r2, #194
 3061 0062 1A70     		strb	r2, [r3]
 3062              	.L113:
 3063              	.LBE14:
 811:.\PrimeImpl.c ****         }
 812:.\PrimeImpl.c ****     }
 813:.\PrimeImpl.c **** }
 3064              		.loc 1 813 0
 3065 0064 1837     		adds	r7, r7, #24
 3066              		.cfi_def_cfa_offset 8
 3067 0066 BD46     		mov	sp, r7
 3068              		.cfi_def_cfa_register 13
 3069              		@ sp needed
 3070 0068 80BD     		pop	{r7, pc}
 3071              		.cfi_endproc
 3072              	.LFE81:
 3073              		.size	PumpTotalsDataRequest, .-PumpTotalsDataRequest
 3074 006a 00BF     		.section	.text.PumpDataToPump,"ax",%progbits
 3075              		.align	2
 3076              		.global	PumpDataToPump
 3077              		.thumb
 3078              		.thumb_func
 3079              		.type	PumpDataToPump, %function
 3080              	PumpDataToPump:
 3081              	.LFB82:
 814:.\PrimeImpl.c **** 
 815:.\PrimeImpl.c **** //@Created By: HIJH
 816:.\PrimeImpl.c **** //@Date: Septembre de 2016
 817:.\PrimeImpl.c **** //Requests the pump to enter in "SEND DATA" mode. This is a single byte command with a special one 
 818:.\PrimeImpl.c **** //that indicates that the pump is ready to receive data.
 819:.\PrimeImpl.c **** void PumpDataToPump(void *pparam)
 820:.\PrimeImpl.c **** {
 3082              		.loc 1 820 0
 3083              		.cfi_startproc
 3084              		@ args = 0, pretend = 0, frame = 24
 3085              		@ frame_needed = 1, uses_anonymous_args = 0
 3086 0000 80B5     		push	{r7, lr}
 3087              		.cfi_def_cfa_offset 8
 3088              		.cfi_offset 7, -8
 3089              		.cfi_offset 14, -4
 3090 0002 86B0     		sub	sp, sp, #24
 3091              		.cfi_def_cfa_offset 32
 3092 0004 00AF     		add	r7, sp, #0
 3093              		.cfi_def_cfa_register 7
 3094 0006 7860     		str	r0, [r7, #4]
 821:.\PrimeImpl.c ****     PNEAR_PUMPPTR ppump = (PNEAR_PUMPPTR)pparam;
 3095              		.loc 1 821 0
 3096 0008 7B68     		ldr	r3, [r7, #4]
 3097 000a 7B61     		str	r3, [r7, #20]
 822:.\PrimeImpl.c ****     if(ppump)
 3098              		.loc 1 822 0
 3099 000c 7B69     		ldr	r3, [r7, #20]
 3100 000e 002B     		cmp	r3, #0
 3101 0010 28D0     		beq	.L115
 3102              	.LBB15:
 823:.\PrimeImpl.c ****     {
ARM GAS  C:\Users\RECEPC~1\AppData\Local\Temp\ccNQP0pp.s 			page 70


 824:.\PrimeImpl.c ****         uint8_t index = 0;        
 3103              		.loc 1 824 0
 3104 0012 0023     		movs	r3, #0
 3105 0014 FB74     		strb	r3, [r7, #19]
 825:.\PrimeImpl.c ****         memset(ppump->_rxbuffer, 0x00, _PUMP_RX_BUFFER_SIZE_);
 3106              		.loc 1 825 0
 3107 0016 7B69     		ldr	r3, [r7, #20]
 3108 0018 03F5C473 		add	r3, r3, #392
 3109 001c 1846     		mov	r0, r3
 3110 001e 0021     		movs	r1, #0
 3111 0020 4FF4B472 		mov	r2, #360
 3112 0024 FFF7FEFF 		bl	memset
 826:.\PrimeImpl.c ****         PUARTMESSAGEPTR puartdisp = GetUARTMessageSlot(UART_DISPENSER);
 3113              		.loc 1 826 0
 3114 0028 A220     		movs	r0, #162
 3115 002a FFF7FEFF 		bl	GetUARTMessageSlot
 3116 002e F860     		str	r0, [r7, #12]
 827:.\PrimeImpl.c ****         if(puartdisp)
 3117              		.loc 1 827 0
 3118 0030 FB68     		ldr	r3, [r7, #12]
 3119 0032 002B     		cmp	r3, #0
 3120 0034 16D0     		beq	.L115
 828:.\PrimeImpl.c ****         {
 829:.\PrimeImpl.c ****             puartdisp->_messagetx[index++] = PUMP_COMMAND(PUMP_DATA_TO_PUMP, ppump->_pumpid);
 3121              		.loc 1 829 0
 3122 0036 FB7C     		ldrb	r3, [r7, #19]	@ zero_extendqisi2
 3123 0038 5A1C     		adds	r2, r3, #1
 3124 003a FA74     		strb	r2, [r7, #19]
 3125 003c 1946     		mov	r1, r3
 3126 003e 7B69     		ldr	r3, [r7, #20]
 3127 0040 1B78     		ldrb	r3, [r3]	@ zero_extendqisi2
 3128 0042 DBB2     		uxtb	r3, r3
 3129 0044 03F00F03 		and	r3, r3, #15
 3130 0048 DBB2     		uxtb	r3, r3
 3131 004a 43F02003 		orr	r3, r3, #32
 3132 004e DBB2     		uxtb	r3, r3
 3133 0050 DAB2     		uxtb	r2, r3
 3134 0052 FB68     		ldr	r3, [r7, #12]
 3135 0054 0B44     		add	r3, r3, r1
 3136 0056 1A71     		strb	r2, [r3, #4]
 830:.\PrimeImpl.c ****             puartdisp->_messagelength = 1;//One byte
 3137              		.loc 1 830 0
 3138 0058 FB68     		ldr	r3, [r7, #12]
 3139 005a 0122     		movs	r2, #1
 3140 005c 5A80     		strh	r2, [r3, #2]	@ movhi
 831:.\PrimeImpl.c ****             puartdisp->_messagestate = PENDING;
 3141              		.loc 1 831 0
 3142 005e FB68     		ldr	r3, [r7, #12]
 3143 0060 C222     		movs	r2, #194
 3144 0062 1A70     		strb	r2, [r3]
 3145              	.L115:
 3146              	.LBE15:
 832:.\PrimeImpl.c ****         }
 833:.\PrimeImpl.c ****     }
 834:.\PrimeImpl.c **** }
 3147              		.loc 1 834 0
 3148 0064 1837     		adds	r7, r7, #24
ARM GAS  C:\Users\RECEPC~1\AppData\Local\Temp\ccNQP0pp.s 			page 71


 3149              		.cfi_def_cfa_offset 8
 3150 0066 BD46     		mov	sp, r7
 3151              		.cfi_def_cfa_register 13
 3152              		@ sp needed
 3153 0068 80BD     		pop	{r7, pc}
 3154              		.cfi_endproc
 3155              	.LFE82:
 3156              		.size	PumpDataToPump, .-PumpDataToPump
 3157 006a 00BF     		.section	.text.PumpPresetHose,"ax",%progbits
 3158              		.align	2
 3159              		.global	PumpPresetHose
 3160              		.thumb
 3161              		.thumb_func
 3162              		.type	PumpPresetHose, %function
 3163              	PumpPresetHose:
 3164              	.LFB83:
 835:.\PrimeImpl.c **** 
 836:.\PrimeImpl.c **** //@Created By: HIJH
 837:.\PrimeImpl.c **** //@Septembre de 2016
 838:.\PrimeImpl.c **** ///////////////////////////////////////////////////////////////////////////////////////////////////
 839:.\PrimeImpl.c **** //Preset values will be placed within the SinkMessage's buffer. This is a convention that applies t
 840:.\PrimeImpl.c **** //all of the available transactions. The pump function must deal with this while it is assembling t
 841:.\PrimeImpl.c **** //For this message the data comes as follows:
 842:.\PrimeImpl.c **** // - First byte is the preset type (Volume:1 / Money:2 )
 843:.\PrimeImpl.c **** // - Second byte is the Hose (A:0, B:1, C:2, D:3)
 844:.\PrimeImpl.c **** // - Block of 8 bytes for the preset value
 845:.\PrimeImpl.c **** //This block of data (10 bytes) must be moved to another position within the same buffer (even posi
 846:.\PrimeImpl.c **** void PumpPresetHose(void *pparam)
 847:.\PrimeImpl.c **** {
 3165              		.loc 1 847 0
 3166              		.cfi_startproc
 3167              		@ args = 0, pretend = 0, frame = 32
 3168              		@ frame_needed = 1, uses_anonymous_args = 0
 3169 0000 90B5     		push	{r4, r7, lr}
 3170              		.cfi_def_cfa_offset 12
 3171              		.cfi_offset 4, -12
 3172              		.cfi_offset 7, -8
 3173              		.cfi_offset 14, -4
 3174 0002 89B0     		sub	sp, sp, #36
 3175              		.cfi_def_cfa_offset 48
 3176 0004 00AF     		add	r7, sp, #0
 3177              		.cfi_def_cfa_register 7
 3178 0006 7860     		str	r0, [r7, #4]
 848:.\PrimeImpl.c ****     PNEAR_PUMPPTR ppump = (PNEAR_PUMPPTR)pparam;
 3179              		.loc 1 848 0
 3180 0008 7B68     		ldr	r3, [r7, #4]
 3181 000a BB61     		str	r3, [r7, #24]
 849:.\PrimeImpl.c ****     if(ppump)
 3182              		.loc 1 849 0
 3183 000c BB69     		ldr	r3, [r7, #24]
 3184 000e 002B     		cmp	r3, #0
 3185 0010 00F09880 		beq	.L117
 3186              	.LBB16:
 850:.\PrimeImpl.c ****     {
 851:.\PrimeImpl.c ****         uint8_t index = 0;        
 3187              		.loc 1 851 0
 3188 0014 0023     		movs	r3, #0
ARM GAS  C:\Users\RECEPC~1\AppData\Local\Temp\ccNQP0pp.s 			page 72


 3189 0016 FB77     		strb	r3, [r7, #31]
 852:.\PrimeImpl.c ****         PUARTMESSAGEPTR puartdisp = GetUARTMessageSlot(UART_DISPENSER);
 3190              		.loc 1 852 0
 3191 0018 A220     		movs	r0, #162
 3192 001a FFF7FEFF 		bl	GetUARTMessageSlot
 3193 001e 7861     		str	r0, [r7, #20]
 853:.\PrimeImpl.c ****         memset(ppump->_rxbuffer, 0x00, _PUMP_RX_BUFFER_SIZE_);
 3194              		.loc 1 853 0
 3195 0020 BB69     		ldr	r3, [r7, #24]
 3196 0022 03F5C473 		add	r3, r3, #392
 3197 0026 1846     		mov	r0, r3
 3198 0028 0021     		movs	r1, #0
 3199 002a 4FF4B472 		mov	r2, #360
 3200 002e FFF7FEFF 		bl	memset
 854:.\PrimeImpl.c ****         if(puartdisp)
 3201              		.loc 1 854 0
 3202 0032 7B69     		ldr	r3, [r7, #20]
 3203 0034 002B     		cmp	r3, #0
 3204 0036 00F08580 		beq	.L117
 3205              	.LBB17:
 855:.\PrimeImpl.c ****         {
 856:.\PrimeImpl.c **** ///////////////////////////////////////////////////////////////////////////////////////////////////
 857:.\PrimeImpl.c ****             puartdisp->_messagetx[index++] = SOM;
 3206              		.loc 1 857 0
 3207 003a FB7F     		ldrb	r3, [r7, #31]	@ zero_extendqisi2
 3208 003c 5A1C     		adds	r2, r3, #1
 3209 003e FA77     		strb	r2, [r7, #31]
 3210 0040 1A46     		mov	r2, r3
 3211 0042 7B69     		ldr	r3, [r7, #20]
 3212 0044 1344     		add	r3, r3, r2
 3213 0046 FF22     		movs	r2, #255
 3214 0048 1A71     		strb	r2, [r3, #4]
 858:.\PrimeImpl.c ****             
 859:.\PrimeImpl.c ****             #ifndef PRIME_CASH_SALE_NOHOSE
 860:.\PrimeImpl.c ****             puartdisp->_messagetx[index++] = 0xE1;
 861:.\PrimeImpl.c ****             #endif
 862:.\PrimeImpl.c ****             #ifdef PRIME_CASH_SALE_NOHOSE
 863:.\PrimeImpl.c ****             puartdisp->_messagetx[index++] = 0xE3;
 3215              		.loc 1 863 0
 3216 004a FB7F     		ldrb	r3, [r7, #31]	@ zero_extendqisi2
 3217 004c 5A1C     		adds	r2, r3, #1
 3218 004e FA77     		strb	r2, [r7, #31]
 3219 0050 1A46     		mov	r2, r3
 3220 0052 7B69     		ldr	r3, [r7, #20]
 3221 0054 1344     		add	r3, r3, r2
 3222 0056 E322     		movs	r2, #227
 3223 0058 1A71     		strb	r2, [r3, #4]
 864:.\PrimeImpl.c ****             #endif
 865:.\PrimeImpl.c ****             
 866:.\PrimeImpl.c ****             ///THIS IS AN APPLIED CONVENTION ===>> 0x0004 INDEX POSITION WITHIN THE PUMP'S BUFFER P
 867:.\PrimeImpl.c ****             ///THESE CODES MUST BE MATCHED OTHERWISE THE LOGIC WILL BREAKUP THE CODE!
 868:.\PrimeImpl.c ****             uint8 transtype = (0xF0 | ((ppump->_trasactionbuffer[0x0004] == 0x0F)? 0x02: 0x01));//p
 3224              		.loc 1 868 0
 3225 005a BB69     		ldr	r3, [r7, #24]
 3226 005c 93F82430 		ldrb	r3, [r3, #36]	@ zero_extendqisi2
 3227 0060 0F2B     		cmp	r3, #15
 3228 0062 01D1     		bne	.L119
ARM GAS  C:\Users\RECEPC~1\AppData\Local\Temp\ccNQP0pp.s 			page 73


 3229              		.loc 1 868 0 is_stmt 0 discriminator 1
 3230 0064 F223     		movs	r3, #242
 3231 0066 00E0     		b	.L120
 3232              	.L119:
 3233              		.loc 1 868 0 discriminator 2
 3234 0068 F123     		movs	r3, #241
 3235              	.L120:
 3236              		.loc 1 868 0 discriminator 4
 3237 006a FB74     		strb	r3, [r7, #19]
 869:.\PrimeImpl.c ****             puartdisp->_messagetx[index++] = transtype;
 3238              		.loc 1 869 0 is_stmt 1 discriminator 4
 3239 006c FB7F     		ldrb	r3, [r7, #31]	@ zero_extendqisi2
 3240 006e 5A1C     		adds	r2, r3, #1
 3241 0070 FA77     		strb	r2, [r7, #31]
 3242 0072 1A46     		mov	r2, r3
 3243 0074 7B69     		ldr	r3, [r7, #20]
 3244 0076 1344     		add	r3, r3, r2
 3245 0078 FA7C     		ldrb	r2, [r7, #19]
 3246 007a 1A71     		strb	r2, [r3, #4]
 870:.\PrimeImpl.c ****             
 871:.\PrimeImpl.c ****             #ifndef PRIME_CASH_SALE_NOHOSE
 872:.\PrimeImpl.c ****             puartdisp->_messagetx[index++] = 0xF6; //Hose Data next
 873:.\PrimeImpl.c ****             ///THIS IS AN APPLIED CONVENTION ===>> 0x0006 INDEX POSITION WITHIN THE PUMP'S BUFFER P
 874:.\PrimeImpl.c ****             ///THESE CODES MUST BE MATCHED OTHERWISE THE LOGIC WILL BREAKUP THE CODE!
 875:.\PrimeImpl.c ****             puartdisp->_messagetx[index++] = (0xE0 | (0x0F & ppump->_trasactionbuffer[GetBufferInde
 876:.\PrimeImpl.c ****             #endif
 877:.\PrimeImpl.c ****             
 878:.\PrimeImpl.c ****             puartdisp->_messagetx[index++] = 0xF8; //Preset Data next
 3247              		.loc 1 878 0 discriminator 4
 3248 007c FB7F     		ldrb	r3, [r7, #31]	@ zero_extendqisi2
 3249 007e 5A1C     		adds	r2, r3, #1
 3250 0080 FA77     		strb	r2, [r7, #31]
 3251 0082 1A46     		mov	r2, r3
 3252 0084 7B69     		ldr	r3, [r7, #20]
 3253 0086 1344     		add	r3, r3, r2
 3254 0088 F822     		movs	r2, #248
 3255 008a 1A71     		strb	r2, [r3, #4]
 879:.\PrimeImpl.c ****             //Here we copy the remaining 8 bytes for the preset value
 880:.\PrimeImpl.c ****             ///THIS IS AN APPLIED CONVENTION ===>> 0x0008 INDEX POSITION WITHIN THE PUMP'S BUFFER P
 881:.\PrimeImpl.c ****             ///THESE CODES MUST BE MATCHED OTHERWISE THE LOGIC WILL BREAKUP THE CODE!
 882:.\PrimeImpl.c ****             char8 *ptr = &ppump->_trasactionbuffer[0x0008];
 3256              		.loc 1 882 0 discriminator 4
 3257 008c BB69     		ldr	r3, [r7, #24]
 3258 008e 2833     		adds	r3, r3, #40
 3259 0090 FB60     		str	r3, [r7, #12]
 883:.\PrimeImpl.c ****             if(!ppump->_presetdone)
 3260              		.loc 1 883 0 discriminator 4
 3261 0092 BB69     		ldr	r3, [r7, #24]
 3262 0094 9B7A     		ldrb	r3, [r3, #10]
 3263 0096 DBB2     		uxtb	r3, r3
 3264 0098 83F00103 		eor	r3, r3, #1
 3265 009c DBB2     		uxtb	r3, r3
 3266 009e 002B     		cmp	r3, #0
 3267 00a0 0BD0     		beq	.L121
 884:.\PrimeImpl.c ****             {
 885:.\PrimeImpl.c ****                 if(transtype == 0xF1) //Volume PRESET, then multiply by 1000
 3268              		.loc 1 885 0
ARM GAS  C:\Users\RECEPC~1\AppData\Local\Temp\ccNQP0pp.s 			page 74


 3269 00a2 FB7C     		ldrb	r3, [r7, #19]	@ zero_extendqisi2
 3270 00a4 F12B     		cmp	r3, #241
 3271 00a6 04D1     		bne	.L122
 886:.\PrimeImpl.c ****                     CastVolumeValue(ptr, 0x08);
 3272              		.loc 1 886 0
 3273 00a8 F868     		ldr	r0, [r7, #12]
 3274 00aa 0821     		movs	r1, #8
 3275 00ac FFF7FEFF 		bl	CastVolumeValue
 3276 00b0 03E0     		b	.L121
 3277              	.L122:
 887:.\PrimeImpl.c ****                 else
 888:.\PrimeImpl.c ****                     CastMoneyValue(ptr, 0x08);
 3278              		.loc 1 888 0
 3279 00b2 F868     		ldr	r0, [r7, #12]
 3280 00b4 0821     		movs	r1, #8
 3281 00b6 FFF7FEFF 		bl	CastMoneyValue
 3282              	.L121:
 889:.\PrimeImpl.c ****                     
 890:.\PrimeImpl.c ****             }
 891:.\PrimeImpl.c ****             ppump->_presetdone = true;
 3283              		.loc 1 891 0
 3284 00ba BB69     		ldr	r3, [r7, #24]
 3285 00bc 0122     		movs	r2, #1
 3286 00be 9A72     		strb	r2, [r3, #10]
 892:.\PrimeImpl.c ****                 
 893:.\PrimeImpl.c ****             FOR(uint8 buffndx = 0, buffndx < 0x08, buffndx++)
 3287              		.loc 1 893 0
 3288 00c0 0023     		movs	r3, #0
 3289 00c2 BB77     		strb	r3, [r7, #30]
 3290 00c4 16E0     		b	.L123
 3291              	.L124:
 894:.\PrimeImpl.c ****                 puartdisp->_messagetx[index++] = (0xE0 | (0x0F & ptr[7 - buffndx])); //Translate fr
 3292              		.loc 1 894 0 discriminator 3
 3293 00c6 FB7F     		ldrb	r3, [r7, #31]	@ zero_extendqisi2
 3294 00c8 5A1C     		adds	r2, r3, #1
 3295 00ca FA77     		strb	r2, [r7, #31]
 3296 00cc 1946     		mov	r1, r3
 3297 00ce BB7F     		ldrb	r3, [r7, #30]	@ zero_extendqisi2
 3298 00d0 C3F10703 		rsb	r3, r3, #7
 3299 00d4 1A46     		mov	r2, r3
 3300 00d6 FB68     		ldr	r3, [r7, #12]
 3301 00d8 1344     		add	r3, r3, r2
 3302 00da 1B78     		ldrb	r3, [r3]	@ zero_extendqisi2
 3303 00dc 03F00F03 		and	r3, r3, #15
 3304 00e0 DBB2     		uxtb	r3, r3
 3305 00e2 63F01F03 		orn	r3, r3, #31
 3306 00e6 DAB2     		uxtb	r2, r3
 3307 00e8 7B69     		ldr	r3, [r7, #20]
 3308 00ea 0B44     		add	r3, r3, r1
 3309 00ec 1A71     		strb	r2, [r3, #4]
 893:.\PrimeImpl.c ****                 puartdisp->_messagetx[index++] = (0xE0 | (0x0F & ptr[7 - buffndx])); //Translate fr
 3310              		.loc 1 893 0 discriminator 3
 3311 00ee BB7F     		ldrb	r3, [r7, #30]	@ zero_extendqisi2
 3312 00f0 0133     		adds	r3, r3, #1
 3313 00f2 BB77     		strb	r3, [r7, #30]
 3314              	.L123:
 893:.\PrimeImpl.c ****                 puartdisp->_messagetx[index++] = (0xE0 | (0x0F & ptr[7 - buffndx])); //Translate fr
ARM GAS  C:\Users\RECEPC~1\AppData\Local\Temp\ccNQP0pp.s 			page 75


 3315              		.loc 1 893 0 is_stmt 0 discriminator 1
 3316 00f4 BB7F     		ldrb	r3, [r7, #30]	@ zero_extendqisi2
 3317 00f6 072B     		cmp	r3, #7
 3318 00f8 E5D9     		bls	.L124
 895:.\PrimeImpl.c ****                 
 896:.\PrimeImpl.c ****             puartdisp->_messagetx[index++] = LRCn; //LRC next
 3319              		.loc 1 896 0 is_stmt 1
 3320 00fa FB7F     		ldrb	r3, [r7, #31]	@ zero_extendqisi2
 3321 00fc 5A1C     		adds	r2, r3, #1
 3322 00fe FA77     		strb	r2, [r7, #31]
 3323 0100 1A46     		mov	r2, r3
 3324 0102 7B69     		ldr	r3, [r7, #20]
 3325 0104 1344     		add	r3, r3, r2
 3326 0106 FB22     		movs	r2, #251
 3327 0108 1A71     		strb	r2, [r3, #4]
 897:.\PrimeImpl.c ****             puartdisp->_messagetx[index++] = GetLRC(puartdisp->_messagetx);
 3328              		.loc 1 897 0
 3329 010a FB7F     		ldrb	r3, [r7, #31]	@ zero_extendqisi2
 3330 010c 5A1C     		adds	r2, r3, #1
 3331 010e FA77     		strb	r2, [r7, #31]
 3332 0110 1C46     		mov	r4, r3
 3333 0112 7B69     		ldr	r3, [r7, #20]
 3334 0114 0433     		adds	r3, r3, #4
 3335 0116 1846     		mov	r0, r3
 3336 0118 FFF7FEFF 		bl	GetLRC
 3337 011c 0346     		mov	r3, r0
 3338 011e 1A46     		mov	r2, r3
 3339 0120 7B69     		ldr	r3, [r7, #20]
 3340 0122 2344     		add	r3, r3, r4
 3341 0124 1A71     		strb	r2, [r3, #4]
 898:.\PrimeImpl.c ****             puartdisp->_messagetx[index++] = EOM;
 3342              		.loc 1 898 0
 3343 0126 FB7F     		ldrb	r3, [r7, #31]	@ zero_extendqisi2
 3344 0128 5A1C     		adds	r2, r3, #1
 3345 012a FA77     		strb	r2, [r7, #31]
 3346 012c 1A46     		mov	r2, r3
 3347 012e 7B69     		ldr	r3, [r7, #20]
 3348 0130 1344     		add	r3, r3, r2
 3349 0132 F022     		movs	r2, #240
 3350 0134 1A71     		strb	r2, [r3, #4]
 899:.\PrimeImpl.c **** ///////////////////////////////////////////////////////////////////////////////////////////////////
 900:.\PrimeImpl.c ****             
 901:.\PrimeImpl.c ****             puartdisp->_messagelength = index;
 3351              		.loc 1 901 0
 3352 0136 FB7F     		ldrb	r3, [r7, #31]	@ zero_extendqisi2
 3353 0138 9AB2     		uxth	r2, r3
 3354 013a 7B69     		ldr	r3, [r7, #20]
 3355 013c 5A80     		strh	r2, [r3, #2]	@ movhi
 902:.\PrimeImpl.c ****             puartdisp->_messagestate = PENDING;
 3356              		.loc 1 902 0
 3357 013e 7B69     		ldr	r3, [r7, #20]
 3358 0140 C222     		movs	r2, #194
 3359 0142 1A70     		strb	r2, [r3]
 3360              	.L117:
 3361              	.LBE17:
 3362              	.LBE16:
 903:.\PrimeImpl.c ****         }
ARM GAS  C:\Users\RECEPC~1\AppData\Local\Temp\ccNQP0pp.s 			page 76


 904:.\PrimeImpl.c ****     }
 905:.\PrimeImpl.c ****     
 906:.\PrimeImpl.c **** }
 3363              		.loc 1 906 0
 3364 0144 2437     		adds	r7, r7, #36
 3365              		.cfi_def_cfa_offset 12
 3366 0146 BD46     		mov	sp, r7
 3367              		.cfi_def_cfa_register 13
 3368              		@ sp needed
 3369 0148 90BD     		pop	{r4, r7, pc}
 3370              		.cfi_endproc
 3371              	.LFE83:
 3372              		.size	PumpPresetHose, .-PumpPresetHose
 3373 014a 00BF     		.section	.text.PumpCreditPresetHose,"ax",%progbits
 3374              		.align	2
 3375              		.global	PumpCreditPresetHose
 3376              		.thumb
 3377              		.thumb_func
 3378              		.type	PumpCreditPresetHose, %function
 3379              	PumpCreditPresetHose:
 3380              	.LFB84:
 907:.\PrimeImpl.c **** 
 908:.\PrimeImpl.c **** //@Created By: HIJH
 909:.\PrimeImpl.c **** //@Septembre de 2016
 910:.\PrimeImpl.c **** ///////////////////////////////////////////////////////////////////////////////////////////////////
 911:.\PrimeImpl.c **** //This preset is a convention that applies to "Credit Transactions"
 912:.\PrimeImpl.c **** //The pump will hold all the necessary information for the preset.
 913:.\PrimeImpl.c **** //For this message the data comes as follows:
 914:.\PrimeImpl.c **** void PumpCreditPresetHose(void *pparam)
 915:.\PrimeImpl.c **** {
 3381              		.loc 1 915 0
 3382              		.cfi_startproc
 3383              		@ args = 0, pretend = 0, frame = 32
 3384              		@ frame_needed = 1, uses_anonymous_args = 0
 3385 0000 90B5     		push	{r4, r7, lr}
 3386              		.cfi_def_cfa_offset 12
 3387              		.cfi_offset 4, -12
 3388              		.cfi_offset 7, -8
 3389              		.cfi_offset 14, -4
 3390 0002 89B0     		sub	sp, sp, #36
 3391              		.cfi_def_cfa_offset 48
 3392 0004 00AF     		add	r7, sp, #0
 3393              		.cfi_def_cfa_register 7
 3394 0006 7860     		str	r0, [r7, #4]
 916:.\PrimeImpl.c ****     PNEAR_PUMPPTR ppump = (PNEAR_PUMPPTR)pparam;
 3395              		.loc 1 916 0
 3396 0008 7B68     		ldr	r3, [r7, #4]
 3397 000a BB61     		str	r3, [r7, #24]
 917:.\PrimeImpl.c ****     if(ppump)
 3398              		.loc 1 917 0
 3399 000c BB69     		ldr	r3, [r7, #24]
 3400 000e 002B     		cmp	r3, #0
 3401 0010 00F0A380 		beq	.L125
 3402              	.LBB18:
 918:.\PrimeImpl.c ****     {
 919:.\PrimeImpl.c ****         uint8_t index = 0;        
 3403              		.loc 1 919 0
ARM GAS  C:\Users\RECEPC~1\AppData\Local\Temp\ccNQP0pp.s 			page 77


 3404 0014 0023     		movs	r3, #0
 3405 0016 FB77     		strb	r3, [r7, #31]
 920:.\PrimeImpl.c ****         PUARTMESSAGEPTR puartdisp = GetUARTMessageSlot(UART_DISPENSER);
 3406              		.loc 1 920 0
 3407 0018 A220     		movs	r0, #162
 3408 001a FFF7FEFF 		bl	GetUARTMessageSlot
 3409 001e 7861     		str	r0, [r7, #20]
 921:.\PrimeImpl.c ****         memset(ppump->_rxbuffer, 0x00, _PUMP_RX_BUFFER_SIZE_);
 3410              		.loc 1 921 0
 3411 0020 BB69     		ldr	r3, [r7, #24]
 3412 0022 03F5C473 		add	r3, r3, #392
 3413 0026 1846     		mov	r0, r3
 3414 0028 0021     		movs	r1, #0
 3415 002a 4FF4B472 		mov	r2, #360
 3416 002e FFF7FEFF 		bl	memset
 922:.\PrimeImpl.c ****         if(puartdisp)
 3417              		.loc 1 922 0
 3418 0032 7B69     		ldr	r3, [r7, #20]
 3419 0034 002B     		cmp	r3, #0
 3420 0036 00F09080 		beq	.L125
 3421              	.LBB19:
 923:.\PrimeImpl.c ****         {
 924:.\PrimeImpl.c **** ///////////////////////////////////////////////////////////////////////////////////////////////////
 925:.\PrimeImpl.c ****             puartdisp->_messagetx[index++] = SOM;
 3422              		.loc 1 925 0
 3423 003a FB7F     		ldrb	r3, [r7, #31]	@ zero_extendqisi2
 3424 003c 5A1C     		adds	r2, r3, #1
 3425 003e FA77     		strb	r2, [r7, #31]
 3426 0040 1A46     		mov	r2, r3
 3427 0042 7B69     		ldr	r3, [r7, #20]
 3428 0044 1344     		add	r3, r3, r2
 3429 0046 FF22     		movs	r2, #255
 3430 0048 1A71     		strb	r2, [r3, #4]
 926:.\PrimeImpl.c ****             #ifdef PRIME_CREDIT_SALE_NOHOSE
 927:.\PrimeImpl.c ****             puartdisp->_messagetx[index++] = 0xE3;
 3431              		.loc 1 927 0
 3432 004a FB7F     		ldrb	r3, [r7, #31]	@ zero_extendqisi2
 3433 004c 5A1C     		adds	r2, r3, #1
 3434 004e FA77     		strb	r2, [r7, #31]
 3435 0050 1A46     		mov	r2, r3
 3436 0052 7B69     		ldr	r3, [r7, #20]
 3437 0054 1344     		add	r3, r3, r2
 3438 0056 E322     		movs	r2, #227
 3439 0058 1A71     		strb	r2, [r3, #4]
 928:.\PrimeImpl.c ****             #endif
 929:.\PrimeImpl.c ****             #ifndef PRIME_CREDIT_SALE_NOHOSE
 930:.\PrimeImpl.c ****             puartdisp->_messagetx[index++] = 0xE1; //Data Length (n = 1 if F4/F5 are not included)
 931:.\PrimeImpl.c ****             #endif
 932:.\PrimeImpl.c **** 
 933:.\PrimeImpl.c ****             ///THIS IS AN APPLIED CONVENTION ===>> 0x0004 INDEX POSITION WITHIN THE PUMP'S BUFFER P
 934:.\PrimeImpl.c ****             ///THESE CODES MUST BE MATCHED OTHERWISE THE LOGIC WILL BREAKUP THE CODE!
 935:.\PrimeImpl.c ****             uint8 transtype = 0xF2;//preset type (0xF2 = Money, 0xF1 = Volume)
 3440              		.loc 1 935 0
 3441 005a F223     		movs	r3, #242
 3442 005c FB74     		strb	r3, [r7, #19]
 936:.\PrimeImpl.c ****             puartdisp->_messagetx[index++] = transtype;
 3443              		.loc 1 936 0
ARM GAS  C:\Users\RECEPC~1\AppData\Local\Temp\ccNQP0pp.s 			page 78


 3444 005e FB7F     		ldrb	r3, [r7, #31]	@ zero_extendqisi2
 3445 0060 5A1C     		adds	r2, r3, #1
 3446 0062 FA77     		strb	r2, [r7, #31]
 3447 0064 1A46     		mov	r2, r3
 3448 0066 7B69     		ldr	r3, [r7, #20]
 3449 0068 1344     		add	r3, r3, r2
 3450 006a FA7C     		ldrb	r2, [r7, #19]
 3451 006c 1A71     		strb	r2, [r3, #4]
 937:.\PrimeImpl.c ****             #ifndef PRIME_CREDIT_SALE_NOHOSE
 938:.\PrimeImpl.c ****             puartdisp->_messagetx[index++] = 0xF6; //Hose Data next
 939:.\PrimeImpl.c ****             ///THIS IS AN APPLIED CONVENTION ===>> 0x0006 INDEX POSITION WITHIN THE PUMP'S BUFFER P
 940:.\PrimeImpl.c ****             ///THESE CODES MUST BE MATCHED OTHERWISE THE LOGIC WILL BREAKUP THE CODE!
 941:.\PrimeImpl.c ****             puartdisp->_messagetx[index++] = (0xE0 | ppump->_authorizationinfo._hoseid);
 942:.\PrimeImpl.c ****             #endif
 943:.\PrimeImpl.c ****             
 944:.\PrimeImpl.c ****             puartdisp->_messagetx[index++] = 0xF8; //Preset Data next
 3452              		.loc 1 944 0
 3453 006e FB7F     		ldrb	r3, [r7, #31]	@ zero_extendqisi2
 3454 0070 5A1C     		adds	r2, r3, #1
 3455 0072 FA77     		strb	r2, [r7, #31]
 3456 0074 1A46     		mov	r2, r3
 3457 0076 7B69     		ldr	r3, [r7, #20]
 3458 0078 1344     		add	r3, r3, r2
 3459 007a F822     		movs	r2, #248
 3460 007c 1A71     		strb	r2, [r3, #4]
 945:.\PrimeImpl.c ****             //Here we copy the remaining 8 bytes for the preset value
 946:.\PrimeImpl.c ****             ///THIS IS AN APPLIED CONVENTION ===>> 0x0008 INDEX POSITION WITHIN THE PUMP'S BUFFER P
 947:.\PrimeImpl.c ****             ///THESE CODES MUST BE MATCHED OTHERWISE THE LOGIC WILL BREAKUP THE CODE!
 948:.\PrimeImpl.c ****             memset(PBYTECAST(&ppump->_trasactionbuffer[0x0008]),0x00, 0x0008);
 3461              		.loc 1 948 0
 3462 007e BB69     		ldr	r3, [r7, #24]
 3463 0080 2833     		adds	r3, r3, #40
 3464 0082 1846     		mov	r0, r3
 3465 0084 0021     		movs	r1, #0
 3466 0086 0822     		movs	r2, #8
 3467 0088 FFF7FEFF 		bl	memset
 949:.\PrimeImpl.c ****             B78AD90CF552D9B30A(ppump->_authorizationinfo._presetamount, PBYTECAST(&ppump->_trasacti
 3468              		.loc 1 949 0
 3469 008c BB69     		ldr	r3, [r7, #24]
 3470 008e D3F87839 		ldr	r3, [r3, #2424]
 3471 0092 1A46     		mov	r2, r3
 3472 0094 4FF00003 		mov	r3, #0
 3473 0098 B969     		ldr	r1, [r7, #24]
 3474 009a 01F12804 		add	r4, r1, #40
 3475 009e 1046     		mov	r0, r2
 3476 00a0 1946     		mov	r1, r3
 3477 00a2 2246     		mov	r2, r4
 3478 00a4 FFF7FEFF 		bl	B78AD90CF552D9B30A
 950:.\PrimeImpl.c ****             
 951:.\PrimeImpl.c ****             char8 *ptr = &ppump->_trasactionbuffer[0x0008];
 3479              		.loc 1 951 0
 3480 00a8 BB69     		ldr	r3, [r7, #24]
 3481 00aa 2833     		adds	r3, r3, #40
 3482 00ac FB60     		str	r3, [r7, #12]
 952:.\PrimeImpl.c ****             PSTRBUFFTOGG(PBYTECAST(ptr), 0x08);
 3483              		.loc 1 952 0
 3484 00ae F868     		ldr	r0, [r7, #12]
ARM GAS  C:\Users\RECEPC~1\AppData\Local\Temp\ccNQP0pp.s 			page 79


 3485 00b0 0821     		movs	r1, #8
 3486 00b2 FFF7FEFF 		bl	PSTRBUFFTOGG
 953:.\PrimeImpl.c ****             if(transtype == 0xF1) //Volume PRESET, then multiply by 1000
 3487              		.loc 1 953 0
 3488 00b6 FB7C     		ldrb	r3, [r7, #19]	@ zero_extendqisi2
 3489 00b8 F12B     		cmp	r3, #241
 3490 00ba 04D1     		bne	.L127
 954:.\PrimeImpl.c ****                 CastVolumeValue(ptr, 0x08);
 3491              		.loc 1 954 0
 3492 00bc F868     		ldr	r0, [r7, #12]
 3493 00be 0821     		movs	r1, #8
 3494 00c0 FFF7FEFF 		bl	CastVolumeValue
 3495 00c4 03E0     		b	.L128
 3496              	.L127:
 955:.\PrimeImpl.c ****             else
 956:.\PrimeImpl.c ****                 CastMoneyValue(ptr, 0x08);
 3497              		.loc 1 956 0
 3498 00c6 F868     		ldr	r0, [r7, #12]
 3499 00c8 0821     		movs	r1, #8
 3500 00ca FFF7FEFF 		bl	CastMoneyValue
 3501              	.L128:
 957:.\PrimeImpl.c ****             
 958:.\PrimeImpl.c ****             PSTRBUFFTOGG(PBYTECAST(ptr), 0x08);
 3502              		.loc 1 958 0
 3503 00ce F868     		ldr	r0, [r7, #12]
 3504 00d0 0821     		movs	r1, #8
 3505 00d2 FFF7FEFF 		bl	PSTRBUFFTOGG
 959:.\PrimeImpl.c ****             FOR(uint8 buffndx = 0, buffndx < 8, buffndx++)
 3506              		.loc 1 959 0
 3507 00d6 0023     		movs	r3, #0
 3508 00d8 BB77     		strb	r3, [r7, #30]
 3509 00da 13E0     		b	.L129
 3510              	.L130:
 960:.\PrimeImpl.c ****                 puartdisp->_messagetx[index++] = (0xE0 | (0x0F & ptr[buffndx])); //Translate from A
 3511              		.loc 1 960 0 discriminator 3
 3512 00dc FB7F     		ldrb	r3, [r7, #31]	@ zero_extendqisi2
 3513 00de 5A1C     		adds	r2, r3, #1
 3514 00e0 FA77     		strb	r2, [r7, #31]
 3515 00e2 1946     		mov	r1, r3
 3516 00e4 BB7F     		ldrb	r3, [r7, #30]	@ zero_extendqisi2
 3517 00e6 FA68     		ldr	r2, [r7, #12]
 3518 00e8 1344     		add	r3, r3, r2
 3519 00ea 1B78     		ldrb	r3, [r3]	@ zero_extendqisi2
 3520 00ec 03F00F03 		and	r3, r3, #15
 3521 00f0 DBB2     		uxtb	r3, r3
 3522 00f2 63F01F03 		orn	r3, r3, #31
 3523 00f6 DAB2     		uxtb	r2, r3
 3524 00f8 7B69     		ldr	r3, [r7, #20]
 3525 00fa 0B44     		add	r3, r3, r1
 3526 00fc 1A71     		strb	r2, [r3, #4]
 959:.\PrimeImpl.c ****             FOR(uint8 buffndx = 0, buffndx < 8, buffndx++)
 3527              		.loc 1 959 0 discriminator 3
 3528 00fe BB7F     		ldrb	r3, [r7, #30]	@ zero_extendqisi2
 3529 0100 0133     		adds	r3, r3, #1
 3530 0102 BB77     		strb	r3, [r7, #30]
 3531              	.L129:
 959:.\PrimeImpl.c ****             FOR(uint8 buffndx = 0, buffndx < 8, buffndx++)
ARM GAS  C:\Users\RECEPC~1\AppData\Local\Temp\ccNQP0pp.s 			page 80


 3532              		.loc 1 959 0 is_stmt 0 discriminator 1
 3533 0104 BB7F     		ldrb	r3, [r7, #30]	@ zero_extendqisi2
 3534 0106 072B     		cmp	r3, #7
 3535 0108 E8D9     		bls	.L130
 961:.\PrimeImpl.c **** 
 962:.\PrimeImpl.c ****             ppump->_presetdone = true;
 3536              		.loc 1 962 0 is_stmt 1
 3537 010a BB69     		ldr	r3, [r7, #24]
 3538 010c 0122     		movs	r2, #1
 3539 010e 9A72     		strb	r2, [r3, #10]
 963:.\PrimeImpl.c **** 
 964:.\PrimeImpl.c ****             puartdisp->_messagetx[index++] = LRCn; //LRC next
 3540              		.loc 1 964 0
 3541 0110 FB7F     		ldrb	r3, [r7, #31]	@ zero_extendqisi2
 3542 0112 5A1C     		adds	r2, r3, #1
 3543 0114 FA77     		strb	r2, [r7, #31]
 3544 0116 1A46     		mov	r2, r3
 3545 0118 7B69     		ldr	r3, [r7, #20]
 3546 011a 1344     		add	r3, r3, r2
 3547 011c FB22     		movs	r2, #251
 3548 011e 1A71     		strb	r2, [r3, #4]
 965:.\PrimeImpl.c ****             puartdisp->_messagetx[index++] = GetLRC(puartdisp->_messagetx);
 3549              		.loc 1 965 0
 3550 0120 FB7F     		ldrb	r3, [r7, #31]	@ zero_extendqisi2
 3551 0122 5A1C     		adds	r2, r3, #1
 3552 0124 FA77     		strb	r2, [r7, #31]
 3553 0126 1C46     		mov	r4, r3
 3554 0128 7B69     		ldr	r3, [r7, #20]
 3555 012a 0433     		adds	r3, r3, #4
 3556 012c 1846     		mov	r0, r3
 3557 012e FFF7FEFF 		bl	GetLRC
 3558 0132 0346     		mov	r3, r0
 3559 0134 1A46     		mov	r2, r3
 3560 0136 7B69     		ldr	r3, [r7, #20]
 3561 0138 2344     		add	r3, r3, r4
 3562 013a 1A71     		strb	r2, [r3, #4]
 966:.\PrimeImpl.c ****             puartdisp->_messagetx[index++] = EOM;
 3563              		.loc 1 966 0
 3564 013c FB7F     		ldrb	r3, [r7, #31]	@ zero_extendqisi2
 3565 013e 5A1C     		adds	r2, r3, #1
 3566 0140 FA77     		strb	r2, [r7, #31]
 3567 0142 1A46     		mov	r2, r3
 3568 0144 7B69     		ldr	r3, [r7, #20]
 3569 0146 1344     		add	r3, r3, r2
 3570 0148 F022     		movs	r2, #240
 3571 014a 1A71     		strb	r2, [r3, #4]
 967:.\PrimeImpl.c **** ///////////////////////////////////////////////////////////////////////////////////////////////////
 968:.\PrimeImpl.c ****             
 969:.\PrimeImpl.c ****             puartdisp->_messagelength = index;
 3572              		.loc 1 969 0
 3573 014c FB7F     		ldrb	r3, [r7, #31]	@ zero_extendqisi2
 3574 014e 9AB2     		uxth	r2, r3
 3575 0150 7B69     		ldr	r3, [r7, #20]
 3576 0152 5A80     		strh	r2, [r3, #2]	@ movhi
 970:.\PrimeImpl.c ****             puartdisp->_messagestate = PENDING;
 3577              		.loc 1 970 0
 3578 0154 7B69     		ldr	r3, [r7, #20]
ARM GAS  C:\Users\RECEPC~1\AppData\Local\Temp\ccNQP0pp.s 			page 81


 3579 0156 C222     		movs	r2, #194
 3580 0158 1A70     		strb	r2, [r3]
 3581              	.L125:
 3582              	.LBE19:
 3583              	.LBE18:
 971:.\PrimeImpl.c ****         }
 972:.\PrimeImpl.c ****     }
 973:.\PrimeImpl.c ****     
 974:.\PrimeImpl.c **** }
 3584              		.loc 1 974 0
 3585 015a 2437     		adds	r7, r7, #36
 3586              		.cfi_def_cfa_offset 12
 3587 015c BD46     		mov	sp, r7
 3588              		.cfi_def_cfa_register 13
 3589              		@ sp needed
 3590 015e 90BD     		pop	{r4, r7, pc}
 3591              		.cfi_endproc
 3592              	.LFE84:
 3593              		.size	PumpCreditPresetHose, .-PumpCreditPresetHose
 3594              		.section	.text.PumpPresetNoHose,"ax",%progbits
 3595              		.align	2
 3596              		.global	PumpPresetNoHose
 3597              		.thumb
 3598              		.thumb_func
 3599              		.type	PumpPresetNoHose, %function
 3600              	PumpPresetNoHose:
 3601              	.LFB85:
 975:.\PrimeImpl.c **** 
 976:.\PrimeImpl.c **** //@Created By: HIJH
 977:.\PrimeImpl.c **** //@Septembre de 2016
 978:.\PrimeImpl.c **** ///////////////////////////////////////////////////////////////////////////////////////////////////
 979:.\PrimeImpl.c **** //Preset values will be placed within the SinkMessage's buffer. This is a convention that applies t
 980:.\PrimeImpl.c **** //all of the available transactions. The pump function must deal with this while it is assembling t
 981:.\PrimeImpl.c **** //For this message the data comes as follows:
 982:.\PrimeImpl.c **** // - First byte is the preset type (Volume:1 / Money:2 )
 983:.\PrimeImpl.c **** // - Block of 8 bytes for the preset value
 984:.\PrimeImpl.c **** //This block of data (10 bytes) must be moved to another position within the same buffer (even posi
 985:.\PrimeImpl.c **** void PumpPresetNoHose(void *pparam)
 986:.\PrimeImpl.c **** {
 3602              		.loc 1 986 0
 3603              		.cfi_startproc
 3604              		@ args = 0, pretend = 0, frame = 32
 3605              		@ frame_needed = 1, uses_anonymous_args = 0
 3606 0000 90B5     		push	{r4, r7, lr}
 3607              		.cfi_def_cfa_offset 12
 3608              		.cfi_offset 4, -12
 3609              		.cfi_offset 7, -8
 3610              		.cfi_offset 14, -4
 3611 0002 89B0     		sub	sp, sp, #36
 3612              		.cfi_def_cfa_offset 48
 3613 0004 00AF     		add	r7, sp, #0
 3614              		.cfi_def_cfa_register 7
 3615 0006 7860     		str	r0, [r7, #4]
 987:.\PrimeImpl.c ****     PNEAR_PUMPPTR ppump = (PNEAR_PUMPPTR)pparam;
 3616              		.loc 1 987 0
 3617 0008 7B68     		ldr	r3, [r7, #4]
 3618 000a BB61     		str	r3, [r7, #24]
ARM GAS  C:\Users\RECEPC~1\AppData\Local\Temp\ccNQP0pp.s 			page 82


 988:.\PrimeImpl.c ****     if(ppump)
 3619              		.loc 1 988 0
 3620 000c BB69     		ldr	r3, [r7, #24]
 3621 000e 002B     		cmp	r3, #0
 3622 0010 00F09A80 		beq	.L131
 3623              	.LBB20:
 989:.\PrimeImpl.c ****     {
 990:.\PrimeImpl.c ****         uint8_t index = 0;
 3624              		.loc 1 990 0
 3625 0014 0023     		movs	r3, #0
 3626 0016 FB77     		strb	r3, [r7, #31]
 991:.\PrimeImpl.c ****         memset(ppump->_rxbuffer, 0x00, _PUMP_RX_BUFFER_SIZE_);
 3627              		.loc 1 991 0
 3628 0018 BB69     		ldr	r3, [r7, #24]
 3629 001a 03F5C473 		add	r3, r3, #392
 3630 001e 1846     		mov	r0, r3
 3631 0020 0021     		movs	r1, #0
 3632 0022 4FF4B472 		mov	r2, #360
 3633 0026 FFF7FEFF 		bl	memset
 992:.\PrimeImpl.c ****         PUARTMESSAGEPTR puartdisp = GetUARTMessageSlot(UART_DISPENSER);
 3634              		.loc 1 992 0
 3635 002a A220     		movs	r0, #162
 3636 002c FFF7FEFF 		bl	GetUARTMessageSlot
 3637 0030 7861     		str	r0, [r7, #20]
 993:.\PrimeImpl.c ****         if(puartdisp)
 3638              		.loc 1 993 0
 3639 0032 7B69     		ldr	r3, [r7, #20]
 3640 0034 002B     		cmp	r3, #0
 3641 0036 00F08780 		beq	.L131
 3642              	.LBB21:
 994:.\PrimeImpl.c ****         {
 995:.\PrimeImpl.c **** ///////////////////////////////////////////////////////////////////////////////////////////////////
 996:.\PrimeImpl.c ****             puartdisp->_messagetx[index++] = SOM;
 3643              		.loc 1 996 0
 3644 003a FB7F     		ldrb	r3, [r7, #31]	@ zero_extendqisi2
 3645 003c 5A1C     		adds	r2, r3, #1
 3646 003e FA77     		strb	r2, [r7, #31]
 3647 0040 1A46     		mov	r2, r3
 3648 0042 7B69     		ldr	r3, [r7, #20]
 3649 0044 1344     		add	r3, r3, r2
 3650 0046 FF22     		movs	r2, #255
 3651 0048 1A71     		strb	r2, [r3, #4]
 997:.\PrimeImpl.c ****             puartdisp->_messagetx[index++] = 0xE3;
 3652              		.loc 1 997 0
 3653 004a FB7F     		ldrb	r3, [r7, #31]	@ zero_extendqisi2
 3654 004c 5A1C     		adds	r2, r3, #1
 3655 004e FA77     		strb	r2, [r7, #31]
 3656 0050 1A46     		mov	r2, r3
 3657 0052 7B69     		ldr	r3, [r7, #20]
 3658 0054 1344     		add	r3, r3, r2
 3659 0056 E322     		movs	r2, #227
 3660 0058 1A71     		strb	r2, [r3, #4]
 998:.\PrimeImpl.c ****             ///THIS IS AN APPLIED CONVENTION ===>> 0x0004 INDEX POSITION WITHIN THE PUMP'S BUFFER P
 999:.\PrimeImpl.c ****             ///THESE CODES MUST BE MATCHED OTHERWISE THE LOGIC WILL BREAKUP THE CODE!
1000:.\PrimeImpl.c ****             uint8 transtype = (0xF0 | ((ppump->_trasactionbuffer[0x0004] == 0x0F)? 0x02: 0x01));//p
 3661              		.loc 1 1000 0
 3662 005a BB69     		ldr	r3, [r7, #24]
ARM GAS  C:\Users\RECEPC~1\AppData\Local\Temp\ccNQP0pp.s 			page 83


 3663 005c 93F82430 		ldrb	r3, [r3, #36]	@ zero_extendqisi2
 3664 0060 0F2B     		cmp	r3, #15
 3665 0062 01D1     		bne	.L133
 3666              		.loc 1 1000 0 is_stmt 0 discriminator 1
 3667 0064 F223     		movs	r3, #242
 3668 0066 00E0     		b	.L134
 3669              	.L133:
 3670              		.loc 1 1000 0 discriminator 2
 3671 0068 F123     		movs	r3, #241
 3672              	.L134:
 3673              		.loc 1 1000 0 discriminator 4
 3674 006a FB74     		strb	r3, [r7, #19]
1001:.\PrimeImpl.c ****             puartdisp->_messagetx[index++] = transtype;
 3675              		.loc 1 1001 0 is_stmt 1 discriminator 4
 3676 006c FB7F     		ldrb	r3, [r7, #31]	@ zero_extendqisi2
 3677 006e 5A1C     		adds	r2, r3, #1
 3678 0070 FA77     		strb	r2, [r7, #31]
 3679 0072 1A46     		mov	r2, r3
 3680 0074 7B69     		ldr	r3, [r7, #20]
 3681 0076 1344     		add	r3, r3, r2
 3682 0078 FA7C     		ldrb	r2, [r7, #19]
 3683 007a 1A71     		strb	r2, [r3, #4]
1002:.\PrimeImpl.c ****                         
1003:.\PrimeImpl.c ****             puartdisp->_messagetx[index++] = 0xF8; //Preset Data next
 3684              		.loc 1 1003 0 discriminator 4
 3685 007c FB7F     		ldrb	r3, [r7, #31]	@ zero_extendqisi2
 3686 007e 5A1C     		adds	r2, r3, #1
 3687 0080 FA77     		strb	r2, [r7, #31]
 3688 0082 1A46     		mov	r2, r3
 3689 0084 7B69     		ldr	r3, [r7, #20]
 3690 0086 1344     		add	r3, r3, r2
 3691 0088 F822     		movs	r2, #248
 3692 008a 1A71     		strb	r2, [r3, #4]
1004:.\PrimeImpl.c ****             //Here we copy the remaining 8 bytes for the preset value
1005:.\PrimeImpl.c ****             ///THIS IS AN APPLIED CONVENTION ===>> 0x0008 INDEX POSITION WITHIN THE PUMP'S BUFFER P
1006:.\PrimeImpl.c ****             ///THESE CODES MUST BE MATCHED OTHERWISE THE LOGIC WILL BREAKUP THE CODE!
1007:.\PrimeImpl.c ****             char8 *ptr = &ppump->_trasactionbuffer[0x0008];
 3693              		.loc 1 1007 0 discriminator 4
 3694 008c BB69     		ldr	r3, [r7, #24]
 3695 008e 2833     		adds	r3, r3, #40
 3696 0090 FB60     		str	r3, [r7, #12]
1008:.\PrimeImpl.c ****             if(!ppump->_presetdone)
 3697              		.loc 1 1008 0 discriminator 4
 3698 0092 BB69     		ldr	r3, [r7, #24]
 3699 0094 9B7A     		ldrb	r3, [r3, #10]
 3700 0096 DBB2     		uxtb	r3, r3
 3701 0098 83F00103 		eor	r3, r3, #1
 3702 009c DBB2     		uxtb	r3, r3
 3703 009e 002B     		cmp	r3, #0
 3704 00a0 0BD0     		beq	.L135
1009:.\PrimeImpl.c ****             {
1010:.\PrimeImpl.c ****                 if(transtype == 0xF1) //Volume PRESET, then multiply by 1000
 3705              		.loc 1 1010 0
 3706 00a2 FB7C     		ldrb	r3, [r7, #19]	@ zero_extendqisi2
 3707 00a4 F12B     		cmp	r3, #241
 3708 00a6 04D1     		bne	.L136
1011:.\PrimeImpl.c ****                     CastVolumeValue(ptr, 0x08);
ARM GAS  C:\Users\RECEPC~1\AppData\Local\Temp\ccNQP0pp.s 			page 84


 3709              		.loc 1 1011 0
 3710 00a8 F868     		ldr	r0, [r7, #12]
 3711 00aa 0821     		movs	r1, #8
 3712 00ac FFF7FEFF 		bl	CastVolumeValue
 3713 00b0 03E0     		b	.L135
 3714              	.L136:
1012:.\PrimeImpl.c ****                 else
1013:.\PrimeImpl.c ****                     CastMoneyValue(ptr, 0x08);
 3715              		.loc 1 1013 0
 3716 00b2 F868     		ldr	r0, [r7, #12]
 3717 00b4 0821     		movs	r1, #8
 3718 00b6 FFF7FEFF 		bl	CastMoneyValue
 3719              	.L135:
1014:.\PrimeImpl.c ****                     
1015:.\PrimeImpl.c ****             }
1016:.\PrimeImpl.c ****             ppump->_presetdone = true;
 3720              		.loc 1 1016 0
 3721 00ba BB69     		ldr	r3, [r7, #24]
 3722 00bc 0122     		movs	r2, #1
 3723 00be 9A72     		strb	r2, [r3, #10]
1017:.\PrimeImpl.c ****                 
1018:.\PrimeImpl.c ****             FOR(uint8 buffndx = 0, buffndx < 0x08, buffndx++)
 3724              		.loc 1 1018 0
 3725 00c0 0023     		movs	r3, #0
 3726 00c2 BB77     		strb	r3, [r7, #30]
 3727 00c4 18E0     		b	.L137
 3728              	.L138:
1019:.\PrimeImpl.c ****                 puartdisp->_messagetx[index++] = (0xE0 | (ptr[7 - buffndx] & 0x0F)); //Translate fr
 3729              		.loc 1 1019 0 discriminator 3
 3730 00c6 FB7F     		ldrb	r3, [r7, #31]	@ zero_extendqisi2
 3731 00c8 5A1C     		adds	r2, r3, #1
 3732 00ca FA77     		strb	r2, [r7, #31]
 3733 00cc 1946     		mov	r1, r3
 3734 00ce BB7F     		ldrb	r3, [r7, #30]	@ zero_extendqisi2
 3735 00d0 C3F10703 		rsb	r3, r3, #7
 3736 00d4 1A46     		mov	r2, r3
 3737 00d6 FB68     		ldr	r3, [r7, #12]
 3738 00d8 1344     		add	r3, r3, r2
 3739 00da 1B78     		ldrb	r3, [r3]	@ zero_extendqisi2
 3740 00dc DBB2     		uxtb	r3, r3
 3741 00de 03F00F03 		and	r3, r3, #15
 3742 00e2 DBB2     		uxtb	r3, r3
 3743 00e4 63F01F03 		orn	r3, r3, #31
 3744 00e8 DBB2     		uxtb	r3, r3
 3745 00ea DAB2     		uxtb	r2, r3
 3746 00ec 7B69     		ldr	r3, [r7, #20]
 3747 00ee 0B44     		add	r3, r3, r1
 3748 00f0 1A71     		strb	r2, [r3, #4]
1018:.\PrimeImpl.c ****                 puartdisp->_messagetx[index++] = (0xE0 | (ptr[7 - buffndx] & 0x0F)); //Translate fr
 3749              		.loc 1 1018 0 discriminator 3
 3750 00f2 BB7F     		ldrb	r3, [r7, #30]	@ zero_extendqisi2
 3751 00f4 0133     		adds	r3, r3, #1
 3752 00f6 BB77     		strb	r3, [r7, #30]
 3753              	.L137:
1018:.\PrimeImpl.c ****                 puartdisp->_messagetx[index++] = (0xE0 | (ptr[7 - buffndx] & 0x0F)); //Translate fr
 3754              		.loc 1 1018 0 is_stmt 0 discriminator 1
 3755 00f8 BB7F     		ldrb	r3, [r7, #30]	@ zero_extendqisi2
ARM GAS  C:\Users\RECEPC~1\AppData\Local\Temp\ccNQP0pp.s 			page 85


 3756 00fa 072B     		cmp	r3, #7
 3757 00fc E3D9     		bls	.L138
1020:.\PrimeImpl.c **** 
1021:.\PrimeImpl.c ****             puartdisp->_messagetx[index++] = LRCn; //LRC next
 3758              		.loc 1 1021 0 is_stmt 1
 3759 00fe FB7F     		ldrb	r3, [r7, #31]	@ zero_extendqisi2
 3760 0100 5A1C     		adds	r2, r3, #1
 3761 0102 FA77     		strb	r2, [r7, #31]
 3762 0104 1A46     		mov	r2, r3
 3763 0106 7B69     		ldr	r3, [r7, #20]
 3764 0108 1344     		add	r3, r3, r2
 3765 010a FB22     		movs	r2, #251
 3766 010c 1A71     		strb	r2, [r3, #4]
1022:.\PrimeImpl.c ****             puartdisp->_messagetx[index++] = GetLRC(puartdisp->_messagetx);
 3767              		.loc 1 1022 0
 3768 010e FB7F     		ldrb	r3, [r7, #31]	@ zero_extendqisi2
 3769 0110 5A1C     		adds	r2, r3, #1
 3770 0112 FA77     		strb	r2, [r7, #31]
 3771 0114 1C46     		mov	r4, r3
 3772 0116 7B69     		ldr	r3, [r7, #20]
 3773 0118 0433     		adds	r3, r3, #4
 3774 011a 1846     		mov	r0, r3
 3775 011c FFF7FEFF 		bl	GetLRC
 3776 0120 0346     		mov	r3, r0
 3777 0122 1A46     		mov	r2, r3
 3778 0124 7B69     		ldr	r3, [r7, #20]
 3779 0126 2344     		add	r3, r3, r4
 3780 0128 1A71     		strb	r2, [r3, #4]
1023:.\PrimeImpl.c ****             puartdisp->_messagetx[index++] = EOM;
 3781              		.loc 1 1023 0
 3782 012a FB7F     		ldrb	r3, [r7, #31]	@ zero_extendqisi2
 3783 012c 5A1C     		adds	r2, r3, #1
 3784 012e FA77     		strb	r2, [r7, #31]
 3785 0130 1A46     		mov	r2, r3
 3786 0132 7B69     		ldr	r3, [r7, #20]
 3787 0134 1344     		add	r3, r3, r2
 3788 0136 F022     		movs	r2, #240
 3789 0138 1A71     		strb	r2, [r3, #4]
1024:.\PrimeImpl.c **** ///////////////////////////////////////////////////////////////////////////////////////////////////
1025:.\PrimeImpl.c ****             
1026:.\PrimeImpl.c ****             puartdisp->_messagelength = index;
 3790              		.loc 1 1026 0
 3791 013a FB7F     		ldrb	r3, [r7, #31]	@ zero_extendqisi2
 3792 013c 9AB2     		uxth	r2, r3
 3793 013e 7B69     		ldr	r3, [r7, #20]
 3794 0140 5A80     		strh	r2, [r3, #2]	@ movhi
1027:.\PrimeImpl.c ****             puartdisp->_messagestate = PENDING;
 3795              		.loc 1 1027 0
 3796 0142 7B69     		ldr	r3, [r7, #20]
 3797 0144 C222     		movs	r2, #194
 3798 0146 1A70     		strb	r2, [r3]
 3799              	.L131:
 3800              	.LBE21:
 3801              	.LBE20:
1028:.\PrimeImpl.c ****         }
1029:.\PrimeImpl.c ****     }
1030:.\PrimeImpl.c ****     
ARM GAS  C:\Users\RECEPC~1\AppData\Local\Temp\ccNQP0pp.s 			page 86


1031:.\PrimeImpl.c **** }
 3802              		.loc 1 1031 0
 3803 0148 2437     		adds	r7, r7, #36
 3804              		.cfi_def_cfa_offset 12
 3805 014a BD46     		mov	sp, r7
 3806              		.cfi_def_cfa_register 13
 3807              		@ sp needed
 3808 014c 90BD     		pop	{r4, r7, pc}
 3809              		.cfi_endproc
 3810              	.LFE85:
 3811              		.size	PumpPresetNoHose, .-PumpPresetNoHose
 3812 014e 00BF     		.section	.text.PumpPresetNotification,"ax",%progbits
 3813              		.align	2
 3814              		.global	PumpPresetNotification
 3815              		.thumb
 3816              		.thumb_func
 3817              		.type	PumpPresetNotification, %function
 3818              	PumpPresetNotification:
 3819              	.LFB86:
1032:.\PrimeImpl.c **** 
1033:.\PrimeImpl.c **** //@Created By: HIJH
1034:.\PrimeImpl.c **** //@Septembre de 2016
1035:.\PrimeImpl.c **** //Message to be notified to the remote peer (NSX)
1036:.\PrimeImpl.c **** void PumpPresetNotification(LPVOID pparam)
1037:.\PrimeImpl.c **** {
 3820              		.loc 1 1037 0
 3821              		.cfi_startproc
 3822              		@ args = 0, pretend = 0, frame = 24
 3823              		@ frame_needed = 1, uses_anonymous_args = 0
 3824 0000 B0B5     		push	{r4, r5, r7, lr}
 3825              		.cfi_def_cfa_offset 16
 3826              		.cfi_offset 4, -16
 3827              		.cfi_offset 5, -12
 3828              		.cfi_offset 7, -8
 3829              		.cfi_offset 14, -4
 3830 0002 86B0     		sub	sp, sp, #24
 3831              		.cfi_def_cfa_offset 40
 3832 0004 00AF     		add	r7, sp, #0
 3833              		.cfi_def_cfa_register 7
 3834 0006 7860     		str	r0, [r7, #4]
1038:.\PrimeImpl.c ****     PPUMPTRANSACTIONJOBCONTEXTPTR pjob = (PPUMPTRANSACTIONJOBCONTEXTPTR)pparam;
 3835              		.loc 1 1038 0
 3836 0008 7B68     		ldr	r3, [r7, #4]
 3837 000a 7B61     		str	r3, [r7, #20]
1039:.\PrimeImpl.c ****     if(pjob)
 3838              		.loc 1 1039 0
 3839 000c 7B69     		ldr	r3, [r7, #20]
 3840 000e 002B     		cmp	r3, #0
 3841 0010 00F0AF80 		beq	.L139
 3842              	.LBB22:
1040:.\PrimeImpl.c ****     {
1041:.\PrimeImpl.c ****         //HERE WE ATTEMPT TO PUSH THE TRANSACTION INTO THE PUMP'S TRANSACTIONAL QUEUE.
1042:.\PrimeImpl.c ****         //THIS IS DONE ONLY IF THERE IS ROOM IN THE QUEUE, OTHERWISE THIS STATE WON'T
1043:.\PrimeImpl.c ****         //BE REPORTED TO THE REMOTE PEER.
1044:.\PrimeImpl.c ****         pjob->_ppump->PumpTransQueueLock(pjob->_ppump);
 3843              		.loc 1 1044 0
 3844 0014 7B69     		ldr	r3, [r7, #20]
ARM GAS  C:\Users\RECEPC~1\AppData\Local\Temp\ccNQP0pp.s 			page 87


 3845 0016 DB69     		ldr	r3, [r3, #28]
 3846 0018 D3F80C39 		ldr	r3, [r3, #2316]
 3847 001c 7A69     		ldr	r2, [r7, #20]
 3848 001e D269     		ldr	r2, [r2, #28]
 3849 0020 1046     		mov	r0, r2
 3850 0022 9847     		blx	r3
1045:.\PrimeImpl.c ****         PNEAR_PUMPTRANSACTIONALSTATEPTR pts = pjob->_ppump->PumpTransQueueAllocate(pjob->_ppump);
 3851              		.loc 1 1045 0
 3852 0024 7B69     		ldr	r3, [r7, #20]
 3853 0026 DB69     		ldr	r3, [r3, #28]
 3854 0028 D3F82039 		ldr	r3, [r3, #2336]
 3855 002c 7A69     		ldr	r2, [r7, #20]
 3856 002e D269     		ldr	r2, [r2, #28]
 3857 0030 1046     		mov	r0, r2
 3858 0032 9847     		blx	r3
 3859 0034 3861     		str	r0, [r7, #16]
1046:.\PrimeImpl.c ****         pjob->_ppump->PumpTransQueueUnlock(pjob->_ppump);
 3860              		.loc 1 1046 0
 3861 0036 7B69     		ldr	r3, [r7, #20]
 3862 0038 DB69     		ldr	r3, [r3, #28]
 3863 003a D3F81039 		ldr	r3, [r3, #2320]
 3864 003e 7A69     		ldr	r2, [r7, #20]
 3865 0040 D269     		ldr	r2, [r2, #28]
 3866 0042 1046     		mov	r0, r2
 3867 0044 9847     		blx	r3
1047:.\PrimeImpl.c ****         if(pts)
 3868              		.loc 1 1047 0
 3869 0046 3B69     		ldr	r3, [r7, #16]
 3870 0048 002B     		cmp	r3, #0
 3871 004a 00F09280 		beq	.L139
 3872              	.LBB23:
1048:.\PrimeImpl.c ****         {
1049:.\PrimeImpl.c ****             uint8 index = 0;
 3873              		.loc 1 1049 0
 3874 004e 0023     		movs	r3, #0
 3875 0050 FB73     		strb	r3, [r7, #15]
1050:.\PrimeImpl.c ****             pts->_transtate = RF_MUX_CASH_SALE_START_REQUEST;
 3876              		.loc 1 1050 0
 3877 0052 3B69     		ldr	r3, [r7, #16]
 3878 0054 AA22     		movs	r2, #170
 3879 0056 5A70     		strb	r2, [r3, #1]
1051:.\PrimeImpl.c ****             //Pump ID always comes in position 0x00
1052:.\PrimeImpl.c ****             pts->_buffer[index++] = pjob->_ppump->_pumpid;
 3880              		.loc 1 1052 0
 3881 0058 FB7B     		ldrb	r3, [r7, #15]	@ zero_extendqisi2
 3882 005a 5A1C     		adds	r2, r3, #1
 3883 005c FA73     		strb	r2, [r7, #15]
 3884 005e 1946     		mov	r1, r3
 3885 0060 7B69     		ldr	r3, [r7, #20]
 3886 0062 DB69     		ldr	r3, [r3, #28]
 3887 0064 1A78     		ldrb	r2, [r3]	@ zero_extendqisi2
 3888 0066 3B69     		ldr	r3, [r7, #16]
 3889 0068 0B44     		add	r3, r3, r1
 3890 006a 9A70     		strb	r2, [r3, #2]
1053:.\PrimeImpl.c ****             //PRESET type
1054:.\PrimeImpl.c ****             pts->_buffer[index++] = (0xF0 | ((pjob->_ppump->_trasactionbuffer[0x0004] == 0x0F)? 0x0
 3891              		.loc 1 1054 0
ARM GAS  C:\Users\RECEPC~1\AppData\Local\Temp\ccNQP0pp.s 			page 88


 3892 006c FB7B     		ldrb	r3, [r7, #15]	@ zero_extendqisi2
 3893 006e 5A1C     		adds	r2, r3, #1
 3894 0070 FA73     		strb	r2, [r7, #15]
 3895 0072 1946     		mov	r1, r3
 3896 0074 7B69     		ldr	r3, [r7, #20]
 3897 0076 DB69     		ldr	r3, [r3, #28]
 3898 0078 93F82430 		ldrb	r3, [r3, #36]	@ zero_extendqisi2
 3899 007c 0F2B     		cmp	r3, #15
 3900 007e 01D1     		bne	.L141
 3901              		.loc 1 1054 0 is_stmt 0 discriminator 1
 3902 0080 F222     		movs	r2, #242
 3903 0082 00E0     		b	.L142
 3904              	.L141:
 3905              		.loc 1 1054 0 discriminator 2
 3906 0084 F122     		movs	r2, #241
 3907              	.L142:
 3908              		.loc 1 1054 0 discriminator 4
 3909 0086 3B69     		ldr	r3, [r7, #16]
 3910 0088 0B44     		add	r3, r3, r1
 3911 008a 9A70     		strb	r2, [r3, #2]
1055:.\PrimeImpl.c ****             
1056:.\PrimeImpl.c ****             //PRESET value (8 bytes)
1057:.\PrimeImpl.c ****             PSTRBUFFTOGG(PBYTECAST(&pjob->_ppump->_trasactionbuffer[0x0008]), 0x08);
 3912              		.loc 1 1057 0 is_stmt 1 discriminator 4
 3913 008c 7B69     		ldr	r3, [r7, #20]
 3914 008e DB69     		ldr	r3, [r3, #28]
 3915 0090 2833     		adds	r3, r3, #40
 3916 0092 1846     		mov	r0, r3
 3917 0094 0821     		movs	r1, #8
 3918 0096 FFF7FEFF 		bl	PSTRBUFFTOGG
1058:.\PrimeImpl.c ****             memcpy(&pts->_buffer[index], &pjob->_ppump->_trasactionbuffer[0x0008], 0x08);
 3919              		.loc 1 1058 0 discriminator 4
 3920 009a FB7B     		ldrb	r3, [r7, #15]	@ zero_extendqisi2
 3921 009c 3A69     		ldr	r2, [r7, #16]
 3922 009e 1344     		add	r3, r3, r2
 3923 00a0 9A1C     		adds	r2, r3, #2
 3924 00a2 7B69     		ldr	r3, [r7, #20]
 3925 00a4 DB69     		ldr	r3, [r3, #28]
 3926 00a6 2833     		adds	r3, r3, #40
 3927 00a8 1046     		mov	r0, r2
 3928 00aa 1946     		mov	r1, r3
 3929 00ac 0822     		movs	r2, #8
 3930 00ae FFF7FEFF 		bl	memcpy
1059:.\PrimeImpl.c ****             index += 0x08;
 3931              		.loc 1 1059 0 discriminator 4
 3932 00b2 FB7B     		ldrb	r3, [r7, #15]
 3933 00b4 0833     		adds	r3, r3, #8
 3934 00b6 FB73     		strb	r3, [r7, #15]
1060:.\PrimeImpl.c ****             //Car's Plate
1061:.\PrimeImpl.c ****             memcpy(&pts->_buffer[index], &pjob->_ppump->_trasactionbuffer[GetBufferIndexFromDisplay
 3935              		.loc 1 1061 0 discriminator 4
 3936 00b8 FB7B     		ldrb	r3, [r7, #15]	@ zero_extendqisi2
 3937 00ba 3A69     		ldr	r2, [r7, #16]
 3938 00bc 1344     		add	r3, r3, r2
 3939 00be 9D1C     		adds	r5, r3, #2
 3940 00c0 7B69     		ldr	r3, [r7, #20]
 3941 00c2 DC69     		ldr	r4, [r3, #28]
ARM GAS  C:\Users\RECEPC~1\AppData\Local\Temp\ccNQP0pp.s 			page 89


 3942 00c4 0A20     		movs	r0, #10
 3943 00c6 FFF7FEFF 		bl	GetBufferIndexFromDisplayID
 3944 00ca 0346     		mov	r3, r0
 3945 00cc 2033     		adds	r3, r3, #32
 3946 00ce 1C44     		add	r4, r4, r3
 3947 00d0 0A20     		movs	r0, #10
 3948 00d2 FFF7FEFF 		bl	GetBufferLengthFromDisplayID
 3949 00d6 0346     		mov	r3, r0
 3950 00d8 2846     		mov	r0, r5
 3951 00da 2146     		mov	r1, r4
 3952 00dc 1A46     		mov	r2, r3
 3953 00de FFF7FEFF 		bl	memcpy
1062:.\PrimeImpl.c ****             index += GetBufferLengthFromDisplayID(DISPLAY_DIGITE_PLACA);
 3954              		.loc 1 1062 0 discriminator 4
 3955 00e2 0A20     		movs	r0, #10
 3956 00e4 FFF7FEFF 		bl	GetBufferLengthFromDisplayID
 3957 00e8 0346     		mov	r3, r0
 3958 00ea 1A46     		mov	r2, r3
 3959 00ec FB7B     		ldrb	r3, [r7, #15]
 3960 00ee 1344     		add	r3, r3, r2
 3961 00f0 FB73     		strb	r3, [r7, #15]
1063:.\PrimeImpl.c ****             pts->_buffer[index] = index;
 3962              		.loc 1 1063 0 discriminator 4
 3963 00f2 FB7B     		ldrb	r3, [r7, #15]	@ zero_extendqisi2
 3964 00f4 3A69     		ldr	r2, [r7, #16]
 3965 00f6 1344     		add	r3, r3, r2
 3966 00f8 FA7B     		ldrb	r2, [r7, #15]
 3967 00fa 9A70     		strb	r2, [r3, #2]
1064:.\PrimeImpl.c ****             //Car's Milleage
1065:.\PrimeImpl.c ****             memcpy(&pts->_buffer[index], &pjob->_ppump->_trasactionbuffer[GetBufferIndexFromDisplay
 3968              		.loc 1 1065 0 discriminator 4
 3969 00fc FB7B     		ldrb	r3, [r7, #15]	@ zero_extendqisi2
 3970 00fe 3A69     		ldr	r2, [r7, #16]
 3971 0100 1344     		add	r3, r3, r2
 3972 0102 9D1C     		adds	r5, r3, #2
 3973 0104 7B69     		ldr	r3, [r7, #20]
 3974 0106 DC69     		ldr	r4, [r3, #28]
 3975 0108 0E20     		movs	r0, #14
 3976 010a FFF7FEFF 		bl	GetBufferIndexFromDisplayID
 3977 010e 0346     		mov	r3, r0
 3978 0110 2033     		adds	r3, r3, #32
 3979 0112 1C44     		add	r4, r4, r3
 3980 0114 0E20     		movs	r0, #14
 3981 0116 FFF7FEFF 		bl	GetBufferLengthFromDisplayID
 3982 011a 0346     		mov	r3, r0
 3983 011c 2846     		mov	r0, r5
 3984 011e 2146     		mov	r1, r4
 3985 0120 1A46     		mov	r2, r3
 3986 0122 FFF7FEFF 		bl	memcpy
1066:.\PrimeImpl.c ****             index += GetBufferLengthFromDisplayID(DISPLAY_INTRODUZCA_KILOMETRAJE);
 3987              		.loc 1 1066 0 discriminator 4
 3988 0126 0E20     		movs	r0, #14
 3989 0128 FFF7FEFF 		bl	GetBufferLengthFromDisplayID
 3990 012c 0346     		mov	r3, r0
 3991 012e 1A46     		mov	r2, r3
 3992 0130 FB7B     		ldrb	r3, [r7, #15]
 3993 0132 1344     		add	r3, r3, r2
ARM GAS  C:\Users\RECEPC~1\AppData\Local\Temp\ccNQP0pp.s 			page 90


 3994 0134 FB73     		strb	r3, [r7, #15]
1067:.\PrimeImpl.c ****             
1068:.\PrimeImpl.c ****             pts->_buffersize = index;
 3995              		.loc 1 1068 0 discriminator 4
 3996 0136 FB7B     		ldrb	r3, [r7, #15]	@ zero_extendqisi2
 3997 0138 9AB2     		uxth	r2, r3
 3998 013a 3B69     		ldr	r3, [r7, #16]
 3999 013c A3F80221 		strh	r2, [r3, #258]	@ movhi
1069:.\PrimeImpl.c ****             
1070:.\PrimeImpl.c ****             pjob->_ppump->PumpTransQueueLock(pjob->_ppump);
 4000              		.loc 1 1070 0 discriminator 4
 4001 0140 7B69     		ldr	r3, [r7, #20]
 4002 0142 DB69     		ldr	r3, [r3, #28]
 4003 0144 D3F80C39 		ldr	r3, [r3, #2316]
 4004 0148 7A69     		ldr	r2, [r7, #20]
 4005 014a D269     		ldr	r2, [r2, #28]
 4006 014c 1046     		mov	r0, r2
 4007 014e 9847     		blx	r3
1071:.\PrimeImpl.c ****             pjob->_ppump->PumpTransQueueEnqueue(pjob->_ppump, pts);
 4008              		.loc 1 1071 0 discriminator 4
 4009 0150 7B69     		ldr	r3, [r7, #20]
 4010 0152 DB69     		ldr	r3, [r3, #28]
 4011 0154 D3F81839 		ldr	r3, [r3, #2328]
 4012 0158 7A69     		ldr	r2, [r7, #20]
 4013 015a D269     		ldr	r2, [r2, #28]
 4014 015c 1046     		mov	r0, r2
 4015 015e 3969     		ldr	r1, [r7, #16]
 4016 0160 9847     		blx	r3
1072:.\PrimeImpl.c ****             pjob->_ppump->PumpTransQueueUnlock(pjob->_ppump);
 4017              		.loc 1 1072 0 discriminator 4
 4018 0162 7B69     		ldr	r3, [r7, #20]
 4019 0164 DB69     		ldr	r3, [r3, #28]
 4020 0166 D3F81039 		ldr	r3, [r3, #2320]
 4021 016a 7A69     		ldr	r2, [r7, #20]
 4022 016c D269     		ldr	r2, [r2, #28]
 4023 016e 1046     		mov	r0, r2
 4024 0170 9847     		blx	r3
 4025              	.L139:
 4026              	.LBE23:
 4027              	.LBE22:
1073:.\PrimeImpl.c ****         }
1074:.\PrimeImpl.c ****     }
1075:.\PrimeImpl.c **** }
 4028              		.loc 1 1075 0
 4029 0172 1837     		adds	r7, r7, #24
 4030              		.cfi_def_cfa_offset 16
 4031 0174 BD46     		mov	sp, r7
 4032              		.cfi_def_cfa_register 13
 4033              		@ sp needed
 4034 0176 B0BD     		pop	{r4, r5, r7, pc}
 4035              		.cfi_endproc
 4036              	.LFE86:
 4037              		.size	PumpPresetNotification, .-PumpPresetNotification
 4038              		.section	.text.PumpCreditPresetNotification,"ax",%progbits
 4039              		.align	2
 4040              		.global	PumpCreditPresetNotification
 4041              		.thumb
ARM GAS  C:\Users\RECEPC~1\AppData\Local\Temp\ccNQP0pp.s 			page 91


 4042              		.thumb_func
 4043              		.type	PumpCreditPresetNotification, %function
 4044              	PumpCreditPresetNotification:
 4045              	.LFB87:
1076:.\PrimeImpl.c **** 
1077:.\PrimeImpl.c **** 
1078:.\PrimeImpl.c **** //@Created By: HIJH
1079:.\PrimeImpl.c **** //@Septembre de 2016
1080:.\PrimeImpl.c **** //Message to be notified to the remote peer (NSX)
1081:.\PrimeImpl.c **** void PumpCreditPresetNotification(LPVOID pparam)
1082:.\PrimeImpl.c **** {
 4046              		.loc 1 1082 0
 4047              		.cfi_startproc
 4048              		@ args = 0, pretend = 0, frame = 24
 4049              		@ frame_needed = 1, uses_anonymous_args = 0
 4050 0000 80B5     		push	{r7, lr}
 4051              		.cfi_def_cfa_offset 8
 4052              		.cfi_offset 7, -8
 4053              		.cfi_offset 14, -4
 4054 0002 86B0     		sub	sp, sp, #24
 4055              		.cfi_def_cfa_offset 32
 4056 0004 00AF     		add	r7, sp, #0
 4057              		.cfi_def_cfa_register 7
 4058 0006 7860     		str	r0, [r7, #4]
1083:.\PrimeImpl.c ****     PPUMPTRANSACTIONJOBCONTEXTPTR pjob = (PPUMPTRANSACTIONJOBCONTEXTPTR)pparam;
 4059              		.loc 1 1083 0
 4060 0008 7B68     		ldr	r3, [r7, #4]
 4061 000a 7B61     		str	r3, [r7, #20]
1084:.\PrimeImpl.c ****     if(pjob)
 4062              		.loc 1 1084 0
 4063 000c 7B69     		ldr	r3, [r7, #20]
 4064 000e 002B     		cmp	r3, #0
 4065 0010 48D0     		beq	.L143
 4066              	.LBB24:
1085:.\PrimeImpl.c ****     {
1086:.\PrimeImpl.c ****         //HERE WE ATTEMPT TO PUSH THE TRANSACTION INTO THE PUMP'S TRANSACTIONAL QUEUE.
1087:.\PrimeImpl.c ****         //THIS IS DONE ONLY IF THERE IS ROOM IN THE QUEUE, OTHERWISE THIS STATE WON'T
1088:.\PrimeImpl.c ****         //BE REPORTED TO THE REMOTE PEER.
1089:.\PrimeImpl.c ****         pjob->_ppump->PumpTransQueueLock(pjob->_ppump);
 4067              		.loc 1 1089 0
 4068 0012 7B69     		ldr	r3, [r7, #20]
 4069 0014 DB69     		ldr	r3, [r3, #28]
 4070 0016 D3F80C39 		ldr	r3, [r3, #2316]
 4071 001a 7A69     		ldr	r2, [r7, #20]
 4072 001c D269     		ldr	r2, [r2, #28]
 4073 001e 1046     		mov	r0, r2
 4074 0020 9847     		blx	r3
1090:.\PrimeImpl.c ****         PNEAR_PUMPTRANSACTIONALSTATEPTR pts = pjob->_ppump->PumpTransQueueAllocate(pjob->_ppump);
 4075              		.loc 1 1090 0
 4076 0022 7B69     		ldr	r3, [r7, #20]
 4077 0024 DB69     		ldr	r3, [r3, #28]
 4078 0026 D3F82039 		ldr	r3, [r3, #2336]
 4079 002a 7A69     		ldr	r2, [r7, #20]
 4080 002c D269     		ldr	r2, [r2, #28]
 4081 002e 1046     		mov	r0, r2
 4082 0030 9847     		blx	r3
 4083 0032 3861     		str	r0, [r7, #16]
ARM GAS  C:\Users\RECEPC~1\AppData\Local\Temp\ccNQP0pp.s 			page 92


1091:.\PrimeImpl.c ****         pjob->_ppump->PumpTransQueueUnlock(pjob->_ppump);
 4084              		.loc 1 1091 0
 4085 0034 7B69     		ldr	r3, [r7, #20]
 4086 0036 DB69     		ldr	r3, [r3, #28]
 4087 0038 D3F81039 		ldr	r3, [r3, #2320]
 4088 003c 7A69     		ldr	r2, [r7, #20]
 4089 003e D269     		ldr	r2, [r2, #28]
 4090 0040 1046     		mov	r0, r2
 4091 0042 9847     		blx	r3
1092:.\PrimeImpl.c ****         if(pts)
 4092              		.loc 1 1092 0
 4093 0044 3B69     		ldr	r3, [r7, #16]
 4094 0046 002B     		cmp	r3, #0
 4095 0048 2CD0     		beq	.L143
 4096              	.LBB25:
1093:.\PrimeImpl.c ****         {
1094:.\PrimeImpl.c ****             uint8 index = 0;
 4097              		.loc 1 1094 0
 4098 004a 0023     		movs	r3, #0
 4099 004c FB73     		strb	r3, [r7, #15]
1095:.\PrimeImpl.c ****             pts->_transtate = RF_MUX_CREDIT_PRESET_NOTIFICATION_REQUEST;
 4100              		.loc 1 1095 0
 4101 004e 3B69     		ldr	r3, [r7, #16]
 4102 0050 AE22     		movs	r2, #174
 4103 0052 5A70     		strb	r2, [r3, #1]
1096:.\PrimeImpl.c ****             //Pump ID always comes in position 0x00
1097:.\PrimeImpl.c ****             pts->_buffer[index++] = pjob->_ppump->_pumpid;
 4104              		.loc 1 1097 0
 4105 0054 FB7B     		ldrb	r3, [r7, #15]	@ zero_extendqisi2
 4106 0056 5A1C     		adds	r2, r3, #1
 4107 0058 FA73     		strb	r2, [r7, #15]
 4108 005a 1946     		mov	r1, r3
 4109 005c 7B69     		ldr	r3, [r7, #20]
 4110 005e DB69     		ldr	r3, [r3, #28]
 4111 0060 1A78     		ldrb	r2, [r3]	@ zero_extendqisi2
 4112 0062 3B69     		ldr	r3, [r7, #16]
 4113 0064 0B44     		add	r3, r3, r1
 4114 0066 9A70     		strb	r2, [r3, #2]
1098:.\PrimeImpl.c ****             pts->_buffersize = index;
 4115              		.loc 1 1098 0
 4116 0068 FB7B     		ldrb	r3, [r7, #15]	@ zero_extendqisi2
 4117 006a 9AB2     		uxth	r2, r3
 4118 006c 3B69     		ldr	r3, [r7, #16]
 4119 006e A3F80221 		strh	r2, [r3, #258]	@ movhi
1099:.\PrimeImpl.c ****             
1100:.\PrimeImpl.c ****             pjob->_ppump->PumpTransQueueLock(pjob->_ppump);
 4120              		.loc 1 1100 0
 4121 0072 7B69     		ldr	r3, [r7, #20]
 4122 0074 DB69     		ldr	r3, [r3, #28]
 4123 0076 D3F80C39 		ldr	r3, [r3, #2316]
 4124 007a 7A69     		ldr	r2, [r7, #20]
 4125 007c D269     		ldr	r2, [r2, #28]
 4126 007e 1046     		mov	r0, r2
 4127 0080 9847     		blx	r3
1101:.\PrimeImpl.c ****             pjob->_ppump->PumpTransQueueEnqueue(pjob->_ppump, pts);
 4128              		.loc 1 1101 0
 4129 0082 7B69     		ldr	r3, [r7, #20]
ARM GAS  C:\Users\RECEPC~1\AppData\Local\Temp\ccNQP0pp.s 			page 93


 4130 0084 DB69     		ldr	r3, [r3, #28]
 4131 0086 D3F81839 		ldr	r3, [r3, #2328]
 4132 008a 7A69     		ldr	r2, [r7, #20]
 4133 008c D269     		ldr	r2, [r2, #28]
 4134 008e 1046     		mov	r0, r2
 4135 0090 3969     		ldr	r1, [r7, #16]
 4136 0092 9847     		blx	r3
1102:.\PrimeImpl.c ****             pjob->_ppump->PumpTransQueueUnlock(pjob->_ppump);
 4137              		.loc 1 1102 0
 4138 0094 7B69     		ldr	r3, [r7, #20]
 4139 0096 DB69     		ldr	r3, [r3, #28]
 4140 0098 D3F81039 		ldr	r3, [r3, #2320]
 4141 009c 7A69     		ldr	r2, [r7, #20]
 4142 009e D269     		ldr	r2, [r2, #28]
 4143 00a0 1046     		mov	r0, r2
 4144 00a2 9847     		blx	r3
 4145              	.L143:
 4146              	.LBE25:
 4147              	.LBE24:
1103:.\PrimeImpl.c ****         }
1104:.\PrimeImpl.c ****     }
1105:.\PrimeImpl.c **** }
 4148              		.loc 1 1105 0
 4149 00a4 1837     		adds	r7, r7, #24
 4150              		.cfi_def_cfa_offset 8
 4151 00a6 BD46     		mov	sp, r7
 4152              		.cfi_def_cfa_register 13
 4153              		@ sp needed
 4154 00a8 80BD     		pop	{r7, pc}
 4155              		.cfi_endproc
 4156              	.LFE87:
 4157              		.size	PumpCreditPresetNotification, .-PumpCreditPresetNotification
 4158 00aa 00BF     		.section	.text.PumpFullPresetHose,"ax",%progbits
 4159              		.align	2
 4160              		.global	PumpFullPresetHose
 4161              		.thumb
 4162              		.thumb_func
 4163              		.type	PumpFullPresetHose, %function
 4164              	PumpFullPresetHose:
 4165              	.LFB88:
1106:.\PrimeImpl.c **** 
1107:.\PrimeImpl.c **** //@Created By: HIJH
1108:.\PrimeImpl.c **** //@Septembre de 2016
1109:.\PrimeImpl.c **** ///////////////////////////////////////////////////////////////////////////////////////////////////
1110:.\PrimeImpl.c **** //Preset values will be placed within the SinkMessage's buffer. This is a convention that applies t
1111:.\PrimeImpl.c **** //all of the available transactions. The pump function must deal with this while it is assembling t
1112:.\PrimeImpl.c **** //For this message the data comes as follows:
1113:.\PrimeImpl.c **** // - First byte is the preset type (Volume:1 / Money:2 )
1114:.\PrimeImpl.c **** // - Second byte is the Hose (A:0, B:1, C:2, D:3)
1115:.\PrimeImpl.c **** // - Block of 8 bytes for the preset value
1116:.\PrimeImpl.c **** //This block of data (10 bytes) must be moved to another position within the same buffer (even posi
1117:.\PrimeImpl.c **** void PumpFullPresetHose(void *pparam)
1118:.\PrimeImpl.c **** {
 4166              		.loc 1 1118 0
 4167              		.cfi_startproc
 4168              		@ args = 0, pretend = 0, frame = 32
 4169              		@ frame_needed = 1, uses_anonymous_args = 0
ARM GAS  C:\Users\RECEPC~1\AppData\Local\Temp\ccNQP0pp.s 			page 94


 4170 0000 90B5     		push	{r4, r7, lr}
 4171              		.cfi_def_cfa_offset 12
 4172              		.cfi_offset 4, -12
 4173              		.cfi_offset 7, -8
 4174              		.cfi_offset 14, -4
 4175 0002 89B0     		sub	sp, sp, #36
 4176              		.cfi_def_cfa_offset 48
 4177 0004 00AF     		add	r7, sp, #0
 4178              		.cfi_def_cfa_register 7
 4179 0006 7860     		str	r0, [r7, #4]
1119:.\PrimeImpl.c ****     PNEAR_PUMPPTR ppump = (PNEAR_PUMPPTR)pparam;
 4180              		.loc 1 1119 0
 4181 0008 7B68     		ldr	r3, [r7, #4]
 4182 000a BB61     		str	r3, [r7, #24]
1120:.\PrimeImpl.c ****     if(ppump)
 4183              		.loc 1 1120 0
 4184 000c BB69     		ldr	r3, [r7, #24]
 4185 000e 002B     		cmp	r3, #0
 4186 0010 00F0C080 		beq	.L145
 4187              	.LBB26:
1121:.\PrimeImpl.c ****     {
1122:.\PrimeImpl.c ****         uint8_t index = 0;        
 4188              		.loc 1 1122 0
 4189 0014 0023     		movs	r3, #0
 4190 0016 FB77     		strb	r3, [r7, #31]
1123:.\PrimeImpl.c ****         PUARTMESSAGEPTR puartdisp = GetUARTMessageSlot(UART_DISPENSER);
 4191              		.loc 1 1123 0
 4192 0018 A220     		movs	r0, #162
 4193 001a FFF7FEFF 		bl	GetUARTMessageSlot
 4194 001e 7861     		str	r0, [r7, #20]
1124:.\PrimeImpl.c ****         memset(ppump->_rxbuffer, 0x00, _PUMP_RX_BUFFER_SIZE_);
 4195              		.loc 1 1124 0
 4196 0020 BB69     		ldr	r3, [r7, #24]
 4197 0022 03F5C473 		add	r3, r3, #392
 4198 0026 1846     		mov	r0, r3
 4199 0028 0021     		movs	r1, #0
 4200 002a 4FF4B472 		mov	r2, #360
 4201 002e FFF7FEFF 		bl	memset
1125:.\PrimeImpl.c ****         if(puartdisp)
 4202              		.loc 1 1125 0
 4203 0032 7B69     		ldr	r3, [r7, #20]
 4204 0034 002B     		cmp	r3, #0
 4205 0036 00F0AD80 		beq	.L145
 4206              	.LBB27:
1126:.\PrimeImpl.c ****         {
1127:.\PrimeImpl.c **** ///////////////////////////////////////////////////////////////////////////////////////////////////
1128:.\PrimeImpl.c ****             puartdisp->_messagetx[index++] = SOM;
 4207              		.loc 1 1128 0
 4208 003a FB7F     		ldrb	r3, [r7, #31]	@ zero_extendqisi2
 4209 003c 5A1C     		adds	r2, r3, #1
 4210 003e FA77     		strb	r2, [r7, #31]
 4211 0040 1A46     		mov	r2, r3
 4212 0042 7B69     		ldr	r3, [r7, #20]
 4213 0044 1344     		add	r3, r3, r2
 4214 0046 FF22     		movs	r2, #255
 4215 0048 1A71     		strb	r2, [r3, #4]
1129:.\PrimeImpl.c ****             puartdisp->_messagetx[index++] = 0xE1; //Data Length (n = 1 if F4/F5 is not included)
ARM GAS  C:\Users\RECEPC~1\AppData\Local\Temp\ccNQP0pp.s 			page 95


 4216              		.loc 1 1129 0
 4217 004a FB7F     		ldrb	r3, [r7, #31]	@ zero_extendqisi2
 4218 004c 5A1C     		adds	r2, r3, #1
 4219 004e FA77     		strb	r2, [r7, #31]
 4220 0050 1A46     		mov	r2, r3
 4221 0052 7B69     		ldr	r3, [r7, #20]
 4222 0054 1344     		add	r3, r3, r2
 4223 0056 E122     		movs	r2, #225
 4224 0058 1A71     		strb	r2, [r3, #4]
1130:.\PrimeImpl.c ****             ///THIS IS AN APPLIED CONVENTION ===>> 0x0004 INDEX POSITION WITHIN THE PUMP'S BUFFER P
1131:.\PrimeImpl.c ****             ///THESE CODES MUST BE MATCHED OTHERWISE THE LOGIC WILL BREAKUP THE CODE!
1132:.\PrimeImpl.c ****             uint8 transtype = 0xF2;
 4225              		.loc 1 1132 0
 4226 005a F223     		movs	r3, #242
 4227 005c FB74     		strb	r3, [r7, #19]
1133:.\PrimeImpl.c ****             puartdisp->_messagetx[index++] = transtype;//preset type (0xF2 = Money, 0xF1 = Volume)
 4228              		.loc 1 1133 0
 4229 005e FB7F     		ldrb	r3, [r7, #31]	@ zero_extendqisi2
 4230 0060 5A1C     		adds	r2, r3, #1
 4231 0062 FA77     		strb	r2, [r7, #31]
 4232 0064 1A46     		mov	r2, r3
 4233 0066 7B69     		ldr	r3, [r7, #20]
 4234 0068 1344     		add	r3, r3, r2
 4235 006a FA7C     		ldrb	r2, [r7, #19]
 4236 006c 1A71     		strb	r2, [r3, #4]
1134:.\PrimeImpl.c **** 
1135:.\PrimeImpl.c ****             puartdisp->_messagetx[index++] = 0xF6; //Hose Data next
 4237              		.loc 1 1135 0
 4238 006e FB7F     		ldrb	r3, [r7, #31]	@ zero_extendqisi2
 4239 0070 5A1C     		adds	r2, r3, #1
 4240 0072 FA77     		strb	r2, [r7, #31]
 4241 0074 1A46     		mov	r2, r3
 4242 0076 7B69     		ldr	r3, [r7, #20]
 4243 0078 1344     		add	r3, r3, r2
 4244 007a F622     		movs	r2, #246
 4245 007c 1A71     		strb	r2, [r3, #4]
1136:.\PrimeImpl.c ****             ///THIS IS AN APPLIED CONVENTION ===>> 0x0006 INDEX POSITION WITHIN THE PUMP'S BUFFER P
1137:.\PrimeImpl.c ****             ///THESE CODES MUST BE MATCHED OTHERWISE THE LOGIC WILL BREAKUP THE CODE!
1138:.\PrimeImpl.c ****             puartdisp->_messagetx[index++] = (0xE0 | (0x0F & ppump->_trasactionbuffer[GetBufferInde
 4246              		.loc 1 1138 0
 4247 007e FB7F     		ldrb	r3, [r7, #31]	@ zero_extendqisi2
 4248 0080 5A1C     		adds	r2, r3, #1
 4249 0082 FA77     		strb	r2, [r7, #31]
 4250 0084 1C46     		mov	r4, r3
 4251 0086 0720     		movs	r0, #7
 4252 0088 FFF7FEFF 		bl	GetBufferIndexFromDisplayID
 4253 008c 0346     		mov	r3, r0
 4254 008e 1A46     		mov	r2, r3
 4255 0090 BB69     		ldr	r3, [r7, #24]
 4256 0092 1344     		add	r3, r3, r2
 4257 0094 93F82030 		ldrb	r3, [r3, #32]	@ zero_extendqisi2
 4258 0098 03F00F03 		and	r3, r3, #15
 4259 009c DBB2     		uxtb	r3, r3
 4260 009e 63F01F03 		orn	r3, r3, #31
 4261 00a2 DAB2     		uxtb	r2, r3
 4262 00a4 7B69     		ldr	r3, [r7, #20]
 4263 00a6 2344     		add	r3, r3, r4
ARM GAS  C:\Users\RECEPC~1\AppData\Local\Temp\ccNQP0pp.s 			page 96


 4264 00a8 1A71     		strb	r2, [r3, #4]
1139:.\PrimeImpl.c ****             
1140:.\PrimeImpl.c ****             puartdisp->_messagetx[index++] = 0xF8; //Preset Data next
 4265              		.loc 1 1140 0
 4266 00aa FB7F     		ldrb	r3, [r7, #31]	@ zero_extendqisi2
 4267 00ac 5A1C     		adds	r2, r3, #1
 4268 00ae FA77     		strb	r2, [r7, #31]
 4269 00b0 1A46     		mov	r2, r3
 4270 00b2 7B69     		ldr	r3, [r7, #20]
 4271 00b4 1344     		add	r3, r3, r2
 4272 00b6 F822     		movs	r2, #248
 4273 00b8 1A71     		strb	r2, [r3, #4]
1141:.\PrimeImpl.c ****             //Here we copy the remaining 8 bytes for the preset value
1142:.\PrimeImpl.c ****             ///THIS IS AN APPLIED CONVENTION ===>> 0x0008 INDEX POSITION WITHIN THE PUMP'S BUFFER P
1143:.\PrimeImpl.c ****             ///THESE CODES MUST BE MATCHED OTHERWISE THE LOGIC WILL BREAKUP THE CODE!
1144:.\PrimeImpl.c ****             char8 *ptr = &ppump->_trasactionbuffer[0x0008];
 4274              		.loc 1 1144 0
 4275 00ba BB69     		ldr	r3, [r7, #24]
 4276 00bc 2833     		adds	r3, r3, #40
 4277 00be FB60     		str	r3, [r7, #12]
1145:.\PrimeImpl.c ****             if(_g_dispenserlayoutinfo._presetdigits & 0x01)
 4278              		.loc 1 1145 0
 4279 00c0 364B     		ldr	r3, .L153
 4280 00c2 5B7C     		ldrb	r3, [r3, #17]	@ zero_extendqisi2
 4281 00c4 03F00103 		and	r3, r3, #1
 4282 00c8 002B     		cmp	r3, #0
 4283 00ca 06D0     		beq	.L147
1146:.\PrimeImpl.c ****                 //B78AD90CF552D9B30A(_PUMP_MAXIMUM_PRESET_7_DIGITS_, (LPRAWPTR)ptr);
1147:.\PrimeImpl.c ****                 B78AD90CF552D9B30A(_PUMP_MAXIMUM_PRESET_6_DIGITS_, (LPRAWPTR)ptr);
 4284              		.loc 1 1147 0
 4285 00cc 3448     		ldr	r0, .L153+4
 4286 00ce 4FF00001 		mov	r1, #0
 4287 00d2 FA68     		ldr	r2, [r7, #12]
 4288 00d4 FFF7FEFF 		bl	B78AD90CF552D9B30A
 4289 00d8 05E0     		b	.L148
 4290              	.L147:
1148:.\PrimeImpl.c ****             else
1149:.\PrimeImpl.c ****                 B78AD90CF552D9B30A(_PUMP_MAXIMUM_PRESET_6_DIGITS_, (LPRAWPTR)ptr);
 4291              		.loc 1 1149 0
 4292 00da 3148     		ldr	r0, .L153+4
 4293 00dc 4FF00001 		mov	r1, #0
 4294 00e0 FA68     		ldr	r2, [r7, #12]
 4295 00e2 FFF7FEFF 		bl	B78AD90CF552D9B30A
 4296              	.L148:
1150:.\PrimeImpl.c **** 
1151:.\PrimeImpl.c ****             PSTRBUFFTOGG(PBYTECAST(&ppump->_trasactionbuffer[0x0008]), 0x08);
 4297              		.loc 1 1151 0
 4298 00e6 BB69     		ldr	r3, [r7, #24]
 4299 00e8 2833     		adds	r3, r3, #40
 4300 00ea 1846     		mov	r0, r3
 4301 00ec 0821     		movs	r1, #8
 4302 00ee FFF7FEFF 		bl	PSTRBUFFTOGG
1152:.\PrimeImpl.c ****             if(transtype == 0xF1) //Volume PRESET, then multiply by 1000
 4303              		.loc 1 1152 0
 4304 00f2 FB7C     		ldrb	r3, [r7, #19]	@ zero_extendqisi2
 4305 00f4 F12B     		cmp	r3, #241
 4306 00f6 04D1     		bne	.L149
ARM GAS  C:\Users\RECEPC~1\AppData\Local\Temp\ccNQP0pp.s 			page 97


1153:.\PrimeImpl.c ****                 CastVolumeValue(ptr, 0x08);
 4307              		.loc 1 1153 0
 4308 00f8 F868     		ldr	r0, [r7, #12]
 4309 00fa 0821     		movs	r1, #8
 4310 00fc FFF7FEFF 		bl	CastVolumeValue
 4311 0100 03E0     		b	.L150
 4312              	.L149:
1154:.\PrimeImpl.c ****             else
1155:.\PrimeImpl.c ****                 CastMoneyValue(ptr, 0x08);
 4313              		.loc 1 1155 0
 4314 0102 F868     		ldr	r0, [r7, #12]
 4315 0104 0821     		movs	r1, #8
 4316 0106 FFF7FEFF 		bl	CastMoneyValue
 4317              	.L150:
1156:.\PrimeImpl.c ****                 
1157:.\PrimeImpl.c ****             FOR(uint8 buffndx = 0, buffndx < 8, buffndx++)
 4318              		.loc 1 1157 0
 4319 010a 0023     		movs	r3, #0
 4320 010c BB77     		strb	r3, [r7, #30]
 4321 010e 16E0     		b	.L151
 4322              	.L152:
1158:.\PrimeImpl.c ****                 puartdisp->_messagetx[index++] = (0xE0 | (0x0F & ptr[7 - buffndx])); //Translate fr
 4323              		.loc 1 1158 0 discriminator 3
 4324 0110 FB7F     		ldrb	r3, [r7, #31]	@ zero_extendqisi2
 4325 0112 5A1C     		adds	r2, r3, #1
 4326 0114 FA77     		strb	r2, [r7, #31]
 4327 0116 1946     		mov	r1, r3
 4328 0118 BB7F     		ldrb	r3, [r7, #30]	@ zero_extendqisi2
 4329 011a C3F10703 		rsb	r3, r3, #7
 4330 011e 1A46     		mov	r2, r3
 4331 0120 FB68     		ldr	r3, [r7, #12]
 4332 0122 1344     		add	r3, r3, r2
 4333 0124 1B78     		ldrb	r3, [r3]	@ zero_extendqisi2
 4334 0126 03F00F03 		and	r3, r3, #15
 4335 012a DBB2     		uxtb	r3, r3
 4336 012c 63F01F03 		orn	r3, r3, #31
 4337 0130 DAB2     		uxtb	r2, r3
 4338 0132 7B69     		ldr	r3, [r7, #20]
 4339 0134 0B44     		add	r3, r3, r1
 4340 0136 1A71     		strb	r2, [r3, #4]
1157:.\PrimeImpl.c ****                 puartdisp->_messagetx[index++] = (0xE0 | (0x0F & ptr[7 - buffndx])); //Translate fr
 4341              		.loc 1 1157 0 discriminator 3
 4342 0138 BB7F     		ldrb	r3, [r7, #30]	@ zero_extendqisi2
 4343 013a 0133     		adds	r3, r3, #1
 4344 013c BB77     		strb	r3, [r7, #30]
 4345              	.L151:
1157:.\PrimeImpl.c ****                 puartdisp->_messagetx[index++] = (0xE0 | (0x0F & ptr[7 - buffndx])); //Translate fr
 4346              		.loc 1 1157 0 is_stmt 0 discriminator 1
 4347 013e BB7F     		ldrb	r3, [r7, #30]	@ zero_extendqisi2
 4348 0140 072B     		cmp	r3, #7
 4349 0142 E5D9     		bls	.L152
1159:.\PrimeImpl.c **** 
1160:.\PrimeImpl.c **** 
1161:.\PrimeImpl.c ****             ppump->_presetdone = true;
 4350              		.loc 1 1161 0 is_stmt 1
 4351 0144 BB69     		ldr	r3, [r7, #24]
 4352 0146 0122     		movs	r2, #1
ARM GAS  C:\Users\RECEPC~1\AppData\Local\Temp\ccNQP0pp.s 			page 98


 4353 0148 9A72     		strb	r2, [r3, #10]
1162:.\PrimeImpl.c **** 
1163:.\PrimeImpl.c ****             puartdisp->_messagetx[index++] = LRCn; //LRC next
 4354              		.loc 1 1163 0
 4355 014a FB7F     		ldrb	r3, [r7, #31]	@ zero_extendqisi2
 4356 014c 5A1C     		adds	r2, r3, #1
 4357 014e FA77     		strb	r2, [r7, #31]
 4358 0150 1A46     		mov	r2, r3
 4359 0152 7B69     		ldr	r3, [r7, #20]
 4360 0154 1344     		add	r3, r3, r2
 4361 0156 FB22     		movs	r2, #251
 4362 0158 1A71     		strb	r2, [r3, #4]
1164:.\PrimeImpl.c ****             puartdisp->_messagetx[index++] = GetLRC(puartdisp->_messagetx);
 4363              		.loc 1 1164 0
 4364 015a FB7F     		ldrb	r3, [r7, #31]	@ zero_extendqisi2
 4365 015c 5A1C     		adds	r2, r3, #1
 4366 015e FA77     		strb	r2, [r7, #31]
 4367 0160 1C46     		mov	r4, r3
 4368 0162 7B69     		ldr	r3, [r7, #20]
 4369 0164 0433     		adds	r3, r3, #4
 4370 0166 1846     		mov	r0, r3
 4371 0168 FFF7FEFF 		bl	GetLRC
 4372 016c 0346     		mov	r3, r0
 4373 016e 1A46     		mov	r2, r3
 4374 0170 7B69     		ldr	r3, [r7, #20]
 4375 0172 2344     		add	r3, r3, r4
 4376 0174 1A71     		strb	r2, [r3, #4]
1165:.\PrimeImpl.c ****             puartdisp->_messagetx[index++] = EOM;
 4377              		.loc 1 1165 0
 4378 0176 FB7F     		ldrb	r3, [r7, #31]	@ zero_extendqisi2
 4379 0178 5A1C     		adds	r2, r3, #1
 4380 017a FA77     		strb	r2, [r7, #31]
 4381 017c 1A46     		mov	r2, r3
 4382 017e 7B69     		ldr	r3, [r7, #20]
 4383 0180 1344     		add	r3, r3, r2
 4384 0182 F022     		movs	r2, #240
 4385 0184 1A71     		strb	r2, [r3, #4]
1166:.\PrimeImpl.c **** ///////////////////////////////////////////////////////////////////////////////////////////////////
1167:.\PrimeImpl.c ****             
1168:.\PrimeImpl.c ****             puartdisp->_messagelength = index;
 4386              		.loc 1 1168 0
 4387 0186 FB7F     		ldrb	r3, [r7, #31]	@ zero_extendqisi2
 4388 0188 9AB2     		uxth	r2, r3
 4389 018a 7B69     		ldr	r3, [r7, #20]
 4390 018c 5A80     		strh	r2, [r3, #2]	@ movhi
1169:.\PrimeImpl.c ****             puartdisp->_messagestate = PENDING;
 4391              		.loc 1 1169 0
 4392 018e 7B69     		ldr	r3, [r7, #20]
 4393 0190 C222     		movs	r2, #194
 4394 0192 1A70     		strb	r2, [r3]
 4395              	.L145:
 4396              	.LBE27:
 4397              	.LBE26:
1170:.\PrimeImpl.c ****         }
1171:.\PrimeImpl.c ****     }
1172:.\PrimeImpl.c ****     
1173:.\PrimeImpl.c **** }
ARM GAS  C:\Users\RECEPC~1\AppData\Local\Temp\ccNQP0pp.s 			page 99


 4398              		.loc 1 1173 0
 4399 0194 2437     		adds	r7, r7, #36
 4400              		.cfi_def_cfa_offset 12
 4401 0196 BD46     		mov	sp, r7
 4402              		.cfi_def_cfa_register 13
 4403              		@ sp needed
 4404 0198 90BD     		pop	{r4, r7, pc}
 4405              	.L154:
 4406 019a 00BF     		.align	2
 4407              	.L153:
 4408 019c 00000000 		.word	_g_dispenserlayoutinfo
 4409 01a0 301B0F00 		.word	990000
 4410              		.cfi_endproc
 4411              	.LFE88:
 4412              		.size	PumpFullPresetHose, .-PumpFullPresetHose
 4413              		.section	.text.PumpFullPresetNoHose,"ax",%progbits
 4414              		.align	2
 4415              		.global	PumpFullPresetNoHose
 4416              		.thumb
 4417              		.thumb_func
 4418              		.type	PumpFullPresetNoHose, %function
 4419              	PumpFullPresetNoHose:
 4420              	.LFB89:
1174:.\PrimeImpl.c **** 
1175:.\PrimeImpl.c **** //@Created By: HIJH
1176:.\PrimeImpl.c **** //@Septembre de 2016
1177:.\PrimeImpl.c **** ///////////////////////////////////////////////////////////////////////////////////////////////////
1178:.\PrimeImpl.c **** //Preset values will be placed within the SinkMessage's buffer. This is a convention that applies t
1179:.\PrimeImpl.c **** //all of the available transactions. The pump function must deal with this while it is assembling t
1180:.\PrimeImpl.c **** //For this message the data comes as follows:
1181:.\PrimeImpl.c **** // - First byte is the preset type (Volume:1 / Money:2 )
1182:.\PrimeImpl.c **** // - Second byte is the Hose (A:0, B:1, C:2, D:3)
1183:.\PrimeImpl.c **** // - Block of 8 bytes for the preset value
1184:.\PrimeImpl.c **** //This block of data (10 bytes) must be moved to another position within the same buffer (even posi
1185:.\PrimeImpl.c **** void PumpFullPresetNoHose(void *pparam)
1186:.\PrimeImpl.c **** {
 4421              		.loc 1 1186 0
 4422              		.cfi_startproc
 4423              		@ args = 0, pretend = 0, frame = 32
 4424              		@ frame_needed = 1, uses_anonymous_args = 0
 4425 0000 90B5     		push	{r4, r7, lr}
 4426              		.cfi_def_cfa_offset 12
 4427              		.cfi_offset 4, -12
 4428              		.cfi_offset 7, -8
 4429              		.cfi_offset 14, -4
 4430 0002 89B0     		sub	sp, sp, #36
 4431              		.cfi_def_cfa_offset 48
 4432 0004 00AF     		add	r7, sp, #0
 4433              		.cfi_def_cfa_register 7
 4434 0006 7860     		str	r0, [r7, #4]
1187:.\PrimeImpl.c ****     PNEAR_PUMPPTR ppump = (PNEAR_PUMPPTR)pparam;
 4435              		.loc 1 1187 0
 4436 0008 7B68     		ldr	r3, [r7, #4]
 4437 000a BB61     		str	r3, [r7, #24]
1188:.\PrimeImpl.c ****     if(ppump)
 4438              		.loc 1 1188 0
 4439 000c BB69     		ldr	r3, [r7, #24]
ARM GAS  C:\Users\RECEPC~1\AppData\Local\Temp\ccNQP0pp.s 			page 100


 4440 000e 002B     		cmp	r3, #0
 4441 0010 00F0B580 		beq	.L155
 4442              	.LBB28:
1189:.\PrimeImpl.c ****     {
1190:.\PrimeImpl.c ****         uint8_t index = 0;        
 4443              		.loc 1 1190 0
 4444 0014 0023     		movs	r3, #0
 4445 0016 FB77     		strb	r3, [r7, #31]
1191:.\PrimeImpl.c ****         PUARTMESSAGEPTR puartdisp = GetUARTMessageSlot(UART_DISPENSER);
 4446              		.loc 1 1191 0
 4447 0018 A220     		movs	r0, #162
 4448 001a FFF7FEFF 		bl	GetUARTMessageSlot
 4449 001e 7861     		str	r0, [r7, #20]
1192:.\PrimeImpl.c ****         memset(ppump->_rxbuffer, 0x00, _PUMP_RX_BUFFER_SIZE_);
 4450              		.loc 1 1192 0
 4451 0020 BB69     		ldr	r3, [r7, #24]
 4452 0022 03F5C473 		add	r3, r3, #392
 4453 0026 1846     		mov	r0, r3
 4454 0028 0021     		movs	r1, #0
 4455 002a 4FF4B472 		mov	r2, #360
 4456 002e FFF7FEFF 		bl	memset
1193:.\PrimeImpl.c ****         if(puartdisp)
 4457              		.loc 1 1193 0
 4458 0032 7B69     		ldr	r3, [r7, #20]
 4459 0034 002B     		cmp	r3, #0
 4460 0036 00F0A280 		beq	.L155
 4461              	.LBB29:
1194:.\PrimeImpl.c ****         {
1195:.\PrimeImpl.c ****             //This is required for the "Temination Handler" that will post the preset to the remote
1196:.\PrimeImpl.c ****             ppump->_trasactionbuffer[0x0004] = 0x0F;
 4462              		.loc 1 1196 0
 4463 003a BB69     		ldr	r3, [r7, #24]
 4464 003c 0F22     		movs	r2, #15
 4465 003e 83F82420 		strb	r2, [r3, #36]
1197:.\PrimeImpl.c **** ///////////////////////////////////////////////////////////////////////////////////////////////////
1198:.\PrimeImpl.c ****             puartdisp->_messagetx[index++] = SOM;
 4466              		.loc 1 1198 0
 4467 0042 FB7F     		ldrb	r3, [r7, #31]	@ zero_extendqisi2
 4468 0044 5A1C     		adds	r2, r3, #1
 4469 0046 FA77     		strb	r2, [r7, #31]
 4470 0048 1A46     		mov	r2, r3
 4471 004a 7B69     		ldr	r3, [r7, #20]
 4472 004c 1344     		add	r3, r3, r2
 4473 004e FF22     		movs	r2, #255
 4474 0050 1A71     		strb	r2, [r3, #4]
1199:.\PrimeImpl.c ****             puartdisp->_messagetx[index++] = 0xE3; //Data Length (n = 1 if F4/F5 is not included)
 4475              		.loc 1 1199 0
 4476 0052 FB7F     		ldrb	r3, [r7, #31]	@ zero_extendqisi2
 4477 0054 5A1C     		adds	r2, r3, #1
 4478 0056 FA77     		strb	r2, [r7, #31]
 4479 0058 1A46     		mov	r2, r3
 4480 005a 7B69     		ldr	r3, [r7, #20]
 4481 005c 1344     		add	r3, r3, r2
 4482 005e E322     		movs	r2, #227
 4483 0060 1A71     		strb	r2, [r3, #4]
1200:.\PrimeImpl.c ****             ///THIS IS AN APPLIED CONVENTION ===>> 0x0004 INDEX POSITION WITHIN THE PUMP'S BUFFER P
1201:.\PrimeImpl.c ****             ///THESE CODES MUST BE MATCHED OTHERWISE THE LOGIC WILL BREAKUP THE CODE!
ARM GAS  C:\Users\RECEPC~1\AppData\Local\Temp\ccNQP0pp.s 			page 101


1202:.\PrimeImpl.c ****             uint8 transtype = 0xF1;
 4484              		.loc 1 1202 0
 4485 0062 F123     		movs	r3, #241
 4486 0064 FB74     		strb	r3, [r7, #19]
1203:.\PrimeImpl.c ****             puartdisp->_messagetx[index++] = transtype;//preset type (0xF2 = Money, 0xF1 = Volume)
 4487              		.loc 1 1203 0
 4488 0066 FB7F     		ldrb	r3, [r7, #31]	@ zero_extendqisi2
 4489 0068 5A1C     		adds	r2, r3, #1
 4490 006a FA77     		strb	r2, [r7, #31]
 4491 006c 1A46     		mov	r2, r3
 4492 006e 7B69     		ldr	r3, [r7, #20]
 4493 0070 1344     		add	r3, r3, r2
 4494 0072 FA7C     		ldrb	r2, [r7, #19]
 4495 0074 1A71     		strb	r2, [r3, #4]
1204:.\PrimeImpl.c ****             //puartdisp->_messagetx[index++] = 0xF2;//preset type (0xF2 = Money, 0xF1 = Volume)
1205:.\PrimeImpl.c ****             
1206:.\PrimeImpl.c ****             puartdisp->_messagetx[index++] = 0xF8; //Preset Data next
 4496              		.loc 1 1206 0
 4497 0076 FB7F     		ldrb	r3, [r7, #31]	@ zero_extendqisi2
 4498 0078 5A1C     		adds	r2, r3, #1
 4499 007a FA77     		strb	r2, [r7, #31]
 4500 007c 1A46     		mov	r2, r3
 4501 007e 7B69     		ldr	r3, [r7, #20]
 4502 0080 1344     		add	r3, r3, r2
 4503 0082 F822     		movs	r2, #248
 4504 0084 1A71     		strb	r2, [r3, #4]
1207:.\PrimeImpl.c ****             //Here we copy the remaining 8 bytes for the preset value
1208:.\PrimeImpl.c ****             ///THIS IS AN APPLIED CONVENTION ===>> 0x0008 INDEX POSITION WITHIN THE PUMP'S BUFFER P
1209:.\PrimeImpl.c ****             ///THESE CODES MUST BE MATCHED OTHERWISE THE LOGIC WILL BREAKUP THE CODE!
1210:.\PrimeImpl.c ****             char8 *ptr = &ppump->_trasactionbuffer[0x0008];
 4505              		.loc 1 1210 0
 4506 0086 BB69     		ldr	r3, [r7, #24]
 4507 0088 2833     		adds	r3, r3, #40
 4508 008a FB60     		str	r3, [r7, #12]
1211:.\PrimeImpl.c ****             if(_g_dispenserlayoutinfo._presetdigits & 0x01)
 4509              		.loc 1 1211 0
 4510 008c 3D4B     		ldr	r3, .L163
 4511 008e 5B7C     		ldrb	r3, [r3, #17]	@ zero_extendqisi2
 4512 0090 03F00103 		and	r3, r3, #1
 4513 0094 002B     		cmp	r3, #0
 4514 0096 07D0     		beq	.L157
1212:.\PrimeImpl.c ****                 //B78AD90CF552D9B30A(_PUMP_MAXIMUM_PRESET_7_DIGITS_, (LPRAWPTR)ptr);
1213:.\PrimeImpl.c ****                 B78AD90CF552D9B30A(_PUMP_MAXIMUM_PRESET_GALLONS_, (LPRAWPTR)ptr);
 4515              		.loc 1 1213 0
 4516 0098 40F28A20 		movw	r0, #650
 4517 009c 4FF00001 		mov	r1, #0
 4518 00a0 FA68     		ldr	r2, [r7, #12]
 4519 00a2 FFF7FEFF 		bl	B78AD90CF552D9B30A
 4520 00a6 06E0     		b	.L158
 4521              	.L157:
1214:.\PrimeImpl.c ****             else
1215:.\PrimeImpl.c ****                 //B78AD90CF552D9B30A(_PUMP_MAXIMUM_PRESET_6_DIGITS_, (LPRAWPTR)ptr);
1216:.\PrimeImpl.c ****                 B78AD90CF552D9B30A(_PUMP_MAXIMUM_PRESET_GALLONS_, (LPRAWPTR)ptr);
 4522              		.loc 1 1216 0
 4523 00a8 40F28A20 		movw	r0, #650
 4524 00ac 4FF00001 		mov	r1, #0
 4525 00b0 FA68     		ldr	r2, [r7, #12]
ARM GAS  C:\Users\RECEPC~1\AppData\Local\Temp\ccNQP0pp.s 			page 102


 4526 00b2 FFF7FEFF 		bl	B78AD90CF552D9B30A
 4527              	.L158:
1217:.\PrimeImpl.c **** 
1218:.\PrimeImpl.c ****             PSTRBUFFTOGG(PBYTECAST(&ppump->_trasactionbuffer[0x0008]), 0x08);
 4528              		.loc 1 1218 0
 4529 00b6 BB69     		ldr	r3, [r7, #24]
 4530 00b8 2833     		adds	r3, r3, #40
 4531 00ba 1846     		mov	r0, r3
 4532 00bc 0821     		movs	r1, #8
 4533 00be FFF7FEFF 		bl	PSTRBUFFTOGG
1219:.\PrimeImpl.c ****             //THIS IS ONLY FOR VOLUME PRESETS
1220:.\PrimeImpl.c ****             if(!ppump->_presetdone)
 4534              		.loc 1 1220 0
 4535 00c2 BB69     		ldr	r3, [r7, #24]
 4536 00c4 9B7A     		ldrb	r3, [r3, #10]
 4537 00c6 DBB2     		uxtb	r3, r3
 4538 00c8 83F00103 		eor	r3, r3, #1
 4539 00cc DBB2     		uxtb	r3, r3
 4540 00ce 002B     		cmp	r3, #0
 4541 00d0 0BD0     		beq	.L159
1221:.\PrimeImpl.c ****             {
1222:.\PrimeImpl.c ****                 if(transtype == 0xF1) //Volume PRESET, then multiply by 1000
 4542              		.loc 1 1222 0
 4543 00d2 FB7C     		ldrb	r3, [r7, #19]	@ zero_extendqisi2
 4544 00d4 F12B     		cmp	r3, #241
 4545 00d6 04D1     		bne	.L160
1223:.\PrimeImpl.c ****                     CastVolumeValue(ptr, 0x08);
 4546              		.loc 1 1223 0
 4547 00d8 F868     		ldr	r0, [r7, #12]
 4548 00da 0821     		movs	r1, #8
 4549 00dc FFF7FEFF 		bl	CastVolumeValue
 4550 00e0 03E0     		b	.L159
 4551              	.L160:
1224:.\PrimeImpl.c ****                 else
1225:.\PrimeImpl.c ****                     CastMoneyValue(ptr, 0x08);
 4552              		.loc 1 1225 0
 4553 00e2 F868     		ldr	r0, [r7, #12]
 4554 00e4 0821     		movs	r1, #8
 4555 00e6 FFF7FEFF 		bl	CastMoneyValue
 4556              	.L159:
1226:.\PrimeImpl.c ****                     
1227:.\PrimeImpl.c ****             }
1228:.\PrimeImpl.c ****             ppump->_presetdone = true;
 4557              		.loc 1 1228 0
 4558 00ea BB69     		ldr	r3, [r7, #24]
 4559 00ec 0122     		movs	r2, #1
 4560 00ee 9A72     		strb	r2, [r3, #10]
1229:.\PrimeImpl.c **** 
1230:.\PrimeImpl.c ****             FOR(uint8 buffndx = 0, buffndx < 8, buffndx++)
 4561              		.loc 1 1230 0
 4562 00f0 0023     		movs	r3, #0
 4563 00f2 BB77     		strb	r3, [r7, #30]
 4564 00f4 18E0     		b	.L161
 4565              	.L162:
1231:.\PrimeImpl.c ****                 puartdisp->_messagetx[index++] = (0xE0 | (ptr[7 - buffndx] & 0x0F)); //Translate fr
 4566              		.loc 1 1231 0 discriminator 3
 4567 00f6 FB7F     		ldrb	r3, [r7, #31]	@ zero_extendqisi2
ARM GAS  C:\Users\RECEPC~1\AppData\Local\Temp\ccNQP0pp.s 			page 103


 4568 00f8 5A1C     		adds	r2, r3, #1
 4569 00fa FA77     		strb	r2, [r7, #31]
 4570 00fc 1946     		mov	r1, r3
 4571 00fe BB7F     		ldrb	r3, [r7, #30]	@ zero_extendqisi2
 4572 0100 C3F10703 		rsb	r3, r3, #7
 4573 0104 1A46     		mov	r2, r3
 4574 0106 FB68     		ldr	r3, [r7, #12]
 4575 0108 1344     		add	r3, r3, r2
 4576 010a 1B78     		ldrb	r3, [r3]	@ zero_extendqisi2
 4577 010c DBB2     		uxtb	r3, r3
 4578 010e 03F00F03 		and	r3, r3, #15
 4579 0112 DBB2     		uxtb	r3, r3
 4580 0114 63F01F03 		orn	r3, r3, #31
 4581 0118 DBB2     		uxtb	r3, r3
 4582 011a DAB2     		uxtb	r2, r3
 4583 011c 7B69     		ldr	r3, [r7, #20]
 4584 011e 0B44     		add	r3, r3, r1
 4585 0120 1A71     		strb	r2, [r3, #4]
1230:.\PrimeImpl.c ****                 puartdisp->_messagetx[index++] = (0xE0 | (ptr[7 - buffndx] & 0x0F)); //Translate fr
 4586              		.loc 1 1230 0 discriminator 3
 4587 0122 BB7F     		ldrb	r3, [r7, #30]	@ zero_extendqisi2
 4588 0124 0133     		adds	r3, r3, #1
 4589 0126 BB77     		strb	r3, [r7, #30]
 4590              	.L161:
1230:.\PrimeImpl.c ****                 puartdisp->_messagetx[index++] = (0xE0 | (ptr[7 - buffndx] & 0x0F)); //Translate fr
 4591              		.loc 1 1230 0 is_stmt 0 discriminator 1
 4592 0128 BB7F     		ldrb	r3, [r7, #30]	@ zero_extendqisi2
 4593 012a 072B     		cmp	r3, #7
 4594 012c E3D9     		bls	.L162
1232:.\PrimeImpl.c **** 
1233:.\PrimeImpl.c ****             ppump->_presetdone = true;
 4595              		.loc 1 1233 0 is_stmt 1
 4596 012e BB69     		ldr	r3, [r7, #24]
 4597 0130 0122     		movs	r2, #1
 4598 0132 9A72     		strb	r2, [r3, #10]
1234:.\PrimeImpl.c **** 
1235:.\PrimeImpl.c ****             puartdisp->_messagetx[index++] = 0xFB; //LRC next
 4599              		.loc 1 1235 0
 4600 0134 FB7F     		ldrb	r3, [r7, #31]	@ zero_extendqisi2
 4601 0136 5A1C     		adds	r2, r3, #1
 4602 0138 FA77     		strb	r2, [r7, #31]
 4603 013a 1A46     		mov	r2, r3
 4604 013c 7B69     		ldr	r3, [r7, #20]
 4605 013e 1344     		add	r3, r3, r2
 4606 0140 FB22     		movs	r2, #251
 4607 0142 1A71     		strb	r2, [r3, #4]
1236:.\PrimeImpl.c ****             puartdisp->_messagetx[index++] = GetLRC(puartdisp->_messagetx);
 4608              		.loc 1 1236 0
 4609 0144 FB7F     		ldrb	r3, [r7, #31]	@ zero_extendqisi2
 4610 0146 5A1C     		adds	r2, r3, #1
 4611 0148 FA77     		strb	r2, [r7, #31]
 4612 014a 1C46     		mov	r4, r3
 4613 014c 7B69     		ldr	r3, [r7, #20]
 4614 014e 0433     		adds	r3, r3, #4
 4615 0150 1846     		mov	r0, r3
 4616 0152 FFF7FEFF 		bl	GetLRC
 4617 0156 0346     		mov	r3, r0
ARM GAS  C:\Users\RECEPC~1\AppData\Local\Temp\ccNQP0pp.s 			page 104


 4618 0158 1A46     		mov	r2, r3
 4619 015a 7B69     		ldr	r3, [r7, #20]
 4620 015c 2344     		add	r3, r3, r4
 4621 015e 1A71     		strb	r2, [r3, #4]
1237:.\PrimeImpl.c ****             puartdisp->_messagetx[index++] = EOM;
 4622              		.loc 1 1237 0
 4623 0160 FB7F     		ldrb	r3, [r7, #31]	@ zero_extendqisi2
 4624 0162 5A1C     		adds	r2, r3, #1
 4625 0164 FA77     		strb	r2, [r7, #31]
 4626 0166 1A46     		mov	r2, r3
 4627 0168 7B69     		ldr	r3, [r7, #20]
 4628 016a 1344     		add	r3, r3, r2
 4629 016c F022     		movs	r2, #240
 4630 016e 1A71     		strb	r2, [r3, #4]
1238:.\PrimeImpl.c **** ///////////////////////////////////////////////////////////////////////////////////////////////////
1239:.\PrimeImpl.c ****             
1240:.\PrimeImpl.c ****             puartdisp->_messagelength = index;
 4631              		.loc 1 1240 0
 4632 0170 FB7F     		ldrb	r3, [r7, #31]	@ zero_extendqisi2
 4633 0172 9AB2     		uxth	r2, r3
 4634 0174 7B69     		ldr	r3, [r7, #20]
 4635 0176 5A80     		strh	r2, [r3, #2]	@ movhi
1241:.\PrimeImpl.c ****             puartdisp->_messagestate = PENDING;
 4636              		.loc 1 1241 0
 4637 0178 7B69     		ldr	r3, [r7, #20]
 4638 017a C222     		movs	r2, #194
 4639 017c 1A70     		strb	r2, [r3]
 4640              	.L155:
 4641              	.LBE29:
 4642              	.LBE28:
1242:.\PrimeImpl.c ****         }
1243:.\PrimeImpl.c ****     }
1244:.\PrimeImpl.c ****     
1245:.\PrimeImpl.c **** }
 4643              		.loc 1 1245 0
 4644 017e 2437     		adds	r7, r7, #36
 4645              		.cfi_def_cfa_offset 12
 4646 0180 BD46     		mov	sp, r7
 4647              		.cfi_def_cfa_register 13
 4648              		@ sp needed
 4649 0182 90BD     		pop	{r4, r7, pc}
 4650              	.L164:
 4651              		.align	2
 4652              	.L163:
 4653 0184 00000000 		.word	_g_dispenserlayoutinfo
 4654              		.cfi_endproc
 4655              	.LFE89:
 4656              		.size	PumpFullPresetNoHose, .-PumpFullPresetNoHose
 4657              		.section	.text.PumpPpuChange,"ax",%progbits
 4658              		.align	2
 4659              		.global	PumpPpuChange
 4660              		.thumb
 4661              		.thumb_func
 4662              		.type	PumpPpuChange, %function
 4663              	PumpPpuChange:
 4664              	.LFB90:
1246:.\PrimeImpl.c **** 
ARM GAS  C:\Users\RECEPC~1\AppData\Local\Temp\ccNQP0pp.s 			page 105


1247:.\PrimeImpl.c **** //@Created By: HIJH
1248:.\PrimeImpl.c **** //@Septembre de 2016
1249:.\PrimeImpl.c **** ///////////////////////////////////////////////////////////////////////////////////////////////////
1250:.\PrimeImpl.c **** //PPU value will be placed within the SinkMessage's buffer. This is a convention that applies to 
1251:.\PrimeImpl.c **** //all of the available transactions. The pump function must deal with this while it is assembling t
1252:.\PrimeImpl.c **** //For this message the data comes as follows:
1253:.\PrimeImpl.c **** // - First byte is the Hose (A:0, B:1, C:2, D:3)
1254:.\PrimeImpl.c **** // - Block of 6 bytes for the PPU value
1255:.\PrimeImpl.c **** //This block of data (6 bytes) must be moved to another position within the same buffer (even posit
1256:.\PrimeImpl.c **** void PumpPpuChange(void *pparam)
1257:.\PrimeImpl.c **** {
 4665              		.loc 1 1257 0
 4666              		.cfi_startproc
 4667              		@ args = 0, pretend = 0, frame = 32
 4668              		@ frame_needed = 1, uses_anonymous_args = 0
 4669 0000 B0B5     		push	{r4, r5, r7, lr}
 4670              		.cfi_def_cfa_offset 16
 4671              		.cfi_offset 4, -16
 4672              		.cfi_offset 5, -12
 4673              		.cfi_offset 7, -8
 4674              		.cfi_offset 14, -4
 4675 0002 88B0     		sub	sp, sp, #32
 4676              		.cfi_def_cfa_offset 48
 4677 0004 00AF     		add	r7, sp, #0
 4678              		.cfi_def_cfa_register 7
 4679 0006 7860     		str	r0, [r7, #4]
1258:.\PrimeImpl.c ****     PNEAR_PUMPPTR ppump = (PNEAR_PUMPPTR)pparam;
 4680              		.loc 1 1258 0
 4681 0008 7B68     		ldr	r3, [r7, #4]
 4682 000a BB61     		str	r3, [r7, #24]
1259:.\PrimeImpl.c ****     if(ppump)
 4683              		.loc 1 1259 0
 4684 000c BB69     		ldr	r3, [r7, #24]
 4685 000e 002B     		cmp	r3, #0
 4686 0010 00F02281 		beq	.L165
 4687              	.LBB30:
1260:.\PrimeImpl.c ****     {
1261:.\PrimeImpl.c ****         uint8_t index = 0;  
 4688              		.loc 1 1261 0
 4689 0014 0023     		movs	r3, #0
 4690 0016 FB77     		strb	r3, [r7, #31]
1262:.\PrimeImpl.c ****         memset(ppump->_rxbuffer, 0x00, _PUMP_RX_BUFFER_SIZE_);
 4691              		.loc 1 1262 0
 4692 0018 BB69     		ldr	r3, [r7, #24]
 4693 001a 03F5C473 		add	r3, r3, #392
 4694 001e 1846     		mov	r0, r3
 4695 0020 0021     		movs	r1, #0
 4696 0022 4FF4B472 		mov	r2, #360
 4697 0026 FFF7FEFF 		bl	memset
1263:.\PrimeImpl.c ****         PUARTMESSAGEPTR puartdisp = GetUARTMessageSlot(UART_DISPENSER);
 4698              		.loc 1 1263 0
 4699 002a A220     		movs	r0, #162
 4700 002c FFF7FEFF 		bl	GetUARTMessageSlot
 4701 0030 7861     		str	r0, [r7, #20]
1264:.\PrimeImpl.c ****         if(puartdisp)
 4702              		.loc 1 1264 0
 4703 0032 7B69     		ldr	r3, [r7, #20]
ARM GAS  C:\Users\RECEPC~1\AppData\Local\Temp\ccNQP0pp.s 			page 106


 4704 0034 002B     		cmp	r3, #0
 4705 0036 00F00F81 		beq	.L165
 4706              	.LBB31:
1265:.\PrimeImpl.c ****         {
1266:.\PrimeImpl.c **** ///////////////////////////////////////////////////////////////////////////////////////////////////
1267:.\PrimeImpl.c ****             puartdisp->_messagetx[index++] = SOM;
 4707              		.loc 1 1267 0
 4708 003a FB7F     		ldrb	r3, [r7, #31]	@ zero_extendqisi2
 4709 003c 5A1C     		adds	r2, r3, #1
 4710 003e FA77     		strb	r2, [r7, #31]
 4711 0040 1A46     		mov	r2, r3
 4712 0042 7B69     		ldr	r3, [r7, #20]
 4713 0044 1344     		add	r3, r3, r2
 4714 0046 FF22     		movs	r2, #255
 4715 0048 1A71     		strb	r2, [r3, #4]
1268:.\PrimeImpl.c ****             puartdisp->_messagetx[index++] = 0xE3; //Not used. The Pump will ignore.
 4716              		.loc 1 1268 0
 4717 004a FB7F     		ldrb	r3, [r7, #31]	@ zero_extendqisi2
 4718 004c 5A1C     		adds	r2, r3, #1
 4719 004e FA77     		strb	r2, [r7, #31]
 4720 0050 1A46     		mov	r2, r3
 4721 0052 7B69     		ldr	r3, [r7, #20]
 4722 0054 1344     		add	r3, r3, r2
 4723 0056 E322     		movs	r2, #227
 4724 0058 1A71     		strb	r2, [r3, #4]
1269:.\PrimeImpl.c ****             puartdisp->_messagetx[index++] = 0xF4; //Not used. The Pump will ignore.
 4725              		.loc 1 1269 0
 4726 005a FB7F     		ldrb	r3, [r7, #31]	@ zero_extendqisi2
 4727 005c 5A1C     		adds	r2, r3, #1
 4728 005e FA77     		strb	r2, [r7, #31]
 4729 0060 1A46     		mov	r2, r3
 4730 0062 7B69     		ldr	r3, [r7, #20]
 4731 0064 1344     		add	r3, r3, r2
 4732 0066 F422     		movs	r2, #244
 4733 0068 1A71     		strb	r2, [r3, #4]
1270:.\PrimeImpl.c ****             puartdisp->_messagetx[index++] = 0xF6; //Hose Data next
 4734              		.loc 1 1270 0
 4735 006a FB7F     		ldrb	r3, [r7, #31]	@ zero_extendqisi2
 4736 006c 5A1C     		adds	r2, r3, #1
 4737 006e FA77     		strb	r2, [r7, #31]
 4738 0070 1A46     		mov	r2, r3
 4739 0072 7B69     		ldr	r3, [r7, #20]
 4740 0074 1344     		add	r3, r3, r2
 4741 0076 F622     		movs	r2, #246
 4742 0078 1A71     		strb	r2, [r3, #4]
1271:.\PrimeImpl.c ****             
1272:.\PrimeImpl.c ****             ///THIS IS AN APPLIED CONVENTION ===>> 0x0006 INDEX POSITION WITHIN THE PUMP'S BUFFER P
1273:.\PrimeImpl.c ****             ///THESE CODES MUST BE MATCHED OTHERWISE THE LOGIC WILL BREAKUP THE CODE!
1274:.\PrimeImpl.c ****             puartdisp->_messagetx[index++] = (0xE0 | (0x0F & ppump->_currenthose));
 4743              		.loc 1 1274 0
 4744 007a FB7F     		ldrb	r3, [r7, #31]	@ zero_extendqisi2
 4745 007c 5A1C     		adds	r2, r3, #1
 4746 007e FA77     		strb	r2, [r7, #31]
 4747 0080 1946     		mov	r1, r3
 4748 0082 BB69     		ldr	r3, [r7, #24]
 4749 0084 DB78     		ldrb	r3, [r3, #3]
 4750 0086 DBB2     		uxtb	r3, r3
ARM GAS  C:\Users\RECEPC~1\AppData\Local\Temp\ccNQP0pp.s 			page 107


 4751 0088 03F00F03 		and	r3, r3, #15
 4752 008c DBB2     		uxtb	r3, r3
 4753 008e 63F01F03 		orn	r3, r3, #31
 4754 0092 DAB2     		uxtb	r2, r3
 4755 0094 7B69     		ldr	r3, [r7, #20]
 4756 0096 0B44     		add	r3, r3, r1
 4757 0098 1A71     		strb	r2, [r3, #4]
1275:.\PrimeImpl.c ****             
1276:.\PrimeImpl.c ****             I2CBusLock();
 4758              		.loc 1 1276 0
 4759 009a FFF7FEFF 		bl	I2CBusLock
1277:.\PrimeImpl.c ****             ClearEepromBuffer();
 4760              		.loc 1 1277 0
 4761 009e FFF7FEFF 		bl	ClearEepromBuffer
1278:.\PrimeImpl.c ****             uint16 eeprompage = DispenserGetEepromPPUPageFromPumpID(ppump->_pumpid);
 4762              		.loc 1 1278 0
 4763 00a2 BB69     		ldr	r3, [r7, #24]
 4764 00a4 1B78     		ldrb	r3, [r3]	@ zero_extendqisi2
 4765 00a6 1846     		mov	r0, r3
 4766 00a8 FFF7FEFF 		bl	DispenserGetEepromPPUPageFromPumpID
 4767 00ac 0346     		mov	r3, r0
 4768 00ae 7B82     		strh	r3, [r7, #18]	@ movhi
1279:.\PrimeImpl.c ****             LoadEepromPage(eeprompage);
 4769              		.loc 1 1279 0
 4770 00b0 7B8A     		ldrh	r3, [r7, #18]
 4771 00b2 1846     		mov	r0, r3
 4772 00b4 FFF7FEFF 		bl	LoadEepromPage
1280:.\PrimeImpl.c ****             switch(ppump->_currenthose)
 4773              		.loc 1 1280 0
 4774 00b8 BB69     		ldr	r3, [r7, #24]
 4775 00ba DB78     		ldrb	r3, [r3, #3]
 4776 00bc DBB2     		uxtb	r3, r3
 4777 00be 032B     		cmp	r3, #3
 4778 00c0 60D8     		bhi	.L167
 4779 00c2 01A2     		adr	r2, .L169
 4780 00c4 52F823F0 		ldr	pc, [r2, r3, lsl #2]
 4781              		.p2align 2
 4782              	.L169:
 4783 00c8 D9000000 		.word	.L168+1
 4784 00cc 01010000 		.word	.L170+1
 4785 00d0 2D010000 		.word	.L171+1
 4786 00d4 59010000 		.word	.L172+1
 4787              		.p2align 1
 4788              	.L168:
1281:.\PrimeImpl.c ****             {
1282:.\PrimeImpl.c ****                 case 0x00:
1283:.\PrimeImpl.c ****                 //Six bytes only since the PPU is constrained to this length
1284:.\PrimeImpl.c ****                 memcpy(PBYTECAST(&ppump->_trasactionbuffer[GetBufferIndexFromDisplayID(DISPLAY_PREC
 4789              		.loc 1 1284 0
 4790 00d8 6520     		movs	r0, #101
 4791 00da FFF7FEFF 		bl	GetBufferIndexFromDisplayID
 4792 00de 0346     		mov	r3, r0
 4793 00e0 2033     		adds	r3, r3, #32
 4794 00e2 BA69     		ldr	r2, [r7, #24]
 4795 00e4 D418     		adds	r4, r2, r3
 4796 00e6 FFF7FEFF 		bl	GetEepromBuffer
 4797 00ea 0546     		mov	r5, r0
ARM GAS  C:\Users\RECEPC~1\AppData\Local\Temp\ccNQP0pp.s 			page 108


 4798 00ec 6520     		movs	r0, #101
 4799 00ee FFF7FEFF 		bl	GetBufferLengthFromDisplayID
 4800 00f2 0346     		mov	r3, r0
 4801 00f4 2046     		mov	r0, r4
 4802 00f6 2946     		mov	r1, r5
 4803 00f8 1A46     		mov	r2, r3
 4804 00fa FFF7FEFF 		bl	memcpy
1285:.\PrimeImpl.c ****                 break;
 4805              		.loc 1 1285 0
 4806 00fe 41E0     		b	.L167
 4807              	.L170:
1286:.\PrimeImpl.c ****                 case 0x01:
1287:.\PrimeImpl.c ****                 //Six bytes only since the PPU is constrained to this length
1288:.\PrimeImpl.c ****                 memcpy(PBYTECAST(&ppump->_trasactionbuffer[GetBufferIndexFromDisplayID(DISPLAY_PREC
 4808              		.loc 1 1288 0
 4809 0100 6520     		movs	r0, #101
 4810 0102 FFF7FEFF 		bl	GetBufferIndexFromDisplayID
 4811 0106 0346     		mov	r3, r0
 4812 0108 2033     		adds	r3, r3, #32
 4813 010a BA69     		ldr	r2, [r7, #24]
 4814 010c D518     		adds	r5, r2, r3
 4815 010e FFF7FEFF 		bl	GetEepromBuffer
 4816 0112 0346     		mov	r3, r0
 4817 0114 03F11004 		add	r4, r3, #16
 4818 0118 6520     		movs	r0, #101
 4819 011a FFF7FEFF 		bl	GetBufferLengthFromDisplayID
 4820 011e 0346     		mov	r3, r0
 4821 0120 2846     		mov	r0, r5
 4822 0122 2146     		mov	r1, r4
 4823 0124 1A46     		mov	r2, r3
 4824 0126 FFF7FEFF 		bl	memcpy
1289:.\PrimeImpl.c ****                 break;
 4825              		.loc 1 1289 0
 4826 012a 2BE0     		b	.L167
 4827              	.L171:
1290:.\PrimeImpl.c ****                 case 0x02:
1291:.\PrimeImpl.c ****                 //Six bytes only since the PPU is constrained to this length
1292:.\PrimeImpl.c ****                 memcpy(PBYTECAST(&ppump->_trasactionbuffer[GetBufferIndexFromDisplayID(DISPLAY_PREC
 4828              		.loc 1 1292 0
 4829 012c 6520     		movs	r0, #101
 4830 012e FFF7FEFF 		bl	GetBufferIndexFromDisplayID
 4831 0132 0346     		mov	r3, r0
 4832 0134 2033     		adds	r3, r3, #32
 4833 0136 BA69     		ldr	r2, [r7, #24]
 4834 0138 D518     		adds	r5, r2, r3
 4835 013a FFF7FEFF 		bl	GetEepromBuffer
 4836 013e 0346     		mov	r3, r0
 4837 0140 03F12004 		add	r4, r3, #32
 4838 0144 6520     		movs	r0, #101
 4839 0146 FFF7FEFF 		bl	GetBufferLengthFromDisplayID
 4840 014a 0346     		mov	r3, r0
 4841 014c 2846     		mov	r0, r5
 4842 014e 2146     		mov	r1, r4
 4843 0150 1A46     		mov	r2, r3
 4844 0152 FFF7FEFF 		bl	memcpy
1293:.\PrimeImpl.c ****                 break;
 4845              		.loc 1 1293 0
ARM GAS  C:\Users\RECEPC~1\AppData\Local\Temp\ccNQP0pp.s 			page 109


 4846 0156 15E0     		b	.L167
 4847              	.L172:
1294:.\PrimeImpl.c ****                 case 0x03:
1295:.\PrimeImpl.c ****                 //Six bytes only since the PPU is constrained to this length
1296:.\PrimeImpl.c ****                 memcpy(PBYTECAST(&ppump->_trasactionbuffer[GetBufferIndexFromDisplayID(DISPLAY_PREC
 4848              		.loc 1 1296 0
 4849 0158 6520     		movs	r0, #101
 4850 015a FFF7FEFF 		bl	GetBufferIndexFromDisplayID
 4851 015e 0346     		mov	r3, r0
 4852 0160 2033     		adds	r3, r3, #32
 4853 0162 BA69     		ldr	r2, [r7, #24]
 4854 0164 D518     		adds	r5, r2, r3
 4855 0166 FFF7FEFF 		bl	GetEepromBuffer
 4856 016a 0346     		mov	r3, r0
 4857 016c 03F13004 		add	r4, r3, #48
 4858 0170 6520     		movs	r0, #101
 4859 0172 FFF7FEFF 		bl	GetBufferLengthFromDisplayID
 4860 0176 0346     		mov	r3, r0
 4861 0178 2846     		mov	r0, r5
 4862 017a 2146     		mov	r1, r4
 4863 017c 1A46     		mov	r2, r3
 4864 017e FFF7FEFF 		bl	memcpy
1297:.\PrimeImpl.c ****                 break;
 4865              		.loc 1 1297 0
 4866 0182 00BF     		nop
 4867              	.L167:
1298:.\PrimeImpl.c ****             }
1299:.\PrimeImpl.c ****             I2CBusUnlock();
 4868              		.loc 1 1299 0
 4869 0184 FFF7FEFF 		bl	I2CBusUnlock
1300:.\PrimeImpl.c **** 
1301:.\PrimeImpl.c ****             puartdisp->_messagetx[index++] = 0xF7; //PPU Data next            
 4870              		.loc 1 1301 0
 4871 0188 FB7F     		ldrb	r3, [r7, #31]	@ zero_extendqisi2
 4872 018a 5A1C     		adds	r2, r3, #1
 4873 018c FA77     		strb	r2, [r7, #31]
 4874 018e 1A46     		mov	r2, r3
 4875 0190 7B69     		ldr	r3, [r7, #20]
 4876 0192 1344     		add	r3, r3, r2
 4877 0194 F722     		movs	r2, #247
 4878 0196 1A71     		strb	r2, [r3, #4]
1302:.\PrimeImpl.c ****             //Here we copy the remaining 6 bytes for the preset value
1303:.\PrimeImpl.c ****             ///THIS IS AN APPLIED CONVENTION ===>> 0x0008 INDEX POSITION WITHIN THE PUMP'S BUFFER P
1304:.\PrimeImpl.c ****             ///THESE CODES MUST BE MATCHED OTHERWISE THE LOGIC WILL BREAKUP THE CODE!
1305:.\PrimeImpl.c ****             uint8 bufferlength = GetBufferLengthFromDisplayID(DISPLAY_PRECIO_POR_UNIDAD);
 4879              		.loc 1 1305 0
 4880 0198 6520     		movs	r0, #101
 4881 019a FFF7FEFF 		bl	GetBufferLengthFromDisplayID
 4882 019e 0346     		mov	r3, r0
 4883 01a0 7B74     		strb	r3, [r7, #17]
1306:.\PrimeImpl.c ****             char8 *ptr = &ppump->_trasactionbuffer[GetBufferIndexFromDisplayID(DISPLAY_PRECIO_POR_U
 4884              		.loc 1 1306 0
 4885 01a2 6520     		movs	r0, #101
 4886 01a4 FFF7FEFF 		bl	GetBufferIndexFromDisplayID
 4887 01a8 0346     		mov	r3, r0
 4888 01aa 2033     		adds	r3, r3, #32
 4889 01ac BA69     		ldr	r2, [r7, #24]
ARM GAS  C:\Users\RECEPC~1\AppData\Local\Temp\ccNQP0pp.s 			page 110


 4890 01ae 1344     		add	r3, r3, r2
 4891 01b0 FB60     		str	r3, [r7, #12]
1307:.\PrimeImpl.c ****             uint8 buffndx = 0;
 4892              		.loc 1 1307 0
 4893 01b2 0023     		movs	r3, #0
 4894 01b4 BB77     		strb	r3, [r7, #30]
1308:.\PrimeImpl.c ****             for(; buffndx < 6; buffndx++)
 4895              		.loc 1 1308 0
 4896 01b6 13E0     		b	.L173
 4897              	.L174:
1309:.\PrimeImpl.c ****                 puartdisp->_messagetx[index++] = (0xE0 | (0x0F & ptr[buffndx])); //Translate from A
 4898              		.loc 1 1309 0 discriminator 2
 4899 01b8 FB7F     		ldrb	r3, [r7, #31]	@ zero_extendqisi2
 4900 01ba 5A1C     		adds	r2, r3, #1
 4901 01bc FA77     		strb	r2, [r7, #31]
 4902 01be 1946     		mov	r1, r3
 4903 01c0 BB7F     		ldrb	r3, [r7, #30]	@ zero_extendqisi2
 4904 01c2 FA68     		ldr	r2, [r7, #12]
 4905 01c4 1344     		add	r3, r3, r2
 4906 01c6 1B78     		ldrb	r3, [r3]	@ zero_extendqisi2
 4907 01c8 03F00F03 		and	r3, r3, #15
 4908 01cc DBB2     		uxtb	r3, r3
 4909 01ce 63F01F03 		orn	r3, r3, #31
 4910 01d2 DAB2     		uxtb	r2, r3
 4911 01d4 7B69     		ldr	r3, [r7, #20]
 4912 01d6 0B44     		add	r3, r3, r1
 4913 01d8 1A71     		strb	r2, [r3, #4]
1308:.\PrimeImpl.c ****             for(; buffndx < 6; buffndx++)
 4914              		.loc 1 1308 0 discriminator 2
 4915 01da BB7F     		ldrb	r3, [r7, #30]	@ zero_extendqisi2
 4916 01dc 0133     		adds	r3, r3, #1
 4917 01de BB77     		strb	r3, [r7, #30]
 4918              	.L173:
1308:.\PrimeImpl.c ****             for(; buffndx < 6; buffndx++)
 4919              		.loc 1 1308 0 is_stmt 0 discriminator 1
 4920 01e0 BB7F     		ldrb	r3, [r7, #30]	@ zero_extendqisi2
 4921 01e2 052B     		cmp	r3, #5
 4922 01e4 E8D9     		bls	.L174
1310:.\PrimeImpl.c **** 
1311:.\PrimeImpl.c ****             memset(&ppump->_trasactionbuffer[GetBufferIndexFromDisplayID(DISPLAY_PRECIO_POR_UNIDAD)
 4923              		.loc 1 1311 0 is_stmt 1
 4924 01e6 6520     		movs	r0, #101
 4925 01e8 FFF7FEFF 		bl	GetBufferIndexFromDisplayID
 4926 01ec 0346     		mov	r3, r0
 4927 01ee 2033     		adds	r3, r3, #32
 4928 01f0 BA69     		ldr	r2, [r7, #24]
 4929 01f2 1A44     		add	r2, r2, r3
 4930 01f4 7B7C     		ldrb	r3, [r7, #17]	@ zero_extendqisi2
 4931 01f6 1046     		mov	r0, r2
 4932 01f8 0021     		movs	r1, #0
 4933 01fa 1A46     		mov	r2, r3
 4934 01fc FFF7FEFF 		bl	memset
1312:.\PrimeImpl.c ****             puartdisp->_messagetx[index++] = 0xFB; //LRC next
 4935              		.loc 1 1312 0
 4936 0200 FB7F     		ldrb	r3, [r7, #31]	@ zero_extendqisi2
 4937 0202 5A1C     		adds	r2, r3, #1
 4938 0204 FA77     		strb	r2, [r7, #31]
ARM GAS  C:\Users\RECEPC~1\AppData\Local\Temp\ccNQP0pp.s 			page 111


 4939 0206 1A46     		mov	r2, r3
 4940 0208 7B69     		ldr	r3, [r7, #20]
 4941 020a 1344     		add	r3, r3, r2
 4942 020c FB22     		movs	r2, #251
 4943 020e 1A71     		strb	r2, [r3, #4]
1313:.\PrimeImpl.c ****             puartdisp->_messagetx[index++] = GetLRC(puartdisp->_messagetx);
 4944              		.loc 1 1313 0
 4945 0210 FB7F     		ldrb	r3, [r7, #31]	@ zero_extendqisi2
 4946 0212 5A1C     		adds	r2, r3, #1
 4947 0214 FA77     		strb	r2, [r7, #31]
 4948 0216 1C46     		mov	r4, r3
 4949 0218 7B69     		ldr	r3, [r7, #20]
 4950 021a 0433     		adds	r3, r3, #4
 4951 021c 1846     		mov	r0, r3
 4952 021e FFF7FEFF 		bl	GetLRC
 4953 0222 0346     		mov	r3, r0
 4954 0224 1A46     		mov	r2, r3
 4955 0226 7B69     		ldr	r3, [r7, #20]
 4956 0228 2344     		add	r3, r3, r4
 4957 022a 1A71     		strb	r2, [r3, #4]
1314:.\PrimeImpl.c ****             puartdisp->_messagetx[index++] = EOM;
 4958              		.loc 1 1314 0
 4959 022c FB7F     		ldrb	r3, [r7, #31]	@ zero_extendqisi2
 4960 022e 5A1C     		adds	r2, r3, #1
 4961 0230 FA77     		strb	r2, [r7, #31]
 4962 0232 1A46     		mov	r2, r3
 4963 0234 7B69     		ldr	r3, [r7, #20]
 4964 0236 1344     		add	r3, r3, r2
 4965 0238 F022     		movs	r2, #240
 4966 023a 1A71     		strb	r2, [r3, #4]
1315:.\PrimeImpl.c **** ///////////////////////////////////////////////////////////////////////////////////////////////////
1316:.\PrimeImpl.c ****             
1317:.\PrimeImpl.c ****             puartdisp->_messagelength = index;
 4967              		.loc 1 1317 0
 4968 023c FB7F     		ldrb	r3, [r7, #31]	@ zero_extendqisi2
 4969 023e 9AB2     		uxth	r2, r3
 4970 0240 7B69     		ldr	r3, [r7, #20]
 4971 0242 5A80     		strh	r2, [r3, #2]	@ movhi
1318:.\PrimeImpl.c ****             puartdisp->_messagestate = PENDING;
 4972              		.loc 1 1318 0
 4973 0244 7B69     		ldr	r3, [r7, #20]
 4974 0246 C222     		movs	r2, #194
 4975 0248 1A70     		strb	r2, [r3]
1319:.\PrimeImpl.c ****             
1320:.\PrimeImpl.c ****             ppump->_currenthose++;
 4976              		.loc 1 1320 0
 4977 024a BB69     		ldr	r3, [r7, #24]
 4978 024c DB78     		ldrb	r3, [r3, #3]
 4979 024e DBB2     		uxtb	r3, r3
 4980 0250 0133     		adds	r3, r3, #1
 4981 0252 DAB2     		uxtb	r2, r3
 4982 0254 BB69     		ldr	r3, [r7, #24]
 4983 0256 DA70     		strb	r2, [r3, #3]
 4984              	.L165:
 4985              	.LBE31:
 4986              	.LBE30:
1321:.\PrimeImpl.c ****         }
ARM GAS  C:\Users\RECEPC~1\AppData\Local\Temp\ccNQP0pp.s 			page 112


1322:.\PrimeImpl.c ****     }    
1323:.\PrimeImpl.c **** }
 4987              		.loc 1 1323 0
 4988 0258 2037     		adds	r7, r7, #32
 4989              		.cfi_def_cfa_offset 16
 4990 025a BD46     		mov	sp, r7
 4991              		.cfi_def_cfa_register 13
 4992              		@ sp needed
 4993 025c B0BD     		pop	{r4, r5, r7, pc}
 4994              		.cfi_endproc
 4995              	.LFE90:
 4996              		.size	PumpPpuChange, .-PumpPpuChange
 4997 025e 00BF     		.section	.text.PumpDefault2CreditPpuChange,"ax",%progbits
 4998              		.align	2
 4999              		.global	PumpDefault2CreditPpuChange
 5000              		.thumb
 5001              		.thumb_func
 5002              		.type	PumpDefault2CreditPpuChange, %function
 5003              	PumpDefault2CreditPpuChange:
 5004              	.LFB91:
1324:.\PrimeImpl.c **** 
1325:.\PrimeImpl.c **** void PumpDefault2CreditPpuChange(void *pparam)
1326:.\PrimeImpl.c **** {
 5005              		.loc 1 1326 0
 5006              		.cfi_startproc
 5007              		@ args = 0, pretend = 0, frame = 24
 5008              		@ frame_needed = 1, uses_anonymous_args = 0
 5009 0000 90B5     		push	{r4, r7, lr}
 5010              		.cfi_def_cfa_offset 12
 5011              		.cfi_offset 4, -12
 5012              		.cfi_offset 7, -8
 5013              		.cfi_offset 14, -4
 5014 0002 87B0     		sub	sp, sp, #28
 5015              		.cfi_def_cfa_offset 40
 5016 0004 00AF     		add	r7, sp, #0
 5017              		.cfi_def_cfa_register 7
 5018 0006 7860     		str	r0, [r7, #4]
1327:.\PrimeImpl.c ****     PNEAR_PUMPPTR ppump = (PNEAR_PUMPPTR)pparam;
 5019              		.loc 1 1327 0
 5020 0008 7B68     		ldr	r3, [r7, #4]
 5021 000a 3B61     		str	r3, [r7, #16]
1328:.\PrimeImpl.c ****     if(ppump)
 5022              		.loc 1 1328 0
 5023 000c 3B69     		ldr	r3, [r7, #16]
 5024 000e 002B     		cmp	r3, #0
 5025 0010 00F09D80 		beq	.L175
 5026              	.LBB32:
1329:.\PrimeImpl.c ****     {
1330:.\PrimeImpl.c ****         uint8_t index = 0;  
 5027              		.loc 1 1330 0
 5028 0014 0023     		movs	r3, #0
 5029 0016 FB75     		strb	r3, [r7, #23]
1331:.\PrimeImpl.c ****         memset(ppump->_rxbuffer, 0x00, _PUMP_RX_BUFFER_SIZE_);
 5030              		.loc 1 1331 0
 5031 0018 3B69     		ldr	r3, [r7, #16]
 5032 001a 03F5C473 		add	r3, r3, #392
 5033 001e 1846     		mov	r0, r3
ARM GAS  C:\Users\RECEPC~1\AppData\Local\Temp\ccNQP0pp.s 			page 113


 5034 0020 0021     		movs	r1, #0
 5035 0022 4FF4B472 		mov	r2, #360
 5036 0026 FFF7FEFF 		bl	memset
1332:.\PrimeImpl.c ****         PUARTMESSAGEPTR puartdisp = GetUARTMessageSlot(UART_DISPENSER);
 5037              		.loc 1 1332 0
 5038 002a A220     		movs	r0, #162
 5039 002c FFF7FEFF 		bl	GetUARTMessageSlot
 5040 0030 F860     		str	r0, [r7, #12]
1333:.\PrimeImpl.c ****         if(puartdisp)
 5041              		.loc 1 1333 0
 5042 0032 FB68     		ldr	r3, [r7, #12]
 5043 0034 002B     		cmp	r3, #0
 5044 0036 00F08A80 		beq	.L175
 5045              	.LBB33:
1334:.\PrimeImpl.c ****         {
1335:.\PrimeImpl.c **** ///////////////////////////////////////////////////////////////////////////////////////////////////
1336:.\PrimeImpl.c ****             puartdisp->_messagetx[index++] = SOM;
 5046              		.loc 1 1336 0
 5047 003a FB7D     		ldrb	r3, [r7, #23]	@ zero_extendqisi2
 5048 003c 5A1C     		adds	r2, r3, #1
 5049 003e FA75     		strb	r2, [r7, #23]
 5050 0040 1A46     		mov	r2, r3
 5051 0042 FB68     		ldr	r3, [r7, #12]
 5052 0044 1344     		add	r3, r3, r2
 5053 0046 FF22     		movs	r2, #255
 5054 0048 1A71     		strb	r2, [r3, #4]
1337:.\PrimeImpl.c ****             puartdisp->_messagetx[index++] = 0xE3; //Not used. The Pump will ignore.
 5055              		.loc 1 1337 0
 5056 004a FB7D     		ldrb	r3, [r7, #23]	@ zero_extendqisi2
 5057 004c 5A1C     		adds	r2, r3, #1
 5058 004e FA75     		strb	r2, [r7, #23]
 5059 0050 1A46     		mov	r2, r3
 5060 0052 FB68     		ldr	r3, [r7, #12]
 5061 0054 1344     		add	r3, r3, r2
 5062 0056 E322     		movs	r2, #227
 5063 0058 1A71     		strb	r2, [r3, #4]
1338:.\PrimeImpl.c ****             puartdisp->_messagetx[index++] = 0xF4; //Not used. The Pump will ignore.
 5064              		.loc 1 1338 0
 5065 005a FB7D     		ldrb	r3, [r7, #23]	@ zero_extendqisi2
 5066 005c 5A1C     		adds	r2, r3, #1
 5067 005e FA75     		strb	r2, [r7, #23]
 5068 0060 1A46     		mov	r2, r3
 5069 0062 FB68     		ldr	r3, [r7, #12]
 5070 0064 1344     		add	r3, r3, r2
 5071 0066 F422     		movs	r2, #244
 5072 0068 1A71     		strb	r2, [r3, #4]
1339:.\PrimeImpl.c ****             puartdisp->_messagetx[index++] = 0xF6; //Hose Data next
 5073              		.loc 1 1339 0
 5074 006a FB7D     		ldrb	r3, [r7, #23]	@ zero_extendqisi2
 5075 006c 5A1C     		adds	r2, r3, #1
 5076 006e FA75     		strb	r2, [r7, #23]
 5077 0070 1A46     		mov	r2, r3
 5078 0072 FB68     		ldr	r3, [r7, #12]
 5079 0074 1344     		add	r3, r3, r2
 5080 0076 F622     		movs	r2, #246
 5081 0078 1A71     		strb	r2, [r3, #4]
1340:.\PrimeImpl.c ****             ///THIS IS AN APPLIED CONVENTION ===>> 0x0006 INDEX POSITION WITHIN THE PUMP'S BUFFER P
ARM GAS  C:\Users\RECEPC~1\AppData\Local\Temp\ccNQP0pp.s 			page 114


1341:.\PrimeImpl.c ****             ///THESE CODES MUST BE MATCHED OTHERWISE THE LOGIC WILL BREAKUP THE CODE!
1342:.\PrimeImpl.c ****             puartdisp->_messagetx[index++] = (0xE0 | ppump->_authorizationinfo._hoseid);
 5082              		.loc 1 1342 0
 5083 007a FB7D     		ldrb	r3, [r7, #23]	@ zero_extendqisi2
 5084 007c 5A1C     		adds	r2, r3, #1
 5085 007e FA75     		strb	r2, [r7, #23]
 5086 0080 1946     		mov	r1, r3
 5087 0082 3B69     		ldr	r3, [r7, #16]
 5088 0084 93F87239 		ldrb	r3, [r3, #2418]
 5089 0088 DBB2     		uxtb	r3, r3
 5090 008a 63F01F03 		orn	r3, r3, #31
 5091 008e DAB2     		uxtb	r2, r3
 5092 0090 FB68     		ldr	r3, [r7, #12]
 5093 0092 0B44     		add	r3, r3, r1
 5094 0094 1A71     		strb	r2, [r3, #4]
1343:.\PrimeImpl.c ****             
1344:.\PrimeImpl.c ****             puartdisp->_messagetx[index++] = 0xF7; //PPU Data next            
 5095              		.loc 1 1344 0
 5096 0096 FB7D     		ldrb	r3, [r7, #23]	@ zero_extendqisi2
 5097 0098 5A1C     		adds	r2, r3, #1
 5098 009a FA75     		strb	r2, [r7, #23]
 5099 009c 1A46     		mov	r2, r3
 5100 009e FB68     		ldr	r3, [r7, #12]
 5101 00a0 1344     		add	r3, r3, r2
 5102 00a2 F722     		movs	r2, #247
 5103 00a4 1A71     		strb	r2, [r3, #4]
1345:.\PrimeImpl.c ****             //Here we copy the remaining 6 bytes for the preset value
1346:.\PrimeImpl.c ****             ///THIS IS AN APPLIED CONVENTION ===>> 0x0008 INDEX POSITION WITHIN THE PUMP'S BUFFER P
1347:.\PrimeImpl.c ****             ///THESE CODES MUST BE MATCHED OTHERWISE THE LOGIC WILL BREAKUP THE CODE!
1348:.\PrimeImpl.c ****             B78AD90CF552D9B30A(ppump->_authorizationinfo._price, PBYTECAST(&ppump->_trasactionbuffe
 5104              		.loc 1 1348 0
 5105 00a6 3B69     		ldr	r3, [r7, #16]
 5106 00a8 B3F87439 		ldrh	r3, [r3, #2420]	@ movhi
 5107 00ac 9BB2     		uxth	r3, r3
 5108 00ae 9AB2     		uxth	r2, r3
 5109 00b0 4FF00003 		mov	r3, #0
 5110 00b4 3969     		ldr	r1, [r7, #16]
 5111 00b6 01F12804 		add	r4, r1, #40
 5112 00ba 1046     		mov	r0, r2
 5113 00bc 1946     		mov	r1, r3
 5114 00be 2246     		mov	r2, r4
 5115 00c0 FFF7FEFF 		bl	B78AD90CF552D9B30A
1349:.\PrimeImpl.c ****             char8 *ptr = &ppump->_trasactionbuffer[0x0008];
 5116              		.loc 1 1349 0
 5117 00c4 3B69     		ldr	r3, [r7, #16]
 5118 00c6 2833     		adds	r3, r3, #40
 5119 00c8 BB60     		str	r3, [r7, #8]
1350:.\PrimeImpl.c ****             FOR(uint8 buffndx = 0, buffndx < 6, buffndx++)
 5120              		.loc 1 1350 0
 5121 00ca 0023     		movs	r3, #0
 5122 00cc BB75     		strb	r3, [r7, #22]
 5123 00ce 13E0     		b	.L177
 5124              	.L178:
1351:.\PrimeImpl.c ****                 puartdisp->_messagetx[index++] = (0xE0 | (0x0F & ptr[buffndx])); //Translate from A
 5125              		.loc 1 1351 0 discriminator 3
 5126 00d0 FB7D     		ldrb	r3, [r7, #23]	@ zero_extendqisi2
 5127 00d2 5A1C     		adds	r2, r3, #1
ARM GAS  C:\Users\RECEPC~1\AppData\Local\Temp\ccNQP0pp.s 			page 115


 5128 00d4 FA75     		strb	r2, [r7, #23]
 5129 00d6 1946     		mov	r1, r3
 5130 00d8 BB7D     		ldrb	r3, [r7, #22]	@ zero_extendqisi2
 5131 00da BA68     		ldr	r2, [r7, #8]
 5132 00dc 1344     		add	r3, r3, r2
 5133 00de 1B78     		ldrb	r3, [r3]	@ zero_extendqisi2
 5134 00e0 03F00F03 		and	r3, r3, #15
 5135 00e4 DBB2     		uxtb	r3, r3
 5136 00e6 63F01F03 		orn	r3, r3, #31
 5137 00ea DAB2     		uxtb	r2, r3
 5138 00ec FB68     		ldr	r3, [r7, #12]
 5139 00ee 0B44     		add	r3, r3, r1
 5140 00f0 1A71     		strb	r2, [r3, #4]
1350:.\PrimeImpl.c ****             FOR(uint8 buffndx = 0, buffndx < 6, buffndx++)
 5141              		.loc 1 1350 0 discriminator 3
 5142 00f2 BB7D     		ldrb	r3, [r7, #22]	@ zero_extendqisi2
 5143 00f4 0133     		adds	r3, r3, #1
 5144 00f6 BB75     		strb	r3, [r7, #22]
 5145              	.L177:
1350:.\PrimeImpl.c ****             FOR(uint8 buffndx = 0, buffndx < 6, buffndx++)
 5146              		.loc 1 1350 0 is_stmt 0 discriminator 1
 5147 00f8 BB7D     		ldrb	r3, [r7, #22]	@ zero_extendqisi2
 5148 00fa 052B     		cmp	r3, #5
 5149 00fc E8D9     		bls	.L178
1352:.\PrimeImpl.c ****             
1353:.\PrimeImpl.c ****             puartdisp->_messagetx[index++] = 0xFB; //LRC next
 5150              		.loc 1 1353 0 is_stmt 1
 5151 00fe FB7D     		ldrb	r3, [r7, #23]	@ zero_extendqisi2
 5152 0100 5A1C     		adds	r2, r3, #1
 5153 0102 FA75     		strb	r2, [r7, #23]
 5154 0104 1A46     		mov	r2, r3
 5155 0106 FB68     		ldr	r3, [r7, #12]
 5156 0108 1344     		add	r3, r3, r2
 5157 010a FB22     		movs	r2, #251
 5158 010c 1A71     		strb	r2, [r3, #4]
1354:.\PrimeImpl.c ****             puartdisp->_messagetx[index++] = GetLRC(puartdisp->_messagetx);
 5159              		.loc 1 1354 0
 5160 010e FB7D     		ldrb	r3, [r7, #23]	@ zero_extendqisi2
 5161 0110 5A1C     		adds	r2, r3, #1
 5162 0112 FA75     		strb	r2, [r7, #23]
 5163 0114 1C46     		mov	r4, r3
 5164 0116 FB68     		ldr	r3, [r7, #12]
 5165 0118 0433     		adds	r3, r3, #4
 5166 011a 1846     		mov	r0, r3
 5167 011c FFF7FEFF 		bl	GetLRC
 5168 0120 0346     		mov	r3, r0
 5169 0122 1A46     		mov	r2, r3
 5170 0124 FB68     		ldr	r3, [r7, #12]
 5171 0126 2344     		add	r3, r3, r4
 5172 0128 1A71     		strb	r2, [r3, #4]
1355:.\PrimeImpl.c ****             puartdisp->_messagetx[index++] = EOM;
 5173              		.loc 1 1355 0
 5174 012a FB7D     		ldrb	r3, [r7, #23]	@ zero_extendqisi2
 5175 012c 5A1C     		adds	r2, r3, #1
 5176 012e FA75     		strb	r2, [r7, #23]
 5177 0130 1A46     		mov	r2, r3
 5178 0132 FB68     		ldr	r3, [r7, #12]
ARM GAS  C:\Users\RECEPC~1\AppData\Local\Temp\ccNQP0pp.s 			page 116


 5179 0134 1344     		add	r3, r3, r2
 5180 0136 F022     		movs	r2, #240
 5181 0138 1A71     		strb	r2, [r3, #4]
1356:.\PrimeImpl.c **** ///////////////////////////////////////////////////////////////////////////////////////////////////
1357:.\PrimeImpl.c ****             
1358:.\PrimeImpl.c ****             puartdisp->_messagelength = index;
 5182              		.loc 1 1358 0
 5183 013a FB7D     		ldrb	r3, [r7, #23]	@ zero_extendqisi2
 5184 013c 9AB2     		uxth	r2, r3
 5185 013e FB68     		ldr	r3, [r7, #12]
 5186 0140 5A80     		strh	r2, [r3, #2]	@ movhi
1359:.\PrimeImpl.c ****             puartdisp->_messagestate = PENDING;
 5187              		.loc 1 1359 0
 5188 0142 FB68     		ldr	r3, [r7, #12]
 5189 0144 C222     		movs	r2, #194
 5190 0146 1A70     		strb	r2, [r3]
1360:.\PrimeImpl.c ****             
1361:.\PrimeImpl.c ****             //This marker flag is set to notify the transactional engine about the price restore re
1362:.\PrimeImpl.c ****             ppump->_restoreprice = true;
 5191              		.loc 1 1362 0
 5192 0148 3B69     		ldr	r3, [r7, #16]
 5193 014a 0122     		movs	r2, #1
 5194 014c 5A72     		strb	r2, [r3, #9]
 5195              	.L175:
 5196              	.LBE33:
 5197              	.LBE32:
1363:.\PrimeImpl.c ****         }
1364:.\PrimeImpl.c ****     }    
1365:.\PrimeImpl.c **** }
 5198              		.loc 1 1365 0
 5199 014e 1C37     		adds	r7, r7, #28
 5200              		.cfi_def_cfa_offset 12
 5201 0150 BD46     		mov	sp, r7
 5202              		.cfi_def_cfa_register 13
 5203              		@ sp needed
 5204 0152 90BD     		pop	{r4, r7, pc}
 5205              		.cfi_endproc
 5206              	.LFE91:
 5207              		.size	PumpDefault2CreditPpuChange, .-PumpDefault2CreditPpuChange
 5208              		.section	.text.PumpCredit2DefaultPpuChange,"ax",%progbits
 5209              		.align	2
 5210              		.global	PumpCredit2DefaultPpuChange
 5211              		.thumb
 5212              		.thumb_func
 5213              		.type	PumpCredit2DefaultPpuChange, %function
 5214              	PumpCredit2DefaultPpuChange:
 5215              	.LFB92:
1366:.\PrimeImpl.c **** 
1367:.\PrimeImpl.c **** void PumpCredit2DefaultPpuChange(void *pparam)
1368:.\PrimeImpl.c **** {
 5216              		.loc 1 1368 0
 5217              		.cfi_startproc
 5218              		@ args = 0, pretend = 0, frame = 32
 5219              		@ frame_needed = 1, uses_anonymous_args = 0
 5220 0000 90B5     		push	{r4, r7, lr}
 5221              		.cfi_def_cfa_offset 12
 5222              		.cfi_offset 4, -12
ARM GAS  C:\Users\RECEPC~1\AppData\Local\Temp\ccNQP0pp.s 			page 117


 5223              		.cfi_offset 7, -8
 5224              		.cfi_offset 14, -4
 5225 0002 89B0     		sub	sp, sp, #36
 5226              		.cfi_def_cfa_offset 48
 5227 0004 00AF     		add	r7, sp, #0
 5228              		.cfi_def_cfa_register 7
 5229 0006 7860     		str	r0, [r7, #4]
1369:.\PrimeImpl.c ****     PNEAR_PUMPPTR ppump = (PNEAR_PUMPPTR)pparam;
 5230              		.loc 1 1369 0
 5231 0008 7B68     		ldr	r3, [r7, #4]
 5232 000a BB61     		str	r3, [r7, #24]
1370:.\PrimeImpl.c ****     if(ppump)
 5233              		.loc 1 1370 0
 5234 000c BB69     		ldr	r3, [r7, #24]
 5235 000e 002B     		cmp	r3, #0
 5236 0010 00F0E480 		beq	.L179
 5237              	.LBB34:
1371:.\PrimeImpl.c ****     {
1372:.\PrimeImpl.c ****         uint8_t index = 0;  
 5238              		.loc 1 1372 0
 5239 0014 0023     		movs	r3, #0
 5240 0016 FB77     		strb	r3, [r7, #31]
1373:.\PrimeImpl.c ****         memset(ppump->_rxbuffer, 0x00, _PUMP_RX_BUFFER_SIZE_);
 5241              		.loc 1 1373 0
 5242 0018 BB69     		ldr	r3, [r7, #24]
 5243 001a 03F5C473 		add	r3, r3, #392
 5244 001e 1846     		mov	r0, r3
 5245 0020 0021     		movs	r1, #0
 5246 0022 4FF4B472 		mov	r2, #360
 5247 0026 FFF7FEFF 		bl	memset
1374:.\PrimeImpl.c ****         PUARTMESSAGEPTR puartdisp = GetUARTMessageSlot(UART_DISPENSER);
 5248              		.loc 1 1374 0
 5249 002a A220     		movs	r0, #162
 5250 002c FFF7FEFF 		bl	GetUARTMessageSlot
 5251 0030 7861     		str	r0, [r7, #20]
1375:.\PrimeImpl.c ****         if(puartdisp)
 5252              		.loc 1 1375 0
 5253 0032 7B69     		ldr	r3, [r7, #20]
 5254 0034 002B     		cmp	r3, #0
 5255 0036 00F0CE80 		beq	.L181
 5256              	.LBB35:
1376:.\PrimeImpl.c ****         {
1377:.\PrimeImpl.c **** ///////////////////////////////////////////////////////////////////////////////////////////////////
1378:.\PrimeImpl.c ****             puartdisp->_messagetx[index++] = SOM;
 5257              		.loc 1 1378 0
 5258 003a FB7F     		ldrb	r3, [r7, #31]	@ zero_extendqisi2
 5259 003c 5A1C     		adds	r2, r3, #1
 5260 003e FA77     		strb	r2, [r7, #31]
 5261 0040 1A46     		mov	r2, r3
 5262 0042 7B69     		ldr	r3, [r7, #20]
 5263 0044 1344     		add	r3, r3, r2
 5264 0046 FF22     		movs	r2, #255
 5265 0048 1A71     		strb	r2, [r3, #4]
1379:.\PrimeImpl.c ****             puartdisp->_messagetx[index++] = 0xE3; //Not used. The Pump will ignore.
 5266              		.loc 1 1379 0
 5267 004a FB7F     		ldrb	r3, [r7, #31]	@ zero_extendqisi2
 5268 004c 5A1C     		adds	r2, r3, #1
ARM GAS  C:\Users\RECEPC~1\AppData\Local\Temp\ccNQP0pp.s 			page 118


 5269 004e FA77     		strb	r2, [r7, #31]
 5270 0050 1A46     		mov	r2, r3
 5271 0052 7B69     		ldr	r3, [r7, #20]
 5272 0054 1344     		add	r3, r3, r2
 5273 0056 E322     		movs	r2, #227
 5274 0058 1A71     		strb	r2, [r3, #4]
1380:.\PrimeImpl.c ****             puartdisp->_messagetx[index++] = 0xF4; //Not used. The Pump will ignore.
 5275              		.loc 1 1380 0
 5276 005a FB7F     		ldrb	r3, [r7, #31]	@ zero_extendqisi2
 5277 005c 5A1C     		adds	r2, r3, #1
 5278 005e FA77     		strb	r2, [r7, #31]
 5279 0060 1A46     		mov	r2, r3
 5280 0062 7B69     		ldr	r3, [r7, #20]
 5281 0064 1344     		add	r3, r3, r2
 5282 0066 F422     		movs	r2, #244
 5283 0068 1A71     		strb	r2, [r3, #4]
1381:.\PrimeImpl.c ****             puartdisp->_messagetx[index++] = 0xF6; //Hose Data next
 5284              		.loc 1 1381 0
 5285 006a FB7F     		ldrb	r3, [r7, #31]	@ zero_extendqisi2
 5286 006c 5A1C     		adds	r2, r3, #1
 5287 006e FA77     		strb	r2, [r7, #31]
 5288 0070 1A46     		mov	r2, r3
 5289 0072 7B69     		ldr	r3, [r7, #20]
 5290 0074 1344     		add	r3, r3, r2
 5291 0076 F622     		movs	r2, #246
 5292 0078 1A71     		strb	r2, [r3, #4]
1382:.\PrimeImpl.c ****             ///THIS IS AN APPLIED CONVENTION ===>> 0x0006 INDEX POSITION WITHIN THE PUMP'S BUFFER P
1383:.\PrimeImpl.c ****             ///THESE CODES MUST BE MATCHED OTHERWISE THE LOGIC WILL BREAKUP THE CODE!
1384:.\PrimeImpl.c ****             puartdisp->_messagetx[index++] = (0xE0 | ppump->_authorizationinfo._hoseid);
 5293              		.loc 1 1384 0
 5294 007a FB7F     		ldrb	r3, [r7, #31]	@ zero_extendqisi2
 5295 007c 5A1C     		adds	r2, r3, #1
 5296 007e FA77     		strb	r2, [r7, #31]
 5297 0080 1946     		mov	r1, r3
 5298 0082 BB69     		ldr	r3, [r7, #24]
 5299 0084 93F87239 		ldrb	r3, [r3, #2418]
 5300 0088 DBB2     		uxtb	r3, r3
 5301 008a 63F01F03 		orn	r3, r3, #31
 5302 008e DAB2     		uxtb	r2, r3
 5303 0090 7B69     		ldr	r3, [r7, #20]
 5304 0092 0B44     		add	r3, r3, r1
 5305 0094 1A71     		strb	r2, [r3, #4]
1385:.\PrimeImpl.c **** 
1386:.\PrimeImpl.c ****             puartdisp->_messagetx[index++] = 0xF7; //PPU Data next
 5306              		.loc 1 1386 0
 5307 0096 FB7F     		ldrb	r3, [r7, #31]	@ zero_extendqisi2
 5308 0098 5A1C     		adds	r2, r3, #1
 5309 009a FA77     		strb	r2, [r7, #31]
 5310 009c 1A46     		mov	r2, r3
 5311 009e 7B69     		ldr	r3, [r7, #20]
 5312 00a0 1344     		add	r3, r3, r2
 5313 00a2 F722     		movs	r2, #247
 5314 00a4 1A71     		strb	r2, [r3, #4]
1387:.\PrimeImpl.c ****             
1388:.\PrimeImpl.c ****             I2CBusLock();
 5315              		.loc 1 1388 0
 5316 00a6 FFF7FEFF 		bl	I2CBusLock
ARM GAS  C:\Users\RECEPC~1\AppData\Local\Temp\ccNQP0pp.s 			page 119


1389:.\PrimeImpl.c ****             ClearEepromBuffer();
 5317              		.loc 1 1389 0
 5318 00aa FFF7FEFF 		bl	ClearEepromBuffer
1390:.\PrimeImpl.c ****             uint16 eeprompage = DispenserGetEepromPPUPageFromPumpID(ppump->_pumpid);
 5319              		.loc 1 1390 0
 5320 00ae BB69     		ldr	r3, [r7, #24]
 5321 00b0 1B78     		ldrb	r3, [r3]	@ zero_extendqisi2
 5322 00b2 1846     		mov	r0, r3
 5323 00b4 FFF7FEFF 		bl	DispenserGetEepromPPUPageFromPumpID
 5324 00b8 0346     		mov	r3, r0
 5325 00ba 7B82     		strh	r3, [r7, #18]	@ movhi
1391:.\PrimeImpl.c ****             LoadEepromPage(eeprompage);
 5326              		.loc 1 1391 0
 5327 00bc 7B8A     		ldrh	r3, [r7, #18]
 5328 00be 1846     		mov	r0, r3
 5329 00c0 FFF7FEFF 		bl	LoadEepromPage
1392:.\PrimeImpl.c ****             switch(ppump->_authorizationinfo._hoseid)
 5330              		.loc 1 1392 0
 5331 00c4 BB69     		ldr	r3, [r7, #24]
 5332 00c6 93F87239 		ldrb	r3, [r3, #2418]
 5333 00ca DBB2     		uxtb	r3, r3
 5334 00cc 032B     		cmp	r3, #3
 5335 00ce 3ED8     		bhi	.L182
 5336 00d0 01A2     		adr	r2, .L184
 5337 00d2 52F823F0 		ldr	pc, [r2, r3, lsl #2]
 5338 00d6 00BF     		.p2align 2
 5339              	.L184:
 5340 00d8 E9000000 		.word	.L183+1
 5341 00dc 01010000 		.word	.L185+1
 5342 00e0 1B010000 		.word	.L186+1
 5343 00e4 35010000 		.word	.L187+1
 5344              		.p2align 1
 5345              	.L183:
1393:.\PrimeImpl.c ****             {
1394:.\PrimeImpl.c ****                 case 0x00:
1395:.\PrimeImpl.c ****                 //Six bytes only since the PPU is constrained to this length
1396:.\PrimeImpl.c ****                 memcpy(PBYTECAST(&ppump->_trasactionbuffer[0x0008]), &GetEepromBuffer()[_EEPROM_PAG
 5346              		.loc 1 1396 0
 5347 00e8 BB69     		ldr	r3, [r7, #24]
 5348 00ea 03F12804 		add	r4, r3, #40
 5349 00ee FFF7FEFF 		bl	GetEepromBuffer
 5350 00f2 0346     		mov	r3, r0
 5351 00f4 2046     		mov	r0, r4
 5352 00f6 1946     		mov	r1, r3
 5353 00f8 0622     		movs	r2, #6
 5354 00fa FFF7FEFF 		bl	memcpy
1397:.\PrimeImpl.c ****                 break;
 5355              		.loc 1 1397 0
 5356 00fe 26E0     		b	.L182
 5357              	.L185:
1398:.\PrimeImpl.c ****                 case 0x01:
1399:.\PrimeImpl.c ****                 //Six bytes only since the PPU is constrained to this length
1400:.\PrimeImpl.c ****                 memcpy(PBYTECAST(&ppump->_trasactionbuffer[0x0008]), &GetEepromBuffer()[_EEPROM_PAG
 5358              		.loc 1 1400 0
 5359 0100 BB69     		ldr	r3, [r7, #24]
 5360 0102 03F12804 		add	r4, r3, #40
 5361 0106 FFF7FEFF 		bl	GetEepromBuffer
ARM GAS  C:\Users\RECEPC~1\AppData\Local\Temp\ccNQP0pp.s 			page 120


 5362 010a 0346     		mov	r3, r0
 5363 010c 1033     		adds	r3, r3, #16
 5364 010e 2046     		mov	r0, r4
 5365 0110 1946     		mov	r1, r3
 5366 0112 0622     		movs	r2, #6
 5367 0114 FFF7FEFF 		bl	memcpy
1401:.\PrimeImpl.c ****                 break;
 5368              		.loc 1 1401 0
 5369 0118 19E0     		b	.L182
 5370              	.L186:
1402:.\PrimeImpl.c ****                 case 0x02:
1403:.\PrimeImpl.c ****                 //Six bytes only since the PPU is constrained to this length
1404:.\PrimeImpl.c ****                 memcpy(PBYTECAST(&ppump->_trasactionbuffer[0x0008]), &GetEepromBuffer()[_EEPROM_PAG
 5371              		.loc 1 1404 0
 5372 011a BB69     		ldr	r3, [r7, #24]
 5373 011c 03F12804 		add	r4, r3, #40
 5374 0120 FFF7FEFF 		bl	GetEepromBuffer
 5375 0124 0346     		mov	r3, r0
 5376 0126 2033     		adds	r3, r3, #32
 5377 0128 2046     		mov	r0, r4
 5378 012a 1946     		mov	r1, r3
 5379 012c 0622     		movs	r2, #6
 5380 012e FFF7FEFF 		bl	memcpy
1405:.\PrimeImpl.c ****                 break;
 5381              		.loc 1 1405 0
 5382 0132 0CE0     		b	.L182
 5383              	.L187:
1406:.\PrimeImpl.c ****                 case 0x03:
1407:.\PrimeImpl.c ****                 //Six bytes only since the PPU is constrained to this length
1408:.\PrimeImpl.c ****                 memcpy(PBYTECAST(&ppump->_trasactionbuffer[0x0008]), &GetEepromBuffer()[_EEPROM_PAG
 5384              		.loc 1 1408 0
 5385 0134 BB69     		ldr	r3, [r7, #24]
 5386 0136 03F12804 		add	r4, r3, #40
 5387 013a FFF7FEFF 		bl	GetEepromBuffer
 5388 013e 0346     		mov	r3, r0
 5389 0140 3033     		adds	r3, r3, #48
 5390 0142 2046     		mov	r0, r4
 5391 0144 1946     		mov	r1, r3
 5392 0146 0622     		movs	r2, #6
 5393 0148 FFF7FEFF 		bl	memcpy
1409:.\PrimeImpl.c ****                 break;
 5394              		.loc 1 1409 0
 5395 014c 00BF     		nop
 5396              	.L182:
1410:.\PrimeImpl.c ****             }
1411:.\PrimeImpl.c ****             I2CBusUnlock();
 5397              		.loc 1 1411 0
 5398 014e FFF7FEFF 		bl	I2CBusUnlock
1412:.\PrimeImpl.c **** 
1413:.\PrimeImpl.c ****             char8 *ptr = &ppump->_trasactionbuffer[0x0008];
 5399              		.loc 1 1413 0
 5400 0152 BB69     		ldr	r3, [r7, #24]
 5401 0154 2833     		adds	r3, r3, #40
 5402 0156 FB60     		str	r3, [r7, #12]
1414:.\PrimeImpl.c ****             FOR(uint8 buffndx = 0, buffndx < 6, buffndx++)
 5403              		.loc 1 1414 0
 5404 0158 0023     		movs	r3, #0
ARM GAS  C:\Users\RECEPC~1\AppData\Local\Temp\ccNQP0pp.s 			page 121


 5405 015a BB77     		strb	r3, [r7, #30]
 5406 015c 13E0     		b	.L188
 5407              	.L189:
1415:.\PrimeImpl.c ****                 puartdisp->_messagetx[index++] = (0xE0 | (0x0F & ptr[buffndx])); //Translate from A
 5408              		.loc 1 1415 0 discriminator 3
 5409 015e FB7F     		ldrb	r3, [r7, #31]	@ zero_extendqisi2
 5410 0160 5A1C     		adds	r2, r3, #1
 5411 0162 FA77     		strb	r2, [r7, #31]
 5412 0164 1946     		mov	r1, r3
 5413 0166 BB7F     		ldrb	r3, [r7, #30]	@ zero_extendqisi2
 5414 0168 FA68     		ldr	r2, [r7, #12]
 5415 016a 1344     		add	r3, r3, r2
 5416 016c 1B78     		ldrb	r3, [r3]	@ zero_extendqisi2
 5417 016e 03F00F03 		and	r3, r3, #15
 5418 0172 DBB2     		uxtb	r3, r3
 5419 0174 63F01F03 		orn	r3, r3, #31
 5420 0178 DAB2     		uxtb	r2, r3
 5421 017a 7B69     		ldr	r3, [r7, #20]
 5422 017c 0B44     		add	r3, r3, r1
 5423 017e 1A71     		strb	r2, [r3, #4]
1414:.\PrimeImpl.c ****             FOR(uint8 buffndx = 0, buffndx < 6, buffndx++)
 5424              		.loc 1 1414 0 discriminator 3
 5425 0180 BB7F     		ldrb	r3, [r7, #30]	@ zero_extendqisi2
 5426 0182 0133     		adds	r3, r3, #1
 5427 0184 BB77     		strb	r3, [r7, #30]
 5428              	.L188:
1414:.\PrimeImpl.c ****             FOR(uint8 buffndx = 0, buffndx < 6, buffndx++)
 5429              		.loc 1 1414 0 is_stmt 0 discriminator 1
 5430 0186 BB7F     		ldrb	r3, [r7, #30]	@ zero_extendqisi2
 5431 0188 052B     		cmp	r3, #5
 5432 018a E8D9     		bls	.L189
1416:.\PrimeImpl.c ****             
1417:.\PrimeImpl.c ****             puartdisp->_messagetx[index++] = 0xFB; //LRC next
 5433              		.loc 1 1417 0 is_stmt 1
 5434 018c FB7F     		ldrb	r3, [r7, #31]	@ zero_extendqisi2
 5435 018e 5A1C     		adds	r2, r3, #1
 5436 0190 FA77     		strb	r2, [r7, #31]
 5437 0192 1A46     		mov	r2, r3
 5438 0194 7B69     		ldr	r3, [r7, #20]
 5439 0196 1344     		add	r3, r3, r2
 5440 0198 FB22     		movs	r2, #251
 5441 019a 1A71     		strb	r2, [r3, #4]
1418:.\PrimeImpl.c ****             puartdisp->_messagetx[index++] = GetLRC(puartdisp->_messagetx);
 5442              		.loc 1 1418 0
 5443 019c FB7F     		ldrb	r3, [r7, #31]	@ zero_extendqisi2
 5444 019e 5A1C     		adds	r2, r3, #1
 5445 01a0 FA77     		strb	r2, [r7, #31]
 5446 01a2 1C46     		mov	r4, r3
 5447 01a4 7B69     		ldr	r3, [r7, #20]
 5448 01a6 0433     		adds	r3, r3, #4
 5449 01a8 1846     		mov	r0, r3
 5450 01aa FFF7FEFF 		bl	GetLRC
 5451 01ae 0346     		mov	r3, r0
 5452 01b0 1A46     		mov	r2, r3
 5453 01b2 7B69     		ldr	r3, [r7, #20]
 5454 01b4 2344     		add	r3, r3, r4
 5455 01b6 1A71     		strb	r2, [r3, #4]
ARM GAS  C:\Users\RECEPC~1\AppData\Local\Temp\ccNQP0pp.s 			page 122


1419:.\PrimeImpl.c ****             puartdisp->_messagetx[index++] = EOM;
 5456              		.loc 1 1419 0
 5457 01b8 FB7F     		ldrb	r3, [r7, #31]	@ zero_extendqisi2
 5458 01ba 5A1C     		adds	r2, r3, #1
 5459 01bc FA77     		strb	r2, [r7, #31]
 5460 01be 1A46     		mov	r2, r3
 5461 01c0 7B69     		ldr	r3, [r7, #20]
 5462 01c2 1344     		add	r3, r3, r2
 5463 01c4 F022     		movs	r2, #240
 5464 01c6 1A71     		strb	r2, [r3, #4]
1420:.\PrimeImpl.c **** ///////////////////////////////////////////////////////////////////////////////////////////////////
1421:.\PrimeImpl.c ****             
1422:.\PrimeImpl.c ****             puartdisp->_messagelength = index;
 5465              		.loc 1 1422 0
 5466 01c8 FB7F     		ldrb	r3, [r7, #31]	@ zero_extendqisi2
 5467 01ca 9AB2     		uxth	r2, r3
 5468 01cc 7B69     		ldr	r3, [r7, #20]
 5469 01ce 5A80     		strh	r2, [r3, #2]	@ movhi
1423:.\PrimeImpl.c ****             puartdisp->_messagestate = PENDING;
 5470              		.loc 1 1423 0
 5471 01d0 7B69     		ldr	r3, [r7, #20]
 5472 01d2 C222     		movs	r2, #194
 5473 01d4 1A70     		strb	r2, [r3]
 5474              	.L181:
 5475              	.LBE35:
1424:.\PrimeImpl.c ****         }
1425:.\PrimeImpl.c ****         ppump->_restoreprice = false;
 5476              		.loc 1 1425 0
 5477 01d6 BB69     		ldr	r3, [r7, #24]
 5478 01d8 0022     		movs	r2, #0
 5479 01da 5A72     		strb	r2, [r3, #9]
 5480              	.L179:
 5481              	.LBE34:
1426:.\PrimeImpl.c ****         //This lock is to force the operator to activate/deactivate the hose once the credit transa
1427:.\PrimeImpl.c ****         #ifdef CREDIT_SALE_PUMP_LOCK
1428:.\PrimeImpl.c ****         ppump->_pumplocked = true;
1429:.\PrimeImpl.c ****         #endif
1430:.\PrimeImpl.c ****     }    
1431:.\PrimeImpl.c **** }
 5482              		.loc 1 1431 0
 5483 01dc 2437     		adds	r7, r7, #36
 5484              		.cfi_def_cfa_offset 12
 5485 01de BD46     		mov	sp, r7
 5486              		.cfi_def_cfa_register 13
 5487              		@ sp needed
 5488 01e0 90BD     		pop	{r4, r7, pc}
 5489              		.cfi_endproc
 5490              	.LFE92:
 5491              		.size	PumpCredit2DefaultPpuChange, .-PumpCredit2DefaultPpuChange
 5492 01e2 00BF     		.section	.text.PumpStopRequest,"ax",%progbits
 5493              		.align	2
 5494              		.global	PumpStopRequest
 5495              		.thumb
 5496              		.thumb_func
 5497              		.type	PumpStopRequest, %function
 5498              	PumpStopRequest:
 5499              	.LFB93:
ARM GAS  C:\Users\RECEPC~1\AppData\Local\Temp\ccNQP0pp.s 			page 123


1432:.\PrimeImpl.c **** 
1433:.\PrimeImpl.c **** //@Created By: HIJH
1434:.\PrimeImpl.c **** //@Septembre de 2016
1435:.\PrimeImpl.c **** void PumpStopRequest(void *pparam)
1436:.\PrimeImpl.c **** {
 5500              		.loc 1 1436 0
 5501              		.cfi_startproc
 5502              		@ args = 0, pretend = 0, frame = 24
 5503              		@ frame_needed = 1, uses_anonymous_args = 0
 5504 0000 80B5     		push	{r7, lr}
 5505              		.cfi_def_cfa_offset 8
 5506              		.cfi_offset 7, -8
 5507              		.cfi_offset 14, -4
 5508 0002 86B0     		sub	sp, sp, #24
 5509              		.cfi_def_cfa_offset 32
 5510 0004 00AF     		add	r7, sp, #0
 5511              		.cfi_def_cfa_register 7
 5512 0006 7860     		str	r0, [r7, #4]
1437:.\PrimeImpl.c ****     PNEAR_PUMPPTR ppump = (PNEAR_PUMPPTR)pparam;
 5513              		.loc 1 1437 0
 5514 0008 7B68     		ldr	r3, [r7, #4]
 5515 000a 7B61     		str	r3, [r7, #20]
1438:.\PrimeImpl.c ****     if(ppump)
 5516              		.loc 1 1438 0
 5517 000c 7B69     		ldr	r3, [r7, #20]
 5518 000e 002B     		cmp	r3, #0
 5519 0010 28D0     		beq	.L190
 5520              	.LBB36:
1439:.\PrimeImpl.c ****     {                
1440:.\PrimeImpl.c ****         uint8_t index = 0;
 5521              		.loc 1 1440 0
 5522 0012 0023     		movs	r3, #0
 5523 0014 FB74     		strb	r3, [r7, #19]
1441:.\PrimeImpl.c ****         memset(ppump->_rxbuffer, 0x00, _PUMP_RX_BUFFER_SIZE_);
 5524              		.loc 1 1441 0
 5525 0016 7B69     		ldr	r3, [r7, #20]
 5526 0018 03F5C473 		add	r3, r3, #392
 5527 001c 1846     		mov	r0, r3
 5528 001e 0021     		movs	r1, #0
 5529 0020 4FF4B472 		mov	r2, #360
 5530 0024 FFF7FEFF 		bl	memset
1442:.\PrimeImpl.c ****         PUARTMESSAGEPTR puartdisp = GetUARTMessageSlot(UART_DISPENSER);
 5531              		.loc 1 1442 0
 5532 0028 A220     		movs	r0, #162
 5533 002a FFF7FEFF 		bl	GetUARTMessageSlot
 5534 002e F860     		str	r0, [r7, #12]
1443:.\PrimeImpl.c ****         if(puartdisp)
 5535              		.loc 1 1443 0
 5536 0030 FB68     		ldr	r3, [r7, #12]
 5537 0032 002B     		cmp	r3, #0
 5538 0034 16D0     		beq	.L190
1444:.\PrimeImpl.c ****         {
1445:.\PrimeImpl.c ****             //Just one byte for the response
1446:.\PrimeImpl.c ****             puartdisp->_messagetx[index++] = PUMP_COMMAND(PUMP_PUMP_STOP, ppump->_pumpid);
 5539              		.loc 1 1446 0
 5540 0036 FB7C     		ldrb	r3, [r7, #19]	@ zero_extendqisi2
 5541 0038 5A1C     		adds	r2, r3, #1
ARM GAS  C:\Users\RECEPC~1\AppData\Local\Temp\ccNQP0pp.s 			page 124


 5542 003a FA74     		strb	r2, [r7, #19]
 5543 003c 1946     		mov	r1, r3
 5544 003e 7B69     		ldr	r3, [r7, #20]
 5545 0040 1B78     		ldrb	r3, [r3]	@ zero_extendqisi2
 5546 0042 DBB2     		uxtb	r3, r3
 5547 0044 03F00F03 		and	r3, r3, #15
 5548 0048 DBB2     		uxtb	r3, r3
 5549 004a 43F03003 		orr	r3, r3, #48
 5550 004e DBB2     		uxtb	r3, r3
 5551 0050 DAB2     		uxtb	r2, r3
 5552 0052 FB68     		ldr	r3, [r7, #12]
 5553 0054 0B44     		add	r3, r3, r1
 5554 0056 1A71     		strb	r2, [r3, #4]
1447:.\PrimeImpl.c ****             puartdisp->_messagelength = 1;//One byte
 5555              		.loc 1 1447 0
 5556 0058 FB68     		ldr	r3, [r7, #12]
 5557 005a 0122     		movs	r2, #1
 5558 005c 5A80     		strh	r2, [r3, #2]	@ movhi
1448:.\PrimeImpl.c ****             puartdisp->_messagestate = PENDING;
 5559              		.loc 1 1448 0
 5560 005e FB68     		ldr	r3, [r7, #12]
 5561 0060 C222     		movs	r2, #194
 5562 0062 1A70     		strb	r2, [r3]
 5563              	.L190:
 5564              	.LBE36:
1449:.\PrimeImpl.c ****         }        
1450:.\PrimeImpl.c ****     }
1451:.\PrimeImpl.c **** }
 5565              		.loc 1 1451 0
 5566 0064 1837     		adds	r7, r7, #24
 5567              		.cfi_def_cfa_offset 8
 5568 0066 BD46     		mov	sp, r7
 5569              		.cfi_def_cfa_register 13
 5570              		@ sp needed
 5571 0068 80BD     		pop	{r7, pc}
 5572              		.cfi_endproc
 5573              	.LFE93:
 5574              		.size	PumpStopRequest, .-PumpStopRequest
 5575 006a 00BF     		.section	.text.PumpStopAllRequest,"ax",%progbits
 5576              		.align	2
 5577              		.global	PumpStopAllRequest
 5578              		.thumb
 5579              		.thumb_func
 5580              		.type	PumpStopAllRequest, %function
 5581              	PumpStopAllRequest:
 5582              	.LFB94:
1452:.\PrimeImpl.c **** 
1453:.\PrimeImpl.c **** //@Created By: HIJH
1454:.\PrimeImpl.c **** //@Septembre de 2016
1455:.\PrimeImpl.c **** void PumpStopAllRequest(void *pparam)
1456:.\PrimeImpl.c **** {
 5583              		.loc 1 1456 0
 5584              		.cfi_startproc
 5585              		@ args = 0, pretend = 0, frame = 24
 5586              		@ frame_needed = 1, uses_anonymous_args = 0
 5587 0000 80B5     		push	{r7, lr}
 5588              		.cfi_def_cfa_offset 8
ARM GAS  C:\Users\RECEPC~1\AppData\Local\Temp\ccNQP0pp.s 			page 125


 5589              		.cfi_offset 7, -8
 5590              		.cfi_offset 14, -4
 5591 0002 86B0     		sub	sp, sp, #24
 5592              		.cfi_def_cfa_offset 32
 5593 0004 00AF     		add	r7, sp, #0
 5594              		.cfi_def_cfa_register 7
 5595 0006 7860     		str	r0, [r7, #4]
1457:.\PrimeImpl.c ****     PNEAR_PUMPPTR ppump = (PNEAR_PUMPPTR)pparam;
 5596              		.loc 1 1457 0
 5597 0008 7B68     		ldr	r3, [r7, #4]
 5598 000a 7B61     		str	r3, [r7, #20]
1458:.\PrimeImpl.c ****     if(ppump)
 5599              		.loc 1 1458 0
 5600 000c 7B69     		ldr	r3, [r7, #20]
 5601 000e 002B     		cmp	r3, #0
 5602 0010 23D0     		beq	.L192
 5603              	.LBB37:
1459:.\PrimeImpl.c ****     {                
1460:.\PrimeImpl.c ****         uint8_t index = 0;
 5604              		.loc 1 1460 0
 5605 0012 0023     		movs	r3, #0
 5606 0014 FB74     		strb	r3, [r7, #19]
1461:.\PrimeImpl.c ****         memset(ppump->_rxbuffer, 0x00, _PUMP_RX_BUFFER_SIZE_);
 5607              		.loc 1 1461 0
 5608 0016 7B69     		ldr	r3, [r7, #20]
 5609 0018 03F5C473 		add	r3, r3, #392
 5610 001c 1846     		mov	r0, r3
 5611 001e 0021     		movs	r1, #0
 5612 0020 4FF4B472 		mov	r2, #360
 5613 0024 FFF7FEFF 		bl	memset
1462:.\PrimeImpl.c ****         PUARTMESSAGEPTR puartdisp = GetUARTMessageSlot(UART_DISPENSER);
 5614              		.loc 1 1462 0
 5615 0028 A220     		movs	r0, #162
 5616 002a FFF7FEFF 		bl	GetUARTMessageSlot
 5617 002e F860     		str	r0, [r7, #12]
1463:.\PrimeImpl.c ****         if(puartdisp)
 5618              		.loc 1 1463 0
 5619 0030 FB68     		ldr	r3, [r7, #12]
 5620 0032 002B     		cmp	r3, #0
 5621 0034 11D0     		beq	.L192
1464:.\PrimeImpl.c ****         {
1465:.\PrimeImpl.c ****             //Just one byte for the response
1466:.\PrimeImpl.c ****             puartdisp->_messagetx[index++] = PUMP_COMMAND(PUMP_ALL_PUMPS_STOP, ppump->_pumpid);
 5622              		.loc 1 1466 0
 5623 0036 FB7C     		ldrb	r3, [r7, #19]	@ zero_extendqisi2
 5624 0038 5A1C     		adds	r2, r3, #1
 5625 003a FA74     		strb	r2, [r7, #19]
 5626 003c 1946     		mov	r1, r3
 5627 003e 7B69     		ldr	r3, [r7, #20]
 5628 0040 1B78     		ldrb	r3, [r3]	@ zero_extendqisi2
 5629 0042 63F00F03 		orn	r3, r3, #15
 5630 0046 DAB2     		uxtb	r2, r3
 5631 0048 FB68     		ldr	r3, [r7, #12]
 5632 004a 0B44     		add	r3, r3, r1
 5633 004c 1A71     		strb	r2, [r3, #4]
1467:.\PrimeImpl.c ****             puartdisp->_messagelength = 1;//One byte
 5634              		.loc 1 1467 0
ARM GAS  C:\Users\RECEPC~1\AppData\Local\Temp\ccNQP0pp.s 			page 126


 5635 004e FB68     		ldr	r3, [r7, #12]
 5636 0050 0122     		movs	r2, #1
 5637 0052 5A80     		strh	r2, [r3, #2]	@ movhi
1468:.\PrimeImpl.c ****             puartdisp->_messagestate = PENDING;
 5638              		.loc 1 1468 0
 5639 0054 FB68     		ldr	r3, [r7, #12]
 5640 0056 C222     		movs	r2, #194
 5641 0058 1A70     		strb	r2, [r3]
 5642              	.L192:
 5643              	.LBE37:
1469:.\PrimeImpl.c ****         }        
1470:.\PrimeImpl.c ****     }
1471:.\PrimeImpl.c **** }
 5644              		.loc 1 1471 0
 5645 005a 1837     		adds	r7, r7, #24
 5646              		.cfi_def_cfa_offset 8
 5647 005c BD46     		mov	sp, r7
 5648              		.cfi_def_cfa_register 13
 5649              		@ sp needed
 5650 005e 80BD     		pop	{r7, pc}
 5651              		.cfi_endproc
 5652              	.LFE94:
 5653              		.size	PumpStopAllRequest, .-PumpStopAllRequest
 5654              		.section	.text.PumpMiscellaneousConfiguration,"ax",%progbits
 5655              		.align	2
 5656              		.global	PumpMiscellaneousConfiguration
 5657              		.thumb
 5658              		.thumb_func
 5659              		.type	PumpMiscellaneousConfiguration, %function
 5660              	PumpMiscellaneousConfiguration:
 5661              	.LFB95:
1472:.\PrimeImpl.c **** 
1473:.\PrimeImpl.c **** //@Created By: HIJH
1474:.\PrimeImpl.c **** //@Septembre de 2016
1475:.\PrimeImpl.c **** void PumpMiscellaneousConfiguration(LPVOID pparam)
1476:.\PrimeImpl.c **** {
 5662              		.loc 1 1476 0
 5663              		.cfi_startproc
 5664              		@ args = 0, pretend = 0, frame = 24
 5665              		@ frame_needed = 1, uses_anonymous_args = 0
 5666 0000 90B5     		push	{r4, r7, lr}
 5667              		.cfi_def_cfa_offset 12
 5668              		.cfi_offset 4, -12
 5669              		.cfi_offset 7, -8
 5670              		.cfi_offset 14, -4
 5671 0002 87B0     		sub	sp, sp, #28
 5672              		.cfi_def_cfa_offset 40
 5673 0004 00AF     		add	r7, sp, #0
 5674              		.cfi_def_cfa_register 7
 5675 0006 7860     		str	r0, [r7, #4]
1477:.\PrimeImpl.c ****     PNEAR_PUMPPTR ppump = (PNEAR_PUMPPTR)pparam;
 5676              		.loc 1 1477 0
 5677 0008 7B68     		ldr	r3, [r7, #4]
 5678 000a 7B61     		str	r3, [r7, #20]
1478:.\PrimeImpl.c ****     if(ppump)
 5679              		.loc 1 1478 0
 5680 000c 7B69     		ldr	r3, [r7, #20]
ARM GAS  C:\Users\RECEPC~1\AppData\Local\Temp\ccNQP0pp.s 			page 127


 5681 000e 002B     		cmp	r3, #0
 5682 0010 66D0     		beq	.L194
 5683              	.LBB38:
1479:.\PrimeImpl.c ****     {
1480:.\PrimeImpl.c ****         uint8_t index = 0;  
 5684              		.loc 1 1480 0
 5685 0012 0023     		movs	r3, #0
 5686 0014 FB74     		strb	r3, [r7, #19]
1481:.\PrimeImpl.c ****         memset(ppump->_rxbuffer, 0x00, _PUMP_RX_BUFFER_SIZE_);
 5687              		.loc 1 1481 0
 5688 0016 7B69     		ldr	r3, [r7, #20]
 5689 0018 03F5C473 		add	r3, r3, #392
 5690 001c 1846     		mov	r0, r3
 5691 001e 0021     		movs	r1, #0
 5692 0020 4FF4B472 		mov	r2, #360
 5693 0024 FFF7FEFF 		bl	memset
1482:.\PrimeImpl.c ****         PUARTMESSAGEPTR puartdisp = GetUARTMessageSlot(UART_DISPENSER);
 5694              		.loc 1 1482 0
 5695 0028 A220     		movs	r0, #162
 5696 002a FFF7FEFF 		bl	GetUARTMessageSlot
 5697 002e F860     		str	r0, [r7, #12]
1483:.\PrimeImpl.c ****         if(puartdisp)
 5698              		.loc 1 1483 0
 5699 0030 FB68     		ldr	r3, [r7, #12]
 5700 0032 002B     		cmp	r3, #0
 5701 0034 54D0     		beq	.L194
1484:.\PrimeImpl.c ****         {
1485:.\PrimeImpl.c **** ///////////////////////////////////////////////////////////////////////////////////////////////////
1486:.\PrimeImpl.c ****             puartdisp->_messagetx[index++] = SOM;//Start Of Message
 5702              		.loc 1 1486 0
 5703 0036 FB7C     		ldrb	r3, [r7, #19]	@ zero_extendqisi2
 5704 0038 5A1C     		adds	r2, r3, #1
 5705 003a FA74     		strb	r2, [r7, #19]
 5706 003c 1A46     		mov	r2, r3
 5707 003e FB68     		ldr	r3, [r7, #12]
 5708 0040 1344     		add	r3, r3, r2
 5709 0042 FF22     		movs	r2, #255
 5710 0044 1A71     		strb	r2, [r3, #4]
1487:.\PrimeImpl.c ****             puartdisp->_messagetx[index++] = 0xE9;//Data Length
 5711              		.loc 1 1487 0
 5712 0046 FB7C     		ldrb	r3, [r7, #19]	@ zero_extendqisi2
 5713 0048 5A1C     		adds	r2, r3, #1
 5714 004a FA74     		strb	r2, [r7, #19]
 5715 004c 1A46     		mov	r2, r3
 5716 004e FB68     		ldr	r3, [r7, #12]
 5717 0050 1344     		add	r3, r3, r2
 5718 0052 E922     		movs	r2, #233
 5719 0054 1A71     		strb	r2, [r3, #4]
1488:.\PrimeImpl.c ****             puartdisp->_messagetx[index++] = 0xFE;//Special Functions Next (0xB0 0xB0 0xB6)
 5720              		.loc 1 1488 0
 5721 0056 FB7C     		ldrb	r3, [r7, #19]	@ zero_extendqisi2
 5722 0058 5A1C     		adds	r2, r3, #1
 5723 005a FA74     		strb	r2, [r7, #19]
 5724 005c 1A46     		mov	r2, r3
 5725 005e FB68     		ldr	r3, [r7, #12]
 5726 0060 1344     		add	r3, r3, r2
 5727 0062 FE22     		movs	r2, #254
ARM GAS  C:\Users\RECEPC~1\AppData\Local\Temp\ccNQP0pp.s 			page 128


 5728 0064 1A71     		strb	r2, [r3, #4]
1489:.\PrimeImpl.c ****             puartdisp->_messagetx[index++] = 0xEE;//Miscellaneous Pump Configuration Request (sf1)
 5729              		.loc 1 1489 0
 5730 0066 FB7C     		ldrb	r3, [r7, #19]	@ zero_extendqisi2
 5731 0068 5A1C     		adds	r2, r3, #1
 5732 006a FA74     		strb	r2, [r7, #19]
 5733 006c 1A46     		mov	r2, r3
 5734 006e FB68     		ldr	r3, [r7, #12]
 5735 0070 1344     		add	r3, r3, r2
 5736 0072 EE22     		movs	r2, #238
 5737 0074 1A71     		strb	r2, [r3, #4]
1490:.\PrimeImpl.c ****             puartdisp->_messagetx[index++] = 0xE0;//Miscellaneous Pump Configuration Request (sf2)
 5738              		.loc 1 1490 0
 5739 0076 FB7C     		ldrb	r3, [r7, #19]	@ zero_extendqisi2
 5740 0078 5A1C     		adds	r2, r3, #1
 5741 007a FA74     		strb	r2, [r7, #19]
 5742 007c 1A46     		mov	r2, r3
 5743 007e FB68     		ldr	r3, [r7, #12]
 5744 0080 1344     		add	r3, r3, r2
 5745 0082 E022     		movs	r2, #224
 5746 0084 1A71     		strb	r2, [r3, #4]
1491:.\PrimeImpl.c ****             puartdisp->_messagetx[index++] = 0xE0;//Miscellaneous Pump Configuration Request (sf3)
 5747              		.loc 1 1491 0
 5748 0086 FB7C     		ldrb	r3, [r7, #19]	@ zero_extendqisi2
 5749 0088 5A1C     		adds	r2, r3, #1
 5750 008a FA74     		strb	r2, [r7, #19]
 5751 008c 1A46     		mov	r2, r3
 5752 008e FB68     		ldr	r3, [r7, #12]
 5753 0090 1344     		add	r3, r3, r2
 5754 0092 E022     		movs	r2, #224
 5755 0094 1A71     		strb	r2, [r3, #4]
1492:.\PrimeImpl.c ****             puartdisp->_messagetx[index++] = 0xFB;
 5756              		.loc 1 1492 0
 5757 0096 FB7C     		ldrb	r3, [r7, #19]	@ zero_extendqisi2
 5758 0098 5A1C     		adds	r2, r3, #1
 5759 009a FA74     		strb	r2, [r7, #19]
 5760 009c 1A46     		mov	r2, r3
 5761 009e FB68     		ldr	r3, [r7, #12]
 5762 00a0 1344     		add	r3, r3, r2
 5763 00a2 FB22     		movs	r2, #251
 5764 00a4 1A71     		strb	r2, [r3, #4]
1493:.\PrimeImpl.c ****             puartdisp->_messagetx[index++] = GetLRC(puartdisp->_messagetx);
 5765              		.loc 1 1493 0
 5766 00a6 FB7C     		ldrb	r3, [r7, #19]	@ zero_extendqisi2
 5767 00a8 5A1C     		adds	r2, r3, #1
 5768 00aa FA74     		strb	r2, [r7, #19]
 5769 00ac 1C46     		mov	r4, r3
 5770 00ae FB68     		ldr	r3, [r7, #12]
 5771 00b0 0433     		adds	r3, r3, #4
 5772 00b2 1846     		mov	r0, r3
 5773 00b4 FFF7FEFF 		bl	GetLRC
 5774 00b8 0346     		mov	r3, r0
 5775 00ba 1A46     		mov	r2, r3
 5776 00bc FB68     		ldr	r3, [r7, #12]
 5777 00be 2344     		add	r3, r3, r4
 5778 00c0 1A71     		strb	r2, [r3, #4]
1494:.\PrimeImpl.c ****             puartdisp->_messagetx[index++] = EOM;
ARM GAS  C:\Users\RECEPC~1\AppData\Local\Temp\ccNQP0pp.s 			page 129


 5779              		.loc 1 1494 0
 5780 00c2 FB7C     		ldrb	r3, [r7, #19]	@ zero_extendqisi2
 5781 00c4 5A1C     		adds	r2, r3, #1
 5782 00c6 FA74     		strb	r2, [r7, #19]
 5783 00c8 1A46     		mov	r2, r3
 5784 00ca FB68     		ldr	r3, [r7, #12]
 5785 00cc 1344     		add	r3, r3, r2
 5786 00ce F022     		movs	r2, #240
 5787 00d0 1A71     		strb	r2, [r3, #4]
1495:.\PrimeImpl.c **** ///////////////////////////////////////////////////////////////////////////////////////////////////
1496:.\PrimeImpl.c ****             
1497:.\PrimeImpl.c ****             puartdisp->_messagelength = index;
 5788              		.loc 1 1497 0
 5789 00d2 FB7C     		ldrb	r3, [r7, #19]	@ zero_extendqisi2
 5790 00d4 9AB2     		uxth	r2, r3
 5791 00d6 FB68     		ldr	r3, [r7, #12]
 5792 00d8 5A80     		strh	r2, [r3, #2]	@ movhi
1498:.\PrimeImpl.c ****             puartdisp->_messagestate = PENDING;
 5793              		.loc 1 1498 0
 5794 00da FB68     		ldr	r3, [r7, #12]
 5795 00dc C222     		movs	r2, #194
 5796 00de 1A70     		strb	r2, [r3]
 5797              	.L194:
 5798              	.LBE38:
1499:.\PrimeImpl.c ****         }
1500:.\PrimeImpl.c ****     }
1501:.\PrimeImpl.c **** }
 5799              		.loc 1 1501 0
 5800 00e0 1C37     		adds	r7, r7, #28
 5801              		.cfi_def_cfa_offset 12
 5802 00e2 BD46     		mov	sp, r7
 5803              		.cfi_def_cfa_register 13
 5804              		@ sp needed
 5805 00e4 90BD     		pop	{r4, r7, pc}
 5806              		.cfi_endproc
 5807              	.LFE95:
 5808              		.size	PumpMiscellaneousConfiguration, .-PumpMiscellaneousConfiguration
 5809 00e6 00BF     		.section	.text.AcquirePumpMiscellaneousConfiguration,"ax",%progbits
 5810              		.align	2
 5811              		.global	AcquirePumpMiscellaneousConfiguration
 5812              		.thumb
 5813              		.thumb_func
 5814              		.type	AcquirePumpMiscellaneousConfiguration, %function
 5815              	AcquirePumpMiscellaneousConfiguration:
 5816              	.LFB96:
1502:.\PrimeImpl.c **** 
1503:.\PrimeImpl.c **** //@Created By: HIJH
1504:.\PrimeImpl.c **** //@Date: Septembre de 2016
1505:.\PrimeImpl.c **** //Receives the miscellaneous pump configuration information
1506:.\PrimeImpl.c **** void AcquirePumpMiscellaneousConfiguration(void *pparam)
1507:.\PrimeImpl.c **** {
 5817              		.loc 1 1507 0
 5818              		.cfi_startproc
 5819              		@ args = 0, pretend = 0, frame = 16
 5820              		@ frame_needed = 1, uses_anonymous_args = 0
 5821              		@ link register save eliminated.
 5822 0000 80B4     		push	{r7}
ARM GAS  C:\Users\RECEPC~1\AppData\Local\Temp\ccNQP0pp.s 			page 130


 5823              		.cfi_def_cfa_offset 4
 5824              		.cfi_offset 7, -4
 5825 0002 85B0     		sub	sp, sp, #20
 5826              		.cfi_def_cfa_offset 24
 5827 0004 00AF     		add	r7, sp, #0
 5828              		.cfi_def_cfa_register 7
 5829 0006 7860     		str	r0, [r7, #4]
1508:.\PrimeImpl.c ****     PPUMPTRANSACTIONJOBCONTEXTPTR pjob = (PPUMPTRANSACTIONJOBCONTEXTPTR)pparam;
 5830              		.loc 1 1508 0
 5831 0008 7B68     		ldr	r3, [r7, #4]
 5832 000a FB60     		str	r3, [r7, #12]
1509:.\PrimeImpl.c ****     if(pjob)
1510:.\PrimeImpl.c ****     {
1511:.\PrimeImpl.c ****         //HERE WE ACQUIRE THE MISCELLANEOUS PUMP CONFIGURATION INFORMATION AND STORE IT INTO
1512:.\PrimeImpl.c ****         //THE PERSISTENT FILE SYSTEM (EEPROM)
1513:.\PrimeImpl.c ****     }
1514:.\PrimeImpl.c **** }
 5833              		.loc 1 1514 0
 5834 000c 1437     		adds	r7, r7, #20
 5835              		.cfi_def_cfa_offset 4
 5836 000e BD46     		mov	sp, r7
 5837              		.cfi_def_cfa_register 13
 5838              		@ sp needed
 5839 0010 5DF8047B 		ldr	r7, [sp], #4
 5840              		.cfi_restore 7
 5841              		.cfi_def_cfa_offset 0
 5842 0014 7047     		bx	lr
 5843              		.cfi_endproc
 5844              	.LFE96:
 5845              		.size	AcquirePumpMiscellaneousConfiguration, .-AcquirePumpMiscellaneousConfiguration
 5846 0016 00BF     		.section	.text.PumpCompleteConfiguration,"ax",%progbits
 5847              		.align	2
 5848              		.global	PumpCompleteConfiguration
 5849              		.thumb
 5850              		.thumb_func
 5851              		.type	PumpCompleteConfiguration, %function
 5852              	PumpCompleteConfiguration:
 5853              	.LFB97:
1515:.\PrimeImpl.c **** 
1516:.\PrimeImpl.c **** //@Created By: HIJH
1517:.\PrimeImpl.c **** //@Septembre de 2016
1518:.\PrimeImpl.c **** void PumpCompleteConfiguration(LPVOID pparam)
1519:.\PrimeImpl.c **** {
 5854              		.loc 1 1519 0
 5855              		.cfi_startproc
 5856              		@ args = 0, pretend = 0, frame = 24
 5857              		@ frame_needed = 1, uses_anonymous_args = 0
 5858 0000 90B5     		push	{r4, r7, lr}
 5859              		.cfi_def_cfa_offset 12
 5860              		.cfi_offset 4, -12
 5861              		.cfi_offset 7, -8
 5862              		.cfi_offset 14, -4
 5863 0002 87B0     		sub	sp, sp, #28
 5864              		.cfi_def_cfa_offset 40
 5865 0004 00AF     		add	r7, sp, #0
 5866              		.cfi_def_cfa_register 7
 5867 0006 7860     		str	r0, [r7, #4]
ARM GAS  C:\Users\RECEPC~1\AppData\Local\Temp\ccNQP0pp.s 			page 131


1520:.\PrimeImpl.c ****     PNEAR_PUMPPTR ppump = (PNEAR_PUMPPTR)pparam;
 5868              		.loc 1 1520 0
 5869 0008 7B68     		ldr	r3, [r7, #4]
 5870 000a 7B61     		str	r3, [r7, #20]
1521:.\PrimeImpl.c ****     if(ppump)
 5871              		.loc 1 1521 0
 5872 000c 7B69     		ldr	r3, [r7, #20]
 5873 000e 002B     		cmp	r3, #0
 5874 0010 66D0     		beq	.L197
 5875              	.LBB39:
1522:.\PrimeImpl.c ****     {
1523:.\PrimeImpl.c ****         uint8_t index = 0;  
 5876              		.loc 1 1523 0
 5877 0012 0023     		movs	r3, #0
 5878 0014 FB74     		strb	r3, [r7, #19]
1524:.\PrimeImpl.c ****         memset(ppump->_rxbuffer, 0x00, _PUMP_RX_BUFFER_SIZE_);
 5879              		.loc 1 1524 0
 5880 0016 7B69     		ldr	r3, [r7, #20]
 5881 0018 03F5C473 		add	r3, r3, #392
 5882 001c 1846     		mov	r0, r3
 5883 001e 0021     		movs	r1, #0
 5884 0020 4FF4B472 		mov	r2, #360
 5885 0024 FFF7FEFF 		bl	memset
1525:.\PrimeImpl.c ****         PUARTMESSAGEPTR puartdisp = GetUARTMessageSlot(UART_DISPENSER);
 5886              		.loc 1 1525 0
 5887 0028 A220     		movs	r0, #162
 5888 002a FFF7FEFF 		bl	GetUARTMessageSlot
 5889 002e F860     		str	r0, [r7, #12]
1526:.\PrimeImpl.c ****         if(puartdisp)
 5890              		.loc 1 1526 0
 5891 0030 FB68     		ldr	r3, [r7, #12]
 5892 0032 002B     		cmp	r3, #0
 5893 0034 54D0     		beq	.L197
1527:.\PrimeImpl.c ****         {
1528:.\PrimeImpl.c **** ///////////////////////////////////////////////////////////////////////////////////////////////////
1529:.\PrimeImpl.c ****             puartdisp->_messagetx[index++] = SOM;//Start Of Message
 5894              		.loc 1 1529 0
 5895 0036 FB7C     		ldrb	r3, [r7, #19]	@ zero_extendqisi2
 5896 0038 5A1C     		adds	r2, r3, #1
 5897 003a FA74     		strb	r2, [r7, #19]
 5898 003c 1A46     		mov	r2, r3
 5899 003e FB68     		ldr	r3, [r7, #12]
 5900 0040 1344     		add	r3, r3, r2
 5901 0042 FF22     		movs	r2, #255
 5902 0044 1A71     		strb	r2, [r3, #4]
1530:.\PrimeImpl.c ****             puartdisp->_messagetx[index++] = 0xE9;//Data Length
 5903              		.loc 1 1530 0
 5904 0046 FB7C     		ldrb	r3, [r7, #19]	@ zero_extendqisi2
 5905 0048 5A1C     		adds	r2, r3, #1
 5906 004a FA74     		strb	r2, [r7, #19]
 5907 004c 1A46     		mov	r2, r3
 5908 004e FB68     		ldr	r3, [r7, #12]
 5909 0050 1344     		add	r3, r3, r2
 5910 0052 E922     		movs	r2, #233
 5911 0054 1A71     		strb	r2, [r3, #4]
1531:.\PrimeImpl.c ****             puartdisp->_messagetx[index++] = 0xFE;//Special Functions Next (0xB0 0xB0 0xB6)
 5912              		.loc 1 1531 0
ARM GAS  C:\Users\RECEPC~1\AppData\Local\Temp\ccNQP0pp.s 			page 132


 5913 0056 FB7C     		ldrb	r3, [r7, #19]	@ zero_extendqisi2
 5914 0058 5A1C     		adds	r2, r3, #1
 5915 005a FA74     		strb	r2, [r7, #19]
 5916 005c 1A46     		mov	r2, r3
 5917 005e FB68     		ldr	r3, [r7, #12]
 5918 0060 1344     		add	r3, r3, r2
 5919 0062 FE22     		movs	r2, #254
 5920 0064 1A71     		strb	r2, [r3, #4]
1532:.\PrimeImpl.c ****             puartdisp->_messagetx[index++] = 0xE6;//Complete Pump Configuration Request (sf1)
 5921              		.loc 1 1532 0
 5922 0066 FB7C     		ldrb	r3, [r7, #19]	@ zero_extendqisi2
 5923 0068 5A1C     		adds	r2, r3, #1
 5924 006a FA74     		strb	r2, [r7, #19]
 5925 006c 1A46     		mov	r2, r3
 5926 006e FB68     		ldr	r3, [r7, #12]
 5927 0070 1344     		add	r3, r3, r2
 5928 0072 E622     		movs	r2, #230
 5929 0074 1A71     		strb	r2, [r3, #4]
1533:.\PrimeImpl.c ****             puartdisp->_messagetx[index++] = 0xE0;//Complete Pump Configuration Request (sf2)
 5930              		.loc 1 1533 0
 5931 0076 FB7C     		ldrb	r3, [r7, #19]	@ zero_extendqisi2
 5932 0078 5A1C     		adds	r2, r3, #1
 5933 007a FA74     		strb	r2, [r7, #19]
 5934 007c 1A46     		mov	r2, r3
 5935 007e FB68     		ldr	r3, [r7, #12]
 5936 0080 1344     		add	r3, r3, r2
 5937 0082 E022     		movs	r2, #224
 5938 0084 1A71     		strb	r2, [r3, #4]
1534:.\PrimeImpl.c ****             puartdisp->_messagetx[index++] = 0xE0;//Complete Pump Configuration Request (sf3)
 5939              		.loc 1 1534 0
 5940 0086 FB7C     		ldrb	r3, [r7, #19]	@ zero_extendqisi2
 5941 0088 5A1C     		adds	r2, r3, #1
 5942 008a FA74     		strb	r2, [r7, #19]
 5943 008c 1A46     		mov	r2, r3
 5944 008e FB68     		ldr	r3, [r7, #12]
 5945 0090 1344     		add	r3, r3, r2
 5946 0092 E022     		movs	r2, #224
 5947 0094 1A71     		strb	r2, [r3, #4]
1535:.\PrimeImpl.c ****             puartdisp->_messagetx[index++] = 0xFB;
 5948              		.loc 1 1535 0
 5949 0096 FB7C     		ldrb	r3, [r7, #19]	@ zero_extendqisi2
 5950 0098 5A1C     		adds	r2, r3, #1
 5951 009a FA74     		strb	r2, [r7, #19]
 5952 009c 1A46     		mov	r2, r3
 5953 009e FB68     		ldr	r3, [r7, #12]
 5954 00a0 1344     		add	r3, r3, r2
 5955 00a2 FB22     		movs	r2, #251
 5956 00a4 1A71     		strb	r2, [r3, #4]
1536:.\PrimeImpl.c ****             puartdisp->_messagetx[index++] = GetLRC(puartdisp->_messagetx);
 5957              		.loc 1 1536 0
 5958 00a6 FB7C     		ldrb	r3, [r7, #19]	@ zero_extendqisi2
 5959 00a8 5A1C     		adds	r2, r3, #1
 5960 00aa FA74     		strb	r2, [r7, #19]
 5961 00ac 1C46     		mov	r4, r3
 5962 00ae FB68     		ldr	r3, [r7, #12]
 5963 00b0 0433     		adds	r3, r3, #4
 5964 00b2 1846     		mov	r0, r3
ARM GAS  C:\Users\RECEPC~1\AppData\Local\Temp\ccNQP0pp.s 			page 133


 5965 00b4 FFF7FEFF 		bl	GetLRC
 5966 00b8 0346     		mov	r3, r0
 5967 00ba 1A46     		mov	r2, r3
 5968 00bc FB68     		ldr	r3, [r7, #12]
 5969 00be 2344     		add	r3, r3, r4
 5970 00c0 1A71     		strb	r2, [r3, #4]
1537:.\PrimeImpl.c ****             puartdisp->_messagetx[index++] = EOM;
 5971              		.loc 1 1537 0
 5972 00c2 FB7C     		ldrb	r3, [r7, #19]	@ zero_extendqisi2
 5973 00c4 5A1C     		adds	r2, r3, #1
 5974 00c6 FA74     		strb	r2, [r7, #19]
 5975 00c8 1A46     		mov	r2, r3
 5976 00ca FB68     		ldr	r3, [r7, #12]
 5977 00cc 1344     		add	r3, r3, r2
 5978 00ce F022     		movs	r2, #240
 5979 00d0 1A71     		strb	r2, [r3, #4]
1538:.\PrimeImpl.c **** ///////////////////////////////////////////////////////////////////////////////////////////////////
1539:.\PrimeImpl.c ****             
1540:.\PrimeImpl.c ****             puartdisp->_messagelength = index;
 5980              		.loc 1 1540 0
 5981 00d2 FB7C     		ldrb	r3, [r7, #19]	@ zero_extendqisi2
 5982 00d4 9AB2     		uxth	r2, r3
 5983 00d6 FB68     		ldr	r3, [r7, #12]
 5984 00d8 5A80     		strh	r2, [r3, #2]	@ movhi
1541:.\PrimeImpl.c ****             puartdisp->_messagestate = PENDING;
 5985              		.loc 1 1541 0
 5986 00da FB68     		ldr	r3, [r7, #12]
 5987 00dc C222     		movs	r2, #194
 5988 00de 1A70     		strb	r2, [r3]
 5989              	.L197:
 5990              	.LBE39:
1542:.\PrimeImpl.c ****         }
1543:.\PrimeImpl.c ****     }
1544:.\PrimeImpl.c **** }
 5991              		.loc 1 1544 0
 5992 00e0 1C37     		adds	r7, r7, #28
 5993              		.cfi_def_cfa_offset 12
 5994 00e2 BD46     		mov	sp, r7
 5995              		.cfi_def_cfa_register 13
 5996              		@ sp needed
 5997 00e4 90BD     		pop	{r4, r7, pc}
 5998              		.cfi_endproc
 5999              	.LFE97:
 6000              		.size	PumpCompleteConfiguration, .-PumpCompleteConfiguration
 6001 00e6 00BF     		.section	.text.PumpHoseActiveState,"ax",%progbits
 6002              		.align	2
 6003              		.global	PumpHoseActiveState
 6004              		.thumb
 6005              		.thumb_func
 6006              		.type	PumpHoseActiveState, %function
 6007              	PumpHoseActiveState:
 6008              	.LFB98:
1545:.\PrimeImpl.c **** 
1546:.\PrimeImpl.c **** //@Created By: HIJH
1547:.\PrimeImpl.c **** //@Septembre de 2016
1548:.\PrimeImpl.c **** //Hose Selected/Status Request
1549:.\PrimeImpl.c **** void PumpHoseActiveState(LPVOID pparam)
ARM GAS  C:\Users\RECEPC~1\AppData\Local\Temp\ccNQP0pp.s 			page 134


1550:.\PrimeImpl.c **** {
 6009              		.loc 1 1550 0
 6010              		.cfi_startproc
 6011              		@ args = 0, pretend = 0, frame = 24
 6012              		@ frame_needed = 1, uses_anonymous_args = 0
 6013 0000 90B5     		push	{r4, r7, lr}
 6014              		.cfi_def_cfa_offset 12
 6015              		.cfi_offset 4, -12
 6016              		.cfi_offset 7, -8
 6017              		.cfi_offset 14, -4
 6018 0002 87B0     		sub	sp, sp, #28
 6019              		.cfi_def_cfa_offset 40
 6020 0004 00AF     		add	r7, sp, #0
 6021              		.cfi_def_cfa_register 7
 6022 0006 7860     		str	r0, [r7, #4]
1551:.\PrimeImpl.c ****     PNEAR_PUMPPTR ppump = (PNEAR_PUMPPTR)pparam;
 6023              		.loc 1 1551 0
 6024 0008 7B68     		ldr	r3, [r7, #4]
 6025 000a 7B61     		str	r3, [r7, #20]
1552:.\PrimeImpl.c ****     if(ppump)
 6026              		.loc 1 1552 0
 6027 000c 7B69     		ldr	r3, [r7, #20]
 6028 000e 002B     		cmp	r3, #0
 6029 0010 69D0     		beq	.L199
 6030              	.LBB40:
1553:.\PrimeImpl.c ****     {
1554:.\PrimeImpl.c ****         uint8_t index = 0;  
 6031              		.loc 1 1554 0
 6032 0012 0023     		movs	r3, #0
 6033 0014 FB74     		strb	r3, [r7, #19]
1555:.\PrimeImpl.c ****         memset(ppump->_rxbuffer, 0x00, _PUMP_RX_BUFFER_SIZE_);
 6034              		.loc 1 1555 0
 6035 0016 7B69     		ldr	r3, [r7, #20]
 6036 0018 03F5C473 		add	r3, r3, #392
 6037 001c 1846     		mov	r0, r3
 6038 001e 0021     		movs	r1, #0
 6039 0020 4FF4B472 		mov	r2, #360
 6040 0024 FFF7FEFF 		bl	memset
1556:.\PrimeImpl.c ****         PUARTMESSAGEPTR puartdisp = GetUARTMessageSlot(UART_DISPENSER);
 6041              		.loc 1 1556 0
 6042 0028 A220     		movs	r0, #162
 6043 002a FFF7FEFF 		bl	GetUARTMessageSlot
 6044 002e F860     		str	r0, [r7, #12]
1557:.\PrimeImpl.c ****         if(puartdisp)
 6045              		.loc 1 1557 0
 6046 0030 FB68     		ldr	r3, [r7, #12]
 6047 0032 002B     		cmp	r3, #0
 6048 0034 57D0     		beq	.L199
1558:.\PrimeImpl.c ****         {
1559:.\PrimeImpl.c ****             ppump->_hoseactivestate = 0x00;
 6049              		.loc 1 1559 0
 6050 0036 7B69     		ldr	r3, [r7, #20]
 6051 0038 0022     		movs	r2, #0
 6052 003a 1A71     		strb	r2, [r3, #4]
1560:.\PrimeImpl.c **** ///////////////////////////////////////////////////////////////////////////////////////////////////
1561:.\PrimeImpl.c ****             puartdisp->_messagetx[index++] = SOM;//Start Of Message
 6053              		.loc 1 1561 0
ARM GAS  C:\Users\RECEPC~1\AppData\Local\Temp\ccNQP0pp.s 			page 135


 6054 003c FB7C     		ldrb	r3, [r7, #19]	@ zero_extendqisi2
 6055 003e 5A1C     		adds	r2, r3, #1
 6056 0040 FA74     		strb	r2, [r7, #19]
 6057 0042 1A46     		mov	r2, r3
 6058 0044 FB68     		ldr	r3, [r7, #12]
 6059 0046 1344     		add	r3, r3, r2
 6060 0048 FF22     		movs	r2, #255
 6061 004a 1A71     		strb	r2, [r3, #4]
1562:.\PrimeImpl.c ****             puartdisp->_messagetx[index++] = 0xE9;//Data Length
 6062              		.loc 1 1562 0
 6063 004c FB7C     		ldrb	r3, [r7, #19]	@ zero_extendqisi2
 6064 004e 5A1C     		adds	r2, r3, #1
 6065 0050 FA74     		strb	r2, [r7, #19]
 6066 0052 1A46     		mov	r2, r3
 6067 0054 FB68     		ldr	r3, [r7, #12]
 6068 0056 1344     		add	r3, r3, r2
 6069 0058 E922     		movs	r2, #233
 6070 005a 1A71     		strb	r2, [r3, #4]
1563:.\PrimeImpl.c ****             puartdisp->_messagetx[index++] = 0xFE;//Special Functions Next (0xB0 0xB0 0xB6)
 6071              		.loc 1 1563 0
 6072 005c FB7C     		ldrb	r3, [r7, #19]	@ zero_extendqisi2
 6073 005e 5A1C     		adds	r2, r3, #1
 6074 0060 FA74     		strb	r2, [r7, #19]
 6075 0062 1A46     		mov	r2, r3
 6076 0064 FB68     		ldr	r3, [r7, #12]
 6077 0066 1344     		add	r3, r3, r2
 6078 0068 FE22     		movs	r2, #254
 6079 006a 1A71     		strb	r2, [r3, #4]
1564:.\PrimeImpl.c ****             puartdisp->_messagetx[index++] = 0xE0;//Complete Pump Configuration Request (sf1)
 6080              		.loc 1 1564 0
 6081 006c FB7C     		ldrb	r3, [r7, #19]	@ zero_extendqisi2
 6082 006e 5A1C     		adds	r2, r3, #1
 6083 0070 FA74     		strb	r2, [r7, #19]
 6084 0072 1A46     		mov	r2, r3
 6085 0074 FB68     		ldr	r3, [r7, #12]
 6086 0076 1344     		add	r3, r3, r2
 6087 0078 E022     		movs	r2, #224
 6088 007a 1A71     		strb	r2, [r3, #4]
1565:.\PrimeImpl.c ****             puartdisp->_messagetx[index++] = 0xE1;//Complete Pump Configuration Request (sf2)
 6089              		.loc 1 1565 0
 6090 007c FB7C     		ldrb	r3, [r7, #19]	@ zero_extendqisi2
 6091 007e 5A1C     		adds	r2, r3, #1
 6092 0080 FA74     		strb	r2, [r7, #19]
 6093 0082 1A46     		mov	r2, r3
 6094 0084 FB68     		ldr	r3, [r7, #12]
 6095 0086 1344     		add	r3, r3, r2
 6096 0088 E122     		movs	r2, #225
 6097 008a 1A71     		strb	r2, [r3, #4]
1566:.\PrimeImpl.c ****             puartdisp->_messagetx[index++] = 0xE0;//Complete Pump Configuration Request (sf3)
 6098              		.loc 1 1566 0
 6099 008c FB7C     		ldrb	r3, [r7, #19]	@ zero_extendqisi2
 6100 008e 5A1C     		adds	r2, r3, #1
 6101 0090 FA74     		strb	r2, [r7, #19]
 6102 0092 1A46     		mov	r2, r3
 6103 0094 FB68     		ldr	r3, [r7, #12]
 6104 0096 1344     		add	r3, r3, r2
 6105 0098 E022     		movs	r2, #224
ARM GAS  C:\Users\RECEPC~1\AppData\Local\Temp\ccNQP0pp.s 			page 136


 6106 009a 1A71     		strb	r2, [r3, #4]
1567:.\PrimeImpl.c ****             puartdisp->_messagetx[index++] = 0xFB;
 6107              		.loc 1 1567 0
 6108 009c FB7C     		ldrb	r3, [r7, #19]	@ zero_extendqisi2
 6109 009e 5A1C     		adds	r2, r3, #1
 6110 00a0 FA74     		strb	r2, [r7, #19]
 6111 00a2 1A46     		mov	r2, r3
 6112 00a4 FB68     		ldr	r3, [r7, #12]
 6113 00a6 1344     		add	r3, r3, r2
 6114 00a8 FB22     		movs	r2, #251
 6115 00aa 1A71     		strb	r2, [r3, #4]
1568:.\PrimeImpl.c ****             puartdisp->_messagetx[index++] = GetLRC(puartdisp->_messagetx);
 6116              		.loc 1 1568 0
 6117 00ac FB7C     		ldrb	r3, [r7, #19]	@ zero_extendqisi2
 6118 00ae 5A1C     		adds	r2, r3, #1
 6119 00b0 FA74     		strb	r2, [r7, #19]
 6120 00b2 1C46     		mov	r4, r3
 6121 00b4 FB68     		ldr	r3, [r7, #12]
 6122 00b6 0433     		adds	r3, r3, #4
 6123 00b8 1846     		mov	r0, r3
 6124 00ba FFF7FEFF 		bl	GetLRC
 6125 00be 0346     		mov	r3, r0
 6126 00c0 1A46     		mov	r2, r3
 6127 00c2 FB68     		ldr	r3, [r7, #12]
 6128 00c4 2344     		add	r3, r3, r4
 6129 00c6 1A71     		strb	r2, [r3, #4]
1569:.\PrimeImpl.c ****             puartdisp->_messagetx[index++] = EOM;
 6130              		.loc 1 1569 0
 6131 00c8 FB7C     		ldrb	r3, [r7, #19]	@ zero_extendqisi2
 6132 00ca 5A1C     		adds	r2, r3, #1
 6133 00cc FA74     		strb	r2, [r7, #19]
 6134 00ce 1A46     		mov	r2, r3
 6135 00d0 FB68     		ldr	r3, [r7, #12]
 6136 00d2 1344     		add	r3, r3, r2
 6137 00d4 F022     		movs	r2, #240
 6138 00d6 1A71     		strb	r2, [r3, #4]
1570:.\PrimeImpl.c **** ///////////////////////////////////////////////////////////////////////////////////////////////////
1571:.\PrimeImpl.c ****             
1572:.\PrimeImpl.c ****             puartdisp->_messagelength = index;
 6139              		.loc 1 1572 0
 6140 00d8 FB7C     		ldrb	r3, [r7, #19]	@ zero_extendqisi2
 6141 00da 9AB2     		uxth	r2, r3
 6142 00dc FB68     		ldr	r3, [r7, #12]
 6143 00de 5A80     		strh	r2, [r3, #2]	@ movhi
1573:.\PrimeImpl.c ****             puartdisp->_messagestate = PENDING;
 6144              		.loc 1 1573 0
 6145 00e0 FB68     		ldr	r3, [r7, #12]
 6146 00e2 C222     		movs	r2, #194
 6147 00e4 1A70     		strb	r2, [r3]
 6148              	.L199:
 6149              	.LBE40:
1574:.\PrimeImpl.c ****         }
1575:.\PrimeImpl.c ****     }
1576:.\PrimeImpl.c **** }
 6150              		.loc 1 1576 0
 6151 00e6 1C37     		adds	r7, r7, #28
 6152              		.cfi_def_cfa_offset 12
ARM GAS  C:\Users\RECEPC~1\AppData\Local\Temp\ccNQP0pp.s 			page 137


 6153 00e8 BD46     		mov	sp, r7
 6154              		.cfi_def_cfa_register 13
 6155              		@ sp needed
 6156 00ea 90BD     		pop	{r4, r7, pc}
 6157              		.cfi_endproc
 6158              	.LFE98:
 6159              		.size	PumpHoseActiveState, .-PumpHoseActiveState
 6160              		.section	.text.AcquirePumpHoseActiveState,"ax",%progbits
 6161              		.align	2
 6162              		.global	AcquirePumpHoseActiveState
 6163              		.thumb
 6164              		.thumb_func
 6165              		.type	AcquirePumpHoseActiveState, %function
 6166              	AcquirePumpHoseActiveState:
 6167              	.LFB99:
1577:.\PrimeImpl.c **** 
1578:.\PrimeImpl.c **** void AcquirePumpHoseActiveState(void *pparam)
1579:.\PrimeImpl.c **** {
 6168              		.loc 1 1579 0
 6169              		.cfi_startproc
 6170              		@ args = 0, pretend = 0, frame = 24
 6171              		@ frame_needed = 1, uses_anonymous_args = 0
 6172 0000 80B5     		push	{r7, lr}
 6173              		.cfi_def_cfa_offset 8
 6174              		.cfi_offset 7, -8
 6175              		.cfi_offset 14, -4
 6176 0002 86B0     		sub	sp, sp, #24
 6177              		.cfi_def_cfa_offset 32
 6178 0004 00AF     		add	r7, sp, #0
 6179              		.cfi_def_cfa_register 7
 6180 0006 7860     		str	r0, [r7, #4]
1580:.\PrimeImpl.c ****     PPUMPTRANSACTIONJOBCONTEXTPTR pjob = (PPUMPTRANSACTIONJOBCONTEXTPTR)pparam;
 6181              		.loc 1 1580 0
 6182 0008 7B68     		ldr	r3, [r7, #4]
 6183 000a 7B61     		str	r3, [r7, #20]
1581:.\PrimeImpl.c ****     if(pjob)    
 6184              		.loc 1 1581 0
 6185 000c 7B69     		ldr	r3, [r7, #20]
 6186 000e 002B     		cmp	r3, #0
 6187 0010 00F0BA80 		beq	.L201
1582:.\PrimeImpl.c ****     {
1583:.\PrimeImpl.c ****         if(pjob->_ppump->_rxbuffer[0x00] == 0xBA)
 6188              		.loc 1 1583 0
 6189 0014 7B69     		ldr	r3, [r7, #20]
 6190 0016 DB69     		ldr	r3, [r3, #28]
 6191 0018 93F88831 		ldrb	r3, [r3, #392]	@ zero_extendqisi2
 6192 001c BA2B     		cmp	r3, #186
 6193 001e 40F0B380 		bne	.L201
1584:.\PrimeImpl.c ****         {            
1585:.\PrimeImpl.c ****             switch(pjob->_ppump->_rxbuffer[0x0E] & 0x0F)
 6194              		.loc 1 1585 0
 6195 0022 7B69     		ldr	r3, [r7, #20]
 6196 0024 DB69     		ldr	r3, [r3, #28]
 6197 0026 93F89631 		ldrb	r3, [r3, #406]	@ zero_extendqisi2
 6198 002a 03F00F03 		and	r3, r3, #15
 6199 002e 013B     		subs	r3, r3, #1
 6200 0030 032B     		cmp	r3, #3
ARM GAS  C:\Users\RECEPC~1\AppData\Local\Temp\ccNQP0pp.s 			page 138


 6201 0032 1FD8     		bhi	.L203
 6202 0034 01A2     		adr	r2, .L205
 6203 0036 52F823F0 		ldr	pc, [r2, r3, lsl #2]
 6204 003a 00BF     		.p2align 2
 6205              	.L205:
 6206 003c 4D000000 		.word	.L204+1
 6207 0040 57000000 		.word	.L206+1
 6208 0044 61000000 		.word	.L207+1
 6209 0048 6B000000 		.word	.L208+1
 6210              		.p2align 1
 6211              	.L204:
1586:.\PrimeImpl.c ****             {
1587:.\PrimeImpl.c ****                 case 0x01://Hose A active
1588:.\PrimeImpl.c ****                     //Pump-Handle/Nozzle
1589:.\PrimeImpl.c ****                     pjob->_ppump->_hoseactivestate = 0x01;//ON/OFF state
 6212              		.loc 1 1589 0
 6213 004c 7B69     		ldr	r3, [r7, #20]
 6214 004e DB69     		ldr	r3, [r3, #28]
 6215 0050 0122     		movs	r2, #1
 6216 0052 1A71     		strb	r2, [r3, #4]
1590:.\PrimeImpl.c ****                     break;
 6217              		.loc 1 1590 0
 6218 0054 0EE0     		b	.L203
 6219              	.L206:
1591:.\PrimeImpl.c ****                 case 0x02://Hose B active
1592:.\PrimeImpl.c ****                     //Pump-Handle/Nozzle
1593:.\PrimeImpl.c ****                     pjob->_ppump->_hoseactivestate = 0x11;//ON/OFF state
 6220              		.loc 1 1593 0
 6221 0056 7B69     		ldr	r3, [r7, #20]
 6222 0058 DB69     		ldr	r3, [r3, #28]
 6223 005a 1122     		movs	r2, #17
 6224 005c 1A71     		strb	r2, [r3, #4]
1594:.\PrimeImpl.c ****                     break;
 6225              		.loc 1 1594 0
 6226 005e 09E0     		b	.L203
 6227              	.L207:
1595:.\PrimeImpl.c ****                 case 0x03://Hose C active
1596:.\PrimeImpl.c ****                     //Pump-Handle/Nozzle
1597:.\PrimeImpl.c ****                     pjob->_ppump->_hoseactivestate = 0x21;//ON/OFF state
 6228              		.loc 1 1597 0
 6229 0060 7B69     		ldr	r3, [r7, #20]
 6230 0062 DB69     		ldr	r3, [r3, #28]
 6231 0064 2122     		movs	r2, #33
 6232 0066 1A71     		strb	r2, [r3, #4]
1598:.\PrimeImpl.c ****                     break;
 6233              		.loc 1 1598 0
 6234 0068 04E0     		b	.L203
 6235              	.L208:
1599:.\PrimeImpl.c ****                 case 0x04://Hose D active
1600:.\PrimeImpl.c ****                     //Pump-Handle/Nozzle
1601:.\PrimeImpl.c ****                     pjob->_ppump->_hoseactivestate = 0x31;//ON/OFF state
 6236              		.loc 1 1601 0
 6237 006a 7B69     		ldr	r3, [r7, #20]
 6238 006c DB69     		ldr	r3, [r3, #28]
 6239 006e 3122     		movs	r2, #49
 6240 0070 1A71     		strb	r2, [r3, #4]
1602:.\PrimeImpl.c ****                     break;
ARM GAS  C:\Users\RECEPC~1\AppData\Local\Temp\ccNQP0pp.s 			page 139


 6241              		.loc 1 1602 0
 6242 0072 00BF     		nop
 6243              	.L203:
1603:.\PrimeImpl.c ****             }
1604:.\PrimeImpl.c ****             
1605:.\PrimeImpl.c ****             if((pjob->_ppump->_hoseactivestate & 0x0F) == 0x00)
 6244              		.loc 1 1605 0
 6245 0074 7B69     		ldr	r3, [r7, #20]
 6246 0076 DB69     		ldr	r3, [r3, #28]
 6247 0078 1B79     		ldrb	r3, [r3, #4]
 6248 007a DBB2     		uxtb	r3, r3
 6249 007c 03F00F03 		and	r3, r3, #15
 6250 0080 002B     		cmp	r3, #0
 6251 0082 1DD1     		bne	.L209
 6252              	.LBB41:
1606:.\PrimeImpl.c ****             {
1607:.\PrimeImpl.c ****                 _ALLOCATE_SINKMESSAGE_SLOT(psinkmsg);
 6253              		.loc 1 1607 0
 6254 0084 FFF7FEFF 		bl	AllocateMessageSlot
 6255 0088 3861     		str	r0, [r7, #16]
1608:.\PrimeImpl.c ****                 if(psinkmsg)
 6256              		.loc 1 1608 0
 6257 008a 3B69     		ldr	r3, [r7, #16]
 6258 008c 002B     		cmp	r3, #0
 6259 008e 16D0     		beq	.L210
1609:.\PrimeImpl.c ****                 {
1610:.\PrimeImpl.c ****                     psinkmsg->_messageid = DISPENSER_ACQUIRE_PUMP_HOSE;
 6260              		.loc 1 1610 0
 6261 0090 3B69     		ldr	r3, [r7, #16]
 6262 0092 0922     		movs	r2, #9
 6263 0094 5A70     		strb	r2, [r3, #1]
1611:.\PrimeImpl.c ****                     psinkmsg->_messagedelay = _SINK_TIMEOUT_500MS_;
 6264              		.loc 1 1611 0
 6265 0096 3B69     		ldr	r3, [r7, #16]
 6266 0098 4FF4FA72 		mov	r2, #500
 6267 009c 9A80     		strh	r2, [r3, #4]	@ movhi
1612:.\PrimeImpl.c ****                     psinkmsg->_messagetype = DELAYEDALLINTERESTED;
 6268              		.loc 1 1612 0
 6269 009e 3B69     		ldr	r3, [r7, #16]
 6270 00a0 0522     		movs	r2, #5
 6271 00a2 9A70     		strb	r2, [r3, #2]
1613:.\PrimeImpl.c ****                     psinkmsg->_pdata = pjob->_ppump;
 6272              		.loc 1 1613 0
 6273 00a4 7B69     		ldr	r3, [r7, #20]
 6274 00a6 DA69     		ldr	r2, [r3, #28]
 6275 00a8 3B69     		ldr	r3, [r7, #16]
 6276 00aa C3F89021 		str	r2, [r3, #400]
1614:.\PrimeImpl.c ****                     psinkmsg->_messagestate = SINK_BUSY;
 6277              		.loc 1 1614 0
 6278 00ae 3B69     		ldr	r3, [r7, #16]
 6279 00b0 0322     		movs	r2, #3
 6280 00b2 DA70     		strb	r2, [r3, #3]
1615:.\PrimeImpl.c ****                     pjob->_ppump->_pumplocked = true;
 6281              		.loc 1 1615 0
 6282 00b4 7B69     		ldr	r3, [r7, #20]
 6283 00b6 DB69     		ldr	r3, [r3, #28]
 6284 00b8 0122     		movs	r2, #1
ARM GAS  C:\Users\RECEPC~1\AppData\Local\Temp\ccNQP0pp.s 			page 140


 6285 00ba DA72     		strb	r2, [r3, #11]
 6286              	.LBE41:
 6287 00bc 64E0     		b	.L201
 6288              	.L210:
 6289 00be 63E0     		b	.L201
 6290              	.L209:
1616:.\PrimeImpl.c ****                 }
1617:.\PrimeImpl.c ****                                 
1618:.\PrimeImpl.c ****             }
1619:.\PrimeImpl.c ****             else
1620:.\PrimeImpl.c ****             {
1621:.\PrimeImpl.c ****                 if(((pjob->_ppump->_hoseactivestate & 0xF0) >> 4) != pjob->_ppump->_authorizationin
 6291              		.loc 1 1621 0
 6292 00c0 7B69     		ldr	r3, [r7, #20]
 6293 00c2 DB69     		ldr	r3, [r3, #28]
 6294 00c4 1B79     		ldrb	r3, [r3, #4]
 6295 00c6 DBB2     		uxtb	r3, r3
 6296 00c8 1B09     		lsrs	r3, r3, #4
 6297 00ca DAB2     		uxtb	r2, r3
 6298 00cc 7B69     		ldr	r3, [r7, #20]
 6299 00ce DB69     		ldr	r3, [r3, #28]
 6300 00d0 93F87239 		ldrb	r3, [r3, #2418]
 6301 00d4 DBB2     		uxtb	r3, r3
 6302 00d6 9A42     		cmp	r2, r3
 6303 00d8 31D0     		beq	.L211
 6304              	.LBB42:
1622:.\PrimeImpl.c ****                 {
1623:.\PrimeImpl.c ****                     _ALLOCATE_SINKMESSAGE_SLOT(psinkmsg);
 6305              		.loc 1 1623 0
 6306 00da FFF7FEFF 		bl	AllocateMessageSlot
 6307 00de F860     		str	r0, [r7, #12]
1624:.\PrimeImpl.c ****                     if(psinkmsg)
 6308              		.loc 1 1624 0
 6309 00e0 FB68     		ldr	r3, [r7, #12]
 6310 00e2 002B     		cmp	r3, #0
 6311 00e4 15D0     		beq	.L212
1625:.\PrimeImpl.c ****                     {
1626:.\PrimeImpl.c ****                         psinkmsg->_messageid = DISPENSER_ACQUIRE_PUMP_HOSE;
 6312              		.loc 1 1626 0
 6313 00e6 FB68     		ldr	r3, [r7, #12]
 6314 00e8 0922     		movs	r2, #9
 6315 00ea 5A70     		strb	r2, [r3, #1]
1627:.\PrimeImpl.c ****                         psinkmsg->_messagedelay = _SINK_TIMEOUT_500MS_;
 6316              		.loc 1 1627 0
 6317 00ec FB68     		ldr	r3, [r7, #12]
 6318 00ee 4FF4FA72 		mov	r2, #500
 6319 00f2 9A80     		strh	r2, [r3, #4]	@ movhi
1628:.\PrimeImpl.c ****                         psinkmsg->_messagetype = DELAYEDALLINTERESTED;
 6320              		.loc 1 1628 0
 6321 00f4 FB68     		ldr	r3, [r7, #12]
 6322 00f6 0522     		movs	r2, #5
 6323 00f8 9A70     		strb	r2, [r3, #2]
1629:.\PrimeImpl.c ****                         psinkmsg->_pdata = pjob->_ppump;
 6324              		.loc 1 1629 0
 6325 00fa 7B69     		ldr	r3, [r7, #20]
 6326 00fc DA69     		ldr	r2, [r3, #28]
 6327 00fe FB68     		ldr	r3, [r7, #12]
ARM GAS  C:\Users\RECEPC~1\AppData\Local\Temp\ccNQP0pp.s 			page 141


 6328 0100 C3F89021 		str	r2, [r3, #400]
1630:.\PrimeImpl.c ****                         psinkmsg->_messagestate = SINK_BUSY;
 6329              		.loc 1 1630 0
 6330 0104 FB68     		ldr	r3, [r7, #12]
 6331 0106 0322     		movs	r2, #3
 6332 0108 DA70     		strb	r2, [r3, #3]
1631:.\PrimeImpl.c ****                         pjob->_ppump->_pumplocked = true;
 6333              		.loc 1 1631 0
 6334 010a 7B69     		ldr	r3, [r7, #20]
 6335 010c DB69     		ldr	r3, [r3, #28]
 6336 010e 0122     		movs	r2, #1
 6337 0110 DA72     		strb	r2, [r3, #11]
 6338              	.L212:
1632:.\PrimeImpl.c ****                     }
1633:.\PrimeImpl.c ****                     
1634:.\PrimeImpl.c ****                     _REALLOCATE_SINKMESSAGE_SLOT(psinkmsg);
 6339              		.loc 1 1634 0
 6340 0112 FFF7FEFF 		bl	AllocateMessageSlot
 6341 0116 F860     		str	r0, [r7, #12]
1635:.\PrimeImpl.c ****                     if(psinkmsg)
 6342              		.loc 1 1635 0
 6343 0118 FB68     		ldr	r3, [r7, #12]
 6344 011a 002B     		cmp	r3, #0
 6345 011c 0ED0     		beq	.L213
1636:.\PrimeImpl.c ****                     {
1637:.\PrimeImpl.c ****                         psinkmsg->_messageid = DISPENSER_PUMP_BEEP_WARNING;
 6346              		.loc 1 1637 0
 6347 011e FB68     		ldr	r3, [r7, #12]
 6348 0120 1522     		movs	r2, #21
 6349 0122 5A70     		strb	r2, [r3, #1]
1638:.\PrimeImpl.c ****                         psinkmsg->_messagetype = FIRSTFOUND;
 6350              		.loc 1 1638 0
 6351 0124 FB68     		ldr	r3, [r7, #12]
 6352 0126 0322     		movs	r2, #3
 6353 0128 9A70     		strb	r2, [r3, #2]
1639:.\PrimeImpl.c ****                         psinkmsg->_pdata = pjob->_ppump;
 6354              		.loc 1 1639 0
 6355 012a 7B69     		ldr	r3, [r7, #20]
 6356 012c DA69     		ldr	r2, [r3, #28]
 6357 012e FB68     		ldr	r3, [r7, #12]
 6358 0130 C3F89021 		str	r2, [r3, #400]
1640:.\PrimeImpl.c ****                         psinkmsg->_messagestate = SINK_BUSY;
 6359              		.loc 1 1640 0
 6360 0134 FB68     		ldr	r3, [r7, #12]
 6361 0136 0322     		movs	r2, #3
 6362 0138 DA70     		strb	r2, [r3, #3]
 6363              	.LBE42:
 6364 013a 25E0     		b	.L201
 6365              	.L213:
 6366 013c 24E0     		b	.L201
 6367              	.L211:
 6368              	.LBB43:
1641:.\PrimeImpl.c ****                     }
1642:.\PrimeImpl.c ****                 }
1643:.\PrimeImpl.c ****                 else
1644:.\PrimeImpl.c ****                 {
1645:.\PrimeImpl.c ****                     pjob->_ppump->_pumplocked = false;
ARM GAS  C:\Users\RECEPC~1\AppData\Local\Temp\ccNQP0pp.s 			page 142


 6369              		.loc 1 1645 0
 6370 013e 7B69     		ldr	r3, [r7, #20]
 6371 0140 DB69     		ldr	r3, [r3, #28]
 6372 0142 0022     		movs	r2, #0
 6373 0144 DA72     		strb	r2, [r3, #11]
1646:.\PrimeImpl.c ****                     _ALLOCATE_SINKMESSAGE_SLOT(psinkmsg);
 6374              		.loc 1 1646 0
 6375 0146 FFF7FEFF 		bl	AllocateMessageSlot
 6376 014a B860     		str	r0, [r7, #8]
1647:.\PrimeImpl.c ****                     if(psinkmsg)
 6377              		.loc 1 1647 0
 6378 014c BB68     		ldr	r3, [r7, #8]
 6379 014e 002B     		cmp	r3, #0
 6380 0150 1AD0     		beq	.L201
1648:.\PrimeImpl.c ****                     {
1649:.\PrimeImpl.c ****                         psinkmsg->_messageid = pjob->_ppump->_sinktransaction;
 6381              		.loc 1 1649 0
 6382 0152 7B69     		ldr	r3, [r7, #20]
 6383 0154 DB69     		ldr	r3, [r3, #28]
 6384 0156 9B79     		ldrb	r3, [r3, #6]
 6385 0158 DAB2     		uxtb	r2, r3
 6386 015a BB68     		ldr	r3, [r7, #8]
 6387 015c 5A70     		strb	r2, [r3, #1]
1650:.\PrimeImpl.c ****                         psinkmsg->_messagedelay = _SINK_TIMEOUT_1S_;
 6388              		.loc 1 1650 0
 6389 015e BB68     		ldr	r3, [r7, #8]
 6390 0160 4FF47A72 		mov	r2, #1000
 6391 0164 9A80     		strh	r2, [r3, #4]	@ movhi
1651:.\PrimeImpl.c ****                         psinkmsg->_messagetype = DELAYEDALLINTERESTED;
 6392              		.loc 1 1651 0
 6393 0166 BB68     		ldr	r3, [r7, #8]
 6394 0168 0522     		movs	r2, #5
 6395 016a 9A70     		strb	r2, [r3, #2]
1652:.\PrimeImpl.c ****                         psinkmsg->_buffer[0x00] = pjob->_ppump->_pendingtransaction;
 6396              		.loc 1 1652 0
 6397 016c 7B69     		ldr	r3, [r7, #20]
 6398 016e DB69     		ldr	r3, [r3, #28]
 6399 0170 DB79     		ldrb	r3, [r3, #7]
 6400 0172 DAB2     		uxtb	r2, r3
 6401 0174 BB68     		ldr	r3, [r7, #8]
 6402 0176 1A73     		strb	r2, [r3, #12]
1653:.\PrimeImpl.c ****                         psinkmsg->_pdata = pjob->_ppump;
 6403              		.loc 1 1653 0
 6404 0178 7B69     		ldr	r3, [r7, #20]
 6405 017a DA69     		ldr	r2, [r3, #28]
 6406 017c BB68     		ldr	r3, [r7, #8]
 6407 017e C3F89021 		str	r2, [r3, #400]
1654:.\PrimeImpl.c ****                         psinkmsg->_messagestate = SINK_BUSY;
 6408              		.loc 1 1654 0
 6409 0182 BB68     		ldr	r3, [r7, #8]
 6410 0184 0322     		movs	r2, #3
 6411 0186 DA70     		strb	r2, [r3, #3]
 6412              	.L201:
 6413              	.LBE43:
1655:.\PrimeImpl.c ****                     }
1656:.\PrimeImpl.c ****                 }
1657:.\PrimeImpl.c ****             }
ARM GAS  C:\Users\RECEPC~1\AppData\Local\Temp\ccNQP0pp.s 			page 143


1658:.\PrimeImpl.c ****         }
1659:.\PrimeImpl.c ****     }
1660:.\PrimeImpl.c **** }
 6414              		.loc 1 1660 0
 6415 0188 1837     		adds	r7, r7, #24
 6416              		.cfi_def_cfa_offset 8
 6417 018a BD46     		mov	sp, r7
 6418              		.cfi_def_cfa_register 13
 6419              		@ sp needed
 6420 018c 80BD     		pop	{r7, pc}
 6421              		.cfi_endproc
 6422              	.LFE99:
 6423              		.size	AcquirePumpHoseActiveState, .-AcquirePumpHoseActiveState
 6424 018e 00BF     		.section	.text.AcquirePumpCompleteConfiguration,"ax",%progbits
 6425              		.align	2
 6426              		.global	AcquirePumpCompleteConfiguration
 6427              		.thumb
 6428              		.thumb_func
 6429              		.type	AcquirePumpCompleteConfiguration, %function
 6430              	AcquirePumpCompleteConfiguration:
 6431              	.LFB100:
1661:.\PrimeImpl.c **** 
1662:.\PrimeImpl.c **** //@Created By: HIJH
1663:.\PrimeImpl.c **** //@Date: Septembre de 2016
1664:.\PrimeImpl.c **** //Receives the complete pump configuration information
1665:.\PrimeImpl.c **** void AcquirePumpCompleteConfiguration(void *pparam)
1666:.\PrimeImpl.c **** {
 6432              		.loc 1 1666 0
 6433              		.cfi_startproc
 6434              		@ args = 0, pretend = 0, frame = 32
 6435              		@ frame_needed = 1, uses_anonymous_args = 0
 6436 0000 90B5     		push	{r4, r7, lr}
 6437              		.cfi_def_cfa_offset 12
 6438              		.cfi_offset 4, -12
 6439              		.cfi_offset 7, -8
 6440              		.cfi_offset 14, -4
 6441 0002 89B0     		sub	sp, sp, #36
 6442              		.cfi_def_cfa_offset 48
 6443 0004 00AF     		add	r7, sp, #0
 6444              		.cfi_def_cfa_register 7
 6445 0006 7860     		str	r0, [r7, #4]
1667:.\PrimeImpl.c ****     PPUMPTRANSACTIONJOBCONTEXTPTR pjob = (PPUMPTRANSACTIONJOBCONTEXTPTR)pparam;
 6446              		.loc 1 1667 0
 6447 0008 7B68     		ldr	r3, [r7, #4]
 6448 000a BB61     		str	r3, [r7, #24]
1668:.\PrimeImpl.c ****     if(pjob)    
 6449              		.loc 1 1668 0
 6450 000c BB69     		ldr	r3, [r7, #24]
 6451 000e 002B     		cmp	r3, #0
 6452 0010 01F00C80 		beq	.L214
 6453              	.LBB44:
1669:.\PrimeImpl.c ****     {
1670:.\PrimeImpl.c ****         uint8 index = 0;
 6454              		.loc 1 1670 0
 6455 0014 0023     		movs	r3, #0
 6456 0016 FB75     		strb	r3, [r7, #23]
1671:.\PrimeImpl.c ****         //NOT USED!! JUST FOR DEBUGGING PURPOSES!
ARM GAS  C:\Users\RECEPC~1\AppData\Local\Temp\ccNQP0pp.s 			page 144


1672:.\PrimeImpl.c ****         //The "index" variable has been kept in some lines of code just for reference.
1673:.\PrimeImpl.c ****         //uint8 remblocks = (TranslateSpecialFuncionDigit(pjob->_ppump->_rxbuffer[7 + 45*index]) <<
1674:.\PrimeImpl.c ****         //HERE WE ACQUIRE THE MISCELLANEOUS PUMP CONFIGURATION INFORMATION AND STORE IT INTO
1675:.\PrimeImpl.c ****         //THE PERSISTENT FILE SYSTEM (EEPROM)        
1676:.\PrimeImpl.c ****         if(pjob->_ppump->_rxbuffer[0 + 45*index] == 0xBA)
 6457              		.loc 1 1676 0
 6458 0018 BB69     		ldr	r3, [r7, #24]
 6459 001a D969     		ldr	r1, [r3, #28]
 6460 001c FA7D     		ldrb	r2, [r7, #23]	@ zero_extendqisi2
 6461 001e 1346     		mov	r3, r2
 6462 0020 5B00     		lsls	r3, r3, #1
 6463 0022 1344     		add	r3, r3, r2
 6464 0024 1A01     		lsls	r2, r3, #4
 6465 0026 D31A     		subs	r3, r2, r3
 6466 0028 0B44     		add	r3, r3, r1
 6467 002a 93F88831 		ldrb	r3, [r3, #392]	@ zero_extendqisi2
 6468 002e BA2B     		cmp	r3, #186
 6469 0030 40F0FC87 		bne	.L214
 6470              	.LBB45:
1677:.\PrimeImpl.c ****         {
1678:.\PrimeImpl.c ****             
1679:.\PrimeImpl.c ****             ClearEepromBuffer();
 6471              		.loc 1 1679 0
 6472 0034 FFF7FEFF 		bl	ClearEepromBuffer
1680:.\PrimeImpl.c ****             bool targetmemoryareafound = false;
 6473              		.loc 1 1680 0
 6474 0038 0023     		movs	r3, #0
 6475 003a FB77     		strb	r3, [r7, #31]
1681:.\PrimeImpl.c ****             uint16 eeprompumpconfigmemorypageid = 0;
 6476              		.loc 1 1681 0
 6477 003c 0023     		movs	r3, #0
 6478 003e BB83     		strh	r3, [r7, #28]	@ movhi
1682:.\PrimeImpl.c ****             //WE ALWAYS READ THE PAGE FROM THE EEPROM BEFORE SINCE AFTER MODIFYING ANY FIELD IT MUS
1683:.\PrimeImpl.c ****             eeprompumpconfigmemorypageid = (uint16)EEPROM_DISPENSER_PUMP1_LAYOUT_PAGE;
 6479              		.loc 1 1683 0
 6480 0040 4FF40073 		mov	r3, #512
 6481 0044 BB83     		strh	r3, [r7, #28]	@ movhi
1684:.\PrimeImpl.c ****             LoadEepromPage(eeprompumpconfigmemorypageid);
 6482              		.loc 1 1684 0
 6483 0046 BB8B     		ldrh	r3, [r7, #28]
 6484 0048 1846     		mov	r0, r3
 6485 004a FFF7FEFF 		bl	LoadEepromPage
1685:.\PrimeImpl.c ****             if(TranslateSpecialFuncionDigit(pjob->_ppump->_rxbuffer[3 + 45*index]) != (GetEepromBuf
 6486              		.loc 1 1685 0
 6487 004e BB69     		ldr	r3, [r7, #24]
 6488 0050 D969     		ldr	r1, [r3, #28]
 6489 0052 FA7D     		ldrb	r2, [r7, #23]	@ zero_extendqisi2
 6490 0054 1346     		mov	r3, r2
 6491 0056 5B00     		lsls	r3, r3, #1
 6492 0058 1344     		add	r3, r3, r2
 6493 005a 1A01     		lsls	r2, r3, #4
 6494 005c D31A     		subs	r3, r2, r3
 6495 005e 0333     		adds	r3, r3, #3
 6496 0060 0B44     		add	r3, r3, r1
 6497 0062 93F88831 		ldrb	r3, [r3, #392]	@ zero_extendqisi2
 6498 0066 1846     		mov	r0, r3
 6499 0068 FFF7FEFF 		bl	TranslateSpecialFuncionDigit
ARM GAS  C:\Users\RECEPC~1\AppData\Local\Temp\ccNQP0pp.s 			page 145


 6500 006c 0346     		mov	r3, r0
 6501 006e 1C46     		mov	r4, r3
 6502 0070 FFF7FEFF 		bl	GetEepromBuffer
 6503 0074 0346     		mov	r3, r0
 6504 0076 1B78     		ldrb	r3, [r3]	@ zero_extendqisi2
 6505 0078 03F00F03 		and	r3, r3, #15
 6506 007c 9C42     		cmp	r4, r3
 6507 007e 68D0     		beq	.L216
1686:.\PrimeImpl.c ****             {
1687:.\PrimeImpl.c ****                 eeprompumpconfigmemorypageid = (uint16)EEPROM_DISPENSER_PUMP2_LAYOUT_PAGE;
 6508              		.loc 1 1687 0
 6509 0080 4FF41073 		mov	r3, #576
 6510 0084 BB83     		strh	r3, [r7, #28]	@ movhi
1688:.\PrimeImpl.c ****                 LoadEepromPage(eeprompumpconfigmemorypageid);
 6511              		.loc 1 1688 0
 6512 0086 BB8B     		ldrh	r3, [r7, #28]
 6513 0088 1846     		mov	r0, r3
 6514 008a FFF7FEFF 		bl	LoadEepromPage
1689:.\PrimeImpl.c ****                 if(TranslateSpecialFuncionDigit(pjob->_ppump->_rxbuffer[3 + 45*index]) != (GetEepro
 6515              		.loc 1 1689 0
 6516 008e BB69     		ldr	r3, [r7, #24]
 6517 0090 D969     		ldr	r1, [r3, #28]
 6518 0092 FA7D     		ldrb	r2, [r7, #23]	@ zero_extendqisi2
 6519 0094 1346     		mov	r3, r2
 6520 0096 5B00     		lsls	r3, r3, #1
 6521 0098 1344     		add	r3, r3, r2
 6522 009a 1A01     		lsls	r2, r3, #4
 6523 009c D31A     		subs	r3, r2, r3
 6524 009e 0333     		adds	r3, r3, #3
 6525 00a0 0B44     		add	r3, r3, r1
 6526 00a2 93F88831 		ldrb	r3, [r3, #392]	@ zero_extendqisi2
 6527 00a6 1846     		mov	r0, r3
 6528 00a8 FFF7FEFF 		bl	TranslateSpecialFuncionDigit
 6529 00ac 0346     		mov	r3, r0
 6530 00ae 1C46     		mov	r4, r3
 6531 00b0 FFF7FEFF 		bl	GetEepromBuffer
 6532 00b4 0346     		mov	r3, r0
 6533 00b6 1B78     		ldrb	r3, [r3]	@ zero_extendqisi2
 6534 00b8 03F00F03 		and	r3, r3, #15
 6535 00bc 9C42     		cmp	r4, r3
 6536 00be 45D0     		beq	.L217
1690:.\PrimeImpl.c ****                 {
1691:.\PrimeImpl.c ****                     eeprompumpconfigmemorypageid = (uint16)EEPROM_DISPENSER_PUMP3_LAYOUT_PAGE;
 6537              		.loc 1 1691 0
 6538 00c0 4FF42073 		mov	r3, #640
 6539 00c4 BB83     		strh	r3, [r7, #28]	@ movhi
1692:.\PrimeImpl.c ****                     LoadEepromPage(eeprompumpconfigmemorypageid);
 6540              		.loc 1 1692 0
 6541 00c6 BB8B     		ldrh	r3, [r7, #28]
 6542 00c8 1846     		mov	r0, r3
 6543 00ca FFF7FEFF 		bl	LoadEepromPage
1693:.\PrimeImpl.c ****                     if(TranslateSpecialFuncionDigit(pjob->_ppump->_rxbuffer[3 + 45*index]) != (GetE
 6544              		.loc 1 1693 0
 6545 00ce BB69     		ldr	r3, [r7, #24]
 6546 00d0 D969     		ldr	r1, [r3, #28]
 6547 00d2 FA7D     		ldrb	r2, [r7, #23]	@ zero_extendqisi2
 6548 00d4 1346     		mov	r3, r2
ARM GAS  C:\Users\RECEPC~1\AppData\Local\Temp\ccNQP0pp.s 			page 146


 6549 00d6 5B00     		lsls	r3, r3, #1
 6550 00d8 1344     		add	r3, r3, r2
 6551 00da 1A01     		lsls	r2, r3, #4
 6552 00dc D31A     		subs	r3, r2, r3
 6553 00de 0333     		adds	r3, r3, #3
 6554 00e0 0B44     		add	r3, r3, r1
 6555 00e2 93F88831 		ldrb	r3, [r3, #392]	@ zero_extendqisi2
 6556 00e6 1846     		mov	r0, r3
 6557 00e8 FFF7FEFF 		bl	TranslateSpecialFuncionDigit
 6558 00ec 0346     		mov	r3, r0
 6559 00ee 1C46     		mov	r4, r3
 6560 00f0 FFF7FEFF 		bl	GetEepromBuffer
 6561 00f4 0346     		mov	r3, r0
 6562 00f6 1B78     		ldrb	r3, [r3]	@ zero_extendqisi2
 6563 00f8 03F00F03 		and	r3, r3, #15
 6564 00fc 9C42     		cmp	r4, r3
 6565 00fe 22D0     		beq	.L218
1694:.\PrimeImpl.c ****                     {
1695:.\PrimeImpl.c ****                         eeprompumpconfigmemorypageid = (uint16)EEPROM_DISPENSER_PUMP4_LAYOUT_PAGE;
 6566              		.loc 1 1695 0
 6567 0100 4FF43073 		mov	r3, #704
 6568 0104 BB83     		strh	r3, [r7, #28]	@ movhi
1696:.\PrimeImpl.c ****                         LoadEepromPage(eeprompumpconfigmemorypageid);
 6569              		.loc 1 1696 0
 6570 0106 BB8B     		ldrh	r3, [r7, #28]
 6571 0108 1846     		mov	r0, r3
 6572 010a FFF7FEFF 		bl	LoadEepromPage
1697:.\PrimeImpl.c ****                         if(TranslateSpecialFuncionDigit(pjob->_ppump->_rxbuffer[3 + 45*index]) == (
 6573              		.loc 1 1697 0
 6574 010e BB69     		ldr	r3, [r7, #24]
 6575 0110 D969     		ldr	r1, [r3, #28]
 6576 0112 FA7D     		ldrb	r2, [r7, #23]	@ zero_extendqisi2
 6577 0114 1346     		mov	r3, r2
 6578 0116 5B00     		lsls	r3, r3, #1
 6579 0118 1344     		add	r3, r3, r2
 6580 011a 1A01     		lsls	r2, r3, #4
 6581 011c D31A     		subs	r3, r2, r3
 6582 011e 0333     		adds	r3, r3, #3
 6583 0120 0B44     		add	r3, r3, r1
 6584 0122 93F88831 		ldrb	r3, [r3, #392]	@ zero_extendqisi2
 6585 0126 1846     		mov	r0, r3
 6586 0128 FFF7FEFF 		bl	TranslateSpecialFuncionDigit
 6587 012c 0346     		mov	r3, r0
 6588 012e 1C46     		mov	r4, r3
 6589 0130 FFF7FEFF 		bl	GetEepromBuffer
 6590 0134 0346     		mov	r3, r0
 6591 0136 1B78     		ldrb	r3, [r3]	@ zero_extendqisi2
 6592 0138 03F00F03 		and	r3, r3, #15
 6593 013c 9C42     		cmp	r4, r3
 6594 013e 0AD1     		bne	.L222
1698:.\PrimeImpl.c ****                             targetmemoryareafound = true;
 6595              		.loc 1 1698 0
 6596 0140 0123     		movs	r3, #1
 6597 0142 FB77     		strb	r3, [r7, #31]
 6598 0144 07E0     		b	.L222
 6599              	.L218:
1699:.\PrimeImpl.c ****                             
ARM GAS  C:\Users\RECEPC~1\AppData\Local\Temp\ccNQP0pp.s 			page 147


1700:.\PrimeImpl.c ****                     }else
1701:.\PrimeImpl.c ****                         targetmemoryareafound = true;
 6600              		.loc 1 1701 0
 6601 0146 0123     		movs	r3, #1
 6602 0148 FB77     		strb	r3, [r7, #31]
 6603 014a 04E0     		b	.L222
 6604              	.L217:
1702:.\PrimeImpl.c ****                 }else
1703:.\PrimeImpl.c ****                     targetmemoryareafound = true;
 6605              		.loc 1 1703 0
 6606 014c 0123     		movs	r3, #1
 6607 014e FB77     		strb	r3, [r7, #31]
 6608 0150 01E0     		b	.L222
 6609              	.L216:
1704:.\PrimeImpl.c ****             }else
1705:.\PrimeImpl.c ****                 targetmemoryareafound = true;
 6610              		.loc 1 1705 0
 6611 0152 0123     		movs	r3, #1
 6612 0154 FB77     		strb	r3, [r7, #31]
 6613              	.L222:
1706:.\PrimeImpl.c ****             
1707:.\PrimeImpl.c ****             ///////////////////////////////////////////////////////////////////////////////////////
1708:.\PrimeImpl.c ****             //JUST RETURN SINCE IT MEANS THAT THE PUMP/POSITION IDENTIFIERS HAVE NOT YET BEEN DEFIN
1709:.\PrimeImpl.c ****             if(!targetmemoryareafound)
 6614              		.loc 1 1709 0
 6615 0156 FB7F     		ldrb	r3, [r7, #31]
 6616 0158 83F00103 		eor	r3, r3, #1
 6617 015c DBB2     		uxtb	r3, r3
 6618 015e 002B     		cmp	r3, #0
 6619 0160 01D0     		beq	.L223
1710:.\PrimeImpl.c ****                 return;
 6620              		.loc 1 1710 0
 6621 0162 00F063BF 		b	.L214
 6622              	.L223:
1711:.\PrimeImpl.c ****                 
1712:.\PrimeImpl.c ****             //THE FIRST 16 BYTES ARE RESERVED FOR LOCAL PUMP CONFIGURATION INFORMATION
1713:.\PrimeImpl.c ****             LPRAWPTR ptreeprom = &(GetEepromBuffer()[16]);
 6623              		.loc 1 1713 0
 6624 0166 FFF7FEFF 		bl	GetEepromBuffer
 6625 016a 0346     		mov	r3, r0
 6626 016c 1033     		adds	r3, r3, #16
 6627 016e 3B61     		str	r3, [r7, #16]
1714:.\PrimeImpl.c ****             
1715:.\PrimeImpl.c ****             uint8 blkindex = 0;
 6628              		.loc 1 1715 0
 6629 0170 0023     		movs	r3, #0
 6630 0172 FB73     		strb	r3, [r7, #15]
1716:.\PrimeImpl.c ****             //NOT YET REQUIRED
1717:.\PrimeImpl.c ****             //uint8 msglength = (TranslateSpecialFuncionDigit(pjob->_ppump->_rxbuffer[1 + 45*index]
1718:.\PrimeImpl.c ****             
1719:.\PrimeImpl.c ****             //0
1720:.\PrimeImpl.c ****             //Pump Type
1721:.\PrimeImpl.c ****             *ptreeprom = ((TranslateSpecialFuncionDigit(pjob->_ppump->_rxbuffer[9 + 45*index + 2*bl
 6631              		.loc 1 1721 0
 6632 0174 BB69     		ldr	r3, [r7, #24]
 6633 0176 D969     		ldr	r1, [r3, #28]
 6634 0178 FA7D     		ldrb	r2, [r7, #23]	@ zero_extendqisi2
ARM GAS  C:\Users\RECEPC~1\AppData\Local\Temp\ccNQP0pp.s 			page 148


 6635 017a 1346     		mov	r3, r2
 6636 017c 5B00     		lsls	r3, r3, #1
 6637 017e 1344     		add	r3, r3, r2
 6638 0180 1A01     		lsls	r2, r3, #4
 6639 0182 D31A     		subs	r3, r2, r3
 6640 0184 03F10902 		add	r2, r3, #9
 6641 0188 FB7B     		ldrb	r3, [r7, #15]	@ zero_extendqisi2
 6642 018a 5B00     		lsls	r3, r3, #1
 6643 018c 1344     		add	r3, r3, r2
 6644 018e 0B44     		add	r3, r3, r1
 6645 0190 93F88831 		ldrb	r3, [r3, #392]	@ zero_extendqisi2
 6646 0194 1846     		mov	r0, r3
 6647 0196 FFF7FEFF 		bl	TranslateSpecialFuncionDigit
 6648 019a 0346     		mov	r3, r0
 6649 019c 1B01     		lsls	r3, r3, #4
 6650 019e DCB2     		uxtb	r4, r3
1722:.\PrimeImpl.c ****                             (TranslateSpecialFuncionDigit(pjob->_ppump->_rxbuffer[9 + 45*index + (2
 6651              		.loc 1 1722 0
 6652 01a0 BB69     		ldr	r3, [r7, #24]
 6653 01a2 D969     		ldr	r1, [r3, #28]
 6654 01a4 FA7D     		ldrb	r2, [r7, #23]	@ zero_extendqisi2
 6655 01a6 1346     		mov	r3, r2
 6656 01a8 5B00     		lsls	r3, r3, #1
 6657 01aa 1344     		add	r3, r3, r2
 6658 01ac 1A01     		lsls	r2, r3, #4
 6659 01ae D31A     		subs	r3, r2, r3
 6660 01b0 03F10902 		add	r2, r3, #9
 6661 01b4 FB7B     		ldrb	r3, [r7, #15]	@ zero_extendqisi2
 6662 01b6 5B00     		lsls	r3, r3, #1
 6663 01b8 0133     		adds	r3, r3, #1
 6664 01ba 1344     		add	r3, r3, r2
 6665 01bc 0B44     		add	r3, r3, r1
 6666 01be 93F88831 		ldrb	r3, [r3, #392]	@ zero_extendqisi2
 6667 01c2 1846     		mov	r0, r3
 6668 01c4 FFF7FEFF 		bl	TranslateSpecialFuncionDigit
 6669 01c8 0346     		mov	r3, r0
1721:.\PrimeImpl.c ****                             (TranslateSpecialFuncionDigit(pjob->_ppump->_rxbuffer[9 + 45*index + (2
 6670              		.loc 1 1721 0
 6671 01ca DBB2     		uxtb	r3, r3
 6672 01cc 03F00F03 		and	r3, r3, #15
 6673 01d0 DBB2     		uxtb	r3, r3
 6674 01d2 2246     		mov	r2, r4
 6675 01d4 1343     		orrs	r3, r3, r2
 6676 01d6 DBB2     		uxtb	r3, r3
 6677 01d8 DAB2     		uxtb	r2, r3
 6678 01da 3B69     		ldr	r3, [r7, #16]
 6679 01dc 1A70     		strb	r2, [r3]
1723:.\PrimeImpl.c **** 
1724:.\PrimeImpl.c ****             //1
1725:.\PrimeImpl.c ****             ptreeprom++;
 6680              		.loc 1 1725 0
 6681 01de 3B69     		ldr	r3, [r7, #16]
 6682 01e0 0133     		adds	r3, r3, #1
 6683 01e2 3B61     		str	r3, [r7, #16]
1726:.\PrimeImpl.c ****             blkindex++;
 6684              		.loc 1 1726 0
 6685 01e4 FB7B     		ldrb	r3, [r7, #15]	@ zero_extendqisi2
ARM GAS  C:\Users\RECEPC~1\AppData\Local\Temp\ccNQP0pp.s 			page 149


 6686 01e6 0133     		adds	r3, r3, #1
 6687 01e8 FB73     		strb	r3, [r7, #15]
1727:.\PrimeImpl.c ****             //Pump Model
1728:.\PrimeImpl.c ****             *ptreeprom = ((TranslateSpecialFuncionDigit(pjob->_ppump->_rxbuffer[9 + 45*index + 2*bl
 6688              		.loc 1 1728 0
 6689 01ea BB69     		ldr	r3, [r7, #24]
 6690 01ec D969     		ldr	r1, [r3, #28]
 6691 01ee FA7D     		ldrb	r2, [r7, #23]	@ zero_extendqisi2
 6692 01f0 1346     		mov	r3, r2
 6693 01f2 5B00     		lsls	r3, r3, #1
 6694 01f4 1344     		add	r3, r3, r2
 6695 01f6 1A01     		lsls	r2, r3, #4
 6696 01f8 D31A     		subs	r3, r2, r3
 6697 01fa 03F10902 		add	r2, r3, #9
 6698 01fe FB7B     		ldrb	r3, [r7, #15]	@ zero_extendqisi2
 6699 0200 5B00     		lsls	r3, r3, #1
 6700 0202 1344     		add	r3, r3, r2
 6701 0204 0B44     		add	r3, r3, r1
 6702 0206 93F88831 		ldrb	r3, [r3, #392]	@ zero_extendqisi2
 6703 020a 1846     		mov	r0, r3
 6704 020c FFF7FEFF 		bl	TranslateSpecialFuncionDigit
 6705 0210 0346     		mov	r3, r0
 6706 0212 1B01     		lsls	r3, r3, #4
 6707 0214 DCB2     		uxtb	r4, r3
1729:.\PrimeImpl.c ****                             (TranslateSpecialFuncionDigit(pjob->_ppump->_rxbuffer[9 + 45*index + (2
 6708              		.loc 1 1729 0
 6709 0216 BB69     		ldr	r3, [r7, #24]
 6710 0218 D969     		ldr	r1, [r3, #28]
 6711 021a FA7D     		ldrb	r2, [r7, #23]	@ zero_extendqisi2
 6712 021c 1346     		mov	r3, r2
 6713 021e 5B00     		lsls	r3, r3, #1
 6714 0220 1344     		add	r3, r3, r2
 6715 0222 1A01     		lsls	r2, r3, #4
 6716 0224 D31A     		subs	r3, r2, r3
 6717 0226 03F10902 		add	r2, r3, #9
 6718 022a FB7B     		ldrb	r3, [r7, #15]	@ zero_extendqisi2
 6719 022c 5B00     		lsls	r3, r3, #1
 6720 022e 0133     		adds	r3, r3, #1
 6721 0230 1344     		add	r3, r3, r2
 6722 0232 0B44     		add	r3, r3, r1
 6723 0234 93F88831 		ldrb	r3, [r3, #392]	@ zero_extendqisi2
 6724 0238 1846     		mov	r0, r3
 6725 023a FFF7FEFF 		bl	TranslateSpecialFuncionDigit
 6726 023e 0346     		mov	r3, r0
1728:.\PrimeImpl.c ****                             (TranslateSpecialFuncionDigit(pjob->_ppump->_rxbuffer[9 + 45*index + (2
 6727              		.loc 1 1728 0
 6728 0240 DBB2     		uxtb	r3, r3
 6729 0242 03F00F03 		and	r3, r3, #15
 6730 0246 DBB2     		uxtb	r3, r3
 6731 0248 2246     		mov	r2, r4
 6732 024a 1343     		orrs	r3, r3, r2
 6733 024c DBB2     		uxtb	r3, r3
 6734 024e DAB2     		uxtb	r2, r3
 6735 0250 3B69     		ldr	r3, [r7, #16]
 6736 0252 1A70     		strb	r2, [r3]
1730:.\PrimeImpl.c **** 
1731:.\PrimeImpl.c ****             //2
ARM GAS  C:\Users\RECEPC~1\AppData\Local\Temp\ccNQP0pp.s 			page 150


1732:.\PrimeImpl.c ****             ptreeprom++;
 6737              		.loc 1 1732 0
 6738 0254 3B69     		ldr	r3, [r7, #16]
 6739 0256 0133     		adds	r3, r3, #1
 6740 0258 3B61     		str	r3, [r7, #16]
1733:.\PrimeImpl.c ****             blkindex++;
 6741              		.loc 1 1733 0
 6742 025a FB7B     		ldrb	r3, [r7, #15]	@ zero_extendqisi2
 6743 025c 0133     		adds	r3, r3, #1
 6744 025e FB73     		strb	r3, [r7, #15]
1734:.\PrimeImpl.c ****             //Volume Units
1735:.\PrimeImpl.c ****             *ptreeprom = ((TranslateSpecialFuncionDigit(pjob->_ppump->_rxbuffer[9 + 45*index + 2*bl
 6745              		.loc 1 1735 0
 6746 0260 BB69     		ldr	r3, [r7, #24]
 6747 0262 D969     		ldr	r1, [r3, #28]
 6748 0264 FA7D     		ldrb	r2, [r7, #23]	@ zero_extendqisi2
 6749 0266 1346     		mov	r3, r2
 6750 0268 5B00     		lsls	r3, r3, #1
 6751 026a 1344     		add	r3, r3, r2
 6752 026c 1A01     		lsls	r2, r3, #4
 6753 026e D31A     		subs	r3, r2, r3
 6754 0270 03F10902 		add	r2, r3, #9
 6755 0274 FB7B     		ldrb	r3, [r7, #15]	@ zero_extendqisi2
 6756 0276 5B00     		lsls	r3, r3, #1
 6757 0278 1344     		add	r3, r3, r2
 6758 027a 0B44     		add	r3, r3, r1
 6759 027c 93F88831 		ldrb	r3, [r3, #392]	@ zero_extendqisi2
 6760 0280 1846     		mov	r0, r3
 6761 0282 FFF7FEFF 		bl	TranslateSpecialFuncionDigit
 6762 0286 0346     		mov	r3, r0
 6763 0288 1B01     		lsls	r3, r3, #4
 6764 028a DCB2     		uxtb	r4, r3
1736:.\PrimeImpl.c ****                             (TranslateSpecialFuncionDigit(pjob->_ppump->_rxbuffer[9 + 45*index + (2
 6765              		.loc 1 1736 0
 6766 028c BB69     		ldr	r3, [r7, #24]
 6767 028e D969     		ldr	r1, [r3, #28]
 6768 0290 FA7D     		ldrb	r2, [r7, #23]	@ zero_extendqisi2
 6769 0292 1346     		mov	r3, r2
 6770 0294 5B00     		lsls	r3, r3, #1
 6771 0296 1344     		add	r3, r3, r2
 6772 0298 1A01     		lsls	r2, r3, #4
 6773 029a D31A     		subs	r3, r2, r3
 6774 029c 03F10902 		add	r2, r3, #9
 6775 02a0 FB7B     		ldrb	r3, [r7, #15]	@ zero_extendqisi2
 6776 02a2 5B00     		lsls	r3, r3, #1
 6777 02a4 0133     		adds	r3, r3, #1
 6778 02a6 1344     		add	r3, r3, r2
 6779 02a8 0B44     		add	r3, r3, r1
 6780 02aa 93F88831 		ldrb	r3, [r3, #392]	@ zero_extendqisi2
 6781 02ae 1846     		mov	r0, r3
 6782 02b0 FFF7FEFF 		bl	TranslateSpecialFuncionDigit
 6783 02b4 0346     		mov	r3, r0
1735:.\PrimeImpl.c ****                             (TranslateSpecialFuncionDigit(pjob->_ppump->_rxbuffer[9 + 45*index + (2
 6784              		.loc 1 1735 0
 6785 02b6 DBB2     		uxtb	r3, r3
 6786 02b8 03F00F03 		and	r3, r3, #15
 6787 02bc DBB2     		uxtb	r3, r3
ARM GAS  C:\Users\RECEPC~1\AppData\Local\Temp\ccNQP0pp.s 			page 151


 6788 02be 2246     		mov	r2, r4
 6789 02c0 1343     		orrs	r3, r3, r2
 6790 02c2 DBB2     		uxtb	r3, r3
 6791 02c4 DAB2     		uxtb	r2, r3
 6792 02c6 3B69     		ldr	r3, [r7, #16]
 6793 02c8 1A70     		strb	r2, [r3]
1737:.\PrimeImpl.c ****                             
1738:.\PrimeImpl.c ****             //3
1739:.\PrimeImpl.c ****             ptreeprom++;
 6794              		.loc 1 1739 0
 6795 02ca 3B69     		ldr	r3, [r7, #16]
 6796 02cc 0133     		adds	r3, r3, #1
 6797 02ce 3B61     		str	r3, [r7, #16]
1740:.\PrimeImpl.c ****             blkindex++;
 6798              		.loc 1 1740 0
 6799 02d0 FB7B     		ldrb	r3, [r7, #15]	@ zero_extendqisi2
 6800 02d2 0133     		adds	r3, r3, #1
 6801 02d4 FB73     		strb	r3, [r7, #15]
1741:.\PrimeImpl.c ****             //Display Type
1742:.\PrimeImpl.c ****             *ptreeprom = ((TranslateSpecialFuncionDigit(pjob->_ppump->_rxbuffer[9 + 45*index + 2*bl
 6802              		.loc 1 1742 0
 6803 02d6 BB69     		ldr	r3, [r7, #24]
 6804 02d8 D969     		ldr	r1, [r3, #28]
 6805 02da FA7D     		ldrb	r2, [r7, #23]	@ zero_extendqisi2
 6806 02dc 1346     		mov	r3, r2
 6807 02de 5B00     		lsls	r3, r3, #1
 6808 02e0 1344     		add	r3, r3, r2
 6809 02e2 1A01     		lsls	r2, r3, #4
 6810 02e4 D31A     		subs	r3, r2, r3
 6811 02e6 03F10902 		add	r2, r3, #9
 6812 02ea FB7B     		ldrb	r3, [r7, #15]	@ zero_extendqisi2
 6813 02ec 5B00     		lsls	r3, r3, #1
 6814 02ee 1344     		add	r3, r3, r2
 6815 02f0 0B44     		add	r3, r3, r1
 6816 02f2 93F88831 		ldrb	r3, [r3, #392]	@ zero_extendqisi2
 6817 02f6 1846     		mov	r0, r3
 6818 02f8 FFF7FEFF 		bl	TranslateSpecialFuncionDigit
 6819 02fc 0346     		mov	r3, r0
 6820 02fe 1B01     		lsls	r3, r3, #4
 6821 0300 DCB2     		uxtb	r4, r3
1743:.\PrimeImpl.c ****                             (TranslateSpecialFuncionDigit(pjob->_ppump->_rxbuffer[9 + 45*index + (2
 6822              		.loc 1 1743 0
 6823 0302 BB69     		ldr	r3, [r7, #24]
 6824 0304 D969     		ldr	r1, [r3, #28]
 6825 0306 FA7D     		ldrb	r2, [r7, #23]	@ zero_extendqisi2
 6826 0308 1346     		mov	r3, r2
 6827 030a 5B00     		lsls	r3, r3, #1
 6828 030c 1344     		add	r3, r3, r2
 6829 030e 1A01     		lsls	r2, r3, #4
 6830 0310 D31A     		subs	r3, r2, r3
 6831 0312 03F10902 		add	r2, r3, #9
 6832 0316 FB7B     		ldrb	r3, [r7, #15]	@ zero_extendqisi2
 6833 0318 5B00     		lsls	r3, r3, #1
 6834 031a 0133     		adds	r3, r3, #1
 6835 031c 1344     		add	r3, r3, r2
 6836 031e 0B44     		add	r3, r3, r1
 6837 0320 93F88831 		ldrb	r3, [r3, #392]	@ zero_extendqisi2
ARM GAS  C:\Users\RECEPC~1\AppData\Local\Temp\ccNQP0pp.s 			page 152


 6838 0324 1846     		mov	r0, r3
 6839 0326 FFF7FEFF 		bl	TranslateSpecialFuncionDigit
 6840 032a 0346     		mov	r3, r0
1742:.\PrimeImpl.c ****                             (TranslateSpecialFuncionDigit(pjob->_ppump->_rxbuffer[9 + 45*index + (2
 6841              		.loc 1 1742 0
 6842 032c DBB2     		uxtb	r3, r3
 6843 032e 03F00F03 		and	r3, r3, #15
 6844 0332 DBB2     		uxtb	r3, r3
 6845 0334 2246     		mov	r2, r4
 6846 0336 1343     		orrs	r3, r3, r2
 6847 0338 DBB2     		uxtb	r3, r3
 6848 033a DAB2     		uxtb	r2, r3
 6849 033c 3B69     		ldr	r3, [r7, #16]
 6850 033e 1A70     		strb	r2, [r3]
1744:.\PrimeImpl.c ****             
1745:.\PrimeImpl.c ****             //4
1746:.\PrimeImpl.c ****             ptreeprom++;
 6851              		.loc 1 1746 0
 6852 0340 3B69     		ldr	r3, [r7, #16]
 6853 0342 0133     		adds	r3, r3, #1
 6854 0344 3B61     		str	r3, [r7, #16]
1747:.\PrimeImpl.c ****             blkindex++;
 6855              		.loc 1 1747 0
 6856 0346 FB7B     		ldrb	r3, [r7, #15]	@ zero_extendqisi2
 6857 0348 0133     		adds	r3, r3, #1
 6858 034a FB73     		strb	r3, [r7, #15]
1748:.\PrimeImpl.c ****             //Money Trucated / Rounded
1749:.\PrimeImpl.c ****             *ptreeprom = ((TranslateSpecialFuncionDigit(pjob->_ppump->_rxbuffer[9 + 45*index + 2*bl
 6859              		.loc 1 1749 0
 6860 034c BB69     		ldr	r3, [r7, #24]
 6861 034e D969     		ldr	r1, [r3, #28]
 6862 0350 FA7D     		ldrb	r2, [r7, #23]	@ zero_extendqisi2
 6863 0352 1346     		mov	r3, r2
 6864 0354 5B00     		lsls	r3, r3, #1
 6865 0356 1344     		add	r3, r3, r2
 6866 0358 1A01     		lsls	r2, r3, #4
 6867 035a D31A     		subs	r3, r2, r3
 6868 035c 03F10902 		add	r2, r3, #9
 6869 0360 FB7B     		ldrb	r3, [r7, #15]	@ zero_extendqisi2
 6870 0362 5B00     		lsls	r3, r3, #1
 6871 0364 1344     		add	r3, r3, r2
 6872 0366 0B44     		add	r3, r3, r1
 6873 0368 93F88831 		ldrb	r3, [r3, #392]	@ zero_extendqisi2
 6874 036c 1846     		mov	r0, r3
 6875 036e FFF7FEFF 		bl	TranslateSpecialFuncionDigit
 6876 0372 0346     		mov	r3, r0
 6877 0374 1B01     		lsls	r3, r3, #4
 6878 0376 DCB2     		uxtb	r4, r3
1750:.\PrimeImpl.c ****                             (TranslateSpecialFuncionDigit(pjob->_ppump->_rxbuffer[9 + 45*index + (2
 6879              		.loc 1 1750 0
 6880 0378 BB69     		ldr	r3, [r7, #24]
 6881 037a D969     		ldr	r1, [r3, #28]
 6882 037c FA7D     		ldrb	r2, [r7, #23]	@ zero_extendqisi2
 6883 037e 1346     		mov	r3, r2
 6884 0380 5B00     		lsls	r3, r3, #1
 6885 0382 1344     		add	r3, r3, r2
 6886 0384 1A01     		lsls	r2, r3, #4
ARM GAS  C:\Users\RECEPC~1\AppData\Local\Temp\ccNQP0pp.s 			page 153


 6887 0386 D31A     		subs	r3, r2, r3
 6888 0388 03F10902 		add	r2, r3, #9
 6889 038c FB7B     		ldrb	r3, [r7, #15]	@ zero_extendqisi2
 6890 038e 5B00     		lsls	r3, r3, #1
 6891 0390 0133     		adds	r3, r3, #1
 6892 0392 1344     		add	r3, r3, r2
 6893 0394 0B44     		add	r3, r3, r1
 6894 0396 93F88831 		ldrb	r3, [r3, #392]	@ zero_extendqisi2
 6895 039a 1846     		mov	r0, r3
 6896 039c FFF7FEFF 		bl	TranslateSpecialFuncionDigit
 6897 03a0 0346     		mov	r3, r0
1749:.\PrimeImpl.c ****                             (TranslateSpecialFuncionDigit(pjob->_ppump->_rxbuffer[9 + 45*index + (2
 6898              		.loc 1 1749 0
 6899 03a2 DBB2     		uxtb	r3, r3
 6900 03a4 03F00F03 		and	r3, r3, #15
 6901 03a8 DBB2     		uxtb	r3, r3
 6902 03aa 2246     		mov	r2, r4
 6903 03ac 1343     		orrs	r3, r3, r2
 6904 03ae DBB2     		uxtb	r3, r3
 6905 03b0 DAB2     		uxtb	r2, r3
 6906 03b2 3B69     		ldr	r3, [r7, #16]
 6907 03b4 1A70     		strb	r2, [r3]
1751:.\PrimeImpl.c **** 
1752:.\PrimeImpl.c ****             //5
1753:.\PrimeImpl.c ****             ptreeprom++;
 6908              		.loc 1 1753 0
 6909 03b6 3B69     		ldr	r3, [r7, #16]
 6910 03b8 0133     		adds	r3, r3, #1
 6911 03ba 3B61     		str	r3, [r7, #16]
1754:.\PrimeImpl.c ****             blkindex++;
 6912              		.loc 1 1754 0
 6913 03bc FB7B     		ldrb	r3, [r7, #15]	@ zero_extendqisi2
 6914 03be 0133     		adds	r3, r3, #1
 6915 03c0 FB73     		strb	r3, [r7, #15]
1755:.\PrimeImpl.c ****             //Money Decimal Point
1756:.\PrimeImpl.c ****             *ptreeprom = ((TranslateSpecialFuncionDigit(pjob->_ppump->_rxbuffer[9 + 45*index + 2*bl
 6916              		.loc 1 1756 0
 6917 03c2 BB69     		ldr	r3, [r7, #24]
 6918 03c4 D969     		ldr	r1, [r3, #28]
 6919 03c6 FA7D     		ldrb	r2, [r7, #23]	@ zero_extendqisi2
 6920 03c8 1346     		mov	r3, r2
 6921 03ca 5B00     		lsls	r3, r3, #1
 6922 03cc 1344     		add	r3, r3, r2
 6923 03ce 1A01     		lsls	r2, r3, #4
 6924 03d0 D31A     		subs	r3, r2, r3
 6925 03d2 03F10902 		add	r2, r3, #9
 6926 03d6 FB7B     		ldrb	r3, [r7, #15]	@ zero_extendqisi2
 6927 03d8 5B00     		lsls	r3, r3, #1
 6928 03da 1344     		add	r3, r3, r2
 6929 03dc 0B44     		add	r3, r3, r1
 6930 03de 93F88831 		ldrb	r3, [r3, #392]	@ zero_extendqisi2
 6931 03e2 1846     		mov	r0, r3
 6932 03e4 FFF7FEFF 		bl	TranslateSpecialFuncionDigit
 6933 03e8 0346     		mov	r3, r0
 6934 03ea 1B01     		lsls	r3, r3, #4
 6935 03ec DCB2     		uxtb	r4, r3
1757:.\PrimeImpl.c ****                             (TranslateSpecialFuncionDigit(pjob->_ppump->_rxbuffer[9 + 45*index + (2
ARM GAS  C:\Users\RECEPC~1\AppData\Local\Temp\ccNQP0pp.s 			page 154


 6936              		.loc 1 1757 0
 6937 03ee BB69     		ldr	r3, [r7, #24]
 6938 03f0 D969     		ldr	r1, [r3, #28]
 6939 03f2 FA7D     		ldrb	r2, [r7, #23]	@ zero_extendqisi2
 6940 03f4 1346     		mov	r3, r2
 6941 03f6 5B00     		lsls	r3, r3, #1
 6942 03f8 1344     		add	r3, r3, r2
 6943 03fa 1A01     		lsls	r2, r3, #4
 6944 03fc D31A     		subs	r3, r2, r3
 6945 03fe 03F10902 		add	r2, r3, #9
 6946 0402 FB7B     		ldrb	r3, [r7, #15]	@ zero_extendqisi2
 6947 0404 5B00     		lsls	r3, r3, #1
 6948 0406 0133     		adds	r3, r3, #1
 6949 0408 1344     		add	r3, r3, r2
 6950 040a 0B44     		add	r3, r3, r1
 6951 040c 93F88831 		ldrb	r3, [r3, #392]	@ zero_extendqisi2
 6952 0410 1846     		mov	r0, r3
 6953 0412 FFF7FEFF 		bl	TranslateSpecialFuncionDigit
 6954 0416 0346     		mov	r3, r0
1756:.\PrimeImpl.c ****                             (TranslateSpecialFuncionDigit(pjob->_ppump->_rxbuffer[9 + 45*index + (2
 6955              		.loc 1 1756 0
 6956 0418 DBB2     		uxtb	r3, r3
 6957 041a 03F00F03 		and	r3, r3, #15
 6958 041e DBB2     		uxtb	r3, r3
 6959 0420 2246     		mov	r2, r4
 6960 0422 1343     		orrs	r3, r3, r2
 6961 0424 DBB2     		uxtb	r3, r3
 6962 0426 DAB2     		uxtb	r2, r3
 6963 0428 3B69     		ldr	r3, [r7, #16]
 6964 042a 1A70     		strb	r2, [r3]
1758:.\PrimeImpl.c **** 
1759:.\PrimeImpl.c ****             //6
1760:.\PrimeImpl.c ****             ptreeprom++;
 6965              		.loc 1 1760 0
 6966 042c 3B69     		ldr	r3, [r7, #16]
 6967 042e 0133     		adds	r3, r3, #1
 6968 0430 3B61     		str	r3, [r7, #16]
1761:.\PrimeImpl.c ****             blkindex++;
 6969              		.loc 1 1761 0
 6970 0432 FB7B     		ldrb	r3, [r7, #15]	@ zero_extendqisi2
 6971 0434 0133     		adds	r3, r3, #1
 6972 0436 FB73     		strb	r3, [r7, #15]
1762:.\PrimeImpl.c ****             //PPU Decimal Point
1763:.\PrimeImpl.c ****             *ptreeprom = ((TranslateSpecialFuncionDigit(pjob->_ppump->_rxbuffer[9 + 45*index + 2*bl
 6973              		.loc 1 1763 0
 6974 0438 BB69     		ldr	r3, [r7, #24]
 6975 043a D969     		ldr	r1, [r3, #28]
 6976 043c FA7D     		ldrb	r2, [r7, #23]	@ zero_extendqisi2
 6977 043e 1346     		mov	r3, r2
 6978 0440 5B00     		lsls	r3, r3, #1
 6979 0442 1344     		add	r3, r3, r2
 6980 0444 1A01     		lsls	r2, r3, #4
 6981 0446 D31A     		subs	r3, r2, r3
 6982 0448 03F10902 		add	r2, r3, #9
 6983 044c FB7B     		ldrb	r3, [r7, #15]	@ zero_extendqisi2
 6984 044e 5B00     		lsls	r3, r3, #1
 6985 0450 1344     		add	r3, r3, r2
ARM GAS  C:\Users\RECEPC~1\AppData\Local\Temp\ccNQP0pp.s 			page 155


 6986 0452 0B44     		add	r3, r3, r1
 6987 0454 93F88831 		ldrb	r3, [r3, #392]	@ zero_extendqisi2
 6988 0458 1846     		mov	r0, r3
 6989 045a FFF7FEFF 		bl	TranslateSpecialFuncionDigit
 6990 045e 0346     		mov	r3, r0
 6991 0460 1B01     		lsls	r3, r3, #4
 6992 0462 DCB2     		uxtb	r4, r3
1764:.\PrimeImpl.c ****                             (TranslateSpecialFuncionDigit(pjob->_ppump->_rxbuffer[9 + 45*index + (2
 6993              		.loc 1 1764 0
 6994 0464 BB69     		ldr	r3, [r7, #24]
 6995 0466 D969     		ldr	r1, [r3, #28]
 6996 0468 FA7D     		ldrb	r2, [r7, #23]	@ zero_extendqisi2
 6997 046a 1346     		mov	r3, r2
 6998 046c 5B00     		lsls	r3, r3, #1
 6999 046e 1344     		add	r3, r3, r2
 7000 0470 1A01     		lsls	r2, r3, #4
 7001 0472 D31A     		subs	r3, r2, r3
 7002 0474 03F10902 		add	r2, r3, #9
 7003 0478 FB7B     		ldrb	r3, [r7, #15]	@ zero_extendqisi2
 7004 047a 5B00     		lsls	r3, r3, #1
 7005 047c 0133     		adds	r3, r3, #1
 7006 047e 1344     		add	r3, r3, r2
 7007 0480 0B44     		add	r3, r3, r1
 7008 0482 93F88831 		ldrb	r3, [r3, #392]	@ zero_extendqisi2
 7009 0486 1846     		mov	r0, r3
 7010 0488 FFF7FEFF 		bl	TranslateSpecialFuncionDigit
 7011 048c 0346     		mov	r3, r0
1763:.\PrimeImpl.c ****                             (TranslateSpecialFuncionDigit(pjob->_ppump->_rxbuffer[9 + 45*index + (2
 7012              		.loc 1 1763 0
 7013 048e DBB2     		uxtb	r3, r3
 7014 0490 03F00F03 		and	r3, r3, #15
 7015 0494 DBB2     		uxtb	r3, r3
 7016 0496 2246     		mov	r2, r4
 7017 0498 1343     		orrs	r3, r3, r2
 7018 049a DBB2     		uxtb	r3, r3
 7019 049c DAB2     		uxtb	r2, r3
 7020 049e 3B69     		ldr	r3, [r7, #16]
 7021 04a0 1A70     		strb	r2, [r3]
1765:.\PrimeImpl.c **** 
1766:.\PrimeImpl.c ****             //7
1767:.\PrimeImpl.c ****             ptreeprom++;
 7022              		.loc 1 1767 0
 7023 04a2 3B69     		ldr	r3, [r7, #16]
 7024 04a4 0133     		adds	r3, r3, #1
 7025 04a6 3B61     		str	r3, [r7, #16]
1768:.\PrimeImpl.c ****             blkindex++;
 7026              		.loc 1 1768 0
 7027 04a8 FB7B     		ldrb	r3, [r7, #15]	@ zero_extendqisi2
 7028 04aa 0133     		adds	r3, r3, #1
 7029 04ac FB73     		strb	r3, [r7, #15]
1769:.\PrimeImpl.c ****             //Volume Decimal Point
1770:.\PrimeImpl.c ****             *ptreeprom = ((TranslateSpecialFuncionDigit(pjob->_ppump->_rxbuffer[9 + 45*index + 2*bl
 7030              		.loc 1 1770 0
 7031 04ae BB69     		ldr	r3, [r7, #24]
 7032 04b0 D969     		ldr	r1, [r3, #28]
 7033 04b2 FA7D     		ldrb	r2, [r7, #23]	@ zero_extendqisi2
 7034 04b4 1346     		mov	r3, r2
ARM GAS  C:\Users\RECEPC~1\AppData\Local\Temp\ccNQP0pp.s 			page 156


 7035 04b6 5B00     		lsls	r3, r3, #1
 7036 04b8 1344     		add	r3, r3, r2
 7037 04ba 1A01     		lsls	r2, r3, #4
 7038 04bc D31A     		subs	r3, r2, r3
 7039 04be 03F10902 		add	r2, r3, #9
 7040 04c2 FB7B     		ldrb	r3, [r7, #15]	@ zero_extendqisi2
 7041 04c4 5B00     		lsls	r3, r3, #1
 7042 04c6 1344     		add	r3, r3, r2
 7043 04c8 0B44     		add	r3, r3, r1
 7044 04ca 93F88831 		ldrb	r3, [r3, #392]	@ zero_extendqisi2
 7045 04ce 1846     		mov	r0, r3
 7046 04d0 FFF7FEFF 		bl	TranslateSpecialFuncionDigit
 7047 04d4 0346     		mov	r3, r0
 7048 04d6 1B01     		lsls	r3, r3, #4
 7049 04d8 DCB2     		uxtb	r4, r3
1771:.\PrimeImpl.c ****                             (TranslateSpecialFuncionDigit(pjob->_ppump->_rxbuffer[9 + 45*index + (2
 7050              		.loc 1 1771 0
 7051 04da BB69     		ldr	r3, [r7, #24]
 7052 04dc D969     		ldr	r1, [r3, #28]
 7053 04de FA7D     		ldrb	r2, [r7, #23]	@ zero_extendqisi2
 7054 04e0 1346     		mov	r3, r2
 7055 04e2 5B00     		lsls	r3, r3, #1
 7056 04e4 1344     		add	r3, r3, r2
 7057 04e6 1A01     		lsls	r2, r3, #4
 7058 04e8 D31A     		subs	r3, r2, r3
 7059 04ea 03F10902 		add	r2, r3, #9
 7060 04ee FB7B     		ldrb	r3, [r7, #15]	@ zero_extendqisi2
 7061 04f0 5B00     		lsls	r3, r3, #1
 7062 04f2 0133     		adds	r3, r3, #1
 7063 04f4 1344     		add	r3, r3, r2
 7064 04f6 0B44     		add	r3, r3, r1
 7065 04f8 93F88831 		ldrb	r3, [r3, #392]	@ zero_extendqisi2
 7066 04fc 1846     		mov	r0, r3
 7067 04fe FFF7FEFF 		bl	TranslateSpecialFuncionDigit
 7068 0502 0346     		mov	r3, r0
1770:.\PrimeImpl.c ****                             (TranslateSpecialFuncionDigit(pjob->_ppump->_rxbuffer[9 + 45*index + (2
 7069              		.loc 1 1770 0
 7070 0504 DBB2     		uxtb	r3, r3
 7071 0506 03F00F03 		and	r3, r3, #15
 7072 050a DBB2     		uxtb	r3, r3
 7073 050c 2246     		mov	r2, r4
 7074 050e 1343     		orrs	r3, r3, r2
 7075 0510 DBB2     		uxtb	r3, r3
 7076 0512 DAB2     		uxtb	r2, r3
 7077 0514 3B69     		ldr	r3, [r7, #16]
 7078 0516 1A70     		strb	r2, [r3]
1772:.\PrimeImpl.c **** 
1773:.\PrimeImpl.c ****             //8
1774:.\PrimeImpl.c ****             ptreeprom++;
 7079              		.loc 1 1774 0
 7080 0518 3B69     		ldr	r3, [r7, #16]
 7081 051a 0133     		adds	r3, r3, #1
 7082 051c 3B61     		str	r3, [r7, #16]
1775:.\PrimeImpl.c ****             blkindex++;
 7083              		.loc 1 1775 0
 7084 051e FB7B     		ldrb	r3, [r7, #15]	@ zero_extendqisi2
 7085 0520 0133     		adds	r3, r3, #1
ARM GAS  C:\Users\RECEPC~1\AppData\Local\Temp\ccNQP0pp.s 			page 157


 7086 0522 FB73     		strb	r3, [r7, #15]
1776:.\PrimeImpl.c ****             //Motor Pre-Start
1777:.\PrimeImpl.c ****             *ptreeprom = ((TranslateSpecialFuncionDigit(pjob->_ppump->_rxbuffer[9 + 45*index + 2*bl
 7087              		.loc 1 1777 0
 7088 0524 BB69     		ldr	r3, [r7, #24]
 7089 0526 D969     		ldr	r1, [r3, #28]
 7090 0528 FA7D     		ldrb	r2, [r7, #23]	@ zero_extendqisi2
 7091 052a 1346     		mov	r3, r2
 7092 052c 5B00     		lsls	r3, r3, #1
 7093 052e 1344     		add	r3, r3, r2
 7094 0530 1A01     		lsls	r2, r3, #4
 7095 0532 D31A     		subs	r3, r2, r3
 7096 0534 03F10902 		add	r2, r3, #9
 7097 0538 FB7B     		ldrb	r3, [r7, #15]	@ zero_extendqisi2
 7098 053a 5B00     		lsls	r3, r3, #1
 7099 053c 1344     		add	r3, r3, r2
 7100 053e 0B44     		add	r3, r3, r1
 7101 0540 93F88831 		ldrb	r3, [r3, #392]	@ zero_extendqisi2
 7102 0544 1846     		mov	r0, r3
 7103 0546 FFF7FEFF 		bl	TranslateSpecialFuncionDigit
 7104 054a 0346     		mov	r3, r0
 7105 054c 1B01     		lsls	r3, r3, #4
 7106 054e DCB2     		uxtb	r4, r3
1778:.\PrimeImpl.c ****                             (TranslateSpecialFuncionDigit(pjob->_ppump->_rxbuffer[9 + 45*index + (2
 7107              		.loc 1 1778 0
 7108 0550 BB69     		ldr	r3, [r7, #24]
 7109 0552 D969     		ldr	r1, [r3, #28]
 7110 0554 FA7D     		ldrb	r2, [r7, #23]	@ zero_extendqisi2
 7111 0556 1346     		mov	r3, r2
 7112 0558 5B00     		lsls	r3, r3, #1
 7113 055a 1344     		add	r3, r3, r2
 7114 055c 1A01     		lsls	r2, r3, #4
 7115 055e D31A     		subs	r3, r2, r3
 7116 0560 03F10902 		add	r2, r3, #9
 7117 0564 FB7B     		ldrb	r3, [r7, #15]	@ zero_extendqisi2
 7118 0566 5B00     		lsls	r3, r3, #1
 7119 0568 0133     		adds	r3, r3, #1
 7120 056a 1344     		add	r3, r3, r2
 7121 056c 0B44     		add	r3, r3, r1
 7122 056e 93F88831 		ldrb	r3, [r3, #392]	@ zero_extendqisi2
 7123 0572 1846     		mov	r0, r3
 7124 0574 FFF7FEFF 		bl	TranslateSpecialFuncionDigit
 7125 0578 0346     		mov	r3, r0
1777:.\PrimeImpl.c ****                             (TranslateSpecialFuncionDigit(pjob->_ppump->_rxbuffer[9 + 45*index + (2
 7126              		.loc 1 1777 0
 7127 057a DBB2     		uxtb	r3, r3
 7128 057c 03F00F03 		and	r3, r3, #15
 7129 0580 DBB2     		uxtb	r3, r3
 7130 0582 2246     		mov	r2, r4
 7131 0584 1343     		orrs	r3, r3, r2
 7132 0586 DBB2     		uxtb	r3, r3
 7133 0588 DAB2     		uxtb	r2, r3
 7134 058a 3B69     		ldr	r3, [r7, #16]
 7135 058c 1A70     		strb	r2, [r3]
1779:.\PrimeImpl.c **** 
1780:.\PrimeImpl.c ****             //9
1781:.\PrimeImpl.c ****             ptreeprom++;
ARM GAS  C:\Users\RECEPC~1\AppData\Local\Temp\ccNQP0pp.s 			page 158


 7136              		.loc 1 1781 0
 7137 058e 3B69     		ldr	r3, [r7, #16]
 7138 0590 0133     		adds	r3, r3, #1
 7139 0592 3B61     		str	r3, [r7, #16]
1782:.\PrimeImpl.c ****             blkindex++;
 7140              		.loc 1 1782 0
 7141 0594 FB7B     		ldrb	r3, [r7, #15]	@ zero_extendqisi2
 7142 0596 0133     		adds	r3, r3, #1
 7143 0598 FB73     		strb	r3, [r7, #15]
1783:.\PrimeImpl.c ****             //Beeper
1784:.\PrimeImpl.c ****             *ptreeprom = ((TranslateSpecialFuncionDigit(pjob->_ppump->_rxbuffer[9 + 45*index + 2*bl
 7144              		.loc 1 1784 0
 7145 059a BB69     		ldr	r3, [r7, #24]
 7146 059c D969     		ldr	r1, [r3, #28]
 7147 059e FA7D     		ldrb	r2, [r7, #23]	@ zero_extendqisi2
 7148 05a0 1346     		mov	r3, r2
 7149 05a2 5B00     		lsls	r3, r3, #1
 7150 05a4 1344     		add	r3, r3, r2
 7151 05a6 1A01     		lsls	r2, r3, #4
 7152 05a8 D31A     		subs	r3, r2, r3
 7153 05aa 03F10902 		add	r2, r3, #9
 7154 05ae FB7B     		ldrb	r3, [r7, #15]	@ zero_extendqisi2
 7155 05b0 5B00     		lsls	r3, r3, #1
 7156 05b2 1344     		add	r3, r3, r2
 7157 05b4 0B44     		add	r3, r3, r1
 7158 05b6 93F88831 		ldrb	r3, [r3, #392]	@ zero_extendqisi2
 7159 05ba 1846     		mov	r0, r3
 7160 05bc FFF7FEFF 		bl	TranslateSpecialFuncionDigit
 7161 05c0 0346     		mov	r3, r0
 7162 05c2 1B01     		lsls	r3, r3, #4
 7163 05c4 DCB2     		uxtb	r4, r3
1785:.\PrimeImpl.c ****                             (TranslateSpecialFuncionDigit(pjob->_ppump->_rxbuffer[9 + 45*index + (2
 7164              		.loc 1 1785 0
 7165 05c6 BB69     		ldr	r3, [r7, #24]
 7166 05c8 D969     		ldr	r1, [r3, #28]
 7167 05ca FA7D     		ldrb	r2, [r7, #23]	@ zero_extendqisi2
 7168 05cc 1346     		mov	r3, r2
 7169 05ce 5B00     		lsls	r3, r3, #1
 7170 05d0 1344     		add	r3, r3, r2
 7171 05d2 1A01     		lsls	r2, r3, #4
 7172 05d4 D31A     		subs	r3, r2, r3
 7173 05d6 03F10902 		add	r2, r3, #9
 7174 05da FB7B     		ldrb	r3, [r7, #15]	@ zero_extendqisi2
 7175 05dc 5B00     		lsls	r3, r3, #1
 7176 05de 0133     		adds	r3, r3, #1
 7177 05e0 1344     		add	r3, r3, r2
 7178 05e2 0B44     		add	r3, r3, r1
 7179 05e4 93F88831 		ldrb	r3, [r3, #392]	@ zero_extendqisi2
 7180 05e8 1846     		mov	r0, r3
 7181 05ea FFF7FEFF 		bl	TranslateSpecialFuncionDigit
 7182 05ee 0346     		mov	r3, r0
1784:.\PrimeImpl.c ****                             (TranslateSpecialFuncionDigit(pjob->_ppump->_rxbuffer[9 + 45*index + (2
 7183              		.loc 1 1784 0
 7184 05f0 DBB2     		uxtb	r3, r3
 7185 05f2 03F00F03 		and	r3, r3, #15
 7186 05f6 DBB2     		uxtb	r3, r3
 7187 05f8 2246     		mov	r2, r4
ARM GAS  C:\Users\RECEPC~1\AppData\Local\Temp\ccNQP0pp.s 			page 159


 7188 05fa 1343     		orrs	r3, r3, r2
 7189 05fc DBB2     		uxtb	r3, r3
 7190 05fe DAB2     		uxtb	r2, r3
 7191 0600 3B69     		ldr	r3, [r7, #16]
 7192 0602 1A70     		strb	r2, [r3]
1786:.\PrimeImpl.c **** 
1787:.\PrimeImpl.c ****             //10
1788:.\PrimeImpl.c ****             ptreeprom++;
 7193              		.loc 1 1788 0
 7194 0604 3B69     		ldr	r3, [r7, #16]
 7195 0606 0133     		adds	r3, r3, #1
 7196 0608 3B61     		str	r3, [r7, #16]
1789:.\PrimeImpl.c ****             blkindex++;
 7197              		.loc 1 1789 0
 7198 060a FB7B     		ldrb	r3, [r7, #15]	@ zero_extendqisi2
 7199 060c 0133     		adds	r3, r3, #1
 7200 060e FB73     		strb	r3, [r7, #15]
1790:.\PrimeImpl.c ****             //Display Digits Mode
1791:.\PrimeImpl.c ****             *ptreeprom = ((TranslateSpecialFuncionDigit(pjob->_ppump->_rxbuffer[9 + 45*index + 2*bl
 7201              		.loc 1 1791 0
 7202 0610 BB69     		ldr	r3, [r7, #24]
 7203 0612 D969     		ldr	r1, [r3, #28]
 7204 0614 FA7D     		ldrb	r2, [r7, #23]	@ zero_extendqisi2
 7205 0616 1346     		mov	r3, r2
 7206 0618 5B00     		lsls	r3, r3, #1
 7207 061a 1344     		add	r3, r3, r2
 7208 061c 1A01     		lsls	r2, r3, #4
 7209 061e D31A     		subs	r3, r2, r3
 7210 0620 03F10902 		add	r2, r3, #9
 7211 0624 FB7B     		ldrb	r3, [r7, #15]	@ zero_extendqisi2
 7212 0626 5B00     		lsls	r3, r3, #1
 7213 0628 1344     		add	r3, r3, r2
 7214 062a 0B44     		add	r3, r3, r1
 7215 062c 93F88831 		ldrb	r3, [r3, #392]	@ zero_extendqisi2
 7216 0630 1846     		mov	r0, r3
 7217 0632 FFF7FEFF 		bl	TranslateSpecialFuncionDigit
 7218 0636 0346     		mov	r3, r0
 7219 0638 1B01     		lsls	r3, r3, #4
 7220 063a DCB2     		uxtb	r4, r3
1792:.\PrimeImpl.c ****                             (TranslateSpecialFuncionDigit(pjob->_ppump->_rxbuffer[9 + 45*index + (2
 7221              		.loc 1 1792 0
 7222 063c BB69     		ldr	r3, [r7, #24]
 7223 063e D969     		ldr	r1, [r3, #28]
 7224 0640 FA7D     		ldrb	r2, [r7, #23]	@ zero_extendqisi2
 7225 0642 1346     		mov	r3, r2
 7226 0644 5B00     		lsls	r3, r3, #1
 7227 0646 1344     		add	r3, r3, r2
 7228 0648 1A01     		lsls	r2, r3, #4
 7229 064a D31A     		subs	r3, r2, r3
 7230 064c 03F10902 		add	r2, r3, #9
 7231 0650 FB7B     		ldrb	r3, [r7, #15]	@ zero_extendqisi2
 7232 0652 5B00     		lsls	r3, r3, #1
 7233 0654 0133     		adds	r3, r3, #1
 7234 0656 1344     		add	r3, r3, r2
 7235 0658 0B44     		add	r3, r3, r1
 7236 065a 93F88831 		ldrb	r3, [r3, #392]	@ zero_extendqisi2
 7237 065e 1846     		mov	r0, r3
ARM GAS  C:\Users\RECEPC~1\AppData\Local\Temp\ccNQP0pp.s 			page 160


 7238 0660 FFF7FEFF 		bl	TranslateSpecialFuncionDigit
 7239 0664 0346     		mov	r3, r0
1791:.\PrimeImpl.c ****                             (TranslateSpecialFuncionDigit(pjob->_ppump->_rxbuffer[9 + 45*index + (2
 7240              		.loc 1 1791 0
 7241 0666 DBB2     		uxtb	r3, r3
 7242 0668 03F00F03 		and	r3, r3, #15
 7243 066c DBB2     		uxtb	r3, r3
 7244 066e 2246     		mov	r2, r4
 7245 0670 1343     		orrs	r3, r3, r2
 7246 0672 DBB2     		uxtb	r3, r3
 7247 0674 DAB2     		uxtb	r2, r3
 7248 0676 3B69     		ldr	r3, [r7, #16]
 7249 0678 1A70     		strb	r2, [r3]
1793:.\PrimeImpl.c **** 
1794:.\PrimeImpl.c ****             _g_dispenserlayoutinfo._presetdigits = *ptreeprom;
 7250              		.loc 1 1794 0
 7251 067a 3B69     		ldr	r3, [r7, #16]
 7252 067c 1A78     		ldrb	r2, [r3]	@ zero_extendqisi2
 7253 067e C54B     		ldr	r3, .L225
 7254 0680 5A74     		strb	r2, [r3, #17]
1795:.\PrimeImpl.c ****             //11
1796:.\PrimeImpl.c ****             ptreeprom++;
 7255              		.loc 1 1796 0
 7256 0682 3B69     		ldr	r3, [r7, #16]
 7257 0684 0133     		adds	r3, r3, #1
 7258 0686 3B61     		str	r3, [r7, #16]
1797:.\PrimeImpl.c ****             blkindex++;
 7259              		.loc 1 1797 0
 7260 0688 FB7B     		ldrb	r3, [r7, #15]	@ zero_extendqisi2
 7261 068a 0133     		adds	r3, r3, #1
 7262 068c FB73     		strb	r3, [r7, #15]
1798:.\PrimeImpl.c ****             //Point / Comma Decimal
1799:.\PrimeImpl.c ****             *ptreeprom = ((TranslateSpecialFuncionDigit(pjob->_ppump->_rxbuffer[9 + 45*index + 2*bl
 7263              		.loc 1 1799 0
 7264 068e BB69     		ldr	r3, [r7, #24]
 7265 0690 D969     		ldr	r1, [r3, #28]
 7266 0692 FA7D     		ldrb	r2, [r7, #23]	@ zero_extendqisi2
 7267 0694 1346     		mov	r3, r2
 7268 0696 5B00     		lsls	r3, r3, #1
 7269 0698 1344     		add	r3, r3, r2
 7270 069a 1A01     		lsls	r2, r3, #4
 7271 069c D31A     		subs	r3, r2, r3
 7272 069e 03F10902 		add	r2, r3, #9
 7273 06a2 FB7B     		ldrb	r3, [r7, #15]	@ zero_extendqisi2
 7274 06a4 5B00     		lsls	r3, r3, #1
 7275 06a6 1344     		add	r3, r3, r2
 7276 06a8 0B44     		add	r3, r3, r1
 7277 06aa 93F88831 		ldrb	r3, [r3, #392]	@ zero_extendqisi2
 7278 06ae 1846     		mov	r0, r3
 7279 06b0 FFF7FEFF 		bl	TranslateSpecialFuncionDigit
 7280 06b4 0346     		mov	r3, r0
 7281 06b6 1B01     		lsls	r3, r3, #4
 7282 06b8 DCB2     		uxtb	r4, r3
1800:.\PrimeImpl.c ****                             (TranslateSpecialFuncionDigit(pjob->_ppump->_rxbuffer[9 + 45*index + (2
 7283              		.loc 1 1800 0
 7284 06ba BB69     		ldr	r3, [r7, #24]
 7285 06bc D969     		ldr	r1, [r3, #28]
ARM GAS  C:\Users\RECEPC~1\AppData\Local\Temp\ccNQP0pp.s 			page 161


 7286 06be FA7D     		ldrb	r2, [r7, #23]	@ zero_extendqisi2
 7287 06c0 1346     		mov	r3, r2
 7288 06c2 5B00     		lsls	r3, r3, #1
 7289 06c4 1344     		add	r3, r3, r2
 7290 06c6 1A01     		lsls	r2, r3, #4
 7291 06c8 D31A     		subs	r3, r2, r3
 7292 06ca 03F10902 		add	r2, r3, #9
 7293 06ce FB7B     		ldrb	r3, [r7, #15]	@ zero_extendqisi2
 7294 06d0 5B00     		lsls	r3, r3, #1
 7295 06d2 0133     		adds	r3, r3, #1
 7296 06d4 1344     		add	r3, r3, r2
 7297 06d6 0B44     		add	r3, r3, r1
 7298 06d8 93F88831 		ldrb	r3, [r3, #392]	@ zero_extendqisi2
 7299 06dc 1846     		mov	r0, r3
 7300 06de FFF7FEFF 		bl	TranslateSpecialFuncionDigit
 7301 06e2 0346     		mov	r3, r0
1799:.\PrimeImpl.c ****                             (TranslateSpecialFuncionDigit(pjob->_ppump->_rxbuffer[9 + 45*index + (2
 7302              		.loc 1 1799 0
 7303 06e4 DBB2     		uxtb	r3, r3
 7304 06e6 03F00F03 		and	r3, r3, #15
 7305 06ea DBB2     		uxtb	r3, r3
 7306 06ec 2246     		mov	r2, r4
 7307 06ee 1343     		orrs	r3, r3, r2
 7308 06f0 DBB2     		uxtb	r3, r3
 7309 06f2 DAB2     		uxtb	r2, r3
 7310 06f4 3B69     		ldr	r3, [r7, #16]
 7311 06f6 1A70     		strb	r2, [r3]
1801:.\PrimeImpl.c **** 
1802:.\PrimeImpl.c ****             //12
1803:.\PrimeImpl.c ****             ptreeprom++;
 7312              		.loc 1 1803 0
 7313 06f8 3B69     		ldr	r3, [r7, #16]
 7314 06fa 0133     		adds	r3, r3, #1
 7315 06fc 3B61     		str	r3, [r7, #16]
1804:.\PrimeImpl.c ****             blkindex++;
 7316              		.loc 1 1804 0
 7317 06fe FB7B     		ldrb	r3, [r7, #15]	@ zero_extendqisi2
 7318 0700 0133     		adds	r3, r3, #1
 7319 0702 FB73     		strb	r3, [r7, #15]
1805:.\PrimeImpl.c ****             //Inactive Preset Timeout
1806:.\PrimeImpl.c ****             *ptreeprom = ((TranslateSpecialFuncionDigit(pjob->_ppump->_rxbuffer[9 + 45*index + 2*bl
 7320              		.loc 1 1806 0
 7321 0704 BB69     		ldr	r3, [r7, #24]
 7322 0706 D969     		ldr	r1, [r3, #28]
 7323 0708 FA7D     		ldrb	r2, [r7, #23]	@ zero_extendqisi2
 7324 070a 1346     		mov	r3, r2
 7325 070c 5B00     		lsls	r3, r3, #1
 7326 070e 1344     		add	r3, r3, r2
 7327 0710 1A01     		lsls	r2, r3, #4
 7328 0712 D31A     		subs	r3, r2, r3
 7329 0714 03F10902 		add	r2, r3, #9
 7330 0718 FB7B     		ldrb	r3, [r7, #15]	@ zero_extendqisi2
 7331 071a 5B00     		lsls	r3, r3, #1
 7332 071c 1344     		add	r3, r3, r2
 7333 071e 0B44     		add	r3, r3, r1
 7334 0720 93F88831 		ldrb	r3, [r3, #392]	@ zero_extendqisi2
 7335 0724 1846     		mov	r0, r3
ARM GAS  C:\Users\RECEPC~1\AppData\Local\Temp\ccNQP0pp.s 			page 162


 7336 0726 FFF7FEFF 		bl	TranslateSpecialFuncionDigit
 7337 072a 0346     		mov	r3, r0
 7338 072c 1B01     		lsls	r3, r3, #4
 7339 072e DCB2     		uxtb	r4, r3
1807:.\PrimeImpl.c ****                             (TranslateSpecialFuncionDigit(pjob->_ppump->_rxbuffer[9 + 45*index + (2
 7340              		.loc 1 1807 0
 7341 0730 BB69     		ldr	r3, [r7, #24]
 7342 0732 D969     		ldr	r1, [r3, #28]
 7343 0734 FA7D     		ldrb	r2, [r7, #23]	@ zero_extendqisi2
 7344 0736 1346     		mov	r3, r2
 7345 0738 5B00     		lsls	r3, r3, #1
 7346 073a 1344     		add	r3, r3, r2
 7347 073c 1A01     		lsls	r2, r3, #4
 7348 073e D31A     		subs	r3, r2, r3
 7349 0740 03F10902 		add	r2, r3, #9
 7350 0744 FB7B     		ldrb	r3, [r7, #15]	@ zero_extendqisi2
 7351 0746 5B00     		lsls	r3, r3, #1
 7352 0748 0133     		adds	r3, r3, #1
 7353 074a 1344     		add	r3, r3, r2
 7354 074c 0B44     		add	r3, r3, r1
 7355 074e 93F88831 		ldrb	r3, [r3, #392]	@ zero_extendqisi2
 7356 0752 1846     		mov	r0, r3
 7357 0754 FFF7FEFF 		bl	TranslateSpecialFuncionDigit
 7358 0758 0346     		mov	r3, r0
1806:.\PrimeImpl.c ****                             (TranslateSpecialFuncionDigit(pjob->_ppump->_rxbuffer[9 + 45*index + (2
 7359              		.loc 1 1806 0
 7360 075a DBB2     		uxtb	r3, r3
 7361 075c 03F00F03 		and	r3, r3, #15
 7362 0760 DBB2     		uxtb	r3, r3
 7363 0762 2246     		mov	r2, r4
 7364 0764 1343     		orrs	r3, r3, r2
 7365 0766 DBB2     		uxtb	r3, r3
 7366 0768 DAB2     		uxtb	r2, r3
 7367 076a 3B69     		ldr	r3, [r7, #16]
 7368 076c 1A70     		strb	r2, [r3]
1808:.\PrimeImpl.c **** 
1809:.\PrimeImpl.c ****             //13
1810:.\PrimeImpl.c ****             ptreeprom++;
 7369              		.loc 1 1810 0
 7370 076e 3B69     		ldr	r3, [r7, #16]
 7371 0770 0133     		adds	r3, r3, #1
 7372 0772 3B61     		str	r3, [r7, #16]
1811:.\PrimeImpl.c ****             blkindex++;
 7373              		.loc 1 1811 0
 7374 0774 FB7B     		ldrb	r3, [r7, #15]	@ zero_extendqisi2
 7375 0776 0133     		adds	r3, r3, #1
 7376 0778 FB73     		strb	r3, [r7, #15]
1812:.\PrimeImpl.c ****             //Inactive Delivery Timeout
1813:.\PrimeImpl.c ****             *ptreeprom = ((TranslateSpecialFuncionDigit(pjob->_ppump->_rxbuffer[9 + 45*index + 2*bl
 7377              		.loc 1 1813 0
 7378 077a BB69     		ldr	r3, [r7, #24]
 7379 077c D969     		ldr	r1, [r3, #28]
 7380 077e FA7D     		ldrb	r2, [r7, #23]	@ zero_extendqisi2
 7381 0780 1346     		mov	r3, r2
 7382 0782 5B00     		lsls	r3, r3, #1
 7383 0784 1344     		add	r3, r3, r2
 7384 0786 1A01     		lsls	r2, r3, #4
ARM GAS  C:\Users\RECEPC~1\AppData\Local\Temp\ccNQP0pp.s 			page 163


 7385 0788 D31A     		subs	r3, r2, r3
 7386 078a 03F10902 		add	r2, r3, #9
 7387 078e FB7B     		ldrb	r3, [r7, #15]	@ zero_extendqisi2
 7388 0790 5B00     		lsls	r3, r3, #1
 7389 0792 1344     		add	r3, r3, r2
 7390 0794 0B44     		add	r3, r3, r1
 7391 0796 93F88831 		ldrb	r3, [r3, #392]	@ zero_extendqisi2
 7392 079a 1846     		mov	r0, r3
 7393 079c FFF7FEFF 		bl	TranslateSpecialFuncionDigit
 7394 07a0 0346     		mov	r3, r0
 7395 07a2 1B01     		lsls	r3, r3, #4
 7396 07a4 DCB2     		uxtb	r4, r3
1814:.\PrimeImpl.c ****                             (TranslateSpecialFuncionDigit(pjob->_ppump->_rxbuffer[9 + 45*index + (2
 7397              		.loc 1 1814 0
 7398 07a6 BB69     		ldr	r3, [r7, #24]
 7399 07a8 D969     		ldr	r1, [r3, #28]
 7400 07aa FA7D     		ldrb	r2, [r7, #23]	@ zero_extendqisi2
 7401 07ac 1346     		mov	r3, r2
 7402 07ae 5B00     		lsls	r3, r3, #1
 7403 07b0 1344     		add	r3, r3, r2
 7404 07b2 1A01     		lsls	r2, r3, #4
 7405 07b4 D31A     		subs	r3, r2, r3
 7406 07b6 03F10902 		add	r2, r3, #9
 7407 07ba FB7B     		ldrb	r3, [r7, #15]	@ zero_extendqisi2
 7408 07bc 5B00     		lsls	r3, r3, #1
 7409 07be 0133     		adds	r3, r3, #1
 7410 07c0 1344     		add	r3, r3, r2
 7411 07c2 0B44     		add	r3, r3, r1
 7412 07c4 93F88831 		ldrb	r3, [r3, #392]	@ zero_extendqisi2
 7413 07c8 1846     		mov	r0, r3
 7414 07ca FFF7FEFF 		bl	TranslateSpecialFuncionDigit
 7415 07ce 0346     		mov	r3, r0
1813:.\PrimeImpl.c ****                             (TranslateSpecialFuncionDigit(pjob->_ppump->_rxbuffer[9 + 45*index + (2
 7416              		.loc 1 1813 0
 7417 07d0 DBB2     		uxtb	r3, r3
 7418 07d2 03F00F03 		and	r3, r3, #15
 7419 07d6 DBB2     		uxtb	r3, r3
 7420 07d8 2246     		mov	r2, r4
 7421 07da 1343     		orrs	r3, r3, r2
 7422 07dc DBB2     		uxtb	r3, r3
 7423 07de DAB2     		uxtb	r2, r3
 7424 07e0 3B69     		ldr	r3, [r7, #16]
 7425 07e2 1A70     		strb	r2, [r3]
1815:.\PrimeImpl.c **** 
1816:.\PrimeImpl.c ****             //14
1817:.\PrimeImpl.c ****             ptreeprom++;
 7426              		.loc 1 1817 0
 7427 07e4 3B69     		ldr	r3, [r7, #16]
 7428 07e6 0133     		adds	r3, r3, #1
 7429 07e8 3B61     		str	r3, [r7, #16]
1818:.\PrimeImpl.c ****             blkindex++;
 7430              		.loc 1 1818 0
 7431 07ea FB7B     		ldrb	r3, [r7, #15]	@ zero_extendqisi2
 7432 07ec 0133     		adds	r3, r3, #1
 7433 07ee FB73     		strb	r3, [r7, #15]
1819:.\PrimeImpl.c ****             //Beeper Inactive Delivery Timeout
1820:.\PrimeImpl.c ****             *ptreeprom = ((TranslateSpecialFuncionDigit(pjob->_ppump->_rxbuffer[9 + 45*index + 2*bl
ARM GAS  C:\Users\RECEPC~1\AppData\Local\Temp\ccNQP0pp.s 			page 164


 7434              		.loc 1 1820 0
 7435 07f0 BB69     		ldr	r3, [r7, #24]
 7436 07f2 D969     		ldr	r1, [r3, #28]
 7437 07f4 FA7D     		ldrb	r2, [r7, #23]	@ zero_extendqisi2
 7438 07f6 1346     		mov	r3, r2
 7439 07f8 5B00     		lsls	r3, r3, #1
 7440 07fa 1344     		add	r3, r3, r2
 7441 07fc 1A01     		lsls	r2, r3, #4
 7442 07fe D31A     		subs	r3, r2, r3
 7443 0800 03F10902 		add	r2, r3, #9
 7444 0804 FB7B     		ldrb	r3, [r7, #15]	@ zero_extendqisi2
 7445 0806 5B00     		lsls	r3, r3, #1
 7446 0808 1344     		add	r3, r3, r2
 7447 080a 0B44     		add	r3, r3, r1
 7448 080c 93F88831 		ldrb	r3, [r3, #392]	@ zero_extendqisi2
 7449 0810 1846     		mov	r0, r3
 7450 0812 FFF7FEFF 		bl	TranslateSpecialFuncionDigit
 7451 0816 0346     		mov	r3, r0
 7452 0818 1B01     		lsls	r3, r3, #4
 7453 081a DCB2     		uxtb	r4, r3
1821:.\PrimeImpl.c ****                             (TranslateSpecialFuncionDigit(pjob->_ppump->_rxbuffer[9 + 45*index + (2
 7454              		.loc 1 1821 0
 7455 081c BB69     		ldr	r3, [r7, #24]
 7456 081e D969     		ldr	r1, [r3, #28]
 7457 0820 FA7D     		ldrb	r2, [r7, #23]	@ zero_extendqisi2
 7458 0822 1346     		mov	r3, r2
 7459 0824 5B00     		lsls	r3, r3, #1
 7460 0826 1344     		add	r3, r3, r2
 7461 0828 1A01     		lsls	r2, r3, #4
 7462 082a D31A     		subs	r3, r2, r3
 7463 082c 03F10902 		add	r2, r3, #9
 7464 0830 FB7B     		ldrb	r3, [r7, #15]	@ zero_extendqisi2
 7465 0832 5B00     		lsls	r3, r3, #1
 7466 0834 0133     		adds	r3, r3, #1
 7467 0836 1344     		add	r3, r3, r2
 7468 0838 0B44     		add	r3, r3, r1
 7469 083a 93F88831 		ldrb	r3, [r3, #392]	@ zero_extendqisi2
 7470 083e 1846     		mov	r0, r3
 7471 0840 FFF7FEFF 		bl	TranslateSpecialFuncionDigit
 7472 0844 0346     		mov	r3, r0
1820:.\PrimeImpl.c ****                             (TranslateSpecialFuncionDigit(pjob->_ppump->_rxbuffer[9 + 45*index + (2
 7473              		.loc 1 1820 0
 7474 0846 DBB2     		uxtb	r3, r3
 7475 0848 03F00F03 		and	r3, r3, #15
 7476 084c DBB2     		uxtb	r3, r3
 7477 084e 2246     		mov	r2, r4
 7478 0850 1343     		orrs	r3, r3, r2
 7479 0852 DBB2     		uxtb	r3, r3
 7480 0854 DAB2     		uxtb	r2, r3
 7481 0856 3B69     		ldr	r3, [r7, #16]
 7482 0858 1A70     		strb	r2, [r3]
1822:.\PrimeImpl.c **** 
1823:.\PrimeImpl.c ****             //15
1824:.\PrimeImpl.c ****             ptreeprom++;
 7483              		.loc 1 1824 0
 7484 085a 3B69     		ldr	r3, [r7, #16]
 7485 085c 0133     		adds	r3, r3, #1
ARM GAS  C:\Users\RECEPC~1\AppData\Local\Temp\ccNQP0pp.s 			page 165


 7486 085e 3B61     		str	r3, [r7, #16]
1825:.\PrimeImpl.c ****             blkindex++;
 7487              		.loc 1 1825 0
 7488 0860 FB7B     		ldrb	r3, [r7, #15]	@ zero_extendqisi2
 7489 0862 0133     		adds	r3, r3, #1
 7490 0864 FB73     		strb	r3, [r7, #15]
1826:.\PrimeImpl.c ****             //Slow-Flow Rate Valves Entry
1827:.\PrimeImpl.c ****             *ptreeprom = ((TranslateSpecialFuncionDigit(pjob->_ppump->_rxbuffer[9 + 45*index + 2*bl
 7491              		.loc 1 1827 0
 7492 0866 BB69     		ldr	r3, [r7, #24]
 7493 0868 D969     		ldr	r1, [r3, #28]
 7494 086a FA7D     		ldrb	r2, [r7, #23]	@ zero_extendqisi2
 7495 086c 1346     		mov	r3, r2
 7496 086e 5B00     		lsls	r3, r3, #1
 7497 0870 1344     		add	r3, r3, r2
 7498 0872 1A01     		lsls	r2, r3, #4
 7499 0874 D31A     		subs	r3, r2, r3
 7500 0876 03F10902 		add	r2, r3, #9
 7501 087a FB7B     		ldrb	r3, [r7, #15]	@ zero_extendqisi2
 7502 087c 5B00     		lsls	r3, r3, #1
 7503 087e 1344     		add	r3, r3, r2
 7504 0880 0B44     		add	r3, r3, r1
 7505 0882 93F88831 		ldrb	r3, [r3, #392]	@ zero_extendqisi2
 7506 0886 1846     		mov	r0, r3
 7507 0888 FFF7FEFF 		bl	TranslateSpecialFuncionDigit
 7508 088c 0346     		mov	r3, r0
 7509 088e 1B01     		lsls	r3, r3, #4
 7510 0890 DCB2     		uxtb	r4, r3
1828:.\PrimeImpl.c ****                             (TranslateSpecialFuncionDigit(pjob->_ppump->_rxbuffer[9 + 45*index + (2
 7511              		.loc 1 1828 0
 7512 0892 BB69     		ldr	r3, [r7, #24]
 7513 0894 D969     		ldr	r1, [r3, #28]
 7514 0896 FA7D     		ldrb	r2, [r7, #23]	@ zero_extendqisi2
 7515 0898 1346     		mov	r3, r2
 7516 089a 5B00     		lsls	r3, r3, #1
 7517 089c 1344     		add	r3, r3, r2
 7518 089e 1A01     		lsls	r2, r3, #4
 7519 08a0 D31A     		subs	r3, r2, r3
 7520 08a2 03F10902 		add	r2, r3, #9
 7521 08a6 FB7B     		ldrb	r3, [r7, #15]	@ zero_extendqisi2
 7522 08a8 5B00     		lsls	r3, r3, #1
 7523 08aa 0133     		adds	r3, r3, #1
 7524 08ac 1344     		add	r3, r3, r2
 7525 08ae 0B44     		add	r3, r3, r1
 7526 08b0 93F88831 		ldrb	r3, [r3, #392]	@ zero_extendqisi2
 7527 08b4 1846     		mov	r0, r3
 7528 08b6 FFF7FEFF 		bl	TranslateSpecialFuncionDigit
 7529 08ba 0346     		mov	r3, r0
1827:.\PrimeImpl.c ****                             (TranslateSpecialFuncionDigit(pjob->_ppump->_rxbuffer[9 + 45*index + (2
 7530              		.loc 1 1827 0
 7531 08bc DBB2     		uxtb	r3, r3
 7532 08be 03F00F03 		and	r3, r3, #15
 7533 08c2 DBB2     		uxtb	r3, r3
 7534 08c4 2246     		mov	r2, r4
 7535 08c6 1343     		orrs	r3, r3, r2
 7536 08c8 DBB2     		uxtb	r3, r3
 7537 08ca DAB2     		uxtb	r2, r3
ARM GAS  C:\Users\RECEPC~1\AppData\Local\Temp\ccNQP0pp.s 			page 166


 7538 08cc 3B69     		ldr	r3, [r7, #16]
 7539 08ce 1A70     		strb	r2, [r3]
1829:.\PrimeImpl.c **** 
1830:.\PrimeImpl.c ****             //HERE WE START THE NEXT 16 WORDS SINCE THE BLOCK INDEX HAS REACHED THE CURRENT BLOCK L
1831:.\PrimeImpl.c ****             //0
1832:.\PrimeImpl.c ****             index++;
 7540              		.loc 1 1832 0
 7541 08d0 FB7D     		ldrb	r3, [r7, #23]	@ zero_extendqisi2
 7542 08d2 0133     		adds	r3, r3, #1
 7543 08d4 FB75     		strb	r3, [r7, #23]
1833:.\PrimeImpl.c ****             ptreeprom++;
 7544              		.loc 1 1833 0
 7545 08d6 3B69     		ldr	r3, [r7, #16]
 7546 08d8 0133     		adds	r3, r3, #1
 7547 08da 3B61     		str	r3, [r7, #16]
1834:.\PrimeImpl.c ****             blkindex = 0;
 7548              		.loc 1 1834 0
 7549 08dc 0023     		movs	r3, #0
 7550 08de FB73     		strb	r3, [r7, #15]
1835:.\PrimeImpl.c ****             //Deliveries With Zero PPU
1836:.\PrimeImpl.c ****             *ptreeprom = ((TranslateSpecialFuncionDigit(pjob->_ppump->_rxbuffer[9 + 45*index + 2*bl
 7551              		.loc 1 1836 0
 7552 08e0 BB69     		ldr	r3, [r7, #24]
 7553 08e2 D969     		ldr	r1, [r3, #28]
 7554 08e4 FA7D     		ldrb	r2, [r7, #23]	@ zero_extendqisi2
 7555 08e6 1346     		mov	r3, r2
 7556 08e8 5B00     		lsls	r3, r3, #1
 7557 08ea 1344     		add	r3, r3, r2
 7558 08ec 1A01     		lsls	r2, r3, #4
 7559 08ee D31A     		subs	r3, r2, r3
 7560 08f0 03F10902 		add	r2, r3, #9
 7561 08f4 FB7B     		ldrb	r3, [r7, #15]	@ zero_extendqisi2
 7562 08f6 5B00     		lsls	r3, r3, #1
 7563 08f8 1344     		add	r3, r3, r2
 7564 08fa 0B44     		add	r3, r3, r1
 7565 08fc 93F88831 		ldrb	r3, [r3, #392]	@ zero_extendqisi2
 7566 0900 1846     		mov	r0, r3
 7567 0902 FFF7FEFF 		bl	TranslateSpecialFuncionDigit
 7568 0906 0346     		mov	r3, r0
 7569 0908 1B01     		lsls	r3, r3, #4
 7570 090a DCB2     		uxtb	r4, r3
1837:.\PrimeImpl.c ****                             (TranslateSpecialFuncionDigit(pjob->_ppump->_rxbuffer[9 + 45*index + (2
 7571              		.loc 1 1837 0
 7572 090c BB69     		ldr	r3, [r7, #24]
 7573 090e D969     		ldr	r1, [r3, #28]
 7574 0910 FA7D     		ldrb	r2, [r7, #23]	@ zero_extendqisi2
 7575 0912 1346     		mov	r3, r2
 7576 0914 5B00     		lsls	r3, r3, #1
 7577 0916 1344     		add	r3, r3, r2
 7578 0918 1A01     		lsls	r2, r3, #4
 7579 091a D31A     		subs	r3, r2, r3
 7580 091c 03F10902 		add	r2, r3, #9
 7581 0920 FB7B     		ldrb	r3, [r7, #15]	@ zero_extendqisi2
 7582 0922 5B00     		lsls	r3, r3, #1
 7583 0924 0133     		adds	r3, r3, #1
 7584 0926 1344     		add	r3, r3, r2
 7585 0928 0B44     		add	r3, r3, r1
ARM GAS  C:\Users\RECEPC~1\AppData\Local\Temp\ccNQP0pp.s 			page 167


 7586 092a 93F88831 		ldrb	r3, [r3, #392]	@ zero_extendqisi2
 7587 092e 1846     		mov	r0, r3
 7588 0930 FFF7FEFF 		bl	TranslateSpecialFuncionDigit
 7589 0934 0346     		mov	r3, r0
1836:.\PrimeImpl.c ****                             (TranslateSpecialFuncionDigit(pjob->_ppump->_rxbuffer[9 + 45*index + (2
 7590              		.loc 1 1836 0
 7591 0936 DBB2     		uxtb	r3, r3
 7592 0938 03F00F03 		and	r3, r3, #15
 7593 093c DBB2     		uxtb	r3, r3
 7594 093e 2246     		mov	r2, r4
 7595 0940 1343     		orrs	r3, r3, r2
 7596 0942 DBB2     		uxtb	r3, r3
 7597 0944 DAB2     		uxtb	r2, r3
 7598 0946 3B69     		ldr	r3, [r7, #16]
 7599 0948 1A70     		strb	r2, [r3]
1838:.\PrimeImpl.c **** 
1839:.\PrimeImpl.c ****             //1
1840:.\PrimeImpl.c ****             ptreeprom++;
 7600              		.loc 1 1840 0
 7601 094a 3B69     		ldr	r3, [r7, #16]
 7602 094c 0133     		adds	r3, r3, #1
 7603 094e 3B61     		str	r3, [r7, #16]
1841:.\PrimeImpl.c ****             blkindex++;
 7604              		.loc 1 1841 0
 7605 0950 FB7B     		ldrb	r3, [r7, #15]	@ zero_extendqisi2
 7606 0952 0133     		adds	r3, r3, #1
 7607 0954 FB73     		strb	r3, [r7, #15]
1842:.\PrimeImpl.c ****             //Zero Previous Sales Bef/Aft
1843:.\PrimeImpl.c ****             *ptreeprom = ((TranslateSpecialFuncionDigit(pjob->_ppump->_rxbuffer[9 + 45*index + 2*bl
 7608              		.loc 1 1843 0
 7609 0956 BB69     		ldr	r3, [r7, #24]
 7610 0958 D969     		ldr	r1, [r3, #28]
 7611 095a FA7D     		ldrb	r2, [r7, #23]	@ zero_extendqisi2
 7612 095c 1346     		mov	r3, r2
 7613 095e 5B00     		lsls	r3, r3, #1
 7614 0960 1344     		add	r3, r3, r2
 7615 0962 1A01     		lsls	r2, r3, #4
 7616 0964 D31A     		subs	r3, r2, r3
 7617 0966 03F10902 		add	r2, r3, #9
 7618 096a FB7B     		ldrb	r3, [r7, #15]	@ zero_extendqisi2
 7619 096c 5B00     		lsls	r3, r3, #1
 7620 096e 1344     		add	r3, r3, r2
 7621 0970 0B44     		add	r3, r3, r1
 7622 0972 93F88831 		ldrb	r3, [r3, #392]	@ zero_extendqisi2
 7623 0976 1846     		mov	r0, r3
 7624 0978 FFF7FEFF 		bl	TranslateSpecialFuncionDigit
 7625 097c 0346     		mov	r3, r0
 7626 097e 1B01     		lsls	r3, r3, #4
 7627 0980 DCB2     		uxtb	r4, r3
1844:.\PrimeImpl.c ****                             (TranslateSpecialFuncionDigit(pjob->_ppump->_rxbuffer[9 + 45*index + (2
 7628              		.loc 1 1844 0
 7629 0982 BB69     		ldr	r3, [r7, #24]
 7630 0984 D969     		ldr	r1, [r3, #28]
 7631 0986 FA7D     		ldrb	r2, [r7, #23]	@ zero_extendqisi2
 7632 0988 1346     		mov	r3, r2
 7633 098a 5B00     		lsls	r3, r3, #1
 7634 098c 1344     		add	r3, r3, r2
ARM GAS  C:\Users\RECEPC~1\AppData\Local\Temp\ccNQP0pp.s 			page 168


 7635 098e 1A01     		lsls	r2, r3, #4
 7636 0990 D31A     		subs	r3, r2, r3
 7637 0992 01E0     		b	.L226
 7638              	.L227:
 7639              		.align	2
 7640              	.L225:
 7641 0994 00000000 		.word	_g_dispenserlayoutinfo
 7642              	.L226:
 7643 0998 03F10902 		add	r2, r3, #9
 7644 099c FB7B     		ldrb	r3, [r7, #15]	@ zero_extendqisi2
 7645 099e 5B00     		lsls	r3, r3, #1
 7646 09a0 0133     		adds	r3, r3, #1
 7647 09a2 1344     		add	r3, r3, r2
 7648 09a4 0B44     		add	r3, r3, r1
 7649 09a6 93F88831 		ldrb	r3, [r3, #392]	@ zero_extendqisi2
 7650 09aa 1846     		mov	r0, r3
 7651 09ac FFF7FEFF 		bl	TranslateSpecialFuncionDigit
 7652 09b0 0346     		mov	r3, r0
1843:.\PrimeImpl.c ****                             (TranslateSpecialFuncionDigit(pjob->_ppump->_rxbuffer[9 + 45*index + (2
 7653              		.loc 1 1843 0
 7654 09b2 DBB2     		uxtb	r3, r3
 7655 09b4 03F00F03 		and	r3, r3, #15
 7656 09b8 DBB2     		uxtb	r3, r3
 7657 09ba 2246     		mov	r2, r4
 7658 09bc 1343     		orrs	r3, r3, r2
 7659 09be DBB2     		uxtb	r3, r3
 7660 09c0 DAB2     		uxtb	r2, r3
 7661 09c2 3B69     		ldr	r3, [r7, #16]
 7662 09c4 1A70     		strb	r2, [r3]
1845:.\PrimeImpl.c **** 
1846:.\PrimeImpl.c ****             //2
1847:.\PrimeImpl.c ****             ptreeprom++;
 7663              		.loc 1 1847 0
 7664 09c6 3B69     		ldr	r3, [r7, #16]
 7665 09c8 0133     		adds	r3, r3, #1
 7666 09ca 3B61     		str	r3, [r7, #16]
1848:.\PrimeImpl.c ****             blkindex++;
 7667              		.loc 1 1848 0
 7668 09cc FB7B     		ldrb	r3, [r7, #15]	@ zero_extendqisi2
 7669 09ce 0133     		adds	r3, r3, #1
 7670 09d0 FB73     		strb	r3, [r7, #15]
1849:.\PrimeImpl.c ****             //Lamp Test Timer
1850:.\PrimeImpl.c ****             *ptreeprom = ((TranslateSpecialFuncionDigit(pjob->_ppump->_rxbuffer[9 + 45*index + 2*bl
 7671              		.loc 1 1850 0
 7672 09d2 BB69     		ldr	r3, [r7, #24]
 7673 09d4 D969     		ldr	r1, [r3, #28]
 7674 09d6 FA7D     		ldrb	r2, [r7, #23]	@ zero_extendqisi2
 7675 09d8 1346     		mov	r3, r2
 7676 09da 5B00     		lsls	r3, r3, #1
 7677 09dc 1344     		add	r3, r3, r2
 7678 09de 1A01     		lsls	r2, r3, #4
 7679 09e0 D31A     		subs	r3, r2, r3
 7680 09e2 03F10902 		add	r2, r3, #9
 7681 09e6 FB7B     		ldrb	r3, [r7, #15]	@ zero_extendqisi2
 7682 09e8 5B00     		lsls	r3, r3, #1
 7683 09ea 1344     		add	r3, r3, r2
 7684 09ec 0B44     		add	r3, r3, r1
ARM GAS  C:\Users\RECEPC~1\AppData\Local\Temp\ccNQP0pp.s 			page 169


 7685 09ee 93F88831 		ldrb	r3, [r3, #392]	@ zero_extendqisi2
 7686 09f2 1846     		mov	r0, r3
 7687 09f4 FFF7FEFF 		bl	TranslateSpecialFuncionDigit
 7688 09f8 0346     		mov	r3, r0
 7689 09fa 1B01     		lsls	r3, r3, #4
 7690 09fc DCB2     		uxtb	r4, r3
1851:.\PrimeImpl.c ****                             (TranslateSpecialFuncionDigit(pjob->_ppump->_rxbuffer[9 + 45*index + (2
 7691              		.loc 1 1851 0
 7692 09fe BB69     		ldr	r3, [r7, #24]
 7693 0a00 D969     		ldr	r1, [r3, #28]
 7694 0a02 FA7D     		ldrb	r2, [r7, #23]	@ zero_extendqisi2
 7695 0a04 1346     		mov	r3, r2
 7696 0a06 5B00     		lsls	r3, r3, #1
 7697 0a08 1344     		add	r3, r3, r2
 7698 0a0a 1A01     		lsls	r2, r3, #4
 7699 0a0c D31A     		subs	r3, r2, r3
 7700 0a0e 03F10902 		add	r2, r3, #9
 7701 0a12 FB7B     		ldrb	r3, [r7, #15]	@ zero_extendqisi2
 7702 0a14 5B00     		lsls	r3, r3, #1
 7703 0a16 0133     		adds	r3, r3, #1
 7704 0a18 1344     		add	r3, r3, r2
 7705 0a1a 0B44     		add	r3, r3, r1
 7706 0a1c 93F88831 		ldrb	r3, [r3, #392]	@ zero_extendqisi2
 7707 0a20 1846     		mov	r0, r3
 7708 0a22 FFF7FEFF 		bl	TranslateSpecialFuncionDigit
 7709 0a26 0346     		mov	r3, r0
1850:.\PrimeImpl.c ****                             (TranslateSpecialFuncionDigit(pjob->_ppump->_rxbuffer[9 + 45*index + (2
 7710              		.loc 1 1850 0
 7711 0a28 DBB2     		uxtb	r3, r3
 7712 0a2a 03F00F03 		and	r3, r3, #15
 7713 0a2e DBB2     		uxtb	r3, r3
 7714 0a30 2246     		mov	r2, r4
 7715 0a32 1343     		orrs	r3, r3, r2
 7716 0a34 DBB2     		uxtb	r3, r3
 7717 0a36 DAB2     		uxtb	r2, r3
 7718 0a38 3B69     		ldr	r3, [r7, #16]
 7719 0a3a 1A70     		strb	r2, [r3]
1852:.\PrimeImpl.c **** 
1853:.\PrimeImpl.c ****             //3
1854:.\PrimeImpl.c ****             ptreeprom++;
 7720              		.loc 1 1854 0
 7721 0a3c 3B69     		ldr	r3, [r7, #16]
 7722 0a3e 0133     		adds	r3, r3, #1
 7723 0a40 3B61     		str	r3, [r7, #16]
1855:.\PrimeImpl.c ****             blkindex++;
 7724              		.loc 1 1855 0
 7725 0a42 FB7B     		ldrb	r3, [r7, #15]	@ zero_extendqisi2
 7726 0a44 0133     		adds	r3, r3, #1
 7727 0a46 FB73     		strb	r3, [r7, #15]
1856:.\PrimeImpl.c ****             //Decimal/Integers Preset Value
1857:.\PrimeImpl.c ****             *ptreeprom = ((TranslateSpecialFuncionDigit(pjob->_ppump->_rxbuffer[9 + 45*index + 2*bl
 7728              		.loc 1 1857 0
 7729 0a48 BB69     		ldr	r3, [r7, #24]
 7730 0a4a D969     		ldr	r1, [r3, #28]
 7731 0a4c FA7D     		ldrb	r2, [r7, #23]	@ zero_extendqisi2
 7732 0a4e 1346     		mov	r3, r2
 7733 0a50 5B00     		lsls	r3, r3, #1
ARM GAS  C:\Users\RECEPC~1\AppData\Local\Temp\ccNQP0pp.s 			page 170


 7734 0a52 1344     		add	r3, r3, r2
 7735 0a54 1A01     		lsls	r2, r3, #4
 7736 0a56 D31A     		subs	r3, r2, r3
 7737 0a58 03F10902 		add	r2, r3, #9
 7738 0a5c FB7B     		ldrb	r3, [r7, #15]	@ zero_extendqisi2
 7739 0a5e 5B00     		lsls	r3, r3, #1
 7740 0a60 1344     		add	r3, r3, r2
 7741 0a62 0B44     		add	r3, r3, r1
 7742 0a64 93F88831 		ldrb	r3, [r3, #392]	@ zero_extendqisi2
 7743 0a68 1846     		mov	r0, r3
 7744 0a6a FFF7FEFF 		bl	TranslateSpecialFuncionDigit
 7745 0a6e 0346     		mov	r3, r0
 7746 0a70 1B01     		lsls	r3, r3, #4
 7747 0a72 DCB2     		uxtb	r4, r3
1858:.\PrimeImpl.c ****                             (TranslateSpecialFuncionDigit(pjob->_ppump->_rxbuffer[9 + 45*index + (2
 7748              		.loc 1 1858 0
 7749 0a74 BB69     		ldr	r3, [r7, #24]
 7750 0a76 D969     		ldr	r1, [r3, #28]
 7751 0a78 FA7D     		ldrb	r2, [r7, #23]	@ zero_extendqisi2
 7752 0a7a 1346     		mov	r3, r2
 7753 0a7c 5B00     		lsls	r3, r3, #1
 7754 0a7e 1344     		add	r3, r3, r2
 7755 0a80 1A01     		lsls	r2, r3, #4
 7756 0a82 D31A     		subs	r3, r2, r3
 7757 0a84 03F10902 		add	r2, r3, #9
 7758 0a88 FB7B     		ldrb	r3, [r7, #15]	@ zero_extendqisi2
 7759 0a8a 5B00     		lsls	r3, r3, #1
 7760 0a8c 0133     		adds	r3, r3, #1
 7761 0a8e 1344     		add	r3, r3, r2
 7762 0a90 0B44     		add	r3, r3, r1
 7763 0a92 93F88831 		ldrb	r3, [r3, #392]	@ zero_extendqisi2
 7764 0a96 1846     		mov	r0, r3
 7765 0a98 FFF7FEFF 		bl	TranslateSpecialFuncionDigit
 7766 0a9c 0346     		mov	r3, r0
1857:.\PrimeImpl.c ****                             (TranslateSpecialFuncionDigit(pjob->_ppump->_rxbuffer[9 + 45*index + (2
 7767              		.loc 1 1857 0
 7768 0a9e DBB2     		uxtb	r3, r3
 7769 0aa0 03F00F03 		and	r3, r3, #15
 7770 0aa4 DBB2     		uxtb	r3, r3
 7771 0aa6 2246     		mov	r2, r4
 7772 0aa8 1343     		orrs	r3, r3, r2
 7773 0aaa DBB2     		uxtb	r3, r3
 7774 0aac DAB2     		uxtb	r2, r3
 7775 0aae 3B69     		ldr	r3, [r7, #16]
 7776 0ab0 1A70     		strb	r2, [r3]
1859:.\PrimeImpl.c **** 
1860:.\PrimeImpl.c ****             //4
1861:.\PrimeImpl.c ****             ptreeprom++;
 7777              		.loc 1 1861 0
 7778 0ab2 3B69     		ldr	r3, [r7, #16]
 7779 0ab4 0133     		adds	r3, r3, #1
 7780 0ab6 3B61     		str	r3, [r7, #16]
1862:.\PrimeImpl.c ****             blkindex++;
 7781              		.loc 1 1862 0
 7782 0ab8 FB7B     		ldrb	r3, [r7, #15]	@ zero_extendqisi2
 7783 0aba 0133     		adds	r3, r3, #1
 7784 0abc FB73     		strb	r3, [r7, #15]
ARM GAS  C:\Users\RECEPC~1\AppData\Local\Temp\ccNQP0pp.s 			page 171


1863:.\PrimeImpl.c ****             //Flow Rate Meter Mode
1864:.\PrimeImpl.c ****             *ptreeprom = ((TranslateSpecialFuncionDigit(pjob->_ppump->_rxbuffer[9 + 45*index + 2*bl
 7785              		.loc 1 1864 0
 7786 0abe BB69     		ldr	r3, [r7, #24]
 7787 0ac0 D969     		ldr	r1, [r3, #28]
 7788 0ac2 FA7D     		ldrb	r2, [r7, #23]	@ zero_extendqisi2
 7789 0ac4 1346     		mov	r3, r2
 7790 0ac6 5B00     		lsls	r3, r3, #1
 7791 0ac8 1344     		add	r3, r3, r2
 7792 0aca 1A01     		lsls	r2, r3, #4
 7793 0acc D31A     		subs	r3, r2, r3
 7794 0ace 03F10902 		add	r2, r3, #9
 7795 0ad2 FB7B     		ldrb	r3, [r7, #15]	@ zero_extendqisi2
 7796 0ad4 5B00     		lsls	r3, r3, #1
 7797 0ad6 1344     		add	r3, r3, r2
 7798 0ad8 0B44     		add	r3, r3, r1
 7799 0ada 93F88831 		ldrb	r3, [r3, #392]	@ zero_extendqisi2
 7800 0ade 1846     		mov	r0, r3
 7801 0ae0 FFF7FEFF 		bl	TranslateSpecialFuncionDigit
 7802 0ae4 0346     		mov	r3, r0
 7803 0ae6 1B01     		lsls	r3, r3, #4
 7804 0ae8 DCB2     		uxtb	r4, r3
1865:.\PrimeImpl.c ****                             (TranslateSpecialFuncionDigit(pjob->_ppump->_rxbuffer[9 + 45*index + (2
 7805              		.loc 1 1865 0
 7806 0aea BB69     		ldr	r3, [r7, #24]
 7807 0aec D969     		ldr	r1, [r3, #28]
 7808 0aee FA7D     		ldrb	r2, [r7, #23]	@ zero_extendqisi2
 7809 0af0 1346     		mov	r3, r2
 7810 0af2 5B00     		lsls	r3, r3, #1
 7811 0af4 1344     		add	r3, r3, r2
 7812 0af6 1A01     		lsls	r2, r3, #4
 7813 0af8 D31A     		subs	r3, r2, r3
 7814 0afa 03F10902 		add	r2, r3, #9
 7815 0afe FB7B     		ldrb	r3, [r7, #15]	@ zero_extendqisi2
 7816 0b00 5B00     		lsls	r3, r3, #1
 7817 0b02 0133     		adds	r3, r3, #1
 7818 0b04 1344     		add	r3, r3, r2
 7819 0b06 0B44     		add	r3, r3, r1
 7820 0b08 93F88831 		ldrb	r3, [r3, #392]	@ zero_extendqisi2
 7821 0b0c 1846     		mov	r0, r3
 7822 0b0e FFF7FEFF 		bl	TranslateSpecialFuncionDigit
 7823 0b12 0346     		mov	r3, r0
1864:.\PrimeImpl.c ****                             (TranslateSpecialFuncionDigit(pjob->_ppump->_rxbuffer[9 + 45*index + (2
 7824              		.loc 1 1864 0
 7825 0b14 DBB2     		uxtb	r3, r3
 7826 0b16 03F00F03 		and	r3, r3, #15
 7827 0b1a DBB2     		uxtb	r3, r3
 7828 0b1c 2246     		mov	r2, r4
 7829 0b1e 1343     		orrs	r3, r3, r2
 7830 0b20 DBB2     		uxtb	r3, r3
 7831 0b22 DAB2     		uxtb	r2, r3
 7832 0b24 3B69     		ldr	r3, [r7, #16]
 7833 0b26 1A70     		strb	r2, [r3]
1866:.\PrimeImpl.c **** 
1867:.\PrimeImpl.c ****             //5
1868:.\PrimeImpl.c ****             ptreeprom++;
 7834              		.loc 1 1868 0
ARM GAS  C:\Users\RECEPC~1\AppData\Local\Temp\ccNQP0pp.s 			page 172


 7835 0b28 3B69     		ldr	r3, [r7, #16]
 7836 0b2a 0133     		adds	r3, r3, #1
 7837 0b2c 3B61     		str	r3, [r7, #16]
1869:.\PrimeImpl.c ****             blkindex++;
 7838              		.loc 1 1869 0
 7839 0b2e FB7B     		ldrb	r3, [r7, #15]	@ zero_extendqisi2
 7840 0b30 0133     		adds	r3, r3, #1
 7841 0b32 FB73     		strb	r3, [r7, #15]
1870:.\PrimeImpl.c ****             //Display Check Mode
1871:.\PrimeImpl.c ****             *ptreeprom = ((TranslateSpecialFuncionDigit(pjob->_ppump->_rxbuffer[9 + 45*index + 2*bl
 7842              		.loc 1 1871 0
 7843 0b34 BB69     		ldr	r3, [r7, #24]
 7844 0b36 D969     		ldr	r1, [r3, #28]
 7845 0b38 FA7D     		ldrb	r2, [r7, #23]	@ zero_extendqisi2
 7846 0b3a 1346     		mov	r3, r2
 7847 0b3c 5B00     		lsls	r3, r3, #1
 7848 0b3e 1344     		add	r3, r3, r2
 7849 0b40 1A01     		lsls	r2, r3, #4
 7850 0b42 D31A     		subs	r3, r2, r3
 7851 0b44 03F10902 		add	r2, r3, #9
 7852 0b48 FB7B     		ldrb	r3, [r7, #15]	@ zero_extendqisi2
 7853 0b4a 5B00     		lsls	r3, r3, #1
 7854 0b4c 1344     		add	r3, r3, r2
 7855 0b4e 0B44     		add	r3, r3, r1
 7856 0b50 93F88831 		ldrb	r3, [r3, #392]	@ zero_extendqisi2
 7857 0b54 1846     		mov	r0, r3
 7858 0b56 FFF7FEFF 		bl	TranslateSpecialFuncionDigit
 7859 0b5a 0346     		mov	r3, r0
 7860 0b5c 1B01     		lsls	r3, r3, #4
 7861 0b5e DCB2     		uxtb	r4, r3
1872:.\PrimeImpl.c ****                             (TranslateSpecialFuncionDigit(pjob->_ppump->_rxbuffer[9 + 45*index + (2
 7862              		.loc 1 1872 0
 7863 0b60 BB69     		ldr	r3, [r7, #24]
 7864 0b62 D969     		ldr	r1, [r3, #28]
 7865 0b64 FA7D     		ldrb	r2, [r7, #23]	@ zero_extendqisi2
 7866 0b66 1346     		mov	r3, r2
 7867 0b68 5B00     		lsls	r3, r3, #1
 7868 0b6a 1344     		add	r3, r3, r2
 7869 0b6c 1A01     		lsls	r2, r3, #4
 7870 0b6e D31A     		subs	r3, r2, r3
 7871 0b70 03F10902 		add	r2, r3, #9
 7872 0b74 FB7B     		ldrb	r3, [r7, #15]	@ zero_extendqisi2
 7873 0b76 5B00     		lsls	r3, r3, #1
 7874 0b78 0133     		adds	r3, r3, #1
 7875 0b7a 1344     		add	r3, r3, r2
 7876 0b7c 0B44     		add	r3, r3, r1
 7877 0b7e 93F88831 		ldrb	r3, [r3, #392]	@ zero_extendqisi2
 7878 0b82 1846     		mov	r0, r3
 7879 0b84 FFF7FEFF 		bl	TranslateSpecialFuncionDigit
 7880 0b88 0346     		mov	r3, r0
1871:.\PrimeImpl.c ****                             (TranslateSpecialFuncionDigit(pjob->_ppump->_rxbuffer[9 + 45*index + (2
 7881              		.loc 1 1871 0
 7882 0b8a DBB2     		uxtb	r3, r3
 7883 0b8c 03F00F03 		and	r3, r3, #15
 7884 0b90 DBB2     		uxtb	r3, r3
 7885 0b92 2246     		mov	r2, r4
 7886 0b94 1343     		orrs	r3, r3, r2
ARM GAS  C:\Users\RECEPC~1\AppData\Local\Temp\ccNQP0pp.s 			page 173


 7887 0b96 DBB2     		uxtb	r3, r3
 7888 0b98 DAB2     		uxtb	r2, r3
 7889 0b9a 3B69     		ldr	r3, [r7, #16]
 7890 0b9c 1A70     		strb	r2, [r3]
1873:.\PrimeImpl.c **** 
1874:.\PrimeImpl.c ****             //6
1875:.\PrimeImpl.c ****             ptreeprom++;
 7891              		.loc 1 1875 0
 7892 0b9e 3B69     		ldr	r3, [r7, #16]
 7893 0ba0 0133     		adds	r3, r3, #1
 7894 0ba2 3B61     		str	r3, [r7, #16]
1876:.\PrimeImpl.c ****             blkindex++;
 7895              		.loc 1 1876 0
 7896 0ba4 FB7B     		ldrb	r3, [r7, #15]	@ zero_extendqisi2
 7897 0ba6 0133     		adds	r3, r3, #1
 7898 0ba8 FB73     		strb	r3, [r7, #15]
1877:.\PrimeImpl.c ****             //Electro-Mech Totalizer Mode
1878:.\PrimeImpl.c ****             *ptreeprom = ((TranslateSpecialFuncionDigit(pjob->_ppump->_rxbuffer[9 + 45*index + 2*bl
 7899              		.loc 1 1878 0
 7900 0baa BB69     		ldr	r3, [r7, #24]
 7901 0bac D969     		ldr	r1, [r3, #28]
 7902 0bae FA7D     		ldrb	r2, [r7, #23]	@ zero_extendqisi2
 7903 0bb0 1346     		mov	r3, r2
 7904 0bb2 5B00     		lsls	r3, r3, #1
 7905 0bb4 1344     		add	r3, r3, r2
 7906 0bb6 1A01     		lsls	r2, r3, #4
 7907 0bb8 D31A     		subs	r3, r2, r3
 7908 0bba 03F10902 		add	r2, r3, #9
 7909 0bbe FB7B     		ldrb	r3, [r7, #15]	@ zero_extendqisi2
 7910 0bc0 5B00     		lsls	r3, r3, #1
 7911 0bc2 1344     		add	r3, r3, r2
 7912 0bc4 0B44     		add	r3, r3, r1
 7913 0bc6 93F88831 		ldrb	r3, [r3, #392]	@ zero_extendqisi2
 7914 0bca 1846     		mov	r0, r3
 7915 0bcc FFF7FEFF 		bl	TranslateSpecialFuncionDigit
 7916 0bd0 0346     		mov	r3, r0
 7917 0bd2 1B01     		lsls	r3, r3, #4
 7918 0bd4 DCB2     		uxtb	r4, r3
1879:.\PrimeImpl.c ****                             (TranslateSpecialFuncionDigit(pjob->_ppump->_rxbuffer[9 + 45*index + (2
 7919              		.loc 1 1879 0
 7920 0bd6 BB69     		ldr	r3, [r7, #24]
 7921 0bd8 D969     		ldr	r1, [r3, #28]
 7922 0bda FA7D     		ldrb	r2, [r7, #23]	@ zero_extendqisi2
 7923 0bdc 1346     		mov	r3, r2
 7924 0bde 5B00     		lsls	r3, r3, #1
 7925 0be0 1344     		add	r3, r3, r2
 7926 0be2 1A01     		lsls	r2, r3, #4
 7927 0be4 D31A     		subs	r3, r2, r3
 7928 0be6 03F10902 		add	r2, r3, #9
 7929 0bea FB7B     		ldrb	r3, [r7, #15]	@ zero_extendqisi2
 7930 0bec 5B00     		lsls	r3, r3, #1
 7931 0bee 0133     		adds	r3, r3, #1
 7932 0bf0 1344     		add	r3, r3, r2
 7933 0bf2 0B44     		add	r3, r3, r1
 7934 0bf4 93F88831 		ldrb	r3, [r3, #392]	@ zero_extendqisi2
 7935 0bf8 1846     		mov	r0, r3
 7936 0bfa FFF7FEFF 		bl	TranslateSpecialFuncionDigit
ARM GAS  C:\Users\RECEPC~1\AppData\Local\Temp\ccNQP0pp.s 			page 174


 7937 0bfe 0346     		mov	r3, r0
1878:.\PrimeImpl.c ****                             (TranslateSpecialFuncionDigit(pjob->_ppump->_rxbuffer[9 + 45*index + (2
 7938              		.loc 1 1878 0
 7939 0c00 DBB2     		uxtb	r3, r3
 7940 0c02 03F00F03 		and	r3, r3, #15
 7941 0c06 DBB2     		uxtb	r3, r3
 7942 0c08 2246     		mov	r2, r4
 7943 0c0a 1343     		orrs	r3, r3, r2
 7944 0c0c DBB2     		uxtb	r3, r3
 7945 0c0e DAB2     		uxtb	r2, r3
 7946 0c10 3B69     		ldr	r3, [r7, #16]
 7947 0c12 1A70     		strb	r2, [r3]
1880:.\PrimeImpl.c **** 
1881:.\PrimeImpl.c ****             //7
1882:.\PrimeImpl.c ****             ptreeprom++;
 7948              		.loc 1 1882 0
 7949 0c14 3B69     		ldr	r3, [r7, #16]
 7950 0c16 0133     		adds	r3, r3, #1
 7951 0c18 3B61     		str	r3, [r7, #16]
1883:.\PrimeImpl.c ****             blkindex++;
 7952              		.loc 1 1883 0
 7953 0c1a FB7B     		ldrb	r3, [r7, #15]	@ zero_extendqisi2
 7954 0c1c 0133     		adds	r3, r3, #1
 7955 0c1e FB73     		strb	r3, [r7, #15]
1884:.\PrimeImpl.c ****             //Calibration Mode
1885:.\PrimeImpl.c ****             *ptreeprom = ((TranslateSpecialFuncionDigit(pjob->_ppump->_rxbuffer[9 + 45*index + 2*bl
 7956              		.loc 1 1885 0
 7957 0c20 BB69     		ldr	r3, [r7, #24]
 7958 0c22 D969     		ldr	r1, [r3, #28]
 7959 0c24 FA7D     		ldrb	r2, [r7, #23]	@ zero_extendqisi2
 7960 0c26 1346     		mov	r3, r2
 7961 0c28 5B00     		lsls	r3, r3, #1
 7962 0c2a 1344     		add	r3, r3, r2
 7963 0c2c 1A01     		lsls	r2, r3, #4
 7964 0c2e D31A     		subs	r3, r2, r3
 7965 0c30 03F10902 		add	r2, r3, #9
 7966 0c34 FB7B     		ldrb	r3, [r7, #15]	@ zero_extendqisi2
 7967 0c36 5B00     		lsls	r3, r3, #1
 7968 0c38 1344     		add	r3, r3, r2
 7969 0c3a 0B44     		add	r3, r3, r1
 7970 0c3c 93F88831 		ldrb	r3, [r3, #392]	@ zero_extendqisi2
 7971 0c40 1846     		mov	r0, r3
 7972 0c42 FFF7FEFF 		bl	TranslateSpecialFuncionDigit
 7973 0c46 0346     		mov	r3, r0
 7974 0c48 1B01     		lsls	r3, r3, #4
 7975 0c4a DCB2     		uxtb	r4, r3
1886:.\PrimeImpl.c ****                             (TranslateSpecialFuncionDigit(pjob->_ppump->_rxbuffer[9 + 45*index + (2
 7976              		.loc 1 1886 0
 7977 0c4c BB69     		ldr	r3, [r7, #24]
 7978 0c4e D969     		ldr	r1, [r3, #28]
 7979 0c50 FA7D     		ldrb	r2, [r7, #23]	@ zero_extendqisi2
 7980 0c52 1346     		mov	r3, r2
 7981 0c54 5B00     		lsls	r3, r3, #1
 7982 0c56 1344     		add	r3, r3, r2
 7983 0c58 1A01     		lsls	r2, r3, #4
 7984 0c5a D31A     		subs	r3, r2, r3
 7985 0c5c 03F10902 		add	r2, r3, #9
ARM GAS  C:\Users\RECEPC~1\AppData\Local\Temp\ccNQP0pp.s 			page 175


 7986 0c60 FB7B     		ldrb	r3, [r7, #15]	@ zero_extendqisi2
 7987 0c62 5B00     		lsls	r3, r3, #1
 7988 0c64 0133     		adds	r3, r3, #1
 7989 0c66 1344     		add	r3, r3, r2
 7990 0c68 0B44     		add	r3, r3, r1
 7991 0c6a 93F88831 		ldrb	r3, [r3, #392]	@ zero_extendqisi2
 7992 0c6e 1846     		mov	r0, r3
 7993 0c70 FFF7FEFF 		bl	TranslateSpecialFuncionDigit
 7994 0c74 0346     		mov	r3, r0
1885:.\PrimeImpl.c ****                             (TranslateSpecialFuncionDigit(pjob->_ppump->_rxbuffer[9 + 45*index + (2
 7995              		.loc 1 1885 0
 7996 0c76 DBB2     		uxtb	r3, r3
 7997 0c78 03F00F03 		and	r3, r3, #15
 7998 0c7c DBB2     		uxtb	r3, r3
 7999 0c7e 2246     		mov	r2, r4
 8000 0c80 1343     		orrs	r3, r3, r2
 8001 0c82 DBB2     		uxtb	r3, r3
 8002 0c84 DAB2     		uxtb	r2, r3
 8003 0c86 3B69     		ldr	r3, [r7, #16]
 8004 0c88 1A70     		strb	r2, [r3]
1887:.\PrimeImpl.c **** 
1888:.\PrimeImpl.c ****             //8
1889:.\PrimeImpl.c ****             ptreeprom++;
 8005              		.loc 1 1889 0
 8006 0c8a 3B69     		ldr	r3, [r7, #16]
 8007 0c8c 0133     		adds	r3, r3, #1
 8008 0c8e 3B61     		str	r3, [r7, #16]
1890:.\PrimeImpl.c ****             blkindex++;
 8009              		.loc 1 1890 0
 8010 0c90 FB7B     		ldrb	r3, [r7, #15]	@ zero_extendqisi2
 8011 0c92 0133     		adds	r3, r3, #1
 8012 0c94 FB73     		strb	r3, [r7, #15]
1891:.\PrimeImpl.c ****             //Preset Mode
1892:.\PrimeImpl.c ****             *ptreeprom = ((TranslateSpecialFuncionDigit(pjob->_ppump->_rxbuffer[9 + 45*index + 2*bl
 8013              		.loc 1 1892 0
 8014 0c96 BB69     		ldr	r3, [r7, #24]
 8015 0c98 D969     		ldr	r1, [r3, #28]
 8016 0c9a FA7D     		ldrb	r2, [r7, #23]	@ zero_extendqisi2
 8017 0c9c 1346     		mov	r3, r2
 8018 0c9e 5B00     		lsls	r3, r3, #1
 8019 0ca0 1344     		add	r3, r3, r2
 8020 0ca2 1A01     		lsls	r2, r3, #4
 8021 0ca4 D31A     		subs	r3, r2, r3
 8022 0ca6 03F10902 		add	r2, r3, #9
 8023 0caa FB7B     		ldrb	r3, [r7, #15]	@ zero_extendqisi2
 8024 0cac 5B00     		lsls	r3, r3, #1
 8025 0cae 1344     		add	r3, r3, r2
 8026 0cb0 0B44     		add	r3, r3, r1
 8027 0cb2 93F88831 		ldrb	r3, [r3, #392]	@ zero_extendqisi2
 8028 0cb6 1846     		mov	r0, r3
 8029 0cb8 FFF7FEFF 		bl	TranslateSpecialFuncionDigit
 8030 0cbc 0346     		mov	r3, r0
 8031 0cbe 1B01     		lsls	r3, r3, #4
 8032 0cc0 DCB2     		uxtb	r4, r3
1893:.\PrimeImpl.c ****                             (TranslateSpecialFuncionDigit(pjob->_ppump->_rxbuffer[9 + 45*index + (2
 8033              		.loc 1 1893 0
 8034 0cc2 BB69     		ldr	r3, [r7, #24]
ARM GAS  C:\Users\RECEPC~1\AppData\Local\Temp\ccNQP0pp.s 			page 176


 8035 0cc4 D969     		ldr	r1, [r3, #28]
 8036 0cc6 FA7D     		ldrb	r2, [r7, #23]	@ zero_extendqisi2
 8037 0cc8 1346     		mov	r3, r2
 8038 0cca 5B00     		lsls	r3, r3, #1
 8039 0ccc 1344     		add	r3, r3, r2
 8040 0cce 1A01     		lsls	r2, r3, #4
 8041 0cd0 D31A     		subs	r3, r2, r3
 8042 0cd2 03F10902 		add	r2, r3, #9
 8043 0cd6 FB7B     		ldrb	r3, [r7, #15]	@ zero_extendqisi2
 8044 0cd8 5B00     		lsls	r3, r3, #1
 8045 0cda 0133     		adds	r3, r3, #1
 8046 0cdc 1344     		add	r3, r3, r2
 8047 0cde 0B44     		add	r3, r3, r1
 8048 0ce0 93F88831 		ldrb	r3, [r3, #392]	@ zero_extendqisi2
 8049 0ce4 1846     		mov	r0, r3
 8050 0ce6 FFF7FEFF 		bl	TranslateSpecialFuncionDigit
 8051 0cea 0346     		mov	r3, r0
1892:.\PrimeImpl.c ****                             (TranslateSpecialFuncionDigit(pjob->_ppump->_rxbuffer[9 + 45*index + (2
 8052              		.loc 1 1892 0
 8053 0cec DBB2     		uxtb	r3, r3
 8054 0cee 03F00F03 		and	r3, r3, #15
 8055 0cf2 DBB2     		uxtb	r3, r3
 8056 0cf4 2246     		mov	r2, r4
 8057 0cf6 1343     		orrs	r3, r3, r2
 8058 0cf8 DBB2     		uxtb	r3, r3
 8059 0cfa DAB2     		uxtb	r2, r3
 8060 0cfc 3B69     		ldr	r3, [r7, #16]
 8061 0cfe 1A70     		strb	r2, [r3]
1894:.\PrimeImpl.c **** 
1895:.\PrimeImpl.c ****             //9
1896:.\PrimeImpl.c ****             ptreeprom++;
 8062              		.loc 1 1896 0
 8063 0d00 3B69     		ldr	r3, [r7, #16]
 8064 0d02 0133     		adds	r3, r3, #1
 8065 0d04 3B61     		str	r3, [r7, #16]
1897:.\PrimeImpl.c ****             blkindex++;
 8066              		.loc 1 1897 0
 8067 0d06 FB7B     		ldrb	r3, [r7, #15]	@ zero_extendqisi2
 8068 0d08 0133     		adds	r3, r3, #1
 8069 0d0a FB73     		strb	r3, [r7, #15]
1898:.\PrimeImpl.c ****             //30 Seconds to Allow Key Pad Preset
1899:.\PrimeImpl.c ****             *ptreeprom = ((TranslateSpecialFuncionDigit(pjob->_ppump->_rxbuffer[9 + 45*index + 2*bl
 8070              		.loc 1 1899 0
 8071 0d0c BB69     		ldr	r3, [r7, #24]
 8072 0d0e D969     		ldr	r1, [r3, #28]
 8073 0d10 FA7D     		ldrb	r2, [r7, #23]	@ zero_extendqisi2
 8074 0d12 1346     		mov	r3, r2
 8075 0d14 5B00     		lsls	r3, r3, #1
 8076 0d16 1344     		add	r3, r3, r2
 8077 0d18 1A01     		lsls	r2, r3, #4
 8078 0d1a D31A     		subs	r3, r2, r3
 8079 0d1c 03F10902 		add	r2, r3, #9
 8080 0d20 FB7B     		ldrb	r3, [r7, #15]	@ zero_extendqisi2
 8081 0d22 5B00     		lsls	r3, r3, #1
 8082 0d24 1344     		add	r3, r3, r2
 8083 0d26 0B44     		add	r3, r3, r1
 8084 0d28 93F88831 		ldrb	r3, [r3, #392]	@ zero_extendqisi2
ARM GAS  C:\Users\RECEPC~1\AppData\Local\Temp\ccNQP0pp.s 			page 177


 8085 0d2c 1846     		mov	r0, r3
 8086 0d2e FFF7FEFF 		bl	TranslateSpecialFuncionDigit
 8087 0d32 0346     		mov	r3, r0
 8088 0d34 1B01     		lsls	r3, r3, #4
 8089 0d36 DCB2     		uxtb	r4, r3
1900:.\PrimeImpl.c ****                             (TranslateSpecialFuncionDigit(pjob->_ppump->_rxbuffer[9 + 45*index + (2
 8090              		.loc 1 1900 0
 8091 0d38 BB69     		ldr	r3, [r7, #24]
 8092 0d3a D969     		ldr	r1, [r3, #28]
 8093 0d3c FA7D     		ldrb	r2, [r7, #23]	@ zero_extendqisi2
 8094 0d3e 1346     		mov	r3, r2
 8095 0d40 5B00     		lsls	r3, r3, #1
 8096 0d42 1344     		add	r3, r3, r2
 8097 0d44 1A01     		lsls	r2, r3, #4
 8098 0d46 D31A     		subs	r3, r2, r3
 8099 0d48 03F10902 		add	r2, r3, #9
 8100 0d4c FB7B     		ldrb	r3, [r7, #15]	@ zero_extendqisi2
 8101 0d4e 5B00     		lsls	r3, r3, #1
 8102 0d50 0133     		adds	r3, r3, #1
 8103 0d52 1344     		add	r3, r3, r2
 8104 0d54 0B44     		add	r3, r3, r1
 8105 0d56 93F88831 		ldrb	r3, [r3, #392]	@ zero_extendqisi2
 8106 0d5a 1846     		mov	r0, r3
 8107 0d5c FFF7FEFF 		bl	TranslateSpecialFuncionDigit
 8108 0d60 0346     		mov	r3, r0
1899:.\PrimeImpl.c ****                             (TranslateSpecialFuncionDigit(pjob->_ppump->_rxbuffer[9 + 45*index + (2
 8109              		.loc 1 1899 0
 8110 0d62 DBB2     		uxtb	r3, r3
 8111 0d64 03F00F03 		and	r3, r3, #15
 8112 0d68 DBB2     		uxtb	r3, r3
 8113 0d6a 2246     		mov	r2, r4
 8114 0d6c 1343     		orrs	r3, r3, r2
 8115 0d6e DBB2     		uxtb	r3, r3
 8116 0d70 DAB2     		uxtb	r2, r3
 8117 0d72 3B69     		ldr	r3, [r7, #16]
 8118 0d74 1A70     		strb	r2, [r3]
1901:.\PrimeImpl.c **** 
1902:.\PrimeImpl.c ****             //10
1903:.\PrimeImpl.c ****             ptreeprom++;
 8119              		.loc 1 1903 0
 8120 0d76 3B69     		ldr	r3, [r7, #16]
 8121 0d78 0133     		adds	r3, r3, #1
 8122 0d7a 3B61     		str	r3, [r7, #16]
1904:.\PrimeImpl.c ****             blkindex++;
 8123              		.loc 1 1904 0
 8124 0d7c FB7B     		ldrb	r3, [r7, #15]	@ zero_extendqisi2
 8125 0d7e 0133     		adds	r3, r3, #1
 8126 0d80 FB73     		strb	r3, [r7, #15]
1905:.\PrimeImpl.c ****             //Manager Password Mode
1906:.\PrimeImpl.c ****             *ptreeprom = ((TranslateSpecialFuncionDigit(pjob->_ppump->_rxbuffer[9 + 45*index + 2*bl
 8127              		.loc 1 1906 0
 8128 0d82 BB69     		ldr	r3, [r7, #24]
 8129 0d84 D969     		ldr	r1, [r3, #28]
 8130 0d86 FA7D     		ldrb	r2, [r7, #23]	@ zero_extendqisi2
 8131 0d88 1346     		mov	r3, r2
 8132 0d8a 5B00     		lsls	r3, r3, #1
 8133 0d8c 1344     		add	r3, r3, r2
ARM GAS  C:\Users\RECEPC~1\AppData\Local\Temp\ccNQP0pp.s 			page 178


 8134 0d8e 1A01     		lsls	r2, r3, #4
 8135 0d90 D31A     		subs	r3, r2, r3
 8136 0d92 03F10902 		add	r2, r3, #9
 8137 0d96 FB7B     		ldrb	r3, [r7, #15]	@ zero_extendqisi2
 8138 0d98 5B00     		lsls	r3, r3, #1
 8139 0d9a 1344     		add	r3, r3, r2
 8140 0d9c 0B44     		add	r3, r3, r1
 8141 0d9e 93F88831 		ldrb	r3, [r3, #392]	@ zero_extendqisi2
 8142 0da2 1846     		mov	r0, r3
 8143 0da4 FFF7FEFF 		bl	TranslateSpecialFuncionDigit
 8144 0da8 0346     		mov	r3, r0
 8145 0daa 1B01     		lsls	r3, r3, #4
 8146 0dac DCB2     		uxtb	r4, r3
1907:.\PrimeImpl.c ****                             (TranslateSpecialFuncionDigit(pjob->_ppump->_rxbuffer[9 + 45*index + (2
 8147              		.loc 1 1907 0
 8148 0dae BB69     		ldr	r3, [r7, #24]
 8149 0db0 D969     		ldr	r1, [r3, #28]
 8150 0db2 FA7D     		ldrb	r2, [r7, #23]	@ zero_extendqisi2
 8151 0db4 1346     		mov	r3, r2
 8152 0db6 5B00     		lsls	r3, r3, #1
 8153 0db8 1344     		add	r3, r3, r2
 8154 0dba 1A01     		lsls	r2, r3, #4
 8155 0dbc D31A     		subs	r3, r2, r3
 8156 0dbe 03F10902 		add	r2, r3, #9
 8157 0dc2 FB7B     		ldrb	r3, [r7, #15]	@ zero_extendqisi2
 8158 0dc4 5B00     		lsls	r3, r3, #1
 8159 0dc6 0133     		adds	r3, r3, #1
 8160 0dc8 1344     		add	r3, r3, r2
 8161 0dca 0B44     		add	r3, r3, r1
 8162 0dcc 93F88831 		ldrb	r3, [r3, #392]	@ zero_extendqisi2
 8163 0dd0 1846     		mov	r0, r3
 8164 0dd2 FFF7FEFF 		bl	TranslateSpecialFuncionDigit
 8165 0dd6 0346     		mov	r3, r0
1906:.\PrimeImpl.c ****                             (TranslateSpecialFuncionDigit(pjob->_ppump->_rxbuffer[9 + 45*index + (2
 8166              		.loc 1 1906 0
 8167 0dd8 DBB2     		uxtb	r3, r3
 8168 0dda 03F00F03 		and	r3, r3, #15
 8169 0dde DBB2     		uxtb	r3, r3
 8170 0de0 2246     		mov	r2, r4
 8171 0de2 1343     		orrs	r3, r3, r2
 8172 0de4 DBB2     		uxtb	r3, r3
 8173 0de6 DAB2     		uxtb	r2, r3
 8174 0de8 3B69     		ldr	r3, [r7, #16]
 8175 0dea 1A70     		strb	r2, [r3]
1908:.\PrimeImpl.c **** 
1909:.\PrimeImpl.c ****             //11
1910:.\PrimeImpl.c ****             ptreeprom++;
 8176              		.loc 1 1910 0
 8177 0dec 3B69     		ldr	r3, [r7, #16]
 8178 0dee 0133     		adds	r3, r3, #1
 8179 0df0 3B61     		str	r3, [r7, #16]
1911:.\PrimeImpl.c ****             blkindex++;
 8180              		.loc 1 1911 0
 8181 0df2 FB7B     		ldrb	r3, [r7, #15]	@ zero_extendqisi2
 8182 0df4 0133     		adds	r3, r3, #1
 8183 0df6 FB73     		strb	r3, [r7, #15]
1912:.\PrimeImpl.c ****             //Initial Pulses
ARM GAS  C:\Users\RECEPC~1\AppData\Local\Temp\ccNQP0pp.s 			page 179


1913:.\PrimeImpl.c ****             *ptreeprom = ((TranslateSpecialFuncionDigit(pjob->_ppump->_rxbuffer[9 + 45*index + 2*bl
 8184              		.loc 1 1913 0
 8185 0df8 BB69     		ldr	r3, [r7, #24]
 8186 0dfa D969     		ldr	r1, [r3, #28]
 8187 0dfc FA7D     		ldrb	r2, [r7, #23]	@ zero_extendqisi2
 8188 0dfe 1346     		mov	r3, r2
 8189 0e00 5B00     		lsls	r3, r3, #1
 8190 0e02 1344     		add	r3, r3, r2
 8191 0e04 1A01     		lsls	r2, r3, #4
 8192 0e06 D31A     		subs	r3, r2, r3
 8193 0e08 03F10902 		add	r2, r3, #9
 8194 0e0c FB7B     		ldrb	r3, [r7, #15]	@ zero_extendqisi2
 8195 0e0e 5B00     		lsls	r3, r3, #1
 8196 0e10 1344     		add	r3, r3, r2
 8197 0e12 0B44     		add	r3, r3, r1
 8198 0e14 93F88831 		ldrb	r3, [r3, #392]	@ zero_extendqisi2
 8199 0e18 1846     		mov	r0, r3
 8200 0e1a FFF7FEFF 		bl	TranslateSpecialFuncionDigit
 8201 0e1e 0346     		mov	r3, r0
 8202 0e20 1B01     		lsls	r3, r3, #4
 8203 0e22 DCB2     		uxtb	r4, r3
1914:.\PrimeImpl.c ****                             (TranslateSpecialFuncionDigit(pjob->_ppump->_rxbuffer[9 + 45*index + (2
 8204              		.loc 1 1914 0
 8205 0e24 BB69     		ldr	r3, [r7, #24]
 8206 0e26 D969     		ldr	r1, [r3, #28]
 8207 0e28 FA7D     		ldrb	r2, [r7, #23]	@ zero_extendqisi2
 8208 0e2a 1346     		mov	r3, r2
 8209 0e2c 5B00     		lsls	r3, r3, #1
 8210 0e2e 1344     		add	r3, r3, r2
 8211 0e30 1A01     		lsls	r2, r3, #4
 8212 0e32 D31A     		subs	r3, r2, r3
 8213 0e34 03F10902 		add	r2, r3, #9
 8214 0e38 FB7B     		ldrb	r3, [r7, #15]	@ zero_extendqisi2
 8215 0e3a 5B00     		lsls	r3, r3, #1
 8216 0e3c 0133     		adds	r3, r3, #1
 8217 0e3e 1344     		add	r3, r3, r2
 8218 0e40 0B44     		add	r3, r3, r1
 8219 0e42 93F88831 		ldrb	r3, [r3, #392]	@ zero_extendqisi2
 8220 0e46 1846     		mov	r0, r3
 8221 0e48 FFF7FEFF 		bl	TranslateSpecialFuncionDigit
 8222 0e4c 0346     		mov	r3, r0
1913:.\PrimeImpl.c ****                             (TranslateSpecialFuncionDigit(pjob->_ppump->_rxbuffer[9 + 45*index + (2
 8223              		.loc 1 1913 0
 8224 0e4e DBB2     		uxtb	r3, r3
 8225 0e50 03F00F03 		and	r3, r3, #15
 8226 0e54 DBB2     		uxtb	r3, r3
 8227 0e56 2246     		mov	r2, r4
 8228 0e58 1343     		orrs	r3, r3, r2
 8229 0e5a DBB2     		uxtb	r3, r3
 8230 0e5c DAB2     		uxtb	r2, r3
 8231 0e5e 3B69     		ldr	r3, [r7, #16]
 8232 0e60 1A70     		strb	r2, [r3]
1915:.\PrimeImpl.c **** 
1916:.\PrimeImpl.c ****             //12
1917:.\PrimeImpl.c ****             ptreeprom++;
 8233              		.loc 1 1917 0
 8234 0e62 3B69     		ldr	r3, [r7, #16]
ARM GAS  C:\Users\RECEPC~1\AppData\Local\Temp\ccNQP0pp.s 			page 180


 8235 0e64 0133     		adds	r3, r3, #1
 8236 0e66 3B61     		str	r3, [r7, #16]
1918:.\PrimeImpl.c ****             blkindex++;
 8237              		.loc 1 1918 0
 8238 0e68 FB7B     		ldrb	r3, [r7, #15]	@ zero_extendqisi2
 8239 0e6a 0133     		adds	r3, r3, #1
 8240 0e6c FB73     		strb	r3, [r7, #15]
1919:.\PrimeImpl.c ****             //Prevent Fraud On Initial Pulses
1920:.\PrimeImpl.c ****             *ptreeprom = ((TranslateSpecialFuncionDigit(pjob->_ppump->_rxbuffer[9 + 45*index + 2*bl
 8241              		.loc 1 1920 0
 8242 0e6e BB69     		ldr	r3, [r7, #24]
 8243 0e70 D969     		ldr	r1, [r3, #28]
 8244 0e72 FA7D     		ldrb	r2, [r7, #23]	@ zero_extendqisi2
 8245 0e74 1346     		mov	r3, r2
 8246 0e76 5B00     		lsls	r3, r3, #1
 8247 0e78 1344     		add	r3, r3, r2
 8248 0e7a 1A01     		lsls	r2, r3, #4
 8249 0e7c D31A     		subs	r3, r2, r3
 8250 0e7e 03F10902 		add	r2, r3, #9
 8251 0e82 FB7B     		ldrb	r3, [r7, #15]	@ zero_extendqisi2
 8252 0e84 5B00     		lsls	r3, r3, #1
 8253 0e86 1344     		add	r3, r3, r2
 8254 0e88 0B44     		add	r3, r3, r1
 8255 0e8a 93F88831 		ldrb	r3, [r3, #392]	@ zero_extendqisi2
 8256 0e8e 1846     		mov	r0, r3
 8257 0e90 FFF7FEFF 		bl	TranslateSpecialFuncionDigit
 8258 0e94 0346     		mov	r3, r0
 8259 0e96 1B01     		lsls	r3, r3, #4
 8260 0e98 DCB2     		uxtb	r4, r3
1921:.\PrimeImpl.c ****                             (TranslateSpecialFuncionDigit(pjob->_ppump->_rxbuffer[9 + 45*index + (2
 8261              		.loc 1 1921 0
 8262 0e9a BB69     		ldr	r3, [r7, #24]
 8263 0e9c D969     		ldr	r1, [r3, #28]
 8264 0e9e FA7D     		ldrb	r2, [r7, #23]	@ zero_extendqisi2
 8265 0ea0 1346     		mov	r3, r2
 8266 0ea2 5B00     		lsls	r3, r3, #1
 8267 0ea4 1344     		add	r3, r3, r2
 8268 0ea6 1A01     		lsls	r2, r3, #4
 8269 0ea8 D31A     		subs	r3, r2, r3
 8270 0eaa 03F10902 		add	r2, r3, #9
 8271 0eae FB7B     		ldrb	r3, [r7, #15]	@ zero_extendqisi2
 8272 0eb0 5B00     		lsls	r3, r3, #1
 8273 0eb2 0133     		adds	r3, r3, #1
 8274 0eb4 1344     		add	r3, r3, r2
 8275 0eb6 0B44     		add	r3, r3, r1
 8276 0eb8 93F88831 		ldrb	r3, [r3, #392]	@ zero_extendqisi2
 8277 0ebc 1846     		mov	r0, r3
 8278 0ebe FFF7FEFF 		bl	TranslateSpecialFuncionDigit
 8279 0ec2 0346     		mov	r3, r0
1920:.\PrimeImpl.c ****                             (TranslateSpecialFuncionDigit(pjob->_ppump->_rxbuffer[9 + 45*index + (2
 8280              		.loc 1 1920 0
 8281 0ec4 DBB2     		uxtb	r3, r3
 8282 0ec6 03F00F03 		and	r3, r3, #15
 8283 0eca DBB2     		uxtb	r3, r3
 8284 0ecc 2246     		mov	r2, r4
 8285 0ece 1343     		orrs	r3, r3, r2
 8286 0ed0 DBB2     		uxtb	r3, r3
ARM GAS  C:\Users\RECEPC~1\AppData\Local\Temp\ccNQP0pp.s 			page 181


 8287 0ed2 DAB2     		uxtb	r2, r3
 8288 0ed4 3B69     		ldr	r3, [r7, #16]
 8289 0ed6 1A70     		strb	r2, [r3]
1922:.\PrimeImpl.c **** 
1923:.\PrimeImpl.c ****             //13
1924:.\PrimeImpl.c ****             ptreeprom++;
 8290              		.loc 1 1924 0
 8291 0ed8 3B69     		ldr	r3, [r7, #16]
 8292 0eda 0133     		adds	r3, r3, #1
 8293 0edc 3B61     		str	r3, [r7, #16]
1925:.\PrimeImpl.c ****             blkindex++;
 8294              		.loc 1 1925 0
 8295 0ede FB7B     		ldrb	r3, [r7, #15]	@ zero_extendqisi2
 8296 0ee0 0133     		adds	r3, r3, #1
 8297 0ee2 FB73     		strb	r3, [r7, #15]
1926:.\PrimeImpl.c ****             //Prevent Fraud on Hose Timeout
1927:.\PrimeImpl.c ****             *ptreeprom = ((TranslateSpecialFuncionDigit(pjob->_ppump->_rxbuffer[9 + 45*index + 2*bl
 8298              		.loc 1 1927 0
 8299 0ee4 BB69     		ldr	r3, [r7, #24]
 8300 0ee6 D969     		ldr	r1, [r3, #28]
 8301 0ee8 FA7D     		ldrb	r2, [r7, #23]	@ zero_extendqisi2
 8302 0eea 1346     		mov	r3, r2
 8303 0eec 5B00     		lsls	r3, r3, #1
 8304 0eee 1344     		add	r3, r3, r2
 8305 0ef0 1A01     		lsls	r2, r3, #4
 8306 0ef2 D31A     		subs	r3, r2, r3
 8307 0ef4 03F10902 		add	r2, r3, #9
 8308 0ef8 FB7B     		ldrb	r3, [r7, #15]	@ zero_extendqisi2
 8309 0efa 5B00     		lsls	r3, r3, #1
 8310 0efc 1344     		add	r3, r3, r2
 8311 0efe 0B44     		add	r3, r3, r1
 8312 0f00 93F88831 		ldrb	r3, [r3, #392]	@ zero_extendqisi2
 8313 0f04 1846     		mov	r0, r3
 8314 0f06 FFF7FEFF 		bl	TranslateSpecialFuncionDigit
 8315 0f0a 0346     		mov	r3, r0
 8316 0f0c 1B01     		lsls	r3, r3, #4
 8317 0f0e DCB2     		uxtb	r4, r3
1928:.\PrimeImpl.c ****                             (TranslateSpecialFuncionDigit(pjob->_ppump->_rxbuffer[9 + 45*index + (2
 8318              		.loc 1 1928 0
 8319 0f10 BB69     		ldr	r3, [r7, #24]
 8320 0f12 D969     		ldr	r1, [r3, #28]
 8321 0f14 FA7D     		ldrb	r2, [r7, #23]	@ zero_extendqisi2
 8322 0f16 1346     		mov	r3, r2
 8323 0f18 5B00     		lsls	r3, r3, #1
 8324 0f1a 1344     		add	r3, r3, r2
 8325 0f1c 1A01     		lsls	r2, r3, #4
 8326 0f1e D31A     		subs	r3, r2, r3
 8327 0f20 03F10902 		add	r2, r3, #9
 8328 0f24 FB7B     		ldrb	r3, [r7, #15]	@ zero_extendqisi2
 8329 0f26 5B00     		lsls	r3, r3, #1
 8330 0f28 0133     		adds	r3, r3, #1
 8331 0f2a 1344     		add	r3, r3, r2
 8332 0f2c 0B44     		add	r3, r3, r1
 8333 0f2e 93F88831 		ldrb	r3, [r3, #392]	@ zero_extendqisi2
 8334 0f32 1846     		mov	r0, r3
 8335 0f34 FFF7FEFF 		bl	TranslateSpecialFuncionDigit
 8336 0f38 0346     		mov	r3, r0
ARM GAS  C:\Users\RECEPC~1\AppData\Local\Temp\ccNQP0pp.s 			page 182


1927:.\PrimeImpl.c ****                             (TranslateSpecialFuncionDigit(pjob->_ppump->_rxbuffer[9 + 45*index + (2
 8337              		.loc 1 1927 0
 8338 0f3a DBB2     		uxtb	r3, r3
 8339 0f3c 03F00F03 		and	r3, r3, #15
 8340 0f40 DBB2     		uxtb	r3, r3
 8341 0f42 2246     		mov	r2, r4
 8342 0f44 1343     		orrs	r3, r3, r2
 8343 0f46 DBB2     		uxtb	r3, r3
 8344 0f48 DAB2     		uxtb	r2, r3
 8345 0f4a 3B69     		ldr	r3, [r7, #16]
 8346 0f4c 1A70     		strb	r2, [r3]
1929:.\PrimeImpl.c **** 
1930:.\PrimeImpl.c ****             //14
1931:.\PrimeImpl.c ****             ptreeprom++;
 8347              		.loc 1 1931 0
 8348 0f4e 3B69     		ldr	r3, [r7, #16]
 8349 0f50 0133     		adds	r3, r3, #1
 8350 0f52 3B61     		str	r3, [r7, #16]
1932:.\PrimeImpl.c ****             blkindex++;
 8351              		.loc 1 1932 0
 8352 0f54 FB7B     		ldrb	r3, [r7, #15]	@ zero_extendqisi2
 8353 0f56 0133     		adds	r3, r3, #1
 8354 0f58 FB73     		strb	r3, [r7, #15]
1933:.\PrimeImpl.c ****             //Transmit Volumen Totals Rounded / Truncated
1934:.\PrimeImpl.c ****             *ptreeprom = ((TranslateSpecialFuncionDigit(pjob->_ppump->_rxbuffer[9 + 45*index + 2*bl
 8355              		.loc 1 1934 0
 8356 0f5a BB69     		ldr	r3, [r7, #24]
 8357 0f5c D969     		ldr	r1, [r3, #28]
 8358 0f5e FA7D     		ldrb	r2, [r7, #23]	@ zero_extendqisi2
 8359 0f60 1346     		mov	r3, r2
 8360 0f62 5B00     		lsls	r3, r3, #1
 8361 0f64 1344     		add	r3, r3, r2
 8362 0f66 1A01     		lsls	r2, r3, #4
 8363 0f68 D31A     		subs	r3, r2, r3
 8364 0f6a 03F10902 		add	r2, r3, #9
 8365 0f6e FB7B     		ldrb	r3, [r7, #15]	@ zero_extendqisi2
 8366 0f70 5B00     		lsls	r3, r3, #1
 8367 0f72 1344     		add	r3, r3, r2
 8368 0f74 0B44     		add	r3, r3, r1
 8369 0f76 93F88831 		ldrb	r3, [r3, #392]	@ zero_extendqisi2
 8370 0f7a 1846     		mov	r0, r3
 8371 0f7c FFF7FEFF 		bl	TranslateSpecialFuncionDigit
 8372 0f80 0346     		mov	r3, r0
 8373 0f82 1B01     		lsls	r3, r3, #4
 8374 0f84 DCB2     		uxtb	r4, r3
1935:.\PrimeImpl.c ****                             (TranslateSpecialFuncionDigit(pjob->_ppump->_rxbuffer[9 + 45*index + (2
 8375              		.loc 1 1935 0
 8376 0f86 BB69     		ldr	r3, [r7, #24]
 8377 0f88 D969     		ldr	r1, [r3, #28]
 8378 0f8a FA7D     		ldrb	r2, [r7, #23]	@ zero_extendqisi2
 8379 0f8c 1346     		mov	r3, r2
 8380 0f8e 5B00     		lsls	r3, r3, #1
 8381 0f90 1344     		add	r3, r3, r2
 8382 0f92 1A01     		lsls	r2, r3, #4
 8383 0f94 D31A     		subs	r3, r2, r3
 8384 0f96 03F10902 		add	r2, r3, #9
 8385 0f9a FB7B     		ldrb	r3, [r7, #15]	@ zero_extendqisi2
ARM GAS  C:\Users\RECEPC~1\AppData\Local\Temp\ccNQP0pp.s 			page 183


 8386 0f9c 5B00     		lsls	r3, r3, #1
 8387 0f9e 0133     		adds	r3, r3, #1
 8388 0fa0 1344     		add	r3, r3, r2
 8389 0fa2 0B44     		add	r3, r3, r1
 8390 0fa4 93F88831 		ldrb	r3, [r3, #392]	@ zero_extendqisi2
 8391 0fa8 1846     		mov	r0, r3
 8392 0faa FFF7FEFF 		bl	TranslateSpecialFuncionDigit
 8393 0fae 0346     		mov	r3, r0
1934:.\PrimeImpl.c ****                             (TranslateSpecialFuncionDigit(pjob->_ppump->_rxbuffer[9 + 45*index + (2
 8394              		.loc 1 1934 0
 8395 0fb0 DBB2     		uxtb	r3, r3
 8396 0fb2 03F00F03 		and	r3, r3, #15
 8397 0fb6 DBB2     		uxtb	r3, r3
 8398 0fb8 2246     		mov	r2, r4
 8399 0fba 1343     		orrs	r3, r3, r2
 8400 0fbc DBB2     		uxtb	r3, r3
 8401 0fbe DAB2     		uxtb	r2, r3
 8402 0fc0 3B69     		ldr	r3, [r7, #16]
 8403 0fc2 1A70     		strb	r2, [r3]
1936:.\PrimeImpl.c **** 
1937:.\PrimeImpl.c ****             //STORING BACK THE EEPROM PAGE
1938:.\PrimeImpl.c ****             StoreEepromPage(eeprompumpconfigmemorypageid);
 8404              		.loc 1 1938 0
 8405 0fc4 BB8B     		ldrh	r3, [r7, #28]
 8406 0fc6 1846     		mov	r0, r3
 8407 0fc8 FFF7FEFF 		bl	StoreEepromPage
1939:.\PrimeImpl.c ****             AcquireDispenserLayoutInformation(&GetEepromBuffer()[16]);
 8408              		.loc 1 1939 0
 8409 0fcc FFF7FEFF 		bl	GetEepromBuffer
 8410 0fd0 0346     		mov	r3, r0
 8411 0fd2 1033     		adds	r3, r3, #16
 8412 0fd4 1846     		mov	r0, r3
 8413 0fd6 FFF7FEFF 		bl	AcquireDispenserLayoutInformation
1940:.\PrimeImpl.c ****          
1941:.\PrimeImpl.c ****             _g_dispenserlayoutinfo._inconfiguration = false;
 8414              		.loc 1 1941 0
 8415 0fda 164B     		ldr	r3, .L228
 8416 0fdc 0022     		movs	r2, #0
 8417 0fde 1A70     		strb	r2, [r3]
1942:.\PrimeImpl.c ****             _ALLOCATE_SINKMESSAGE_SLOT(psinkmsg);
 8418              		.loc 1 1942 0
 8419 0fe0 FFF7FEFF 		bl	AllocateMessageSlot
 8420 0fe4 B860     		str	r0, [r7, #8]
1943:.\PrimeImpl.c ****             if(psinkmsg)
 8421              		.loc 1 1943 0
 8422 0fe6 BB68     		ldr	r3, [r7, #8]
 8423 0fe8 002B     		cmp	r3, #0
 8424 0fea 0CD0     		beq	.L224
1944:.\PrimeImpl.c ****             {
1945:.\PrimeImpl.c ****                 psinkmsg->_messageid = DISPENSER_LOAD_EEPROM_SETTINGS;
 8425              		.loc 1 1945 0
 8426 0fec BB68     		ldr	r3, [r7, #8]
 8427 0fee 0D22     		movs	r2, #13
 8428 0ff0 5A70     		strb	r2, [r3, #1]
1946:.\PrimeImpl.c ****                 psinkmsg->_messagedelay = _SINK_TIMEOUT_1S_;
 8429              		.loc 1 1946 0
 8430 0ff2 BB68     		ldr	r3, [r7, #8]
ARM GAS  C:\Users\RECEPC~1\AppData\Local\Temp\ccNQP0pp.s 			page 184


 8431 0ff4 4FF47A72 		mov	r2, #1000
 8432 0ff8 9A80     		strh	r2, [r3, #4]	@ movhi
1947:.\PrimeImpl.c ****                 psinkmsg->_messagetype = FIRSTFOUND;
 8433              		.loc 1 1947 0
 8434 0ffa BB68     		ldr	r3, [r7, #8]
 8435 0ffc 0322     		movs	r2, #3
 8436 0ffe 9A70     		strb	r2, [r3, #2]
1948:.\PrimeImpl.c ****                 psinkmsg->_messagestate = SINK_BUSY;
 8437              		.loc 1 1948 0
 8438 1000 BB68     		ldr	r3, [r7, #8]
 8439 1002 0322     		movs	r2, #3
 8440 1004 DA70     		strb	r2, [r3, #3]
 8441              	.L224:
1949:.\PrimeImpl.c ****             }
1950:.\PrimeImpl.c ****             
1951:.\PrimeImpl.c ****             _REALLOCATE_SINKMESSAGE_SLOT(psinkmsg);
 8442              		.loc 1 1951 0
 8443 1006 FFF7FEFF 		bl	AllocateMessageSlot
 8444 100a B860     		str	r0, [r7, #8]
1952:.\PrimeImpl.c ****             if(psinkmsg)
 8445              		.loc 1 1952 0
 8446 100c BB68     		ldr	r3, [r7, #8]
 8447 100e 002B     		cmp	r3, #0
 8448 1010 0CD0     		beq	.L214
1953:.\PrimeImpl.c ****             {
1954:.\PrimeImpl.c ****                 psinkmsg->_messageid = DISPENSER_CONFIGURE_PRICES;
 8449              		.loc 1 1954 0
 8450 1012 BB68     		ldr	r3, [r7, #8]
 8451 1014 1022     		movs	r2, #16
 8452 1016 5A70     		strb	r2, [r3, #1]
1955:.\PrimeImpl.c ****                 psinkmsg->_messagedelay = _SINK_TIMEOUT_2S_;
 8453              		.loc 1 1955 0
 8454 1018 BB68     		ldr	r3, [r7, #8]
 8455 101a 4FF4FA62 		mov	r2, #2000
 8456 101e 9A80     		strh	r2, [r3, #4]	@ movhi
1956:.\PrimeImpl.c ****                 psinkmsg->_messagetype = FIRSTFOUND;
 8457              		.loc 1 1956 0
 8458 1020 BB68     		ldr	r3, [r7, #8]
 8459 1022 0322     		movs	r2, #3
 8460 1024 9A70     		strb	r2, [r3, #2]
1957:.\PrimeImpl.c ****                 psinkmsg->_messagestate = SINK_BUSY;
 8461              		.loc 1 1957 0
 8462 1026 BB68     		ldr	r3, [r7, #8]
 8463 1028 0322     		movs	r2, #3
 8464 102a DA70     		strb	r2, [r3, #3]
 8465              	.L214:
 8466              	.LBE45:
 8467              	.LBE44:
1958:.\PrimeImpl.c ****             }
1959:.\PrimeImpl.c ****         }
1960:.\PrimeImpl.c ****     }
1961:.\PrimeImpl.c **** }
 8468              		.loc 1 1961 0
 8469 102c 2437     		adds	r7, r7, #36
 8470              		.cfi_def_cfa_offset 12
 8471 102e BD46     		mov	sp, r7
 8472              		.cfi_def_cfa_register 13
ARM GAS  C:\Users\RECEPC~1\AppData\Local\Temp\ccNQP0pp.s 			page 185


 8473              		@ sp needed
 8474 1030 90BD     		pop	{r4, r7, pc}
 8475              	.L229:
 8476 1032 00BF     		.align	2
 8477              	.L228:
 8478 1034 00000000 		.word	_g_dispenserlayoutinfo
 8479              		.cfi_endproc
 8480              	.LFE100:
 8481              		.size	AcquirePumpCompleteConfiguration, .-AcquirePumpCompleteConfiguration
 8482              		.section	.text.AcquireDispenserLayoutInformation,"ax",%progbits
 8483              		.align	2
 8484              		.global	AcquireDispenserLayoutInformation
 8485              		.thumb
 8486              		.thumb_func
 8487              		.type	AcquireDispenserLayoutInformation, %function
 8488              	AcquireDispenserLayoutInformation:
 8489              	.LFB101:
1962:.\PrimeImpl.c **** 
1963:.\PrimeImpl.c **** //@Created By: HIJH
1964:.\PrimeImpl.c **** //@Septembre de 2016
1965:.\PrimeImpl.c **** void AcquireDispenserLayoutInformation(LPVOID pparam)
1966:.\PrimeImpl.c **** {
 8490              		.loc 1 1966 0
 8491              		.cfi_startproc
 8492              		@ args = 0, pretend = 0, frame = 16
 8493              		@ frame_needed = 1, uses_anonymous_args = 0
 8494              		@ link register save eliminated.
 8495 0000 80B4     		push	{r7}
 8496              		.cfi_def_cfa_offset 4
 8497              		.cfi_offset 7, -4
 8498 0002 85B0     		sub	sp, sp, #20
 8499              		.cfi_def_cfa_offset 24
 8500 0004 00AF     		add	r7, sp, #0
 8501              		.cfi_def_cfa_register 7
 8502 0006 7860     		str	r0, [r7, #4]
1967:.\PrimeImpl.c ****     LPRAWPTR ptrbuff = (LPRAWPTR)pparam;
 8503              		.loc 1 1967 0
 8504 0008 7B68     		ldr	r3, [r7, #4]
 8505 000a FB60     		str	r3, [r7, #12]
1968:.\PrimeImpl.c ****     //PLEASE CHECK THE DOCUMENTATION TO UNDERSTAND THE COMPARISON VALUES
1969:.\PrimeImpl.c ****     if((ptrbuff[0x01] == 0x02) || (ptrbuff[0x01] == 0x03))//QUATTRO PUMPS
 8506              		.loc 1 1969 0
 8507 000c FB68     		ldr	r3, [r7, #12]
 8508 000e 0133     		adds	r3, r3, #1
 8509 0010 1B78     		ldrb	r3, [r3]	@ zero_extendqisi2
 8510 0012 022B     		cmp	r3, #2
 8511 0014 04D0     		beq	.L231
 8512              		.loc 1 1969 0 is_stmt 0 discriminator 1
 8513 0016 FB68     		ldr	r3, [r7, #12]
 8514 0018 0133     		adds	r3, r3, #1
 8515 001a 1B78     		ldrb	r3, [r3]	@ zero_extendqisi2
 8516 001c 032B     		cmp	r3, #3
 8517 001e 33D1     		bne	.L232
 8518              	.L231:
1970:.\PrimeImpl.c ****     {
1971:.\PrimeImpl.c ****         //FOUR SIMULTANEOUS DELIVERIES
1972:.\PrimeImpl.c ****         _g_dispenserlayoutinfo._numpositions = 0x04;
ARM GAS  C:\Users\RECEPC~1\AppData\Local\Temp\ccNQP0pp.s 			page 186


 8519              		.loc 1 1972 0 is_stmt 1
 8520 0020 6F4B     		ldr	r3, .L262
 8521 0022 0422     		movs	r2, #4
 8522 0024 9A70     		strb	r2, [r3, #2]
1973:.\PrimeImpl.c ****         switch(ptrbuff[0x00])
 8523              		.loc 1 1973 0
 8524 0026 FB68     		ldr	r3, [r7, #12]
 8525 0028 1B78     		ldrb	r3, [r3]	@ zero_extendqisi2
 8526 002a 042B     		cmp	r3, #4
 8527 002c 11D0     		beq	.L234
 8528 002e 052B     		cmp	r3, #5
 8529 0030 1CD0     		beq	.L235
 8530 0032 032B     		cmp	r3, #3
 8531 0034 00D0     		beq	.L236
1974:.\PrimeImpl.c ****         {
1975:.\PrimeImpl.c ****             case 0x03://Qudrupla
1976:.\PrimeImpl.c ****             {
1977:.\PrimeImpl.c ****                 _g_dispenserlayoutinfo._hosesposition1 = 0x01;
1978:.\PrimeImpl.c ****                 _g_dispenserlayoutinfo._hosesposition2 = 0x01;
1979:.\PrimeImpl.c ****                 _g_dispenserlayoutinfo._hosesposition3 = 0x01;
1980:.\PrimeImpl.c ****                 _g_dispenserlayoutinfo._hosesposition4 = 0x01;
1981:.\PrimeImpl.c ****                 break;
1982:.\PrimeImpl.c ****             }
1983:.\PrimeImpl.c ****             case 0x04://Sxtupla
1984:.\PrimeImpl.c ****             {
1985:.\PrimeImpl.c ****                 _g_dispenserlayoutinfo._hosesposition1 = 0x02;
1986:.\PrimeImpl.c ****                 _g_dispenserlayoutinfo._hosesposition2 = 0x02;
1987:.\PrimeImpl.c ****                 _g_dispenserlayoutinfo._hosesposition3 = 0x01;
1988:.\PrimeImpl.c ****                 _g_dispenserlayoutinfo._hosesposition4 = 0x01;
1989:.\PrimeImpl.c ****                 break;
1990:.\PrimeImpl.c ****             }
1991:.\PrimeImpl.c ****             case 0x05://ctupla
1992:.\PrimeImpl.c ****             {
1993:.\PrimeImpl.c ****                 _g_dispenserlayoutinfo._hosesposition1 = 0x02;
1994:.\PrimeImpl.c ****                 _g_dispenserlayoutinfo._hosesposition2 = 0x02;
1995:.\PrimeImpl.c ****                 _g_dispenserlayoutinfo._hosesposition3 = 0x02;
1996:.\PrimeImpl.c ****                 _g_dispenserlayoutinfo._hosesposition4 = 0x02;
1997:.\PrimeImpl.c ****                 break;
1998:.\PrimeImpl.c ****             }
1999:.\PrimeImpl.c ****         }
2000:.\PrimeImpl.c ****     }
 8532              		.loc 1 2000 0
 8533 0036 59E0     		b	.L237
 8534              	.L236:
1977:.\PrimeImpl.c ****                 _g_dispenserlayoutinfo._hosesposition2 = 0x01;
 8535              		.loc 1 1977 0
 8536 0038 694B     		ldr	r3, .L262
 8537 003a 0122     		movs	r2, #1
 8538 003c DA70     		strb	r2, [r3, #3]
1978:.\PrimeImpl.c ****                 _g_dispenserlayoutinfo._hosesposition3 = 0x01;
 8539              		.loc 1 1978 0
 8540 003e 684B     		ldr	r3, .L262
 8541 0040 0122     		movs	r2, #1
 8542 0042 1A71     		strb	r2, [r3, #4]
1979:.\PrimeImpl.c ****                 _g_dispenserlayoutinfo._hosesposition4 = 0x01;
 8543              		.loc 1 1979 0
 8544 0044 664B     		ldr	r3, .L262
ARM GAS  C:\Users\RECEPC~1\AppData\Local\Temp\ccNQP0pp.s 			page 187


 8545 0046 0122     		movs	r2, #1
 8546 0048 5A71     		strb	r2, [r3, #5]
1980:.\PrimeImpl.c ****                 break;
 8547              		.loc 1 1980 0
 8548 004a 654B     		ldr	r3, .L262
 8549 004c 0122     		movs	r2, #1
 8550 004e 9A71     		strb	r2, [r3, #6]
1981:.\PrimeImpl.c ****             }
 8551              		.loc 1 1981 0
 8552 0050 19E0     		b	.L233
 8553              	.L234:
1985:.\PrimeImpl.c ****                 _g_dispenserlayoutinfo._hosesposition2 = 0x02;
 8554              		.loc 1 1985 0
 8555 0052 634B     		ldr	r3, .L262
 8556 0054 0222     		movs	r2, #2
 8557 0056 DA70     		strb	r2, [r3, #3]
1986:.\PrimeImpl.c ****                 _g_dispenserlayoutinfo._hosesposition3 = 0x01;
 8558              		.loc 1 1986 0
 8559 0058 614B     		ldr	r3, .L262
 8560 005a 0222     		movs	r2, #2
 8561 005c 1A71     		strb	r2, [r3, #4]
1987:.\PrimeImpl.c ****                 _g_dispenserlayoutinfo._hosesposition4 = 0x01;
 8562              		.loc 1 1987 0
 8563 005e 604B     		ldr	r3, .L262
 8564 0060 0122     		movs	r2, #1
 8565 0062 5A71     		strb	r2, [r3, #5]
1988:.\PrimeImpl.c ****                 break;
 8566              		.loc 1 1988 0
 8567 0064 5E4B     		ldr	r3, .L262
 8568 0066 0122     		movs	r2, #1
 8569 0068 9A71     		strb	r2, [r3, #6]
1989:.\PrimeImpl.c ****             }
 8570              		.loc 1 1989 0
 8571 006a 0CE0     		b	.L233
 8572              	.L235:
1993:.\PrimeImpl.c ****                 _g_dispenserlayoutinfo._hosesposition2 = 0x02;
 8573              		.loc 1 1993 0
 8574 006c 5C4B     		ldr	r3, .L262
 8575 006e 0222     		movs	r2, #2
 8576 0070 DA70     		strb	r2, [r3, #3]
1994:.\PrimeImpl.c ****                 _g_dispenserlayoutinfo._hosesposition3 = 0x02;
 8577              		.loc 1 1994 0
 8578 0072 5B4B     		ldr	r3, .L262
 8579 0074 0222     		movs	r2, #2
 8580 0076 1A71     		strb	r2, [r3, #4]
1995:.\PrimeImpl.c ****                 _g_dispenserlayoutinfo._hosesposition4 = 0x02;
 8581              		.loc 1 1995 0
 8582 0078 594B     		ldr	r3, .L262
 8583 007a 0222     		movs	r2, #2
 8584 007c 5A71     		strb	r2, [r3, #5]
1996:.\PrimeImpl.c ****                 break;
 8585              		.loc 1 1996 0
 8586 007e 584B     		ldr	r3, .L262
 8587 0080 0222     		movs	r2, #2
 8588 0082 9A71     		strb	r2, [r3, #6]
1997:.\PrimeImpl.c ****             }
 8589              		.loc 1 1997 0
ARM GAS  C:\Users\RECEPC~1\AppData\Local\Temp\ccNQP0pp.s 			page 188


 8590 0084 00BF     		nop
 8591              	.L233:
 8592              		.loc 1 2000 0
 8593 0086 31E0     		b	.L237
 8594              	.L232:
2001:.\PrimeImpl.c ****     else//NORMAL PUMPS
2002:.\PrimeImpl.c ****     {
2003:.\PrimeImpl.c ****         //TWO SIMULTANEOUS DELIVERIES
2004:.\PrimeImpl.c ****         _g_dispenserlayoutinfo._numpositions = 0x02;
 8595              		.loc 1 2004 0
 8596 0088 554B     		ldr	r3, .L262
 8597 008a 0222     		movs	r2, #2
 8598 008c 9A70     		strb	r2, [r3, #2]
2005:.\PrimeImpl.c ****         switch(ptrbuff[0x00])
 8599              		.loc 1 2005 0
 8600 008e FB68     		ldr	r3, [r7, #12]
 8601 0090 1B78     		ldrb	r3, [r3]	@ zero_extendqisi2
 8602 0092 013B     		subs	r3, r3, #1
 8603 0094 042B     		cmp	r3, #4
 8604 0096 29D8     		bhi	.L237
 8605 0098 01A2     		adr	r2, .L239
 8606 009a 52F823F0 		ldr	pc, [r2, r3, lsl #2]
 8607 009e 00BF     		.p2align 2
 8608              	.L239:
 8609 00a0 B5000000 		.word	.L238+1
 8610 00a4 B5000000 		.word	.L238+1
 8611 00a8 C3000000 		.word	.L240+1
 8612 00ac D1000000 		.word	.L241+1
 8613 00b0 DF000000 		.word	.L242+1
 8614              		.p2align 1
 8615              	.L238:
2006:.\PrimeImpl.c ****         {
2007:.\PrimeImpl.c ****             case 0x01://Dual (2 Hoses  1 motor)
2008:.\PrimeImpl.c ****             case 0x02://Dupla(2 Hoses  2 motors)
2009:.\PrimeImpl.c ****             {
2010:.\PrimeImpl.c ****                 _g_dispenserlayoutinfo._hosesposition1 = 0x01;
 8616              		.loc 1 2010 0
 8617 00b4 4A4B     		ldr	r3, .L262
 8618 00b6 0122     		movs	r2, #1
 8619 00b8 DA70     		strb	r2, [r3, #3]
2011:.\PrimeImpl.c ****                 _g_dispenserlayoutinfo._hosesposition2 = 0x01;
 8620              		.loc 1 2011 0
 8621 00ba 494B     		ldr	r3, .L262
 8622 00bc 0122     		movs	r2, #1
 8623 00be 1A71     		strb	r2, [r3, #4]
2012:.\PrimeImpl.c ****                 break;
 8624              		.loc 1 2012 0
 8625 00c0 14E0     		b	.L237
 8626              	.L240:
2013:.\PrimeImpl.c ****             }
2014:.\PrimeImpl.c ****             case 0x03://Qudrupla
2015:.\PrimeImpl.c ****             {
2016:.\PrimeImpl.c ****                 _g_dispenserlayoutinfo._hosesposition1 = 0x02;
 8627              		.loc 1 2016 0
 8628 00c2 474B     		ldr	r3, .L262
 8629 00c4 0222     		movs	r2, #2
 8630 00c6 DA70     		strb	r2, [r3, #3]
ARM GAS  C:\Users\RECEPC~1\AppData\Local\Temp\ccNQP0pp.s 			page 189


2017:.\PrimeImpl.c ****                 _g_dispenserlayoutinfo._hosesposition2 = 0x02;
 8631              		.loc 1 2017 0
 8632 00c8 454B     		ldr	r3, .L262
 8633 00ca 0222     		movs	r2, #2
 8634 00cc 1A71     		strb	r2, [r3, #4]
2018:.\PrimeImpl.c ****                 break;
 8635              		.loc 1 2018 0
 8636 00ce 0DE0     		b	.L237
 8637              	.L241:
2019:.\PrimeImpl.c ****             }
2020:.\PrimeImpl.c ****             case 0x04://Sxtupla
2021:.\PrimeImpl.c ****             {
2022:.\PrimeImpl.c ****                 _g_dispenserlayoutinfo._hosesposition1 = 0x03;
 8638              		.loc 1 2022 0
 8639 00d0 434B     		ldr	r3, .L262
 8640 00d2 0322     		movs	r2, #3
 8641 00d4 DA70     		strb	r2, [r3, #3]
2023:.\PrimeImpl.c ****                 _g_dispenserlayoutinfo._hosesposition2 = 0x03;
 8642              		.loc 1 2023 0
 8643 00d6 424B     		ldr	r3, .L262
 8644 00d8 0322     		movs	r2, #3
 8645 00da 1A71     		strb	r2, [r3, #4]
2024:.\PrimeImpl.c ****                 break;
 8646              		.loc 1 2024 0
 8647 00dc 06E0     		b	.L237
 8648              	.L242:
2025:.\PrimeImpl.c ****             }
2026:.\PrimeImpl.c ****             case 0x05://ctupla
2027:.\PrimeImpl.c ****             {
2028:.\PrimeImpl.c ****                 _g_dispenserlayoutinfo._hosesposition1 = 0x04;
 8649              		.loc 1 2028 0
 8650 00de 404B     		ldr	r3, .L262
 8651 00e0 0422     		movs	r2, #4
 8652 00e2 DA70     		strb	r2, [r3, #3]
2029:.\PrimeImpl.c ****                 _g_dispenserlayoutinfo._hosesposition2 = 0x04;
 8653              		.loc 1 2029 0
 8654 00e4 3E4B     		ldr	r3, .L262
 8655 00e6 0422     		movs	r2, #4
 8656 00e8 1A71     		strb	r2, [r3, #4]
2030:.\PrimeImpl.c ****                 break;
 8657              		.loc 1 2030 0
 8658 00ea 00BF     		nop
 8659              	.L237:
2031:.\PrimeImpl.c ****             }
2032:.\PrimeImpl.c ****         }
2033:.\PrimeImpl.c ****     }
2034:.\PrimeImpl.c **** 
2035:.\PrimeImpl.c ****     _g_dispenserlayoutinfo._volumeunit = ptrbuff[0x02];
 8660              		.loc 1 2035 0
 8661 00ec FB68     		ldr	r3, [r7, #12]
 8662 00ee 9A78     		ldrb	r2, [r3, #2]	@ zero_extendqisi2
 8663 00f0 3B4B     		ldr	r3, .L262
 8664 00f2 9A72     		strb	r2, [r3, #10]
2036:.\PrimeImpl.c ****     
2037:.\PrimeImpl.c ****     //Money Decimal Points
2038:.\PrimeImpl.c ****     switch(ptrbuff[0x05])
 8665              		.loc 1 2038 0
ARM GAS  C:\Users\RECEPC~1\AppData\Local\Temp\ccNQP0pp.s 			page 190


 8666 00f4 FB68     		ldr	r3, [r7, #12]
 8667 00f6 0533     		adds	r3, r3, #5
 8668 00f8 1B78     		ldrb	r3, [r3]	@ zero_extendqisi2
 8669 00fa 013B     		subs	r3, r3, #1
 8670 00fc 032B     		cmp	r3, #3
 8671 00fe 1BD8     		bhi	.L243
 8672 0100 01A2     		adr	r2, .L245
 8673 0102 52F823F0 		ldr	pc, [r2, r3, lsl #2]
 8674 0106 00BF     		.p2align 2
 8675              	.L245:
 8676 0108 19010000 		.word	.L244+1
 8677 010c 21010000 		.word	.L246+1
 8678 0110 29010000 		.word	.L247+1
 8679 0114 31010000 		.word	.L248+1
 8680              		.p2align 1
 8681              	.L244:
2039:.\PrimeImpl.c ****     {
2040:.\PrimeImpl.c ****         case 0x01:
2041:.\PrimeImpl.c ****         _g_dispenserlayoutinfo._moneydecimals = 0;
 8682              		.loc 1 2041 0
 8683 0118 314B     		ldr	r3, .L262
 8684 011a 0022     		movs	r2, #0
 8685 011c DA71     		strb	r2, [r3, #7]
2042:.\PrimeImpl.c ****         break;
 8686              		.loc 1 2042 0
 8687 011e 0BE0     		b	.L243
 8688              	.L246:
2043:.\PrimeImpl.c ****         case 0x02:
2044:.\PrimeImpl.c ****         _g_dispenserlayoutinfo._moneydecimals = 1;
 8689              		.loc 1 2044 0
 8690 0120 2F4B     		ldr	r3, .L262
 8691 0122 0122     		movs	r2, #1
 8692 0124 DA71     		strb	r2, [r3, #7]
2045:.\PrimeImpl.c ****         break;
 8693              		.loc 1 2045 0
 8694 0126 07E0     		b	.L243
 8695              	.L247:
2046:.\PrimeImpl.c ****         case 0x03:
2047:.\PrimeImpl.c ****         _g_dispenserlayoutinfo._moneydecimals = 2;
 8696              		.loc 1 2047 0
 8697 0128 2D4B     		ldr	r3, .L262
 8698 012a 0222     		movs	r2, #2
 8699 012c DA71     		strb	r2, [r3, #7]
2048:.\PrimeImpl.c ****         break;
 8700              		.loc 1 2048 0
 8701 012e 03E0     		b	.L243
 8702              	.L248:
2049:.\PrimeImpl.c ****         case 0x04:
2050:.\PrimeImpl.c ****         _g_dispenserlayoutinfo._moneydecimals = 3;
 8703              		.loc 1 2050 0
 8704 0130 2B4B     		ldr	r3, .L262
 8705 0132 0322     		movs	r2, #3
 8706 0134 DA71     		strb	r2, [r3, #7]
2051:.\PrimeImpl.c ****         break;
 8707              		.loc 1 2051 0
 8708 0136 00BF     		nop
 8709              	.L243:
ARM GAS  C:\Users\RECEPC~1\AppData\Local\Temp\ccNQP0pp.s 			page 191


2052:.\PrimeImpl.c ****     }
2053:.\PrimeImpl.c ****     //PPU Decimal Points
2054:.\PrimeImpl.c ****     switch(ptrbuff[0x06])
 8710              		.loc 1 2054 0
 8711 0138 FB68     		ldr	r3, [r7, #12]
 8712 013a 0633     		adds	r3, r3, #6
 8713 013c 1B78     		ldrb	r3, [r3]	@ zero_extendqisi2
 8714 013e 013B     		subs	r3, r3, #1
 8715 0140 032B     		cmp	r3, #3
 8716 0142 1BD8     		bhi	.L249
 8717 0144 01A2     		adr	r2, .L251
 8718 0146 52F823F0 		ldr	pc, [r2, r3, lsl #2]
 8719 014a 00BF     		.p2align 2
 8720              	.L251:
 8721 014c 5D010000 		.word	.L250+1
 8722 0150 65010000 		.word	.L252+1
 8723 0154 6D010000 		.word	.L253+1
 8724 0158 75010000 		.word	.L254+1
 8725              		.p2align 1
 8726              	.L250:
2055:.\PrimeImpl.c ****     {
2056:.\PrimeImpl.c ****         case 0x01:
2057:.\PrimeImpl.c ****         _g_dispenserlayoutinfo._ppudecimals = 0;
 8727              		.loc 1 2057 0
 8728 015c 204B     		ldr	r3, .L262
 8729 015e 0022     		movs	r2, #0
 8730 0160 1A72     		strb	r2, [r3, #8]
2058:.\PrimeImpl.c ****         break;
 8731              		.loc 1 2058 0
 8732 0162 0BE0     		b	.L249
 8733              	.L252:
2059:.\PrimeImpl.c ****         case 0x02:
2060:.\PrimeImpl.c ****         _g_dispenserlayoutinfo._ppudecimals = 1;
 8734              		.loc 1 2060 0
 8735 0164 1E4B     		ldr	r3, .L262
 8736 0166 0122     		movs	r2, #1
 8737 0168 1A72     		strb	r2, [r3, #8]
2061:.\PrimeImpl.c ****         break;
 8738              		.loc 1 2061 0
 8739 016a 07E0     		b	.L249
 8740              	.L253:
2062:.\PrimeImpl.c ****         case 0x03:
2063:.\PrimeImpl.c ****         _g_dispenserlayoutinfo._ppudecimals = 2;
 8741              		.loc 1 2063 0
 8742 016c 1C4B     		ldr	r3, .L262
 8743 016e 0222     		movs	r2, #2
 8744 0170 1A72     		strb	r2, [r3, #8]
2064:.\PrimeImpl.c ****         break;
 8745              		.loc 1 2064 0
 8746 0172 03E0     		b	.L249
 8747              	.L254:
2065:.\PrimeImpl.c ****         case 0x04:
2066:.\PrimeImpl.c ****         _g_dispenserlayoutinfo._ppudecimals = 3;
 8748              		.loc 1 2066 0
 8749 0174 1A4B     		ldr	r3, .L262
 8750 0176 0322     		movs	r2, #3
 8751 0178 1A72     		strb	r2, [r3, #8]
ARM GAS  C:\Users\RECEPC~1\AppData\Local\Temp\ccNQP0pp.s 			page 192


2067:.\PrimeImpl.c ****         break;
 8752              		.loc 1 2067 0
 8753 017a 00BF     		nop
 8754              	.L249:
2068:.\PrimeImpl.c ****     }
2069:.\PrimeImpl.c ****     //Volume Decimal Points
2070:.\PrimeImpl.c ****     switch(ptrbuff[0x07])
 8755              		.loc 1 2070 0
 8756 017c FB68     		ldr	r3, [r7, #12]
 8757 017e 0733     		adds	r3, r3, #7
 8758 0180 1B78     		ldrb	r3, [r3]	@ zero_extendqisi2
 8759 0182 032B     		cmp	r3, #3
 8760 0184 02D0     		beq	.L256
 8761 0186 042B     		cmp	r3, #4
 8762 0188 04D0     		beq	.L257
 8763 018a 07E0     		b	.L255
 8764              	.L256:
2071:.\PrimeImpl.c ****     {
2072:.\PrimeImpl.c ****         case 0x03:
2073:.\PrimeImpl.c ****         _g_dispenserlayoutinfo._volumedecimals = 2;
 8765              		.loc 1 2073 0
 8766 018c 144B     		ldr	r3, .L262
 8767 018e 0222     		movs	r2, #2
 8768 0190 5A72     		strb	r2, [r3, #9]
2074:.\PrimeImpl.c ****         break;
 8769              		.loc 1 2074 0
 8770 0192 03E0     		b	.L255
 8771              	.L257:
2075:.\PrimeImpl.c ****         case 0x04:
2076:.\PrimeImpl.c ****         _g_dispenserlayoutinfo._volumedecimals = 3;
 8772              		.loc 1 2076 0
 8773 0194 124B     		ldr	r3, .L262
 8774 0196 0322     		movs	r2, #3
 8775 0198 5A72     		strb	r2, [r3, #9]
2077:.\PrimeImpl.c ****         break;
 8776              		.loc 1 2077 0
 8777 019a 00BF     		nop
 8778              	.L255:
2078:.\PrimeImpl.c ****     }
2079:.\PrimeImpl.c ****     
2080:.\PrimeImpl.c ****     if(ptrbuff[0x0A] == 0x00)
 8779              		.loc 1 2080 0
 8780 019c FB68     		ldr	r3, [r7, #12]
 8781 019e 0A33     		adds	r3, r3, #10
 8782 01a0 1B78     		ldrb	r3, [r3]	@ zero_extendqisi2
 8783 01a2 002B     		cmp	r3, #0
 8784 01a4 03D1     		bne	.L258
2081:.\PrimeImpl.c ****         _g_dispenserlayoutinfo._displaydigitsmode = 0x06; //6-6-4 digits (Money-Volume-PPU)
 8785              		.loc 1 2081 0
 8786 01a6 0E4B     		ldr	r3, .L262
 8787 01a8 0622     		movs	r2, #6
 8788 01aa 1A74     		strb	r2, [r3, #16]
 8789 01ac 02E0     		b	.L259
 8790              	.L258:
2082:.\PrimeImpl.c ****     else
2083:.\PrimeImpl.c ****         _g_dispenserlayoutinfo._displaydigitsmode = 0x07; //7-7-5 digits (Money-Volume-PPU)
 8791              		.loc 1 2083 0
ARM GAS  C:\Users\RECEPC~1\AppData\Local\Temp\ccNQP0pp.s 			page 193


 8792 01ae 0C4B     		ldr	r3, .L262
 8793 01b0 0722     		movs	r2, #7
 8794 01b2 1A74     		strb	r2, [r3, #16]
 8795              	.L259:
2084:.\PrimeImpl.c ****     
2085:.\PrimeImpl.c ****     
2086:.\PrimeImpl.c ****     if(ptrbuff[0x0B] == 0x00)
 8796              		.loc 1 2086 0
 8797 01b4 FB68     		ldr	r3, [r7, #12]
 8798 01b6 0B33     		adds	r3, r3, #11
 8799 01b8 1B78     		ldrb	r3, [r3]	@ zero_extendqisi2
 8800 01ba 002B     		cmp	r3, #0
 8801 01bc 05D1     		bne	.L260
2087:.\PrimeImpl.c ****         _g_dispenserlayoutinfo._pointcommadecimalmode = _POINT_AS_DECIMAL_SEPARATOR_;
 8802              		.loc 1 2087 0
 8803 01be 084A     		ldr	r2, .L262
 8804 01c0 D37C     		ldrb	r3, [r2, #19]
 8805 01c2 6FF30003 		bfc	r3, #0, #1
 8806 01c6 D374     		strb	r3, [r2, #19]
 8807 01c8 04E0     		b	.L230
 8808              	.L260:
2088:.\PrimeImpl.c ****     else
2089:.\PrimeImpl.c ****         _g_dispenserlayoutinfo._pointcommadecimalmode = _COMMA_AS_DECIMAL_SEPARATOR_;
 8809              		.loc 1 2089 0
 8810 01ca 054A     		ldr	r2, .L262
 8811 01cc D37C     		ldrb	r3, [r2, #19]
 8812 01ce 43F00103 		orr	r3, r3, #1
 8813 01d2 D374     		strb	r3, [r2, #19]
 8814              	.L230:
2090:.\PrimeImpl.c **** }
 8815              		.loc 1 2090 0
 8816 01d4 1437     		adds	r7, r7, #20
 8817              		.cfi_def_cfa_offset 4
 8818 01d6 BD46     		mov	sp, r7
 8819              		.cfi_def_cfa_register 13
 8820              		@ sp needed
 8821 01d8 5DF8047B 		ldr	r7, [sp], #4
 8822              		.cfi_restore 7
 8823              		.cfi_def_cfa_offset 0
 8824 01dc 7047     		bx	lr
 8825              	.L263:
 8826 01de 00BF     		.align	2
 8827              	.L262:
 8828 01e0 00000000 		.word	_g_dispenserlayoutinfo
 8829              		.cfi_endproc
 8830              	.LFE101:
 8831              		.size	AcquireDispenserLayoutInformation, .-AcquireDispenserLayoutInformation
 8832              		.section	.text.AcquirePumpSpecialFunctionResponseResolver,"ax",%progbits
 8833              		.align	2
 8834              		.global	AcquirePumpSpecialFunctionResponseResolver
 8835              		.thumb
 8836              		.thumb_func
 8837              		.type	AcquirePumpSpecialFunctionResponseResolver, %function
 8838              	AcquirePumpSpecialFunctionResponseResolver:
 8839              	.LFB102:
2091:.\PrimeImpl.c **** 
2092:.\PrimeImpl.c **** //@Created By: HIJH
ARM GAS  C:\Users\RECEPC~1\AppData\Local\Temp\ccNQP0pp.s 			page 194


2093:.\PrimeImpl.c **** //@Date: Septembre de 2016
2094:.\PrimeImpl.c **** //Resolves the completeness for the arriving data after the SFs invocation
2095:.\PrimeImpl.c **** bool AcquirePumpSpecialFunctionResponseResolver(void *pparam, void *pbuffer, uint16 buffersize)
2096:.\PrimeImpl.c **** {
 8840              		.loc 1 2096 0
 8841              		.cfi_startproc
 8842              		@ args = 0, pretend = 0, frame = 24
 8843              		@ frame_needed = 1, uses_anonymous_args = 0
 8844 0000 90B5     		push	{r4, r7, lr}
 8845              		.cfi_def_cfa_offset 12
 8846              		.cfi_offset 4, -12
 8847              		.cfi_offset 7, -8
 8848              		.cfi_offset 14, -4
 8849 0002 87B0     		sub	sp, sp, #28
 8850              		.cfi_def_cfa_offset 40
 8851 0004 00AF     		add	r7, sp, #0
 8852              		.cfi_def_cfa_register 7
 8853 0006 F860     		str	r0, [r7, #12]
 8854 0008 B960     		str	r1, [r7, #8]
 8855 000a 1346     		mov	r3, r2
 8856 000c FB80     		strh	r3, [r7, #6]	@ movhi
2097:.\PrimeImpl.c ****     bool retval = false;
 8857              		.loc 1 2097 0
 8858 000e 0023     		movs	r3, #0
 8859 0010 FB75     		strb	r3, [r7, #23]
2098:.\PrimeImpl.c ****     static uint8 index = 0;
2099:.\PrimeImpl.c ****     //PNEAR_PUMPPTR ppump = (PNEAR_PUMPPTR)pparam;
2100:.\PrimeImpl.c ****     //Since after the third byte we can start inquiry for the message length in words (this is acco
2101:.\PrimeImpl.c ****     //that is  the reason for the number "3"
2102:.\PrimeImpl.c ****     if((PSTRCAST(pbuffer)[0 + 45*index] == 0xBA) && buffersize >= 3)
 8860              		.loc 1 2102 0
 8861 0012 434B     		ldr	r3, .L268
 8862 0014 1B78     		ldrb	r3, [r3]	@ zero_extendqisi2
 8863 0016 1A46     		mov	r2, r3
 8864 0018 1346     		mov	r3, r2
 8865 001a 5B00     		lsls	r3, r3, #1
 8866 001c 1344     		add	r3, r3, r2
 8867 001e 1A01     		lsls	r2, r3, #4
 8868 0020 D31A     		subs	r3, r2, r3
 8869 0022 1A46     		mov	r2, r3
 8870 0024 BB68     		ldr	r3, [r7, #8]
 8871 0026 1344     		add	r3, r3, r2
 8872 0028 1B78     		ldrb	r3, [r3]	@ zero_extendqisi2
 8873 002a BA2B     		cmp	r3, #186
 8874 002c 73D1     		bne	.L265
 8875              		.loc 1 2102 0 is_stmt 0 discriminator 1
 8876 002e FB88     		ldrh	r3, [r7, #6]
 8877 0030 022B     		cmp	r3, #2
 8878 0032 70D9     		bls	.L265
 8879              	.LBB46:
2103:.\PrimeImpl.c ****     {
2104:.\PrimeImpl.c ****         //char8 buff[24];
2105:.\PrimeImpl.c ****         //memcpy(buff, PSTRCAST(pbuffer), buffersize);
2106:.\PrimeImpl.c ****         uint8 msglength = (TranslateSpecialFuncionDigit(PSTRCAST(pbuffer)[1 + 45*index]) << 0x04) |
 8880              		.loc 1 2106 0 is_stmt 1
 8881 0034 3A4B     		ldr	r3, .L268
 8882 0036 1B78     		ldrb	r3, [r3]	@ zero_extendqisi2
ARM GAS  C:\Users\RECEPC~1\AppData\Local\Temp\ccNQP0pp.s 			page 195


 8883 0038 1A46     		mov	r2, r3
 8884 003a 1346     		mov	r3, r2
 8885 003c 5B00     		lsls	r3, r3, #1
 8886 003e 1344     		add	r3, r3, r2
 8887 0040 1A01     		lsls	r2, r3, #4
 8888 0042 D31A     		subs	r3, r2, r3
 8889 0044 0133     		adds	r3, r3, #1
 8890 0046 1A46     		mov	r2, r3
 8891 0048 BB68     		ldr	r3, [r7, #8]
 8892 004a 1344     		add	r3, r3, r2
 8893 004c 1B78     		ldrb	r3, [r3]	@ zero_extendqisi2
 8894 004e 1846     		mov	r0, r3
 8895 0050 FFF7FEFF 		bl	TranslateSpecialFuncionDigit
 8896 0054 0346     		mov	r3, r0
 8897 0056 1B01     		lsls	r3, r3, #4
 8898 0058 DCB2     		uxtb	r4, r3
 8899 005a 314B     		ldr	r3, .L268
 8900 005c 1B78     		ldrb	r3, [r3]	@ zero_extendqisi2
 8901 005e 1A46     		mov	r2, r3
 8902 0060 1346     		mov	r3, r2
 8903 0062 5B00     		lsls	r3, r3, #1
 8904 0064 1344     		add	r3, r3, r2
 8905 0066 1A01     		lsls	r2, r3, #4
 8906 0068 D31A     		subs	r3, r2, r3
 8907 006a 0233     		adds	r3, r3, #2
 8908 006c 1A46     		mov	r2, r3
 8909 006e BB68     		ldr	r3, [r7, #8]
 8910 0070 1344     		add	r3, r3, r2
 8911 0072 1B78     		ldrb	r3, [r3]	@ zero_extendqisi2
 8912 0074 1846     		mov	r0, r3
 8913 0076 FFF7FEFF 		bl	TranslateSpecialFuncionDigit
 8914 007a 0346     		mov	r3, r0
 8915 007c DBB2     		uxtb	r3, r3
 8916 007e 2246     		mov	r2, r4
 8917 0080 1343     		orrs	r3, r3, r2
 8918 0082 DBB2     		uxtb	r3, r3
 8919 0084 BB75     		strb	r3, [r7, #22]
2107:.\PrimeImpl.c ****         //plus 13 since there are some fixed bytes in the frame that sum that value
2108:.\PrimeImpl.c ****         //msglength must be multiplied by 2 since this length is in words instead
2109:.\PrimeImpl.c ****         //If more than 1 block is coming then the first blocks come full which means that they carr
2110:.\PrimeImpl.c ****         //the maximum frame size which is 45 bytes (13 fixed bytes + 32 bytes for the message)
2111:.\PrimeImpl.c ****         if(buffersize >= ((2*msglength + 13) + 45*index))
 8920              		.loc 1 2111 0
 8921 0086 FA88     		ldrh	r2, [r7, #6]
 8922 0088 BB7D     		ldrb	r3, [r7, #22]	@ zero_extendqisi2
 8923 008a 5B00     		lsls	r3, r3, #1
 8924 008c 03F10D01 		add	r1, r3, #13
 8925 0090 234B     		ldr	r3, .L268
 8926 0092 1B78     		ldrb	r3, [r3]	@ zero_extendqisi2
 8927 0094 1846     		mov	r0, r3
 8928 0096 0346     		mov	r3, r0
 8929 0098 5B00     		lsls	r3, r3, #1
 8930 009a 0344     		add	r3, r3, r0
 8931 009c 1801     		lsls	r0, r3, #4
 8932 009e C31A     		subs	r3, r0, r3
 8933 00a0 0B44     		add	r3, r3, r1
 8934 00a2 9A42     		cmp	r2, r3
ARM GAS  C:\Users\RECEPC~1\AppData\Local\Temp\ccNQP0pp.s 			page 196


 8935 00a4 37DB     		blt	.L265
 8936              	.LBB47:
2112:.\PrimeImpl.c ****         {
2113:.\PrimeImpl.c ****             uint8 remblocks = (TranslateSpecialFuncionDigit(PSTRCAST(pbuffer)[7 + 45*index]) << 0x0
 8937              		.loc 1 2113 0
 8938 00a6 1E4B     		ldr	r3, .L268
 8939 00a8 1B78     		ldrb	r3, [r3]	@ zero_extendqisi2
 8940 00aa 1A46     		mov	r2, r3
 8941 00ac 1346     		mov	r3, r2
 8942 00ae 5B00     		lsls	r3, r3, #1
 8943 00b0 1344     		add	r3, r3, r2
 8944 00b2 1A01     		lsls	r2, r3, #4
 8945 00b4 D31A     		subs	r3, r2, r3
 8946 00b6 0733     		adds	r3, r3, #7
 8947 00b8 1A46     		mov	r2, r3
 8948 00ba BB68     		ldr	r3, [r7, #8]
 8949 00bc 1344     		add	r3, r3, r2
 8950 00be 1B78     		ldrb	r3, [r3]	@ zero_extendqisi2
 8951 00c0 1846     		mov	r0, r3
 8952 00c2 FFF7FEFF 		bl	TranslateSpecialFuncionDigit
 8953 00c6 0346     		mov	r3, r0
 8954 00c8 1B01     		lsls	r3, r3, #4
 8955 00ca DCB2     		uxtb	r4, r3
 8956 00cc 144B     		ldr	r3, .L268
 8957 00ce 1B78     		ldrb	r3, [r3]	@ zero_extendqisi2
 8958 00d0 1A46     		mov	r2, r3
 8959 00d2 1346     		mov	r3, r2
 8960 00d4 5B00     		lsls	r3, r3, #1
 8961 00d6 1344     		add	r3, r3, r2
 8962 00d8 1A01     		lsls	r2, r3, #4
 8963 00da D31A     		subs	r3, r2, r3
 8964 00dc 0833     		adds	r3, r3, #8
 8965 00de 1A46     		mov	r2, r3
 8966 00e0 BB68     		ldr	r3, [r7, #8]
 8967 00e2 1344     		add	r3, r3, r2
 8968 00e4 1B78     		ldrb	r3, [r3]	@ zero_extendqisi2
 8969 00e6 1846     		mov	r0, r3
 8970 00e8 FFF7FEFF 		bl	TranslateSpecialFuncionDigit
 8971 00ec 0346     		mov	r3, r0
 8972 00ee DBB2     		uxtb	r3, r3
 8973 00f0 2246     		mov	r2, r4
 8974 00f2 1343     		orrs	r3, r3, r2
 8975 00f4 DBB2     		uxtb	r3, r3
 8976 00f6 7B75     		strb	r3, [r7, #21]
2114:.\PrimeImpl.c ****             if(remblocks == 0)
 8977              		.loc 1 2114 0
 8978 00f8 7B7D     		ldrb	r3, [r7, #21]	@ zero_extendqisi2
 8979 00fa 002B     		cmp	r3, #0
 8980 00fc 05D1     		bne	.L266
2115:.\PrimeImpl.c ****             {
2116:.\PrimeImpl.c ****                 index = 0;
 8981              		.loc 1 2116 0
 8982 00fe 084B     		ldr	r3, .L268
 8983 0100 0022     		movs	r2, #0
 8984 0102 1A70     		strb	r2, [r3]
2117:.\PrimeImpl.c ****                 retval = true;
 8985              		.loc 1 2117 0
ARM GAS  C:\Users\RECEPC~1\AppData\Local\Temp\ccNQP0pp.s 			page 197


 8986 0104 0123     		movs	r3, #1
 8987 0106 FB75     		strb	r3, [r7, #23]
 8988 0108 05E0     		b	.L265
 8989              	.L266:
2118:.\PrimeImpl.c ****             }else{
2119:.\PrimeImpl.c ****                 index++;
 8990              		.loc 1 2119 0
 8991 010a 054B     		ldr	r3, .L268
 8992 010c 1B78     		ldrb	r3, [r3]	@ zero_extendqisi2
 8993 010e 0133     		adds	r3, r3, #1
 8994 0110 DAB2     		uxtb	r2, r3
 8995 0112 034B     		ldr	r3, .L268
 8996 0114 1A70     		strb	r2, [r3]
 8997              	.L265:
 8998              	.LBE47:
 8999              	.LBE46:
2120:.\PrimeImpl.c ****             }
2121:.\PrimeImpl.c ****         }
2122:.\PrimeImpl.c ****     }
2123:.\PrimeImpl.c ****     return retval;
 9000              		.loc 1 2123 0
 9001 0116 FB7D     		ldrb	r3, [r7, #23]	@ zero_extendqisi2
2124:.\PrimeImpl.c **** }
 9002              		.loc 1 2124 0
 9003 0118 1846     		mov	r0, r3
 9004 011a 1C37     		adds	r7, r7, #28
 9005              		.cfi_def_cfa_offset 12
 9006 011c BD46     		mov	sp, r7
 9007              		.cfi_def_cfa_register 13
 9008              		@ sp needed
 9009 011e 90BD     		pop	{r4, r7, pc}
 9010              	.L269:
 9011              		.align	2
 9012              	.L268:
 9013 0120 00000000 		.word	index.9618
 9014              		.cfi_endproc
 9015              	.LFE102:
 9016              		.size	AcquirePumpSpecialFunctionResponseResolver, .-AcquirePumpSpecialFunctionResponseResolver
 9017              		.section	.text.PumpEnumeratorRequest,"ax",%progbits
 9018              		.align	2
 9019              		.global	PumpEnumeratorRequest
 9020              		.thumb
 9021              		.thumb_func
 9022              		.type	PumpEnumeratorRequest, %function
 9023              	PumpEnumeratorRequest:
 9024              	.LFB103:
2125:.\PrimeImpl.c **** 
2126:.\PrimeImpl.c **** //@Created By: HIJH
2127:.\PrimeImpl.c **** //@Septembre de 2016
2128:.\PrimeImpl.c **** void PumpEnumeratorRequest(LPVOID pparam)
2129:.\PrimeImpl.c **** {
 9025              		.loc 1 2129 0
 9026              		.cfi_startproc
 9027              		@ args = 0, pretend = 0, frame = 24
 9028              		@ frame_needed = 1, uses_anonymous_args = 0
 9029 0000 80B5     		push	{r7, lr}
 9030              		.cfi_def_cfa_offset 8
ARM GAS  C:\Users\RECEPC~1\AppData\Local\Temp\ccNQP0pp.s 			page 198


 9031              		.cfi_offset 7, -8
 9032              		.cfi_offset 14, -4
 9033 0002 86B0     		sub	sp, sp, #24
 9034              		.cfi_def_cfa_offset 32
 9035 0004 00AF     		add	r7, sp, #0
 9036              		.cfi_def_cfa_register 7
 9037 0006 7860     		str	r0, [r7, #4]
2130:.\PrimeImpl.c ****     PNEAR_PUMPPTR ppump = (PNEAR_PUMPPTR)pparam;
 9038              		.loc 1 2130 0
 9039 0008 7B68     		ldr	r3, [r7, #4]
 9040 000a 7B61     		str	r3, [r7, #20]
2131:.\PrimeImpl.c ****     if(ppump)
 9041              		.loc 1 2131 0
 9042 000c 7B69     		ldr	r3, [r7, #20]
 9043 000e 002B     		cmp	r3, #0
 9044 0010 23D0     		beq	.L270
 9045              	.LBB48:
2132:.\PrimeImpl.c ****     {
2133:.\PrimeImpl.c ****         uint8_t index = 0;
 9046              		.loc 1 2133 0
 9047 0012 0023     		movs	r3, #0
 9048 0014 FB74     		strb	r3, [r7, #19]
2134:.\PrimeImpl.c ****         memset(ppump->_rxbuffer, 0x00, _PUMP_RX_BUFFER_SIZE_);
 9049              		.loc 1 2134 0
 9050 0016 7B69     		ldr	r3, [r7, #20]
 9051 0018 03F5C473 		add	r3, r3, #392
 9052 001c 1846     		mov	r0, r3
 9053 001e 0021     		movs	r1, #0
 9054 0020 4FF4B472 		mov	r2, #360
 9055 0024 FFF7FEFF 		bl	memset
2135:.\PrimeImpl.c ****         PUARTMESSAGEPTR puartdisp = GetUARTMessageSlot(UART_DISPENSER);
 9056              		.loc 1 2135 0
 9057 0028 A220     		movs	r0, #162
 9058 002a FFF7FEFF 		bl	GetUARTMessageSlot
 9059 002e F860     		str	r0, [r7, #12]
2136:.\PrimeImpl.c ****         if(puartdisp)
 9060              		.loc 1 2136 0
 9061 0030 FB68     		ldr	r3, [r7, #12]
 9062 0032 002B     		cmp	r3, #0
 9063 0034 11D0     		beq	.L270
2137:.\PrimeImpl.c ****         {
2138:.\PrimeImpl.c ****             puartdisp->_messagetx[index++] = PUMP_COMMAND(PUMP_STATE_REQUEST, ppump->_pumpid);
 9064              		.loc 1 2138 0
 9065 0036 FB7C     		ldrb	r3, [r7, #19]	@ zero_extendqisi2
 9066 0038 5A1C     		adds	r2, r3, #1
 9067 003a FA74     		strb	r2, [r7, #19]
 9068 003c 1946     		mov	r1, r3
 9069 003e 7B69     		ldr	r3, [r7, #20]
 9070 0040 1B78     		ldrb	r3, [r3]	@ zero_extendqisi2
 9071 0042 03F00F03 		and	r3, r3, #15
 9072 0046 DAB2     		uxtb	r2, r3
 9073 0048 FB68     		ldr	r3, [r7, #12]
 9074 004a 0B44     		add	r3, r3, r1
 9075 004c 1A71     		strb	r2, [r3, #4]
2139:.\PrimeImpl.c ****             puartdisp->_messagelength = 1;//One byte
 9076              		.loc 1 2139 0
 9077 004e FB68     		ldr	r3, [r7, #12]
ARM GAS  C:\Users\RECEPC~1\AppData\Local\Temp\ccNQP0pp.s 			page 199


 9078 0050 0122     		movs	r2, #1
 9079 0052 5A80     		strh	r2, [r3, #2]	@ movhi
2140:.\PrimeImpl.c ****             puartdisp->_messagestate = PENDING;
 9080              		.loc 1 2140 0
 9081 0054 FB68     		ldr	r3, [r7, #12]
 9082 0056 C222     		movs	r2, #194
 9083 0058 1A70     		strb	r2, [r3]
 9084              	.L270:
 9085              	.LBE48:
2141:.\PrimeImpl.c ****         }
2142:.\PrimeImpl.c ****     }
2143:.\PrimeImpl.c **** }
 9086              		.loc 1 2143 0
 9087 005a 1837     		adds	r7, r7, #24
 9088              		.cfi_def_cfa_offset 8
 9089 005c BD46     		mov	sp, r7
 9090              		.cfi_def_cfa_register 13
 9091              		@ sp needed
 9092 005e 80BD     		pop	{r7, pc}
 9093              		.cfi_endproc
 9094              	.LFE103:
 9095              		.size	PumpEnumeratorRequest, .-PumpEnumeratorRequest
 9096              		.section	.text.AcquirePumpEnumeratorResponse,"ax",%progbits
 9097              		.align	2
 9098              		.global	AcquirePumpEnumeratorResponse
 9099              		.thumb
 9100              		.thumb_func
 9101              		.type	AcquirePumpEnumeratorResponse, %function
 9102              	AcquirePumpEnumeratorResponse:
 9103              	.LFB104:
2144:.\PrimeImpl.c **** 
2145:.\PrimeImpl.c **** //@Created By: HIJH
2146:.\PrimeImpl.c **** //@Septembre de 2016
2147:.\PrimeImpl.c **** void AcquirePumpEnumeratorResponse(LPVOID pparam)
2148:.\PrimeImpl.c **** {
 9104              		.loc 1 2148 0
 9105              		.cfi_startproc
 9106              		@ args = 0, pretend = 0, frame = 24
 9107              		@ frame_needed = 1, uses_anonymous_args = 0
 9108 0000 80B5     		push	{r7, lr}
 9109              		.cfi_def_cfa_offset 8
 9110              		.cfi_offset 7, -8
 9111              		.cfi_offset 14, -4
 9112 0002 86B0     		sub	sp, sp, #24
 9113              		.cfi_def_cfa_offset 32
 9114 0004 00AF     		add	r7, sp, #0
 9115              		.cfi_def_cfa_register 7
 9116 0006 7860     		str	r0, [r7, #4]
2149:.\PrimeImpl.c ****     AcquirePumpStateResponse(pparam);
 9117              		.loc 1 2149 0
 9118 0008 7868     		ldr	r0, [r7, #4]
 9119 000a FFF7FEFF 		bl	AcquirePumpStateResponse
2150:.\PrimeImpl.c ****     PPUMPTRANSACTIONJOBCONTEXTPTR pjob = (PPUMPTRANSACTIONJOBCONTEXTPTR)pparam;
 9120              		.loc 1 2150 0
 9121 000e 7B68     		ldr	r3, [r7, #4]
 9122 0010 7B61     		str	r3, [r7, #20]
2151:.\PrimeImpl.c ****     if(pjob->_ppump->_datacontainer._var0 < 0xF)
ARM GAS  C:\Users\RECEPC~1\AppData\Local\Temp\ccNQP0pp.s 			page 200


 9123              		.loc 1 2151 0
 9124 0012 7B69     		ldr	r3, [r7, #20]
 9125 0014 DB69     		ldr	r3, [r3, #28]
 9126 0016 93F83039 		ldrb	r3, [r3, #2352]
 9127 001a DBB2     		uxtb	r3, r3
 9128 001c 0E2B     		cmp	r3, #14
 9129 001e 00F2FA80 		bhi	.L273
2152:.\PrimeImpl.c ****     {
2153:.\PrimeImpl.c ****         switch(pjob->_ppump->_datacontainer._var1)
 9130              		.loc 1 2153 0
 9131 0022 7B69     		ldr	r3, [r7, #20]
 9132 0024 DB69     		ldr	r3, [r3, #28]
 9133 0026 93F83139 		ldrb	r3, [r3, #2353]
 9134 002a DBB2     		uxtb	r3, r3
 9135 002c 032B     		cmp	r3, #3
 9136 002e 00F2C580 		bhi	.L274
 9137 0032 01A2     		adr	r2, .L276
 9138 0034 52F823F0 		ldr	pc, [r2, r3, lsl #2]
 9139              		.p2align 2
 9140              	.L276:
 9141 0038 49000000 		.word	.L275+1
 9142 003c B5000000 		.word	.L277+1
 9143 0040 21010000 		.word	.L278+1
 9144 0044 8D010000 		.word	.L279+1
 9145              		.p2align 1
 9146              	.L275:
 9147              	.LBB49:
2154:.\PrimeImpl.c ****         {
2155:.\PrimeImpl.c ****             case 0:
2156:.\PrimeImpl.c ****             {
2157:.\PrimeImpl.c ****                 
2158:.\PrimeImpl.c ****                 ClearEepromBuffer();
 9148              		.loc 1 2158 0
 9149 0048 FFF7FEFF 		bl	ClearEepromBuffer
2159:.\PrimeImpl.c ****                 //Cleanup of the pump identifier in order to start the enumeration procedure
2160:.\PrimeImpl.c ****                 LoadEepromPage(EEPROM_DISPENSER_PUMP1_LAYOUT_PAGE);
 9150              		.loc 1 2160 0
 9151 004c 4FF40070 		mov	r0, #512
 9152 0050 FFF7FEFF 		bl	LoadEepromPage
2161:.\PrimeImpl.c ****                 GetEepromBuffer()[0] = pjob->_ppump->_pumpid;
 9153              		.loc 1 2161 0
 9154 0054 FFF7FEFF 		bl	GetEepromBuffer
 9155 0058 0246     		mov	r2, r0
 9156 005a 7B69     		ldr	r3, [r7, #20]
 9157 005c DB69     		ldr	r3, [r3, #28]
 9158 005e 1B78     		ldrb	r3, [r3]	@ zero_extendqisi2
 9159 0060 1370     		strb	r3, [r2]
2162:.\PrimeImpl.c ****                 StoreEepromPage(EEPROM_DISPENSER_PUMP1_LAYOUT_PAGE);
 9160              		.loc 1 2162 0
 9161 0062 4FF40070 		mov	r0, #512
 9162 0066 FFF7FEFF 		bl	StoreEepromPage
2163:.\PrimeImpl.c **** 
2164:.\PrimeImpl.c ****                 uint8 var0 = pjob->_ppump->_datacontainer._var0;
 9163              		.loc 1 2164 0
 9164 006a 7B69     		ldr	r3, [r7, #20]
 9165 006c DB69     		ldr	r3, [r3, #28]
 9166 006e 93F83039 		ldrb	r3, [r3, #2352]
ARM GAS  C:\Users\RECEPC~1\AppData\Local\Temp\ccNQP0pp.s 			page 201


 9167 0072 FB74     		strb	r3, [r7, #19]
2165:.\PrimeImpl.c ****                 uint8 var1 = pjob->_ppump->_datacontainer._var1;
 9168              		.loc 1 2165 0
 9169 0074 7B69     		ldr	r3, [r7, #20]
 9170 0076 DB69     		ldr	r3, [r3, #28]
 9171 0078 93F83139 		ldrb	r3, [r3, #2353]
 9172 007c BB74     		strb	r3, [r7, #18]
2166:.\PrimeImpl.c ****                 pjob->_ppump = &_g_pumps[var1 + 1];
 9173              		.loc 1 2166 0
 9174 007e BB7C     		ldrb	r3, [r7, #18]	@ zero_extendqisi2
 9175 0080 0133     		adds	r3, r3, #1
 9176 0082 4FF41962 		mov	r2, #2448
 9177 0086 02FB03F3 		mul	r3, r2, r3
 9178 008a 694A     		ldr	r2, .L283
 9179 008c 1A44     		add	r2, r2, r3
 9180 008e 7B69     		ldr	r3, [r7, #20]
 9181 0090 DA61     		str	r2, [r3, #28]
2167:.\PrimeImpl.c ****                 pjob->_ppump->_datacontainer._var1 = var1;
 9182              		.loc 1 2167 0
 9183 0092 7B69     		ldr	r3, [r7, #20]
 9184 0094 DB69     		ldr	r3, [r3, #28]
 9185 0096 BA7C     		ldrb	r2, [r7, #18]
 9186 0098 83F83129 		strb	r2, [r3, #2353]
2168:.\PrimeImpl.c ****                 pjob->_ppump->_datacontainer._var0 = var0;
 9187              		.loc 1 2168 0
 9188 009c 7B69     		ldr	r3, [r7, #20]
 9189 009e DB69     		ldr	r3, [r3, #28]
 9190 00a0 FA7C     		ldrb	r2, [r7, #19]
 9191 00a2 83F83029 		strb	r2, [r3, #2352]
2169:.\PrimeImpl.c ****                 _g_dispenserlayoutinfo._numpositions++;
 9192              		.loc 1 2169 0
 9193 00a6 634B     		ldr	r3, .L283+4
 9194 00a8 9B78     		ldrb	r3, [r3, #2]	@ zero_extendqisi2
 9195 00aa 0133     		adds	r3, r3, #1
 9196 00ac DAB2     		uxtb	r2, r3
 9197 00ae 614B     		ldr	r3, .L283+4
 9198 00b0 9A70     		strb	r2, [r3, #2]
2170:.\PrimeImpl.c ****                 
2171:.\PrimeImpl.c ****                 break;
 9199              		.loc 1 2171 0
 9200 00b2 83E0     		b	.L274
 9201              	.L277:
 9202              	.LBE49:
 9203              	.LBB50:
2172:.\PrimeImpl.c ****             }
2173:.\PrimeImpl.c ****             case 1:
2174:.\PrimeImpl.c ****             {
2175:.\PrimeImpl.c ****                 
2176:.\PrimeImpl.c ****                 ClearEepromBuffer();
 9204              		.loc 1 2176 0
 9205 00b4 FFF7FEFF 		bl	ClearEepromBuffer
2177:.\PrimeImpl.c ****                 //Cleanup of the pump identifier in order to start the enumeration procedure
2178:.\PrimeImpl.c ****                 LoadEepromPage(EEPROM_DISPENSER_PUMP2_LAYOUT_PAGE);
 9206              		.loc 1 2178 0
 9207 00b8 4FF41070 		mov	r0, #576
 9208 00bc FFF7FEFF 		bl	LoadEepromPage
2179:.\PrimeImpl.c ****                 GetEepromBuffer()[0] = pjob->_ppump->_pumpid;
ARM GAS  C:\Users\RECEPC~1\AppData\Local\Temp\ccNQP0pp.s 			page 202


 9209              		.loc 1 2179 0
 9210 00c0 FFF7FEFF 		bl	GetEepromBuffer
 9211 00c4 0246     		mov	r2, r0
 9212 00c6 7B69     		ldr	r3, [r7, #20]
 9213 00c8 DB69     		ldr	r3, [r3, #28]
 9214 00ca 1B78     		ldrb	r3, [r3]	@ zero_extendqisi2
 9215 00cc 1370     		strb	r3, [r2]
2180:.\PrimeImpl.c ****                 StoreEepromPage(EEPROM_DISPENSER_PUMP2_LAYOUT_PAGE);
 9216              		.loc 1 2180 0
 9217 00ce 4FF41070 		mov	r0, #576
 9218 00d2 FFF7FEFF 		bl	StoreEepromPage
2181:.\PrimeImpl.c ****                 
2182:.\PrimeImpl.c ****                 uint8 var0 = pjob->_ppump->_datacontainer._var0;
 9219              		.loc 1 2182 0
 9220 00d6 7B69     		ldr	r3, [r7, #20]
 9221 00d8 DB69     		ldr	r3, [r3, #28]
 9222 00da 93F83039 		ldrb	r3, [r3, #2352]
 9223 00de 7B74     		strb	r3, [r7, #17]
2183:.\PrimeImpl.c ****                 uint8 var1 = pjob->_ppump->_datacontainer._var1;
 9224              		.loc 1 2183 0
 9225 00e0 7B69     		ldr	r3, [r7, #20]
 9226 00e2 DB69     		ldr	r3, [r3, #28]
 9227 00e4 93F83139 		ldrb	r3, [r3, #2353]
 9228 00e8 3B74     		strb	r3, [r7, #16]
2184:.\PrimeImpl.c ****                 pjob->_ppump = &_g_pumps[var1 + 1];
 9229              		.loc 1 2184 0
 9230 00ea 3B7C     		ldrb	r3, [r7, #16]	@ zero_extendqisi2
 9231 00ec 0133     		adds	r3, r3, #1
 9232 00ee 4FF41962 		mov	r2, #2448
 9233 00f2 02FB03F3 		mul	r3, r2, r3
 9234 00f6 4E4A     		ldr	r2, .L283
 9235 00f8 1A44     		add	r2, r2, r3
 9236 00fa 7B69     		ldr	r3, [r7, #20]
 9237 00fc DA61     		str	r2, [r3, #28]
2185:.\PrimeImpl.c ****                 pjob->_ppump->_datacontainer._var1 = var1;
 9238              		.loc 1 2185 0
 9239 00fe 7B69     		ldr	r3, [r7, #20]
 9240 0100 DB69     		ldr	r3, [r3, #28]
 9241 0102 3A7C     		ldrb	r2, [r7, #16]
 9242 0104 83F83129 		strb	r2, [r3, #2353]
2186:.\PrimeImpl.c ****                 pjob->_ppump->_datacontainer._var0 = var0;
 9243              		.loc 1 2186 0
 9244 0108 7B69     		ldr	r3, [r7, #20]
 9245 010a DB69     		ldr	r3, [r3, #28]
 9246 010c 7A7C     		ldrb	r2, [r7, #17]
 9247 010e 83F83029 		strb	r2, [r3, #2352]
2187:.\PrimeImpl.c ****                 _g_dispenserlayoutinfo._numpositions++;
 9248              		.loc 1 2187 0
 9249 0112 484B     		ldr	r3, .L283+4
 9250 0114 9B78     		ldrb	r3, [r3, #2]	@ zero_extendqisi2
 9251 0116 0133     		adds	r3, r3, #1
 9252 0118 DAB2     		uxtb	r2, r3
 9253 011a 464B     		ldr	r3, .L283+4
 9254 011c 9A70     		strb	r2, [r3, #2]
2188:.\PrimeImpl.c ****                 
2189:.\PrimeImpl.c ****                 break;
 9255              		.loc 1 2189 0
ARM GAS  C:\Users\RECEPC~1\AppData\Local\Temp\ccNQP0pp.s 			page 203


 9256 011e 4DE0     		b	.L274
 9257              	.L278:
 9258              	.LBE50:
 9259              	.LBB51:
2190:.\PrimeImpl.c ****             }
2191:.\PrimeImpl.c ****             case 2:
2192:.\PrimeImpl.c ****             {
2193:.\PrimeImpl.c ****                 
2194:.\PrimeImpl.c ****                 ClearEepromBuffer();
 9260              		.loc 1 2194 0
 9261 0120 FFF7FEFF 		bl	ClearEepromBuffer
2195:.\PrimeImpl.c ****                 //Cleanup of the pump identifier in order to start the enumeration procedure
2196:.\PrimeImpl.c ****                 LoadEepromPage(EEPROM_DISPENSER_PUMP3_LAYOUT_PAGE);
 9262              		.loc 1 2196 0
 9263 0124 4FF42070 		mov	r0, #640
 9264 0128 FFF7FEFF 		bl	LoadEepromPage
2197:.\PrimeImpl.c ****                 GetEepromBuffer()[0] = pjob->_ppump->_pumpid;
 9265              		.loc 1 2197 0
 9266 012c FFF7FEFF 		bl	GetEepromBuffer
 9267 0130 0246     		mov	r2, r0
 9268 0132 7B69     		ldr	r3, [r7, #20]
 9269 0134 DB69     		ldr	r3, [r3, #28]
 9270 0136 1B78     		ldrb	r3, [r3]	@ zero_extendqisi2
 9271 0138 1370     		strb	r3, [r2]
2198:.\PrimeImpl.c ****                 StoreEepromPage(EEPROM_DISPENSER_PUMP3_LAYOUT_PAGE);
 9272              		.loc 1 2198 0
 9273 013a 4FF42070 		mov	r0, #640
 9274 013e FFF7FEFF 		bl	StoreEepromPage
2199:.\PrimeImpl.c ****                 
2200:.\PrimeImpl.c ****                 uint8 var0 = pjob->_ppump->_datacontainer._var0;
 9275              		.loc 1 2200 0
 9276 0142 7B69     		ldr	r3, [r7, #20]
 9277 0144 DB69     		ldr	r3, [r3, #28]
 9278 0146 93F83039 		ldrb	r3, [r3, #2352]
 9279 014a FB73     		strb	r3, [r7, #15]
2201:.\PrimeImpl.c ****                 uint8 var1 = pjob->_ppump->_datacontainer._var1;
 9280              		.loc 1 2201 0
 9281 014c 7B69     		ldr	r3, [r7, #20]
 9282 014e DB69     		ldr	r3, [r3, #28]
 9283 0150 93F83139 		ldrb	r3, [r3, #2353]
 9284 0154 BB73     		strb	r3, [r7, #14]
2202:.\PrimeImpl.c ****                 pjob->_ppump = &_g_pumps[var1 + 1];
 9285              		.loc 1 2202 0
 9286 0156 BB7B     		ldrb	r3, [r7, #14]	@ zero_extendqisi2
 9287 0158 0133     		adds	r3, r3, #1
 9288 015a 4FF41962 		mov	r2, #2448
 9289 015e 02FB03F3 		mul	r3, r2, r3
 9290 0162 334A     		ldr	r2, .L283
 9291 0164 1A44     		add	r2, r2, r3
 9292 0166 7B69     		ldr	r3, [r7, #20]
 9293 0168 DA61     		str	r2, [r3, #28]
2203:.\PrimeImpl.c ****                 pjob->_ppump->_datacontainer._var1 = var1;
 9294              		.loc 1 2203 0
 9295 016a 7B69     		ldr	r3, [r7, #20]
 9296 016c DB69     		ldr	r3, [r3, #28]
 9297 016e BA7B     		ldrb	r2, [r7, #14]
 9298 0170 83F83129 		strb	r2, [r3, #2353]
ARM GAS  C:\Users\RECEPC~1\AppData\Local\Temp\ccNQP0pp.s 			page 204


2204:.\PrimeImpl.c ****                 pjob->_ppump->_datacontainer._var0 = var0;
 9299              		.loc 1 2204 0
 9300 0174 7B69     		ldr	r3, [r7, #20]
 9301 0176 DB69     		ldr	r3, [r3, #28]
 9302 0178 FA7B     		ldrb	r2, [r7, #15]
 9303 017a 83F83029 		strb	r2, [r3, #2352]
2205:.\PrimeImpl.c ****                 _g_dispenserlayoutinfo._numpositions++;
 9304              		.loc 1 2205 0
 9305 017e 2D4B     		ldr	r3, .L283+4
 9306 0180 9B78     		ldrb	r3, [r3, #2]	@ zero_extendqisi2
 9307 0182 0133     		adds	r3, r3, #1
 9308 0184 DAB2     		uxtb	r2, r3
 9309 0186 2B4B     		ldr	r3, .L283+4
 9310 0188 9A70     		strb	r2, [r3, #2]
2206:.\PrimeImpl.c ****                 
2207:.\PrimeImpl.c ****                 break;
 9311              		.loc 1 2207 0
 9312 018a 17E0     		b	.L274
 9313              	.L279:
 9314              	.LBE51:
2208:.\PrimeImpl.c ****             }
2209:.\PrimeImpl.c ****             case 3:
2210:.\PrimeImpl.c ****             {
2211:.\PrimeImpl.c ****                 
2212:.\PrimeImpl.c ****                 ClearEepromBuffer();
 9315              		.loc 1 2212 0
 9316 018c FFF7FEFF 		bl	ClearEepromBuffer
2213:.\PrimeImpl.c ****                 //Cleanup of the pump identifier in order to start the enumeration procedure
2214:.\PrimeImpl.c ****                 LoadEepromPage(EEPROM_DISPENSER_PUMP4_LAYOUT_PAGE);
 9317              		.loc 1 2214 0
 9318 0190 4FF43070 		mov	r0, #704
 9319 0194 FFF7FEFF 		bl	LoadEepromPage
2215:.\PrimeImpl.c ****                 GetEepromBuffer()[0] = pjob->_ppump->_pumpid;                
 9320              		.loc 1 2215 0
 9321 0198 FFF7FEFF 		bl	GetEepromBuffer
 9322 019c 0246     		mov	r2, r0
 9323 019e 7B69     		ldr	r3, [r7, #20]
 9324 01a0 DB69     		ldr	r3, [r3, #28]
 9325 01a2 1B78     		ldrb	r3, [r3]	@ zero_extendqisi2
 9326 01a4 1370     		strb	r3, [r2]
2216:.\PrimeImpl.c ****                 StoreEepromPage(EEPROM_DISPENSER_PUMP4_LAYOUT_PAGE);
 9327              		.loc 1 2216 0
 9328 01a6 4FF43070 		mov	r0, #704
 9329 01aa FFF7FEFF 		bl	StoreEepromPage
2217:.\PrimeImpl.c ****                 _g_dispenserlayoutinfo._numpositions++;
 9330              		.loc 1 2217 0
 9331 01ae 214B     		ldr	r3, .L283+4
 9332 01b0 9B78     		ldrb	r3, [r3, #2]	@ zero_extendqisi2
 9333 01b2 0133     		adds	r3, r3, #1
 9334 01b4 DAB2     		uxtb	r2, r3
 9335 01b6 1F4B     		ldr	r3, .L283+4
 9336 01b8 9A70     		strb	r2, [r3, #2]
2218:.\PrimeImpl.c ****                 
2219:.\PrimeImpl.c ****                 break;
 9337              		.loc 1 2219 0
 9338 01ba 00BF     		nop
 9339              	.L274:
ARM GAS  C:\Users\RECEPC~1\AppData\Local\Temp\ccNQP0pp.s 			page 205


2220:.\PrimeImpl.c ****             }
2221:.\PrimeImpl.c ****         }
2222:.\PrimeImpl.c ****         pjob->_ppump->_datacontainer._var1++;
 9340              		.loc 1 2222 0
 9341 01bc 7B69     		ldr	r3, [r7, #20]
 9342 01be DB69     		ldr	r3, [r3, #28]
 9343 01c0 93F83129 		ldrb	r2, [r3, #2353]
 9344 01c4 D2B2     		uxtb	r2, r2
 9345 01c6 0132     		adds	r2, r2, #1
 9346 01c8 D2B2     		uxtb	r2, r2
 9347 01ca 83F83129 		strb	r2, [r3, #2353]
2223:.\PrimeImpl.c ****         if(pjob->_ppump->_datacontainer._var1 < _MAX_NUMBER_OF_PUMPS_)
 9348              		.loc 1 2223 0
 9349 01ce 7B69     		ldr	r3, [r7, #20]
 9350 01d0 DB69     		ldr	r3, [r3, #28]
 9351 01d2 93F83139 		ldrb	r3, [r3, #2353]
 9352 01d6 DBB2     		uxtb	r3, r3
 9353 01d8 032B     		cmp	r3, #3
 9354 01da 11D8     		bhi	.L280
2224:.\PrimeImpl.c ****         {
2225:.\PrimeImpl.c ****             pjob->_ppump->_datacontainer._var0++;
 9355              		.loc 1 2225 0
 9356 01dc 7B69     		ldr	r3, [r7, #20]
 9357 01de DB69     		ldr	r3, [r3, #28]
 9358 01e0 93F83029 		ldrb	r2, [r3, #2352]
 9359 01e4 D2B2     		uxtb	r2, r2
 9360 01e6 0132     		adds	r2, r2, #1
 9361 01e8 D2B2     		uxtb	r2, r2
 9362 01ea 83F83029 		strb	r2, [r3, #2352]
2226:.\PrimeImpl.c ****             pjob->_ppump->_pumpid = pjob->_ppump->_datacontainer._var0;
 9363              		.loc 1 2226 0
 9364 01ee 7B69     		ldr	r3, [r7, #20]
 9365 01f0 DB69     		ldr	r3, [r3, #28]
 9366 01f2 7A69     		ldr	r2, [r7, #20]
 9367 01f4 D269     		ldr	r2, [r2, #28]
 9368 01f6 92F83029 		ldrb	r2, [r2, #2352]
 9369 01fa D2B2     		uxtb	r2, r2
 9370 01fc 1A70     		strb	r2, [r3]
 9371 01fe 14E0     		b	.L272
 9372              	.L280:
2227:.\PrimeImpl.c ****         }else{
2228:.\PrimeImpl.c ****             pjob->_reenqueue = false;
 9373              		.loc 1 2228 0
 9374 0200 7B69     		ldr	r3, [r7, #20]
 9375 0202 0022     		movs	r2, #0
 9376 0204 1A70     		strb	r2, [r3]
2229:.\PrimeImpl.c ****             
2230:.\PrimeImpl.c ****             //Chance for any extra initialization
2231:.\PrimeImpl.c ****             if(_g_ptractprogramming == PNEAR_NULLPTR)
 9377              		.loc 1 2231 0
 9378 0206 0C4B     		ldr	r3, .L283+8
 9379 0208 1B68     		ldr	r3, [r3]
 9380 020a 002B     		cmp	r3, #0
 9381 020c 0DD1     		bne	.L272
2232:.\PrimeImpl.c ****                 _g_ptractprogramming = PrimeActivateProgramming;
 9382              		.loc 1 2232 0
 9383 020e 0A4B     		ldr	r3, .L283+8
ARM GAS  C:\Users\RECEPC~1\AppData\Local\Temp\ccNQP0pp.s 			page 206


 9384 0210 0A4A     		ldr	r2, .L283+12
 9385 0212 1A60     		str	r2, [r3]
 9386 0214 09E0     		b	.L272
 9387              	.L273:
2233:.\PrimeImpl.c ****         }
2234:.\PrimeImpl.c ****         
2235:.\PrimeImpl.c ****     }else{
2236:.\PrimeImpl.c ****         pjob->_reenqueue = false;
 9388              		.loc 1 2236 0
 9389 0216 7B69     		ldr	r3, [r7, #20]
 9390 0218 0022     		movs	r2, #0
 9391 021a 1A70     		strb	r2, [r3]
2237:.\PrimeImpl.c ****         
2238:.\PrimeImpl.c ****         //Chance for any extra initialization
2239:.\PrimeImpl.c ****         if(_g_ptractprogramming == PNEAR_NULLPTR)
 9392              		.loc 1 2239 0
 9393 021c 064B     		ldr	r3, .L283+8
 9394 021e 1B68     		ldr	r3, [r3]
 9395 0220 002B     		cmp	r3, #0
 9396 0222 02D1     		bne	.L272
2240:.\PrimeImpl.c ****             _g_ptractprogramming = PrimeActivateProgramming;
 9397              		.loc 1 2240 0
 9398 0224 044B     		ldr	r3, .L283+8
 9399 0226 054A     		ldr	r2, .L283+12
 9400 0228 1A60     		str	r2, [r3]
 9401              	.L272:
2241:.\PrimeImpl.c ****     }
2242:.\PrimeImpl.c **** }
 9402              		.loc 1 2242 0
 9403 022a 1837     		adds	r7, r7, #24
 9404              		.cfi_def_cfa_offset 8
 9405 022c BD46     		mov	sp, r7
 9406              		.cfi_def_cfa_register 13
 9407              		@ sp needed
 9408 022e 80BD     		pop	{r7, pc}
 9409              	.L284:
 9410              		.align	2
 9411              	.L283:
 9412 0230 00000000 		.word	_g_pumps
 9413 0234 00000000 		.word	_g_dispenserlayoutinfo
 9414 0238 00000000 		.word	_g_ptractprogramming
 9415 023c 00000000 		.word	PrimeActivateProgramming
 9416              		.cfi_endproc
 9417              	.LFE104:
 9418              		.size	AcquirePumpEnumeratorResponse, .-AcquirePumpEnumeratorResponse
 9419              		.section	.text.PumpEnumeratorTimeout,"ax",%progbits
 9420              		.align	2
 9421              		.global	PumpEnumeratorTimeout
 9422              		.thumb
 9423              		.thumb_func
 9424              		.type	PumpEnumeratorTimeout, %function
 9425              	PumpEnumeratorTimeout:
 9426              	.LFB105:
2243:.\PrimeImpl.c **** 
2244:.\PrimeImpl.c **** //@Created By: HIJH
2245:.\PrimeImpl.c **** //@Septembre de 2016
2246:.\PrimeImpl.c **** void PumpEnumeratorTimeout(void *pparam)
ARM GAS  C:\Users\RECEPC~1\AppData\Local\Temp\ccNQP0pp.s 			page 207


2247:.\PrimeImpl.c **** {
 9427              		.loc 1 2247 0
 9428              		.cfi_startproc
 9429              		@ args = 0, pretend = 0, frame = 16
 9430              		@ frame_needed = 1, uses_anonymous_args = 0
 9431              		@ link register save eliminated.
 9432 0000 80B4     		push	{r7}
 9433              		.cfi_def_cfa_offset 4
 9434              		.cfi_offset 7, -4
 9435 0002 85B0     		sub	sp, sp, #20
 9436              		.cfi_def_cfa_offset 24
 9437 0004 00AF     		add	r7, sp, #0
 9438              		.cfi_def_cfa_register 7
 9439 0006 7860     		str	r0, [r7, #4]
2248:.\PrimeImpl.c ****     PPUMPTRANSACTIONJOBCONTEXTPTR pjob = (PPUMPTRANSACTIONJOBCONTEXTPTR)pparam;
 9440              		.loc 1 2248 0
 9441 0008 7B68     		ldr	r3, [r7, #4]
 9442 000a FB60     		str	r3, [r7, #12]
2249:.\PrimeImpl.c ****     //_var0 holds the iterator index that goes from 0x0:pump16 to 0xF:pump15
2250:.\PrimeImpl.c ****     if(pjob->_ppump->_datacontainer._var0 < 0x10)
 9443              		.loc 1 2250 0
 9444 000c FB68     		ldr	r3, [r7, #12]
 9445 000e DB69     		ldr	r3, [r3, #28]
 9446 0010 93F83039 		ldrb	r3, [r3, #2352]
 9447 0014 DBB2     		uxtb	r3, r3
 9448 0016 0F2B     		cmp	r3, #15
 9449 0018 14D8     		bhi	.L286
2251:.\PrimeImpl.c ****     {
2252:.\PrimeImpl.c ****         pjob->_retriescounter = 0;
 9450              		.loc 1 2252 0
 9451 001a FB68     		ldr	r3, [r7, #12]
 9452 001c 0022     		movs	r2, #0
 9453 001e DA81     		strh	r2, [r3, #14]	@ movhi
2253:.\PrimeImpl.c ****         pjob->_ppump->_datacontainer._var0++;
 9454              		.loc 1 2253 0
 9455 0020 FB68     		ldr	r3, [r7, #12]
 9456 0022 DB69     		ldr	r3, [r3, #28]
 9457 0024 93F83029 		ldrb	r2, [r3, #2352]
 9458 0028 D2B2     		uxtb	r2, r2
 9459 002a 0132     		adds	r2, r2, #1
 9460 002c D2B2     		uxtb	r2, r2
 9461 002e 83F83029 		strb	r2, [r3, #2352]
2254:.\PrimeImpl.c ****         pjob->_ppump->_pumpid = pjob->_ppump->_datacontainer._var0;
 9462              		.loc 1 2254 0
 9463 0032 FB68     		ldr	r3, [r7, #12]
 9464 0034 DB69     		ldr	r3, [r3, #28]
 9465 0036 FA68     		ldr	r2, [r7, #12]
 9466 0038 D269     		ldr	r2, [r2, #28]
 9467 003a 92F83029 		ldrb	r2, [r2, #2352]
 9468 003e D2B2     		uxtb	r2, r2
 9469 0040 1A70     		strb	r2, [r3]
 9470 0042 09E0     		b	.L285
 9471              	.L286:
2255:.\PrimeImpl.c ****     }else{
2256:.\PrimeImpl.c ****         pjob->_reenqueue = false;
 9472              		.loc 1 2256 0
 9473 0044 FB68     		ldr	r3, [r7, #12]
ARM GAS  C:\Users\RECEPC~1\AppData\Local\Temp\ccNQP0pp.s 			page 208


 9474 0046 0022     		movs	r2, #0
 9475 0048 1A70     		strb	r2, [r3]
2257:.\PrimeImpl.c ****         
2258:.\PrimeImpl.c ****         //Chance for any extra initialization
2259:.\PrimeImpl.c ****         if(_g_ptractprogramming == PNEAR_NULLPTR)
 9476              		.loc 1 2259 0
 9477 004a 064B     		ldr	r3, .L288
 9478 004c 1B68     		ldr	r3, [r3]
 9479 004e 002B     		cmp	r3, #0
 9480 0050 02D1     		bne	.L285
2260:.\PrimeImpl.c ****             _g_ptractprogramming = PrimeActivateProgramming;
 9481              		.loc 1 2260 0
 9482 0052 044B     		ldr	r3, .L288
 9483 0054 044A     		ldr	r2, .L288+4
 9484 0056 1A60     		str	r2, [r3]
 9485              	.L285:
2261:.\PrimeImpl.c ****     }
2262:.\PrimeImpl.c **** }
 9486              		.loc 1 2262 0
 9487 0058 1437     		adds	r7, r7, #20
 9488              		.cfi_def_cfa_offset 4
 9489 005a BD46     		mov	sp, r7
 9490              		.cfi_def_cfa_register 13
 9491              		@ sp needed
 9492 005c 5DF8047B 		ldr	r7, [sp], #4
 9493              		.cfi_restore 7
 9494              		.cfi_def_cfa_offset 0
 9495 0060 7047     		bx	lr
 9496              	.L289:
 9497 0062 00BF     		.align	2
 9498              	.L288:
 9499 0064 00000000 		.word	_g_ptractprogramming
 9500 0068 00000000 		.word	PrimeActivateProgramming
 9501              		.cfi_endproc
 9502              	.LFE105:
 9503              		.size	PumpEnumeratorTimeout, .-PumpEnumeratorTimeout
 9504              		.section	.text.AcquirePumpTotalsResponseResolver,"ax",%progbits
 9505              		.align	2
 9506              		.global	AcquirePumpTotalsResponseResolver
 9507              		.thumb
 9508              		.thumb_func
 9509              		.type	AcquirePumpTotalsResponseResolver, %function
 9510              	AcquirePumpTotalsResponseResolver:
 9511              	.LFB106:
2263:.\PrimeImpl.c **** 
2264:.\PrimeImpl.c **** //@Created By: HIJH
2265:.\PrimeImpl.c **** //@Septembre de 2016
2266:.\PrimeImpl.c **** bool AcquirePumpTotalsResponseResolver(void *pparam, void *pbuffer, uint16 buffersize)
2267:.\PrimeImpl.c **** {
 9512              		.loc 1 2267 0
 9513              		.cfi_startproc
 9514              		@ args = 0, pretend = 0, frame = 24
 9515              		@ frame_needed = 1, uses_anonymous_args = 0
 9516              		@ link register save eliminated.
 9517 0000 80B4     		push	{r7}
 9518              		.cfi_def_cfa_offset 4
 9519              		.cfi_offset 7, -4
ARM GAS  C:\Users\RECEPC~1\AppData\Local\Temp\ccNQP0pp.s 			page 209


 9520 0002 87B0     		sub	sp, sp, #28
 9521              		.cfi_def_cfa_offset 32
 9522 0004 00AF     		add	r7, sp, #0
 9523              		.cfi_def_cfa_register 7
 9524 0006 F860     		str	r0, [r7, #12]
 9525 0008 B960     		str	r1, [r7, #8]
 9526 000a 1346     		mov	r3, r2
 9527 000c FB80     		strh	r3, [r7, #6]	@ movhi
2268:.\PrimeImpl.c ****     bool retval = false;
 9528              		.loc 1 2268 0
 9529 000e 0023     		movs	r3, #0
 9530 0010 FB75     		strb	r3, [r7, #23]
2269:.\PrimeImpl.c ****     PNEAR_PUMPPTR ppump = (PNEAR_PUMPPTR)pparam;
 9531              		.loc 1 2269 0
 9532 0012 FB68     		ldr	r3, [r7, #12]
 9533 0014 3B61     		str	r3, [r7, #16]
2270:.\PrimeImpl.c ****     switch(ppump->_pumpindex)
 9534              		.loc 1 2270 0
 9535 0016 3B69     		ldr	r3, [r7, #16]
 9536 0018 5B78     		ldrb	r3, [r3, #1]	@ zero_extendqisi2
 9537 001a 032B     		cmp	r3, #3
 9538 001c 42D8     		bhi	.L291
 9539 001e 01A2     		adr	r2, .L293
 9540 0020 52F823F0 		ldr	pc, [r2, r3, lsl #2]
 9541              		.p2align 2
 9542              	.L293:
 9543 0024 35000000 		.word	.L292+1
 9544 0028 51000000 		.word	.L294+1
 9545 002c 6D000000 		.word	.L295+1
 9546 0030 89000000 		.word	.L296+1
 9547              		.p2align 1
 9548              	.L292:
2271:.\PrimeImpl.c ****     {
2272:.\PrimeImpl.c ****         case 0x00:
2273:.\PrimeImpl.c ****             retval = (buffersize >= (_g_dispenserlayoutinfo._hosesposition1*_PUMP_TOTALS_BUFFER_SHI
 9549              		.loc 1 2273 0
 9550 0034 FA88     		ldrh	r2, [r7, #6]
 9551 0036 1F4B     		ldr	r3, .L298
 9552 0038 DB78     		ldrb	r3, [r3, #3]	@ zero_extendqisi2
 9553 003a 1946     		mov	r1, r3
 9554 003c 2A23     		movs	r3, #42
 9555 003e 03FB01F3 		mul	r3, r3, r1
 9556 0042 0433     		adds	r3, r3, #4
 9557 0044 9A42     		cmp	r2, r3
 9558 0046 ACBF     		ite	ge
 9559 0048 0123     		movge	r3, #1
 9560 004a 0023     		movlt	r3, #0
 9561 004c FB75     		strb	r3, [r7, #23]
2274:.\PrimeImpl.c ****         break;
 9562              		.loc 1 2274 0
 9563 004e 29E0     		b	.L291
 9564              	.L294:
2275:.\PrimeImpl.c ****         case 0x01:
2276:.\PrimeImpl.c ****             retval = (buffersize >= (_g_dispenserlayoutinfo._hosesposition2*_PUMP_TOTALS_BUFFER_SHI
 9565              		.loc 1 2276 0
 9566 0050 FA88     		ldrh	r2, [r7, #6]
 9567 0052 184B     		ldr	r3, .L298
ARM GAS  C:\Users\RECEPC~1\AppData\Local\Temp\ccNQP0pp.s 			page 210


 9568 0054 1B79     		ldrb	r3, [r3, #4]	@ zero_extendqisi2
 9569 0056 1946     		mov	r1, r3
 9570 0058 2A23     		movs	r3, #42
 9571 005a 03FB01F3 		mul	r3, r3, r1
 9572 005e 0433     		adds	r3, r3, #4
 9573 0060 9A42     		cmp	r2, r3
 9574 0062 ACBF     		ite	ge
 9575 0064 0123     		movge	r3, #1
 9576 0066 0023     		movlt	r3, #0
 9577 0068 FB75     		strb	r3, [r7, #23]
2277:.\PrimeImpl.c ****         break;
 9578              		.loc 1 2277 0
 9579 006a 1BE0     		b	.L291
 9580              	.L295:
2278:.\PrimeImpl.c ****         case 0x02:
2279:.\PrimeImpl.c ****             retval = (buffersize >= (_g_dispenserlayoutinfo._hosesposition3*_PUMP_TOTALS_BUFFER_SHI
 9581              		.loc 1 2279 0
 9582 006c FA88     		ldrh	r2, [r7, #6]
 9583 006e 114B     		ldr	r3, .L298
 9584 0070 5B79     		ldrb	r3, [r3, #5]	@ zero_extendqisi2
 9585 0072 1946     		mov	r1, r3
 9586 0074 2A23     		movs	r3, #42
 9587 0076 03FB01F3 		mul	r3, r3, r1
 9588 007a 0433     		adds	r3, r3, #4
 9589 007c 9A42     		cmp	r2, r3
 9590 007e ACBF     		ite	ge
 9591 0080 0123     		movge	r3, #1
 9592 0082 0023     		movlt	r3, #0
 9593 0084 FB75     		strb	r3, [r7, #23]
2280:.\PrimeImpl.c ****         break;
 9594              		.loc 1 2280 0
 9595 0086 0DE0     		b	.L291
 9596              	.L296:
2281:.\PrimeImpl.c ****         case 0x03:
2282:.\PrimeImpl.c ****             retval = (buffersize >= (_g_dispenserlayoutinfo._hosesposition4*_PUMP_TOTALS_BUFFER_SHI
 9597              		.loc 1 2282 0
 9598 0088 FA88     		ldrh	r2, [r7, #6]
 9599 008a 0A4B     		ldr	r3, .L298
 9600 008c 9B79     		ldrb	r3, [r3, #6]	@ zero_extendqisi2
 9601 008e 1946     		mov	r1, r3
 9602 0090 2A23     		movs	r3, #42
 9603 0092 03FB01F3 		mul	r3, r3, r1
 9604 0096 0433     		adds	r3, r3, #4
 9605 0098 9A42     		cmp	r2, r3
 9606 009a ACBF     		ite	ge
 9607 009c 0123     		movge	r3, #1
 9608 009e 0023     		movlt	r3, #0
 9609 00a0 FB75     		strb	r3, [r7, #23]
2283:.\PrimeImpl.c ****         break;
 9610              		.loc 1 2283 0
 9611 00a2 00BF     		nop
 9612              	.L291:
2284:.\PrimeImpl.c ****     }
2285:.\PrimeImpl.c ****     return retval;
 9613              		.loc 1 2285 0
 9614 00a4 FB7D     		ldrb	r3, [r7, #23]	@ zero_extendqisi2
2286:.\PrimeImpl.c **** }
ARM GAS  C:\Users\RECEPC~1\AppData\Local\Temp\ccNQP0pp.s 			page 211


 9615              		.loc 1 2286 0
 9616 00a6 1846     		mov	r0, r3
 9617 00a8 1C37     		adds	r7, r7, #28
 9618              		.cfi_def_cfa_offset 4
 9619 00aa BD46     		mov	sp, r7
 9620              		.cfi_def_cfa_register 13
 9621              		@ sp needed
 9622 00ac 5DF8047B 		ldr	r7, [sp], #4
 9623              		.cfi_restore 7
 9624              		.cfi_def_cfa_offset 0
 9625 00b0 7047     		bx	lr
 9626              	.L299:
 9627 00b2 00BF     		.align	2
 9628              	.L298:
 9629 00b4 00000000 		.word	_g_dispenserlayoutinfo
 9630              		.cfi_endproc
 9631              	.LFE106:
 9632              		.size	AcquirePumpTotalsResponseResolver, .-AcquirePumpTotalsResponseResolver
 9633              		.section	.text.AcquirePpuChangeResponse,"ax",%progbits
 9634              		.align	2
 9635              		.global	AcquirePpuChangeResponse
 9636              		.thumb
 9637              		.thumb_func
 9638              		.type	AcquirePpuChangeResponse, %function
 9639              	AcquirePpuChangeResponse:
 9640              	.LFB107:
2287:.\PrimeImpl.c **** 
2288:.\PrimeImpl.c **** void AcquirePpuChangeResponse(void *pparam)
2289:.\PrimeImpl.c **** {
 9641              		.loc 1 2289 0
 9642              		.cfi_startproc
 9643              		@ args = 0, pretend = 0, frame = 16
 9644              		@ frame_needed = 1, uses_anonymous_args = 0
 9645              		@ link register save eliminated.
 9646 0000 80B4     		push	{r7}
 9647              		.cfi_def_cfa_offset 4
 9648              		.cfi_offset 7, -4
 9649 0002 85B0     		sub	sp, sp, #20
 9650              		.cfi_def_cfa_offset 24
 9651 0004 00AF     		add	r7, sp, #0
 9652              		.cfi_def_cfa_register 7
 9653 0006 7860     		str	r0, [r7, #4]
2290:.\PrimeImpl.c ****     PPUMPTRANSACTIONJOBCONTEXTPTR pjob = (PPUMPTRANSACTIONJOBCONTEXTPTR)pparam;
 9654              		.loc 1 2290 0
 9655 0008 7B68     		ldr	r3, [r7, #4]
 9656 000a FB60     		str	r3, [r7, #12]
2291:.\PrimeImpl.c ****     if(pjob)
 9657              		.loc 1 2291 0
 9658 000c FB68     		ldr	r3, [r7, #12]
 9659 000e 002B     		cmp	r3, #0
 9660 0010 3AD0     		beq	.L300
2292:.\PrimeImpl.c ****     {
2293:.\PrimeImpl.c ****         pjob->_ppump->_pumpstate = ((pjob->_ppump->_rxbuffer[0x00] & 0xF0) >> 4);
 9661              		.loc 1 2293 0
 9662 0012 FB68     		ldr	r3, [r7, #12]
 9663 0014 DB69     		ldr	r3, [r3, #28]
 9664 0016 FA68     		ldr	r2, [r7, #12]
ARM GAS  C:\Users\RECEPC~1\AppData\Local\Temp\ccNQP0pp.s 			page 212


 9665 0018 D269     		ldr	r2, [r2, #28]
 9666 001a 92F88821 		ldrb	r2, [r2, #392]	@ zero_extendqisi2
 9667 001e 1209     		lsrs	r2, r2, #4
 9668 0020 D2B2     		uxtb	r2, r2
 9669 0022 9A70     		strb	r2, [r3, #2]
2294:.\PrimeImpl.c ****         
2295:.\PrimeImpl.c ****         switch(_g_dispenserlayoutinfo._numpositions)
 9670              		.loc 1 2295 0
 9671 0024 1B4B     		ldr	r3, .L306
 9672 0026 9B78     		ldrb	r3, [r3, #2]	@ zero_extendqisi2
 9673 0028 022B     		cmp	r3, #2
 9674 002a 02D0     		beq	.L302
 9675 002c 042B     		cmp	r3, #4
 9676 002e 16D0     		beq	.L303
 9677 0030 2AE0     		b	.L300
 9678              	.L302:
2296:.\PrimeImpl.c ****         {
2297:.\PrimeImpl.c ****             case 0x02:
2298:.\PrimeImpl.c ****             {
2299:.\PrimeImpl.c ****                 if(pjob->_ppump->_pumpindex == (_g_dispenserlayoutinfo._numpositions - 1) && (pjob-
 9679              		.loc 1 2299 0
 9680 0032 FB68     		ldr	r3, [r7, #12]
 9681 0034 DB69     		ldr	r3, [r3, #28]
 9682 0036 5B78     		ldrb	r3, [r3, #1]	@ zero_extendqisi2
 9683 0038 1A46     		mov	r2, r3
 9684 003a 164B     		ldr	r3, .L306
 9685 003c 9B78     		ldrb	r3, [r3, #2]	@ zero_extendqisi2
 9686 003e 013B     		subs	r3, r3, #1
 9687 0040 9A42     		cmp	r2, r3
 9688 0042 0BD1     		bne	.L304
 9689              		.loc 1 2299 0 is_stmt 0 discriminator 1
 9690 0044 FB68     		ldr	r3, [r7, #12]
 9691 0046 DB69     		ldr	r3, [r3, #28]
 9692 0048 DB78     		ldrb	r3, [r3, #3]
 9693 004a DAB2     		uxtb	r2, r3
 9694 004c 114B     		ldr	r3, .L306
 9695 004e 1B79     		ldrb	r3, [r3, #4]	@ zero_extendqisi2
 9696 0050 9A42     		cmp	r2, r3
 9697 0052 03D1     		bne	.L304
2300:.\PrimeImpl.c ****                     _g_dispenserlayoutinfo._inconfiguration = false;
 9698              		.loc 1 2300 0 is_stmt 1
 9699 0054 0F4B     		ldr	r3, .L306
 9700 0056 0022     		movs	r2, #0
 9701 0058 1A70     		strb	r2, [r3]
2301:.\PrimeImpl.c ****                 
2302:.\PrimeImpl.c ****                 break;
 9702              		.loc 1 2302 0
 9703 005a 15E0     		b	.L300
 9704              	.L304:
 9705 005c 14E0     		b	.L300
 9706              	.L303:
2303:.\PrimeImpl.c ****             }
2304:.\PrimeImpl.c ****             case 0x04:
2305:.\PrimeImpl.c ****             {
2306:.\PrimeImpl.c ****                 if(pjob->_ppump->_pumpindex == (_g_dispenserlayoutinfo._numpositions - 1) && (pjob-
 9707              		.loc 1 2306 0
 9708 005e FB68     		ldr	r3, [r7, #12]
ARM GAS  C:\Users\RECEPC~1\AppData\Local\Temp\ccNQP0pp.s 			page 213


 9709 0060 DB69     		ldr	r3, [r3, #28]
 9710 0062 5B78     		ldrb	r3, [r3, #1]	@ zero_extendqisi2
 9711 0064 1A46     		mov	r2, r3
 9712 0066 0B4B     		ldr	r3, .L306
 9713 0068 9B78     		ldrb	r3, [r3, #2]	@ zero_extendqisi2
 9714 006a 013B     		subs	r3, r3, #1
 9715 006c 9A42     		cmp	r2, r3
 9716 006e 0AD1     		bne	.L305
 9717              		.loc 1 2306 0 is_stmt 0 discriminator 1
 9718 0070 FB68     		ldr	r3, [r7, #12]
 9719 0072 DB69     		ldr	r3, [r3, #28]
 9720 0074 DB78     		ldrb	r3, [r3, #3]
 9721 0076 DAB2     		uxtb	r2, r3
 9722 0078 064B     		ldr	r3, .L306
 9723 007a 9B79     		ldrb	r3, [r3, #6]	@ zero_extendqisi2
 9724 007c 9A42     		cmp	r2, r3
 9725 007e 02D1     		bne	.L305
2307:.\PrimeImpl.c ****                     _g_dispenserlayoutinfo._inconfiguration = false;
 9726              		.loc 1 2307 0 is_stmt 1
 9727 0080 044B     		ldr	r3, .L306
 9728 0082 0022     		movs	r2, #0
 9729 0084 1A70     		strb	r2, [r3]
 9730              	.L305:
2308:.\PrimeImpl.c ****                 
2309:.\PrimeImpl.c ****                 break;
 9731              		.loc 1 2309 0
 9732 0086 00BF     		nop
 9733              	.L300:
2310:.\PrimeImpl.c ****             }
2311:.\PrimeImpl.c ****         }
2312:.\PrimeImpl.c ****     }
2313:.\PrimeImpl.c **** }
 9734              		.loc 1 2313 0
 9735 0088 1437     		adds	r7, r7, #20
 9736              		.cfi_def_cfa_offset 4
 9737 008a BD46     		mov	sp, r7
 9738              		.cfi_def_cfa_register 13
 9739              		@ sp needed
 9740 008c 5DF8047B 		ldr	r7, [sp], #4
 9741              		.cfi_restore 7
 9742              		.cfi_def_cfa_offset 0
 9743 0090 7047     		bx	lr
 9744              	.L307:
 9745 0092 00BF     		.align	2
 9746              	.L306:
 9747 0094 00000000 		.word	_g_dispenserlayoutinfo
 9748              		.cfi_endproc
 9749              	.LFE107:
 9750              		.size	AcquirePpuChangeResponse, .-AcquirePpuChangeResponse
 9751              		.section	.text.PrimeActivateProgramming,"ax",%progbits
 9752              		.align	2
 9753              		.global	PrimeActivateProgramming
 9754              		.thumb
 9755              		.thumb_func
 9756              		.type	PrimeActivateProgramming, %function
 9757              	PrimeActivateProgramming:
 9758              	.LFB108:
ARM GAS  C:\Users\RECEPC~1\AppData\Local\Temp\ccNQP0pp.s 			page 214


2314:.\PrimeImpl.c **** 
2315:.\PrimeImpl.c **** //@Created By: HIJH
2316:.\PrimeImpl.c **** //@Novembre de 2016
2317:.\PrimeImpl.c **** void PrimeActivateProgramming(LPVOID pparam)
2318:.\PrimeImpl.c **** {
 9759              		.loc 1 2318 0
 9760              		.cfi_startproc
 9761              		@ args = 0, pretend = 0, frame = 24
 9762              		@ frame_needed = 1, uses_anonymous_args = 0
 9763 0000 80B5     		push	{r7, lr}
 9764              		.cfi_def_cfa_offset 8
 9765              		.cfi_offset 7, -8
 9766              		.cfi_offset 14, -4
 9767 0002 86B0     		sub	sp, sp, #24
 9768              		.cfi_def_cfa_offset 32
 9769 0004 00AF     		add	r7, sp, #0
 9770              		.cfi_def_cfa_register 7
 9771 0006 7860     		str	r0, [r7, #4]
2319:.\PrimeImpl.c ****     PNEAR_PUMPPTR ppump = &_g_pumps[0x00];
 9772              		.loc 1 2319 0
 9773 0008 264B     		ldr	r3, .L313
 9774 000a 3B61     		str	r3, [r7, #16]
2320:.\PrimeImpl.c ****     PSINKMESSAGEPTR pmsg = (PSINKMESSAGEPTR)pparam;
 9775              		.loc 1 2320 0
 9776 000c 7B68     		ldr	r3, [r7, #4]
 9777 000e FB60     		str	r3, [r7, #12]
2321:.\PrimeImpl.c ****     if(ppump)
 9778              		.loc 1 2321 0
 9779 0010 3B69     		ldr	r3, [r7, #16]
 9780 0012 002B     		cmp	r3, #0
 9781 0014 42D0     		beq	.L308
 9782              	.LBB52:
2322:.\PrimeImpl.c ****     {
2323:.\PrimeImpl.c ****         ppump->_acquiringstate = true;
 9783              		.loc 1 2323 0
 9784 0016 3B69     		ldr	r3, [r7, #16]
 9785 0018 0122     		movs	r2, #1
 9786 001a 5A71     		strb	r2, [r3, #5]
2324:.\PrimeImpl.c ****         ppump->_pcurrtransaction = GetTransactionByName(_PUMP_PROGRAM_MODE_);
 9787              		.loc 1 2324 0
 9788 001c 4E20     		movs	r0, #78
 9789 001e FFF7FEFF 		bl	GetTransactionByName
 9790 0022 0246     		mov	r2, r0
 9791 0024 3B69     		ldr	r3, [r7, #16]
 9792 0026 DA61     		str	r2, [r3, #28]
2325:.\PrimeImpl.c ****         PumpTransactionJob *ptrjob = &((PumpTransaction*)ppump->_pcurrtransaction)->_jobs[0];
 9793              		.loc 1 2325 0
 9794 0028 3B69     		ldr	r3, [r7, #16]
 9795 002a DB69     		ldr	r3, [r3, #28]
 9796 002c 0433     		adds	r3, r3, #4
 9797 002e 7B61     		str	r3, [r7, #20]
2326:.\PrimeImpl.c ****         if(ptrjob)
 9798              		.loc 1 2326 0
 9799 0030 7B69     		ldr	r3, [r7, #20]
 9800 0032 002B     		cmp	r3, #0
 9801 0034 32D0     		beq	.L308
2327:.\PrimeImpl.c ****         {
ARM GAS  C:\Users\RECEPC~1\AppData\Local\Temp\ccNQP0pp.s 			page 215


2328:.\PrimeImpl.c ****             while(ptrjob->Request != NULL)
 9802              		.loc 1 2328 0
 9803 0036 2DE0     		b	.L310
 9804              	.L312:
 9805              	.LBB53:
2329:.\PrimeImpl.c ****             {
2330:.\PrimeImpl.c ****                 PPUMPTRANSACTIONJOBCONTEXTPTR pjobcntr = _g_pumpjobqueue.Allocate(&_g_pumpjobqueue)
 9806              		.loc 1 2330 0
 9807 0038 1B4B     		ldr	r3, .L313+4
 9808 003a D3F8F037 		ldr	r3, [r3, #2032]
 9809 003e 1A48     		ldr	r0, .L313+4
 9810 0040 9847     		blx	r3
 9811 0042 B860     		str	r0, [r7, #8]
2331:.\PrimeImpl.c ****                 if(pjobcntr)
 9812              		.loc 1 2331 0
 9813 0044 BB68     		ldr	r3, [r7, #8]
 9814 0046 002B     		cmp	r3, #0
 9815 0048 21D0     		beq	.L311
2332:.\PrimeImpl.c ****                 {
2333:.\PrimeImpl.c ****                     pjobcntr->_reenqueue = false;
 9816              		.loc 1 2333 0
 9817 004a BB68     		ldr	r3, [r7, #8]
 9818 004c 0022     		movs	r2, #0
 9819 004e 1A70     		strb	r2, [r3]
2334:.\PrimeImpl.c ****                     pjobcntr->_prequest = ptrjob;
 9820              		.loc 1 2334 0
 9821 0050 BB68     		ldr	r3, [r7, #8]
 9822 0052 7A69     		ldr	r2, [r7, #20]
 9823 0054 5A61     		str	r2, [r3, #20]
2335:.\PrimeImpl.c ****                     pjobcntr->_presponse = NULL;
 9824              		.loc 1 2335 0
 9825 0056 BB68     		ldr	r3, [r7, #8]
 9826 0058 0022     		movs	r2, #0
 9827 005a 9A61     		str	r2, [r3, #24]
2336:.\PrimeImpl.c ****                     pjobcntr->_ppump = ppump;
 9828              		.loc 1 2336 0
 9829 005c BB68     		ldr	r3, [r7, #8]
 9830 005e 3A69     		ldr	r2, [r7, #16]
 9831 0060 DA61     		str	r2, [r3, #28]
2337:.\PrimeImpl.c ****                     pjobcntr->_ppump->CleanUp(pjobcntr->_ppump);
 9832              		.loc 1 2337 0
 9833 0062 BB68     		ldr	r3, [r7, #8]
 9834 0064 DB69     		ldr	r3, [r3, #28]
 9835 0066 D3F88839 		ldr	r3, [r3, #2440]
 9836 006a BA68     		ldr	r2, [r7, #8]
 9837 006c D269     		ldr	r2, [r2, #28]
 9838 006e 1046     		mov	r0, r2
 9839 0070 9847     		blx	r3
2338:.\PrimeImpl.c ****                     //This callback will be invoked upon response (if exists)
2339:.\PrimeImpl.c ****                     pjobcntr->Callback = pmsg->Callback;
 9840              		.loc 1 2339 0
 9841 0072 FB68     		ldr	r3, [r7, #12]
 9842 0074 D3F89421 		ldr	r2, [r3, #404]
 9843 0078 BB68     		ldr	r3, [r7, #8]
 9844 007a 1A62     		str	r2, [r3, #32]
2340:.\PrimeImpl.c ****                     pjobcntr->_pdata = pmsg;
 9845              		.loc 1 2340 0
ARM GAS  C:\Users\RECEPC~1\AppData\Local\Temp\ccNQP0pp.s 			page 216


 9846 007c BB68     		ldr	r3, [r7, #8]
 9847 007e FA68     		ldr	r2, [r7, #12]
 9848 0080 5A62     		str	r2, [r3, #36]
2341:.\PrimeImpl.c ****                     
2342:.\PrimeImpl.c ****                     _g_pumpjobqueue.Enqueue(&_g_pumpjobqueue, pjobcntr);
 9849              		.loc 1 2342 0
 9850 0082 094B     		ldr	r3, .L313+4
 9851 0084 D3F8F437 		ldr	r3, [r3, #2036]
 9852 0088 0748     		ldr	r0, .L313+4
 9853 008a B968     		ldr	r1, [r7, #8]
 9854 008c 9847     		blx	r3
 9855              	.L311:
2343:.\PrimeImpl.c ****                 }
2344:.\PrimeImpl.c ****                 ptrjob++;
 9856              		.loc 1 2344 0
 9857 008e 7B69     		ldr	r3, [r7, #20]
 9858 0090 3433     		adds	r3, r3, #52
 9859 0092 7B61     		str	r3, [r7, #20]
 9860              	.L310:
 9861              	.LBE53:
2328:.\PrimeImpl.c ****             {
 9862              		.loc 1 2328 0
 9863 0094 7B69     		ldr	r3, [r7, #20]
 9864 0096 1B68     		ldr	r3, [r3]
 9865 0098 002B     		cmp	r3, #0
 9866 009a CDD1     		bne	.L312
 9867              	.L308:
 9868              	.LBE52:
2345:.\PrimeImpl.c ****             }
2346:.\PrimeImpl.c ****         }
2347:.\PrimeImpl.c ****     }
2348:.\PrimeImpl.c **** }
 9869              		.loc 1 2348 0
 9870 009c 1837     		adds	r7, r7, #24
 9871              		.cfi_def_cfa_offset 8
 9872 009e BD46     		mov	sp, r7
 9873              		.cfi_def_cfa_register 13
 9874              		@ sp needed
 9875 00a0 80BD     		pop	{r7, pc}
 9876              	.L314:
 9877 00a2 00BF     		.align	2
 9878              	.L313:
 9879 00a4 00000000 		.word	_g_pumps
 9880 00a8 00000000 		.word	_g_pumpjobqueue
 9881              		.cfi_endproc
 9882              	.LFE108:
 9883              		.size	PrimeActivateProgramming, .-PrimeActivateProgramming
 9884              		.section	.text.ComplementaryCreditTransactionOnHose,"ax",%progbits
 9885              		.align	2
 9886              		.global	ComplementaryCreditTransactionOnHose
 9887              		.thumb
 9888              		.thumb_func
 9889              		.type	ComplementaryCreditTransactionOnHose, %function
 9890              	ComplementaryCreditTransactionOnHose:
 9891              	.LFB109:
2349:.\PrimeImpl.c **** 
2350:.\PrimeImpl.c **** void ComplementaryCreditTransactionOnHose(LPVOID pparam)
ARM GAS  C:\Users\RECEPC~1\AppData\Local\Temp\ccNQP0pp.s 			page 217


2351:.\PrimeImpl.c **** {
 9892              		.loc 1 2351 0
 9893              		.cfi_startproc
 9894              		@ args = 0, pretend = 0, frame = 24
 9895              		@ frame_needed = 1, uses_anonymous_args = 0
 9896 0000 80B5     		push	{r7, lr}
 9897              		.cfi_def_cfa_offset 8
 9898              		.cfi_offset 7, -8
 9899              		.cfi_offset 14, -4
 9900 0002 86B0     		sub	sp, sp, #24
 9901              		.cfi_def_cfa_offset 32
 9902 0004 00AF     		add	r7, sp, #0
 9903              		.cfi_def_cfa_register 7
 9904 0006 7860     		str	r0, [r7, #4]
2352:.\PrimeImpl.c ****     PNEAR_PUMPPTR ppump = (PNEAR_PUMPPTR)pparam;
 9905              		.loc 1 2352 0
 9906 0008 7B68     		ldr	r3, [r7, #4]
 9907 000a 3B61     		str	r3, [r7, #16]
2353:.\PrimeImpl.c ****     ppump->_pcurrtransaction = GetTransactionByName(_PUMP_FILL_CREDIT_COMPLEMENTARY_);
 9908              		.loc 1 2353 0
 9909 000c 4520     		movs	r0, #69
 9910 000e FFF7FEFF 		bl	GetTransactionByName
 9911 0012 0246     		mov	r2, r0
 9912 0014 3B69     		ldr	r3, [r7, #16]
 9913 0016 DA61     		str	r2, [r3, #28]
2354:.\PrimeImpl.c ****     PumpTransactionJob *ptrjob = &((PumpTransaction*)ppump->_pcurrtransaction)->_jobs[0];
 9914              		.loc 1 2354 0
 9915 0018 3B69     		ldr	r3, [r7, #16]
 9916 001a DB69     		ldr	r3, [r3, #28]
 9917 001c 0433     		adds	r3, r3, #4
 9918 001e 7B61     		str	r3, [r7, #20]
2355:.\PrimeImpl.c ****     if(ptrjob)
 9919              		.loc 1 2355 0
 9920 0020 7B69     		ldr	r3, [r7, #20]
 9921 0022 002B     		cmp	r3, #0
 9922 0024 2AD0     		beq	.L315
2356:.\PrimeImpl.c ****     {
2357:.\PrimeImpl.c ****         while(ptrjob->Request != NULL)
 9923              		.loc 1 2357 0
 9924 0026 25E0     		b	.L317
 9925              	.L319:
 9926              	.LBB54:
2358:.\PrimeImpl.c ****         {
2359:.\PrimeImpl.c ****             PPUMPTRANSACTIONJOBCONTEXTPTR pjobcntr = _g_pumpjobqueue.Allocate(&_g_pumpjobqueue);
 9927              		.loc 1 2359 0
 9928 0028 164B     		ldr	r3, .L320
 9929 002a D3F8F037 		ldr	r3, [r3, #2032]
 9930 002e 1548     		ldr	r0, .L320
 9931 0030 9847     		blx	r3
 9932 0032 F860     		str	r0, [r7, #12]
2360:.\PrimeImpl.c ****             if(pjobcntr)
 9933              		.loc 1 2360 0
 9934 0034 FB68     		ldr	r3, [r7, #12]
 9935 0036 002B     		cmp	r3, #0
 9936 0038 19D0     		beq	.L318
2361:.\PrimeImpl.c ****             {
2362:.\PrimeImpl.c ****                 pjobcntr->_reenqueue = false;
ARM GAS  C:\Users\RECEPC~1\AppData\Local\Temp\ccNQP0pp.s 			page 218


 9937              		.loc 1 2362 0
 9938 003a FB68     		ldr	r3, [r7, #12]
 9939 003c 0022     		movs	r2, #0
 9940 003e 1A70     		strb	r2, [r3]
2363:.\PrimeImpl.c ****                 pjobcntr->_prequest = ptrjob;
 9941              		.loc 1 2363 0
 9942 0040 FB68     		ldr	r3, [r7, #12]
 9943 0042 7A69     		ldr	r2, [r7, #20]
 9944 0044 5A61     		str	r2, [r3, #20]
2364:.\PrimeImpl.c ****                 pjobcntr->_presponse = NULL;
 9945              		.loc 1 2364 0
 9946 0046 FB68     		ldr	r3, [r7, #12]
 9947 0048 0022     		movs	r2, #0
 9948 004a 9A61     		str	r2, [r3, #24]
2365:.\PrimeImpl.c ****                 pjobcntr->_ppump = ppump;
 9949              		.loc 1 2365 0
 9950 004c FB68     		ldr	r3, [r7, #12]
 9951 004e 3A69     		ldr	r2, [r7, #16]
 9952 0050 DA61     		str	r2, [r3, #28]
2366:.\PrimeImpl.c ****                 pjobcntr->_ppump->CleanUp(pjobcntr->_ppump);
 9953              		.loc 1 2366 0
 9954 0052 FB68     		ldr	r3, [r7, #12]
 9955 0054 DB69     		ldr	r3, [r3, #28]
 9956 0056 D3F88839 		ldr	r3, [r3, #2440]
 9957 005a FA68     		ldr	r2, [r7, #12]
 9958 005c D269     		ldr	r2, [r2, #28]
 9959 005e 1046     		mov	r0, r2
 9960 0060 9847     		blx	r3
2367:.\PrimeImpl.c ****                 //This callback will be invoked upon response (if exists)
2368:.\PrimeImpl.c ****                 //pjobcntr->Callback = pmsg->Callback;
2369:.\PrimeImpl.c ****                 //pjobcntr->_pdata = pmsg;
2370:.\PrimeImpl.c ****                 
2371:.\PrimeImpl.c ****                 _g_pumpjobqueue.Enqueue(&_g_pumpjobqueue, pjobcntr);
 9961              		.loc 1 2371 0
 9962 0062 084B     		ldr	r3, .L320
 9963 0064 D3F8F437 		ldr	r3, [r3, #2036]
 9964 0068 0648     		ldr	r0, .L320
 9965 006a F968     		ldr	r1, [r7, #12]
 9966 006c 9847     		blx	r3
 9967              	.L318:
2372:.\PrimeImpl.c ****             }
2373:.\PrimeImpl.c ****             ptrjob++;
 9968              		.loc 1 2373 0
 9969 006e 7B69     		ldr	r3, [r7, #20]
 9970 0070 3433     		adds	r3, r3, #52
 9971 0072 7B61     		str	r3, [r7, #20]
 9972              	.L317:
 9973              	.LBE54:
2357:.\PrimeImpl.c ****         {
 9974              		.loc 1 2357 0
 9975 0074 7B69     		ldr	r3, [r7, #20]
 9976 0076 1B68     		ldr	r3, [r3]
 9977 0078 002B     		cmp	r3, #0
 9978 007a D5D1     		bne	.L319
 9979              	.L315:
2374:.\PrimeImpl.c ****         }
2375:.\PrimeImpl.c ****     }
ARM GAS  C:\Users\RECEPC~1\AppData\Local\Temp\ccNQP0pp.s 			page 219


2376:.\PrimeImpl.c **** }
 9980              		.loc 1 2376 0
 9981 007c 1837     		adds	r7, r7, #24
 9982              		.cfi_def_cfa_offset 8
 9983 007e BD46     		mov	sp, r7
 9984              		.cfi_def_cfa_register 13
 9985              		@ sp needed
 9986 0080 80BD     		pop	{r7, pc}
 9987              	.L321:
 9988 0082 00BF     		.align	2
 9989              	.L320:
 9990 0084 00000000 		.word	_g_pumpjobqueue
 9991              		.cfi_endproc
 9992              	.LFE109:
 9993              		.size	ComplementaryCreditTransactionOnHose, .-ComplementaryCreditTransactionOnHose
 9994              		.section	.text.GetLRC,"ax",%progbits
 9995              		.align	2
 9996              		.global	GetLRC
 9997              		.thumb
 9998              		.thumb_func
 9999              		.type	GetLRC, %function
 10000              	GetLRC:
 10001              	.LFB110:
2377:.\PrimeImpl.c **** 
2378:.\PrimeImpl.c **** 
2379:.\PrimeImpl.c **** //@Created By: HIJH
2380:.\PrimeImpl.c **** //@Septembre de 2016
2381:.\PrimeImpl.c **** ///////////////////////////////////////////////////////////////////////////////////////////////////
2382:.\PrimeImpl.c **** //THESE ARE SUPPORT METHODS THAT WILL BE USED IN THE TRANSACTIONAL MACHINE
2383:.\PrimeImpl.c **** ///////////////////////////////////////////////////////////////////////////////////////////////////
2384:.\PrimeImpl.c **** //Calculation of the LRC according to the documentation
2385:.\PrimeImpl.c **** uint8_t GetLRC(char8 *_pbuffer)
2386:.\PrimeImpl.c **** {
 10002              		.loc 1 2386 0
 10003              		.cfi_startproc
 10004              		@ args = 0, pretend = 0, frame = 16
 10005              		@ frame_needed = 1, uses_anonymous_args = 0
 10006              		@ link register save eliminated.
 10007 0000 80B4     		push	{r7}
 10008              		.cfi_def_cfa_offset 4
 10009              		.cfi_offset 7, -4
 10010 0002 85B0     		sub	sp, sp, #20
 10011              		.cfi_def_cfa_offset 24
 10012 0004 00AF     		add	r7, sp, #0
 10013              		.cfi_def_cfa_register 7
 10014 0006 7860     		str	r0, [r7, #4]
2387:.\PrimeImpl.c ****     uint8_t lrc = 0;
 10015              		.loc 1 2387 0
 10016 0008 0023     		movs	r3, #0
 10017 000a FB73     		strb	r3, [r7, #15]
2388:.\PrimeImpl.c ****     while(*_pbuffer != 0xFB)
 10018              		.loc 1 2388 0
 10019 000c 0AE0     		b	.L323
 10020              	.L324:
2389:.\PrimeImpl.c ****     {
2390:.\PrimeImpl.c ****         lrc += (*_pbuffer & 0x0F);
 10021              		.loc 1 2390 0
ARM GAS  C:\Users\RECEPC~1\AppData\Local\Temp\ccNQP0pp.s 			page 220


 10022 000e 7B68     		ldr	r3, [r7, #4]
 10023 0010 1B78     		ldrb	r3, [r3]	@ zero_extendqisi2
 10024 0012 03F00F03 		and	r3, r3, #15
 10025 0016 DAB2     		uxtb	r2, r3
 10026 0018 FB7B     		ldrb	r3, [r7, #15]
 10027 001a 1344     		add	r3, r3, r2
 10028 001c FB73     		strb	r3, [r7, #15]
2391:.\PrimeImpl.c ****         _pbuffer++;
 10029              		.loc 1 2391 0
 10030 001e 7B68     		ldr	r3, [r7, #4]
 10031 0020 0133     		adds	r3, r3, #1
 10032 0022 7B60     		str	r3, [r7, #4]
 10033              	.L323:
2388:.\PrimeImpl.c ****     while(*_pbuffer != 0xFB)
 10034              		.loc 1 2388 0
 10035 0024 7B68     		ldr	r3, [r7, #4]
 10036 0026 1B78     		ldrb	r3, [r3]	@ zero_extendqisi2
 10037 0028 FB2B     		cmp	r3, #251
 10038 002a F0D1     		bne	.L324
2392:.\PrimeImpl.c ****     }
2393:.\PrimeImpl.c ****     lrc += (*_pbuffer & 0x0F);
 10039              		.loc 1 2393 0
 10040 002c 7B68     		ldr	r3, [r7, #4]
 10041 002e 1B78     		ldrb	r3, [r3]	@ zero_extendqisi2
 10042 0030 03F00F03 		and	r3, r3, #15
 10043 0034 DAB2     		uxtb	r2, r3
 10044 0036 FB7B     		ldrb	r3, [r7, #15]
 10045 0038 1344     		add	r3, r3, r2
 10046 003a FB73     		strb	r3, [r7, #15]
2394:.\PrimeImpl.c ****     return (((~lrc + 1) & 0x0F) | 0xE0);
 10047              		.loc 1 2394 0
 10048 003c FB7B     		ldrb	r3, [r7, #15]
 10049 003e 5B42     		negs	r3, r3
 10050 0040 DBB2     		uxtb	r3, r3
 10051 0042 DBB2     		uxtb	r3, r3
 10052 0044 03F00F03 		and	r3, r3, #15
 10053 0048 DBB2     		uxtb	r3, r3
 10054 004a 63F01F03 		orn	r3, r3, #31
 10055 004e DBB2     		uxtb	r3, r3
 10056 0050 DBB2     		uxtb	r3, r3
2395:.\PrimeImpl.c **** }
 10057              		.loc 1 2395 0
 10058 0052 1846     		mov	r0, r3
 10059 0054 1437     		adds	r7, r7, #20
 10060              		.cfi_def_cfa_offset 4
 10061 0056 BD46     		mov	sp, r7
 10062              		.cfi_def_cfa_register 13
 10063              		@ sp needed
 10064 0058 5DF8047B 		ldr	r7, [sp], #4
 10065              		.cfi_restore 7
 10066              		.cfi_def_cfa_offset 0
 10067 005c 7047     		bx	lr
 10068              		.cfi_endproc
 10069              	.LFE110:
 10070              		.size	GetLRC, .-GetLRC
 10071 005e 00BF     		.section	.text.FindLRC,"ax",%progbits
 10072              		.align	2
ARM GAS  C:\Users\RECEPC~1\AppData\Local\Temp\ccNQP0pp.s 			page 221


 10073              		.global	FindLRC
 10074              		.thumb
 10075              		.thumb_func
 10076              		.type	FindLRC, %function
 10077              	FindLRC:
 10078              	.LFB111:
2396:.\PrimeImpl.c **** 
2397:.\PrimeImpl.c **** uint8_t FindLRC(char8 *_pbuffer)
2398:.\PrimeImpl.c **** {
 10079              		.loc 1 2398 0
 10080              		.cfi_startproc
 10081              		@ args = 0, pretend = 0, frame = 8
 10082              		@ frame_needed = 1, uses_anonymous_args = 0
 10083              		@ link register save eliminated.
 10084 0000 80B4     		push	{r7}
 10085              		.cfi_def_cfa_offset 4
 10086              		.cfi_offset 7, -4
 10087 0002 83B0     		sub	sp, sp, #12
 10088              		.cfi_def_cfa_offset 16
 10089 0004 00AF     		add	r7, sp, #0
 10090              		.cfi_def_cfa_register 7
 10091 0006 7860     		str	r0, [r7, #4]
2399:.\PrimeImpl.c ****     while(*_pbuffer != 0xFB)
 10092              		.loc 1 2399 0
 10093 0008 02E0     		b	.L327
 10094              	.L328:
2400:.\PrimeImpl.c ****     {
2401:.\PrimeImpl.c ****         _pbuffer++;
 10095              		.loc 1 2401 0
 10096 000a 7B68     		ldr	r3, [r7, #4]
 10097 000c 0133     		adds	r3, r3, #1
 10098 000e 7B60     		str	r3, [r7, #4]
 10099              	.L327:
2399:.\PrimeImpl.c ****     while(*_pbuffer != 0xFB)
 10100              		.loc 1 2399 0
 10101 0010 7B68     		ldr	r3, [r7, #4]
 10102 0012 1B78     		ldrb	r3, [r3]	@ zero_extendqisi2
 10103 0014 FB2B     		cmp	r3, #251
 10104 0016 F8D1     		bne	.L328
2402:.\PrimeImpl.c ****     }
2403:.\PrimeImpl.c ****     return *(++_pbuffer);
 10105              		.loc 1 2403 0
 10106 0018 7B68     		ldr	r3, [r7, #4]
 10107 001a 0133     		adds	r3, r3, #1
 10108 001c 7B60     		str	r3, [r7, #4]
 10109 001e 7B68     		ldr	r3, [r7, #4]
 10110 0020 1B78     		ldrb	r3, [r3]	@ zero_extendqisi2
2404:.\PrimeImpl.c **** }
 10111              		.loc 1 2404 0
 10112 0022 1846     		mov	r0, r3
 10113 0024 0C37     		adds	r7, r7, #12
 10114              		.cfi_def_cfa_offset 4
 10115 0026 BD46     		mov	sp, r7
 10116              		.cfi_def_cfa_register 13
 10117              		@ sp needed
 10118 0028 5DF8047B 		ldr	r7, [sp], #4
 10119              		.cfi_restore 7
ARM GAS  C:\Users\RECEPC~1\AppData\Local\Temp\ccNQP0pp.s 			page 222


 10120              		.cfi_def_cfa_offset 0
 10121 002c 7047     		bx	lr
 10122              		.cfi_endproc
 10123              	.LFE111:
 10124              		.size	FindLRC, .-FindLRC
 10125 002e 00BF     		.section	.text.InitiateTransaction,"ax",%progbits
 10126              		.align	2
 10127              		.global	InitiateTransaction
 10128              		.thumb
 10129              		.thumb_func
 10130              		.type	InitiateTransaction, %function
 10131              	InitiateTransaction:
 10132              	.LFB112:
2405:.\PrimeImpl.c **** 
2406:.\PrimeImpl.c **** //@Created By: HIJH
2407:.\PrimeImpl.c **** //@Septembre de 2016
2408:.\PrimeImpl.c **** void InitiateTransaction(void *pparam)
2409:.\PrimeImpl.c **** {
 10133              		.loc 1 2409 0
 10134              		.cfi_startproc
 10135              		@ args = 0, pretend = 0, frame = 16
 10136              		@ frame_needed = 1, uses_anonymous_args = 0
 10137              		@ link register save eliminated.
 10138 0000 80B4     		push	{r7}
 10139              		.cfi_def_cfa_offset 4
 10140              		.cfi_offset 7, -4
 10141 0002 85B0     		sub	sp, sp, #20
 10142              		.cfi_def_cfa_offset 24
 10143 0004 00AF     		add	r7, sp, #0
 10144              		.cfi_def_cfa_register 7
 10145 0006 7860     		str	r0, [r7, #4]
2410:.\PrimeImpl.c ****     PumpTransactionJobContext *pjob = (PumpTransactionJobContext*)pparam;
 10146              		.loc 1 2410 0
 10147 0008 7B68     		ldr	r3, [r7, #4]
 10148 000a FB60     		str	r3, [r7, #12]
2411:.\PrimeImpl.c ****     if(pjob)
 10149              		.loc 1 2411 0
 10150 000c FB68     		ldr	r3, [r7, #12]
 10151 000e 002B     		cmp	r3, #0
 10152 0010 07D0     		beq	.L330
2412:.\PrimeImpl.c ****     {
2413:.\PrimeImpl.c ****         pjob->_ppump->_transhealth = _PUMP_OK_;
 10153              		.loc 1 2413 0
 10154 0012 FB68     		ldr	r3, [r7, #12]
 10155 0014 DB69     		ldr	r3, [r3, #28]
 10156 0016 0122     		movs	r2, #1
 10157 0018 1A76     		strb	r2, [r3, #24]
2414:.\PrimeImpl.c ****         pjob->_ppump->_transtate = _PUMP_BUSY_;
 10158              		.loc 1 2414 0
 10159 001a FB68     		ldr	r3, [r7, #12]
 10160 001c DB69     		ldr	r3, [r3, #28]
 10161 001e 0122     		movs	r2, #1
 10162 0020 5A76     		strb	r2, [r3, #25]
 10163              	.L330:
2415:.\PrimeImpl.c ****     }
2416:.\PrimeImpl.c **** }
 10164              		.loc 1 2416 0
ARM GAS  C:\Users\RECEPC~1\AppData\Local\Temp\ccNQP0pp.s 			page 223


 10165 0022 1437     		adds	r7, r7, #20
 10166              		.cfi_def_cfa_offset 4
 10167 0024 BD46     		mov	sp, r7
 10168              		.cfi_def_cfa_register 13
 10169              		@ sp needed
 10170 0026 5DF8047B 		ldr	r7, [sp], #4
 10171              		.cfi_restore 7
 10172              		.cfi_def_cfa_offset 0
 10173 002a 7047     		bx	lr
 10174              		.cfi_endproc
 10175              	.LFE112:
 10176              		.size	InitiateTransaction, .-InitiateTransaction
 10177              		.section	.text.TerminateTransaction,"ax",%progbits
 10178              		.align	2
 10179              		.global	TerminateTransaction
 10180              		.thumb
 10181              		.thumb_func
 10182              		.type	TerminateTransaction, %function
 10183              	TerminateTransaction:
 10184              	.LFB113:
2417:.\PrimeImpl.c **** 
2418:.\PrimeImpl.c **** //@Created By: HIJH
2419:.\PrimeImpl.c **** //@Septembre de 2016
2420:.\PrimeImpl.c **** void TerminateTransaction(void *pparam)
2421:.\PrimeImpl.c **** {
 10185              		.loc 1 2421 0
 10186              		.cfi_startproc
 10187              		@ args = 0, pretend = 0, frame = 16
 10188              		@ frame_needed = 1, uses_anonymous_args = 0
 10189              		@ link register save eliminated.
 10190 0000 80B4     		push	{r7}
 10191              		.cfi_def_cfa_offset 4
 10192              		.cfi_offset 7, -4
 10193 0002 85B0     		sub	sp, sp, #20
 10194              		.cfi_def_cfa_offset 24
 10195 0004 00AF     		add	r7, sp, #0
 10196              		.cfi_def_cfa_register 7
 10197 0006 7860     		str	r0, [r7, #4]
2422:.\PrimeImpl.c ****     PPUMPTRANSACTIONJOBCONTEXTPTR pjob = (PPUMPTRANSACTIONJOBCONTEXTPTR)pparam;
 10198              		.loc 1 2422 0
 10199 0008 7B68     		ldr	r3, [r7, #4]
 10200 000a FB60     		str	r3, [r7, #12]
2423:.\PrimeImpl.c ****     if(pjob)
 10201              		.loc 1 2423 0
 10202 000c FB68     		ldr	r3, [r7, #12]
 10203 000e 002B     		cmp	r3, #0
 10204 0010 07D0     		beq	.L332
2424:.\PrimeImpl.c ****     {
2425:.\PrimeImpl.c ****         pjob->_ppump->_transhealth = _PUMP_OK_;
 10205              		.loc 1 2425 0
 10206 0012 FB68     		ldr	r3, [r7, #12]
 10207 0014 DB69     		ldr	r3, [r3, #28]
 10208 0016 0122     		movs	r2, #1
 10209 0018 1A76     		strb	r2, [r3, #24]
2426:.\PrimeImpl.c ****         pjob->_ppump->_transtate = _PUMP_IDLE_;
 10210              		.loc 1 2426 0
 10211 001a FB68     		ldr	r3, [r7, #12]
ARM GAS  C:\Users\RECEPC~1\AppData\Local\Temp\ccNQP0pp.s 			page 224


 10212 001c DB69     		ldr	r3, [r3, #28]
 10213 001e 0222     		movs	r2, #2
 10214 0020 5A76     		strb	r2, [r3, #25]
 10215              	.L332:
2427:.\PrimeImpl.c ****         
2428:.\PrimeImpl.c ****     }
2429:.\PrimeImpl.c **** }
 10216              		.loc 1 2429 0
 10217 0022 1437     		adds	r7, r7, #20
 10218              		.cfi_def_cfa_offset 4
 10219 0024 BD46     		mov	sp, r7
 10220              		.cfi_def_cfa_register 13
 10221              		@ sp needed
 10222 0026 5DF8047B 		ldr	r7, [sp], #4
 10223              		.cfi_restore 7
 10224              		.cfi_def_cfa_offset 0
 10225 002a 7047     		bx	lr
 10226              		.cfi_endproc
 10227              	.LFE113:
 10228              		.size	TerminateTransaction, .-TerminateTransaction
 10229              		.section	.text.TerminateTransactionAndPrint,"ax",%progbits
 10230              		.align	2
 10231              		.global	TerminateTransactionAndPrint
 10232              		.thumb
 10233              		.thumb_func
 10234              		.type	TerminateTransactionAndPrint, %function
 10235              	TerminateTransactionAndPrint:
 10236              	.LFB114:
2430:.\PrimeImpl.c **** 
2431:.\PrimeImpl.c **** void TerminateTransactionAndPrint(void *pparam)
2432:.\PrimeImpl.c **** {
 10237              		.loc 1 2432 0
 10238              		.cfi_startproc
 10239              		@ args = 0, pretend = 0, frame = 16
 10240              		@ frame_needed = 1, uses_anonymous_args = 0
 10241 0000 90B5     		push	{r4, r7, lr}
 10242              		.cfi_def_cfa_offset 12
 10243              		.cfi_offset 4, -12
 10244              		.cfi_offset 7, -8
 10245              		.cfi_offset 14, -4
 10246 0002 85B0     		sub	sp, sp, #20
 10247              		.cfi_def_cfa_offset 32
 10248 0004 00AF     		add	r7, sp, #0
 10249              		.cfi_def_cfa_register 7
 10250 0006 7860     		str	r0, [r7, #4]
2433:.\PrimeImpl.c ****     PPUMPTRANSACTIONJOBCONTEXTPTR pjob = (PPUMPTRANSACTIONJOBCONTEXTPTR)pparam;
 10251              		.loc 1 2433 0
 10252 0008 7B68     		ldr	r3, [r7, #4]
 10253 000a FB60     		str	r3, [r7, #12]
2434:.\PrimeImpl.c ****     if(pjob)
 10254              		.loc 1 2434 0
 10255 000c FB68     		ldr	r3, [r7, #12]
 10256 000e 002B     		cmp	r3, #0
 10257 0010 00F0F380 		beq	.L334
2435:.\PrimeImpl.c ****     {
2436:.\PrimeImpl.c ****         pjob->_ppump->_transhealth = _PUMP_OK_;
 10258              		.loc 1 2436 0
ARM GAS  C:\Users\RECEPC~1\AppData\Local\Temp\ccNQP0pp.s 			page 225


 10259 0014 FB68     		ldr	r3, [r7, #12]
 10260 0016 DB69     		ldr	r3, [r3, #28]
 10261 0018 0122     		movs	r2, #1
 10262 001a 1A76     		strb	r2, [r3, #24]
2437:.\PrimeImpl.c ****         pjob->_ppump->_transtate = _PUMP_IDLE_;
 10263              		.loc 1 2437 0
 10264 001c FB68     		ldr	r3, [r7, #12]
 10265 001e DB69     		ldr	r3, [r3, #28]
 10266 0020 0222     		movs	r2, #2
 10267 0022 5A76     		strb	r2, [r3, #25]
2438:.\PrimeImpl.c ****         
2439:.\PrimeImpl.c ****         //If printing has been selected then post the print job
2440:.\PrimeImpl.c ****         if(pjob->_ppump->_trasactionbuffer[GetBufferIndexFromDisplayID(DISPLAY_DESEA_IMPRIMIR_RECIB
 10268              		.loc 1 2440 0
 10269 0024 FB68     		ldr	r3, [r7, #12]
 10270 0026 DC69     		ldr	r4, [r3, #28]
 10271 0028 0B20     		movs	r0, #11
 10272 002a FFF7FEFF 		bl	GetBufferIndexFromDisplayID
 10273 002e 0346     		mov	r3, r0
 10274 0030 2344     		add	r3, r3, r4
 10275 0032 93F82030 		ldrb	r3, [r3, #32]	@ zero_extendqisi2
 10276 0036 392B     		cmp	r3, #57
 10277 0038 40F0DF80 		bne	.L334
 10278              	.LBB55:
2441:.\PrimeImpl.c ****         {
2442:.\PrimeImpl.c ****             _ALLOCATE_SINKMESSAGE_SLOT(psinkmsg);
 10279              		.loc 1 2442 0
 10280 003c FFF7FEFF 		bl	AllocateMessageSlot
 10281 0040 B860     		str	r0, [r7, #8]
2443:.\PrimeImpl.c ****             if(psinkmsg)
 10282              		.loc 1 2443 0
 10283 0042 BB68     		ldr	r3, [r7, #8]
 10284 0044 002B     		cmp	r3, #0
 10285 0046 00F0D880 		beq	.L334
2444:.\PrimeImpl.c ****             {
2445:.\PrimeImpl.c ****                 switch(pjob->_ppump->_trasactionbuffer[GetBufferIndexFromDisplayID(DISPLAY_SIDE_DUM
 10286              		.loc 1 2445 0
 10287 004a FB68     		ldr	r3, [r7, #12]
 10288 004c DC69     		ldr	r4, [r3, #28]
 10289 004e FA20     		movs	r0, #250
 10290 0050 FFF7FEFF 		bl	GetBufferIndexFromDisplayID
 10291 0054 0346     		mov	r3, r0
 10292 0056 2344     		add	r3, r3, r4
 10293 0058 93F82030 		ldrb	r3, [r3, #32]	@ zero_extendqisi2
 10294 005c 002B     		cmp	r3, #0
 10295 005e 02D0     		beq	.L337
 10296 0060 012B     		cmp	r3, #1
 10297 0062 05D0     		beq	.L338
 10298 0064 09E0     		b	.L336
 10299              	.L337:
2446:.\PrimeImpl.c ****                 {
2447:.\PrimeImpl.c ****                     case DISPLAY1:
2448:.\PrimeImpl.c ****                     psinkmsg->_messageid = _g_printerlayout._printerportside1;
 10300              		.loc 1 2448 0
 10301 0066 664B     		ldr	r3, .L341
 10302 0068 1A78     		ldrb	r2, [r3]	@ zero_extendqisi2
 10303 006a BB68     		ldr	r3, [r7, #8]
ARM GAS  C:\Users\RECEPC~1\AppData\Local\Temp\ccNQP0pp.s 			page 226


 10304 006c 5A70     		strb	r2, [r3, #1]
2449:.\PrimeImpl.c ****                     break;
 10305              		.loc 1 2449 0
 10306 006e 04E0     		b	.L336
 10307              	.L338:
2450:.\PrimeImpl.c ****                     case DISPLAY2:
2451:.\PrimeImpl.c ****                     psinkmsg->_messageid = _g_printerlayout._printerportside2;
 10308              		.loc 1 2451 0
 10309 0070 634B     		ldr	r3, .L341
 10310 0072 5A78     		ldrb	r2, [r3, #1]	@ zero_extendqisi2
 10311 0074 BB68     		ldr	r3, [r7, #8]
 10312 0076 5A70     		strb	r2, [r3, #1]
2452:.\PrimeImpl.c ****                     break;
 10313              		.loc 1 2452 0
 10314 0078 00BF     		nop
 10315              	.L336:
2453:.\PrimeImpl.c ****                 }
2454:.\PrimeImpl.c ****                 psinkmsg->_messagetype = DELAYEDALLINTERESTED;
 10316              		.loc 1 2454 0
 10317 007a BB68     		ldr	r3, [r7, #8]
 10318 007c 0522     		movs	r2, #5
 10319 007e 9A70     		strb	r2, [r3, #2]
2455:.\PrimeImpl.c ****                 //Wait for 20 seconds before sending the command to the printer!
2456:.\PrimeImpl.c ****                 //This will give some time to allow the remote peer (NSX) to respond with the appro
2457:.\PrimeImpl.c ****                 if(_g_rfautorun._state == RF_AUTONOMOUS)
 10320              		.loc 1 2457 0
 10321 0080 604B     		ldr	r3, .L341+4
 10322 0082 1B78     		ldrb	r3, [r3]
 10323 0084 DBB2     		uxtb	r3, r3
 10324 0086 012B     		cmp	r3, #1
 10325 0088 04D1     		bne	.L339
2458:.\PrimeImpl.c ****                     psinkmsg->_messagedelay = _SINK_TIMEOUT_1S_;
 10326              		.loc 1 2458 0
 10327 008a BB68     		ldr	r3, [r7, #8]
 10328 008c 4FF47A72 		mov	r2, #1000
 10329 0090 9A80     		strh	r2, [r3, #4]	@ movhi
 10330 0092 03E0     		b	.L340
 10331              	.L339:
2459:.\PrimeImpl.c ****                 else
2460:.\PrimeImpl.c ****                     psinkmsg->_messagedelay = _SINK_TIMEOUT_30S_;
 10332              		.loc 1 2460 0
 10333 0094 BB68     		ldr	r3, [r7, #8]
 10334 0096 47F23052 		movw	r2, #30000
 10335 009a 9A80     		strh	r2, [r3, #4]	@ movhi
 10336              	.L340:
2461:.\PrimeImpl.c ****                 
2462:.\PrimeImpl.c ****                 //PUMP POSITION GOES IN THE ARRAY INDEX 0X00 (SEE THE FILE "PRINTERBLL.C")
2463:.\PrimeImpl.c ****                 psinkmsg->_buffer[0x00] = pjob->_ppump->_pumpid;
 10337              		.loc 1 2463 0
 10338 009c FB68     		ldr	r3, [r7, #12]
 10339 009e DB69     		ldr	r3, [r3, #28]
 10340 00a0 1A78     		ldrb	r2, [r3]	@ zero_extendqisi2
 10341 00a2 BB68     		ldr	r3, [r7, #8]
 10342 00a4 1A73     		strb	r2, [r3, #12]
2464:.\PrimeImpl.c ****                 //PUMP HOSE TO SELECT THE PRODUCT NAME
2465:.\PrimeImpl.c ****                 psinkmsg->_buffer[0x01] = pjob->_ppump->_authorizationinfo._hoseid;
 10343              		.loc 1 2465 0
ARM GAS  C:\Users\RECEPC~1\AppData\Local\Temp\ccNQP0pp.s 			page 227


 10344 00a6 FB68     		ldr	r3, [r7, #12]
 10345 00a8 DB69     		ldr	r3, [r3, #28]
 10346 00aa 93F87239 		ldrb	r3, [r3, #2418]
 10347 00ae DAB2     		uxtb	r2, r3
 10348 00b0 BB68     		ldr	r3, [r7, #8]
 10349 00b2 5A73     		strb	r2, [r3, #13]
2466:.\PrimeImpl.c ****                 psinkmsg->_buffer[0x02] = 0x06;//Six bytes for the price (PPU)
 10350              		.loc 1 2466 0
 10351 00b4 BB68     		ldr	r3, [r7, #8]
 10352 00b6 0622     		movs	r2, #6
 10353 00b8 9A73     		strb	r2, [r3, #14]
2467:.\PrimeImpl.c ****                 memset(&psinkmsg->_buffer[0x03], 0x00, 0x08);
 10354              		.loc 1 2467 0
 10355 00ba BB68     		ldr	r3, [r7, #8]
 10356 00bc 0F33     		adds	r3, r3, #15
 10357 00be 1846     		mov	r0, r3
 10358 00c0 0021     		movs	r1, #0
 10359 00c2 0822     		movs	r2, #8
 10360 00c4 FFF7FEFF 		bl	memset
2468:.\PrimeImpl.c ****                 B78AD90CF552D9B30A(pjob->_ppump->_authorizationinfo._price, PBYTECAST(&psinkmsg->_b
 10361              		.loc 1 2468 0
 10362 00c8 FB68     		ldr	r3, [r7, #12]
 10363 00ca DB69     		ldr	r3, [r3, #28]
 10364 00cc B3F87439 		ldrh	r3, [r3, #2420]	@ movhi
 10365 00d0 9BB2     		uxth	r3, r3
 10366 00d2 9AB2     		uxth	r2, r3
 10367 00d4 4FF00003 		mov	r3, #0
 10368 00d8 B968     		ldr	r1, [r7, #8]
 10369 00da 01F10F04 		add	r4, r1, #15
 10370 00de 1046     		mov	r0, r2
 10371 00e0 1946     		mov	r1, r3
 10372 00e2 2246     		mov	r2, r4
 10373 00e4 FFF7FEFF 		bl	B78AD90CF552D9B30A
2469:.\PrimeImpl.c ****                 psinkmsg->_buffer[0x09] = 0x08;//Eight bytes for the Volume
 10374              		.loc 1 2469 0
 10375 00e8 BB68     		ldr	r3, [r7, #8]
 10376 00ea 0822     		movs	r2, #8
 10377 00ec 5A75     		strb	r2, [r3, #21]
2470:.\PrimeImpl.c ****                 memset(&psinkmsg->_buffer[0x0A], 0x00, 0x08);
 10378              		.loc 1 2470 0
 10379 00ee BB68     		ldr	r3, [r7, #8]
 10380 00f0 1633     		adds	r3, r3, #22
 10381 00f2 1846     		mov	r0, r3
 10382 00f4 0021     		movs	r1, #0
 10383 00f6 0822     		movs	r2, #8
 10384 00f8 FFF7FEFF 		bl	memset
2471:.\PrimeImpl.c ****                 B78AD90CF552D9B30A(pjob->_ppump->_authorizationinfo._volumeamount, PBYTECAST(&psink
 10385              		.loc 1 2471 0
 10386 00fc FB68     		ldr	r3, [r7, #12]
 10387 00fe DB69     		ldr	r3, [r3, #28]
 10388 0100 D3F87C39 		ldr	r3, [r3, #2428]
 10389 0104 1A46     		mov	r2, r3
 10390 0106 4FF00003 		mov	r3, #0
 10391 010a B968     		ldr	r1, [r7, #8]
 10392 010c 01F11604 		add	r4, r1, #22
 10393 0110 1046     		mov	r0, r2
 10394 0112 1946     		mov	r1, r3
ARM GAS  C:\Users\RECEPC~1\AppData\Local\Temp\ccNQP0pp.s 			page 228


 10395 0114 2246     		mov	r2, r4
 10396 0116 FFF7FEFF 		bl	B78AD90CF552D9B30A
2472:.\PrimeImpl.c ****                 psinkmsg->_buffer[0x12] = 0x08;//Eight bytes for the Preset
 10397              		.loc 1 2472 0
 10398 011a BB68     		ldr	r3, [r7, #8]
 10399 011c 0822     		movs	r2, #8
 10400 011e 9A77     		strb	r2, [r3, #30]
2473:.\PrimeImpl.c ****                 memset(&psinkmsg->_buffer[0x13], 0x00, 0x08);
 10401              		.loc 1 2473 0
 10402 0120 BB68     		ldr	r3, [r7, #8]
 10403 0122 1F33     		adds	r3, r3, #31
 10404 0124 1846     		mov	r0, r3
 10405 0126 0021     		movs	r1, #0
 10406 0128 0822     		movs	r2, #8
 10407 012a FFF7FEFF 		bl	memset
2474:.\PrimeImpl.c ****                 B78AD90CF552D9B30A(pjob->_ppump->_authorizationinfo._presetamount, PBYTECAST(&psink
 10408              		.loc 1 2474 0
 10409 012e FB68     		ldr	r3, [r7, #12]
 10410 0130 DB69     		ldr	r3, [r3, #28]
 10411 0132 D3F87839 		ldr	r3, [r3, #2424]
 10412 0136 1A46     		mov	r2, r3
 10413 0138 4FF00003 		mov	r3, #0
 10414 013c B968     		ldr	r1, [r7, #8]
 10415 013e 01F11F04 		add	r4, r1, #31
 10416 0142 1046     		mov	r0, r2
 10417 0144 1946     		mov	r1, r3
 10418 0146 2246     		mov	r2, r4
 10419 0148 FFF7FEFF 		bl	B78AD90CF552D9B30A
2475:.\PrimeImpl.c ****                 
2476:.\PrimeImpl.c ****                 //This is the transaction type (Cash: 0x0D / Credit: 0x0E). See the documentation t
2477:.\PrimeImpl.c ****                 psinkmsg->_buffer[0x1B] = pjob->_ppump->_trasactionbuffer[GetBufferIndexFromDisplay
 10420              		.loc 1 2477 0
 10421 014c FB68     		ldr	r3, [r7, #12]
 10422 014e DC69     		ldr	r4, [r3, #28]
 10423 0150 0420     		movs	r0, #4
 10424 0152 FFF7FEFF 		bl	GetBufferIndexFromDisplayID
 10425 0156 0346     		mov	r3, r0
 10426 0158 2344     		add	r3, r3, r4
 10427 015a 93F82020 		ldrb	r2, [r3, #32]	@ zero_extendqisi2
 10428 015e BB68     		ldr	r3, [r7, #8]
 10429 0160 83F82720 		strb	r2, [r3, #39]
2478:.\PrimeImpl.c ****                 
2479:.\PrimeImpl.c ****                 //This means "N/A". This will be printed once the timeout has expired and no invoic
2480:.\PrimeImpl.c ****                 //has been received
2481:.\PrimeImpl.c ****                 psinkmsg->_buffer[0x20] = 0x4E;
 10430              		.loc 1 2481 0
 10431 0164 BB68     		ldr	r3, [r7, #8]
 10432 0166 4E22     		movs	r2, #78
 10433 0168 83F82C20 		strb	r2, [r3, #44]
2482:.\PrimeImpl.c ****                 psinkmsg->_buffer[0x21] = 0x2F;
 10434              		.loc 1 2482 0
 10435 016c BB68     		ldr	r3, [r7, #8]
 10436 016e 2F22     		movs	r2, #47
 10437 0170 83F82D20 		strb	r2, [r3, #45]
2483:.\PrimeImpl.c ****                 psinkmsg->_buffer[0x22] = 0x41;
 10438              		.loc 1 2483 0
 10439 0174 BB68     		ldr	r3, [r7, #8]
ARM GAS  C:\Users\RECEPC~1\AppData\Local\Temp\ccNQP0pp.s 			page 229


 10440 0176 4122     		movs	r2, #65
 10441 0178 83F82E20 		strb	r2, [r3, #46]
2484:.\PrimeImpl.c ****                 //Car's plate
2485:.\PrimeImpl.c ****                 psinkmsg->_buffer[0x2A] = 0x4E;
 10442              		.loc 1 2485 0
 10443 017c BB68     		ldr	r3, [r7, #8]
 10444 017e 4E22     		movs	r2, #78
 10445 0180 83F83620 		strb	r2, [r3, #54]
2486:.\PrimeImpl.c ****                 psinkmsg->_buffer[0x2B] = 0x2F;
 10446              		.loc 1 2486 0
 10447 0184 BB68     		ldr	r3, [r7, #8]
 10448 0186 2F22     		movs	r2, #47
 10449 0188 83F83720 		strb	r2, [r3, #55]
2487:.\PrimeImpl.c ****                 psinkmsg->_buffer[0x2C] = 0x41;
 10450              		.loc 1 2487 0
 10451 018c BB68     		ldr	r3, [r7, #8]
 10452 018e 4122     		movs	r2, #65
 10453 0190 83F83820 		strb	r2, [r3, #56]
2488:.\PrimeImpl.c ****                 //Balance
2489:.\PrimeImpl.c ****                 psinkmsg->_buffer[0x32] = 0x4E;
 10454              		.loc 1 2489 0
 10455 0194 BB68     		ldr	r3, [r7, #8]
 10456 0196 4E22     		movs	r2, #78
 10457 0198 83F83E20 		strb	r2, [r3, #62]
2490:.\PrimeImpl.c ****                 psinkmsg->_buffer[0x33] = 0x2F;
 10458              		.loc 1 2490 0
 10459 019c BB68     		ldr	r3, [r7, #8]
 10460 019e 2F22     		movs	r2, #47
 10461 01a0 83F83F20 		strb	r2, [r3, #63]
2491:.\PrimeImpl.c ****                 psinkmsg->_buffer[0x34] = 0x41;
 10462              		.loc 1 2491 0
 10463 01a4 BB68     		ldr	r3, [r7, #8]
 10464 01a6 4122     		movs	r2, #65
 10465 01a8 83F84020 		strb	r2, [r3, #64]
2492:.\PrimeImpl.c ****                 //Company
2493:.\PrimeImpl.c ****                 psinkmsg->_buffer[0x3C] = 0x4E;
 10466              		.loc 1 2493 0
 10467 01ac BB68     		ldr	r3, [r7, #8]
 10468 01ae 4E22     		movs	r2, #78
 10469 01b0 83F84820 		strb	r2, [r3, #72]
2494:.\PrimeImpl.c ****                 psinkmsg->_buffer[0x3D] = 0x2F;
 10470              		.loc 1 2494 0
 10471 01b4 BB68     		ldr	r3, [r7, #8]
 10472 01b6 2F22     		movs	r2, #47
 10473 01b8 83F84920 		strb	r2, [r3, #73]
2495:.\PrimeImpl.c ****                 psinkmsg->_buffer[0x3E] = 0x41;
 10474              		.loc 1 2495 0
 10475 01bc BB68     		ldr	r3, [r7, #8]
 10476 01be 4122     		movs	r2, #65
 10477 01c0 83F84A20 		strb	r2, [r3, #74]
2496:.\PrimeImpl.c ****                 //Account Name
2497:.\PrimeImpl.c ****                 psinkmsg->_buffer[0x50] = 0x4E;
 10478              		.loc 1 2497 0
 10479 01c4 BB68     		ldr	r3, [r7, #8]
 10480 01c6 4E22     		movs	r2, #78
 10481 01c8 83F85C20 		strb	r2, [r3, #92]
2498:.\PrimeImpl.c ****                 psinkmsg->_buffer[0x51] = 0x2F;
ARM GAS  C:\Users\RECEPC~1\AppData\Local\Temp\ccNQP0pp.s 			page 230


 10482              		.loc 1 2498 0
 10483 01cc BB68     		ldr	r3, [r7, #8]
 10484 01ce 2F22     		movs	r2, #47
 10485 01d0 83F85D20 		strb	r2, [r3, #93]
2499:.\PrimeImpl.c ****                 psinkmsg->_buffer[0x52] = 0x41;
 10486              		.loc 1 2499 0
 10487 01d4 BB68     		ldr	r3, [r7, #8]
 10488 01d6 4122     		movs	r2, #65
 10489 01d8 83F85E20 		strb	r2, [r3, #94]
2500:.\PrimeImpl.c ****                 //Daily Visits
2501:.\PrimeImpl.c ****                 psinkmsg->_buffer[0x64] = 0x00;
 10490              		.loc 1 2501 0
 10491 01dc BB68     		ldr	r3, [r7, #8]
 10492 01de 0022     		movs	r2, #0
 10493 01e0 83F87020 		strb	r2, [r3, #112]
2502:.\PrimeImpl.c ****                 //Weekly Visits
2503:.\PrimeImpl.c ****                 psinkmsg->_buffer[0x65] = 0x00;
 10494              		.loc 1 2503 0
 10495 01e4 BB68     		ldr	r3, [r7, #8]
 10496 01e6 0022     		movs	r2, #0
 10497 01e8 83F87120 		strb	r2, [r3, #113]
2504:.\PrimeImpl.c ****                 //Monthly Visits
2505:.\PrimeImpl.c ****                 psinkmsg->_buffer[0x66] = 0x00;
 10498              		.loc 1 2505 0
 10499 01ec BB68     		ldr	r3, [r7, #8]
 10500 01ee 0022     		movs	r2, #0
 10501 01f0 83F87220 		strb	r2, [r3, #114]
2506:.\PrimeImpl.c **** 
2507:.\PrimeImpl.c ****                 psinkmsg->_messagestate = SINK_BUSY;
 10502              		.loc 1 2507 0
 10503 01f4 BB68     		ldr	r3, [r7, #8]
 10504 01f6 0322     		movs	r2, #3
 10505 01f8 DA70     		strb	r2, [r3, #3]
 10506              	.L334:
 10507              	.LBE55:
2508:.\PrimeImpl.c ****             }    
2509:.\PrimeImpl.c ****         }
2510:.\PrimeImpl.c ****     }
2511:.\PrimeImpl.c **** }
 10508              		.loc 1 2511 0
 10509 01fa 1437     		adds	r7, r7, #20
 10510              		.cfi_def_cfa_offset 12
 10511 01fc BD46     		mov	sp, r7
 10512              		.cfi_def_cfa_register 13
 10513              		@ sp needed
 10514 01fe 90BD     		pop	{r4, r7, pc}
 10515              	.L342:
 10516              		.align	2
 10517              	.L341:
 10518 0200 00000000 		.word	_g_printerlayout
 10519 0204 00000000 		.word	_g_rfautorun
 10520              		.cfi_endproc
 10521              	.LFE114:
 10522              		.size	TerminateTransactionAndPrint, .-TerminateTransactionAndPrint
 10523              		.section	.text.CastVolumeValue,"ax",%progbits
 10524              		.align	2
 10525              		.global	CastVolumeValue
ARM GAS  C:\Users\RECEPC~1\AppData\Local\Temp\ccNQP0pp.s 			page 231


 10526              		.thumb
 10527              		.thumb_func
 10528              		.type	CastVolumeValue, %function
 10529              	CastVolumeValue:
 10530              	.LFB115:
2512:.\PrimeImpl.c **** 
2513:.\PrimeImpl.c **** //@Created by: HIJH
2514:.\PrimeImpl.c **** //@Date: Septembre de 2016
2515:.\PrimeImpl.c **** //This method arranges the PRESET buffer when this is a "Volume PRESET".
2516:.\PrimeImpl.c **** //Volume PRESETS must be multiplied by 1000
2517:.\PrimeImpl.c **** void CastVolumeValue(char8 *pbuffer, uint8 buffersize)
2518:.\PrimeImpl.c **** {
 10531              		.loc 1 2518 0
 10532              		.cfi_startproc
 10533              		@ args = 0, pretend = 0, frame = 16
 10534              		@ frame_needed = 1, uses_anonymous_args = 0
 10535              		@ link register save eliminated.
 10536 0000 80B4     		push	{r7}
 10537              		.cfi_def_cfa_offset 4
 10538              		.cfi_offset 7, -4
 10539 0002 85B0     		sub	sp, sp, #20
 10540              		.cfi_def_cfa_offset 24
 10541 0004 00AF     		add	r7, sp, #0
 10542              		.cfi_def_cfa_register 7
 10543 0006 7860     		str	r0, [r7, #4]
 10544 0008 0B46     		mov	r3, r1
 10545 000a FB70     		strb	r3, [r7, #3]
2519:.\PrimeImpl.c ****     uint8 delimiterindex = 0x00;
 10546              		.loc 1 2519 0
 10547 000c 0023     		movs	r3, #0
 10548 000e FB73     		strb	r3, [r7, #15]
2520:.\PrimeImpl.c ****     bool shiftbydelimiter = false;
 10549              		.loc 1 2520 0
 10550 0010 0023     		movs	r3, #0
 10551 0012 BB73     		strb	r3, [r7, #14]
2521:.\PrimeImpl.c ****     //If there is a "Comma" inside of the buffer, then just remove it before and count this for the
2522:.\PrimeImpl.c ****     FOR(int8 index = (buffersize - 1), index > 0, index--)
 10552              		.loc 1 2522 0
 10553 0014 FB78     		ldrb	r3, [r7, #3]
 10554 0016 013B     		subs	r3, r3, #1
 10555 0018 DBB2     		uxtb	r3, r3
 10556 001a 7B73     		strb	r3, [r7, #13]
 10557 001c 2CE0     		b	.L344
 10558              	.L348:
2523:.\PrimeImpl.c ****     {
2524:.\PrimeImpl.c ****         if(pbuffer[index] == 0x2C && !shiftbydelimiter)
 10559              		.loc 1 2524 0
 10560 001e 97F90D30 		ldrsb	r3, [r7, #13]
 10561 0022 7A68     		ldr	r2, [r7, #4]
 10562 0024 1344     		add	r3, r3, r2
 10563 0026 1B78     		ldrb	r3, [r3]	@ zero_extendqisi2
 10564 0028 2C2B     		cmp	r3, #44
 10565 002a 07D1     		bne	.L345
 10566              		.loc 1 2524 0 is_stmt 0 discriminator 1
 10567 002c BB7B     		ldrb	r3, [r7, #14]
 10568 002e 83F00103 		eor	r3, r3, #1
 10569 0032 DBB2     		uxtb	r3, r3
ARM GAS  C:\Users\RECEPC~1\AppData\Local\Temp\ccNQP0pp.s 			page 232


 10570 0034 002B     		cmp	r3, #0
 10571 0036 01D0     		beq	.L345
2525:.\PrimeImpl.c ****             shiftbydelimiter = true;
 10572              		.loc 1 2525 0 is_stmt 1
 10573 0038 0123     		movs	r3, #1
 10574 003a BB73     		strb	r3, [r7, #14]
 10575              	.L345:
2526:.\PrimeImpl.c **** 
2527:.\PrimeImpl.c ****         if(shiftbydelimiter)
 10576              		.loc 1 2527 0
 10577 003c BB7B     		ldrb	r3, [r7, #14]	@ zero_extendqisi2
 10578 003e 002B     		cmp	r3, #0
 10579 0040 12D0     		beq	.L346
2528:.\PrimeImpl.c ****         {
2529:.\PrimeImpl.c ****             pbuffer[index] = pbuffer[index - 1];
 10580              		.loc 1 2529 0
 10581 0042 97F90D30 		ldrsb	r3, [r7, #13]
 10582 0046 7A68     		ldr	r2, [r7, #4]
 10583 0048 1344     		add	r3, r3, r2
 10584 004a 97F90D20 		ldrsb	r2, [r7, #13]
 10585 004e 013A     		subs	r2, r2, #1
 10586 0050 7968     		ldr	r1, [r7, #4]
 10587 0052 0A44     		add	r2, r2, r1
 10588 0054 1278     		ldrb	r2, [r2]	@ zero_extendqisi2
 10589 0056 1A70     		strb	r2, [r3]
2530:.\PrimeImpl.c ****             pbuffer[index - 1] = 0x00;
 10590              		.loc 1 2530 0
 10591 0058 97F90D30 		ldrsb	r3, [r7, #13]
 10592 005c 013B     		subs	r3, r3, #1
 10593 005e 7A68     		ldr	r2, [r7, #4]
 10594 0060 1344     		add	r3, r3, r2
 10595 0062 0022     		movs	r2, #0
 10596 0064 1A70     		strb	r2, [r3]
 10597 0066 02E0     		b	.L347
 10598              	.L346:
2531:.\PrimeImpl.c ****         }else
2532:.\PrimeImpl.c ****             delimiterindex++;
 10599              		.loc 1 2532 0
 10600 0068 FB7B     		ldrb	r3, [r7, #15]	@ zero_extendqisi2
 10601 006a 0133     		adds	r3, r3, #1
 10602 006c FB73     		strb	r3, [r7, #15]
 10603              	.L347:
2522:.\PrimeImpl.c ****     {
 10604              		.loc 1 2522 0 discriminator 2
 10605 006e 7B7B     		ldrb	r3, [r7, #13]	@ zero_extendqisi2
 10606 0070 DBB2     		uxtb	r3, r3
 10607 0072 013B     		subs	r3, r3, #1
 10608 0074 DBB2     		uxtb	r3, r3
 10609 0076 7B73     		strb	r3, [r7, #13]
 10610              	.L344:
2522:.\PrimeImpl.c ****     {
 10611              		.loc 1 2522 0 is_stmt 0 discriminator 1
 10612 0078 97F90D30 		ldrsb	r3, [r7, #13]
 10613 007c 002B     		cmp	r3, #0
 10614 007e CEDC     		bgt	.L348
2533:.\PrimeImpl.c ****         
2534:.\PrimeImpl.c ****     }
ARM GAS  C:\Users\RECEPC~1\AppData\Local\Temp\ccNQP0pp.s 			page 233


2535:.\PrimeImpl.c ****     if(!shiftbydelimiter)
 10615              		.loc 1 2535 0 is_stmt 1
 10616 0080 BB7B     		ldrb	r3, [r7, #14]
 10617 0082 83F00103 		eor	r3, r3, #1
 10618 0086 DBB2     		uxtb	r3, r3
 10619 0088 002B     		cmp	r3, #0
 10620 008a 01D0     		beq	.L349
2536:.\PrimeImpl.c ****         delimiterindex = 0x00;
 10621              		.loc 1 2536 0
 10622 008c 0023     		movs	r3, #0
 10623 008e FB73     		strb	r3, [r7, #15]
 10624              	.L349:
2537:.\PrimeImpl.c ****     
2538:.\PrimeImpl.c ****     int8 shiftcount = (delimiterindex - _g_dispenserlayoutinfo._volumedecimals);
 10625              		.loc 1 2538 0
 10626 0090 334B     		ldr	r3, .L360
 10627 0092 5B7A     		ldrb	r3, [r3, #9]	@ zero_extendqisi2
 10628 0094 FA7B     		ldrb	r2, [r7, #15]
 10629 0096 D31A     		subs	r3, r2, r3
 10630 0098 DBB2     		uxtb	r3, r3
 10631 009a 3B73     		strb	r3, [r7, #12]
2539:.\PrimeImpl.c ****     //8 is the size of the allocated buffer space for the preset values according to the protocol.
2540:.\PrimeImpl.c ****     //The real buffer size allocated from the display side is 16 bytes. The buffer will be cast fro
2541:.\PrimeImpl.c ****     //the end to the beginning, so the startup index has been calculated "explicitly", this is (8 -
2542:.\PrimeImpl.c ****     //To multiply by 1000 we need to shift the entire buffer three bytes to shift the comma, so we
2543:.\PrimeImpl.c ****     //will subtract 3 bytes to the starting position in order to make the shifting.
2544:.\PrimeImpl.c ****     if(shiftcount > 0)
 10632              		.loc 1 2544 0
 10633 009c 97F90C30 		ldrsb	r3, [r7, #12]
 10634 00a0 002B     		cmp	r3, #0
 10635 00a2 29DD     		ble	.L350
2545:.\PrimeImpl.c ****     {
2546:.\PrimeImpl.c ****         while(shiftcount > 0)
 10636              		.loc 1 2546 0
 10637 00a4 23E0     		b	.L351
 10638              	.L354:
2547:.\PrimeImpl.c ****         {
2548:.\PrimeImpl.c ****             FOR(index = (buffersize - 1), index > 0, index--)
 10639              		.loc 1 2548 0
 10640 00a6 FB78     		ldrb	r3, [r7, #3]
 10641 00a8 013B     		subs	r3, r3, #1
 10642 00aa DBB2     		uxtb	r3, r3
 10643 00ac 7B73     		strb	r3, [r7, #13]
 10644 00ae 15E0     		b	.L352
 10645              	.L353:
2549:.\PrimeImpl.c ****             {
2550:.\PrimeImpl.c ****                 pbuffer[index] = pbuffer[index - 1];
 10646              		.loc 1 2550 0 discriminator 3
 10647 00b0 97F90D30 		ldrsb	r3, [r7, #13]
 10648 00b4 7A68     		ldr	r2, [r7, #4]
 10649 00b6 1344     		add	r3, r3, r2
 10650 00b8 97F90D20 		ldrsb	r2, [r7, #13]
 10651 00bc 013A     		subs	r2, r2, #1
 10652 00be 7968     		ldr	r1, [r7, #4]
 10653 00c0 0A44     		add	r2, r2, r1
 10654 00c2 1278     		ldrb	r2, [r2]	@ zero_extendqisi2
 10655 00c4 1A70     		strb	r2, [r3]
ARM GAS  C:\Users\RECEPC~1\AppData\Local\Temp\ccNQP0pp.s 			page 234


2551:.\PrimeImpl.c ****                 pbuffer[index] = 0x00;
 10656              		.loc 1 2551 0 discriminator 3
 10657 00c6 97F90D30 		ldrsb	r3, [r7, #13]
 10658 00ca 7A68     		ldr	r2, [r7, #4]
 10659 00cc 1344     		add	r3, r3, r2
 10660 00ce 0022     		movs	r2, #0
 10661 00d0 1A70     		strb	r2, [r3]
2548:.\PrimeImpl.c ****             {
 10662              		.loc 1 2548 0 discriminator 3
 10663 00d2 7B7B     		ldrb	r3, [r7, #13]	@ zero_extendqisi2
 10664 00d4 DBB2     		uxtb	r3, r3
 10665 00d6 013B     		subs	r3, r3, #1
 10666 00d8 DBB2     		uxtb	r3, r3
 10667 00da 7B73     		strb	r3, [r7, #13]
 10668              	.L352:
2548:.\PrimeImpl.c ****             {
 10669              		.loc 1 2548 0 is_stmt 0 discriminator 1
 10670 00dc 97F90D30 		ldrsb	r3, [r7, #13]
 10671 00e0 002B     		cmp	r3, #0
 10672 00e2 E5DC     		bgt	.L353
2552:.\PrimeImpl.c ****             }
2553:.\PrimeImpl.c ****             shiftcount--;
 10673              		.loc 1 2553 0 is_stmt 1
 10674 00e4 3B7B     		ldrb	r3, [r7, #12]	@ zero_extendqisi2
 10675 00e6 DBB2     		uxtb	r3, r3
 10676 00e8 013B     		subs	r3, r3, #1
 10677 00ea DBB2     		uxtb	r3, r3
 10678 00ec 3B73     		strb	r3, [r7, #12]
 10679              	.L351:
2546:.\PrimeImpl.c ****         {
 10680              		.loc 1 2546 0
 10681 00ee 97F90C30 		ldrsb	r3, [r7, #12]
 10682 00f2 002B     		cmp	r3, #0
 10683 00f4 D7DC     		bgt	.L354
 10684 00f6 2DE0     		b	.L343
 10685              	.L350:
2554:.\PrimeImpl.c ****         }
2555:.\PrimeImpl.c ****     }
2556:.\PrimeImpl.c ****     else if(shiftcount < 0)
 10686              		.loc 1 2556 0
 10687 00f8 97F90C30 		ldrsb	r3, [r7, #12]
 10688 00fc 002B     		cmp	r3, #0
 10689 00fe 29DA     		bge	.L343
2557:.\PrimeImpl.c ****     {
2558:.\PrimeImpl.c ****         while(shiftcount < 0)
 10690              		.loc 1 2558 0
 10691 0100 24E0     		b	.L356
 10692              	.L359:
2559:.\PrimeImpl.c ****         {
2560:.\PrimeImpl.c ****             FOR(index = 0, index < (buffersize  - 1), index++)
 10693              		.loc 1 2560 0
 10694 0102 0023     		movs	r3, #0
 10695 0104 7B73     		strb	r3, [r7, #13]
 10696 0106 16E0     		b	.L357
 10697              	.L358:
2561:.\PrimeImpl.c ****             {
2562:.\PrimeImpl.c ****                 pbuffer[index] = pbuffer[index + 1];
ARM GAS  C:\Users\RECEPC~1\AppData\Local\Temp\ccNQP0pp.s 			page 235


 10698              		.loc 1 2562 0 discriminator 3
 10699 0108 97F90D30 		ldrsb	r3, [r7, #13]
 10700 010c 7A68     		ldr	r2, [r7, #4]
 10701 010e 1344     		add	r3, r3, r2
 10702 0110 97F90D20 		ldrsb	r2, [r7, #13]
 10703 0114 0132     		adds	r2, r2, #1
 10704 0116 7968     		ldr	r1, [r7, #4]
 10705 0118 0A44     		add	r2, r2, r1
 10706 011a 1278     		ldrb	r2, [r2]	@ zero_extendqisi2
 10707 011c 1A70     		strb	r2, [r3]
2563:.\PrimeImpl.c ****                 pbuffer[index + 1] = 0x30;
 10708              		.loc 1 2563 0 discriminator 3
 10709 011e 97F90D30 		ldrsb	r3, [r7, #13]
 10710 0122 0133     		adds	r3, r3, #1
 10711 0124 7A68     		ldr	r2, [r7, #4]
 10712 0126 1344     		add	r3, r3, r2
 10713 0128 3022     		movs	r2, #48
 10714 012a 1A70     		strb	r2, [r3]
2560:.\PrimeImpl.c ****             {
 10715              		.loc 1 2560 0 discriminator 3
 10716 012c 7B7B     		ldrb	r3, [r7, #13]	@ zero_extendqisi2
 10717 012e DBB2     		uxtb	r3, r3
 10718 0130 0133     		adds	r3, r3, #1
 10719 0132 DBB2     		uxtb	r3, r3
 10720 0134 7B73     		strb	r3, [r7, #13]
 10721              	.L357:
2560:.\PrimeImpl.c ****             {
 10722              		.loc 1 2560 0 is_stmt 0 discriminator 1
 10723 0136 97F90D20 		ldrsb	r2, [r7, #13]
 10724 013a FB78     		ldrb	r3, [r7, #3]	@ zero_extendqisi2
 10725 013c 013B     		subs	r3, r3, #1
 10726 013e 9A42     		cmp	r2, r3
 10727 0140 E2DB     		blt	.L358
2564:.\PrimeImpl.c ****             }
2565:.\PrimeImpl.c ****             shiftcount++;
 10728              		.loc 1 2565 0 is_stmt 1
 10729 0142 3B7B     		ldrb	r3, [r7, #12]	@ zero_extendqisi2
 10730 0144 DBB2     		uxtb	r3, r3
 10731 0146 0133     		adds	r3, r3, #1
 10732 0148 DBB2     		uxtb	r3, r3
 10733 014a 3B73     		strb	r3, [r7, #12]
 10734              	.L356:
2558:.\PrimeImpl.c ****         {
 10735              		.loc 1 2558 0
 10736 014c 97F90C30 		ldrsb	r3, [r7, #12]
 10737 0150 002B     		cmp	r3, #0
 10738 0152 D6DB     		blt	.L359
 10739              	.L343:
2566:.\PrimeImpl.c ****         }
2567:.\PrimeImpl.c ****     }
2568:.\PrimeImpl.c **** }
 10740              		.loc 1 2568 0
 10741 0154 1437     		adds	r7, r7, #20
 10742              		.cfi_def_cfa_offset 4
 10743 0156 BD46     		mov	sp, r7
 10744              		.cfi_def_cfa_register 13
 10745              		@ sp needed
ARM GAS  C:\Users\RECEPC~1\AppData\Local\Temp\ccNQP0pp.s 			page 236


 10746 0158 5DF8047B 		ldr	r7, [sp], #4
 10747              		.cfi_restore 7
 10748              		.cfi_def_cfa_offset 0
 10749 015c 7047     		bx	lr
 10750              	.L361:
 10751 015e 00BF     		.align	2
 10752              	.L360:
 10753 0160 00000000 		.word	_g_dispenserlayoutinfo
 10754              		.cfi_endproc
 10755              	.LFE115:
 10756              		.size	CastVolumeValue, .-CastVolumeValue
 10757              		.section	.text.CastMoneyValue,"ax",%progbits
 10758              		.align	2
 10759              		.global	CastMoneyValue
 10760              		.thumb
 10761              		.thumb_func
 10762              		.type	CastMoneyValue, %function
 10763              	CastMoneyValue:
 10764              	.LFB116:
2569:.\PrimeImpl.c **** 
2570:.\PrimeImpl.c **** //@Created by: HIJH
2571:.\PrimeImpl.c **** //@Date: Septembre de 2016
2572:.\PrimeImpl.c **** //This method arranges the PRESET buffer when this is a "Money PRESET".
2573:.\PrimeImpl.c **** void CastMoneyValue(char8 *pbuffer, uint8 buffersize)
2574:.\PrimeImpl.c **** {
 10765              		.loc 1 2574 0
 10766              		.cfi_startproc
 10767              		@ args = 0, pretend = 0, frame = 16
 10768              		@ frame_needed = 1, uses_anonymous_args = 0
 10769              		@ link register save eliminated.
 10770 0000 80B4     		push	{r7}
 10771              		.cfi_def_cfa_offset 4
 10772              		.cfi_offset 7, -4
 10773 0002 85B0     		sub	sp, sp, #20
 10774              		.cfi_def_cfa_offset 24
 10775 0004 00AF     		add	r7, sp, #0
 10776              		.cfi_def_cfa_register 7
 10777 0006 7860     		str	r0, [r7, #4]
 10778 0008 0B46     		mov	r3, r1
 10779 000a FB70     		strb	r3, [r7, #3]
2575:.\PrimeImpl.c ****     uint8 delimiterindex = 0x00;
 10780              		.loc 1 2575 0
 10781 000c 0023     		movs	r3, #0
 10782 000e FB73     		strb	r3, [r7, #15]
2576:.\PrimeImpl.c ****     bool shiftbydelimiter = false;
 10783              		.loc 1 2576 0
 10784 0010 0023     		movs	r3, #0
 10785 0012 BB73     		strb	r3, [r7, #14]
2577:.\PrimeImpl.c ****     //If there is a "Comma" inside of the buffer, then just remove it before and count this for the
2578:.\PrimeImpl.c ****     FOR(int8 index = (buffersize - 1), index > 0, index--)
 10786              		.loc 1 2578 0
 10787 0014 FB78     		ldrb	r3, [r7, #3]
 10788 0016 013B     		subs	r3, r3, #1
 10789 0018 DBB2     		uxtb	r3, r3
 10790 001a 7B73     		strb	r3, [r7, #13]
 10791 001c 2CE0     		b	.L363
 10792              	.L367:
ARM GAS  C:\Users\RECEPC~1\AppData\Local\Temp\ccNQP0pp.s 			page 237


2579:.\PrimeImpl.c ****     {
2580:.\PrimeImpl.c ****         if(pbuffer[index] == 0x2C && !shiftbydelimiter)
 10793              		.loc 1 2580 0
 10794 001e 97F90D30 		ldrsb	r3, [r7, #13]
 10795 0022 7A68     		ldr	r2, [r7, #4]
 10796 0024 1344     		add	r3, r3, r2
 10797 0026 1B78     		ldrb	r3, [r3]	@ zero_extendqisi2
 10798 0028 2C2B     		cmp	r3, #44
 10799 002a 07D1     		bne	.L364
 10800              		.loc 1 2580 0 is_stmt 0 discriminator 1
 10801 002c BB7B     		ldrb	r3, [r7, #14]
 10802 002e 83F00103 		eor	r3, r3, #1
 10803 0032 DBB2     		uxtb	r3, r3
 10804 0034 002B     		cmp	r3, #0
 10805 0036 01D0     		beq	.L364
2581:.\PrimeImpl.c ****             shiftbydelimiter = true;
 10806              		.loc 1 2581 0 is_stmt 1
 10807 0038 0123     		movs	r3, #1
 10808 003a BB73     		strb	r3, [r7, #14]
 10809              	.L364:
2582:.\PrimeImpl.c **** 
2583:.\PrimeImpl.c ****         if(shiftbydelimiter)
 10810              		.loc 1 2583 0
 10811 003c BB7B     		ldrb	r3, [r7, #14]	@ zero_extendqisi2
 10812 003e 002B     		cmp	r3, #0
 10813 0040 12D0     		beq	.L365
2584:.\PrimeImpl.c ****         {
2585:.\PrimeImpl.c ****             pbuffer[index] = pbuffer[index - 1];
 10814              		.loc 1 2585 0
 10815 0042 97F90D30 		ldrsb	r3, [r7, #13]
 10816 0046 7A68     		ldr	r2, [r7, #4]
 10817 0048 1344     		add	r3, r3, r2
 10818 004a 97F90D20 		ldrsb	r2, [r7, #13]
 10819 004e 013A     		subs	r2, r2, #1
 10820 0050 7968     		ldr	r1, [r7, #4]
 10821 0052 0A44     		add	r2, r2, r1
 10822 0054 1278     		ldrb	r2, [r2]	@ zero_extendqisi2
 10823 0056 1A70     		strb	r2, [r3]
2586:.\PrimeImpl.c ****             pbuffer[index - 1] = 0x00;
 10824              		.loc 1 2586 0
 10825 0058 97F90D30 		ldrsb	r3, [r7, #13]
 10826 005c 013B     		subs	r3, r3, #1
 10827 005e 7A68     		ldr	r2, [r7, #4]
 10828 0060 1344     		add	r3, r3, r2
 10829 0062 0022     		movs	r2, #0
 10830 0064 1A70     		strb	r2, [r3]
 10831 0066 02E0     		b	.L366
 10832              	.L365:
2587:.\PrimeImpl.c ****         }else
2588:.\PrimeImpl.c ****             delimiterindex++;
 10833              		.loc 1 2588 0
 10834 0068 FB7B     		ldrb	r3, [r7, #15]	@ zero_extendqisi2
 10835 006a 0133     		adds	r3, r3, #1
 10836 006c FB73     		strb	r3, [r7, #15]
 10837              	.L366:
2578:.\PrimeImpl.c ****     {
 10838              		.loc 1 2578 0 discriminator 2
ARM GAS  C:\Users\RECEPC~1\AppData\Local\Temp\ccNQP0pp.s 			page 238


 10839 006e 7B7B     		ldrb	r3, [r7, #13]	@ zero_extendqisi2
 10840 0070 DBB2     		uxtb	r3, r3
 10841 0072 013B     		subs	r3, r3, #1
 10842 0074 DBB2     		uxtb	r3, r3
 10843 0076 7B73     		strb	r3, [r7, #13]
 10844              	.L363:
2578:.\PrimeImpl.c ****     {
 10845              		.loc 1 2578 0 is_stmt 0 discriminator 1
 10846 0078 97F90D30 		ldrsb	r3, [r7, #13]
 10847 007c 002B     		cmp	r3, #0
 10848 007e CEDC     		bgt	.L367
2589:.\PrimeImpl.c ****         
2590:.\PrimeImpl.c ****     }
2591:.\PrimeImpl.c ****     if(!shiftbydelimiter)
 10849              		.loc 1 2591 0 is_stmt 1
 10850 0080 BB7B     		ldrb	r3, [r7, #14]
 10851 0082 83F00103 		eor	r3, r3, #1
 10852 0086 DBB2     		uxtb	r3, r3
 10853 0088 002B     		cmp	r3, #0
 10854 008a 01D0     		beq	.L368
2592:.\PrimeImpl.c ****         delimiterindex = 0x00;
 10855              		.loc 1 2592 0
 10856 008c 0023     		movs	r3, #0
 10857 008e FB73     		strb	r3, [r7, #15]
 10858              	.L368:
2593:.\PrimeImpl.c ****     
2594:.\PrimeImpl.c ****     int8 shiftcount = (delimiterindex - _g_dispenserlayoutinfo._moneydecimals);
 10859              		.loc 1 2594 0
 10860 0090 334B     		ldr	r3, .L379
 10861 0092 DB79     		ldrb	r3, [r3, #7]	@ zero_extendqisi2
 10862 0094 FA7B     		ldrb	r2, [r7, #15]
 10863 0096 D31A     		subs	r3, r2, r3
 10864 0098 DBB2     		uxtb	r3, r3
 10865 009a 3B73     		strb	r3, [r7, #12]
2595:.\PrimeImpl.c ****     //8 is the size of the allocated buffer space for the preset values according to the protocol.
2596:.\PrimeImpl.c ****     //The real buffer size allocated from the display side is 16 bytes. The buffer will be cast fro
2597:.\PrimeImpl.c ****     //the end to the beginning, so the startup index has been calculated "explicitly", this is (8 -
2598:.\PrimeImpl.c ****     //To multiply by 1000 we need to shift the entire buffer three bytes to shift the comma, so we
2599:.\PrimeImpl.c ****     //will subtract 3 bytes to the starting position in order to make the shifting.
2600:.\PrimeImpl.c ****     if(shiftcount > 0)
 10866              		.loc 1 2600 0
 10867 009c 97F90C30 		ldrsb	r3, [r7, #12]
 10868 00a0 002B     		cmp	r3, #0
 10869 00a2 29DD     		ble	.L369
2601:.\PrimeImpl.c ****     {
2602:.\PrimeImpl.c ****         while(shiftcount > 0)
 10870              		.loc 1 2602 0
 10871 00a4 23E0     		b	.L370
 10872              	.L373:
2603:.\PrimeImpl.c ****         {
2604:.\PrimeImpl.c ****             FOR(index = (buffersize - 1), index > 0, index--)
 10873              		.loc 1 2604 0
 10874 00a6 FB78     		ldrb	r3, [r7, #3]
 10875 00a8 013B     		subs	r3, r3, #1
 10876 00aa DBB2     		uxtb	r3, r3
 10877 00ac 7B73     		strb	r3, [r7, #13]
 10878 00ae 15E0     		b	.L371
ARM GAS  C:\Users\RECEPC~1\AppData\Local\Temp\ccNQP0pp.s 			page 239


 10879              	.L372:
2605:.\PrimeImpl.c ****             {
2606:.\PrimeImpl.c ****                 pbuffer[index] = pbuffer[index - 1];
 10880              		.loc 1 2606 0 discriminator 3
 10881 00b0 97F90D30 		ldrsb	r3, [r7, #13]
 10882 00b4 7A68     		ldr	r2, [r7, #4]
 10883 00b6 1344     		add	r3, r3, r2
 10884 00b8 97F90D20 		ldrsb	r2, [r7, #13]
 10885 00bc 013A     		subs	r2, r2, #1
 10886 00be 7968     		ldr	r1, [r7, #4]
 10887 00c0 0A44     		add	r2, r2, r1
 10888 00c2 1278     		ldrb	r2, [r2]	@ zero_extendqisi2
 10889 00c4 1A70     		strb	r2, [r3]
2607:.\PrimeImpl.c ****                 pbuffer[index] = 0x00;
 10890              		.loc 1 2607 0 discriminator 3
 10891 00c6 97F90D30 		ldrsb	r3, [r7, #13]
 10892 00ca 7A68     		ldr	r2, [r7, #4]
 10893 00cc 1344     		add	r3, r3, r2
 10894 00ce 0022     		movs	r2, #0
 10895 00d0 1A70     		strb	r2, [r3]
2604:.\PrimeImpl.c ****             {
 10896              		.loc 1 2604 0 discriminator 3
 10897 00d2 7B7B     		ldrb	r3, [r7, #13]	@ zero_extendqisi2
 10898 00d4 DBB2     		uxtb	r3, r3
 10899 00d6 013B     		subs	r3, r3, #1
 10900 00d8 DBB2     		uxtb	r3, r3
 10901 00da 7B73     		strb	r3, [r7, #13]
 10902              	.L371:
2604:.\PrimeImpl.c ****             {
 10903              		.loc 1 2604 0 is_stmt 0 discriminator 1
 10904 00dc 97F90D30 		ldrsb	r3, [r7, #13]
 10905 00e0 002B     		cmp	r3, #0
 10906 00e2 E5DC     		bgt	.L372
2608:.\PrimeImpl.c ****             }
2609:.\PrimeImpl.c ****             shiftcount--;
 10907              		.loc 1 2609 0 is_stmt 1
 10908 00e4 3B7B     		ldrb	r3, [r7, #12]	@ zero_extendqisi2
 10909 00e6 DBB2     		uxtb	r3, r3
 10910 00e8 013B     		subs	r3, r3, #1
 10911 00ea DBB2     		uxtb	r3, r3
 10912 00ec 3B73     		strb	r3, [r7, #12]
 10913              	.L370:
2602:.\PrimeImpl.c ****         {
 10914              		.loc 1 2602 0
 10915 00ee 97F90C30 		ldrsb	r3, [r7, #12]
 10916 00f2 002B     		cmp	r3, #0
 10917 00f4 D7DC     		bgt	.L373
 10918 00f6 2DE0     		b	.L362
 10919              	.L369:
2610:.\PrimeImpl.c ****         }
2611:.\PrimeImpl.c ****     }
2612:.\PrimeImpl.c ****     else if(shiftcount < 0)
 10920              		.loc 1 2612 0
 10921 00f8 97F90C30 		ldrsb	r3, [r7, #12]
 10922 00fc 002B     		cmp	r3, #0
 10923 00fe 29DA     		bge	.L362
2613:.\PrimeImpl.c ****     {
ARM GAS  C:\Users\RECEPC~1\AppData\Local\Temp\ccNQP0pp.s 			page 240


2614:.\PrimeImpl.c ****         while(shiftcount < 0)
 10924              		.loc 1 2614 0
 10925 0100 24E0     		b	.L375
 10926              	.L378:
2615:.\PrimeImpl.c ****         {
2616:.\PrimeImpl.c ****             FOR(index = 0, index < (buffersize  - 1), index++)
 10927              		.loc 1 2616 0
 10928 0102 0023     		movs	r3, #0
 10929 0104 7B73     		strb	r3, [r7, #13]
 10930 0106 16E0     		b	.L376
 10931              	.L377:
2617:.\PrimeImpl.c ****             {
2618:.\PrimeImpl.c ****                 pbuffer[index] = pbuffer[index + 1];
 10932              		.loc 1 2618 0 discriminator 3
 10933 0108 97F90D30 		ldrsb	r3, [r7, #13]
 10934 010c 7A68     		ldr	r2, [r7, #4]
 10935 010e 1344     		add	r3, r3, r2
 10936 0110 97F90D20 		ldrsb	r2, [r7, #13]
 10937 0114 0132     		adds	r2, r2, #1
 10938 0116 7968     		ldr	r1, [r7, #4]
 10939 0118 0A44     		add	r2, r2, r1
 10940 011a 1278     		ldrb	r2, [r2]	@ zero_extendqisi2
 10941 011c 1A70     		strb	r2, [r3]
2619:.\PrimeImpl.c ****                 pbuffer[index + 1] = 0x30;
 10942              		.loc 1 2619 0 discriminator 3
 10943 011e 97F90D30 		ldrsb	r3, [r7, #13]
 10944 0122 0133     		adds	r3, r3, #1
 10945 0124 7A68     		ldr	r2, [r7, #4]
 10946 0126 1344     		add	r3, r3, r2
 10947 0128 3022     		movs	r2, #48
 10948 012a 1A70     		strb	r2, [r3]
2616:.\PrimeImpl.c ****             {
 10949              		.loc 1 2616 0 discriminator 3
 10950 012c 7B7B     		ldrb	r3, [r7, #13]	@ zero_extendqisi2
 10951 012e DBB2     		uxtb	r3, r3
 10952 0130 0133     		adds	r3, r3, #1
 10953 0132 DBB2     		uxtb	r3, r3
 10954 0134 7B73     		strb	r3, [r7, #13]
 10955              	.L376:
2616:.\PrimeImpl.c ****             {
 10956              		.loc 1 2616 0 is_stmt 0 discriminator 1
 10957 0136 97F90D20 		ldrsb	r2, [r7, #13]
 10958 013a FB78     		ldrb	r3, [r7, #3]	@ zero_extendqisi2
 10959 013c 013B     		subs	r3, r3, #1
 10960 013e 9A42     		cmp	r2, r3
 10961 0140 E2DB     		blt	.L377
2620:.\PrimeImpl.c ****             }
2621:.\PrimeImpl.c ****             shiftcount++;
 10962              		.loc 1 2621 0 is_stmt 1
 10963 0142 3B7B     		ldrb	r3, [r7, #12]	@ zero_extendqisi2
 10964 0144 DBB2     		uxtb	r3, r3
 10965 0146 0133     		adds	r3, r3, #1
 10966 0148 DBB2     		uxtb	r3, r3
 10967 014a 3B73     		strb	r3, [r7, #12]
 10968              	.L375:
2614:.\PrimeImpl.c ****         {
 10969              		.loc 1 2614 0
ARM GAS  C:\Users\RECEPC~1\AppData\Local\Temp\ccNQP0pp.s 			page 241


 10970 014c 97F90C30 		ldrsb	r3, [r7, #12]
 10971 0150 002B     		cmp	r3, #0
 10972 0152 D6DB     		blt	.L378
 10973              	.L362:
2622:.\PrimeImpl.c ****         }
2623:.\PrimeImpl.c ****     }
2624:.\PrimeImpl.c **** }
 10974              		.loc 1 2624 0
 10975 0154 1437     		adds	r7, r7, #20
 10976              		.cfi_def_cfa_offset 4
 10977 0156 BD46     		mov	sp, r7
 10978              		.cfi_def_cfa_register 13
 10979              		@ sp needed
 10980 0158 5DF8047B 		ldr	r7, [sp], #4
 10981              		.cfi_restore 7
 10982              		.cfi_def_cfa_offset 0
 10983 015c 7047     		bx	lr
 10984              	.L380:
 10985 015e 00BF     		.align	2
 10986              	.L379:
 10987 0160 00000000 		.word	_g_dispenserlayoutinfo
 10988              		.cfi_endproc
 10989              	.LFE116:
 10990              		.size	CastMoneyValue, .-CastMoneyValue
 10991              		.global	_g_sfcharmap
 10992              		.data
 10993              		.align	2
 10994              		.type	_g_sfcharmap, %object
 10995              		.size	_g_sfcharmap, 32
 10996              	_g_sfcharmap:
 10997 0000 B1       		.byte	-79
 10998 0001 01       		.byte	1
 10999 0002 B2       		.byte	-78
 11000 0003 02       		.byte	2
 11001 0004 B3       		.byte	-77
 11002 0005 03       		.byte	3
 11003 0006 B4       		.byte	-76
 11004 0007 04       		.byte	4
 11005 0008 B5       		.byte	-75
 11006 0009 05       		.byte	5
 11007 000a B6       		.byte	-74
 11008 000b 06       		.byte	6
 11009 000c B7       		.byte	-73
 11010 000d 07       		.byte	7
 11011 000e B8       		.byte	-72
 11012 000f 08       		.byte	8
 11013 0010 B9       		.byte	-71
 11014 0011 09       		.byte	9
 11015 0012 C1       		.byte	-63
 11016 0013 0A       		.byte	10
 11017 0014 C2       		.byte	-62
 11018 0015 0B       		.byte	11
 11019 0016 C3       		.byte	-61
 11020 0017 0C       		.byte	12
 11021 0018 C4       		.byte	-60
 11022 0019 0D       		.byte	13
 11023 001a C5       		.byte	-59
ARM GAS  C:\Users\RECEPC~1\AppData\Local\Temp\ccNQP0pp.s 			page 242


 11024 001b 0E       		.byte	14
 11025 001c C6       		.byte	-58
 11026 001d 0F       		.byte	15
 11027 001e 00       		.byte	0
 11028 001f 00       		.byte	0
 11029              		.section	.text.TranslateSpecialFuncionDigit,"ax",%progbits
 11030              		.align	2
 11031              		.global	TranslateSpecialFuncionDigit
 11032              		.thumb
 11033              		.thumb_func
 11034              		.type	TranslateSpecialFuncionDigit, %function
 11035              	TranslateSpecialFuncionDigit:
 11036              	.LFB117:
2625:.\PrimeImpl.c **** 
2626:.\PrimeImpl.c **** //This is a char map to translate from the special functions word domain to the normal byte domain
2627:.\PrimeImpl.c **** char8 _g_sfcharmap[][2] = 
2628:.\PrimeImpl.c **** {
2629:.\PrimeImpl.c ****     { 0xB1, 0x01 }, { 0xB2, 0x02 }, { 0xB3, 0x03 }, { 0xB4, 0x04 }, { 0xB5, 0x05 }, { 0xB6, 0x06 },
2630:.\PrimeImpl.c ****     { 0xC1, 0x0A }, { 0xC2, 0x0B }, { 0xC3, 0x0C }, { 0xC4, 0x0D }, { 0xC5, 0x0E }, { 0xC6, 0x0F },
2631:.\PrimeImpl.c **** };
2632:.\PrimeImpl.c **** 
2633:.\PrimeImpl.c **** //@Created By: HIJH
2634:.\PrimeImpl.c **** //@Septembre de 2016
2635:.\PrimeImpl.c **** char8 TranslateSpecialFuncionDigit(char8 refval)
2636:.\PrimeImpl.c **** {
 11037              		.loc 1 2636 0
 11038              		.cfi_startproc
 11039              		@ args = 0, pretend = 0, frame = 16
 11040              		@ frame_needed = 1, uses_anonymous_args = 0
 11041              		@ link register save eliminated.
 11042 0000 80B4     		push	{r7}
 11043              		.cfi_def_cfa_offset 4
 11044              		.cfi_offset 7, -4
 11045 0002 85B0     		sub	sp, sp, #20
 11046              		.cfi_def_cfa_offset 24
 11047 0004 00AF     		add	r7, sp, #0
 11048              		.cfi_def_cfa_register 7
 11049 0006 0346     		mov	r3, r0
 11050 0008 FB71     		strb	r3, [r7, #7]
2637:.\PrimeImpl.c ****     char8 retval = 0x00;
 11051              		.loc 1 2637 0
 11052 000a 0023     		movs	r3, #0
 11053 000c FB73     		strb	r3, [r7, #15]
2638:.\PrimeImpl.c ****     PSTR ptrstr = (PSTR)&_g_sfcharmap[0];
 11054              		.loc 1 2638 0
 11055 000e 0D4B     		ldr	r3, .L387
 11056 0010 BB60     		str	r3, [r7, #8]
2639:.\PrimeImpl.c ****     while(*ptrstr != 0x00)
 11057              		.loc 1 2639 0
 11058 0012 0BE0     		b	.L382
 11059              	.L385:
2640:.\PrimeImpl.c ****     {
2641:.\PrimeImpl.c ****         if(ptrstr[0] == refval)
 11060              		.loc 1 2641 0
 11061 0014 BB68     		ldr	r3, [r7, #8]
 11062 0016 1B78     		ldrb	r3, [r3]	@ zero_extendqisi2
 11063 0018 FA79     		ldrb	r2, [r7, #7]	@ zero_extendqisi2
ARM GAS  C:\Users\RECEPC~1\AppData\Local\Temp\ccNQP0pp.s 			page 243


 11064 001a 9A42     		cmp	r2, r3
 11065 001c 03D1     		bne	.L383
2642:.\PrimeImpl.c ****         {
2643:.\PrimeImpl.c ****             retval = ptrstr[1];
 11066              		.loc 1 2643 0
 11067 001e BB68     		ldr	r3, [r7, #8]
 11068 0020 5B78     		ldrb	r3, [r3, #1]
 11069 0022 FB73     		strb	r3, [r7, #15]
2644:.\PrimeImpl.c ****             break;
 11070              		.loc 1 2644 0
 11071 0024 06E0     		b	.L384
 11072              	.L383:
2645:.\PrimeImpl.c ****         }
2646:.\PrimeImpl.c ****         ptrstr++;
 11073              		.loc 1 2646 0
 11074 0026 BB68     		ldr	r3, [r7, #8]
 11075 0028 0133     		adds	r3, r3, #1
 11076 002a BB60     		str	r3, [r7, #8]
 11077              	.L382:
2639:.\PrimeImpl.c ****     {
 11078              		.loc 1 2639 0
 11079 002c BB68     		ldr	r3, [r7, #8]
 11080 002e 1B78     		ldrb	r3, [r3]	@ zero_extendqisi2
 11081 0030 002B     		cmp	r3, #0
 11082 0032 EFD1     		bne	.L385
 11083              	.L384:
2647:.\PrimeImpl.c ****     }    
2648:.\PrimeImpl.c ****     return retval;
 11084              		.loc 1 2648 0
 11085 0034 FB7B     		ldrb	r3, [r7, #15]	@ zero_extendqisi2
2649:.\PrimeImpl.c **** }
 11086              		.loc 1 2649 0
 11087 0036 1846     		mov	r0, r3
 11088 0038 1437     		adds	r7, r7, #20
 11089              		.cfi_def_cfa_offset 4
 11090 003a BD46     		mov	sp, r7
 11091              		.cfi_def_cfa_register 13
 11092              		@ sp needed
 11093 003c 5DF8047B 		ldr	r7, [sp], #4
 11094              		.cfi_restore 7
 11095              		.cfi_def_cfa_offset 0
 11096 0040 7047     		bx	lr
 11097              	.L388:
 11098 0042 00BF     		.align	2
 11099              	.L387:
 11100 0044 00000000 		.word	_g_sfcharmap
 11101              		.cfi_endproc
 11102              	.LFE117:
 11103              		.size	TranslateSpecialFuncionDigit, .-TranslateSpecialFuncionDigit
 11104              		.bss
 11105              	index.9618:
 11106 0000 00       		.space	1
 11107              		.text
 11108              	.Letext0:
 11109              		.file 2 "c:\\program files (x86)\\cypress\\psoc creator\\3.3\\psoc creator\\import\\gnu\\arm\\4.9.
 11110              		.file 3 "c:\\program files (x86)\\cypress\\psoc creator\\3.3\\psoc creator\\import\\gnu\\arm\\4.9.
 11111              		.file 4 "Generated_Source\\PSoC5/cytypes.h"
ARM GAS  C:\Users\RECEPC~1\AppData\Local\Temp\ccNQP0pp.s 			page 244


 11112              		.file 5 ".\\GlobalDefinitions.h"
 11113              		.file 6 ".\\SinkManager.h"
 11114              		.file 7 ".\\SinkObservables.h"
 11115              		.file 8 ".\\UARTManager.h"
 11116              		.file 9 ".\\Display.h"
 11117              		.file 10 ".\\Prime.h"
 11118              		.file 11 ".\\Dispenser.h"
 11119              		.file 12 ".\\Eeprom.h"
 11120              		.file 13 ".\\RFLink.h"
 11121              		.file 14 ".\\Printer.h"
 11122              		.file 15 "Generated_Source\\PSoC5/core_cm3.h"
 11123              		.section	.debug_info,"",%progbits
 11124              	.Ldebug_info0:
 11125 0000 172A0000 		.4byte	0x2a17
 11126 0004 0400     		.2byte	0x4
 11127 0006 00000000 		.4byte	.Ldebug_abbrev0
 11128 000a 04       		.byte	0x4
 11129 000b 01       		.uleb128 0x1
 11130 000c 87250000 		.4byte	.LASF578
 11131 0010 01       		.byte	0x1
 11132 0011 15190000 		.4byte	.LASF579
 11133 0015 68180000 		.4byte	.LASF580
 11134 0019 00000000 		.4byte	.Ldebug_ranges0+0
 11135 001d 00000000 		.4byte	0
 11136 0021 00000000 		.4byte	.Ldebug_line0
 11137 0025 02       		.uleb128 0x2
 11138 0026 01       		.byte	0x1
 11139 0027 06       		.byte	0x6
 11140 0028 370B0000 		.4byte	.LASF0
 11141 002c 03       		.uleb128 0x3
 11142 002d 45070000 		.4byte	.LASF4
 11143 0031 02       		.byte	0x2
 11144 0032 1D       		.byte	0x1d
 11145 0033 37000000 		.4byte	0x37
 11146 0037 02       		.uleb128 0x2
 11147 0038 01       		.byte	0x1
 11148 0039 08       		.byte	0x8
 11149 003a A00C0000 		.4byte	.LASF1
 11150 003e 02       		.uleb128 0x2
 11151 003f 02       		.byte	0x2
 11152 0040 05       		.byte	0x5
 11153 0041 37240000 		.4byte	.LASF2
 11154 0045 02       		.uleb128 0x2
 11155 0046 02       		.byte	0x2
 11156 0047 07       		.byte	0x7
 11157 0048 72290000 		.4byte	.LASF3
 11158 004c 03       		.uleb128 0x3
 11159 004d 372A0000 		.4byte	.LASF5
 11160 0051 02       		.byte	0x2
 11161 0052 3F       		.byte	0x3f
 11162 0053 57000000 		.4byte	0x57
 11163 0057 02       		.uleb128 0x2
 11164 0058 04       		.byte	0x4
 11165 0059 05       		.byte	0x5
 11166 005a 7B080000 		.4byte	.LASF6
 11167 005e 02       		.uleb128 0x2
 11168 005f 04       		.byte	0x4
ARM GAS  C:\Users\RECEPC~1\AppData\Local\Temp\ccNQP0pp.s 			page 245


 11169 0060 07       		.byte	0x7
 11170 0061 63140000 		.4byte	.LASF7
 11171 0065 02       		.uleb128 0x2
 11172 0066 08       		.byte	0x8
 11173 0067 05       		.byte	0x5
 11174 0068 39170000 		.4byte	.LASF8
 11175 006c 02       		.uleb128 0x2
 11176 006d 08       		.byte	0x8
 11177 006e 07       		.byte	0x7
 11178 006f B21F0000 		.4byte	.LASF9
 11179 0073 04       		.uleb128 0x4
 11180 0074 04       		.byte	0x4
 11181 0075 05       		.byte	0x5
 11182 0076 696E7400 		.ascii	"int\000"
 11183 007a 02       		.uleb128 0x2
 11184 007b 04       		.byte	0x4
 11185 007c 07       		.byte	0x7
 11186 007d 381A0000 		.4byte	.LASF10
 11187 0081 03       		.uleb128 0x3
 11188 0082 520B0000 		.4byte	.LASF11
 11189 0086 03       		.byte	0x3
 11190 0087 15       		.byte	0x15
 11191 0088 2C000000 		.4byte	0x2c
 11192 008c 03       		.uleb128 0x3
 11193 008d 6C020000 		.4byte	.LASF12
 11194 0091 03       		.byte	0x3
 11195 0092 2C       		.byte	0x2c
 11196 0093 4C000000 		.4byte	0x4c
 11197 0097 05       		.uleb128 0x5
 11198 0098 EE230000 		.4byte	.LASF13
 11199 009c 04       		.byte	0x4
 11200 009d 3801     		.2byte	0x138
 11201 009f 37000000 		.4byte	0x37
 11202 00a3 05       		.uleb128 0x5
 11203 00a4 9A2B0000 		.4byte	.LASF14
 11204 00a8 04       		.byte	0x4
 11205 00a9 3901     		.2byte	0x139
 11206 00ab 45000000 		.4byte	0x45
 11207 00af 05       		.uleb128 0x5
 11208 00b0 31030000 		.4byte	.LASF15
 11209 00b4 04       		.byte	0x4
 11210 00b5 3A01     		.2byte	0x13a
 11211 00b7 5E000000 		.4byte	0x5e
 11212 00bb 05       		.uleb128 0x5
 11213 00bc 53060000 		.4byte	.LASF16
 11214 00c0 04       		.byte	0x4
 11215 00c1 3B01     		.2byte	0x13b
 11216 00c3 25000000 		.4byte	0x25
 11217 00c7 02       		.uleb128 0x2
 11218 00c8 04       		.byte	0x4
 11219 00c9 04       		.byte	0x4
 11220 00ca 63190000 		.4byte	.LASF17
 11221 00ce 02       		.uleb128 0x2
 11222 00cf 08       		.byte	0x8
 11223 00d0 04       		.byte	0x4
 11224 00d1 20180000 		.4byte	.LASF18
 11225 00d5 05       		.uleb128 0x5
ARM GAS  C:\Users\RECEPC~1\AppData\Local\Temp\ccNQP0pp.s 			page 246


 11226 00d6 74080000 		.4byte	.LASF19
 11227 00da 04       		.byte	0x4
 11228 00db 4401     		.2byte	0x144
 11229 00dd 6C000000 		.4byte	0x6c
 11230 00e1 05       		.uleb128 0x5
 11231 00e2 2C050000 		.4byte	.LASF20
 11232 00e6 04       		.byte	0x4
 11233 00e7 4901     		.2byte	0x149
 11234 00e9 ED000000 		.4byte	0xed
 11235 00ed 02       		.uleb128 0x2
 11236 00ee 01       		.byte	0x1
 11237 00ef 08       		.byte	0x8
 11238 00f0 320E0000 		.4byte	.LASF21
 11239 00f4 06       		.uleb128 0x6
 11240 00f5 97000000 		.4byte	0x97
 11241 00f9 06       		.uleb128 0x6
 11242 00fa A3000000 		.4byte	0xa3
 11243 00fe 06       		.uleb128 0x6
 11244 00ff AF000000 		.4byte	0xaf
 11245 0103 07       		.uleb128 0x7
 11246 0104 04       		.byte	0x4
 11247 0105 09010000 		.4byte	0x109
 11248 0109 08       		.uleb128 0x8
 11249 010a 02       		.uleb128 0x2
 11250 010b 04       		.byte	0x4
 11251 010c 07       		.byte	0x7
 11252 010d D8000000 		.4byte	.LASF22
 11253 0111 09       		.uleb128 0x9
 11254 0112 04       		.byte	0x4
 11255 0113 07       		.uleb128 0x7
 11256 0114 04       		.byte	0x4
 11257 0115 ED000000 		.4byte	0xed
 11258 0119 0A       		.uleb128 0xa
 11259 011a 97000000 		.4byte	0x97
 11260 011e 29010000 		.4byte	0x129
 11261 0122 0B       		.uleb128 0xb
 11262 0123 0A010000 		.4byte	0x10a
 11263 0127 03       		.byte	0x3
 11264 0128 00       		.byte	0
 11265 0129 02       		.uleb128 0x2
 11266 012a 08       		.byte	0x8
 11267 012b 04       		.byte	0x4
 11268 012c CD1D0000 		.4byte	.LASF23
 11269 0130 03       		.uleb128 0x3
 11270 0131 9D1C0000 		.4byte	.LASF24
 11271 0135 05       		.byte	0x5
 11272 0136 29       		.byte	0x29
 11273 0137 11010000 		.4byte	0x111
 11274 013b 07       		.uleb128 0x7
 11275 013c 04       		.byte	0x4
 11276 013d E1000000 		.4byte	0xe1
 11277 0141 03       		.uleb128 0x3
 11278 0142 430B0000 		.4byte	.LASF25
 11279 0146 05       		.byte	0x5
 11280 0147 50       		.byte	0x50
 11281 0148 4C010000 		.4byte	0x14c
 11282 014c 07       		.uleb128 0x7
ARM GAS  C:\Users\RECEPC~1\AppData\Local\Temp\ccNQP0pp.s 			page 247


 11283 014d 04       		.byte	0x4
 11284 014e 97000000 		.4byte	0x97
 11285 0152 0C       		.uleb128 0xc
 11286 0153 8D280000 		.4byte	.LASF34
 11287 0157 01       		.byte	0x1
 11288 0158 06       		.byte	0x6
 11289 0159 3D       		.byte	0x3d
 11290 015a 8F010000 		.4byte	0x18f
 11291 015e 0D       		.uleb128 0xd
 11292 015f 3C2B0000 		.4byte	.LASF26
 11293 0163 01       		.sleb128 1
 11294 0164 0D       		.uleb128 0xd
 11295 0165 EA1A0000 		.4byte	.LASF27
 11296 0169 02       		.sleb128 2
 11297 016a 0D       		.uleb128 0xd
 11298 016b 891C0000 		.4byte	.LASF28
 11299 016f 03       		.sleb128 3
 11300 0170 0D       		.uleb128 0xd
 11301 0171 51230000 		.4byte	.LASF29
 11302 0175 04       		.sleb128 4
 11303 0176 0D       		.uleb128 0xd
 11304 0177 D7110000 		.4byte	.LASF30
 11305 017b 05       		.sleb128 5
 11306 017c 0D       		.uleb128 0xd
 11307 017d 8B260000 		.4byte	.LASF31
 11308 0181 06       		.sleb128 6
 11309 0182 0D       		.uleb128 0xd
 11310 0183 9C0E0000 		.4byte	.LASF32
 11311 0187 07       		.sleb128 7
 11312 0188 0D       		.uleb128 0xd
 11313 0189 F1130000 		.4byte	.LASF33
 11314 018d 08       		.sleb128 8
 11315 018e 00       		.byte	0
 11316 018f 0C       		.uleb128 0xc
 11317 0190 222B0000 		.4byte	.LASF35
 11318 0194 01       		.byte	0x1
 11319 0195 06       		.byte	0x6
 11320 0196 4A       		.byte	0x4a
 11321 0197 AE010000 		.4byte	0x1ae
 11322 019b 0D       		.uleb128 0xd
 11323 019c 322B0000 		.4byte	.LASF36
 11324 01a0 01       		.sleb128 1
 11325 01a1 0D       		.uleb128 0xd
 11326 01a2 080E0000 		.4byte	.LASF37
 11327 01a6 02       		.sleb128 2
 11328 01a7 0D       		.uleb128 0xd
 11329 01a8 A5010000 		.4byte	.LASF38
 11330 01ac 03       		.sleb128 3
 11331 01ad 00       		.byte	0
 11332 01ae 0E       		.uleb128 0xe
 11333 01af 58000000 		.4byte	.LASF95
 11334 01b3 9801     		.2byte	0x198
 11335 01b5 06       		.byte	0x6
 11336 01b6 51       		.byte	0x51
 11337 01b7 4F020000 		.4byte	0x24f
 11338 01bb 0F       		.uleb128 0xf
 11339 01bc 59190000 		.4byte	.LASF39
ARM GAS  C:\Users\RECEPC~1\AppData\Local\Temp\ccNQP0pp.s 			page 248


 11340 01c0 06       		.byte	0x6
 11341 01c1 53       		.byte	0x53
 11342 01c2 4F020000 		.4byte	0x24f
 11343 01c6 00       		.byte	0
 11344 01c7 0F       		.uleb128 0xf
 11345 01c8 C4230000 		.4byte	.LASF40
 11346 01cc 06       		.byte	0x6
 11347 01cd 54       		.byte	0x54
 11348 01ce F4000000 		.4byte	0xf4
 11349 01d2 01       		.byte	0x1
 11350 01d3 0F       		.uleb128 0xf
 11351 01d4 63260000 		.4byte	.LASF41
 11352 01d8 06       		.byte	0x6
 11353 01d9 55       		.byte	0x55
 11354 01da F4000000 		.4byte	0xf4
 11355 01de 02       		.byte	0x2
 11356 01df 0F       		.uleb128 0xf
 11357 01e0 F5270000 		.4byte	.LASF42
 11358 01e4 06       		.byte	0x6
 11359 01e5 56       		.byte	0x56
 11360 01e6 F4000000 		.4byte	0xf4
 11361 01ea 03       		.byte	0x3
 11362 01eb 0F       		.uleb128 0xf
 11363 01ec AA0D0000 		.4byte	.LASF43
 11364 01f0 06       		.byte	0x6
 11365 01f1 58       		.byte	0x58
 11366 01f2 F9000000 		.4byte	0xf9
 11367 01f6 04       		.byte	0x4
 11368 01f7 0F       		.uleb128 0xf
 11369 01f8 83100000 		.4byte	.LASF44
 11370 01fc 06       		.byte	0x6
 11371 01fd 59       		.byte	0x59
 11372 01fe F9000000 		.4byte	0xf9
 11373 0202 06       		.byte	0x6
 11374 0203 0F       		.uleb128 0xf
 11375 0204 D8080000 		.4byte	.LASF45
 11376 0208 06       		.byte	0x6
 11377 0209 5A       		.byte	0x5a
 11378 020a F9000000 		.4byte	0xf9
 11379 020e 08       		.byte	0x8
 11380 020f 0F       		.uleb128 0xf
 11381 0210 58250000 		.4byte	.LASF46
 11382 0214 06       		.byte	0x6
 11383 0215 5B       		.byte	0x5b
 11384 0216 F9000000 		.4byte	0xf9
 11385 021a 0A       		.byte	0xa
 11386 021b 0F       		.uleb128 0xf
 11387 021c DE070000 		.4byte	.LASF47
 11388 0220 06       		.byte	0x6
 11389 0221 5C       		.byte	0x5c
 11390 0222 5B020000 		.4byte	0x25b
 11391 0226 0C       		.byte	0xc
 11392 0227 10       		.uleb128 0x10
 11393 0228 0C2C0000 		.4byte	.LASF48
 11394 022c 06       		.byte	0x6
 11395 022d 5D       		.byte	0x5d
 11396 022e F9000000 		.4byte	0xf9
ARM GAS  C:\Users\RECEPC~1\AppData\Local\Temp\ccNQP0pp.s 			page 249


 11397 0232 8C01     		.2byte	0x18c
 11398 0234 10       		.uleb128 0x10
 11399 0235 56150000 		.4byte	.LASF49
 11400 0239 06       		.byte	0x6
 11401 023a 60       		.byte	0x60
 11402 023b 11010000 		.4byte	0x111
 11403 023f 9001     		.2byte	0x190
 11404 0241 10       		.uleb128 0x10
 11405 0242 AA150000 		.4byte	.LASF50
 11406 0246 06       		.byte	0x6
 11407 0247 61       		.byte	0x61
 11408 0248 77020000 		.4byte	0x277
 11409 024c 9401     		.2byte	0x194
 11410 024e 00       		.byte	0
 11411 024f 06       		.uleb128 0x6
 11412 0250 54020000 		.4byte	0x254
 11413 0254 02       		.uleb128 0x2
 11414 0255 01       		.byte	0x1
 11415 0256 02       		.byte	0x2
 11416 0257 C80D0000 		.4byte	.LASF51
 11417 025b 0A       		.uleb128 0xa
 11418 025c E1000000 		.4byte	0xe1
 11419 0260 6C020000 		.4byte	0x26c
 11420 0264 11       		.uleb128 0x11
 11421 0265 0A010000 		.4byte	0x10a
 11422 0269 7F01     		.2byte	0x17f
 11423 026b 00       		.byte	0
 11424 026c 12       		.uleb128 0x12
 11425 026d 77020000 		.4byte	0x277
 11426 0271 13       		.uleb128 0x13
 11427 0272 11010000 		.4byte	0x111
 11428 0276 00       		.byte	0
 11429 0277 07       		.uleb128 0x7
 11430 0278 04       		.byte	0x4
 11431 0279 6C020000 		.4byte	0x26c
 11432 027d 03       		.uleb128 0x3
 11433 027e AB1A0000 		.4byte	.LASF52
 11434 0282 06       		.byte	0x6
 11435 0283 62       		.byte	0x62
 11436 0284 88020000 		.4byte	0x288
 11437 0288 07       		.uleb128 0x7
 11438 0289 04       		.byte	0x4
 11439 028a AE010000 		.4byte	0x1ae
 11440 028e 0C       		.uleb128 0xc
 11441 028f 2C080000 		.4byte	.LASF53
 11442 0293 01       		.byte	0x1
 11443 0294 07       		.byte	0x7
 11444 0295 0F       		.byte	0xf
 11445 0296 91030000 		.4byte	0x391
 11446 029a 0D       		.uleb128 0xd
 11447 029b 841D0000 		.4byte	.LASF54
 11448 029f 01       		.sleb128 1
 11449 02a0 0D       		.uleb128 0xd
 11450 02a1 E0210000 		.4byte	.LASF55
 11451 02a5 02       		.sleb128 2
 11452 02a6 0D       		.uleb128 0xd
 11453 02a7 DD020000 		.4byte	.LASF56
ARM GAS  C:\Users\RECEPC~1\AppData\Local\Temp\ccNQP0pp.s 			page 250


 11454 02ab 03       		.sleb128 3
 11455 02ac 0D       		.uleb128 0xd
 11456 02ad 4B200000 		.4byte	.LASF57
 11457 02b1 04       		.sleb128 4
 11458 02b2 0D       		.uleb128 0xd
 11459 02b3 51020000 		.4byte	.LASF58
 11460 02b7 05       		.sleb128 5
 11461 02b8 0D       		.uleb128 0xd
 11462 02b9 68050000 		.4byte	.LASF59
 11463 02bd 06       		.sleb128 6
 11464 02be 0D       		.uleb128 0xd
 11465 02bf C0170000 		.4byte	.LASF60
 11466 02c3 07       		.sleb128 7
 11467 02c4 0D       		.uleb128 0xd
 11468 02c5 FF000000 		.4byte	.LASF61
 11469 02c9 08       		.sleb128 8
 11470 02ca 0D       		.uleb128 0xd
 11471 02cb B3150000 		.4byte	.LASF62
 11472 02cf 09       		.sleb128 9
 11473 02d0 0D       		.uleb128 0xd
 11474 02d1 B5080000 		.4byte	.LASF63
 11475 02d5 0A       		.sleb128 10
 11476 02d6 0D       		.uleb128 0xd
 11477 02d7 640A0000 		.4byte	.LASF64
 11478 02db 0B       		.sleb128 11
 11479 02dc 0D       		.uleb128 0xd
 11480 02dd FA030000 		.4byte	.LASF65
 11481 02e1 0C       		.sleb128 12
 11482 02e2 0D       		.uleb128 0xd
 11483 02e3 B0200000 		.4byte	.LASF66
 11484 02e7 0D       		.sleb128 13
 11485 02e8 0D       		.uleb128 0xd
 11486 02e9 0E250000 		.4byte	.LASF67
 11487 02ed 0E       		.sleb128 14
 11488 02ee 0D       		.uleb128 0xd
 11489 02ef 7E0D0000 		.4byte	.LASF68
 11490 02f3 0F       		.sleb128 15
 11491 02f4 0D       		.uleb128 0xd
 11492 02f5 33090000 		.4byte	.LASF69
 11493 02f9 10       		.sleb128 16
 11494 02fa 0D       		.uleb128 0xd
 11495 02fb 9C280000 		.4byte	.LASF70
 11496 02ff 11       		.sleb128 17
 11497 0300 0D       		.uleb128 0xd
 11498 0301 92240000 		.4byte	.LASF71
 11499 0305 12       		.sleb128 18
 11500 0306 0D       		.uleb128 0xd
 11501 0307 4F050000 		.4byte	.LASF72
 11502 030b 13       		.sleb128 19
 11503 030c 0D       		.uleb128 0xd
 11504 030d A41C0000 		.4byte	.LASF73
 11505 0311 14       		.sleb128 20
 11506 0312 0D       		.uleb128 0xd
 11507 0313 F2080000 		.4byte	.LASF74
 11508 0317 15       		.sleb128 21
 11509 0318 0D       		.uleb128 0xd
 11510 0319 F4160000 		.4byte	.LASF75
ARM GAS  C:\Users\RECEPC~1\AppData\Local\Temp\ccNQP0pp.s 			page 251


 11511 031d 16       		.sleb128 22
 11512 031e 0D       		.uleb128 0xd
 11513 031f 3E100000 		.4byte	.LASF76
 11514 0323 17       		.sleb128 23
 11515 0324 0D       		.uleb128 0xd
 11516 0325 32060000 		.4byte	.LASF77
 11517 0329 18       		.sleb128 24
 11518 032a 0D       		.uleb128 0xd
 11519 032b EF290000 		.4byte	.LASF78
 11520 032f 19       		.sleb128 25
 11521 0330 0D       		.uleb128 0xd
 11522 0331 B6220000 		.4byte	.LASF79
 11523 0335 1A       		.sleb128 26
 11524 0336 0D       		.uleb128 0xd
 11525 0337 890A0000 		.4byte	.LASF80
 11526 033b 1B       		.sleb128 27
 11527 033c 0D       		.uleb128 0xd
 11528 033d 73280000 		.4byte	.LASF81
 11529 0341 1C       		.sleb128 28
 11530 0342 0D       		.uleb128 0xd
 11531 0343 CF240000 		.4byte	.LASF82
 11532 0347 1D       		.sleb128 29
 11533 0348 0D       		.uleb128 0xd
 11534 0349 BD030000 		.4byte	.LASF83
 11535 034d 1E       		.sleb128 30
 11536 034e 0D       		.uleb128 0xd
 11537 034f 740C0000 		.4byte	.LASF84
 11538 0353 1F       		.sleb128 31
 11539 0354 0D       		.uleb128 0xd
 11540 0355 C8070000 		.4byte	.LASF85
 11541 0359 20       		.sleb128 32
 11542 035a 0D       		.uleb128 0xd
 11543 035b FC230000 		.4byte	.LASF86
 11544 035f 21       		.sleb128 33
 11545 0360 0D       		.uleb128 0xd
 11546 0361 AD0E0000 		.4byte	.LASF87
 11547 0365 22       		.sleb128 34
 11548 0366 0D       		.uleb128 0xd
 11549 0367 3F0A0000 		.4byte	.LASF88
 11550 036b 23       		.sleb128 35
 11551 036c 0D       		.uleb128 0xd
 11552 036d 49280000 		.4byte	.LASF89
 11553 0371 24       		.sleb128 36
 11554 0372 0D       		.uleb128 0xd
 11555 0373 BF020000 		.4byte	.LASF90
 11556 0377 25       		.sleb128 37
 11557 0378 0D       		.uleb128 0xd
 11558 0379 552B0000 		.4byte	.LASF91
 11559 037d 26       		.sleb128 38
 11560 037e 0D       		.uleb128 0xd
 11561 037f 631C0000 		.4byte	.LASF92
 11562 0383 27       		.sleb128 39
 11563 0384 0D       		.uleb128 0xd
 11564 0385 32050000 		.4byte	.LASF93
 11565 0389 28       		.sleb128 40
 11566 038a 0D       		.uleb128 0xd
 11567 038b C2160000 		.4byte	.LASF94
ARM GAS  C:\Users\RECEPC~1\AppData\Local\Temp\ccNQP0pp.s 			page 252


 11568 038f 29       		.sleb128 41
 11569 0390 00       		.byte	0
 11570 0391 14       		.uleb128 0x14
 11571 0392 F41A0000 		.4byte	.LASF96
 11572 0396 4C       		.byte	0x4c
 11573 0397 08       		.byte	0x8
 11574 0398 2C       		.byte	0x2c
 11575 0399 82040000 		.4byte	0x482
 11576 039d 0F       		.uleb128 0xf
 11577 039e DD200000 		.4byte	.LASF97
 11578 03a2 08       		.byte	0x8
 11579 03a3 2E       		.byte	0x2e
 11580 03a4 97000000 		.4byte	0x97
 11581 03a8 00       		.byte	0
 11582 03a9 0F       		.uleb128 0xf
 11583 03aa 32110000 		.4byte	.LASF98
 11584 03ae 08       		.byte	0x8
 11585 03af 31       		.byte	0x31
 11586 03b0 77020000 		.4byte	0x277
 11587 03b4 04       		.byte	0x4
 11588 03b5 0F       		.uleb128 0xf
 11589 03b6 3D1E0000 		.4byte	.LASF99
 11590 03ba 08       		.byte	0x8
 11591 03bb 34       		.byte	0x34
 11592 03bc 03010000 		.4byte	0x103
 11593 03c0 08       		.byte	0x8
 11594 03c1 0F       		.uleb128 0xf
 11595 03c2 15040000 		.4byte	.LASF100
 11596 03c6 08       		.byte	0x8
 11597 03c7 35       		.byte	0x35
 11598 03c8 03010000 		.4byte	0x103
 11599 03cc 0C       		.byte	0xc
 11600 03cd 0F       		.uleb128 0xf
 11601 03ce 60200000 		.4byte	.LASF101
 11602 03d2 08       		.byte	0x8
 11603 03d3 36       		.byte	0x36
 11604 03d4 87040000 		.4byte	0x487
 11605 03d8 10       		.byte	0x10
 11606 03d9 0F       		.uleb128 0xf
 11607 03da 4E1C0000 		.4byte	.LASF102
 11608 03de 08       		.byte	0x8
 11609 03df 37       		.byte	0x37
 11610 03e0 98040000 		.4byte	0x498
 11611 03e4 14       		.byte	0x14
 11612 03e5 0F       		.uleb128 0xf
 11613 03e6 30250000 		.4byte	.LASF103
 11614 03ea 08       		.byte	0x8
 11615 03eb 39       		.byte	0x39
 11616 03ec 87040000 		.4byte	0x487
 11617 03f0 18       		.byte	0x18
 11618 03f1 0F       		.uleb128 0xf
 11619 03f2 2E0F0000 		.4byte	.LASF104
 11620 03f6 08       		.byte	0x8
 11621 03f7 3A       		.byte	0x3a
 11622 03f8 87040000 		.4byte	0x487
 11623 03fc 1C       		.byte	0x1c
 11624 03fd 0F       		.uleb128 0xf
ARM GAS  C:\Users\RECEPC~1\AppData\Local\Temp\ccNQP0pp.s 			page 253


 11625 03fe B50B0000 		.4byte	.LASF105
 11626 0402 08       		.byte	0x8
 11627 0403 3B       		.byte	0x3b
 11628 0404 87040000 		.4byte	0x487
 11629 0408 20       		.byte	0x20
 11630 0409 0F       		.uleb128 0xf
 11631 040a 90210000 		.4byte	.LASF106
 11632 040e 08       		.byte	0x8
 11633 040f 3C       		.byte	0x3c
 11634 0410 A3040000 		.4byte	0x4a3
 11635 0414 24       		.byte	0x24
 11636 0415 0F       		.uleb128 0xf
 11637 0416 CB1C0000 		.4byte	.LASF107
 11638 041a 08       		.byte	0x8
 11639 041b 3D       		.byte	0x3d
 11640 041c A3040000 		.4byte	0x4a3
 11641 0420 28       		.byte	0x28
 11642 0421 0F       		.uleb128 0xf
 11643 0422 A70B0000 		.4byte	.LASF108
 11644 0426 08       		.byte	0x8
 11645 0427 3E       		.byte	0x3e
 11646 0428 03010000 		.4byte	0x103
 11647 042c 2C       		.byte	0x2c
 11648 042d 0F       		.uleb128 0xf
 11649 042e FC0D0000 		.4byte	.LASF109
 11650 0432 08       		.byte	0x8
 11651 0433 40       		.byte	0x40
 11652 0434 98040000 		.4byte	0x498
 11653 0438 30       		.byte	0x30
 11654 0439 0F       		.uleb128 0xf
 11655 043a 451A0000 		.4byte	.LASF110
 11656 043e 08       		.byte	0x8
 11657 043f 41       		.byte	0x41
 11658 0440 87040000 		.4byte	0x487
 11659 0444 34       		.byte	0x34
 11660 0445 0F       		.uleb128 0xf
 11661 0446 F4230000 		.4byte	.LASF111
 11662 044a 08       		.byte	0x8
 11663 044b 42       		.byte	0x42
 11664 044c 98040000 		.4byte	0x498
 11665 0450 38       		.byte	0x38
 11666 0451 0F       		.uleb128 0xf
 11667 0452 F3100000 		.4byte	.LASF112
 11668 0456 08       		.byte	0x8
 11669 0457 43       		.byte	0x43
 11670 0458 BF040000 		.4byte	0x4bf
 11671 045c 3C       		.byte	0x3c
 11672 045d 0F       		.uleb128 0xf
 11673 045e DB1F0000 		.4byte	.LASF113
 11674 0462 08       		.byte	0x8
 11675 0463 44       		.byte	0x44
 11676 0464 E0040000 		.4byte	0x4e0
 11677 0468 40       		.byte	0x40
 11678 0469 0F       		.uleb128 0xf
 11679 046a AC0F0000 		.4byte	.LASF114
 11680 046e 08       		.byte	0x8
 11681 046f 45       		.byte	0x45
ARM GAS  C:\Users\RECEPC~1\AppData\Local\Temp\ccNQP0pp.s 			page 254


 11682 0470 98040000 		.4byte	0x498
 11683 0474 44       		.byte	0x44
 11684 0475 0F       		.uleb128 0xf
 11685 0476 12180000 		.4byte	.LASF115
 11686 047a 08       		.byte	0x8
 11687 047b 46       		.byte	0x46
 11688 047c 03010000 		.4byte	0x103
 11689 0480 48       		.byte	0x48
 11690 0481 00       		.byte	0
 11691 0482 15       		.uleb128 0x15
 11692 0483 97000000 		.4byte	0x97
 11693 0487 07       		.uleb128 0x7
 11694 0488 04       		.byte	0x4
 11695 0489 82040000 		.4byte	0x482
 11696 048d 12       		.uleb128 0x12
 11697 048e 98040000 		.4byte	0x498
 11698 0492 13       		.uleb128 0x13
 11699 0493 97000000 		.4byte	0x97
 11700 0497 00       		.byte	0
 11701 0498 07       		.uleb128 0x7
 11702 0499 04       		.byte	0x4
 11703 049a 8D040000 		.4byte	0x48d
 11704 049e 15       		.uleb128 0x15
 11705 049f A3000000 		.4byte	0xa3
 11706 04a3 07       		.uleb128 0x7
 11707 04a4 04       		.byte	0x4
 11708 04a5 9E040000 		.4byte	0x49e
 11709 04a9 12       		.uleb128 0x12
 11710 04aa B4040000 		.4byte	0x4b4
 11711 04ae 13       		.uleb128 0x13
 11712 04af B4040000 		.4byte	0x4b4
 11713 04b3 00       		.byte	0
 11714 04b4 07       		.uleb128 0x7
 11715 04b5 04       		.byte	0x4
 11716 04b6 BA040000 		.4byte	0x4ba
 11717 04ba 16       		.uleb128 0x16
 11718 04bb E1000000 		.4byte	0xe1
 11719 04bf 07       		.uleb128 0x7
 11720 04c0 04       		.byte	0x4
 11721 04c1 A9040000 		.4byte	0x4a9
 11722 04c5 12       		.uleb128 0x12
 11723 04c6 D5040000 		.4byte	0x4d5
 11724 04ca 13       		.uleb128 0x13
 11725 04cb D5040000 		.4byte	0x4d5
 11726 04cf 13       		.uleb128 0x13
 11727 04d0 97000000 		.4byte	0x97
 11728 04d4 00       		.byte	0
 11729 04d5 07       		.uleb128 0x7
 11730 04d6 04       		.byte	0x4
 11731 04d7 DB040000 		.4byte	0x4db
 11732 04db 16       		.uleb128 0x16
 11733 04dc 97000000 		.4byte	0x97
 11734 04e0 07       		.uleb128 0x7
 11735 04e1 04       		.byte	0x4
 11736 04e2 C5040000 		.4byte	0x4c5
 11737 04e6 03       		.uleb128 0x3
 11738 04e7 1A040000 		.4byte	.LASF116
ARM GAS  C:\Users\RECEPC~1\AppData\Local\Temp\ccNQP0pp.s 			page 255


 11739 04eb 08       		.byte	0x8
 11740 04ec 48       		.byte	0x48
 11741 04ed 91030000 		.4byte	0x391
 11742 04f1 0C       		.uleb128 0xc
 11743 04f2 13070000 		.4byte	.LASF117
 11744 04f6 01       		.byte	0x1
 11745 04f7 08       		.byte	0x8
 11746 04f8 51       		.byte	0x51
 11747 04f9 13050000 		.4byte	0x513
 11748 04fd 0D       		.uleb128 0xd
 11749 04fe 4E0D0000 		.4byte	.LASF118
 11750 0502 C001     		.sleb128 192
 11751 0504 0D       		.uleb128 0xd
 11752 0505 E4230000 		.4byte	.LASF119
 11753 0509 C101     		.sleb128 193
 11754 050b 0D       		.uleb128 0xd
 11755 050c 6C0C0000 		.4byte	.LASF120
 11756 0510 C201     		.sleb128 194
 11757 0512 00       		.byte	0
 11758 0513 0E       		.uleb128 0xe
 11759 0514 431E0000 		.4byte	.LASF121
 11760 0518 0C01     		.2byte	0x10c
 11761 051a 08       		.byte	0x8
 11762 051b 59       		.byte	0x59
 11763 051c 5F050000 		.4byte	0x55f
 11764 0520 0F       		.uleb128 0xf
 11765 0521 F5270000 		.4byte	.LASF42
 11766 0525 08       		.byte	0x8
 11767 0526 5B       		.byte	0x5b
 11768 0527 F4000000 		.4byte	0xf4
 11769 052b 00       		.byte	0
 11770 052c 0F       		.uleb128 0xf
 11771 052d 1C010000 		.4byte	.LASF122
 11772 0531 08       		.byte	0x8
 11773 0532 5C       		.byte	0x5c
 11774 0533 F9000000 		.4byte	0xf9
 11775 0537 02       		.byte	0x2
 11776 0538 0F       		.uleb128 0xf
 11777 0539 E8040000 		.4byte	.LASF123
 11778 053d 08       		.byte	0x8
 11779 053e 5D       		.byte	0x5d
 11780 053f 5F050000 		.4byte	0x55f
 11781 0543 04       		.byte	0x4
 11782 0544 10       		.uleb128 0x10
 11783 0545 AE290000 		.4byte	.LASF124
 11784 0549 08       		.byte	0x8
 11785 054a 5E       		.byte	0x5e
 11786 054b 7F050000 		.4byte	0x57f
 11787 054f 0401     		.2byte	0x104
 11788 0551 10       		.uleb128 0x10
 11789 0552 D62B0000 		.4byte	.LASF125
 11790 0556 08       		.byte	0x8
 11791 0557 60       		.byte	0x60
 11792 0558 85050000 		.4byte	0x585
 11793 055c 0801     		.2byte	0x108
 11794 055e 00       		.byte	0
 11795 055f 0A       		.uleb128 0xa
ARM GAS  C:\Users\RECEPC~1\AppData\Local\Temp\ccNQP0pp.s 			page 256


 11796 0560 E1000000 		.4byte	0xe1
 11797 0564 6F050000 		.4byte	0x56f
 11798 0568 0B       		.uleb128 0xb
 11799 0569 0A010000 		.4byte	0x10a
 11800 056d FF       		.byte	0xff
 11801 056e 00       		.byte	0
 11802 056f 12       		.uleb128 0x12
 11803 0570 7F050000 		.4byte	0x57f
 11804 0574 13       		.uleb128 0x13
 11805 0575 97000000 		.4byte	0x97
 11806 0579 13       		.uleb128 0x13
 11807 057a 3B010000 		.4byte	0x13b
 11808 057e 00       		.byte	0
 11809 057f 07       		.uleb128 0x7
 11810 0580 04       		.byte	0x4
 11811 0581 6F050000 		.4byte	0x56f
 11812 0585 07       		.uleb128 0x7
 11813 0586 04       		.byte	0x4
 11814 0587 E6040000 		.4byte	0x4e6
 11815 058b 03       		.uleb128 0x3
 11816 058c A91E0000 		.4byte	.LASF126
 11817 0590 08       		.byte	0x8
 11818 0591 61       		.byte	0x61
 11819 0592 96050000 		.4byte	0x596
 11820 0596 07       		.uleb128 0x7
 11821 0597 04       		.byte	0x4
 11822 0598 13050000 		.4byte	0x513
 11823 059c 0C       		.uleb128 0xc
 11824 059d 6D250000 		.4byte	.LASF127
 11825 05a1 01       		.byte	0x1
 11826 05a2 08       		.byte	0x8
 11827 05a3 6D       		.byte	0x6d
 11828 05a4 D3050000 		.4byte	0x5d3
 11829 05a8 0D       		.uleb128 0xd
 11830 05a9 64020000 		.4byte	.LASF128
 11831 05ad A001     		.sleb128 160
 11832 05af 0D       		.uleb128 0xd
 11833 05b0 E80E0000 		.4byte	.LASF129
 11834 05b4 A101     		.sleb128 161
 11835 05b6 0D       		.uleb128 0xd
 11836 05b7 31160000 		.4byte	.LASF130
 11837 05bb A201     		.sleb128 162
 11838 05bd 0D       		.uleb128 0xd
 11839 05be AB090000 		.4byte	.LASF131
 11840 05c2 A301     		.sleb128 163
 11841 05c4 0D       		.uleb128 0xd
 11842 05c5 B9090000 		.4byte	.LASF132
 11843 05c9 A401     		.sleb128 164
 11844 05cb 0D       		.uleb128 0xd
 11845 05cc 751B0000 		.4byte	.LASF133
 11846 05d0 A501     		.sleb128 165
 11847 05d2 00       		.byte	0
 11848 05d3 0C       		.uleb128 0xc
 11849 05d4 A0080000 		.4byte	.LASF134
 11850 05d8 01       		.byte	0x1
 11851 05d9 09       		.byte	0x9
 11852 05da 21       		.byte	0x21
ARM GAS  C:\Users\RECEPC~1\AppData\Local\Temp\ccNQP0pp.s 			page 257


 11853 05db 46070000 		.4byte	0x746
 11854 05df 0D       		.uleb128 0xd
 11855 05e0 A7110000 		.4byte	.LASF135
 11856 05e4 01       		.sleb128 1
 11857 05e5 0D       		.uleb128 0xd
 11858 05e6 B7110000 		.4byte	.LASF136
 11859 05ea 02       		.sleb128 2
 11860 05eb 0D       		.uleb128 0xd
 11861 05ec C7110000 		.4byte	.LASF137
 11862 05f0 03       		.sleb128 3
 11863 05f1 0D       		.uleb128 0xd
 11864 05f2 921F0000 		.4byte	.LASF138
 11865 05f6 04       		.sleb128 4
 11866 05f7 0D       		.uleb128 0xd
 11867 05f8 D8100000 		.4byte	.LASF139
 11868 05fc 05       		.sleb128 5
 11869 05fd 0D       		.uleb128 0xd
 11870 05fe C60C0000 		.4byte	.LASF140
 11871 0602 06       		.sleb128 6
 11872 0603 0D       		.uleb128 0xd
 11873 0604 86070000 		.4byte	.LASF141
 11874 0608 0F       		.sleb128 15
 11875 0609 0D       		.uleb128 0xd
 11876 060a C7180000 		.4byte	.LASF142
 11877 060e FE00     		.sleb128 126
 11878 0610 0D       		.uleb128 0xd
 11879 0611 E4180000 		.4byte	.LASF143
 11880 0615 8601     		.sleb128 134
 11881 0617 0D       		.uleb128 0xd
 11882 0618 76010000 		.4byte	.LASF144
 11883 061c 07       		.sleb128 7
 11884 061d 0D       		.uleb128 0xd
 11885 061e 74220000 		.4byte	.LASF145
 11886 0622 08       		.sleb128 8
 11887 0623 0D       		.uleb128 0xd
 11888 0624 10100000 		.4byte	.LASF146
 11889 0628 09       		.sleb128 9
 11890 0629 0D       		.uleb128 0xd
 11891 062a D51A0000 		.4byte	.LASF147
 11892 062e 0A       		.sleb128 10
 11893 062f 0D       		.uleb128 0xd
 11894 0630 76170000 		.4byte	.LASF148
 11895 0634 0B       		.sleb128 11
 11896 0635 0D       		.uleb128 0xd
 11897 0636 09170000 		.4byte	.LASF149
 11898 063a 25       		.sleb128 37
 11899 063b 0D       		.uleb128 0xd
 11900 063c 50180000 		.4byte	.LASF150
 11901 0640 26       		.sleb128 38
 11902 0641 0D       		.uleb128 0xd
 11903 0642 23190000 		.4byte	.LASF151
 11904 0646 27       		.sleb128 39
 11905 0647 0D       		.uleb128 0xd
 11906 0648 FA1E0000 		.4byte	.LASF152
 11907 064c 2F       		.sleb128 47
 11908 064d 0D       		.uleb128 0xd
 11909 064e 860B0000 		.4byte	.LASF153
ARM GAS  C:\Users\RECEPC~1\AppData\Local\Temp\ccNQP0pp.s 			page 258


 11910 0652 2C       		.sleb128 44
 11911 0653 0D       		.uleb128 0xd
 11912 0654 94170000 		.4byte	.LASF154
 11913 0658 0C       		.sleb128 12
 11914 0659 0D       		.uleb128 0xd
 11915 065a 730B0000 		.4byte	.LASF155
 11916 065e 8501     		.sleb128 133
 11917 0660 0D       		.uleb128 0xd
 11918 0661 921A0000 		.4byte	.LASF156
 11919 0665 1C       		.sleb128 28
 11920 0666 0D       		.uleb128 0xd
 11921 0667 391F0000 		.4byte	.LASF157
 11922 066b 12       		.sleb128 18
 11923 066c 0D       		.uleb128 0xd
 11924 066d 40160000 		.4byte	.LASF158
 11925 0671 13       		.sleb128 19
 11926 0672 0D       		.uleb128 0xd
 11927 0673 2E260000 		.4byte	.LASF159
 11928 0677 24       		.sleb128 36
 11929 0678 0D       		.uleb128 0xd
 11930 0679 36230000 		.4byte	.LASF160
 11931 067d 0D       		.sleb128 13
 11932 067e 0D       		.uleb128 0xd
 11933 067f F5090000 		.4byte	.LASF161
 11934 0683 0E       		.sleb128 14
 11935 0684 0D       		.uleb128 0xd
 11936 0685 6E1E0000 		.4byte	.LASF162
 11937 0689 8301     		.sleb128 131
 11938 068b 0D       		.uleb128 0xd
 11939 068c D0040000 		.4byte	.LASF163
 11940 0690 DA00     		.sleb128 90
 11941 0692 0D       		.uleb128 0xd
 11942 0693 3F030000 		.4byte	.LASF164
 11943 0697 31       		.sleb128 49
 11944 0698 0D       		.uleb128 0xd
 11945 0699 E7140000 		.4byte	.LASF165
 11946 069d 35       		.sleb128 53
 11947 069e 0D       		.uleb128 0xd
 11948 069f 500C0000 		.4byte	.LASF166
 11949 06a3 2E       		.sleb128 46
 11950 06a4 0D       		.uleb128 0xd
 11951 06a5 521E0000 		.4byte	.LASF167
 11952 06a9 8C01     		.sleb128 140
 11953 06ab 0D       		.uleb128 0xd
 11954 06ac 0F0D0000 		.4byte	.LASF168
 11955 06b0 9601     		.sleb128 150
 11956 06b2 0D       		.uleb128 0xd
 11957 06b3 9E0A0000 		.4byte	.LASF169
 11958 06b7 39       		.sleb128 57
 11959 06b8 0D       		.uleb128 0xd
 11960 06b9 58170000 		.4byte	.LASF170
 11961 06bd 9701     		.sleb128 151
 11962 06bf 0D       		.uleb128 0xd
 11963 06c0 412C0000 		.4byte	.LASF171
 11964 06c4 9801     		.sleb128 152
 11965 06c6 0D       		.uleb128 0xd
 11966 06c7 481D0000 		.4byte	.LASF172
ARM GAS  C:\Users\RECEPC~1\AppData\Local\Temp\ccNQP0pp.s 			page 259


 11967 06cb 3E       		.sleb128 62
 11968 06cc 0D       		.uleb128 0xd
 11969 06cd A9220000 		.4byte	.LASF173
 11970 06d1 3F       		.sleb128 63
 11971 06d2 0D       		.uleb128 0xd
 11972 06d3 F60A0000 		.4byte	.LASF174
 11973 06d7 C000     		.sleb128 64
 11974 06d9 0D       		.uleb128 0xd
 11975 06da 79270000 		.4byte	.LASF175
 11976 06de 8D01     		.sleb128 141
 11977 06e0 0D       		.uleb128 0xd
 11978 06e1 88040000 		.4byte	.LASF176
 11979 06e5 23       		.sleb128 35
 11980 06e6 0D       		.uleb128 0xd
 11981 06e7 1C0C0000 		.4byte	.LASF177
 11982 06eb 2A       		.sleb128 42
 11983 06ec 0D       		.uleb128 0xd
 11984 06ed 73230000 		.4byte	.LASF178
 11985 06f1 2B       		.sleb128 43
 11986 06f2 0D       		.uleb128 0xd
 11987 06f3 050C0000 		.4byte	.LASF179
 11988 06f7 3C       		.sleb128 60
 11989 06f8 0D       		.uleb128 0xd
 11990 06f9 2B120000 		.4byte	.LASF180
 11991 06fd C100     		.sleb128 65
 11992 06ff 0D       		.uleb128 0xd
 11993 0700 770E0000 		.4byte	.LASF181
 11994 0704 EB00     		.sleb128 107
 11995 0706 0D       		.uleb128 0xd
 11996 0707 D3160000 		.4byte	.LASF182
 11997 070b E700     		.sleb128 103
 11998 070d 0D       		.uleb128 0xd
 11999 070e A9070000 		.4byte	.LASF183
 12000 0712 E400     		.sleb128 100
 12001 0714 0D       		.uleb128 0xd
 12002 0715 41240000 		.4byte	.LASF184
 12003 0719 E500     		.sleb128 101
 12004 071b 0D       		.uleb128 0xd
 12005 071c 89140000 		.4byte	.LASF185
 12006 0720 9901     		.sleb128 153
 12007 0722 0D       		.uleb128 0xd
 12008 0723 98140000 		.4byte	.LASF186
 12009 0727 9A01     		.sleb128 154
 12010 0729 0D       		.uleb128 0xd
 12011 072a A7140000 		.4byte	.LASF187
 12012 072e 9B01     		.sleb128 155
 12013 0730 0D       		.uleb128 0xd
 12014 0731 B6140000 		.4byte	.LASF188
 12015 0735 9C01     		.sleb128 156
 12016 0737 0D       		.uleb128 0xd
 12017 0738 2D1D0000 		.4byte	.LASF189
 12018 073c FA01     		.sleb128 250
 12019 073e 0D       		.uleb128 0xd
 12020 073f 6E240000 		.4byte	.LASF190
 12021 0743 FF01     		.sleb128 255
 12022 0745 00       		.byte	0
 12023 0746 17       		.uleb128 0x17
ARM GAS  C:\Users\RECEPC~1\AppData\Local\Temp\ccNQP0pp.s 			page 260


 12024 0747 01       		.byte	0x1
 12025 0748 09       		.byte	0x9
 12026 0749 82       		.byte	0x82
 12027 074a 5B070000 		.4byte	0x75b
 12028 074e 0D       		.uleb128 0xd
 12029 074f 46000000 		.4byte	.LASF191
 12030 0753 00       		.sleb128 0
 12031 0754 0D       		.uleb128 0xd
 12032 0755 4F000000 		.4byte	.LASF192
 12033 0759 01       		.sleb128 1
 12034 075a 00       		.byte	0
 12035 075b 07       		.uleb128 0x7
 12036 075c 04       		.byte	0x4
 12037 075d 61070000 		.4byte	0x761
 12038 0761 18       		.uleb128 0x18
 12039 0762 54020000 		.4byte	0x254
 12040 0766 70070000 		.4byte	0x770
 12041 076a 13       		.uleb128 0x13
 12042 076b 11010000 		.4byte	0x111
 12043 076f 00       		.byte	0
 12044 0770 03       		.uleb128 0x3
 12045 0771 3B0F0000 		.4byte	.LASF193
 12046 0775 0A       		.byte	0xa
 12047 0776 28       		.byte	0x28
 12048 0777 13010000 		.4byte	0x113
 12049 077b 03       		.uleb128 0x3
 12050 077c 5F280000 		.4byte	.LASF194
 12051 0780 0A       		.byte	0xa
 12052 0781 29       		.byte	0x29
 12053 0782 4C010000 		.4byte	0x14c
 12054 0786 0C       		.uleb128 0xc
 12055 0787 AD1D0000 		.4byte	.LASF195
 12056 078b 01       		.byte	0x1
 12057 078c 0A       		.byte	0xa
 12058 078d 65       		.byte	0x65
 12059 078e 9F070000 		.4byte	0x79f
 12060 0792 0D       		.uleb128 0xd
 12061 0793 72150000 		.4byte	.LASF196
 12062 0797 00       		.sleb128 0
 12063 0798 0D       		.uleb128 0xd
 12064 0799 42210000 		.4byte	.LASF197
 12065 079d 01       		.sleb128 1
 12066 079e 00       		.byte	0
 12067 079f 0C       		.uleb128 0xc
 12068 07a0 69040000 		.4byte	.LASF198
 12069 07a4 01       		.byte	0x1
 12070 07a5 0A       		.byte	0xa
 12071 07a6 7D       		.byte	0x7d
 12072 07a7 E7070000 		.4byte	0x7e7
 12073 07ab 0D       		.uleb128 0xd
 12074 07ac E21D0000 		.4byte	.LASF199
 12075 07b0 00       		.sleb128 0
 12076 07b1 0D       		.uleb128 0xd
 12077 07b2 3E010000 		.4byte	.LASF200
 12078 07b6 10       		.sleb128 16
 12079 07b7 0D       		.uleb128 0xd
 12080 07b8 B5280000 		.4byte	.LASF201
ARM GAS  C:\Users\RECEPC~1\AppData\Local\Temp\ccNQP0pp.s 			page 261


 12081 07bc 20       		.sleb128 32
 12082 07bd 0D       		.uleb128 0xd
 12083 07be 28240000 		.4byte	.LASF202
 12084 07c2 30       		.sleb128 48
 12085 07c3 0D       		.uleb128 0xd
 12086 07c4 0C270000 		.4byte	.LASF203
 12087 07c8 C000     		.sleb128 64
 12088 07ca 0D       		.uleb128 0xd
 12089 07cb ED0F0000 		.4byte	.LASF204
 12090 07cf D000     		.sleb128 80
 12091 07d1 0D       		.uleb128 0xd
 12092 07d2 D4060000 		.4byte	.LASF205
 12093 07d6 E000     		.sleb128 96
 12094 07d8 0D       		.uleb128 0xd
 12095 07d9 9A030000 		.4byte	.LASF206
 12096 07dd F000     		.sleb128 112
 12097 07df 0D       		.uleb128 0xd
 12098 07e0 01190000 		.4byte	.LASF207
 12099 07e4 FC01     		.sleb128 252
 12100 07e6 00       		.byte	0
 12101 07e7 0C       		.uleb128 0xc
 12102 07e8 25210000 		.4byte	.LASF208
 12103 07ec 01       		.byte	0x1
 12104 07ed 0A       		.byte	0xa
 12105 07ee 8C       		.byte	0x8c
 12106 07ef 41080000 		.4byte	0x841
 12107 07f3 19       		.uleb128 0x19
 12108 07f4 534F4D00 		.ascii	"SOM\000"
 12109 07f8 FF01     		.sleb128 255
 12110 07fa 19       		.uleb128 0x19
 12111 07fb 56505400 		.ascii	"VPT\000"
 12112 07ff F101     		.sleb128 241
 12113 0801 19       		.uleb128 0x19
 12114 0802 4D505400 		.ascii	"MPT\000"
 12115 0806 F201     		.sleb128 242
 12116 0808 19       		.uleb128 0x19
 12117 0809 48446E00 		.ascii	"HDn\000"
 12118 080d F601     		.sleb128 246
 12119 080f 0D       		.uleb128 0xd
 12120 0810 39270000 		.4byte	.LASF209
 12121 0814 F701     		.sleb128 247
 12122 0816 0D       		.uleb128 0xd
 12123 0817 BE0E0000 		.4byte	.LASF210
 12124 081b F801     		.sleb128 248
 12125 081d 19       		.uleb128 0x19
 12126 081e 56446E00 		.ascii	"VDn\000"
 12127 0822 F901     		.sleb128 249
 12128 0824 19       		.uleb128 0x19
 12129 0825 4D446E00 		.ascii	"MDn\000"
 12130 0829 FA01     		.sleb128 250
 12131 082b 0D       		.uleb128 0xd
 12132 082c 9B0C0000 		.4byte	.LASF211
 12133 0830 FB01     		.sleb128 251
 12134 0832 19       		.uleb128 0x19
 12135 0833 53466E00 		.ascii	"SFn\000"
 12136 0837 FE01     		.sleb128 254
 12137 0839 19       		.uleb128 0x19
ARM GAS  C:\Users\RECEPC~1\AppData\Local\Temp\ccNQP0pp.s 			page 262


 12138 083a 454F4D00 		.ascii	"EOM\000"
 12139 083e F001     		.sleb128 240
 12140 0840 00       		.byte	0
 12141 0841 0C       		.uleb128 0xc
 12142 0842 292A0000 		.4byte	.LASF212
 12143 0846 01       		.byte	0x1
 12144 0847 0A       		.byte	0xa
 12145 0848 9B       		.byte	0x9b
 12146 0849 8B080000 		.4byte	0x88b
 12147 084d 0D       		.uleb128 0xd
 12148 084e 331E0000 		.4byte	.LASF213
 12149 0852 00       		.sleb128 0
 12150 0853 0D       		.uleb128 0xd
 12151 0854 BF260000 		.4byte	.LASF214
 12152 0858 06       		.sleb128 6
 12153 0859 0D       		.uleb128 0xd
 12154 085a 7C1C0000 		.4byte	.LASF215
 12155 085e 07       		.sleb128 7
 12156 085f 0D       		.uleb128 0xd
 12157 0860 CD020000 		.4byte	.LASF216
 12158 0864 08       		.sleb128 8
 12159 0865 0D       		.uleb128 0xd
 12160 0866 06100000 		.4byte	.LASF217
 12161 086a 09       		.sleb128 9
 12162 086b 0D       		.uleb128 0xd
 12163 086c 41200000 		.4byte	.LASF218
 12164 0870 0A       		.sleb128 10
 12165 0871 0D       		.uleb128 0xd
 12166 0872 821E0000 		.4byte	.LASF219
 12167 0876 0B       		.sleb128 11
 12168 0877 0D       		.uleb128 0xd
 12169 0878 152B0000 		.4byte	.LASF220
 12170 087c 0C       		.sleb128 12
 12171 087d 0D       		.uleb128 0xd
 12172 087e 88220000 		.4byte	.LASF221
 12173 0882 0D       		.sleb128 13
 12174 0883 0D       		.uleb128 0xd
 12175 0884 8D030000 		.4byte	.LASF222
 12176 0888 FF01     		.sleb128 255
 12177 088a 00       		.byte	0
 12178 088b 0C       		.uleb128 0xc
 12179 088c 6F100000 		.4byte	.LASF223
 12180 0890 01       		.byte	0x1
 12181 0891 0A       		.byte	0xa
 12182 0892 FC       		.byte	0xfc
 12183 0893 0D090000 		.4byte	0x90d
 12184 0897 0D       		.uleb128 0xd
 12185 0898 CF230000 		.4byte	.LASF224
 12186 089c 0F       		.sleb128 15
 12187 089d 0D       		.uleb128 0xd
 12188 089e F51D0000 		.4byte	.LASF225
 12189 08a2 10       		.sleb128 16
 12190 08a3 0D       		.uleb128 0xd
 12191 08a4 38280000 		.4byte	.LASF226
 12192 08a8 C300     		.sleb128 67
 12193 08aa 0D       		.uleb128 0xd
 12194 08ab 40060000 		.4byte	.LASF227
ARM GAS  C:\Users\RECEPC~1\AppData\Local\Temp\ccNQP0pp.s 			page 263


 12195 08af C400     		.sleb128 68
 12196 08b1 0D       		.uleb128 0xd
 12197 08b2 A1270000 		.4byte	.LASF228
 12198 08b6 C500     		.sleb128 69
 12199 08b8 0D       		.uleb128 0xd
 12200 08b9 C91F0000 		.4byte	.LASF229
 12201 08bd C600     		.sleb128 70
 12202 08bf 0D       		.uleb128 0xd
 12203 08c0 05230000 		.4byte	.LASF230
 12204 08c4 C700     		.sleb128 71
 12205 08c6 0D       		.uleb128 0xd
 12206 08c7 52080000 		.4byte	.LASF231
 12207 08cb C800     		.sleb128 72
 12208 08cd 0D       		.uleb128 0xd
 12209 08ce 42140000 		.4byte	.LASF232
 12210 08d2 C900     		.sleb128 73
 12211 08d4 0D       		.uleb128 0xd
 12212 08d5 A31B0000 		.4byte	.LASF233
 12213 08d9 CA00     		.sleb128 74
 12214 08db 0D       		.uleb128 0xd
 12215 08dc 68280000 		.4byte	.LASF234
 12216 08e0 CB00     		.sleb128 75
 12217 08e2 0D       		.uleb128 0xd
 12218 08e3 B61B0000 		.4byte	.LASF235
 12219 08e7 CC00     		.sleb128 76
 12220 08e9 0D       		.uleb128 0xd
 12221 08ea C7090000 		.4byte	.LASF236
 12222 08ee CD00     		.sleb128 77
 12223 08f0 0D       		.uleb128 0xd
 12224 08f1 75140000 		.4byte	.LASF237
 12225 08f5 CE00     		.sleb128 78
 12226 08f7 0D       		.uleb128 0xd
 12227 08f8 861F0000 		.4byte	.LASF238
 12228 08fc CF00     		.sleb128 79
 12229 08fe 0D       		.uleb128 0xd
 12230 08ff 60270000 		.4byte	.LASF239
 12231 0903 D000     		.sleb128 80
 12232 0905 0D       		.uleb128 0xd
 12233 0906 FD100000 		.4byte	.LASF240
 12234 090a D100     		.sleb128 81
 12235 090c 00       		.byte	0
 12236 090d 1A       		.uleb128 0x1a
 12237 090e 6B0F0000 		.4byte	.LASF241
 12238 0912 01       		.byte	0x1
 12239 0913 0A       		.byte	0xa
 12240 0914 1101     		.2byte	0x111
 12241 0916 2D090000 		.4byte	0x92d
 12242 091a 0D       		.uleb128 0xd
 12243 091b 26290000 		.4byte	.LASF242
 12244 091f 01       		.sleb128 1
 12245 0920 0D       		.uleb128 0xd
 12246 0921 580A0000 		.4byte	.LASF243
 12247 0925 02       		.sleb128 2
 12248 0926 0D       		.uleb128 0xd
 12249 0927 C5140000 		.4byte	.LASF244
 12250 092b 03       		.sleb128 3
 12251 092c 00       		.byte	0
ARM GAS  C:\Users\RECEPC~1\AppData\Local\Temp\ccNQP0pp.s 			page 264


 12252 092d 1A       		.uleb128 0x1a
 12253 092e 55040000 		.4byte	.LASF245
 12254 0932 01       		.byte	0x1
 12255 0933 0A       		.byte	0xa
 12256 0934 1E01     		.2byte	0x11e
 12257 0936 47090000 		.4byte	0x947
 12258 093a 0D       		.uleb128 0xd
 12259 093b 9C190000 		.4byte	.LASF246
 12260 093f 01       		.sleb128 1
 12261 0940 0D       		.uleb128 0xd
 12262 0941 39220000 		.4byte	.LASF247
 12263 0945 02       		.sleb128 2
 12264 0946 00       		.byte	0
 12265 0947 1B       		.uleb128 0x1b
 12266 0948 0401     		.2byte	0x104
 12267 094a 0A       		.byte	0xa
 12268 094b 2B01     		.2byte	0x12b
 12269 094d 87090000 		.4byte	0x987
 12270 0951 1C       		.uleb128 0x1c
 12271 0952 38030000 		.4byte	.LASF248
 12272 0956 0A       		.byte	0xa
 12273 0957 2D01     		.2byte	0x12d
 12274 0959 97000000 		.4byte	0x97
 12275 095d 00       		.byte	0
 12276 095e 1C       		.uleb128 0x1c
 12277 095f 281E0000 		.4byte	.LASF249
 12278 0963 0A       		.byte	0xa
 12279 0964 2E01     		.2byte	0x12e
 12280 0966 97000000 		.4byte	0x97
 12281 096a 01       		.byte	0x1
 12282 096b 1C       		.uleb128 0x1c
 12283 096c DE070000 		.4byte	.LASF47
 12284 0970 0A       		.byte	0xa
 12285 0971 2F01     		.2byte	0x12f
 12286 0973 87090000 		.4byte	0x987
 12287 0977 02       		.byte	0x2
 12288 0978 1D       		.uleb128 0x1d
 12289 0979 0C2C0000 		.4byte	.LASF48
 12290 097d 0A       		.byte	0xa
 12291 097e 3001     		.2byte	0x130
 12292 0980 A3000000 		.4byte	0xa3
 12293 0984 0201     		.2byte	0x102
 12294 0986 00       		.byte	0
 12295 0987 0A       		.uleb128 0xa
 12296 0988 ED000000 		.4byte	0xed
 12297 098c 97090000 		.4byte	0x997
 12298 0990 0B       		.uleb128 0xb
 12299 0991 0A010000 		.4byte	0x10a
 12300 0995 FF       		.byte	0xff
 12301 0996 00       		.byte	0
 12302 0997 05       		.uleb128 0x5
 12303 0998 DD2A0000 		.4byte	.LASF250
 12304 099c 0A       		.byte	0xa
 12305 099d 3201     		.2byte	0x132
 12306 099f 47090000 		.4byte	0x947
 12307 09a3 05       		.uleb128 0x5
 12308 09a4 0B120000 		.4byte	.LASF251
ARM GAS  C:\Users\RECEPC~1\AppData\Local\Temp\ccNQP0pp.s 			page 265


 12309 09a8 0A       		.byte	0xa
 12310 09a9 3201     		.2byte	0x132
 12311 09ab AF090000 		.4byte	0x9af
 12312 09af 07       		.uleb128 0x7
 12313 09b0 04       		.byte	0x4
 12314 09b1 47090000 		.4byte	0x947
 12315 09b5 1E       		.uleb128 0x1e
 12316 09b6 40       		.byte	0x40
 12317 09b7 0A       		.byte	0xa
 12318 09b8 3401     		.2byte	0x134
 12319 09ba 5B0A0000 		.4byte	0xa5b
 12320 09be 1C       		.uleb128 0x1c
 12321 09bf 97220000 		.4byte	.LASF252
 12322 09c3 0A       		.byte	0xa
 12323 09c4 3601     		.2byte	0x136
 12324 09c6 F4000000 		.4byte	0xf4
 12325 09ca 00       		.byte	0
 12326 09cb 1C       		.uleb128 0x1c
 12327 09cc 9D220000 		.4byte	.LASF253
 12328 09d0 0A       		.byte	0xa
 12329 09d1 3701     		.2byte	0x137
 12330 09d3 F4000000 		.4byte	0xf4
 12331 09d7 01       		.byte	0x1
 12332 09d8 1C       		.uleb128 0x1c
 12333 09d9 A3220000 		.4byte	.LASF254
 12334 09dd 0A       		.byte	0xa
 12335 09de 3901     		.2byte	0x139
 12336 09e0 F9000000 		.4byte	0xf9
 12337 09e4 02       		.byte	0x2
 12338 09e5 1C       		.uleb128 0x1c
 12339 09e6 90200000 		.4byte	.LASF255
 12340 09ea 0A       		.byte	0xa
 12341 09eb 3A01     		.2byte	0x13a
 12342 09ed F9000000 		.4byte	0xf9
 12343 09f1 04       		.byte	0x4
 12344 09f2 1C       		.uleb128 0x1c
 12345 09f3 96200000 		.4byte	.LASF256
 12346 09f7 0A       		.byte	0xa
 12347 09f8 3C01     		.2byte	0x13c
 12348 09fa FE000000 		.4byte	0xfe
 12349 09fe 08       		.byte	0x8
 12350 09ff 1C       		.uleb128 0x1c
 12351 0a00 CB220000 		.4byte	.LASF257
 12352 0a04 0A       		.byte	0xa
 12353 0a05 3D01     		.2byte	0x13d
 12354 0a07 FE000000 		.4byte	0xfe
 12355 0a0b 0C       		.byte	0xc
 12356 0a0c 1C       		.uleb128 0x1c
 12357 0a0d D1220000 		.4byte	.LASF258
 12358 0a11 0A       		.byte	0xa
 12359 0a12 4201     		.2byte	0x142
 12360 0a14 5B0A0000 		.4byte	0xa5b
 12361 0a18 10       		.byte	0x10
 12362 0a19 1C       		.uleb128 0x1c
 12363 0a1a D7220000 		.4byte	.LASF259
 12364 0a1e 0A       		.byte	0xa
 12365 0a1f 4301     		.2byte	0x143
ARM GAS  C:\Users\RECEPC~1\AppData\Local\Temp\ccNQP0pp.s 			page 266


 12366 0a21 5B0A0000 		.4byte	0xa5b
 12367 0a25 18       		.byte	0x18
 12368 0a26 1C       		.uleb128 0x1c
 12369 0a27 DD220000 		.4byte	.LASF260
 12370 0a2b 0A       		.byte	0xa
 12371 0a2c 4401     		.2byte	0x144
 12372 0a2e 5B0A0000 		.4byte	0xa5b
 12373 0a32 20       		.byte	0x20
 12374 0a33 1C       		.uleb128 0x1c
 12375 0a34 E3220000 		.4byte	.LASF261
 12376 0a38 0A       		.byte	0xa
 12377 0a39 4501     		.2byte	0x145
 12378 0a3b 5B0A0000 		.4byte	0xa5b
 12379 0a3f 28       		.byte	0x28
 12380 0a40 1C       		.uleb128 0x1c
 12381 0a41 1A230000 		.4byte	.LASF262
 12382 0a45 0A       		.byte	0xa
 12383 0a46 4701     		.2byte	0x147
 12384 0a48 600A0000 		.4byte	0xa60
 12385 0a4c 30       		.byte	0x30
 12386 0a4d 1C       		.uleb128 0x1c
 12387 0a4e 20230000 		.4byte	.LASF263
 12388 0a52 0A       		.byte	0xa
 12389 0a53 4801     		.2byte	0x148
 12390 0a55 600A0000 		.4byte	0xa60
 12391 0a59 38       		.byte	0x38
 12392 0a5a 00       		.byte	0
 12393 0a5b 06       		.uleb128 0x6
 12394 0a5c D5000000 		.4byte	0xd5
 12395 0a60 06       		.uleb128 0x6
 12396 0a61 CE000000 		.4byte	0xce
 12397 0a65 05       		.uleb128 0x5
 12398 0a66 011A0000 		.4byte	.LASF264
 12399 0a6a 0A       		.byte	0xa
 12400 0a6b 4A01     		.2byte	0x14a
 12401 0a6d B5090000 		.4byte	0x9b5
 12402 0a71 1E       		.uleb128 0x1e
 12403 0a72 18       		.byte	0x18
 12404 0a73 0A       		.byte	0xa
 12405 0a74 5201     		.2byte	0x152
 12406 0a76 D60A0000 		.4byte	0xad6
 12407 0a7a 1C       		.uleb128 0x1c
 12408 0a7b C11D0000 		.4byte	.LASF265
 12409 0a7f 0A       		.byte	0xa
 12410 0a80 5501     		.2byte	0x155
 12411 0a82 4F020000 		.4byte	0x24f
 12412 0a86 00       		.byte	0
 12413 0a87 1C       		.uleb128 0x1c
 12414 0a88 ED050000 		.4byte	.LASF266
 12415 0a8c 0A       		.byte	0xa
 12416 0a8d 5601     		.2byte	0x156
 12417 0a8f F4000000 		.4byte	0xf4
 12418 0a93 01       		.byte	0x1
 12419 0a94 1C       		.uleb128 0x1c
 12420 0a95 E50F0000 		.4byte	.LASF267
 12421 0a99 0A       		.byte	0xa
 12422 0a9a 5701     		.2byte	0x157
ARM GAS  C:\Users\RECEPC~1\AppData\Local\Temp\ccNQP0pp.s 			page 267


 12423 0a9c F4000000 		.4byte	0xf4
 12424 0aa0 02       		.byte	0x2
 12425 0aa1 1C       		.uleb128 0x1c
 12426 0aa2 311A0000 		.4byte	.LASF268
 12427 0aa6 0A       		.byte	0xa
 12428 0aa7 5801     		.2byte	0x158
 12429 0aa9 F9000000 		.4byte	0xf9
 12430 0aad 04       		.byte	0x4
 12431 0aae 1C       		.uleb128 0x1c
 12432 0aaf CF200000 		.4byte	.LASF269
 12433 0ab3 0A       		.byte	0xa
 12434 0ab4 5901     		.2byte	0x159
 12435 0ab6 FE000000 		.4byte	0xfe
 12436 0aba 08       		.byte	0x8
 12437 0abb 1C       		.uleb128 0x1c
 12438 0abc DE0D0000 		.4byte	.LASF270
 12439 0ac0 0A       		.byte	0xa
 12440 0ac1 5A01     		.2byte	0x15a
 12441 0ac3 FE000000 		.4byte	0xfe
 12442 0ac7 0C       		.byte	0xc
 12443 0ac8 1C       		.uleb128 0x1c
 12444 0ac9 070D0000 		.4byte	.LASF271
 12445 0acd 0A       		.byte	0xa
 12446 0ace 5B01     		.2byte	0x15b
 12447 0ad0 D60A0000 		.4byte	0xad6
 12448 0ad4 10       		.byte	0x10
 12449 0ad5 00       		.byte	0
 12450 0ad6 0A       		.uleb128 0xa
 12451 0ad7 E1000000 		.4byte	0xe1
 12452 0adb E60A0000 		.4byte	0xae6
 12453 0adf 0B       		.uleb128 0xb
 12454 0ae0 0A010000 		.4byte	0x10a
 12455 0ae4 07       		.byte	0x7
 12456 0ae5 00       		.byte	0
 12457 0ae6 05       		.uleb128 0x5
 12458 0ae7 F4120000 		.4byte	.LASF272
 12459 0aeb 0A       		.byte	0xa
 12460 0aec 5D01     		.2byte	0x15d
 12461 0aee 710A0000 		.4byte	0xa71
 12462 0af2 1F       		.uleb128 0x1f
 12463 0af3 93160000 		.4byte	.LASF273
 12464 0af7 9009     		.2byte	0x990
 12465 0af9 0A       		.byte	0xa
 12466 0afa 6001     		.2byte	0x160
 12467 0afc F10C0000 		.4byte	0xcf1
 12468 0b00 1C       		.uleb128 0x1c
 12469 0b01 7D110000 		.4byte	.LASF274
 12470 0b05 0A       		.byte	0xa
 12471 0b06 6201     		.2byte	0x162
 12472 0b08 97000000 		.4byte	0x97
 12473 0b0c 00       		.byte	0
 12474 0b0d 1C       		.uleb128 0x1c
 12475 0b0e 8A230000 		.4byte	.LASF275
 12476 0b12 0A       		.byte	0xa
 12477 0b13 6301     		.2byte	0x163
 12478 0b15 97000000 		.4byte	0x97
 12479 0b19 01       		.byte	0x1
ARM GAS  C:\Users\RECEPC~1\AppData\Local\Temp\ccNQP0pp.s 			page 268


 12480 0b1a 1C       		.uleb128 0x1c
 12481 0b1b 95080000 		.4byte	.LASF276
 12482 0b1f 0A       		.byte	0xa
 12483 0b20 6501     		.2byte	0x165
 12484 0b22 F4000000 		.4byte	0xf4
 12485 0b26 02       		.byte	0x2
 12486 0b27 1C       		.uleb128 0x1c
 12487 0b28 07210000 		.4byte	.LASF277
 12488 0b2c 0A       		.byte	0xa
 12489 0b2d 6601     		.2byte	0x166
 12490 0b2f F4000000 		.4byte	0xf4
 12491 0b33 03       		.byte	0x3
 12492 0b34 1C       		.uleb128 0x1c
 12493 0b35 C91E0000 		.4byte	.LASF278
 12494 0b39 0A       		.byte	0xa
 12495 0b3a 6701     		.2byte	0x167
 12496 0b3c F4000000 		.4byte	0xf4
 12497 0b40 04       		.byte	0x4
 12498 0b41 1C       		.uleb128 0x1c
 12499 0b42 45220000 		.4byte	.LASF279
 12500 0b46 0A       		.byte	0xa
 12501 0b47 6801     		.2byte	0x168
 12502 0b49 4F020000 		.4byte	0x24f
 12503 0b4d 05       		.byte	0x5
 12504 0b4e 1C       		.uleb128 0x1c
 12505 0b4f 51010000 		.4byte	.LASF280
 12506 0b53 0A       		.byte	0xa
 12507 0b54 6A01     		.2byte	0x16a
 12508 0b56 F4000000 		.4byte	0xf4
 12509 0b5a 06       		.byte	0x6
 12510 0b5b 1C       		.uleb128 0x1c
 12511 0b5c 5F230000 		.4byte	.LASF281
 12512 0b60 0A       		.byte	0xa
 12513 0b61 6B01     		.2byte	0x16b
 12514 0b63 F4000000 		.4byte	0xf4
 12515 0b67 07       		.byte	0x7
 12516 0b68 1C       		.uleb128 0x1c
 12517 0b69 C11D0000 		.4byte	.LASF265
 12518 0b6d 0A       		.byte	0xa
 12519 0b6e 6D01     		.2byte	0x16d
 12520 0b70 4F020000 		.4byte	0x24f
 12521 0b74 08       		.byte	0x8
 12522 0b75 1C       		.uleb128 0x1c
 12523 0b76 8F150000 		.4byte	.LASF282
 12524 0b7a 0A       		.byte	0xa
 12525 0b7b 6E01     		.2byte	0x16e
 12526 0b7d 4F020000 		.4byte	0x24f
 12527 0b81 09       		.byte	0x9
 12528 0b82 1C       		.uleb128 0x1c
 12529 0b83 5F210000 		.4byte	.LASF283
 12530 0b87 0A       		.byte	0xa
 12531 0b88 6F01     		.2byte	0x16f
 12532 0b8a 4F020000 		.4byte	0x24f
 12533 0b8e 0A       		.byte	0xa
 12534 0b8f 1C       		.uleb128 0x1c
 12535 0b90 B8230000 		.4byte	.LASF284
 12536 0b94 0A       		.byte	0xa
ARM GAS  C:\Users\RECEPC~1\AppData\Local\Temp\ccNQP0pp.s 			page 269


 12537 0b95 7001     		.2byte	0x170
 12538 0b97 4F020000 		.4byte	0x24f
 12539 0b9b 0B       		.byte	0xb
 12540 0b9c 1C       		.uleb128 0x1c
 12541 0b9d 84080000 		.4byte	.LASF285
 12542 0ba1 0A       		.byte	0xa
 12543 0ba2 7101     		.2byte	0x171
 12544 0ba4 F4000000 		.4byte	0xf4
 12545 0ba8 0C       		.byte	0xc
 12546 0ba9 1C       		.uleb128 0x1c
 12547 0baa 540F0000 		.4byte	.LASF286
 12548 0bae 0A       		.byte	0xa
 12549 0baf 7201     		.2byte	0x172
 12550 0bb1 4F020000 		.4byte	0x24f
 12551 0bb5 0D       		.byte	0xd
 12552 0bb6 1C       		.uleb128 0x1c
 12553 0bb7 22000000 		.4byte	.LASF287
 12554 0bbb 0A       		.byte	0xa
 12555 0bbc 7301     		.2byte	0x173
 12556 0bbe F4000000 		.4byte	0xf4
 12557 0bc2 0E       		.byte	0xe
 12558 0bc3 1C       		.uleb128 0x1c
 12559 0bc4 1F290000 		.4byte	.LASF288
 12560 0bc8 0A       		.byte	0xa
 12561 0bc9 7501     		.2byte	0x175
 12562 0bcb 4F020000 		.4byte	0x24f
 12563 0bcf 0F       		.byte	0xf
 12564 0bd0 1C       		.uleb128 0x1c
 12565 0bd1 3D190000 		.4byte	.LASF289
 12566 0bd5 0A       		.byte	0xa
 12567 0bd6 7701     		.2byte	0x177
 12568 0bd8 FE000000 		.4byte	0xfe
 12569 0bdc 10       		.byte	0x10
 12570 0bdd 1C       		.uleb128 0x1c
 12571 0bde 82130000 		.4byte	.LASF290
 12572 0be2 0A       		.byte	0xa
 12573 0be3 7801     		.2byte	0x178
 12574 0be5 FE000000 		.4byte	0xfe
 12575 0be9 14       		.byte	0x14
 12576 0bea 1C       		.uleb128 0x1c
 12577 0beb DB1C0000 		.4byte	.LASF291
 12578 0bef 0A       		.byte	0xa
 12579 0bf0 7B01     		.2byte	0x17b
 12580 0bf2 F4000000 		.4byte	0xf4
 12581 0bf6 18       		.byte	0x18
 12582 0bf7 1C       		.uleb128 0x1c
 12583 0bf8 281E0000 		.4byte	.LASF249
 12584 0bfc 0A       		.byte	0xa
 12585 0bfd 7C01     		.2byte	0x17c
 12586 0bff F4000000 		.4byte	0xf4
 12587 0c03 19       		.byte	0x19
 12588 0c04 1C       		.uleb128 0x1c
 12589 0c05 E41F0000 		.4byte	.LASF292
 12590 0c09 0A       		.byte	0xa
 12591 0c0a 7E01     		.2byte	0x17e
 12592 0c0c 11010000 		.4byte	0x111
 12593 0c10 1C       		.byte	0x1c
ARM GAS  C:\Users\RECEPC~1\AppData\Local\Temp\ccNQP0pp.s 			page 270


 12594 0c11 1C       		.uleb128 0x1c
 12595 0c12 82120000 		.4byte	.LASF293
 12596 0c16 0A       		.byte	0xa
 12597 0c17 7F01     		.2byte	0x17f
 12598 0c19 F10C0000 		.4byte	0xcf1
 12599 0c1d 20       		.byte	0x20
 12600 0c1e 1D       		.uleb128 0x1d
 12601 0c1f EC110000 		.4byte	.LASF294
 12602 0c23 0A       		.byte	0xa
 12603 0c24 8101     		.2byte	0x181
 12604 0c26 F10C0000 		.4byte	0xcf1
 12605 0c2a 8801     		.2byte	0x188
 12606 0c2c 1D       		.uleb128 0x1d
 12607 0c2d B1020000 		.4byte	.LASF295
 12608 0c31 0A       		.byte	0xa
 12609 0c32 8201     		.2byte	0x182
 12610 0c34 A3000000 		.4byte	0xa3
 12611 0c38 F002     		.2byte	0x2f0
 12612 0c3a 1D       		.uleb128 0x1d
 12613 0c3b 7C050000 		.4byte	.LASF296
 12614 0c3f 0A       		.byte	0xa
 12615 0c40 8601     		.2byte	0x186
 12616 0c42 020D0000 		.4byte	0xd02
 12617 0c46 F202     		.2byte	0x2f2
 12618 0c48 1D       		.uleb128 0x1d
 12619 0c49 D30F0000 		.4byte	.LASF297
 12620 0c4d 0A       		.byte	0xa
 12621 0c4e 8801     		.2byte	0x188
 12622 0c50 4F020000 		.4byte	0x24f
 12623 0c54 0A09     		.2byte	0x90a
 12624 0c56 1D       		.uleb128 0x1d
 12625 0c57 5B240000 		.4byte	.LASF298
 12626 0c5b 0A       		.byte	0xa
 12627 0c5c 8A01     		.2byte	0x18a
 12628 0c5e 77020000 		.4byte	0x277
 12629 0c62 0C09     		.2byte	0x90c
 12630 0c64 1D       		.uleb128 0x1d
 12631 0c65 C12B0000 		.4byte	.LASF299
 12632 0c69 0A       		.byte	0xa
 12633 0c6a 8B01     		.2byte	0x18b
 12634 0c6c 77020000 		.4byte	0x277
 12635 0c70 1009     		.2byte	0x910
 12636 0c72 1D       		.uleb128 0x1d
 12637 0c73 9B290000 		.4byte	.LASF300
 12638 0c77 0A       		.byte	0xa
 12639 0c78 8C01     		.2byte	0x18c
 12640 0c7a 260D0000 		.4byte	0xd26
 12641 0c7e 1409     		.2byte	0x914
 12642 0c80 1D       		.uleb128 0x1d
 12643 0c81 E2240000 		.4byte	.LASF301
 12644 0c85 0A       		.byte	0xa
 12645 0c86 8D01     		.2byte	0x18d
 12646 0c88 3C0D0000 		.4byte	0xd3c
 12647 0c8c 1809     		.2byte	0x918
 12648 0c8e 1D       		.uleb128 0x1d
 12649 0c8f BB060000 		.4byte	.LASF302
 12650 0c93 0A       		.byte	0xa
ARM GAS  C:\Users\RECEPC~1\AppData\Local\Temp\ccNQP0pp.s 			page 271


 12651 0c94 8E01     		.2byte	0x18e
 12652 0c96 3C0D0000 		.4byte	0xd3c
 12653 0c9a 1C09     		.2byte	0x91c
 12654 0c9c 1D       		.uleb128 0x1d
 12655 0c9d 7B240000 		.4byte	.LASF303
 12656 0ca1 0A       		.byte	0xa
 12657 0ca2 8F01     		.2byte	0x18f
 12658 0ca4 510D0000 		.4byte	0xd51
 12659 0ca8 2009     		.2byte	0x920
 12660 0caa 1D       		.uleb128 0x1d
 12661 0cab 1C0E0000 		.4byte	.LASF304
 12662 0caf 0A       		.byte	0xa
 12663 0cb0 9001     		.2byte	0x190
 12664 0cb2 510D0000 		.4byte	0xd51
 12665 0cb6 2409     		.2byte	0x924
 12666 0cb8 1D       		.uleb128 0x1d
 12667 0cb9 3E270000 		.4byte	.LASF305
 12668 0cbd 0A       		.byte	0xa
 12669 0cbe 9201     		.2byte	0x192
 12670 0cc0 5B070000 		.4byte	0x75b
 12671 0cc4 2809     		.2byte	0x928
 12672 0cc6 1D       		.uleb128 0x1d
 12673 0cc7 F42A0000 		.4byte	.LASF306
 12674 0ccb 0A       		.byte	0xa
 12675 0ccc 9401     		.2byte	0x194
 12676 0cce 650A0000 		.4byte	0xa65
 12677 0cd2 3009     		.2byte	0x930
 12678 0cd4 1D       		.uleb128 0x1d
 12679 0cd5 4D270000 		.4byte	.LASF307
 12680 0cd9 0A       		.byte	0xa
 12681 0cda 9501     		.2byte	0x195
 12682 0cdc E60A0000 		.4byte	0xae6
 12683 0ce0 7009     		.2byte	0x970
 12684 0ce2 1D       		.uleb128 0x1d
 12685 0ce3 311F0000 		.4byte	.LASF308
 12686 0ce7 0A       		.byte	0xa
 12687 0ce8 9701     		.2byte	0x197
 12688 0cea 77020000 		.4byte	0x277
 12689 0cee 8809     		.2byte	0x988
 12690 0cf0 00       		.byte	0
 12691 0cf1 0A       		.uleb128 0xa
 12692 0cf2 E1000000 		.4byte	0xe1
 12693 0cf6 020D0000 		.4byte	0xd02
 12694 0cfa 11       		.uleb128 0x11
 12695 0cfb 0A010000 		.4byte	0x10a
 12696 0cff 6701     		.2byte	0x167
 12697 0d01 00       		.byte	0
 12698 0d02 0A       		.uleb128 0xa
 12699 0d03 97090000 		.4byte	0x997
 12700 0d07 120D0000 		.4byte	0xd12
 12701 0d0b 0B       		.uleb128 0xb
 12702 0d0c 0A010000 		.4byte	0x10a
 12703 0d10 05       		.byte	0x5
 12704 0d11 00       		.byte	0
 12705 0d12 18       		.uleb128 0x18
 12706 0d13 54020000 		.4byte	0x254
 12707 0d17 260D0000 		.4byte	0xd26
ARM GAS  C:\Users\RECEPC~1\AppData\Local\Temp\ccNQP0pp.s 			page 272


 12708 0d1b 13       		.uleb128 0x13
 12709 0d1c 11010000 		.4byte	0x111
 12710 0d20 13       		.uleb128 0x13
 12711 0d21 97000000 		.4byte	0x97
 12712 0d25 00       		.byte	0
 12713 0d26 07       		.uleb128 0x7
 12714 0d27 04       		.byte	0x4
 12715 0d28 120D0000 		.4byte	0xd12
 12716 0d2c 12       		.uleb128 0x12
 12717 0d2d 3C0D0000 		.4byte	0xd3c
 12718 0d31 13       		.uleb128 0x13
 12719 0d32 11010000 		.4byte	0x111
 12720 0d36 13       		.uleb128 0x13
 12721 0d37 A3090000 		.4byte	0x9a3
 12722 0d3b 00       		.byte	0
 12723 0d3c 07       		.uleb128 0x7
 12724 0d3d 04       		.byte	0x4
 12725 0d3e 2C0D0000 		.4byte	0xd2c
 12726 0d42 18       		.uleb128 0x18
 12727 0d43 A3090000 		.4byte	0x9a3
 12728 0d47 510D0000 		.4byte	0xd51
 12729 0d4b 13       		.uleb128 0x13
 12730 0d4c 11010000 		.4byte	0x111
 12731 0d50 00       		.byte	0
 12732 0d51 07       		.uleb128 0x7
 12733 0d52 04       		.byte	0x4
 12734 0d53 420D0000 		.4byte	0xd42
 12735 0d57 05       		.uleb128 0x5
 12736 0d58 811F0000 		.4byte	.LASF309
 12737 0d5c 0A       		.byte	0xa
 12738 0d5d 9901     		.2byte	0x199
 12739 0d5f F20A0000 		.4byte	0xaf2
 12740 0d63 05       		.uleb128 0x5
 12741 0d64 9B1E0000 		.4byte	.LASF310
 12742 0d68 0A       		.byte	0xa
 12743 0d69 9901     		.2byte	0x199
 12744 0d6b 6F0D0000 		.4byte	0xd6f
 12745 0d6f 07       		.uleb128 0x7
 12746 0d70 04       		.byte	0x4
 12747 0d71 F20A0000 		.4byte	0xaf2
 12748 0d75 20       		.uleb128 0x20
 12749 0d76 961D0000 		.4byte	.LASF311
 12750 0d7a 34       		.byte	0x34
 12751 0d7b 0A       		.byte	0xa
 12752 0d7c 9E01     		.2byte	0x19e
 12753 0d7e 390E0000 		.4byte	0xe39
 12754 0d82 1C       		.uleb128 0x1c
 12755 0d83 95230000 		.4byte	.LASF312
 12756 0d87 0A       		.byte	0xa
 12757 0d88 A001     		.2byte	0x1a0
 12758 0d8a 77020000 		.4byte	0x277
 12759 0d8e 00       		.byte	0
 12760 0d8f 1C       		.uleb128 0x1c
 12761 0d90 D30B0000 		.4byte	.LASF313
 12762 0d94 0A       		.byte	0xa
 12763 0d95 A101     		.2byte	0x1a1
 12764 0d97 77020000 		.4byte	0x277
ARM GAS  C:\Users\RECEPC~1\AppData\Local\Temp\ccNQP0pp.s 			page 273


 12765 0d9b 04       		.byte	0x4
 12766 0d9c 1C       		.uleb128 0x1c
 12767 0d9d 211F0000 		.4byte	.LASF314
 12768 0da1 0A       		.byte	0xa
 12769 0da2 A201     		.2byte	0x1a2
 12770 0da4 77020000 		.4byte	0x277
 12771 0da8 08       		.byte	0x8
 12772 0da9 1C       		.uleb128 0x1c
 12773 0daa 89000000 		.4byte	.LASF315
 12774 0dae 0A       		.byte	0xa
 12775 0daf A301     		.2byte	0x1a3
 12776 0db1 520E0000 		.4byte	0xe52
 12777 0db5 0C       		.byte	0xc
 12778 0db6 1C       		.uleb128 0x1c
 12779 0db7 E7280000 		.4byte	.LASF316
 12780 0dbb 0A       		.byte	0xa
 12781 0dbc A401     		.2byte	0x1a4
 12782 0dbe A3000000 		.4byte	0xa3
 12783 0dc2 10       		.byte	0x10
 12784 0dc3 1C       		.uleb128 0x1c
 12785 0dc4 9C200000 		.4byte	.LASF317
 12786 0dc8 0A       		.byte	0xa
 12787 0dc9 A501     		.2byte	0x1a5
 12788 0dcb AF000000 		.4byte	0xaf
 12789 0dcf 14       		.byte	0x14
 12790 0dd0 1C       		.uleb128 0x1c
 12791 0dd1 F6110000 		.4byte	.LASF318
 12792 0dd5 0A       		.byte	0xa
 12793 0dd6 A601     		.2byte	0x1a6
 12794 0dd8 97000000 		.4byte	0x97
 12795 0ddc 18       		.byte	0x18
 12796 0ddd 1C       		.uleb128 0x1c
 12797 0dde 22280000 		.4byte	.LASF319
 12798 0de2 0A       		.byte	0xa
 12799 0de3 A801     		.2byte	0x1a8
 12800 0de5 54020000 		.4byte	0x254
 12801 0de9 19       		.byte	0x19
 12802 0dea 1C       		.uleb128 0x1c
 12803 0deb D20E0000 		.4byte	.LASF320
 12804 0def 0A       		.byte	0xa
 12805 0df0 AC01     		.2byte	0x1ac
 12806 0df2 580E0000 		.4byte	0xe58
 12807 0df6 1A       		.byte	0x1a
 12808 0df7 1C       		.uleb128 0x1c
 12809 0df8 8C1E0000 		.4byte	.LASF321
 12810 0dfc 0A       		.byte	0xa
 12811 0dfd AE01     		.2byte	0x1ae
 12812 0dff 19010000 		.4byte	0x119
 12813 0e03 1E       		.byte	0x1e
 12814 0e04 1C       		.uleb128 0x1c
 12815 0e05 6E1A0000 		.4byte	.LASF322
 12816 0e09 0A       		.byte	0xa
 12817 0e0a B201     		.2byte	0x1b2
 12818 0e0c 580E0000 		.4byte	0xe58
 12819 0e10 22       		.byte	0x22
 12820 0e11 1C       		.uleb128 0x1c
 12821 0e12 F3040000 		.4byte	.LASF323
ARM GAS  C:\Users\RECEPC~1\AppData\Local\Temp\ccNQP0pp.s 			page 274


 12822 0e16 0A       		.byte	0xa
 12823 0e17 B401     		.2byte	0x1b4
 12824 0e19 19010000 		.4byte	0x119
 12825 0e1d 26       		.byte	0x26
 12826 0e1e 1C       		.uleb128 0x1c
 12827 0e1f CA050000 		.4byte	.LASF324
 12828 0e23 0A       		.byte	0xa
 12829 0e24 B601     		.2byte	0x1b6
 12830 0e26 77020000 		.4byte	0x277
 12831 0e2a 2C       		.byte	0x2c
 12832 0e2b 1C       		.uleb128 0x1c
 12833 0e2c 9D150000 		.4byte	.LASF325
 12834 0e30 0A       		.byte	0xa
 12835 0e31 B701     		.2byte	0x1b7
 12836 0e33 77020000 		.4byte	0x277
 12837 0e37 30       		.byte	0x30
 12838 0e38 00       		.byte	0
 12839 0e39 18       		.uleb128 0x18
 12840 0e3a 54020000 		.4byte	0x254
 12841 0e3e 520E0000 		.4byte	0xe52
 12842 0e42 13       		.uleb128 0x13
 12843 0e43 11010000 		.4byte	0x111
 12844 0e47 13       		.uleb128 0x13
 12845 0e48 11010000 		.4byte	0x111
 12846 0e4c 13       		.uleb128 0x13
 12847 0e4d A3000000 		.4byte	0xa3
 12848 0e51 00       		.byte	0
 12849 0e52 07       		.uleb128 0x7
 12850 0e53 04       		.byte	0x4
 12851 0e54 390E0000 		.4byte	0xe39
 12852 0e58 0A       		.uleb128 0xa
 12853 0e59 54020000 		.4byte	0x254
 12854 0e5d 680E0000 		.4byte	0xe68
 12855 0e61 0B       		.uleb128 0xb
 12856 0e62 0A010000 		.4byte	0x10a
 12857 0e66 03       		.byte	0x3
 12858 0e67 00       		.byte	0
 12859 0e68 05       		.uleb128 0x5
 12860 0e69 240B0000 		.4byte	.LASF326
 12861 0e6d 0A       		.byte	0xa
 12862 0e6e B801     		.2byte	0x1b8
 12863 0e70 750D0000 		.4byte	0xd75
 12864 0e74 1F       		.uleb128 0x1f
 12865 0e75 2B010000 		.4byte	.LASF327
 12866 0e79 AC03     		.2byte	0x3ac
 12867 0e7b 0A       		.byte	0xa
 12868 0e7c BA01     		.2byte	0x1ba
 12869 0e7e 9D0E0000 		.4byte	0xe9d
 12870 0e82 1C       		.uleb128 0x1c
 12871 0e83 47170000 		.4byte	.LASF328
 12872 0e87 0A       		.byte	0xa
 12873 0e88 BC01     		.2byte	0x1bc
 12874 0e8a 81000000 		.4byte	0x81
 12875 0e8e 00       		.byte	0
 12876 0e8f 1C       		.uleb128 0x1c
 12877 0e90 85020000 		.4byte	.LASF329
 12878 0e94 0A       		.byte	0xa
ARM GAS  C:\Users\RECEPC~1\AppData\Local\Temp\ccNQP0pp.s 			page 275


 12879 0e95 BD01     		.2byte	0x1bd
 12880 0e97 9D0E0000 		.4byte	0xe9d
 12881 0e9b 04       		.byte	0x4
 12882 0e9c 00       		.byte	0
 12883 0e9d 0A       		.uleb128 0xa
 12884 0e9e 680E0000 		.4byte	0xe68
 12885 0ea2 AD0E0000 		.4byte	0xead
 12886 0ea6 0B       		.uleb128 0xb
 12887 0ea7 0A010000 		.4byte	0x10a
 12888 0eab 11       		.byte	0x11
 12889 0eac 00       		.byte	0
 12890 0ead 05       		.uleb128 0x5
 12891 0eae 630D0000 		.4byte	.LASF330
 12892 0eb2 0A       		.byte	0xa
 12893 0eb3 BE01     		.2byte	0x1be
 12894 0eb5 740E0000 		.4byte	0xe74
 12895 0eb9 1E       		.uleb128 0x1e
 12896 0eba 28       		.byte	0x28
 12897 0ebb 0A       		.byte	0xa
 12898 0ebc C701     		.2byte	0x1c7
 12899 0ebe 930F0000 		.4byte	0xf93
 12900 0ec2 1C       		.uleb128 0x1c
 12901 0ec3 040B0000 		.4byte	.LASF331
 12902 0ec7 0A       		.byte	0xa
 12903 0ec8 C901     		.2byte	0x1c9
 12904 0eca 4F020000 		.4byte	0x24f
 12905 0ece 00       		.byte	0
 12906 0ecf 1C       		.uleb128 0x1c
 12907 0ed0 032B0000 		.4byte	.LASF332
 12908 0ed4 0A       		.byte	0xa
 12909 0ed5 CA01     		.2byte	0x1ca
 12910 0ed7 F4000000 		.4byte	0xf4
 12911 0edb 01       		.byte	0x1
 12912 0edc 1C       		.uleb128 0x1c
 12913 0edd 38030000 		.4byte	.LASF248
 12914 0ee1 0A       		.byte	0xa
 12915 0ee2 CD01     		.2byte	0x1cd
 12916 0ee4 F4000000 		.4byte	0xf4
 12917 0ee8 02       		.byte	0x2
 12918 0ee9 1C       		.uleb128 0x1c
 12919 0eea 92130000 		.4byte	.LASF333
 12920 0eee 0A       		.byte	0xa
 12921 0eef CF01     		.2byte	0x1cf
 12922 0ef1 F9000000 		.4byte	0xf9
 12923 0ef5 04       		.byte	0x4
 12924 0ef6 1C       		.uleb128 0x1c
 12925 0ef7 131A0000 		.4byte	.LASF334
 12926 0efb 0A       		.byte	0xa
 12927 0efc D001     		.2byte	0x1d0
 12928 0efe F9000000 		.4byte	0xf9
 12929 0f02 06       		.byte	0x6
 12930 0f03 1C       		.uleb128 0x1c
 12931 0f04 48260000 		.4byte	.LASF335
 12932 0f08 0A       		.byte	0xa
 12933 0f09 D201     		.2byte	0x1d2
 12934 0f0b F9000000 		.4byte	0xf9
 12935 0f0f 08       		.byte	0x8
ARM GAS  C:\Users\RECEPC~1\AppData\Local\Temp\ccNQP0pp.s 			page 276


 12936 0f10 1C       		.uleb128 0x1c
 12937 0f11 8E270000 		.4byte	.LASF336
 12938 0f15 0A       		.byte	0xa
 12939 0f16 D301     		.2byte	0x1d3
 12940 0f18 F9000000 		.4byte	0xf9
 12941 0f1c 0A       		.byte	0xa
 12942 0f1d 1C       		.uleb128 0x1c
 12943 0f1e BF000000 		.4byte	.LASF337
 12944 0f22 0A       		.byte	0xa
 12945 0f23 D401     		.2byte	0x1d4
 12946 0f25 F9000000 		.4byte	0xf9
 12947 0f29 0C       		.byte	0xc
 12948 0f2a 1C       		.uleb128 0x1c
 12949 0f2b BB1C0000 		.4byte	.LASF338
 12950 0f2f 0A       		.byte	0xa
 12951 0f30 D601     		.2byte	0x1d6
 12952 0f32 F9000000 		.4byte	0xf9
 12953 0f36 0E       		.byte	0xe
 12954 0f37 1C       		.uleb128 0x1c
 12955 0f38 56160000 		.4byte	.LASF339
 12956 0f3c 0A       		.byte	0xa
 12957 0f3d D701     		.2byte	0x1d7
 12958 0f3f F9000000 		.4byte	0xf9
 12959 0f43 10       		.byte	0x10
 12960 0f44 1C       		.uleb128 0x1c
 12961 0f45 3F080000 		.4byte	.LASF340
 12962 0f49 0A       		.byte	0xa
 12963 0f4a D801     		.2byte	0x1d8
 12964 0f4c F9000000 		.4byte	0xf9
 12965 0f50 12       		.byte	0x12
 12966 0f51 1C       		.uleb128 0x1c
 12967 0f52 ED150000 		.4byte	.LASF341
 12968 0f56 0A       		.byte	0xa
 12969 0f57 DA01     		.2byte	0x1da
 12970 0f59 930F0000 		.4byte	0xf93
 12971 0f5d 14       		.byte	0x14
 12972 0f5e 1C       		.uleb128 0x1c
 12973 0f5f 310C0000 		.4byte	.LASF342
 12974 0f63 0A       		.byte	0xa
 12975 0f64 DB01     		.2byte	0x1db
 12976 0f66 930F0000 		.4byte	0xf93
 12977 0f6a 18       		.byte	0x18
 12978 0f6b 1C       		.uleb128 0x1c
 12979 0f6c 640F0000 		.4byte	.LASF343
 12980 0f70 0A       		.byte	0xa
 12981 0f71 DC01     		.2byte	0x1dc
 12982 0f73 990F0000 		.4byte	0xf99
 12983 0f77 1C       		.byte	0x1c
 12984 0f78 1C       		.uleb128 0x1c
 12985 0f79 AA150000 		.4byte	.LASF50
 12986 0f7d 0A       		.byte	0xa
 12987 0f7e DE01     		.2byte	0x1de
 12988 0f80 77020000 		.4byte	0x277
 12989 0f84 20       		.byte	0x20
 12990 0f85 1C       		.uleb128 0x1c
 12991 0f86 56150000 		.4byte	.LASF49
 12992 0f8a 0A       		.byte	0xa
ARM GAS  C:\Users\RECEPC~1\AppData\Local\Temp\ccNQP0pp.s 			page 277


 12993 0f8b DF01     		.2byte	0x1df
 12994 0f8d 11010000 		.4byte	0x111
 12995 0f91 24       		.byte	0x24
 12996 0f92 00       		.byte	0
 12997 0f93 07       		.uleb128 0x7
 12998 0f94 04       		.byte	0x4
 12999 0f95 680E0000 		.4byte	0xe68
 13000 0f99 07       		.uleb128 0x7
 13001 0f9a 04       		.byte	0x4
 13002 0f9b 570D0000 		.4byte	0xd57
 13003 0f9f 05       		.uleb128 0x5
 13004 0fa0 16200000 		.4byte	.LASF344
 13005 0fa4 0A       		.byte	0xa
 13006 0fa5 E101     		.2byte	0x1e1
 13007 0fa7 B90E0000 		.4byte	0xeb9
 13008 0fab 05       		.uleb128 0x5
 13009 0fac FE1B0000 		.4byte	.LASF345
 13010 0fb0 0A       		.byte	0xa
 13011 0fb1 E101     		.2byte	0x1e1
 13012 0fb3 B70F0000 		.4byte	0xfb7
 13013 0fb7 07       		.uleb128 0x7
 13014 0fb8 04       		.byte	0x4
 13015 0fb9 B90E0000 		.4byte	0xeb9
 13016 0fbd 1F       		.uleb128 0x1f
 13017 0fbe 74020000 		.4byte	.LASF346
 13018 0fc2 0408     		.2byte	0x804
 13019 0fc4 0A       		.byte	0xa
 13020 0fc5 E301     		.2byte	0x1e3
 13021 0fc7 48100000 		.4byte	0x1048
 13022 0fcb 1C       		.uleb128 0x1c
 13023 0fcc 1F1B0000 		.4byte	.LASF347
 13024 0fd0 0A       		.byte	0xa
 13025 0fd1 E501     		.2byte	0x1e5
 13026 0fd3 F9000000 		.4byte	0xf9
 13027 0fd7 00       		.byte	0
 13028 0fd8 1C       		.uleb128 0x1c
 13029 0fd9 4E1F0000 		.4byte	.LASF348
 13030 0fdd 0A       		.byte	0xa
 13031 0fde E701     		.2byte	0x1e7
 13032 0fe0 48100000 		.4byte	0x1048
 13033 0fe4 04       		.byte	0x4
 13034 0fe5 1D       		.uleb128 0x1d
 13035 0fe6 E1090000 		.4byte	.LASF349
 13036 0fea 0A       		.byte	0xa
 13037 0feb E801     		.2byte	0x1e8
 13038 0fed 58100000 		.4byte	0x1058
 13039 0ff1 3407     		.2byte	0x734
 13040 0ff3 1D       		.uleb128 0x1d
 13041 0ff4 04120000 		.4byte	.LASF350
 13042 0ff8 0A       		.byte	0xa
 13043 0ff9 EA01     		.2byte	0x1ea
 13044 0ffb 77020000 		.4byte	0x277
 13045 0fff EC07     		.2byte	0x7ec
 13046 1001 1D       		.uleb128 0x1d
 13047 1002 D91D0000 		.4byte	.LASF351
 13048 1006 0A       		.byte	0xa
 13049 1007 EB01     		.2byte	0x1eb
ARM GAS  C:\Users\RECEPC~1\AppData\Local\Temp\ccNQP0pp.s 			page 278


 13050 1009 7D100000 		.4byte	0x107d
 13051 100d F007     		.2byte	0x7f0
 13052 100f 1D       		.uleb128 0x1d
 13053 1010 CA120000 		.4byte	.LASF352
 13054 1014 0A       		.byte	0xa
 13055 1015 EC01     		.2byte	0x1ec
 13056 1017 93100000 		.4byte	0x1093
 13057 101b F407     		.2byte	0x7f4
 13058 101d 1D       		.uleb128 0x1d
 13059 101e 170E0000 		.4byte	.LASF353
 13060 1022 0A       		.byte	0xa
 13061 1023 ED01     		.2byte	0x1ed
 13062 1025 7D100000 		.4byte	0x107d
 13063 1029 F807     		.2byte	0x7f8
 13064 102b 1D       		.uleb128 0x1d
 13065 102c 06250000 		.4byte	.LASF354
 13066 1030 0A       		.byte	0xa
 13067 1031 EE01     		.2byte	0x1ee
 13068 1033 77020000 		.4byte	0x277
 13069 1037 FC07     		.2byte	0x7fc
 13070 1039 1D       		.uleb128 0x1d
 13071 103a 1B110000 		.4byte	.LASF355
 13072 103e 0A       		.byte	0xa
 13073 103f EF01     		.2byte	0x1ef
 13074 1041 77020000 		.4byte	0x277
 13075 1045 0008     		.2byte	0x800
 13076 1047 00       		.byte	0
 13077 1048 0A       		.uleb128 0xa
 13078 1049 9F0F0000 		.4byte	0xf9f
 13079 104d 58100000 		.4byte	0x1058
 13080 1051 0B       		.uleb128 0xb
 13081 1052 0A010000 		.4byte	0x10a
 13082 1056 2D       		.byte	0x2d
 13083 1057 00       		.byte	0
 13084 1058 0A       		.uleb128 0xa
 13085 1059 68100000 		.4byte	0x1068
 13086 105d 68100000 		.4byte	0x1068
 13087 1061 0B       		.uleb128 0xb
 13088 1062 0A010000 		.4byte	0x10a
 13089 1066 2D       		.byte	0x2d
 13090 1067 00       		.byte	0
 13091 1068 07       		.uleb128 0x7
 13092 1069 04       		.byte	0x4
 13093 106a 9F0F0000 		.4byte	0xf9f
 13094 106e 18       		.uleb128 0x18
 13095 106f 68100000 		.4byte	0x1068
 13096 1073 7D100000 		.4byte	0x107d
 13097 1077 13       		.uleb128 0x13
 13098 1078 11010000 		.4byte	0x111
 13099 107c 00       		.byte	0
 13100 107d 07       		.uleb128 0x7
 13101 107e 04       		.byte	0x4
 13102 107f 6E100000 		.4byte	0x106e
 13103 1083 12       		.uleb128 0x12
 13104 1084 93100000 		.4byte	0x1093
 13105 1088 13       		.uleb128 0x13
 13106 1089 11010000 		.4byte	0x111
ARM GAS  C:\Users\RECEPC~1\AppData\Local\Temp\ccNQP0pp.s 			page 279


 13107 108d 13       		.uleb128 0x13
 13108 108e 68100000 		.4byte	0x1068
 13109 1092 00       		.byte	0
 13110 1093 07       		.uleb128 0x7
 13111 1094 04       		.byte	0x4
 13112 1095 83100000 		.4byte	0x1083
 13113 1099 05       		.uleb128 0x5
 13114 109a 48040000 		.4byte	.LASF356
 13115 109e 0A       		.byte	0xa
 13116 109f F101     		.2byte	0x1f1
 13117 10a1 BD0F0000 		.4byte	0xfbd
 13118 10a5 1E       		.uleb128 0x1e
 13119 10a6 14       		.byte	0x14
 13120 10a7 0A       		.byte	0xa
 13121 10a8 FD01     		.2byte	0x1fd
 13122 10aa 8F110000 		.4byte	0x118f
 13123 10ae 1C       		.uleb128 0x1c
 13124 10af 31140000 		.4byte	.LASF357
 13125 10b3 0A       		.byte	0xa
 13126 10b4 FF01     		.2byte	0x1ff
 13127 10b6 4F020000 		.4byte	0x24f
 13128 10ba 00       		.byte	0
 13129 10bb 1C       		.uleb128 0x1c
 13130 10bc 30200000 		.4byte	.LASF358
 13131 10c0 0A       		.byte	0xa
 13132 10c1 0002     		.2byte	0x200
 13133 10c3 4F020000 		.4byte	0x24f
 13134 10c7 01       		.byte	0x1
 13135 10c8 1C       		.uleb128 0x1c
 13136 10c9 AE0C0000 		.4byte	.LASF359
 13137 10cd 0A       		.byte	0xa
 13138 10ce 0402     		.2byte	0x204
 13139 10d0 97000000 		.4byte	0x97
 13140 10d4 02       		.byte	0x2
 13141 10d5 1C       		.uleb128 0x1c
 13142 10d6 B91E0000 		.4byte	.LASF360
 13143 10da 0A       		.byte	0xa
 13144 10db 1202     		.2byte	0x212
 13145 10dd 97000000 		.4byte	0x97
 13146 10e1 03       		.byte	0x3
 13147 10e2 1C       		.uleb128 0x1c
 13148 10e3 CE0D0000 		.4byte	.LASF361
 13149 10e7 0A       		.byte	0xa
 13150 10e8 1302     		.2byte	0x213
 13151 10ea 97000000 		.4byte	0x97
 13152 10ee 04       		.byte	0x4
 13153 10ef 1C       		.uleb128 0x1c
 13154 10f0 DA1E0000 		.4byte	.LASF362
 13155 10f4 0A       		.byte	0xa
 13156 10f5 1402     		.2byte	0x214
 13157 10f7 97000000 		.4byte	0x97
 13158 10fb 05       		.byte	0x5
 13159 10fc 1C       		.uleb128 0x1c
 13160 10fd EA1E0000 		.4byte	.LASF363
 13161 1101 0A       		.byte	0xa
 13162 1102 1502     		.2byte	0x215
 13163 1104 97000000 		.4byte	0x97
ARM GAS  C:\Users\RECEPC~1\AppData\Local\Temp\ccNQP0pp.s 			page 280


 13164 1108 06       		.byte	0x6
 13165 1109 1C       		.uleb128 0x1c
 13166 110a 1F0F0000 		.4byte	.LASF364
 13167 110e 0A       		.byte	0xa
 13168 110f 1702     		.2byte	0x217
 13169 1111 97000000 		.4byte	0x97
 13170 1115 07       		.byte	0x7
 13171 1116 1C       		.uleb128 0x1c
 13172 1117 70110000 		.4byte	.LASF365
 13173 111b 0A       		.byte	0xa
 13174 111c 1802     		.2byte	0x218
 13175 111e 97000000 		.4byte	0x97
 13176 1122 08       		.byte	0x8
 13177 1123 1C       		.uleb128 0x1c
 13178 1124 B80D0000 		.4byte	.LASF366
 13179 1128 0A       		.byte	0xa
 13180 1129 1902     		.2byte	0x219
 13181 112b 97000000 		.4byte	0x97
 13182 112f 09       		.byte	0x9
 13183 1130 1C       		.uleb128 0x1c
 13184 1131 3A000000 		.4byte	.LASF367
 13185 1135 0A       		.byte	0xa
 13186 1136 1B02     		.2byte	0x21b
 13187 1138 97000000 		.4byte	0x97
 13188 113c 0A       		.byte	0xa
 13189 113d 1C       		.uleb128 0x1c
 13190 113e 400F0000 		.4byte	.LASF368
 13191 1142 0A       		.byte	0xa
 13192 1143 1D02     		.2byte	0x21d
 13193 1145 A3000000 		.4byte	0xa3
 13194 1149 0C       		.byte	0xc
 13195 114a 1C       		.uleb128 0x1c
 13196 114b 111F0000 		.4byte	.LASF369
 13197 114f 0A       		.byte	0xa
 13198 1150 1E02     		.2byte	0x21e
 13199 1152 A3000000 		.4byte	0xa3
 13200 1156 0E       		.byte	0xe
 13201 1157 1C       		.uleb128 0x1c
 13202 1158 872B0000 		.4byte	.LASF370
 13203 115c 0A       		.byte	0xa
 13204 115d 2002     		.2byte	0x220
 13205 115f 97000000 		.4byte	0x97
 13206 1163 10       		.byte	0x10
 13207 1164 1C       		.uleb128 0x1c
 13208 1165 8D0C0000 		.4byte	.LASF371
 13209 1169 0A       		.byte	0xa
 13210 116a 2202     		.2byte	0x222
 13211 116c 97000000 		.4byte	0x97
 13212 1170 11       		.byte	0x11
 13213 1171 1C       		.uleb128 0x1c
 13214 1172 12000000 		.4byte	.LASF372
 13215 1176 0A       		.byte	0xa
 13216 1177 2402     		.2byte	0x224
 13217 1179 97000000 		.4byte	0x97
 13218 117d 12       		.byte	0x12
 13219 117e 21       		.uleb128 0x21
 13220 117f 351B0000 		.4byte	.LASF581
ARM GAS  C:\Users\RECEPC~1\AppData\Local\Temp\ccNQP0pp.s 			page 281


 13221 1183 0A       		.byte	0xa
 13222 1184 2602     		.2byte	0x226
 13223 1186 97000000 		.4byte	0x97
 13224 118a 01       		.byte	0x1
 13225 118b 01       		.byte	0x1
 13226 118c 07       		.byte	0x7
 13227 118d 13       		.byte	0x13
 13228 118e 00       		.byte	0
 13229 118f 05       		.uleb128 0x5
 13230 1190 98210000 		.4byte	.LASF373
 13231 1194 0A       		.byte	0xa
 13232 1195 2702     		.2byte	0x227
 13233 1197 A5100000 		.4byte	0x10a5
 13234 119b 03       		.uleb128 0x3
 13235 119c 67000000 		.4byte	.LASF374
 13236 11a0 0B       		.byte	0xb
 13237 11a1 95       		.byte	0x95
 13238 11a2 77020000 		.4byte	0x277
 13239 11a6 0C       		.uleb128 0xc
 13240 11a7 60080000 		.4byte	.LASF375
 13241 11ab 02       		.byte	0x2
 13242 11ac 0C       		.byte	0xc
 13243 11ad 2A       		.byte	0x2a
 13244 11ae CA120000 		.4byte	0x12ca
 13245 11b2 0D       		.uleb128 0xd
 13246 11b3 8A010000 		.4byte	.LASF376
 13247 11b7 00       		.sleb128 0
 13248 11b8 0D       		.uleb128 0xd
 13249 11b9 9C040000 		.4byte	.LASF377
 13250 11bd C000     		.sleb128 64
 13251 11bf 0D       		.uleb128 0xd
 13252 11c0 AF010000 		.4byte	.LASF378
 13253 11c4 8001     		.sleb128 128
 13254 11c6 0D       		.uleb128 0xd
 13255 11c7 CA010000 		.4byte	.LASF379
 13256 11cb C001     		.sleb128 192
 13257 11cd 0D       		.uleb128 0xd
 13258 11ce E5010000 		.4byte	.LASF380
 13259 11d2 8002     		.sleb128 256
 13260 11d4 0D       		.uleb128 0xd
 13261 11d5 00020000 		.4byte	.LASF381
 13262 11d9 C002     		.sleb128 320
 13263 11db 0D       		.uleb128 0xd
 13264 11dc 1B020000 		.4byte	.LASF382
 13265 11e0 8003     		.sleb128 384
 13266 11e2 0D       		.uleb128 0xd
 13267 11e3 36020000 		.4byte	.LASF383
 13268 11e7 C003     		.sleb128 448
 13269 11e9 0D       		.uleb128 0xd
 13270 11ea 98060000 		.4byte	.LASF384
 13271 11ee 8004     		.sleb128 512
 13272 11f0 0D       		.uleb128 0xd
 13273 11f1 4E090000 		.4byte	.LASF385
 13274 11f5 C004     		.sleb128 576
 13275 11f7 0D       		.uleb128 0xd
 13276 11f8 32290000 		.4byte	.LASF386
 13277 11fc 8005     		.sleb128 640
ARM GAS  C:\Users\RECEPC~1\AppData\Local\Temp\ccNQP0pp.s 			page 282


 13278 11fe 0D       		.uleb128 0xd
 13279 11ff 4C100000 		.4byte	.LASF387
 13280 1203 C005     		.sleb128 704
 13281 1205 0D       		.uleb128 0xd
 13282 1206 92050000 		.4byte	.LASF388
 13283 120a 8006     		.sleb128 768
 13284 120c 0D       		.uleb128 0xd
 13285 120d F50E0000 		.4byte	.LASF389
 13286 1211 C006     		.sleb128 832
 13287 1213 0D       		.uleb128 0xd
 13288 1214 B32A0000 		.4byte	.LASF390
 13289 1218 8007     		.sleb128 896
 13290 121a 0D       		.uleb128 0xd
 13291 121b 99130000 		.4byte	.LASF391
 13292 121f C007     		.sleb128 960
 13293 1221 0D       		.uleb128 0xd
 13294 1222 71090000 		.4byte	.LASF392
 13295 1226 8008     		.sleb128 1024
 13296 1228 0D       		.uleb128 0xd
 13297 1229 5C1F0000 		.4byte	.LASF393
 13298 122d C008     		.sleb128 1088
 13299 122f 0D       		.uleb128 0xd
 13300 1230 C9260000 		.4byte	.LASF394
 13301 1234 8009     		.sleb128 1152
 13302 1236 0D       		.uleb128 0xd
 13303 1237 5D120000 		.4byte	.LASF395
 13304 123b C009     		.sleb128 1216
 13305 123d 0D       		.uleb128 0xd
 13306 123e 0A130000 		.4byte	.LASF396
 13307 1242 800A     		.sleb128 1280
 13308 1244 0D       		.uleb128 0xd
 13309 1245 28130000 		.4byte	.LASF397
 13310 1249 C00A     		.sleb128 1344
 13311 124b 0D       		.uleb128 0xd
 13312 124c 46130000 		.4byte	.LASF398
 13313 1250 800B     		.sleb128 1408
 13314 1252 0D       		.uleb128 0xd
 13315 1253 64130000 		.4byte	.LASF399
 13316 1257 C00B     		.sleb128 1472
 13317 1259 0D       		.uleb128 0xd
 13318 125a A6190000 		.4byte	.LASF400
 13319 125e 800C     		.sleb128 1536
 13320 1260 0D       		.uleb128 0xd
 13321 1261 1C1C0000 		.4byte	.LASF401
 13322 1265 C00C     		.sleb128 1600
 13323 1267 0D       		.uleb128 0xd
 13324 1268 DC0B0000 		.4byte	.LASF402
 13325 126c 800D     		.sleb128 1664
 13326 126e 0D       		.uleb128 0xd
 13327 126f 03080000 		.4byte	.LASF403
 13328 1273 C00D     		.sleb128 1728
 13329 1275 0D       		.uleb128 0xd
 13330 1276 041D0000 		.4byte	.LASF404
 13331 127a 800E     		.sleb128 1792
 13332 127c 0D       		.uleb128 0xd
 13333 127d 182C0000 		.4byte	.LASF405
 13334 1281 C00E     		.sleb128 1856
ARM GAS  C:\Users\RECEPC~1\AppData\Local\Temp\ccNQP0pp.s 			page 283


 13335 1283 0D       		.uleb128 0xd
 13336 1284 7E0F0000 		.4byte	.LASF406
 13337 1288 800F     		.sleb128 1920
 13338 128a 0D       		.uleb128 0xd
 13339 128b 09060000 		.4byte	.LASF407
 13340 128f C00F     		.sleb128 1984
 13341 1291 0D       		.uleb128 0xd
 13342 1292 4C1B0000 		.4byte	.LASF408
 13343 1296 8010     		.sleb128 2048
 13344 1298 0D       		.uleb128 0xd
 13345 1299 27180000 		.4byte	.LASF409
 13346 129d C010     		.sleb128 2112
 13347 129f 0D       		.uleb128 0xd
 13348 12a0 4F070000 		.4byte	.LASF410
 13349 12a4 8011     		.sleb128 2176
 13350 12a6 0D       		.uleb128 0xd
 13351 12a7 64030000 		.4byte	.LASF411
 13352 12ab C011     		.sleb128 2240
 13353 12ad 0D       		.uleb128 0xd
 13354 12ae 73190000 		.4byte	.LASF412
 13355 12b2 8012     		.sleb128 2304
 13356 12b4 0D       		.uleb128 0xd
 13357 12b5 6A160000 		.4byte	.LASF413
 13358 12b9 C012     		.sleb128 2368
 13359 12bb 0D       		.uleb128 0xd
 13360 12bc 03050000 		.4byte	.LASF414
 13361 12c0 8013     		.sleb128 2432
 13362 12c2 0D       		.uleb128 0xd
 13363 12c3 10220000 		.4byte	.LASF415
 13364 12c7 C013     		.sleb128 2496
 13365 12c9 00       		.byte	0
 13366 12ca 17       		.uleb128 0x17
 13367 12cb 01       		.byte	0x1
 13368 12cc 0D       		.byte	0xd
 13369 12cd 26       		.byte	0x26
 13370 12ce E4130000 		.4byte	0x13e4
 13371 12d2 0D       		.uleb128 0xd
 13372 12d3 B70A0000 		.4byte	.LASF416
 13373 12d7 A101     		.sleb128 161
 13374 12d9 0D       		.uleb128 0xd
 13375 12da BD0B0000 		.4byte	.LASF417
 13376 12de A101     		.sleb128 161
 13377 12e0 0D       		.uleb128 0xd
 13378 12e1 F8020000 		.4byte	.LASF418
 13379 12e5 A201     		.sleb128 162
 13380 12e7 0D       		.uleb128 0xd
 13381 12e8 ED210000 		.4byte	.LASF419
 13382 12ec A201     		.sleb128 162
 13383 12ee 0D       		.uleb128 0xd
 13384 12ef 93100000 		.4byte	.LASF420
 13385 12f3 A301     		.sleb128 163
 13386 12f5 0D       		.uleb128 0xd
 13387 12f6 C9270000 		.4byte	.LASF421
 13388 12fa A301     		.sleb128 163
 13389 12fc 0D       		.uleb128 0xd
 13390 12fd CC0A0000 		.4byte	.LASF422
 13391 1301 AE01     		.sleb128 174
ARM GAS  C:\Users\RECEPC~1\AppData\Local\Temp\ccNQP0pp.s 			page 284


 13392 1303 0D       		.uleb128 0xd
 13393 1304 140A0000 		.4byte	.LASF423
 13394 1308 AE01     		.sleb128 174
 13395 130a 0D       		.uleb128 0xd
 13396 130b DF0C0000 		.4byte	.LASF424
 13397 130f AA01     		.sleb128 170
 13398 1311 0D       		.uleb128 0xd
 13399 1312 C7280000 		.4byte	.LASF425
 13400 1316 AA01     		.sleb128 170
 13401 1318 0D       		.uleb128 0xd
 13402 1319 7F1B0000 		.4byte	.LASF426
 13403 131d A401     		.sleb128 164
 13404 131f 0D       		.uleb128 0xd
 13405 1320 1B150000 		.4byte	.LASF427
 13406 1324 A401     		.sleb128 164
 13407 1326 0D       		.uleb128 0xd
 13408 1327 40150000 		.4byte	.LASF428
 13409 132b A501     		.sleb128 165
 13410 132d 0D       		.uleb128 0xd
 13411 132e 22170000 		.4byte	.LASF429
 13412 1332 A501     		.sleb128 165
 13413 1334 0D       		.uleb128 0xd
 13414 1335 53110000 		.4byte	.LASF430
 13415 1339 E801     		.sleb128 232
 13416 133b 0D       		.uleb128 0xd
 13417 133c 661D0000 		.4byte	.LASF431
 13418 1340 E801     		.sleb128 232
 13419 1342 0D       		.uleb128 0xd
 13420 1343 E9220000 		.4byte	.LASF432
 13421 1347 A601     		.sleb128 166
 13422 1349 0D       		.uleb128 0xd
 13423 134a 55290000 		.4byte	.LASF433
 13424 134e A601     		.sleb128 166
 13425 1350 0D       		.uleb128 0xd
 13426 1351 962A0000 		.4byte	.LASF434
 13427 1355 A701     		.sleb128 167
 13428 1357 0D       		.uleb128 0xd
 13429 1358 E42B0000 		.4byte	.LASF435
 13430 135c A701     		.sleb128 167
 13431 135e 0D       		.uleb128 0xd
 13432 135f 560E0000 		.4byte	.LASF436
 13433 1363 A801     		.sleb128 168
 13434 1365 0D       		.uleb128 0xd
 13435 1366 F1060000 		.4byte	.LASF437
 13436 136a A801     		.sleb128 168
 13437 136c 0D       		.uleb128 0xd
 13438 136d EB170000 		.4byte	.LASF438
 13439 1371 A901     		.sleb128 169
 13440 1373 0D       		.uleb128 0xd
 13441 1374 F61F0000 		.4byte	.LASF439
 13442 1378 A901     		.sleb128 169
 13443 137a 0D       		.uleb128 0xd
 13444 137b C3130000 		.4byte	.LASF440
 13445 137f AC01     		.sleb128 172
 13446 1381 0D       		.uleb128 0xd
 13447 1382 632B0000 		.4byte	.LASF441
 13448 1386 AC01     		.sleb128 172
ARM GAS  C:\Users\RECEPC~1\AppData\Local\Temp\ccNQP0pp.s 			page 285


 13449 1388 0D       		.uleb128 0xd
 13450 1389 E9200000 		.4byte	.LASF442
 13451 138d AD01     		.sleb128 173
 13452 138f 0D       		.uleb128 0xd
 13453 1390 370E0000 		.4byte	.LASF443
 13454 1394 AD01     		.sleb128 173
 13455 1396 0D       		.uleb128 0xd
 13456 1397 FD290000 		.4byte	.LASF444
 13457 139b E101     		.sleb128 225
 13458 139d 0D       		.uleb128 0xd
 13459 139e EE260000 		.4byte	.LASF445
 13460 13a2 E101     		.sleb128 225
 13461 13a4 0D       		.uleb128 0xd
 13462 13a5 B3240000 		.4byte	.LASF446
 13463 13a9 E201     		.sleb128 226
 13464 13ab 0D       		.uleb128 0xd
 13465 13ac 28070000 		.4byte	.LASF447
 13466 13b0 E201     		.sleb128 226
 13467 13b2 0D       		.uleb128 0xd
 13468 13b3 A12B0000 		.4byte	.LASF448
 13469 13b7 E301     		.sleb128 227
 13470 13b9 0D       		.uleb128 0xd
 13471 13ba 58060000 		.4byte	.LASF449
 13472 13be E301     		.sleb128 227
 13473 13c0 0D       		.uleb128 0xd
 13474 13c1 74200000 		.4byte	.LASF450
 13475 13c5 E401     		.sleb128 228
 13476 13c7 0D       		.uleb128 0xd
 13477 13c8 E6070000 		.4byte	.LASF451
 13478 13cc E401     		.sleb128 228
 13479 13ce 0D       		.uleb128 0xd
 13480 13cf D9050000 		.4byte	.LASF452
 13481 13d3 E601     		.sleb128 230
 13482 13d5 0D       		.uleb128 0xd
 13483 13d6 412A0000 		.4byte	.LASF453
 13484 13da E601     		.sleb128 230
 13485 13dc 0D       		.uleb128 0xd
 13486 13dd 25160000 		.4byte	.LASF454
 13487 13e1 FF01     		.sleb128 255
 13488 13e3 00       		.byte	0
 13489 13e4 0C       		.uleb128 0xc
 13490 13e5 26040000 		.4byte	.LASF455
 13491 13e9 01       		.byte	0x1
 13492 13ea 0D       		.byte	0xd
 13493 13eb 8A       		.byte	0x8a
 13494 13ec 21140000 		.4byte	0x1421
 13495 13f0 0D       		.uleb128 0xd
 13496 13f1 B7040000 		.4byte	.LASF456
 13497 13f5 08       		.sleb128 8
 13498 13f6 0D       		.uleb128 0xd
 13499 13f7 B2170000 		.4byte	.LASF457
 13500 13fb 01       		.sleb128 1
 13501 13fc 0D       		.uleb128 0xd
 13502 13fd E81C0000 		.4byte	.LASF458
 13503 1401 02       		.sleb128 2
 13504 1402 0D       		.uleb128 0xd
 13505 1403 16240000 		.4byte	.LASF459
ARM GAS  C:\Users\RECEPC~1\AppData\Local\Temp\ccNQP0pp.s 			page 286


 13506 1407 03       		.sleb128 3
 13507 1408 0D       		.uleb128 0xd
 13508 1409 530D0000 		.4byte	.LASF460
 13509 140d 05       		.sleb128 5
 13510 140e 0D       		.uleb128 0xd
 13511 140f 62010000 		.4byte	.LASF461
 13512 1413 06       		.sleb128 6
 13513 1414 0D       		.uleb128 0xd
 13514 1415 941C0000 		.4byte	.LASF462
 13515 1419 04       		.sleb128 4
 13516 141a 0D       		.uleb128 0xd
 13517 141b 26230000 		.4byte	.LASF463
 13518 141f 0B       		.sleb128 11
 13519 1420 00       		.byte	0
 13520 1421 0C       		.uleb128 0xc
 13521 1422 96090000 		.4byte	.LASF464
 13522 1426 01       		.byte	0x1
 13523 1427 0D       		.byte	0xd
 13524 1428 AB       		.byte	0xab
 13525 1429 3A140000 		.4byte	0x143a
 13526 142d 0D       		.uleb128 0xd
 13527 142e BC050000 		.4byte	.LASF465
 13528 1432 01       		.sleb128 1
 13529 1433 0D       		.uleb128 0xd
 13530 1434 44120000 		.4byte	.LASF466
 13531 1438 02       		.sleb128 2
 13532 1439 00       		.byte	0
 13533 143a 22       		.uleb128 0x22
 13534 143b 0A       		.byte	0xa
 13535 143c 0D       		.byte	0xd
 13536 143d B1       		.byte	0xb1
 13537 143e 7F140000 		.4byte	0x147f
 13538 1442 0F       		.uleb128 0xf
 13539 1443 38030000 		.4byte	.LASF248
 13540 1447 0D       		.byte	0xd
 13541 1448 B3       		.byte	0xb3
 13542 1449 F4000000 		.4byte	0xf4
 13543 144d 00       		.byte	0
 13544 144e 0F       		.uleb128 0xf
 13545 144f 79060000 		.4byte	.LASF467
 13546 1453 0D       		.byte	0xd
 13547 1454 B4       		.byte	0xb4
 13548 1455 F9000000 		.4byte	0xf9
 13549 1459 02       		.byte	0x2
 13550 145a 0F       		.uleb128 0xf
 13551 145b F7150000 		.4byte	.LASF468
 13552 145f 0D       		.byte	0xd
 13553 1460 B5       		.byte	0xb5
 13554 1461 F4000000 		.4byte	0xf4
 13555 1465 04       		.byte	0x4
 13556 1466 0F       		.uleb128 0xf
 13557 1467 76040000 		.4byte	.LASF469
 13558 146b 0D       		.byte	0xd
 13559 146c B7       		.byte	0xb7
 13560 146d F9000000 		.4byte	0xf9
 13561 1471 06       		.byte	0x6
 13562 1472 0F       		.uleb128 0xf
ARM GAS  C:\Users\RECEPC~1\AppData\Local\Temp\ccNQP0pp.s 			page 287


 13563 1473 BB290000 		.4byte	.LASF470
 13564 1477 0D       		.byte	0xd
 13565 1478 B8       		.byte	0xb8
 13566 1479 F9000000 		.4byte	0xf9
 13567 147d 08       		.byte	0x8
 13568 147e 00       		.byte	0
 13569 147f 03       		.uleb128 0x3
 13570 1480 022C0000 		.4byte	.LASF471
 13571 1484 0D       		.byte	0xd
 13572 1485 B9       		.byte	0xb9
 13573 1486 3A140000 		.4byte	0x143a
 13574 148a 22       		.uleb128 0x22
 13575 148b 02       		.byte	0x2
 13576 148c 0E       		.byte	0xe
 13577 148d 6D       		.byte	0x6d
 13578 148e AB140000 		.4byte	0x14ab
 13579 1492 0F       		.uleb128 0xf
 13580 1493 602C0000 		.4byte	.LASF472
 13581 1497 0E       		.byte	0xe
 13582 1498 6F       		.byte	0x6f
 13583 1499 97000000 		.4byte	0x97
 13584 149d 00       		.byte	0
 13585 149e 0F       		.uleb128 0xf
 13586 149f 00000000 		.4byte	.LASF473
 13587 14a3 0E       		.byte	0xe
 13588 14a4 70       		.byte	0x70
 13589 14a5 97000000 		.4byte	0x97
 13590 14a9 01       		.byte	0x1
 13591 14aa 00       		.byte	0
 13592 14ab 03       		.uleb128 0x3
 13593 14ac F8240000 		.4byte	.LASF474
 13594 14b0 0E       		.byte	0xe
 13595 14b1 72       		.byte	0x72
 13596 14b2 8A140000 		.4byte	0x148a
 13597 14b6 23       		.uleb128 0x23
 13598 14b7 02150000 		.4byte	.LASF477
 13599 14bb 01       		.byte	0x1
 13600 14bc 2B       		.byte	0x2b
 13601 14bd 00000000 		.4byte	.LFB63
 13602 14c1 A2000000 		.4byte	.LFE63-.LFB63
 13603 14c5 01       		.uleb128 0x1
 13604 14c6 9C       		.byte	0x9c
 13605 14c7 00150000 		.4byte	0x1500
 13606 14cb 24       		.uleb128 0x24
 13607 14cc 0F240000 		.4byte	.LASF479
 13608 14d0 01       		.byte	0x1
 13609 14d1 2B       		.byte	0x2b
 13610 14d2 11010000 		.4byte	0x111
 13611 14d6 02       		.uleb128 0x2
 13612 14d7 91       		.byte	0x91
 13613 14d8 6C       		.sleb128 -20
 13614 14d9 25       		.uleb128 0x25
 13615 14da AD1F0000 		.4byte	.LASF475
 13616 14de 01       		.byte	0x1
 13617 14df 2D       		.byte	0x2d
 13618 14e0 AB0F0000 		.4byte	0xfab
 13619 14e4 02       		.uleb128 0x2
ARM GAS  C:\Users\RECEPC~1\AppData\Local\Temp\ccNQP0pp.s 			page 288


 13620 14e5 91       		.byte	0x91
 13621 14e6 74       		.sleb128 -12
 13622 14e7 26       		.uleb128 0x26
 13623 14e8 12000000 		.4byte	.LBB2
 13624 14ec 8A000000 		.4byte	.LBE2-.LBB2
 13625 14f0 25       		.uleb128 0x25
 13626 14f1 88050000 		.4byte	.LASF476
 13627 14f5 01       		.byte	0x1
 13628 14f6 30       		.byte	0x30
 13629 14f7 97000000 		.4byte	0x97
 13630 14fb 02       		.uleb128 0x2
 13631 14fc 91       		.byte	0x91
 13632 14fd 73       		.sleb128 -13
 13633 14fe 00       		.byte	0
 13634 14ff 00       		.byte	0
 13635 1500 27       		.uleb128 0x27
 13636 1501 BE100000 		.4byte	.LASF478
 13637 1505 01       		.byte	0x1
 13638 1506 4A       		.byte	0x4a
 13639 1507 00000000 		.4byte	.LFB64
 13640 150b 48000000 		.4byte	.LFE64-.LFB64
 13641 150f 01       		.uleb128 0x1
 13642 1510 9C       		.byte	0x9c
 13643 1511 32150000 		.4byte	0x1532
 13644 1515 24       		.uleb128 0x24
 13645 1516 0F240000 		.4byte	.LASF479
 13646 151a 01       		.byte	0x1
 13647 151b 4A       		.byte	0x4a
 13648 151c 11010000 		.4byte	0x111
 13649 1520 02       		.uleb128 0x2
 13650 1521 91       		.byte	0x91
 13651 1522 6C       		.sleb128 -20
 13652 1523 25       		.uleb128 0x25
 13653 1524 AD1F0000 		.4byte	.LASF475
 13654 1528 01       		.byte	0x1
 13655 1529 4C       		.byte	0x4c
 13656 152a AB0F0000 		.4byte	0xfab
 13657 152e 02       		.uleb128 0x2
 13658 152f 91       		.byte	0x91
 13659 1530 74       		.sleb128 -12
 13660 1531 00       		.byte	0
 13661 1532 23       		.uleb128 0x23
 13662 1533 24100000 		.4byte	.LASF480
 13663 1537 01       		.byte	0x1
 13664 1538 54       		.byte	0x54
 13665 1539 00000000 		.4byte	.LFB65
 13666 153d E0000000 		.4byte	.LFE65-.LFB65
 13667 1541 01       		.uleb128 0x1
 13668 1542 9C       		.byte	0x9c
 13669 1543 64150000 		.4byte	0x1564
 13670 1547 24       		.uleb128 0x24
 13671 1548 0F240000 		.4byte	.LASF479
 13672 154c 01       		.byte	0x1
 13673 154d 54       		.byte	0x54
 13674 154e 11010000 		.4byte	0x111
 13675 1552 02       		.uleb128 0x2
 13676 1553 91       		.byte	0x91
ARM GAS  C:\Users\RECEPC~1\AppData\Local\Temp\ccNQP0pp.s 			page 289


 13677 1554 64       		.sleb128 -28
 13678 1555 25       		.uleb128 0x25
 13679 1556 AD1F0000 		.4byte	.LASF475
 13680 155a 01       		.byte	0x1
 13681 155b 56       		.byte	0x56
 13682 155c AB0F0000 		.4byte	0xfab
 13683 1560 02       		.uleb128 0x2
 13684 1561 91       		.byte	0x91
 13685 1562 6C       		.sleb128 -20
 13686 1563 00       		.byte	0
 13687 1564 23       		.uleb128 0x23
 13688 1565 55220000 		.4byte	.LASF481
 13689 1569 01       		.byte	0x1
 13690 156a 66       		.byte	0x66
 13691 156b 00000000 		.4byte	.LFB66
 13692 156f F4000000 		.4byte	.LFE66-.LFB66
 13693 1573 01       		.uleb128 0x1
 13694 1574 9C       		.byte	0x9c
 13695 1575 96150000 		.4byte	0x1596
 13696 1579 24       		.uleb128 0x24
 13697 157a 0F240000 		.4byte	.LASF479
 13698 157e 01       		.byte	0x1
 13699 157f 66       		.byte	0x66
 13700 1580 11010000 		.4byte	0x111
 13701 1584 02       		.uleb128 0x2
 13702 1585 91       		.byte	0x91
 13703 1586 64       		.sleb128 -28
 13704 1587 25       		.uleb128 0x25
 13705 1588 AD1F0000 		.4byte	.LASF475
 13706 158c 01       		.byte	0x1
 13707 158d 68       		.byte	0x68
 13708 158e AB0F0000 		.4byte	0xfab
 13709 1592 02       		.uleb128 0x2
 13710 1593 91       		.byte	0x91
 13711 1594 6C       		.sleb128 -20
 13712 1595 00       		.byte	0
 13713 1596 23       		.uleb128 0x23
 13714 1597 9C120000 		.4byte	.LASF482
 13715 159b 01       		.byte	0x1
 13716 159c 7A       		.byte	0x7a
 13717 159d 00000000 		.4byte	.LFB67
 13718 15a1 5A000000 		.4byte	.LFE67-.LFB67
 13719 15a5 01       		.uleb128 0x1
 13720 15a6 9C       		.byte	0x9c
 13721 15a7 C8150000 		.4byte	0x15c8
 13722 15ab 24       		.uleb128 0x24
 13723 15ac 0F240000 		.4byte	.LASF479
 13724 15b0 01       		.byte	0x1
 13725 15b1 7A       		.byte	0x7a
 13726 15b2 11010000 		.4byte	0x111
 13727 15b6 02       		.uleb128 0x2
 13728 15b7 91       		.byte	0x91
 13729 15b8 6C       		.sleb128 -20
 13730 15b9 25       		.uleb128 0x25
 13731 15ba AD1F0000 		.4byte	.LASF475
 13732 15be 01       		.byte	0x1
 13733 15bf 7C       		.byte	0x7c
ARM GAS  C:\Users\RECEPC~1\AppData\Local\Temp\ccNQP0pp.s 			page 290


 13734 15c0 AB0F0000 		.4byte	0xfab
 13735 15c4 02       		.uleb128 0x2
 13736 15c5 91       		.byte	0x91
 13737 15c6 74       		.sleb128 -12
 13738 15c7 00       		.byte	0
 13739 15c8 23       		.uleb128 0x23
 13740 15c9 9D230000 		.4byte	.LASF483
 13741 15cd 01       		.byte	0x1
 13742 15ce 8A       		.byte	0x8a
 13743 15cf 00000000 		.4byte	.LFB68
 13744 15d3 F4080000 		.4byte	.LFE68-.LFB68
 13745 15d7 01       		.uleb128 0x1
 13746 15d8 9C       		.byte	0x9c
 13747 15d9 2B160000 		.4byte	0x162b
 13748 15dd 24       		.uleb128 0x24
 13749 15de 0F240000 		.4byte	.LASF479
 13750 15e2 01       		.byte	0x1
 13751 15e3 8A       		.byte	0x8a
 13752 15e4 11010000 		.4byte	0x111
 13753 15e8 02       		.uleb128 0x2
 13754 15e9 91       		.byte	0x91
 13755 15ea 5C       		.sleb128 -36
 13756 15eb 25       		.uleb128 0x25
 13757 15ec AD1F0000 		.4byte	.LASF475
 13758 15f0 01       		.byte	0x1
 13759 15f1 8C       		.byte	0x8c
 13760 15f2 AB0F0000 		.4byte	0xfab
 13761 15f6 02       		.uleb128 0x2
 13762 15f7 91       		.byte	0x91
 13763 15f8 6C       		.sleb128 -20
 13764 15f9 26       		.uleb128 0x26
 13765 15fa 14000000 		.4byte	.LBB3
 13766 15fe DA080000 		.4byte	.LBE3-.LBB3
 13767 1602 28       		.uleb128 0x28
 13768 1603 70747300 		.ascii	"pts\000"
 13769 1607 01       		.byte	0x1
 13770 1608 6B01     		.2byte	0x16b
 13771 160a A3090000 		.4byte	0x9a3
 13772 160e 02       		.uleb128 0x2
 13773 160f 91       		.byte	0x91
 13774 1610 64       		.sleb128 -28
 13775 1611 26       		.uleb128 0x26
 13776 1612 48000000 		.4byte	.LBB4
 13777 1616 BE010000 		.4byte	.LBE4-.LBB4
 13778 161a 25       		.uleb128 0x25
 13779 161b 730D0000 		.4byte	.LASF484
 13780 161f 01       		.byte	0x1
 13781 1620 98       		.byte	0x98
 13782 1621 A3000000 		.4byte	0xa3
 13783 1625 02       		.uleb128 0x2
 13784 1626 91       		.byte	0x91
 13785 1627 6A       		.sleb128 -22
 13786 1628 00       		.byte	0
 13787 1629 00       		.byte	0
 13788 162a 00       		.byte	0
 13789 162b 29       		.uleb128 0x29
 13790 162c CE030000 		.4byte	.LASF485
ARM GAS  C:\Users\RECEPC~1\AppData\Local\Temp\ccNQP0pp.s 			page 291


 13791 1630 01       		.byte	0x1
 13792 1631 8101     		.2byte	0x181
 13793 1633 00000000 		.4byte	.LFB69
 13794 1637 8C010000 		.4byte	.LFE69-.LFB69
 13795 163b 01       		.uleb128 0x1
 13796 163c 9C       		.byte	0x9c
 13797 163d 88160000 		.4byte	0x1688
 13798 1641 2A       		.uleb128 0x2a
 13799 1642 0F240000 		.4byte	.LASF479
 13800 1646 01       		.byte	0x1
 13801 1647 8101     		.2byte	0x181
 13802 1649 11010000 		.4byte	0x111
 13803 164d 02       		.uleb128 0x2
 13804 164e 91       		.byte	0x91
 13805 164f 64       		.sleb128 -28
 13806 1650 2B       		.uleb128 0x2b
 13807 1651 AD1F0000 		.4byte	.LASF475
 13808 1655 01       		.byte	0x1
 13809 1656 8301     		.2byte	0x183
 13810 1658 AB0F0000 		.4byte	0xfab
 13811 165c 02       		.uleb128 0x2
 13812 165d 91       		.byte	0x91
 13813 165e 68       		.sleb128 -24
 13814 165f 26       		.uleb128 0x26
 13815 1660 14000000 		.4byte	.LBB5
 13816 1664 6A010000 		.4byte	.LBE5-.LBB5
 13817 1668 2B       		.uleb128 0x2b
 13818 1669 BC0C0000 		.4byte	.LASF486
 13819 166d 01       		.byte	0x1
 13820 166e 8601     		.2byte	0x186
 13821 1670 97000000 		.4byte	0x97
 13822 1674 02       		.uleb128 0x2
 13823 1675 91       		.byte	0x91
 13824 1676 6F       		.sleb128 -17
 13825 1677 2B       		.uleb128 0x2b
 13826 1678 28260000 		.4byte	.LASF487
 13827 167c 01       		.byte	0x1
 13828 167d 8701     		.2byte	0x187
 13829 167f 97000000 		.4byte	0x97
 13830 1683 02       		.uleb128 0x2
 13831 1684 91       		.byte	0x91
 13832 1685 6E       		.sleb128 -18
 13833 1686 00       		.byte	0
 13834 1687 00       		.byte	0
 13835 1688 29       		.uleb128 0x29
 13836 1689 DB120000 		.4byte	.LASF488
 13837 168d 01       		.byte	0x1
 13838 168e B501     		.2byte	0x1b5
 13839 1690 00000000 		.4byte	.LFB70
 13840 1694 04020000 		.4byte	.LFE70-.LFB70
 13841 1698 01       		.uleb128 0x1
 13842 1699 9C       		.byte	0x9c
 13843 169a 21170000 		.4byte	0x1721
 13844 169e 2A       		.uleb128 0x2a
 13845 169f 0F240000 		.4byte	.LASF479
 13846 16a3 01       		.byte	0x1
 13847 16a4 B501     		.2byte	0x1b5
ARM GAS  C:\Users\RECEPC~1\AppData\Local\Temp\ccNQP0pp.s 			page 292


 13848 16a6 11010000 		.4byte	0x111
 13849 16aa 02       		.uleb128 0x2
 13850 16ab 91       		.byte	0x91
 13851 16ac 44       		.sleb128 -60
 13852 16ad 2B       		.uleb128 0x2b
 13853 16ae AD1F0000 		.4byte	.LASF475
 13854 16b2 01       		.byte	0x1
 13855 16b3 B701     		.2byte	0x1b7
 13856 16b5 AB0F0000 		.4byte	0xfab
 13857 16b9 02       		.uleb128 0x2
 13858 16ba 91       		.byte	0x91
 13859 16bb 5C       		.sleb128 -36
 13860 16bc 26       		.uleb128 0x26
 13861 16bd 14000000 		.4byte	.LBB6
 13862 16c1 E2010000 		.4byte	.LBE6-.LBB6
 13863 16c5 2B       		.uleb128 0x2b
 13864 16c6 BC0C0000 		.4byte	.LASF486
 13865 16ca 01       		.byte	0x1
 13866 16cb BA01     		.2byte	0x1ba
 13867 16cd 97000000 		.4byte	0x97
 13868 16d1 02       		.uleb128 0x2
 13869 16d2 91       		.byte	0x91
 13870 16d3 77       		.sleb128 -9
 13871 16d4 2B       		.uleb128 0x2b
 13872 16d5 28260000 		.4byte	.LASF487
 13873 16d9 01       		.byte	0x1
 13874 16da BB01     		.2byte	0x1bb
 13875 16dc 97000000 		.4byte	0x97
 13876 16e0 02       		.uleb128 0x2
 13877 16e1 91       		.byte	0x91
 13878 16e2 76       		.sleb128 -10
 13879 16e3 2B       		.uleb128 0x2b
 13880 16e4 C8210000 		.4byte	.LASF489
 13881 16e8 01       		.byte	0x1
 13882 16e9 D201     		.2byte	0x1d2
 13883 16eb D5000000 		.4byte	0xd5
 13884 16ef 02       		.uleb128 0x2
 13885 16f0 91       		.byte	0x91
 13886 16f1 68       		.sleb128 -24
 13887 16f2 2B       		.uleb128 0x2b
 13888 16f3 CE210000 		.4byte	.LASF490
 13889 16f7 01       		.byte	0x1
 13890 16f8 D201     		.2byte	0x1d2
 13891 16fa D5000000 		.4byte	0xd5
 13892 16fe 02       		.uleb128 0x2
 13893 16ff 91       		.byte	0x91
 13894 1700 50       		.sleb128 -48
 13895 1701 2B       		.uleb128 0x2b
 13896 1702 D4210000 		.4byte	.LASF491
 13897 1706 01       		.byte	0x1
 13898 1707 D201     		.2byte	0x1d2
 13899 1709 D5000000 		.4byte	0xd5
 13900 170d 02       		.uleb128 0x2
 13901 170e 91       		.byte	0x91
 13902 170f 60       		.sleb128 -32
 13903 1710 2B       		.uleb128 0x2b
 13904 1711 DA210000 		.4byte	.LASF492
ARM GAS  C:\Users\RECEPC~1\AppData\Local\Temp\ccNQP0pp.s 			page 293


 13905 1715 01       		.byte	0x1
 13906 1716 D201     		.2byte	0x1d2
 13907 1718 D5000000 		.4byte	0xd5
 13908 171c 02       		.uleb128 0x2
 13909 171d 91       		.byte	0x91
 13910 171e 48       		.sleb128 -56
 13911 171f 00       		.byte	0
 13912 1720 00       		.byte	0
 13913 1721 29       		.uleb128 0x29
 13914 1722 031B0000 		.4byte	.LASF493
 13915 1726 01       		.byte	0x1
 13916 1727 0602     		.2byte	0x206
 13917 1729 00000000 		.4byte	.LFB71
 13918 172d 72010000 		.4byte	.LFE71-.LFB71
 13919 1731 01       		.uleb128 0x1
 13920 1732 9C       		.byte	0x9c
 13921 1733 9C170000 		.4byte	0x179c
 13922 1737 2A       		.uleb128 0x2a
 13923 1738 0F240000 		.4byte	.LASF479
 13924 173c 01       		.byte	0x1
 13925 173d 0602     		.2byte	0x206
 13926 173f 11010000 		.4byte	0x111
 13927 1743 02       		.uleb128 0x2
 13928 1744 91       		.byte	0x91
 13929 1745 64       		.sleb128 -28
 13930 1746 2B       		.uleb128 0x2b
 13931 1747 AD1F0000 		.4byte	.LASF475
 13932 174b 01       		.byte	0x1
 13933 174c 0802     		.2byte	0x208
 13934 174e AB0F0000 		.4byte	0xfab
 13935 1752 02       		.uleb128 0x2
 13936 1753 91       		.byte	0x91
 13937 1754 74       		.sleb128 -12
 13938 1755 26       		.uleb128 0x26
 13939 1756 14000000 		.4byte	.LBB7
 13940 175a 58010000 		.4byte	.LBE7-.LBB7
 13941 175e 2B       		.uleb128 0x2b
 13942 175f 90060000 		.4byte	.LASF494
 13943 1763 01       		.byte	0x1
 13944 1764 0C02     		.2byte	0x20c
 13945 1766 97000000 		.4byte	0x97
 13946 176a 02       		.uleb128 0x2
 13947 176b 91       		.byte	0x91
 13948 176c 73       		.sleb128 -13
 13949 176d 2B       		.uleb128 0x2b
 13950 176e A0070000 		.4byte	.LASF495
 13951 1772 01       		.byte	0x1
 13952 1773 0D02     		.2byte	0x20d
 13953 1775 97000000 		.4byte	0x97
 13954 1779 02       		.uleb128 0x2
 13955 177a 91       		.byte	0x91
 13956 177b 72       		.sleb128 -14
 13957 177c 2B       		.uleb128 0x2b
 13958 177d B0260000 		.4byte	.LASF496
 13959 1781 01       		.byte	0x1
 13960 1782 1702     		.2byte	0x217
 13961 1784 54020000 		.4byte	0x254
ARM GAS  C:\Users\RECEPC~1\AppData\Local\Temp\ccNQP0pp.s 			page 294


 13962 1788 02       		.uleb128 0x2
 13963 1789 91       		.byte	0x91
 13964 178a 71       		.sleb128 -15
 13965 178b 28       		.uleb128 0x28
 13966 178c 70747300 		.ascii	"pts\000"
 13967 1790 01       		.byte	0x1
 13968 1791 1802     		.2byte	0x218
 13969 1793 A3090000 		.4byte	0x9a3
 13970 1797 02       		.uleb128 0x2
 13971 1798 91       		.byte	0x91
 13972 1799 6C       		.sleb128 -20
 13973 179a 00       		.byte	0
 13974 179b 00       		.byte	0
 13975 179c 29       		.uleb128 0x29
 13976 179d E1000000 		.4byte	.LASF497
 13977 17a1 01       		.byte	0x1
 13978 17a2 3102     		.2byte	0x231
 13979 17a4 00000000 		.4byte	.LFB72
 13980 17a8 2C000000 		.4byte	.LFE72-.LFB72
 13981 17ac 01       		.uleb128 0x1
 13982 17ad 9C       		.byte	0x9c
 13983 17ae D1170000 		.4byte	0x17d1
 13984 17b2 2A       		.uleb128 0x2a
 13985 17b3 0F240000 		.4byte	.LASF479
 13986 17b7 01       		.byte	0x1
 13987 17b8 3102     		.2byte	0x231
 13988 17ba 11010000 		.4byte	0x111
 13989 17be 02       		.uleb128 0x2
 13990 17bf 91       		.byte	0x91
 13991 17c0 6C       		.sleb128 -20
 13992 17c1 2B       		.uleb128 0x2b
 13993 17c2 AD1F0000 		.4byte	.LASF475
 13994 17c6 01       		.byte	0x1
 13995 17c7 3302     		.2byte	0x233
 13996 17c9 AB0F0000 		.4byte	0xfab
 13997 17cd 02       		.uleb128 0x2
 13998 17ce 91       		.byte	0x91
 13999 17cf 74       		.sleb128 -12
 14000 17d0 00       		.byte	0
 14001 17d1 2C       		.uleb128 0x2c
 14002 17d2 1A2A0000 		.4byte	.LASF498
 14003 17d6 01       		.byte	0x1
 14004 17d7 7702     		.2byte	0x277
 14005 17d9 00000000 		.4byte	.LFB73
 14006 17dd 36000000 		.4byte	.LFE73-.LFB73
 14007 17e1 01       		.uleb128 0x1
 14008 17e2 9C       		.byte	0x9c
 14009 17e3 06180000 		.4byte	0x1806
 14010 17e7 2A       		.uleb128 0x2a
 14011 17e8 0F240000 		.4byte	.LASF479
 14012 17ec 01       		.byte	0x1
 14013 17ed 7702     		.2byte	0x277
 14014 17ef 11010000 		.4byte	0x111
 14015 17f3 02       		.uleb128 0x2
 14016 17f4 91       		.byte	0x91
 14017 17f5 6C       		.sleb128 -20
 14018 17f6 2B       		.uleb128 0x2b
ARM GAS  C:\Users\RECEPC~1\AppData\Local\Temp\ccNQP0pp.s 			page 295


 14019 17f7 AD1F0000 		.4byte	.LASF475
 14020 17fb 01       		.byte	0x1
 14021 17fc 7902     		.2byte	0x279
 14022 17fe AB0F0000 		.4byte	0xfab
 14023 1802 02       		.uleb128 0x2
 14024 1803 91       		.byte	0x91
 14025 1804 74       		.sleb128 -12
 14026 1805 00       		.byte	0
 14027 1806 2C       		.uleb128 0x2c
 14028 1807 412B0000 		.4byte	.LASF499
 14029 180b 01       		.byte	0x1
 14030 180c 8802     		.2byte	0x288
 14031 180e 00000000 		.4byte	.LFB74
 14032 1812 36000000 		.4byte	.LFE74-.LFB74
 14033 1816 01       		.uleb128 0x1
 14034 1817 9C       		.byte	0x9c
 14035 1818 3B180000 		.4byte	0x183b
 14036 181c 2A       		.uleb128 0x2a
 14037 181d 0F240000 		.4byte	.LASF479
 14038 1821 01       		.byte	0x1
 14039 1822 8802     		.2byte	0x288
 14040 1824 11010000 		.4byte	0x111
 14041 1828 02       		.uleb128 0x2
 14042 1829 91       		.byte	0x91
 14043 182a 6C       		.sleb128 -20
 14044 182b 2B       		.uleb128 0x2b
 14045 182c AD1F0000 		.4byte	.LASF475
 14046 1830 01       		.byte	0x1
 14047 1831 8A02     		.2byte	0x28a
 14048 1833 AB0F0000 		.4byte	0xfab
 14049 1837 02       		.uleb128 0x2
 14050 1838 91       		.byte	0x91
 14051 1839 74       		.sleb128 -12
 14052 183a 00       		.byte	0
 14053 183b 29       		.uleb128 0x29
 14054 183c 41110000 		.4byte	.LASF500
 14055 1840 01       		.byte	0x1
 14056 1841 9D02     		.2byte	0x29d
 14057 1843 00000000 		.4byte	.LFB75
 14058 1847 82000000 		.4byte	.LFE75-.LFB75
 14059 184b 01       		.uleb128 0x1
 14060 184c 9C       		.byte	0x9c
 14061 184d 98180000 		.4byte	0x1898
 14062 1851 2A       		.uleb128 0x2a
 14063 1852 0F240000 		.4byte	.LASF479
 14064 1856 01       		.byte	0x1
 14065 1857 9D02     		.2byte	0x29d
 14066 1859 11010000 		.4byte	0x111
 14067 185d 02       		.uleb128 0x2
 14068 185e 91       		.byte	0x91
 14069 185f 64       		.sleb128 -28
 14070 1860 2B       		.uleb128 0x2b
 14071 1861 34000000 		.4byte	.LASF501
 14072 1865 01       		.byte	0x1
 14073 1866 9F02     		.2byte	0x29f
 14074 1868 630D0000 		.4byte	0xd63
 14075 186c 02       		.uleb128 0x2
ARM GAS  C:\Users\RECEPC~1\AppData\Local\Temp\ccNQP0pp.s 			page 296


 14076 186d 91       		.byte	0x91
 14077 186e 74       		.sleb128 -12
 14078 186f 26       		.uleb128 0x26
 14079 1870 12000000 		.4byte	.LBB8
 14080 1874 6A000000 		.4byte	.LBE8-.LBB8
 14081 1878 2B       		.uleb128 0x2b
 14082 1879 28260000 		.4byte	.LASF487
 14083 187d 01       		.byte	0x1
 14084 187e A602     		.2byte	0x2a6
 14085 1880 81000000 		.4byte	0x81
 14086 1884 02       		.uleb128 0x2
 14087 1885 91       		.byte	0x91
 14088 1886 73       		.sleb128 -13
 14089 1887 2B       		.uleb128 0x2b
 14090 1888 440D0000 		.4byte	.LASF502
 14091 188c 01       		.byte	0x1
 14092 188d A802     		.2byte	0x2a8
 14093 188f 8B050000 		.4byte	0x58b
 14094 1893 02       		.uleb128 0x2
 14095 1894 91       		.byte	0x91
 14096 1895 6C       		.sleb128 -20
 14097 1896 00       		.byte	0
 14098 1897 00       		.byte	0
 14099 1898 29       		.uleb128 0x29
 14100 1899 5A0B0000 		.4byte	.LASF503
 14101 189d 01       		.byte	0x1
 14102 189e B802     		.2byte	0x2b8
 14103 18a0 00000000 		.4byte	.LFB76
 14104 18a4 70000000 		.4byte	.LFE76-.LFB76
 14105 18a8 01       		.uleb128 0x1
 14106 18a9 9C       		.byte	0x9c
 14107 18aa F5180000 		.4byte	0x18f5
 14108 18ae 2A       		.uleb128 0x2a
 14109 18af 0F240000 		.4byte	.LASF479
 14110 18b3 01       		.byte	0x1
 14111 18b4 B802     		.2byte	0x2b8
 14112 18b6 11010000 		.4byte	0x111
 14113 18ba 02       		.uleb128 0x2
 14114 18bb 91       		.byte	0x91
 14115 18bc 64       		.sleb128 -28
 14116 18bd 2B       		.uleb128 0x2b
 14117 18be 34000000 		.4byte	.LASF501
 14118 18c2 01       		.byte	0x1
 14119 18c3 BA02     		.2byte	0x2ba
 14120 18c5 630D0000 		.4byte	0xd63
 14121 18c9 02       		.uleb128 0x2
 14122 18ca 91       		.byte	0x91
 14123 18cb 74       		.sleb128 -12
 14124 18cc 26       		.uleb128 0x26
 14125 18cd 12000000 		.4byte	.LBB9
 14126 18d1 58000000 		.4byte	.LBE9-.LBB9
 14127 18d5 2B       		.uleb128 0x2b
 14128 18d6 28260000 		.4byte	.LASF487
 14129 18da 01       		.byte	0x1
 14130 18db BD02     		.2byte	0x2bd
 14131 18dd 81000000 		.4byte	0x81
 14132 18e1 02       		.uleb128 0x2
ARM GAS  C:\Users\RECEPC~1\AppData\Local\Temp\ccNQP0pp.s 			page 297


 14133 18e2 91       		.byte	0x91
 14134 18e3 73       		.sleb128 -13
 14135 18e4 2B       		.uleb128 0x2b
 14136 18e5 440D0000 		.4byte	.LASF502
 14137 18e9 01       		.byte	0x1
 14138 18ea BF02     		.2byte	0x2bf
 14139 18ec 8B050000 		.4byte	0x58b
 14140 18f0 02       		.uleb128 0x2
 14141 18f1 91       		.byte	0x91
 14142 18f2 6C       		.sleb128 -20
 14143 18f3 00       		.byte	0
 14144 18f4 00       		.byte	0
 14145 18f5 29       		.uleb128 0x29
 14146 18f6 BF040000 		.4byte	.LASF504
 14147 18fa 01       		.byte	0x1
 14148 18fb CF02     		.2byte	0x2cf
 14149 18fd 00000000 		.4byte	.LFB77
 14150 1901 60000000 		.4byte	.LFE77-.LFB77
 14151 1905 01       		.uleb128 0x1
 14152 1906 9C       		.byte	0x9c
 14153 1907 52190000 		.4byte	0x1952
 14154 190b 2A       		.uleb128 0x2a
 14155 190c 0F240000 		.4byte	.LASF479
 14156 1910 01       		.byte	0x1
 14157 1911 CF02     		.2byte	0x2cf
 14158 1913 11010000 		.4byte	0x111
 14159 1917 02       		.uleb128 0x2
 14160 1918 91       		.byte	0x91
 14161 1919 64       		.sleb128 -28
 14162 191a 2B       		.uleb128 0x2b
 14163 191b 34000000 		.4byte	.LASF501
 14164 191f 01       		.byte	0x1
 14165 1920 D102     		.2byte	0x2d1
 14166 1922 630D0000 		.4byte	0xd63
 14167 1926 02       		.uleb128 0x2
 14168 1927 91       		.byte	0x91
 14169 1928 74       		.sleb128 -12
 14170 1929 26       		.uleb128 0x26
 14171 192a 12000000 		.4byte	.LBB10
 14172 192e 48000000 		.4byte	.LBE10-.LBB10
 14173 1932 2B       		.uleb128 0x2b
 14174 1933 28260000 		.4byte	.LASF487
 14175 1937 01       		.byte	0x1
 14176 1938 D402     		.2byte	0x2d4
 14177 193a 81000000 		.4byte	0x81
 14178 193e 02       		.uleb128 0x2
 14179 193f 91       		.byte	0x91
 14180 1940 73       		.sleb128 -13
 14181 1941 2B       		.uleb128 0x2b
 14182 1942 440D0000 		.4byte	.LASF502
 14183 1946 01       		.byte	0x1
 14184 1947 D602     		.2byte	0x2d6
 14185 1949 8B050000 		.4byte	0x58b
 14186 194d 02       		.uleb128 0x2
 14187 194e 91       		.byte	0x91
 14188 194f 6C       		.sleb128 -20
 14189 1950 00       		.byte	0
ARM GAS  C:\Users\RECEPC~1\AppData\Local\Temp\ccNQP0pp.s 			page 298


 14190 1951 00       		.byte	0
 14191 1952 29       		.uleb128 0x29
 14192 1953 15260000 		.4byte	.LASF505
 14193 1957 01       		.byte	0x1
 14194 1958 E202     		.2byte	0x2e2
 14195 195a 00000000 		.4byte	.LFB78
 14196 195e 6A000000 		.4byte	.LFE78-.LFB78
 14197 1962 01       		.uleb128 0x1
 14198 1963 9C       		.byte	0x9c
 14199 1964 AF190000 		.4byte	0x19af
 14200 1968 2A       		.uleb128 0x2a
 14201 1969 0F240000 		.4byte	.LASF479
 14202 196d 01       		.byte	0x1
 14203 196e E202     		.2byte	0x2e2
 14204 1970 11010000 		.4byte	0x111
 14205 1974 02       		.uleb128 0x2
 14206 1975 91       		.byte	0x91
 14207 1976 64       		.sleb128 -28
 14208 1977 2B       		.uleb128 0x2b
 14209 1978 34000000 		.4byte	.LASF501
 14210 197c 01       		.byte	0x1
 14211 197d E402     		.2byte	0x2e4
 14212 197f 630D0000 		.4byte	0xd63
 14213 1983 02       		.uleb128 0x2
 14214 1984 91       		.byte	0x91
 14215 1985 74       		.sleb128 -12
 14216 1986 26       		.uleb128 0x26
 14217 1987 12000000 		.4byte	.LBB11
 14218 198b 52000000 		.4byte	.LBE11-.LBB11
 14219 198f 2B       		.uleb128 0x2b
 14220 1990 28260000 		.4byte	.LASF487
 14221 1994 01       		.byte	0x1
 14222 1995 E702     		.2byte	0x2e7
 14223 1997 81000000 		.4byte	0x81
 14224 199b 02       		.uleb128 0x2
 14225 199c 91       		.byte	0x91
 14226 199d 73       		.sleb128 -13
 14227 199e 2B       		.uleb128 0x2b
 14228 199f 440D0000 		.4byte	.LASF502
 14229 19a3 01       		.byte	0x1
 14230 19a4 E902     		.2byte	0x2e9
 14231 19a6 8B050000 		.4byte	0x58b
 14232 19aa 02       		.uleb128 0x2
 14233 19ab 91       		.byte	0x91
 14234 19ac 6C       		.sleb128 -20
 14235 19ad 00       		.byte	0
 14236 19ae 00       		.byte	0
 14237 19af 29       		.uleb128 0x29
 14238 19b0 D7290000 		.4byte	.LASF506
 14239 19b4 01       		.byte	0x1
 14240 19b5 F502     		.2byte	0x2f5
 14241 19b7 00000000 		.4byte	.LFB79
 14242 19bb 6A000000 		.4byte	.LFE79-.LFB79
 14243 19bf 01       		.uleb128 0x1
 14244 19c0 9C       		.byte	0x9c
 14245 19c1 0C1A0000 		.4byte	0x1a0c
 14246 19c5 2A       		.uleb128 0x2a
ARM GAS  C:\Users\RECEPC~1\AppData\Local\Temp\ccNQP0pp.s 			page 299


 14247 19c6 0F240000 		.4byte	.LASF479
 14248 19ca 01       		.byte	0x1
 14249 19cb F502     		.2byte	0x2f5
 14250 19cd 11010000 		.4byte	0x111
 14251 19d1 02       		.uleb128 0x2
 14252 19d2 91       		.byte	0x91
 14253 19d3 64       		.sleb128 -28
 14254 19d4 2B       		.uleb128 0x2b
 14255 19d5 34000000 		.4byte	.LASF501
 14256 19d9 01       		.byte	0x1
 14257 19da F702     		.2byte	0x2f7
 14258 19dc 630D0000 		.4byte	0xd63
 14259 19e0 02       		.uleb128 0x2
 14260 19e1 91       		.byte	0x91
 14261 19e2 74       		.sleb128 -12
 14262 19e3 26       		.uleb128 0x26
 14263 19e4 12000000 		.4byte	.LBB12
 14264 19e8 52000000 		.4byte	.LBE12-.LBB12
 14265 19ec 2B       		.uleb128 0x2b
 14266 19ed 28260000 		.4byte	.LASF487
 14267 19f1 01       		.byte	0x1
 14268 19f2 FA02     		.2byte	0x2fa
 14269 19f4 81000000 		.4byte	0x81
 14270 19f8 02       		.uleb128 0x2
 14271 19f9 91       		.byte	0x91
 14272 19fa 73       		.sleb128 -13
 14273 19fb 2B       		.uleb128 0x2b
 14274 19fc 440D0000 		.4byte	.LASF502
 14275 1a00 01       		.byte	0x1
 14276 1a01 FC02     		.2byte	0x2fc
 14277 1a03 8B050000 		.4byte	0x58b
 14278 1a07 02       		.uleb128 0x2
 14279 1a08 91       		.byte	0x91
 14280 1a09 6C       		.sleb128 -20
 14281 1a0a 00       		.byte	0
 14282 1a0b 00       		.byte	0
 14283 1a0c 29       		.uleb128 0x29
 14284 1a0d 70260000 		.4byte	.LASF507
 14285 1a11 01       		.byte	0x1
 14286 1a12 0903     		.2byte	0x309
 14287 1a14 00000000 		.4byte	.LFB80
 14288 1a18 6A000000 		.4byte	.LFE80-.LFB80
 14289 1a1c 01       		.uleb128 0x1
 14290 1a1d 9C       		.byte	0x9c
 14291 1a1e 691A0000 		.4byte	0x1a69
 14292 1a22 2A       		.uleb128 0x2a
 14293 1a23 0F240000 		.4byte	.LASF479
 14294 1a27 01       		.byte	0x1
 14295 1a28 0903     		.2byte	0x309
 14296 1a2a 11010000 		.4byte	0x111
 14297 1a2e 02       		.uleb128 0x2
 14298 1a2f 91       		.byte	0x91
 14299 1a30 64       		.sleb128 -28
 14300 1a31 2B       		.uleb128 0x2b
 14301 1a32 34000000 		.4byte	.LASF501
 14302 1a36 01       		.byte	0x1
 14303 1a37 0B03     		.2byte	0x30b
ARM GAS  C:\Users\RECEPC~1\AppData\Local\Temp\ccNQP0pp.s 			page 300


 14304 1a39 630D0000 		.4byte	0xd63
 14305 1a3d 02       		.uleb128 0x2
 14306 1a3e 91       		.byte	0x91
 14307 1a3f 74       		.sleb128 -12
 14308 1a40 26       		.uleb128 0x26
 14309 1a41 12000000 		.4byte	.LBB13
 14310 1a45 52000000 		.4byte	.LBE13-.LBB13
 14311 1a49 2B       		.uleb128 0x2b
 14312 1a4a 28260000 		.4byte	.LASF487
 14313 1a4e 01       		.byte	0x1
 14314 1a4f 0E03     		.2byte	0x30e
 14315 1a51 81000000 		.4byte	0x81
 14316 1a55 02       		.uleb128 0x2
 14317 1a56 91       		.byte	0x91
 14318 1a57 73       		.sleb128 -13
 14319 1a58 2B       		.uleb128 0x2b
 14320 1a59 440D0000 		.4byte	.LASF502
 14321 1a5d 01       		.byte	0x1
 14322 1a5e 1003     		.2byte	0x310
 14323 1a60 8B050000 		.4byte	0x58b
 14324 1a64 02       		.uleb128 0x2
 14325 1a65 91       		.byte	0x91
 14326 1a66 6C       		.sleb128 -20
 14327 1a67 00       		.byte	0
 14328 1a68 00       		.byte	0
 14329 1a69 29       		.uleb128 0x29
 14330 1a6a 32040000 		.4byte	.LASF508
 14331 1a6e 01       		.byte	0x1
 14332 1a6f 1E03     		.2byte	0x31e
 14333 1a71 00000000 		.4byte	.LFB81
 14334 1a75 6A000000 		.4byte	.LFE81-.LFB81
 14335 1a79 01       		.uleb128 0x1
 14336 1a7a 9C       		.byte	0x9c
 14337 1a7b C61A0000 		.4byte	0x1ac6
 14338 1a7f 2A       		.uleb128 0x2a
 14339 1a80 0F240000 		.4byte	.LASF479
 14340 1a84 01       		.byte	0x1
 14341 1a85 1E03     		.2byte	0x31e
 14342 1a87 11010000 		.4byte	0x111
 14343 1a8b 02       		.uleb128 0x2
 14344 1a8c 91       		.byte	0x91
 14345 1a8d 64       		.sleb128 -28
 14346 1a8e 2B       		.uleb128 0x2b
 14347 1a8f 34000000 		.4byte	.LASF501
 14348 1a93 01       		.byte	0x1
 14349 1a94 2003     		.2byte	0x320
 14350 1a96 630D0000 		.4byte	0xd63
 14351 1a9a 02       		.uleb128 0x2
 14352 1a9b 91       		.byte	0x91
 14353 1a9c 74       		.sleb128 -12
 14354 1a9d 26       		.uleb128 0x26
 14355 1a9e 12000000 		.4byte	.LBB14
 14356 1aa2 52000000 		.4byte	.LBE14-.LBB14
 14357 1aa6 2B       		.uleb128 0x2b
 14358 1aa7 28260000 		.4byte	.LASF487
 14359 1aab 01       		.byte	0x1
 14360 1aac 2303     		.2byte	0x323
ARM GAS  C:\Users\RECEPC~1\AppData\Local\Temp\ccNQP0pp.s 			page 301


 14361 1aae 81000000 		.4byte	0x81
 14362 1ab2 02       		.uleb128 0x2
 14363 1ab3 91       		.byte	0x91
 14364 1ab4 73       		.sleb128 -13
 14365 1ab5 2B       		.uleb128 0x2b
 14366 1ab6 440D0000 		.4byte	.LASF502
 14367 1aba 01       		.byte	0x1
 14368 1abb 2503     		.2byte	0x325
 14369 1abd 8B050000 		.4byte	0x58b
 14370 1ac1 02       		.uleb128 0x2
 14371 1ac2 91       		.byte	0x91
 14372 1ac3 6C       		.sleb128 -20
 14373 1ac4 00       		.byte	0
 14374 1ac5 00       		.byte	0
 14375 1ac6 29       		.uleb128 0x29
 14376 1ac7 C30E0000 		.4byte	.LASF509
 14377 1acb 01       		.byte	0x1
 14378 1acc 3303     		.2byte	0x333
 14379 1ace 00000000 		.4byte	.LFB82
 14380 1ad2 6A000000 		.4byte	.LFE82-.LFB82
 14381 1ad6 01       		.uleb128 0x1
 14382 1ad7 9C       		.byte	0x9c
 14383 1ad8 231B0000 		.4byte	0x1b23
 14384 1adc 2A       		.uleb128 0x2a
 14385 1add 0F240000 		.4byte	.LASF479
 14386 1ae1 01       		.byte	0x1
 14387 1ae2 3303     		.2byte	0x333
 14388 1ae4 11010000 		.4byte	0x111
 14389 1ae8 02       		.uleb128 0x2
 14390 1ae9 91       		.byte	0x91
 14391 1aea 64       		.sleb128 -28
 14392 1aeb 2B       		.uleb128 0x2b
 14393 1aec 34000000 		.4byte	.LASF501
 14394 1af0 01       		.byte	0x1
 14395 1af1 3503     		.2byte	0x335
 14396 1af3 630D0000 		.4byte	0xd63
 14397 1af7 02       		.uleb128 0x2
 14398 1af8 91       		.byte	0x91
 14399 1af9 74       		.sleb128 -12
 14400 1afa 26       		.uleb128 0x26
 14401 1afb 12000000 		.4byte	.LBB15
 14402 1aff 52000000 		.4byte	.LBE15-.LBB15
 14403 1b03 2B       		.uleb128 0x2b
 14404 1b04 28260000 		.4byte	.LASF487
 14405 1b08 01       		.byte	0x1
 14406 1b09 3803     		.2byte	0x338
 14407 1b0b 81000000 		.4byte	0x81
 14408 1b0f 02       		.uleb128 0x2
 14409 1b10 91       		.byte	0x91
 14410 1b11 73       		.sleb128 -13
 14411 1b12 2B       		.uleb128 0x2b
 14412 1b13 440D0000 		.4byte	.LASF502
 14413 1b17 01       		.byte	0x1
 14414 1b18 3A03     		.2byte	0x33a
 14415 1b1a 8B050000 		.4byte	0x58b
 14416 1b1e 02       		.uleb128 0x2
 14417 1b1f 91       		.byte	0x91
ARM GAS  C:\Users\RECEPC~1\AppData\Local\Temp\ccNQP0pp.s 			page 302


 14418 1b20 6C       		.sleb128 -20
 14419 1b21 00       		.byte	0
 14420 1b22 00       		.byte	0
 14421 1b23 29       		.uleb128 0x29
 14422 1b24 0E090000 		.4byte	.LASF510
 14423 1b28 01       		.byte	0x1
 14424 1b29 4E03     		.2byte	0x34e
 14425 1b2b 00000000 		.4byte	.LFB83
 14426 1b2f 4A010000 		.4byte	.LFE83-.LFB83
 14427 1b33 01       		.uleb128 0x1
 14428 1b34 9C       		.byte	0x9c
 14429 1b35 B71B0000 		.4byte	0x1bb7
 14430 1b39 2A       		.uleb128 0x2a
 14431 1b3a 0F240000 		.4byte	.LASF479
 14432 1b3e 01       		.byte	0x1
 14433 1b3f 4E03     		.2byte	0x34e
 14434 1b41 11010000 		.4byte	0x111
 14435 1b45 02       		.uleb128 0x2
 14436 1b46 91       		.byte	0x91
 14437 1b47 54       		.sleb128 -44
 14438 1b48 2B       		.uleb128 0x2b
 14439 1b49 34000000 		.4byte	.LASF501
 14440 1b4d 01       		.byte	0x1
 14441 1b4e 5003     		.2byte	0x350
 14442 1b50 630D0000 		.4byte	0xd63
 14443 1b54 02       		.uleb128 0x2
 14444 1b55 91       		.byte	0x91
 14445 1b56 68       		.sleb128 -24
 14446 1b57 26       		.uleb128 0x26
 14447 1b58 14000000 		.4byte	.LBB16
 14448 1b5c 30010000 		.4byte	.LBE16-.LBB16
 14449 1b60 2B       		.uleb128 0x2b
 14450 1b61 28260000 		.4byte	.LASF487
 14451 1b65 01       		.byte	0x1
 14452 1b66 5303     		.2byte	0x353
 14453 1b68 81000000 		.4byte	0x81
 14454 1b6c 02       		.uleb128 0x2
 14455 1b6d 91       		.byte	0x91
 14456 1b6e 6F       		.sleb128 -17
 14457 1b6f 2B       		.uleb128 0x2b
 14458 1b70 440D0000 		.4byte	.LASF502
 14459 1b74 01       		.byte	0x1
 14460 1b75 5403     		.2byte	0x354
 14461 1b77 8B050000 		.4byte	0x58b
 14462 1b7b 02       		.uleb128 0x2
 14463 1b7c 91       		.byte	0x91
 14464 1b7d 64       		.sleb128 -28
 14465 1b7e 26       		.uleb128 0x26
 14466 1b7f 3A000000 		.4byte	.LBB17
 14467 1b83 0A010000 		.4byte	.LBE17-.LBB17
 14468 1b87 2B       		.uleb128 0x2b
 14469 1b88 6F270000 		.4byte	.LASF511
 14470 1b8c 01       		.byte	0x1
 14471 1b8d 6403     		.2byte	0x364
 14472 1b8f 97000000 		.4byte	0x97
 14473 1b93 02       		.uleb128 0x2
 14474 1b94 91       		.byte	0x91
ARM GAS  C:\Users\RECEPC~1\AppData\Local\Temp\ccNQP0pp.s 			page 303


 14475 1b95 63       		.sleb128 -29
 14476 1b96 28       		.uleb128 0x28
 14477 1b97 70747200 		.ascii	"ptr\000"
 14478 1b9b 01       		.byte	0x1
 14479 1b9c 7203     		.2byte	0x372
 14480 1b9e 3B010000 		.4byte	0x13b
 14481 1ba2 02       		.uleb128 0x2
 14482 1ba3 91       		.byte	0x91
 14483 1ba4 5C       		.sleb128 -36
 14484 1ba5 2B       		.uleb128 0x2b
 14485 1ba6 BA160000 		.4byte	.LASF512
 14486 1baa 01       		.byte	0x1
 14487 1bab 7D03     		.2byte	0x37d
 14488 1bad 97000000 		.4byte	0x97
 14489 1bb1 02       		.uleb128 0x2
 14490 1bb2 91       		.byte	0x91
 14491 1bb3 6E       		.sleb128 -18
 14492 1bb4 00       		.byte	0
 14493 1bb5 00       		.byte	0
 14494 1bb6 00       		.byte	0
 14495 1bb7 29       		.uleb128 0x29
 14496 1bb8 E21B0000 		.4byte	.LASF513
 14497 1bbc 01       		.byte	0x1
 14498 1bbd 9203     		.2byte	0x392
 14499 1bbf 00000000 		.4byte	.LFB84
 14500 1bc3 60010000 		.4byte	.LFE84-.LFB84
 14501 1bc7 01       		.uleb128 0x1
 14502 1bc8 9C       		.byte	0x9c
 14503 1bc9 4B1C0000 		.4byte	0x1c4b
 14504 1bcd 2A       		.uleb128 0x2a
 14505 1bce 0F240000 		.4byte	.LASF479
 14506 1bd2 01       		.byte	0x1
 14507 1bd3 9203     		.2byte	0x392
 14508 1bd5 11010000 		.4byte	0x111
 14509 1bd9 02       		.uleb128 0x2
 14510 1bda 91       		.byte	0x91
 14511 1bdb 54       		.sleb128 -44
 14512 1bdc 2B       		.uleb128 0x2b
 14513 1bdd 34000000 		.4byte	.LASF501
 14514 1be1 01       		.byte	0x1
 14515 1be2 9403     		.2byte	0x394
 14516 1be4 630D0000 		.4byte	0xd63
 14517 1be8 02       		.uleb128 0x2
 14518 1be9 91       		.byte	0x91
 14519 1bea 68       		.sleb128 -24
 14520 1beb 26       		.uleb128 0x26
 14521 1bec 14000000 		.4byte	.LBB18
 14522 1bf0 46010000 		.4byte	.LBE18-.LBB18
 14523 1bf4 2B       		.uleb128 0x2b
 14524 1bf5 28260000 		.4byte	.LASF487
 14525 1bf9 01       		.byte	0x1
 14526 1bfa 9703     		.2byte	0x397
 14527 1bfc 81000000 		.4byte	0x81
 14528 1c00 02       		.uleb128 0x2
 14529 1c01 91       		.byte	0x91
 14530 1c02 6F       		.sleb128 -17
 14531 1c03 2B       		.uleb128 0x2b
ARM GAS  C:\Users\RECEPC~1\AppData\Local\Temp\ccNQP0pp.s 			page 304


 14532 1c04 440D0000 		.4byte	.LASF502
 14533 1c08 01       		.byte	0x1
 14534 1c09 9803     		.2byte	0x398
 14535 1c0b 8B050000 		.4byte	0x58b
 14536 1c0f 02       		.uleb128 0x2
 14537 1c10 91       		.byte	0x91
 14538 1c11 64       		.sleb128 -28
 14539 1c12 26       		.uleb128 0x26
 14540 1c13 3A000000 		.4byte	.LBB19
 14541 1c17 20010000 		.4byte	.LBE19-.LBB19
 14542 1c1b 2B       		.uleb128 0x2b
 14543 1c1c 6F270000 		.4byte	.LASF511
 14544 1c20 01       		.byte	0x1
 14545 1c21 A703     		.2byte	0x3a7
 14546 1c23 97000000 		.4byte	0x97
 14547 1c27 02       		.uleb128 0x2
 14548 1c28 91       		.byte	0x91
 14549 1c29 63       		.sleb128 -29
 14550 1c2a 28       		.uleb128 0x28
 14551 1c2b 70747200 		.ascii	"ptr\000"
 14552 1c2f 01       		.byte	0x1
 14553 1c30 B703     		.2byte	0x3b7
 14554 1c32 3B010000 		.4byte	0x13b
 14555 1c36 02       		.uleb128 0x2
 14556 1c37 91       		.byte	0x91
 14557 1c38 5C       		.sleb128 -36
 14558 1c39 2B       		.uleb128 0x2b
 14559 1c3a BA160000 		.4byte	.LASF512
 14560 1c3e 01       		.byte	0x1
 14561 1c3f BF03     		.2byte	0x3bf
 14562 1c41 97000000 		.4byte	0x97
 14563 1c45 02       		.uleb128 0x2
 14564 1c46 91       		.byte	0x91
 14565 1c47 6E       		.sleb128 -18
 14566 1c48 00       		.byte	0
 14567 1c49 00       		.byte	0
 14568 1c4a 00       		.byte	0
 14569 1c4b 29       		.uleb128 0x29
 14570 1c4c E9030000 		.4byte	.LASF514
 14571 1c50 01       		.byte	0x1
 14572 1c51 D903     		.2byte	0x3d9
 14573 1c53 00000000 		.4byte	.LFB85
 14574 1c57 4E010000 		.4byte	.LFE85-.LFB85
 14575 1c5b 01       		.uleb128 0x1
 14576 1c5c 9C       		.byte	0x9c
 14577 1c5d DF1C0000 		.4byte	0x1cdf
 14578 1c61 2A       		.uleb128 0x2a
 14579 1c62 0F240000 		.4byte	.LASF479
 14580 1c66 01       		.byte	0x1
 14581 1c67 D903     		.2byte	0x3d9
 14582 1c69 11010000 		.4byte	0x111
 14583 1c6d 02       		.uleb128 0x2
 14584 1c6e 91       		.byte	0x91
 14585 1c6f 54       		.sleb128 -44
 14586 1c70 2B       		.uleb128 0x2b
 14587 1c71 34000000 		.4byte	.LASF501
 14588 1c75 01       		.byte	0x1
ARM GAS  C:\Users\RECEPC~1\AppData\Local\Temp\ccNQP0pp.s 			page 305


 14589 1c76 DB03     		.2byte	0x3db
 14590 1c78 630D0000 		.4byte	0xd63
 14591 1c7c 02       		.uleb128 0x2
 14592 1c7d 91       		.byte	0x91
 14593 1c7e 68       		.sleb128 -24
 14594 1c7f 26       		.uleb128 0x26
 14595 1c80 14000000 		.4byte	.LBB20
 14596 1c84 34010000 		.4byte	.LBE20-.LBB20
 14597 1c88 2B       		.uleb128 0x2b
 14598 1c89 28260000 		.4byte	.LASF487
 14599 1c8d 01       		.byte	0x1
 14600 1c8e DE03     		.2byte	0x3de
 14601 1c90 81000000 		.4byte	0x81
 14602 1c94 02       		.uleb128 0x2
 14603 1c95 91       		.byte	0x91
 14604 1c96 6F       		.sleb128 -17
 14605 1c97 2B       		.uleb128 0x2b
 14606 1c98 440D0000 		.4byte	.LASF502
 14607 1c9c 01       		.byte	0x1
 14608 1c9d E003     		.2byte	0x3e0
 14609 1c9f 8B050000 		.4byte	0x58b
 14610 1ca3 02       		.uleb128 0x2
 14611 1ca4 91       		.byte	0x91
 14612 1ca5 64       		.sleb128 -28
 14613 1ca6 26       		.uleb128 0x26
 14614 1ca7 3A000000 		.4byte	.LBB21
 14615 1cab 0E010000 		.4byte	.LBE21-.LBB21
 14616 1caf 2B       		.uleb128 0x2b
 14617 1cb0 6F270000 		.4byte	.LASF511
 14618 1cb4 01       		.byte	0x1
 14619 1cb5 E803     		.2byte	0x3e8
 14620 1cb7 97000000 		.4byte	0x97
 14621 1cbb 02       		.uleb128 0x2
 14622 1cbc 91       		.byte	0x91
 14623 1cbd 63       		.sleb128 -29
 14624 1cbe 28       		.uleb128 0x28
 14625 1cbf 70747200 		.ascii	"ptr\000"
 14626 1cc3 01       		.byte	0x1
 14627 1cc4 EF03     		.2byte	0x3ef
 14628 1cc6 3B010000 		.4byte	0x13b
 14629 1cca 02       		.uleb128 0x2
 14630 1ccb 91       		.byte	0x91
 14631 1ccc 5C       		.sleb128 -36
 14632 1ccd 2B       		.uleb128 0x2b
 14633 1cce BA160000 		.4byte	.LASF512
 14634 1cd2 01       		.byte	0x1
 14635 1cd3 FA03     		.2byte	0x3fa
 14636 1cd5 97000000 		.4byte	0x97
 14637 1cd9 02       		.uleb128 0x2
 14638 1cda 91       		.byte	0x91
 14639 1cdb 6E       		.sleb128 -18
 14640 1cdc 00       		.byte	0
 14641 1cdd 00       		.byte	0
 14642 1cde 00       		.byte	0
 14643 1cdf 29       		.uleb128 0x29
 14644 1ce0 BC0F0000 		.4byte	.LASF515
 14645 1ce4 01       		.byte	0x1
ARM GAS  C:\Users\RECEPC~1\AppData\Local\Temp\ccNQP0pp.s 			page 306


 14646 1ce5 0C04     		.2byte	0x40c
 14647 1ce7 00000000 		.4byte	.LFB86
 14648 1ceb 78010000 		.4byte	.LFE86-.LFB86
 14649 1cef 01       		.uleb128 0x1
 14650 1cf0 9C       		.byte	0x9c
 14651 1cf1 461D0000 		.4byte	0x1d46
 14652 1cf5 2A       		.uleb128 0x2a
 14653 1cf6 0F240000 		.4byte	.LASF479
 14654 1cfa 01       		.byte	0x1
 14655 1cfb 0C04     		.2byte	0x40c
 14656 1cfd 30010000 		.4byte	0x130
 14657 1d01 02       		.uleb128 0x2
 14658 1d02 91       		.byte	0x91
 14659 1d03 5C       		.sleb128 -36
 14660 1d04 2B       		.uleb128 0x2b
 14661 1d05 AD1F0000 		.4byte	.LASF475
 14662 1d09 01       		.byte	0x1
 14663 1d0a 0E04     		.2byte	0x40e
 14664 1d0c AB0F0000 		.4byte	0xfab
 14665 1d10 02       		.uleb128 0x2
 14666 1d11 91       		.byte	0x91
 14667 1d12 6C       		.sleb128 -20
 14668 1d13 26       		.uleb128 0x26
 14669 1d14 14000000 		.4byte	.LBB22
 14670 1d18 5E010000 		.4byte	.LBE22-.LBB22
 14671 1d1c 28       		.uleb128 0x28
 14672 1d1d 70747300 		.ascii	"pts\000"
 14673 1d21 01       		.byte	0x1
 14674 1d22 1504     		.2byte	0x415
 14675 1d24 A3090000 		.4byte	0x9a3
 14676 1d28 02       		.uleb128 0x2
 14677 1d29 91       		.byte	0x91
 14678 1d2a 68       		.sleb128 -24
 14679 1d2b 26       		.uleb128 0x26
 14680 1d2c 4E000000 		.4byte	.LBB23
 14681 1d30 24010000 		.4byte	.LBE23-.LBB23
 14682 1d34 2B       		.uleb128 0x2b
 14683 1d35 28260000 		.4byte	.LASF487
 14684 1d39 01       		.byte	0x1
 14685 1d3a 1904     		.2byte	0x419
 14686 1d3c 97000000 		.4byte	0x97
 14687 1d40 02       		.uleb128 0x2
 14688 1d41 91       		.byte	0x91
 14689 1d42 67       		.sleb128 -25
 14690 1d43 00       		.byte	0
 14691 1d44 00       		.byte	0
 14692 1d45 00       		.byte	0
 14693 1d46 29       		.uleb128 0x29
 14694 1d47 0B1E0000 		.4byte	.LASF516
 14695 1d4b 01       		.byte	0x1
 14696 1d4c 3904     		.2byte	0x439
 14697 1d4e 00000000 		.4byte	.LFB87
 14698 1d52 AA000000 		.4byte	.LFE87-.LFB87
 14699 1d56 01       		.uleb128 0x1
 14700 1d57 9C       		.byte	0x9c
 14701 1d58 AD1D0000 		.4byte	0x1dad
 14702 1d5c 2A       		.uleb128 0x2a
ARM GAS  C:\Users\RECEPC~1\AppData\Local\Temp\ccNQP0pp.s 			page 307


 14703 1d5d 0F240000 		.4byte	.LASF479
 14704 1d61 01       		.byte	0x1
 14705 1d62 3904     		.2byte	0x439
 14706 1d64 30010000 		.4byte	0x130
 14707 1d68 02       		.uleb128 0x2
 14708 1d69 91       		.byte	0x91
 14709 1d6a 64       		.sleb128 -28
 14710 1d6b 2B       		.uleb128 0x2b
 14711 1d6c AD1F0000 		.4byte	.LASF475
 14712 1d70 01       		.byte	0x1
 14713 1d71 3B04     		.2byte	0x43b
 14714 1d73 AB0F0000 		.4byte	0xfab
 14715 1d77 02       		.uleb128 0x2
 14716 1d78 91       		.byte	0x91
 14717 1d79 74       		.sleb128 -12
 14718 1d7a 26       		.uleb128 0x26
 14719 1d7b 12000000 		.4byte	.LBB24
 14720 1d7f 92000000 		.4byte	.LBE24-.LBB24
 14721 1d83 28       		.uleb128 0x28
 14722 1d84 70747300 		.ascii	"pts\000"
 14723 1d88 01       		.byte	0x1
 14724 1d89 4204     		.2byte	0x442
 14725 1d8b A3090000 		.4byte	0x9a3
 14726 1d8f 02       		.uleb128 0x2
 14727 1d90 91       		.byte	0x91
 14728 1d91 70       		.sleb128 -16
 14729 1d92 26       		.uleb128 0x26
 14730 1d93 4A000000 		.4byte	.LBB25
 14731 1d97 5A000000 		.4byte	.LBE25-.LBB25
 14732 1d9b 2B       		.uleb128 0x2b
 14733 1d9c 28260000 		.4byte	.LASF487
 14734 1da0 01       		.byte	0x1
 14735 1da1 4604     		.2byte	0x446
 14736 1da3 97000000 		.4byte	0x97
 14737 1da7 02       		.uleb128 0x2
 14738 1da8 91       		.byte	0x91
 14739 1da9 6F       		.sleb128 -17
 14740 1daa 00       		.byte	0
 14741 1dab 00       		.byte	0
 14742 1dac 00       		.byte	0
 14743 1dad 29       		.uleb128 0x29
 14744 1dae 9D260000 		.4byte	.LASF517
 14745 1db2 01       		.byte	0x1
 14746 1db3 5D04     		.2byte	0x45d
 14747 1db5 00000000 		.4byte	.LFB88
 14748 1db9 A4010000 		.4byte	.LFE88-.LFB88
 14749 1dbd 01       		.uleb128 0x1
 14750 1dbe 9C       		.byte	0x9c
 14751 1dbf 411E0000 		.4byte	0x1e41
 14752 1dc3 2A       		.uleb128 0x2a
 14753 1dc4 0F240000 		.4byte	.LASF479
 14754 1dc8 01       		.byte	0x1
 14755 1dc9 5D04     		.2byte	0x45d
 14756 1dcb 11010000 		.4byte	0x111
 14757 1dcf 02       		.uleb128 0x2
 14758 1dd0 91       		.byte	0x91
 14759 1dd1 54       		.sleb128 -44
ARM GAS  C:\Users\RECEPC~1\AppData\Local\Temp\ccNQP0pp.s 			page 308


 14760 1dd2 2B       		.uleb128 0x2b
 14761 1dd3 34000000 		.4byte	.LASF501
 14762 1dd7 01       		.byte	0x1
 14763 1dd8 5F04     		.2byte	0x45f
 14764 1dda 630D0000 		.4byte	0xd63
 14765 1dde 02       		.uleb128 0x2
 14766 1ddf 91       		.byte	0x91
 14767 1de0 68       		.sleb128 -24
 14768 1de1 26       		.uleb128 0x26
 14769 1de2 14000000 		.4byte	.LBB26
 14770 1de6 80010000 		.4byte	.LBE26-.LBB26
 14771 1dea 2B       		.uleb128 0x2b
 14772 1deb 28260000 		.4byte	.LASF487
 14773 1def 01       		.byte	0x1
 14774 1df0 6204     		.2byte	0x462
 14775 1df2 81000000 		.4byte	0x81
 14776 1df6 02       		.uleb128 0x2
 14777 1df7 91       		.byte	0x91
 14778 1df8 6F       		.sleb128 -17
 14779 1df9 2B       		.uleb128 0x2b
 14780 1dfa 440D0000 		.4byte	.LASF502
 14781 1dfe 01       		.byte	0x1
 14782 1dff 6304     		.2byte	0x463
 14783 1e01 8B050000 		.4byte	0x58b
 14784 1e05 02       		.uleb128 0x2
 14785 1e06 91       		.byte	0x91
 14786 1e07 64       		.sleb128 -28
 14787 1e08 26       		.uleb128 0x26
 14788 1e09 3A000000 		.4byte	.LBB27
 14789 1e0d 5A010000 		.4byte	.LBE27-.LBB27
 14790 1e11 2B       		.uleb128 0x2b
 14791 1e12 6F270000 		.4byte	.LASF511
 14792 1e16 01       		.byte	0x1
 14793 1e17 6C04     		.2byte	0x46c
 14794 1e19 97000000 		.4byte	0x97
 14795 1e1d 02       		.uleb128 0x2
 14796 1e1e 91       		.byte	0x91
 14797 1e1f 63       		.sleb128 -29
 14798 1e20 28       		.uleb128 0x28
 14799 1e21 70747200 		.ascii	"ptr\000"
 14800 1e25 01       		.byte	0x1
 14801 1e26 7804     		.2byte	0x478
 14802 1e28 3B010000 		.4byte	0x13b
 14803 1e2c 02       		.uleb128 0x2
 14804 1e2d 91       		.byte	0x91
 14805 1e2e 5C       		.sleb128 -36
 14806 1e2f 2B       		.uleb128 0x2b
 14807 1e30 BA160000 		.4byte	.LASF512
 14808 1e34 01       		.byte	0x1
 14809 1e35 8504     		.2byte	0x485
 14810 1e37 97000000 		.4byte	0x97
 14811 1e3b 02       		.uleb128 0x2
 14812 1e3c 91       		.byte	0x91
 14813 1e3d 6E       		.sleb128 -18
 14814 1e3e 00       		.byte	0
 14815 1e3f 00       		.byte	0
 14816 1e40 00       		.byte	0
ARM GAS  C:\Users\RECEPC~1\AppData\Local\Temp\ccNQP0pp.s 			page 309


 14817 1e41 29       		.uleb128 0x29
 14818 1e42 0F0B0000 		.4byte	.LASF518
 14819 1e46 01       		.byte	0x1
 14820 1e47 A104     		.2byte	0x4a1
 14821 1e49 00000000 		.4byte	.LFB89
 14822 1e4d 88010000 		.4byte	.LFE89-.LFB89
 14823 1e51 01       		.uleb128 0x1
 14824 1e52 9C       		.byte	0x9c
 14825 1e53 D51E0000 		.4byte	0x1ed5
 14826 1e57 2A       		.uleb128 0x2a
 14827 1e58 0F240000 		.4byte	.LASF479
 14828 1e5c 01       		.byte	0x1
 14829 1e5d A104     		.2byte	0x4a1
 14830 1e5f 11010000 		.4byte	0x111
 14831 1e63 02       		.uleb128 0x2
 14832 1e64 91       		.byte	0x91
 14833 1e65 54       		.sleb128 -44
 14834 1e66 2B       		.uleb128 0x2b
 14835 1e67 34000000 		.4byte	.LASF501
 14836 1e6b 01       		.byte	0x1
 14837 1e6c A304     		.2byte	0x4a3
 14838 1e6e 630D0000 		.4byte	0xd63
 14839 1e72 02       		.uleb128 0x2
 14840 1e73 91       		.byte	0x91
 14841 1e74 68       		.sleb128 -24
 14842 1e75 26       		.uleb128 0x26
 14843 1e76 14000000 		.4byte	.LBB28
 14844 1e7a 6A010000 		.4byte	.LBE28-.LBB28
 14845 1e7e 2B       		.uleb128 0x2b
 14846 1e7f 28260000 		.4byte	.LASF487
 14847 1e83 01       		.byte	0x1
 14848 1e84 A604     		.2byte	0x4a6
 14849 1e86 81000000 		.4byte	0x81
 14850 1e8a 02       		.uleb128 0x2
 14851 1e8b 91       		.byte	0x91
 14852 1e8c 6F       		.sleb128 -17
 14853 1e8d 2B       		.uleb128 0x2b
 14854 1e8e 440D0000 		.4byte	.LASF502
 14855 1e92 01       		.byte	0x1
 14856 1e93 A704     		.2byte	0x4a7
 14857 1e95 8B050000 		.4byte	0x58b
 14858 1e99 02       		.uleb128 0x2
 14859 1e9a 91       		.byte	0x91
 14860 1e9b 64       		.sleb128 -28
 14861 1e9c 26       		.uleb128 0x26
 14862 1e9d 3A000000 		.4byte	.LBB29
 14863 1ea1 44010000 		.4byte	.LBE29-.LBB29
 14864 1ea5 2B       		.uleb128 0x2b
 14865 1ea6 6F270000 		.4byte	.LASF511
 14866 1eaa 01       		.byte	0x1
 14867 1eab B204     		.2byte	0x4b2
 14868 1ead 97000000 		.4byte	0x97
 14869 1eb1 02       		.uleb128 0x2
 14870 1eb2 91       		.byte	0x91
 14871 1eb3 63       		.sleb128 -29
 14872 1eb4 28       		.uleb128 0x28
 14873 1eb5 70747200 		.ascii	"ptr\000"
ARM GAS  C:\Users\RECEPC~1\AppData\Local\Temp\ccNQP0pp.s 			page 310


 14874 1eb9 01       		.byte	0x1
 14875 1eba BA04     		.2byte	0x4ba
 14876 1ebc 3B010000 		.4byte	0x13b
 14877 1ec0 02       		.uleb128 0x2
 14878 1ec1 91       		.byte	0x91
 14879 1ec2 5C       		.sleb128 -36
 14880 1ec3 2B       		.uleb128 0x2b
 14881 1ec4 BA160000 		.4byte	.LASF512
 14882 1ec8 01       		.byte	0x1
 14883 1ec9 CE04     		.2byte	0x4ce
 14884 1ecb 97000000 		.4byte	0x97
 14885 1ecf 02       		.uleb128 0x2
 14886 1ed0 91       		.byte	0x91
 14887 1ed1 6E       		.sleb128 -18
 14888 1ed2 00       		.byte	0
 14889 1ed3 00       		.byte	0
 14890 1ed4 00       		.byte	0
 14891 1ed5 29       		.uleb128 0x29
 14892 1ed6 78070000 		.4byte	.LASF519
 14893 1eda 01       		.byte	0x1
 14894 1edb E804     		.2byte	0x4e8
 14895 1edd 00000000 		.4byte	.LFB90
 14896 1ee1 5E020000 		.4byte	.LFE90-.LFB90
 14897 1ee5 01       		.uleb128 0x1
 14898 1ee6 9C       		.byte	0x9c
 14899 1ee7 781F0000 		.4byte	0x1f78
 14900 1eeb 2A       		.uleb128 0x2a
 14901 1eec 0F240000 		.4byte	.LASF479
 14902 1ef0 01       		.byte	0x1
 14903 1ef1 E804     		.2byte	0x4e8
 14904 1ef3 11010000 		.4byte	0x111
 14905 1ef7 02       		.uleb128 0x2
 14906 1ef8 91       		.byte	0x91
 14907 1ef9 54       		.sleb128 -44
 14908 1efa 2B       		.uleb128 0x2b
 14909 1efb 34000000 		.4byte	.LASF501
 14910 1eff 01       		.byte	0x1
 14911 1f00 EA04     		.2byte	0x4ea
 14912 1f02 630D0000 		.4byte	0xd63
 14913 1f06 02       		.uleb128 0x2
 14914 1f07 91       		.byte	0x91
 14915 1f08 68       		.sleb128 -24
 14916 1f09 26       		.uleb128 0x26
 14917 1f0a 14000000 		.4byte	.LBB30
 14918 1f0e 44020000 		.4byte	.LBE30-.LBB30
 14919 1f12 2B       		.uleb128 0x2b
 14920 1f13 28260000 		.4byte	.LASF487
 14921 1f17 01       		.byte	0x1
 14922 1f18 ED04     		.2byte	0x4ed
 14923 1f1a 81000000 		.4byte	0x81
 14924 1f1e 02       		.uleb128 0x2
 14925 1f1f 91       		.byte	0x91
 14926 1f20 6F       		.sleb128 -17
 14927 1f21 2B       		.uleb128 0x2b
 14928 1f22 440D0000 		.4byte	.LASF502
 14929 1f26 01       		.byte	0x1
 14930 1f27 EF04     		.2byte	0x4ef
ARM GAS  C:\Users\RECEPC~1\AppData\Local\Temp\ccNQP0pp.s 			page 311


 14931 1f29 8B050000 		.4byte	0x58b
 14932 1f2d 02       		.uleb128 0x2
 14933 1f2e 91       		.byte	0x91
 14934 1f2f 64       		.sleb128 -28
 14935 1f30 26       		.uleb128 0x26
 14936 1f31 3A000000 		.4byte	.LBB31
 14937 1f35 1E020000 		.4byte	.LBE31-.LBB31
 14938 1f39 2B       		.uleb128 0x2b
 14939 1f3a 730D0000 		.4byte	.LASF484
 14940 1f3e 01       		.byte	0x1
 14941 1f3f FE04     		.2byte	0x4fe
 14942 1f41 A3000000 		.4byte	0xa3
 14943 1f45 02       		.uleb128 0x2
 14944 1f46 91       		.byte	0x91
 14945 1f47 62       		.sleb128 -30
 14946 1f48 2B       		.uleb128 0x2b
 14947 1f49 851A0000 		.4byte	.LASF520
 14948 1f4d 01       		.byte	0x1
 14949 1f4e 1905     		.2byte	0x519
 14950 1f50 97000000 		.4byte	0x97
 14951 1f54 02       		.uleb128 0x2
 14952 1f55 91       		.byte	0x91
 14953 1f56 61       		.sleb128 -31
 14954 1f57 28       		.uleb128 0x28
 14955 1f58 70747200 		.ascii	"ptr\000"
 14956 1f5c 01       		.byte	0x1
 14957 1f5d 1A05     		.2byte	0x51a
 14958 1f5f 3B010000 		.4byte	0x13b
 14959 1f63 02       		.uleb128 0x2
 14960 1f64 91       		.byte	0x91
 14961 1f65 5C       		.sleb128 -36
 14962 1f66 2B       		.uleb128 0x2b
 14963 1f67 BA160000 		.4byte	.LASF512
 14964 1f6b 01       		.byte	0x1
 14965 1f6c 1B05     		.2byte	0x51b
 14966 1f6e 97000000 		.4byte	0x97
 14967 1f72 02       		.uleb128 0x2
 14968 1f73 91       		.byte	0x91
 14969 1f74 6E       		.sleb128 -18
 14970 1f75 00       		.byte	0
 14971 1f76 00       		.byte	0
 14972 1f77 00       		.byte	0
 14973 1f78 29       		.uleb128 0x29
 14974 1f79 521A0000 		.4byte	.LASF521
 14975 1f7d 01       		.byte	0x1
 14976 1f7e 2D05     		.2byte	0x52d
 14977 1f80 00000000 		.4byte	.LFB91
 14978 1f84 54010000 		.4byte	.LFE91-.LFB91
 14979 1f88 01       		.uleb128 0x1
 14980 1f89 9C       		.byte	0x9c
 14981 1f8a FD1F0000 		.4byte	0x1ffd
 14982 1f8e 2A       		.uleb128 0x2a
 14983 1f8f 0F240000 		.4byte	.LASF479
 14984 1f93 01       		.byte	0x1
 14985 1f94 2D05     		.2byte	0x52d
 14986 1f96 11010000 		.4byte	0x111
 14987 1f9a 02       		.uleb128 0x2
ARM GAS  C:\Users\RECEPC~1\AppData\Local\Temp\ccNQP0pp.s 			page 312


 14988 1f9b 91       		.byte	0x91
 14989 1f9c 5C       		.sleb128 -36
 14990 1f9d 2B       		.uleb128 0x2b
 14991 1f9e 34000000 		.4byte	.LASF501
 14992 1fa2 01       		.byte	0x1
 14993 1fa3 2F05     		.2byte	0x52f
 14994 1fa5 630D0000 		.4byte	0xd63
 14995 1fa9 02       		.uleb128 0x2
 14996 1faa 91       		.byte	0x91
 14997 1fab 68       		.sleb128 -24
 14998 1fac 26       		.uleb128 0x26
 14999 1fad 14000000 		.4byte	.LBB32
 15000 1fb1 3A010000 		.4byte	.LBE32-.LBB32
 15001 1fb5 2B       		.uleb128 0x2b
 15002 1fb6 28260000 		.4byte	.LASF487
 15003 1fba 01       		.byte	0x1
 15004 1fbb 3205     		.2byte	0x532
 15005 1fbd 81000000 		.4byte	0x81
 15006 1fc1 02       		.uleb128 0x2
 15007 1fc2 91       		.byte	0x91
 15008 1fc3 6F       		.sleb128 -17
 15009 1fc4 2B       		.uleb128 0x2b
 15010 1fc5 440D0000 		.4byte	.LASF502
 15011 1fc9 01       		.byte	0x1
 15012 1fca 3405     		.2byte	0x534
 15013 1fcc 8B050000 		.4byte	0x58b
 15014 1fd0 02       		.uleb128 0x2
 15015 1fd1 91       		.byte	0x91
 15016 1fd2 64       		.sleb128 -28
 15017 1fd3 26       		.uleb128 0x26
 15018 1fd4 3A000000 		.4byte	.LBB33
 15019 1fd8 14010000 		.4byte	.LBE33-.LBB33
 15020 1fdc 28       		.uleb128 0x28
 15021 1fdd 70747200 		.ascii	"ptr\000"
 15022 1fe1 01       		.byte	0x1
 15023 1fe2 4505     		.2byte	0x545
 15024 1fe4 3B010000 		.4byte	0x13b
 15025 1fe8 02       		.uleb128 0x2
 15026 1fe9 91       		.byte	0x91
 15027 1fea 60       		.sleb128 -32
 15028 1feb 2B       		.uleb128 0x2b
 15029 1fec BA160000 		.4byte	.LASF512
 15030 1ff0 01       		.byte	0x1
 15031 1ff1 4605     		.2byte	0x546
 15032 1ff3 97000000 		.4byte	0x97
 15033 1ff7 02       		.uleb128 0x2
 15034 1ff8 91       		.byte	0x91
 15035 1ff9 6E       		.sleb128 -18
 15036 1ffa 00       		.byte	0
 15037 1ffb 00       		.byte	0
 15038 1ffc 00       		.byte	0
 15039 1ffd 29       		.uleb128 0x29
 15040 1ffe AC210000 		.4byte	.LASF522
 15041 2002 01       		.byte	0x1
 15042 2003 5705     		.2byte	0x557
 15043 2005 00000000 		.4byte	.LFB92
 15044 2009 E2010000 		.4byte	.LFE92-.LFB92
ARM GAS  C:\Users\RECEPC~1\AppData\Local\Temp\ccNQP0pp.s 			page 313


 15045 200d 01       		.uleb128 0x1
 15046 200e 9C       		.byte	0x9c
 15047 200f 91200000 		.4byte	0x2091
 15048 2013 2A       		.uleb128 0x2a
 15049 2014 0F240000 		.4byte	.LASF479
 15050 2018 01       		.byte	0x1
 15051 2019 5705     		.2byte	0x557
 15052 201b 11010000 		.4byte	0x111
 15053 201f 02       		.uleb128 0x2
 15054 2020 91       		.byte	0x91
 15055 2021 54       		.sleb128 -44
 15056 2022 2B       		.uleb128 0x2b
 15057 2023 34000000 		.4byte	.LASF501
 15058 2027 01       		.byte	0x1
 15059 2028 5905     		.2byte	0x559
 15060 202a 630D0000 		.4byte	0xd63
 15061 202e 02       		.uleb128 0x2
 15062 202f 91       		.byte	0x91
 15063 2030 68       		.sleb128 -24
 15064 2031 26       		.uleb128 0x26
 15065 2032 14000000 		.4byte	.LBB34
 15066 2036 C8010000 		.4byte	.LBE34-.LBB34
 15067 203a 2B       		.uleb128 0x2b
 15068 203b 28260000 		.4byte	.LASF487
 15069 203f 01       		.byte	0x1
 15070 2040 5C05     		.2byte	0x55c
 15071 2042 81000000 		.4byte	0x81
 15072 2046 02       		.uleb128 0x2
 15073 2047 91       		.byte	0x91
 15074 2048 6F       		.sleb128 -17
 15075 2049 2B       		.uleb128 0x2b
 15076 204a 440D0000 		.4byte	.LASF502
 15077 204e 01       		.byte	0x1
 15078 204f 5E05     		.2byte	0x55e
 15079 2051 8B050000 		.4byte	0x58b
 15080 2055 02       		.uleb128 0x2
 15081 2056 91       		.byte	0x91
 15082 2057 64       		.sleb128 -28
 15083 2058 26       		.uleb128 0x26
 15084 2059 3A000000 		.4byte	.LBB35
 15085 205d 9C010000 		.4byte	.LBE35-.LBB35
 15086 2061 2B       		.uleb128 0x2b
 15087 2062 730D0000 		.4byte	.LASF484
 15088 2066 01       		.byte	0x1
 15089 2067 6E05     		.2byte	0x56e
 15090 2069 A3000000 		.4byte	0xa3
 15091 206d 02       		.uleb128 0x2
 15092 206e 91       		.byte	0x91
 15093 206f 62       		.sleb128 -30
 15094 2070 28       		.uleb128 0x28
 15095 2071 70747200 		.ascii	"ptr\000"
 15096 2075 01       		.byte	0x1
 15097 2076 8505     		.2byte	0x585
 15098 2078 3B010000 		.4byte	0x13b
 15099 207c 02       		.uleb128 0x2
 15100 207d 91       		.byte	0x91
 15101 207e 5C       		.sleb128 -36
ARM GAS  C:\Users\RECEPC~1\AppData\Local\Temp\ccNQP0pp.s 			page 314


 15102 207f 2B       		.uleb128 0x2b
 15103 2080 BA160000 		.4byte	.LASF512
 15104 2084 01       		.byte	0x1
 15105 2085 8605     		.2byte	0x586
 15106 2087 97000000 		.4byte	0x97
 15107 208b 02       		.uleb128 0x2
 15108 208c 91       		.byte	0x91
 15109 208d 6E       		.sleb128 -18
 15110 208e 00       		.byte	0
 15111 208f 00       		.byte	0
 15112 2090 00       		.byte	0
 15113 2091 29       		.uleb128 0x29
 15114 2092 54030000 		.4byte	.LASF523
 15115 2096 01       		.byte	0x1
 15116 2097 9B05     		.2byte	0x59b
 15117 2099 00000000 		.4byte	.LFB93
 15118 209d 6A000000 		.4byte	.LFE93-.LFB93
 15119 20a1 01       		.uleb128 0x1
 15120 20a2 9C       		.byte	0x9c
 15121 20a3 EE200000 		.4byte	0x20ee
 15122 20a7 2A       		.uleb128 0x2a
 15123 20a8 0F240000 		.4byte	.LASF479
 15124 20ac 01       		.byte	0x1
 15125 20ad 9B05     		.2byte	0x59b
 15126 20af 11010000 		.4byte	0x111
 15127 20b3 02       		.uleb128 0x2
 15128 20b4 91       		.byte	0x91
 15129 20b5 64       		.sleb128 -28
 15130 20b6 2B       		.uleb128 0x2b
 15131 20b7 34000000 		.4byte	.LASF501
 15132 20bb 01       		.byte	0x1
 15133 20bc 9D05     		.2byte	0x59d
 15134 20be 630D0000 		.4byte	0xd63
 15135 20c2 02       		.uleb128 0x2
 15136 20c3 91       		.byte	0x91
 15137 20c4 74       		.sleb128 -12
 15138 20c5 26       		.uleb128 0x26
 15139 20c6 12000000 		.4byte	.LBB36
 15140 20ca 52000000 		.4byte	.LBE36-.LBB36
 15141 20ce 2B       		.uleb128 0x2b
 15142 20cf 28260000 		.4byte	.LASF487
 15143 20d3 01       		.byte	0x1
 15144 20d4 A005     		.2byte	0x5a0
 15145 20d6 81000000 		.4byte	0x81
 15146 20da 02       		.uleb128 0x2
 15147 20db 91       		.byte	0x91
 15148 20dc 73       		.sleb128 -13
 15149 20dd 2B       		.uleb128 0x2b
 15150 20de 440D0000 		.4byte	.LASF502
 15151 20e2 01       		.byte	0x1
 15152 20e3 A205     		.2byte	0x5a2
 15153 20e5 8B050000 		.4byte	0x58b
 15154 20e9 02       		.uleb128 0x2
 15155 20ea 91       		.byte	0x91
 15156 20eb 6C       		.sleb128 -20
 15157 20ec 00       		.byte	0
 15158 20ed 00       		.byte	0
ARM GAS  C:\Users\RECEPC~1\AppData\Local\Temp\ccNQP0pp.s 			page 315


 15159 20ee 29       		.uleb128 0x29
 15160 20ef D4140000 		.4byte	.LASF524
 15161 20f3 01       		.byte	0x1
 15162 20f4 AF05     		.2byte	0x5af
 15163 20f6 00000000 		.4byte	.LFB94
 15164 20fa 60000000 		.4byte	.LFE94-.LFB94
 15165 20fe 01       		.uleb128 0x1
 15166 20ff 9C       		.byte	0x9c
 15167 2100 4B210000 		.4byte	0x214b
 15168 2104 2A       		.uleb128 0x2a
 15169 2105 0F240000 		.4byte	.LASF479
 15170 2109 01       		.byte	0x1
 15171 210a AF05     		.2byte	0x5af
 15172 210c 11010000 		.4byte	0x111
 15173 2110 02       		.uleb128 0x2
 15174 2111 91       		.byte	0x91
 15175 2112 64       		.sleb128 -28
 15176 2113 2B       		.uleb128 0x2b
 15177 2114 34000000 		.4byte	.LASF501
 15178 2118 01       		.byte	0x1
 15179 2119 B105     		.2byte	0x5b1
 15180 211b 630D0000 		.4byte	0xd63
 15181 211f 02       		.uleb128 0x2
 15182 2120 91       		.byte	0x91
 15183 2121 74       		.sleb128 -12
 15184 2122 26       		.uleb128 0x26
 15185 2123 12000000 		.4byte	.LBB37
 15186 2127 48000000 		.4byte	.LBE37-.LBB37
 15187 212b 2B       		.uleb128 0x2b
 15188 212c 28260000 		.4byte	.LASF487
 15189 2130 01       		.byte	0x1
 15190 2131 B405     		.2byte	0x5b4
 15191 2133 81000000 		.4byte	0x81
 15192 2137 02       		.uleb128 0x2
 15193 2138 91       		.byte	0x91
 15194 2139 73       		.sleb128 -13
 15195 213a 2B       		.uleb128 0x2b
 15196 213b 440D0000 		.4byte	.LASF502
 15197 213f 01       		.byte	0x1
 15198 2140 B605     		.2byte	0x5b6
 15199 2142 8B050000 		.4byte	0x58b
 15200 2146 02       		.uleb128 0x2
 15201 2147 91       		.byte	0x91
 15202 2148 6C       		.sleb128 -20
 15203 2149 00       		.byte	0
 15204 214a 00       		.byte	0
 15205 214b 29       		.uleb128 0x29
 15206 214c 03280000 		.4byte	.LASF525
 15207 2150 01       		.byte	0x1
 15208 2151 C305     		.2byte	0x5c3
 15209 2153 00000000 		.4byte	.LFB95
 15210 2157 E6000000 		.4byte	.LFE95-.LFB95
 15211 215b 01       		.uleb128 0x1
 15212 215c 9C       		.byte	0x9c
 15213 215d A8210000 		.4byte	0x21a8
 15214 2161 2A       		.uleb128 0x2a
 15215 2162 0F240000 		.4byte	.LASF479
ARM GAS  C:\Users\RECEPC~1\AppData\Local\Temp\ccNQP0pp.s 			page 316


 15216 2166 01       		.byte	0x1
 15217 2167 C305     		.2byte	0x5c3
 15218 2169 30010000 		.4byte	0x130
 15219 216d 02       		.uleb128 0x2
 15220 216e 91       		.byte	0x91
 15221 216f 5C       		.sleb128 -36
 15222 2170 2B       		.uleb128 0x2b
 15223 2171 34000000 		.4byte	.LASF501
 15224 2175 01       		.byte	0x1
 15225 2176 C505     		.2byte	0x5c5
 15226 2178 630D0000 		.4byte	0xd63
 15227 217c 02       		.uleb128 0x2
 15228 217d 91       		.byte	0x91
 15229 217e 6C       		.sleb128 -20
 15230 217f 26       		.uleb128 0x26
 15231 2180 12000000 		.4byte	.LBB38
 15232 2184 CE000000 		.4byte	.LBE38-.LBB38
 15233 2188 2B       		.uleb128 0x2b
 15234 2189 28260000 		.4byte	.LASF487
 15235 218d 01       		.byte	0x1
 15236 218e C805     		.2byte	0x5c8
 15237 2190 81000000 		.4byte	0x81
 15238 2194 02       		.uleb128 0x2
 15239 2195 91       		.byte	0x91
 15240 2196 6B       		.sleb128 -21
 15241 2197 2B       		.uleb128 0x2b
 15242 2198 440D0000 		.4byte	.LASF502
 15243 219c 01       		.byte	0x1
 15244 219d CA05     		.2byte	0x5ca
 15245 219f 8B050000 		.4byte	0x58b
 15246 21a3 02       		.uleb128 0x2
 15247 21a4 91       		.byte	0x91
 15248 21a5 64       		.sleb128 -28
 15249 21a6 00       		.byte	0
 15250 21a7 00       		.byte	0
 15251 21a8 2C       		.uleb128 0x2c
 15252 21a9 8B020000 		.4byte	.LASF526
 15253 21ad 01       		.byte	0x1
 15254 21ae E205     		.2byte	0x5e2
 15255 21b0 00000000 		.4byte	.LFB96
 15256 21b4 16000000 		.4byte	.LFE96-.LFB96
 15257 21b8 01       		.uleb128 0x1
 15258 21b9 9C       		.byte	0x9c
 15259 21ba DD210000 		.4byte	0x21dd
 15260 21be 2A       		.uleb128 0x2a
 15261 21bf 0F240000 		.4byte	.LASF479
 15262 21c3 01       		.byte	0x1
 15263 21c4 E205     		.2byte	0x5e2
 15264 21c6 11010000 		.4byte	0x111
 15265 21ca 02       		.uleb128 0x2
 15266 21cb 91       		.byte	0x91
 15267 21cc 6C       		.sleb128 -20
 15268 21cd 2B       		.uleb128 0x2b
 15269 21ce AD1F0000 		.4byte	.LASF475
 15270 21d2 01       		.byte	0x1
 15271 21d3 E405     		.2byte	0x5e4
 15272 21d5 AB0F0000 		.4byte	0xfab
ARM GAS  C:\Users\RECEPC~1\AppData\Local\Temp\ccNQP0pp.s 			page 317


 15273 21d9 02       		.uleb128 0x2
 15274 21da 91       		.byte	0x91
 15275 21db 74       		.sleb128 -12
 15276 21dc 00       		.byte	0
 15277 21dd 29       		.uleb128 0x29
 15278 21de C81B0000 		.4byte	.LASF527
 15279 21e2 01       		.byte	0x1
 15280 21e3 EE05     		.2byte	0x5ee
 15281 21e5 00000000 		.4byte	.LFB97
 15282 21e9 E6000000 		.4byte	.LFE97-.LFB97
 15283 21ed 01       		.uleb128 0x1
 15284 21ee 9C       		.byte	0x9c
 15285 21ef 3A220000 		.4byte	0x223a
 15286 21f3 2A       		.uleb128 0x2a
 15287 21f4 0F240000 		.4byte	.LASF479
 15288 21f8 01       		.byte	0x1
 15289 21f9 EE05     		.2byte	0x5ee
 15290 21fb 30010000 		.4byte	0x130
 15291 21ff 02       		.uleb128 0x2
 15292 2200 91       		.byte	0x91
 15293 2201 5C       		.sleb128 -36
 15294 2202 2B       		.uleb128 0x2b
 15295 2203 34000000 		.4byte	.LASF501
 15296 2207 01       		.byte	0x1
 15297 2208 F005     		.2byte	0x5f0
 15298 220a 630D0000 		.4byte	0xd63
 15299 220e 02       		.uleb128 0x2
 15300 220f 91       		.byte	0x91
 15301 2210 6C       		.sleb128 -20
 15302 2211 26       		.uleb128 0x26
 15303 2212 12000000 		.4byte	.LBB39
 15304 2216 CE000000 		.4byte	.LBE39-.LBB39
 15305 221a 2B       		.uleb128 0x2b
 15306 221b 28260000 		.4byte	.LASF487
 15307 221f 01       		.byte	0x1
 15308 2220 F305     		.2byte	0x5f3
 15309 2222 81000000 		.4byte	0x81
 15310 2226 02       		.uleb128 0x2
 15311 2227 91       		.byte	0x91
 15312 2228 6B       		.sleb128 -21
 15313 2229 2B       		.uleb128 0x2b
 15314 222a 440D0000 		.4byte	.LASF502
 15315 222e 01       		.byte	0x1
 15316 222f F505     		.2byte	0x5f5
 15317 2231 8B050000 		.4byte	0x58b
 15318 2235 02       		.uleb128 0x2
 15319 2236 91       		.byte	0x91
 15320 2237 64       		.sleb128 -28
 15321 2238 00       		.byte	0
 15322 2239 00       		.byte	0
 15323 223a 29       		.uleb128 0x29
 15324 223b 3C0C0000 		.4byte	.LASF528
 15325 223f 01       		.byte	0x1
 15326 2240 0D06     		.2byte	0x60d
 15327 2242 00000000 		.4byte	.LFB98
 15328 2246 EC000000 		.4byte	.LFE98-.LFB98
 15329 224a 01       		.uleb128 0x1
ARM GAS  C:\Users\RECEPC~1\AppData\Local\Temp\ccNQP0pp.s 			page 318


 15330 224b 9C       		.byte	0x9c
 15331 224c 97220000 		.4byte	0x2297
 15332 2250 2A       		.uleb128 0x2a
 15333 2251 0F240000 		.4byte	.LASF479
 15334 2255 01       		.byte	0x1
 15335 2256 0D06     		.2byte	0x60d
 15336 2258 30010000 		.4byte	0x130
 15337 225c 02       		.uleb128 0x2
 15338 225d 91       		.byte	0x91
 15339 225e 5C       		.sleb128 -36
 15340 225f 2B       		.uleb128 0x2b
 15341 2260 34000000 		.4byte	.LASF501
 15342 2264 01       		.byte	0x1
 15343 2265 0F06     		.2byte	0x60f
 15344 2267 630D0000 		.4byte	0xd63
 15345 226b 02       		.uleb128 0x2
 15346 226c 91       		.byte	0x91
 15347 226d 6C       		.sleb128 -20
 15348 226e 26       		.uleb128 0x26
 15349 226f 12000000 		.4byte	.LBB40
 15350 2273 D4000000 		.4byte	.LBE40-.LBB40
 15351 2277 2B       		.uleb128 0x2b
 15352 2278 28260000 		.4byte	.LASF487
 15353 227c 01       		.byte	0x1
 15354 227d 1206     		.2byte	0x612
 15355 227f 81000000 		.4byte	0x81
 15356 2283 02       		.uleb128 0x2
 15357 2284 91       		.byte	0x91
 15358 2285 6B       		.sleb128 -21
 15359 2286 2B       		.uleb128 0x2b
 15360 2287 440D0000 		.4byte	.LASF502
 15361 228b 01       		.byte	0x1
 15362 228c 1406     		.2byte	0x614
 15363 228e 8B050000 		.4byte	0x58b
 15364 2292 02       		.uleb128 0x2
 15365 2293 91       		.byte	0x91
 15366 2294 64       		.sleb128 -28
 15367 2295 00       		.byte	0
 15368 2296 00       		.byte	0
 15369 2297 29       		.uleb128 0x29
 15370 2298 7B2A0000 		.4byte	.LASF529
 15371 229c 01       		.byte	0x1
 15372 229d 2A06     		.2byte	0x62a
 15373 229f 00000000 		.4byte	.LFB99
 15374 22a3 8E010000 		.4byte	.LFE99-.LFB99
 15375 22a7 01       		.uleb128 0x1
 15376 22a8 9C       		.byte	0x9c
 15377 22a9 1F230000 		.4byte	0x231f
 15378 22ad 2A       		.uleb128 0x2a
 15379 22ae 0F240000 		.4byte	.LASF479
 15380 22b2 01       		.byte	0x1
 15381 22b3 2A06     		.2byte	0x62a
 15382 22b5 11010000 		.4byte	0x111
 15383 22b9 02       		.uleb128 0x2
 15384 22ba 91       		.byte	0x91
 15385 22bb 64       		.sleb128 -28
 15386 22bc 2B       		.uleb128 0x2b
ARM GAS  C:\Users\RECEPC~1\AppData\Local\Temp\ccNQP0pp.s 			page 319


 15387 22bd AD1F0000 		.4byte	.LASF475
 15388 22c1 01       		.byte	0x1
 15389 22c2 2C06     		.2byte	0x62c
 15390 22c4 AB0F0000 		.4byte	0xfab
 15391 22c8 02       		.uleb128 0x2
 15392 22c9 91       		.byte	0x91
 15393 22ca 74       		.sleb128 -12
 15394 22cb 2D       		.uleb128 0x2d
 15395 22cc 84000000 		.4byte	.LBB41
 15396 22d0 38000000 		.4byte	.LBE41-.LBB41
 15397 22d4 E8220000 		.4byte	0x22e8
 15398 22d8 2B       		.uleb128 0x2b
 15399 22d9 D2120000 		.4byte	.LASF530
 15400 22dd 01       		.byte	0x1
 15401 22de 4706     		.2byte	0x647
 15402 22e0 7D020000 		.4byte	0x27d
 15403 22e4 02       		.uleb128 0x2
 15404 22e5 91       		.byte	0x91
 15405 22e6 70       		.sleb128 -16
 15406 22e7 00       		.byte	0
 15407 22e8 2D       		.uleb128 0x2d
 15408 22e9 DA000000 		.4byte	.LBB42
 15409 22ed 60000000 		.4byte	.LBE42-.LBB42
 15410 22f1 05230000 		.4byte	0x2305
 15411 22f5 2B       		.uleb128 0x2b
 15412 22f6 D2120000 		.4byte	.LASF530
 15413 22fa 01       		.byte	0x1
 15414 22fb 5706     		.2byte	0x657
 15415 22fd 7D020000 		.4byte	0x27d
 15416 2301 02       		.uleb128 0x2
 15417 2302 91       		.byte	0x91
 15418 2303 6C       		.sleb128 -20
 15419 2304 00       		.byte	0
 15420 2305 26       		.uleb128 0x26
 15421 2306 3E010000 		.4byte	.LBB43
 15422 230a 4A000000 		.4byte	.LBE43-.LBB43
 15423 230e 2B       		.uleb128 0x2b
 15424 230f D2120000 		.4byte	.LASF530
 15425 2313 01       		.byte	0x1
 15426 2314 6E06     		.2byte	0x66e
 15427 2316 7D020000 		.4byte	0x27d
 15428 231a 02       		.uleb128 0x2
 15429 231b 91       		.byte	0x91
 15430 231c 68       		.sleb128 -24
 15431 231d 00       		.byte	0
 15432 231e 00       		.byte	0
 15433 231f 29       		.uleb128 0x29
 15434 2320 9E000000 		.4byte	.LASF531
 15435 2324 01       		.byte	0x1
 15436 2325 8106     		.2byte	0x681
 15437 2327 00000000 		.4byte	.LFB100
 15438 232b 38100000 		.4byte	.LFE100-.LFB100
 15439 232f 01       		.uleb128 0x1
 15440 2330 9C       		.byte	0x9c
 15441 2331 C2230000 		.4byte	0x23c2
 15442 2335 2A       		.uleb128 0x2a
 15443 2336 0F240000 		.4byte	.LASF479
ARM GAS  C:\Users\RECEPC~1\AppData\Local\Temp\ccNQP0pp.s 			page 320


 15444 233a 01       		.byte	0x1
 15445 233b 8106     		.2byte	0x681
 15446 233d 11010000 		.4byte	0x111
 15447 2341 02       		.uleb128 0x2
 15448 2342 91       		.byte	0x91
 15449 2343 54       		.sleb128 -44
 15450 2344 2B       		.uleb128 0x2b
 15451 2345 AD1F0000 		.4byte	.LASF475
 15452 2349 01       		.byte	0x1
 15453 234a 8306     		.2byte	0x683
 15454 234c AB0F0000 		.4byte	0xfab
 15455 2350 02       		.uleb128 0x2
 15456 2351 91       		.byte	0x91
 15457 2352 68       		.sleb128 -24
 15458 2353 26       		.uleb128 0x26
 15459 2354 14000000 		.4byte	.LBB44
 15460 2358 18100000 		.4byte	.LBE44-.LBB44
 15461 235c 2B       		.uleb128 0x2b
 15462 235d 28260000 		.4byte	.LASF487
 15463 2361 01       		.byte	0x1
 15464 2362 8606     		.2byte	0x686
 15465 2364 97000000 		.4byte	0x97
 15466 2368 02       		.uleb128 0x2
 15467 2369 91       		.byte	0x91
 15468 236a 67       		.sleb128 -25
 15469 236b 26       		.uleb128 0x26
 15470 236c 34000000 		.4byte	.LBB45
 15471 2370 F80F0000 		.4byte	.LBE45-.LBB45
 15472 2374 2B       		.uleb128 0x2b
 15473 2375 85290000 		.4byte	.LASF532
 15474 2379 01       		.byte	0x1
 15475 237a 9006     		.2byte	0x690
 15476 237c 54020000 		.4byte	0x254
 15477 2380 02       		.uleb128 0x2
 15478 2381 91       		.byte	0x91
 15479 2382 6F       		.sleb128 -17
 15480 2383 2B       		.uleb128 0x2b
 15481 2384 5E2A0000 		.4byte	.LASF533
 15482 2388 01       		.byte	0x1
 15483 2389 9106     		.2byte	0x691
 15484 238b A3000000 		.4byte	0xa3
 15485 238f 02       		.uleb128 0x2
 15486 2390 91       		.byte	0x91
 15487 2391 6C       		.sleb128 -20
 15488 2392 2B       		.uleb128 0x2b
 15489 2393 69190000 		.4byte	.LASF534
 15490 2397 01       		.byte	0x1
 15491 2398 B106     		.2byte	0x6b1
 15492 239a 7B070000 		.4byte	0x77b
 15493 239e 02       		.uleb128 0x2
 15494 239f 91       		.byte	0x91
 15495 23a0 60       		.sleb128 -32
 15496 23a1 2B       		.uleb128 0x2b
 15497 23a2 451C0000 		.4byte	.LASF535
 15498 23a6 01       		.byte	0x1
 15499 23a7 B306     		.2byte	0x6b3
 15500 23a9 97000000 		.4byte	0x97
ARM GAS  C:\Users\RECEPC~1\AppData\Local\Temp\ccNQP0pp.s 			page 321


 15501 23ad 02       		.uleb128 0x2
 15502 23ae 91       		.byte	0x91
 15503 23af 5F       		.sleb128 -33
 15504 23b0 2B       		.uleb128 0x2b
 15505 23b1 D2120000 		.4byte	.LASF530
 15506 23b5 01       		.byte	0x1
 15507 23b6 9607     		.2byte	0x796
 15508 23b8 7D020000 		.4byte	0x27d
 15509 23bc 02       		.uleb128 0x2
 15510 23bd 91       		.byte	0x91
 15511 23be 58       		.sleb128 -40
 15512 23bf 00       		.byte	0
 15513 23c0 00       		.byte	0
 15514 23c1 00       		.byte	0
 15515 23c2 2C       		.uleb128 0x2c
 15516 23c3 85110000 		.4byte	.LASF536
 15517 23c7 01       		.byte	0x1
 15518 23c8 AD07     		.2byte	0x7ad
 15519 23ca 00000000 		.4byte	.LFB101
 15520 23ce E4010000 		.4byte	.LFE101-.LFB101
 15521 23d2 01       		.uleb128 0x1
 15522 23d3 9C       		.byte	0x9c
 15523 23d4 F7230000 		.4byte	0x23f7
 15524 23d8 2A       		.uleb128 0x2a
 15525 23d9 0F240000 		.4byte	.LASF479
 15526 23dd 01       		.byte	0x1
 15527 23de AD07     		.2byte	0x7ad
 15528 23e0 30010000 		.4byte	0x130
 15529 23e4 02       		.uleb128 0x2
 15530 23e5 91       		.byte	0x91
 15531 23e6 6C       		.sleb128 -20
 15532 23e7 2B       		.uleb128 0x2b
 15533 23e8 0A180000 		.4byte	.LASF537
 15534 23ec 01       		.byte	0x1
 15535 23ed AF07     		.2byte	0x7af
 15536 23ef 7B070000 		.4byte	0x77b
 15537 23f3 02       		.uleb128 0x2
 15538 23f4 91       		.byte	0x91
 15539 23f5 74       		.sleb128 -12
 15540 23f6 00       		.byte	0
 15541 23f7 2E       		.uleb128 0x2e
 15542 23f8 06140000 		.4byte	.LASF548
 15543 23fc 01       		.byte	0x1
 15544 23fd 2F08     		.2byte	0x82f
 15545 23ff 54020000 		.4byte	0x254
 15546 2403 00000000 		.4byte	.LFB102
 15547 2407 24010000 		.4byte	.LFE102-.LFB102
 15548 240b 01       		.uleb128 0x1
 15549 240c 9C       		.byte	0x9c
 15550 240d 92240000 		.4byte	0x2492
 15551 2411 2A       		.uleb128 0x2a
 15552 2412 0F240000 		.4byte	.LASF479
 15553 2416 01       		.byte	0x1
 15554 2417 2F08     		.2byte	0x82f
 15555 2419 11010000 		.4byte	0x111
 15556 241d 02       		.uleb128 0x2
 15557 241e 91       		.byte	0x91
ARM GAS  C:\Users\RECEPC~1\AppData\Local\Temp\ccNQP0pp.s 			page 322


 15558 241f 64       		.sleb128 -28
 15559 2420 2A       		.uleb128 0x2a
 15560 2421 B40F0000 		.4byte	.LASF538
 15561 2425 01       		.byte	0x1
 15562 2426 2F08     		.2byte	0x82f
 15563 2428 11010000 		.4byte	0x111
 15564 242c 02       		.uleb128 0x2
 15565 242d 91       		.byte	0x91
 15566 242e 60       		.sleb128 -32
 15567 242f 2A       		.uleb128 0x2a
 15568 2430 BB1A0000 		.4byte	.LASF539
 15569 2434 01       		.byte	0x1
 15570 2435 2F08     		.2byte	0x82f
 15571 2437 A3000000 		.4byte	0xa3
 15572 243b 02       		.uleb128 0x2
 15573 243c 91       		.byte	0x91
 15574 243d 5E       		.sleb128 -34
 15575 243e 2B       		.uleb128 0x2b
 15576 243f 63160000 		.4byte	.LASF540
 15577 2443 01       		.byte	0x1
 15578 2444 3108     		.2byte	0x831
 15579 2446 54020000 		.4byte	0x254
 15580 244a 02       		.uleb128 0x2
 15581 244b 91       		.byte	0x91
 15582 244c 6F       		.sleb128 -17
 15583 244d 2B       		.uleb128 0x2b
 15584 244e 28260000 		.4byte	.LASF487
 15585 2452 01       		.byte	0x1
 15586 2453 3208     		.2byte	0x832
 15587 2455 97000000 		.4byte	0x97
 15588 2459 05       		.uleb128 0x5
 15589 245a 03       		.byte	0x3
 15590 245b 00000000 		.4byte	index.9618
 15591 245f 26       		.uleb128 0x26
 15592 2460 34000000 		.4byte	.LBB46
 15593 2464 E2000000 		.4byte	.LBE46-.LBB46
 15594 2468 2B       		.uleb128 0x2b
 15595 2469 2B1B0000 		.4byte	.LASF541
 15596 246d 01       		.byte	0x1
 15597 246e 3A08     		.2byte	0x83a
 15598 2470 97000000 		.4byte	0x97
 15599 2474 02       		.uleb128 0x2
 15600 2475 91       		.byte	0x91
 15601 2476 6E       		.sleb128 -18
 15602 2477 26       		.uleb128 0x26
 15603 2478 A6000000 		.4byte	.LBB47
 15604 247c 70000000 		.4byte	.LBE47-.LBB47
 15605 2480 2B       		.uleb128 0x2b
 15606 2481 FA1C0000 		.4byte	.LASF542
 15607 2485 01       		.byte	0x1
 15608 2486 4108     		.2byte	0x841
 15609 2488 97000000 		.4byte	0x97
 15610 248c 02       		.uleb128 0x2
 15611 248d 91       		.byte	0x91
 15612 248e 6D       		.sleb128 -19
 15613 248f 00       		.byte	0
 15614 2490 00       		.byte	0
ARM GAS  C:\Users\RECEPC~1\AppData\Local\Temp\ccNQP0pp.s 			page 323


 15615 2491 00       		.byte	0
 15616 2492 29       		.uleb128 0x29
 15617 2493 1D090000 		.4byte	.LASF543
 15618 2497 01       		.byte	0x1
 15619 2498 5008     		.2byte	0x850
 15620 249a 00000000 		.4byte	.LFB103
 15621 249e 60000000 		.4byte	.LFE103-.LFB103
 15622 24a2 01       		.uleb128 0x1
 15623 24a3 9C       		.byte	0x9c
 15624 24a4 EF240000 		.4byte	0x24ef
 15625 24a8 2A       		.uleb128 0x2a
 15626 24a9 0F240000 		.4byte	.LASF479
 15627 24ad 01       		.byte	0x1
 15628 24ae 5008     		.2byte	0x850
 15629 24b0 30010000 		.4byte	0x130
 15630 24b4 02       		.uleb128 0x2
 15631 24b5 91       		.byte	0x91
 15632 24b6 64       		.sleb128 -28
 15633 24b7 2B       		.uleb128 0x2b
 15634 24b8 34000000 		.4byte	.LASF501
 15635 24bc 01       		.byte	0x1
 15636 24bd 5208     		.2byte	0x852
 15637 24bf 630D0000 		.4byte	0xd63
 15638 24c3 02       		.uleb128 0x2
 15639 24c4 91       		.byte	0x91
 15640 24c5 74       		.sleb128 -12
 15641 24c6 26       		.uleb128 0x26
 15642 24c7 12000000 		.4byte	.LBB48
 15643 24cb 48000000 		.4byte	.LBE48-.LBB48
 15644 24cf 2B       		.uleb128 0x2b
 15645 24d0 28260000 		.4byte	.LASF487
 15646 24d4 01       		.byte	0x1
 15647 24d5 5508     		.2byte	0x855
 15648 24d7 81000000 		.4byte	0x81
 15649 24db 02       		.uleb128 0x2
 15650 24dc 91       		.byte	0x91
 15651 24dd 73       		.sleb128 -13
 15652 24de 2B       		.uleb128 0x2b
 15653 24df 440D0000 		.4byte	.LASF502
 15654 24e3 01       		.byte	0x1
 15655 24e4 5708     		.2byte	0x857
 15656 24e6 8B050000 		.4byte	0x58b
 15657 24ea 02       		.uleb128 0x2
 15658 24eb 91       		.byte	0x91
 15659 24ec 6C       		.sleb128 -20
 15660 24ed 00       		.byte	0
 15661 24ee 00       		.byte	0
 15662 24ef 29       		.uleb128 0x29
 15663 24f0 CF150000 		.4byte	.LASF544
 15664 24f4 01       		.byte	0x1
 15665 24f5 6308     		.2byte	0x863
 15666 24f7 00000000 		.4byte	.LFB104
 15667 24fb 40020000 		.4byte	.LFE104-.LFB104
 15668 24ff 01       		.uleb128 0x1
 15669 2500 9C       		.byte	0x9c
 15670 2501 A4250000 		.4byte	0x25a4
 15671 2505 2A       		.uleb128 0x2a
ARM GAS  C:\Users\RECEPC~1\AppData\Local\Temp\ccNQP0pp.s 			page 324


 15672 2506 0F240000 		.4byte	.LASF479
 15673 250a 01       		.byte	0x1
 15674 250b 6308     		.2byte	0x863
 15675 250d 30010000 		.4byte	0x130
 15676 2511 02       		.uleb128 0x2
 15677 2512 91       		.byte	0x91
 15678 2513 64       		.sleb128 -28
 15679 2514 2B       		.uleb128 0x2b
 15680 2515 AD1F0000 		.4byte	.LASF475
 15681 2519 01       		.byte	0x1
 15682 251a 6608     		.2byte	0x866
 15683 251c AB0F0000 		.4byte	0xfab
 15684 2520 02       		.uleb128 0x2
 15685 2521 91       		.byte	0x91
 15686 2522 74       		.sleb128 -12
 15687 2523 2D       		.uleb128 0x2d
 15688 2524 48000000 		.4byte	.LBB49
 15689 2528 6C000000 		.4byte	.LBE49-.LBB49
 15690 252c 4F250000 		.4byte	0x254f
 15691 2530 2B       		.uleb128 0x2b
 15692 2531 4F0F0000 		.4byte	.LASF545
 15693 2535 01       		.byte	0x1
 15694 2536 7408     		.2byte	0x874
 15695 2538 97000000 		.4byte	0x97
 15696 253c 02       		.uleb128 0x2
 15697 253d 91       		.byte	0x91
 15698 253e 73       		.sleb128 -13
 15699 253f 2B       		.uleb128 0x2b
 15700 2540 A70F0000 		.4byte	.LASF546
 15701 2544 01       		.byte	0x1
 15702 2545 7508     		.2byte	0x875
 15703 2547 97000000 		.4byte	0x97
 15704 254b 02       		.uleb128 0x2
 15705 254c 91       		.byte	0x91
 15706 254d 72       		.sleb128 -14
 15707 254e 00       		.byte	0
 15708 254f 2D       		.uleb128 0x2d
 15709 2550 B4000000 		.4byte	.LBB50
 15710 2554 6C000000 		.4byte	.LBE50-.LBB50
 15711 2558 7B250000 		.4byte	0x257b
 15712 255c 2B       		.uleb128 0x2b
 15713 255d 4F0F0000 		.4byte	.LASF545
 15714 2561 01       		.byte	0x1
 15715 2562 8608     		.2byte	0x886
 15716 2564 97000000 		.4byte	0x97
 15717 2568 02       		.uleb128 0x2
 15718 2569 91       		.byte	0x91
 15719 256a 71       		.sleb128 -15
 15720 256b 2B       		.uleb128 0x2b
 15721 256c A70F0000 		.4byte	.LASF546
 15722 2570 01       		.byte	0x1
 15723 2571 8708     		.2byte	0x887
 15724 2573 97000000 		.4byte	0x97
 15725 2577 02       		.uleb128 0x2
 15726 2578 91       		.byte	0x91
 15727 2579 70       		.sleb128 -16
 15728 257a 00       		.byte	0
ARM GAS  C:\Users\RECEPC~1\AppData\Local\Temp\ccNQP0pp.s 			page 325


 15729 257b 26       		.uleb128 0x26
 15730 257c 20010000 		.4byte	.LBB51
 15731 2580 6C000000 		.4byte	.LBE51-.LBB51
 15732 2584 2B       		.uleb128 0x2b
 15733 2585 4F0F0000 		.4byte	.LASF545
 15734 2589 01       		.byte	0x1
 15735 258a 9808     		.2byte	0x898
 15736 258c 97000000 		.4byte	0x97
 15737 2590 02       		.uleb128 0x2
 15738 2591 91       		.byte	0x91
 15739 2592 6F       		.sleb128 -17
 15740 2593 2B       		.uleb128 0x2b
 15741 2594 A70F0000 		.4byte	.LASF546
 15742 2598 01       		.byte	0x1
 15743 2599 9908     		.2byte	0x899
 15744 259b 97000000 		.4byte	0x97
 15745 259f 02       		.uleb128 0x2
 15746 25a0 91       		.byte	0x91
 15747 25a1 6E       		.sleb128 -18
 15748 25a2 00       		.byte	0
 15749 25a3 00       		.byte	0
 15750 25a4 2C       		.uleb128 0x2c
 15751 25a5 2E0D0000 		.4byte	.LASF547
 15752 25a9 01       		.byte	0x1
 15753 25aa C608     		.2byte	0x8c6
 15754 25ac 00000000 		.4byte	.LFB105
 15755 25b0 6C000000 		.4byte	.LFE105-.LFB105
 15756 25b4 01       		.uleb128 0x1
 15757 25b5 9C       		.byte	0x9c
 15758 25b6 D9250000 		.4byte	0x25d9
 15759 25ba 2A       		.uleb128 0x2a
 15760 25bb 0F240000 		.4byte	.LASF479
 15761 25bf 01       		.byte	0x1
 15762 25c0 C608     		.2byte	0x8c6
 15763 25c2 11010000 		.4byte	0x111
 15764 25c6 02       		.uleb128 0x2
 15765 25c7 91       		.byte	0x91
 15766 25c8 6C       		.sleb128 -20
 15767 25c9 2B       		.uleb128 0x2b
 15768 25ca AD1F0000 		.4byte	.LASF475
 15769 25ce 01       		.byte	0x1
 15770 25cf C808     		.2byte	0x8c8
 15771 25d1 AB0F0000 		.4byte	0xfab
 15772 25d5 02       		.uleb128 0x2
 15773 25d6 91       		.byte	0x91
 15774 25d7 74       		.sleb128 -12
 15775 25d8 00       		.byte	0
 15776 25d9 2F       		.uleb128 0x2f
 15777 25da FD280000 		.4byte	.LASF549
 15778 25de 01       		.byte	0x1
 15779 25df DA08     		.2byte	0x8da
 15780 25e1 54020000 		.4byte	0x254
 15781 25e5 00000000 		.4byte	.LFB106
 15782 25e9 B8000000 		.4byte	.LFE106-.LFB106
 15783 25ed 01       		.uleb128 0x1
 15784 25ee 9C       		.byte	0x9c
 15785 25ef 3F260000 		.4byte	0x263f
ARM GAS  C:\Users\RECEPC~1\AppData\Local\Temp\ccNQP0pp.s 			page 326


 15786 25f3 2A       		.uleb128 0x2a
 15787 25f4 0F240000 		.4byte	.LASF479
 15788 25f8 01       		.byte	0x1
 15789 25f9 DA08     		.2byte	0x8da
 15790 25fb 11010000 		.4byte	0x111
 15791 25ff 02       		.uleb128 0x2
 15792 2600 91       		.byte	0x91
 15793 2601 6C       		.sleb128 -20
 15794 2602 2A       		.uleb128 0x2a
 15795 2603 B40F0000 		.4byte	.LASF538
 15796 2607 01       		.byte	0x1
 15797 2608 DA08     		.2byte	0x8da
 15798 260a 11010000 		.4byte	0x111
 15799 260e 02       		.uleb128 0x2
 15800 260f 91       		.byte	0x91
 15801 2610 68       		.sleb128 -24
 15802 2611 2A       		.uleb128 0x2a
 15803 2612 BB1A0000 		.4byte	.LASF539
 15804 2616 01       		.byte	0x1
 15805 2617 DA08     		.2byte	0x8da
 15806 2619 A3000000 		.4byte	0xa3
 15807 261d 02       		.uleb128 0x2
 15808 261e 91       		.byte	0x91
 15809 261f 66       		.sleb128 -26
 15810 2620 2B       		.uleb128 0x2b
 15811 2621 63160000 		.4byte	.LASF540
 15812 2625 01       		.byte	0x1
 15813 2626 DC08     		.2byte	0x8dc
 15814 2628 54020000 		.4byte	0x254
 15815 262c 02       		.uleb128 0x2
 15816 262d 91       		.byte	0x91
 15817 262e 77       		.sleb128 -9
 15818 262f 2B       		.uleb128 0x2b
 15819 2630 34000000 		.4byte	.LASF501
 15820 2634 01       		.byte	0x1
 15821 2635 DD08     		.2byte	0x8dd
 15822 2637 630D0000 		.4byte	0xd63
 15823 263b 02       		.uleb128 0x2
 15824 263c 91       		.byte	0x91
 15825 263d 70       		.sleb128 -16
 15826 263e 00       		.byte	0
 15827 263f 2C       		.uleb128 0x2c
 15828 2640 A1160000 		.4byte	.LASF550
 15829 2644 01       		.byte	0x1
 15830 2645 F008     		.2byte	0x8f0
 15831 2647 00000000 		.4byte	.LFB107
 15832 264b 98000000 		.4byte	.LFE107-.LFB107
 15833 264f 01       		.uleb128 0x1
 15834 2650 9C       		.byte	0x9c
 15835 2651 74260000 		.4byte	0x2674
 15836 2655 2A       		.uleb128 0x2a
 15837 2656 0F240000 		.4byte	.LASF479
 15838 265a 01       		.byte	0x1
 15839 265b F008     		.2byte	0x8f0
 15840 265d 11010000 		.4byte	0x111
 15841 2661 02       		.uleb128 0x2
 15842 2662 91       		.byte	0x91
ARM GAS  C:\Users\RECEPC~1\AppData\Local\Temp\ccNQP0pp.s 			page 327


 15843 2663 6C       		.sleb128 -20
 15844 2664 2B       		.uleb128 0x2b
 15845 2665 AD1F0000 		.4byte	.LASF475
 15846 2669 01       		.byte	0x1
 15847 266a F208     		.2byte	0x8f2
 15848 266c AB0F0000 		.4byte	0xfab
 15849 2670 02       		.uleb128 0x2
 15850 2671 91       		.byte	0x91
 15851 2672 74       		.sleb128 -12
 15852 2673 00       		.byte	0
 15853 2674 29       		.uleb128 0x29
 15854 2675 0C160000 		.4byte	.LASF551
 15855 2679 01       		.byte	0x1
 15856 267a 0D09     		.2byte	0x90d
 15857 267c 00000000 		.4byte	.LFB108
 15858 2680 AC000000 		.4byte	.LFE108-.LFB108
 15859 2684 01       		.uleb128 0x1
 15860 2685 9C       		.byte	0x9c
 15861 2686 EA260000 		.4byte	0x26ea
 15862 268a 2A       		.uleb128 0x2a
 15863 268b 0F240000 		.4byte	.LASF479
 15864 268f 01       		.byte	0x1
 15865 2690 0D09     		.2byte	0x90d
 15866 2692 30010000 		.4byte	0x130
 15867 2696 02       		.uleb128 0x2
 15868 2697 91       		.byte	0x91
 15869 2698 64       		.sleb128 -28
 15870 2699 2B       		.uleb128 0x2b
 15871 269a 34000000 		.4byte	.LASF501
 15872 269e 01       		.byte	0x1
 15873 269f 0F09     		.2byte	0x90f
 15874 26a1 630D0000 		.4byte	0xd63
 15875 26a5 02       		.uleb128 0x2
 15876 26a6 91       		.byte	0x91
 15877 26a7 70       		.sleb128 -16
 15878 26a8 2B       		.uleb128 0x2b
 15879 26a9 5E260000 		.4byte	.LASF552
 15880 26ad 01       		.byte	0x1
 15881 26ae 1009     		.2byte	0x910
 15882 26b0 7D020000 		.4byte	0x27d
 15883 26b4 02       		.uleb128 0x2
 15884 26b5 91       		.byte	0x91
 15885 26b6 6C       		.sleb128 -20
 15886 26b7 26       		.uleb128 0x26
 15887 26b8 16000000 		.4byte	.LBB52
 15888 26bc 86000000 		.4byte	.LBE52-.LBB52
 15889 26c0 2B       		.uleb128 0x2b
 15890 26c1 56120000 		.4byte	.LASF553
 15891 26c5 01       		.byte	0x1
 15892 26c6 1509     		.2byte	0x915
 15893 26c8 930F0000 		.4byte	0xf93
 15894 26cc 02       		.uleb128 0x2
 15895 26cd 91       		.byte	0x91
 15896 26ce 74       		.sleb128 -12
 15897 26cf 26       		.uleb128 0x26
 15898 26d0 38000000 		.4byte	.LBB53
 15899 26d4 5C000000 		.4byte	.LBE53-.LBB53
ARM GAS  C:\Users\RECEPC~1\AppData\Local\Temp\ccNQP0pp.s 			page 328


 15900 26d8 2B       		.uleb128 0x2b
 15901 26d9 FE0C0000 		.4byte	.LASF554
 15902 26dd 01       		.byte	0x1
 15903 26de 1A09     		.2byte	0x91a
 15904 26e0 AB0F0000 		.4byte	0xfab
 15905 26e4 02       		.uleb128 0x2
 15906 26e5 91       		.byte	0x91
 15907 26e6 68       		.sleb128 -24
 15908 26e7 00       		.byte	0
 15909 26e8 00       		.byte	0
 15910 26e9 00       		.byte	0
 15911 26ea 29       		.uleb128 0x29
 15912 26eb 6B210000 		.4byte	.LASF555
 15913 26ef 01       		.byte	0x1
 15914 26f0 2E09     		.2byte	0x92e
 15915 26f2 00000000 		.4byte	.LFB109
 15916 26f6 88000000 		.4byte	.LFE109-.LFB109
 15917 26fa 01       		.uleb128 0x1
 15918 26fb 9C       		.byte	0x9c
 15919 26fc 47270000 		.4byte	0x2747
 15920 2700 2A       		.uleb128 0x2a
 15921 2701 0F240000 		.4byte	.LASF479
 15922 2705 01       		.byte	0x1
 15923 2706 2E09     		.2byte	0x92e
 15924 2708 30010000 		.4byte	0x130
 15925 270c 02       		.uleb128 0x2
 15926 270d 91       		.byte	0x91
 15927 270e 64       		.sleb128 -28
 15928 270f 2B       		.uleb128 0x2b
 15929 2710 34000000 		.4byte	.LASF501
 15930 2714 01       		.byte	0x1
 15931 2715 3009     		.2byte	0x930
 15932 2717 630D0000 		.4byte	0xd63
 15933 271b 02       		.uleb128 0x2
 15934 271c 91       		.byte	0x91
 15935 271d 70       		.sleb128 -16
 15936 271e 2B       		.uleb128 0x2b
 15937 271f 56120000 		.4byte	.LASF553
 15938 2723 01       		.byte	0x1
 15939 2724 3209     		.2byte	0x932
 15940 2726 930F0000 		.4byte	0xf93
 15941 272a 02       		.uleb128 0x2
 15942 272b 91       		.byte	0x91
 15943 272c 74       		.sleb128 -12
 15944 272d 26       		.uleb128 0x26
 15945 272e 28000000 		.4byte	.LBB54
 15946 2732 4C000000 		.4byte	.LBE54-.LBB54
 15947 2736 2B       		.uleb128 0x2b
 15948 2737 FE0C0000 		.4byte	.LASF554
 15949 273b 01       		.byte	0x1
 15950 273c 3709     		.2byte	0x937
 15951 273e AB0F0000 		.4byte	0xfab
 15952 2742 02       		.uleb128 0x2
 15953 2743 91       		.byte	0x91
 15954 2744 6C       		.sleb128 -20
 15955 2745 00       		.byte	0
 15956 2746 00       		.byte	0
ARM GAS  C:\Users\RECEPC~1\AppData\Local\Temp\ccNQP0pp.s 			page 329


 15957 2747 2F       		.uleb128 0x2f
 15958 2748 02170000 		.4byte	.LASF556
 15959 274c 01       		.byte	0x1
 15960 274d 5109     		.2byte	0x951
 15961 274f 81000000 		.4byte	0x81
 15962 2753 00000000 		.4byte	.LFB110
 15963 2757 5E000000 		.4byte	.LFE110-.LFB110
 15964 275b 01       		.uleb128 0x1
 15965 275c 9C       		.byte	0x9c
 15966 275d 80270000 		.4byte	0x2780
 15967 2761 2A       		.uleb128 0x2a
 15968 2762 9E0B0000 		.4byte	.LASF557
 15969 2766 01       		.byte	0x1
 15970 2767 5109     		.2byte	0x951
 15971 2769 3B010000 		.4byte	0x13b
 15972 276d 02       		.uleb128 0x2
 15973 276e 91       		.byte	0x91
 15974 276f 6C       		.sleb128 -20
 15975 2770 28       		.uleb128 0x28
 15976 2771 6C726300 		.ascii	"lrc\000"
 15977 2775 01       		.byte	0x1
 15978 2776 5309     		.2byte	0x953
 15979 2778 81000000 		.4byte	0x81
 15980 277c 02       		.uleb128 0x2
 15981 277d 91       		.byte	0x91
 15982 277e 77       		.sleb128 -9
 15983 277f 00       		.byte	0
 15984 2780 2F       		.uleb128 0x2f
 15985 2781 94120000 		.4byte	.LASF558
 15986 2785 01       		.byte	0x1
 15987 2786 5D09     		.2byte	0x95d
 15988 2788 81000000 		.4byte	0x81
 15989 278c 00000000 		.4byte	.LFB111
 15990 2790 2E000000 		.4byte	.LFE111-.LFB111
 15991 2794 01       		.uleb128 0x1
 15992 2795 9C       		.byte	0x9c
 15993 2796 AA270000 		.4byte	0x27aa
 15994 279a 2A       		.uleb128 0x2a
 15995 279b 9E0B0000 		.4byte	.LASF557
 15996 279f 01       		.byte	0x1
 15997 27a0 5D09     		.2byte	0x95d
 15998 27a2 3B010000 		.4byte	0x13b
 15999 27a6 02       		.uleb128 0x2
 16000 27a7 91       		.byte	0x91
 16001 27a8 74       		.sleb128 -12
 16002 27a9 00       		.byte	0
 16003 27aa 2C       		.uleb128 0x2c
 16004 27ab 4F140000 		.4byte	.LASF559
 16005 27af 01       		.byte	0x1
 16006 27b0 6809     		.2byte	0x968
 16007 27b2 00000000 		.4byte	.LFB112
 16008 27b6 2C000000 		.4byte	.LFE112-.LFB112
 16009 27ba 01       		.uleb128 0x1
 16010 27bb 9C       		.byte	0x9c
 16011 27bc DF270000 		.4byte	0x27df
 16012 27c0 2A       		.uleb128 0x2a
 16013 27c1 0F240000 		.4byte	.LASF479
ARM GAS  C:\Users\RECEPC~1\AppData\Local\Temp\ccNQP0pp.s 			page 330


 16014 27c5 01       		.byte	0x1
 16015 27c6 6809     		.2byte	0x968
 16016 27c8 11010000 		.4byte	0x111
 16017 27cc 02       		.uleb128 0x2
 16018 27cd 91       		.byte	0x91
 16019 27ce 6C       		.sleb128 -20
 16020 27cf 2B       		.uleb128 0x2b
 16021 27d0 AD1F0000 		.4byte	.LASF475
 16022 27d4 01       		.byte	0x1
 16023 27d5 6A09     		.2byte	0x96a
 16024 27d7 68100000 		.4byte	0x1068
 16025 27db 02       		.uleb128 0x2
 16026 27dc 91       		.byte	0x91
 16027 27dd 74       		.sleb128 -12
 16028 27de 00       		.byte	0
 16029 27df 2C       		.uleb128 0x2c
 16030 27e0 5D150000 		.4byte	.LASF560
 16031 27e4 01       		.byte	0x1
 16032 27e5 7409     		.2byte	0x974
 16033 27e7 00000000 		.4byte	.LFB113
 16034 27eb 2C000000 		.4byte	.LFE113-.LFB113
 16035 27ef 01       		.uleb128 0x1
 16036 27f0 9C       		.byte	0x9c
 16037 27f1 14280000 		.4byte	0x2814
 16038 27f5 2A       		.uleb128 0x2a
 16039 27f6 0F240000 		.4byte	.LASF479
 16040 27fa 01       		.byte	0x1
 16041 27fb 7409     		.2byte	0x974
 16042 27fd 11010000 		.4byte	0x111
 16043 2801 02       		.uleb128 0x2
 16044 2802 91       		.byte	0x91
 16045 2803 6C       		.sleb128 -20
 16046 2804 2B       		.uleb128 0x2b
 16047 2805 AD1F0000 		.4byte	.LASF475
 16048 2809 01       		.byte	0x1
 16049 280a 7609     		.2byte	0x976
 16050 280c AB0F0000 		.4byte	0xfab
 16051 2810 02       		.uleb128 0x2
 16052 2811 91       		.byte	0x91
 16053 2812 74       		.sleb128 -12
 16054 2813 00       		.byte	0
 16055 2814 29       		.uleb128 0x29
 16056 2815 CF190000 		.4byte	.LASF561
 16057 2819 01       		.byte	0x1
 16058 281a 7F09     		.2byte	0x97f
 16059 281c 00000000 		.4byte	.LFB114
 16060 2820 08020000 		.4byte	.LFE114-.LFB114
 16061 2824 01       		.uleb128 0x1
 16062 2825 9C       		.byte	0x9c
 16063 2826 62280000 		.4byte	0x2862
 16064 282a 2A       		.uleb128 0x2a
 16065 282b 0F240000 		.4byte	.LASF479
 16066 282f 01       		.byte	0x1
 16067 2830 7F09     		.2byte	0x97f
 16068 2832 11010000 		.4byte	0x111
 16069 2836 02       		.uleb128 0x2
 16070 2837 91       		.byte	0x91
ARM GAS  C:\Users\RECEPC~1\AppData\Local\Temp\ccNQP0pp.s 			page 331


 16071 2838 64       		.sleb128 -28
 16072 2839 2B       		.uleb128 0x2b
 16073 283a AD1F0000 		.4byte	.LASF475
 16074 283e 01       		.byte	0x1
 16075 283f 8109     		.2byte	0x981
 16076 2841 AB0F0000 		.4byte	0xfab
 16077 2845 02       		.uleb128 0x2
 16078 2846 91       		.byte	0x91
 16079 2847 6C       		.sleb128 -20
 16080 2848 26       		.uleb128 0x26
 16081 2849 3C000000 		.4byte	.LBB55
 16082 284d BE010000 		.4byte	.LBE55-.LBB55
 16083 2851 2B       		.uleb128 0x2b
 16084 2852 D2120000 		.4byte	.LASF530
 16085 2856 01       		.byte	0x1
 16086 2857 8A09     		.2byte	0x98a
 16087 2859 7D020000 		.4byte	0x27d
 16088 285d 02       		.uleb128 0x2
 16089 285e 91       		.byte	0x91
 16090 285f 68       		.sleb128 -24
 16091 2860 00       		.byte	0
 16092 2861 00       		.byte	0
 16093 2862 2C       		.uleb128 0x2c
 16094 2863 EC0D0000 		.4byte	.LASF562
 16095 2867 01       		.byte	0x1
 16096 2868 D509     		.2byte	0x9d5
 16097 286a 00000000 		.4byte	.LFB115
 16098 286e 64010000 		.4byte	.LFE115-.LFB115
 16099 2872 01       		.uleb128 0x1
 16100 2873 9C       		.byte	0x9c
 16101 2874 D3280000 		.4byte	0x28d3
 16102 2878 2A       		.uleb128 0x2a
 16103 2879 B40F0000 		.4byte	.LASF538
 16104 287d 01       		.byte	0x1
 16105 287e D509     		.2byte	0x9d5
 16106 2880 3B010000 		.4byte	0x13b
 16107 2884 02       		.uleb128 0x2
 16108 2885 91       		.byte	0x91
 16109 2886 6C       		.sleb128 -20
 16110 2887 2A       		.uleb128 0x2a
 16111 2888 BB1A0000 		.4byte	.LASF539
 16112 288c 01       		.byte	0x1
 16113 288d D509     		.2byte	0x9d5
 16114 288f 97000000 		.4byte	0x97
 16115 2893 02       		.uleb128 0x2
 16116 2894 91       		.byte	0x91
 16117 2895 6B       		.sleb128 -21
 16118 2896 2B       		.uleb128 0x2b
 16119 2897 C61A0000 		.4byte	.LASF563
 16120 289b 01       		.byte	0x1
 16121 289c D709     		.2byte	0x9d7
 16122 289e 97000000 		.4byte	0x97
 16123 28a2 02       		.uleb128 0x2
 16124 28a3 91       		.byte	0x91
 16125 28a4 77       		.sleb128 -9
 16126 28a5 2B       		.uleb128 0x2b
 16127 28a6 21110000 		.4byte	.LASF564
ARM GAS  C:\Users\RECEPC~1\AppData\Local\Temp\ccNQP0pp.s 			page 332


 16128 28aa 01       		.byte	0x1
 16129 28ab D809     		.2byte	0x9d8
 16130 28ad 54020000 		.4byte	0x254
 16131 28b1 02       		.uleb128 0x2
 16132 28b2 91       		.byte	0x91
 16133 28b3 76       		.sleb128 -10
 16134 28b4 2B       		.uleb128 0x2b
 16135 28b5 28260000 		.4byte	.LASF487
 16136 28b9 01       		.byte	0x1
 16137 28ba DA09     		.2byte	0x9da
 16138 28bc BB000000 		.4byte	0xbb
 16139 28c0 02       		.uleb128 0x2
 16140 28c1 91       		.byte	0x91
 16141 28c2 75       		.sleb128 -11
 16142 28c3 2B       		.uleb128 0x2b
 16143 28c4 E6130000 		.4byte	.LASF565
 16144 28c8 01       		.byte	0x1
 16145 28c9 EA09     		.2byte	0x9ea
 16146 28cb BB000000 		.4byte	0xbb
 16147 28cf 02       		.uleb128 0x2
 16148 28d0 91       		.byte	0x91
 16149 28d1 74       		.sleb128 -12
 16150 28d2 00       		.byte	0
 16151 28d3 2C       		.uleb128 0x2c
 16152 28d4 2A270000 		.4byte	.LASF566
 16153 28d8 01       		.byte	0x1
 16154 28d9 0D0A     		.2byte	0xa0d
 16155 28db 00000000 		.4byte	.LFB116
 16156 28df 64010000 		.4byte	.LFE116-.LFB116
 16157 28e3 01       		.uleb128 0x1
 16158 28e4 9C       		.byte	0x9c
 16159 28e5 44290000 		.4byte	0x2944
 16160 28e9 2A       		.uleb128 0x2a
 16161 28ea B40F0000 		.4byte	.LASF538
 16162 28ee 01       		.byte	0x1
 16163 28ef 0D0A     		.2byte	0xa0d
 16164 28f1 3B010000 		.4byte	0x13b
 16165 28f5 02       		.uleb128 0x2
 16166 28f6 91       		.byte	0x91
 16167 28f7 6C       		.sleb128 -20
 16168 28f8 2A       		.uleb128 0x2a
 16169 28f9 BB1A0000 		.4byte	.LASF539
 16170 28fd 01       		.byte	0x1
 16171 28fe 0D0A     		.2byte	0xa0d
 16172 2900 97000000 		.4byte	0x97
 16173 2904 02       		.uleb128 0x2
 16174 2905 91       		.byte	0x91
 16175 2906 6B       		.sleb128 -21
 16176 2907 2B       		.uleb128 0x2b
 16177 2908 C61A0000 		.4byte	.LASF563
 16178 290c 01       		.byte	0x1
 16179 290d 0F0A     		.2byte	0xa0f
 16180 290f 97000000 		.4byte	0x97
 16181 2913 02       		.uleb128 0x2
 16182 2914 91       		.byte	0x91
 16183 2915 77       		.sleb128 -9
 16184 2916 2B       		.uleb128 0x2b
ARM GAS  C:\Users\RECEPC~1\AppData\Local\Temp\ccNQP0pp.s 			page 333


 16185 2917 21110000 		.4byte	.LASF564
 16186 291b 01       		.byte	0x1
 16187 291c 100A     		.2byte	0xa10
 16188 291e 54020000 		.4byte	0x254
 16189 2922 02       		.uleb128 0x2
 16190 2923 91       		.byte	0x91
 16191 2924 76       		.sleb128 -10
 16192 2925 2B       		.uleb128 0x2b
 16193 2926 28260000 		.4byte	.LASF487
 16194 292a 01       		.byte	0x1
 16195 292b 120A     		.2byte	0xa12
 16196 292d BB000000 		.4byte	0xbb
 16197 2931 02       		.uleb128 0x2
 16198 2932 91       		.byte	0x91
 16199 2933 75       		.sleb128 -11
 16200 2934 2B       		.uleb128 0x2b
 16201 2935 E6130000 		.4byte	.LASF565
 16202 2939 01       		.byte	0x1
 16203 293a 220A     		.2byte	0xa22
 16204 293c BB000000 		.4byte	0xbb
 16205 2940 02       		.uleb128 0x2
 16206 2941 91       		.byte	0x91
 16207 2942 74       		.sleb128 -12
 16208 2943 00       		.byte	0
 16209 2944 2F       		.uleb128 0x2f
 16210 2945 3B250000 		.4byte	.LASF567
 16211 2949 01       		.byte	0x1
 16212 294a 4B0A     		.2byte	0xa4b
 16213 294c E1000000 		.4byte	0xe1
 16214 2950 00000000 		.4byte	.LFB117
 16215 2954 48000000 		.4byte	.LFE117-.LFB117
 16216 2958 01       		.uleb128 0x1
 16217 2959 9C       		.byte	0x9c
 16218 295a 8C290000 		.4byte	0x298c
 16219 295e 2A       		.uleb128 0x2a
 16220 295f C2270000 		.4byte	.LASF568
 16221 2963 01       		.byte	0x1
 16222 2964 4B0A     		.2byte	0xa4b
 16223 2966 E1000000 		.4byte	0xe1
 16224 296a 02       		.uleb128 0x2
 16225 296b 91       		.byte	0x91
 16226 296c 6F       		.sleb128 -17
 16227 296d 2B       		.uleb128 0x2b
 16228 296e 63160000 		.4byte	.LASF540
 16229 2972 01       		.byte	0x1
 16230 2973 4D0A     		.2byte	0xa4d
 16231 2975 E1000000 		.4byte	0xe1
 16232 2979 02       		.uleb128 0x2
 16233 297a 91       		.byte	0x91
 16234 297b 77       		.sleb128 -9
 16235 297c 2B       		.uleb128 0x2b
 16236 297d F71B0000 		.4byte	.LASF569
 16237 2981 01       		.byte	0x1
 16238 2982 4E0A     		.2byte	0xa4e
 16239 2984 70070000 		.4byte	0x770
 16240 2988 02       		.uleb128 0x2
 16241 2989 91       		.byte	0x91
ARM GAS  C:\Users\RECEPC~1\AppData\Local\Temp\ccNQP0pp.s 			page 334


 16242 298a 70       		.sleb128 -16
 16243 298b 00       		.byte	0
 16244 298c 30       		.uleb128 0x30
 16245 298d 4C190000 		.4byte	.LASF570
 16246 2991 0F       		.byte	0xf
 16247 2992 5506     		.2byte	0x655
 16248 2994 98290000 		.4byte	0x2998
 16249 2998 06       		.uleb128 0x6
 16250 2999 8C000000 		.4byte	0x8c
 16251 299d 30       		.uleb128 0x30
 16252 299e F9050000 		.4byte	.LASF571
 16253 29a2 0A       		.byte	0xa
 16254 29a3 6702     		.2byte	0x267
 16255 29a5 99100000 		.4byte	0x1099
 16256 29a9 0A       		.uleb128 0xa
 16257 29aa 570D0000 		.4byte	0xd57
 16258 29ae B9290000 		.4byte	0x29b9
 16259 29b2 0B       		.uleb128 0xb
 16260 29b3 0A010000 		.4byte	0x10a
 16261 29b7 03       		.byte	0x3
 16262 29b8 00       		.byte	0
 16263 29b9 30       		.uleb128 0x30
 16264 29ba C1120000 		.4byte	.LASF572
 16265 29be 0A       		.byte	0xa
 16266 29bf 6802     		.2byte	0x268
 16267 29c1 A9290000 		.4byte	0x29a9
 16268 29c5 30       		.uleb128 0x30
 16269 29c6 1A030000 		.4byte	.LASF573
 16270 29ca 0A       		.byte	0xa
 16271 29cb 6A02     		.2byte	0x26a
 16272 29cd 8F110000 		.4byte	0x118f
 16273 29d1 31       		.uleb128 0x31
 16274 29d2 35210000 		.4byte	.LASF574
 16275 29d6 0D       		.byte	0xd
 16276 29d7 C2       		.byte	0xc2
 16277 29d8 7F140000 		.4byte	0x147f
 16278 29dc 31       		.uleb128 0x31
 16279 29dd 14210000 		.4byte	.LASF575
 16280 29e1 0E       		.byte	0xe
 16281 29e2 74       		.byte	0x74
 16282 29e3 AB140000 		.4byte	0x14ab
 16283 29e7 31       		.uleb128 0x31
 16284 29e8 EC190000 		.4byte	.LASF576
 16285 29ec 01       		.byte	0x1
 16286 29ed 22       		.byte	0x22
 16287 29ee 9B110000 		.4byte	0x119b
 16288 29f2 0A       		.uleb128 0xa
 16289 29f3 E1000000 		.4byte	0xe1
 16290 29f7 082A0000 		.4byte	0x2a08
 16291 29fb 0B       		.uleb128 0xb
 16292 29fc 0A010000 		.4byte	0x10a
 16293 2a00 0F       		.byte	0xf
 16294 2a01 0B       		.uleb128 0xb
 16295 2a02 0A010000 		.4byte	0x10a
 16296 2a06 01       		.byte	0x1
 16297 2a07 00       		.byte	0
 16298 2a08 32       		.uleb128 0x32
ARM GAS  C:\Users\RECEPC~1\AppData\Local\Temp\ccNQP0pp.s 			page 335


 16299 2a09 241A0000 		.4byte	.LASF577
 16300 2a0d 01       		.byte	0x1
 16301 2a0e 430A     		.2byte	0xa43
 16302 2a10 F2290000 		.4byte	0x29f2
 16303 2a14 05       		.uleb128 0x5
 16304 2a15 03       		.byte	0x3
 16305 2a16 00000000 		.4byte	_g_sfcharmap
 16306 2a1a 00       		.byte	0
 16307              		.section	.debug_abbrev,"",%progbits
 16308              	.Ldebug_abbrev0:
 16309 0000 01       		.uleb128 0x1
 16310 0001 11       		.uleb128 0x11
 16311 0002 01       		.byte	0x1
 16312 0003 25       		.uleb128 0x25
 16313 0004 0E       		.uleb128 0xe
 16314 0005 13       		.uleb128 0x13
 16315 0006 0B       		.uleb128 0xb
 16316 0007 03       		.uleb128 0x3
 16317 0008 0E       		.uleb128 0xe
 16318 0009 1B       		.uleb128 0x1b
 16319 000a 0E       		.uleb128 0xe
 16320 000b 55       		.uleb128 0x55
 16321 000c 17       		.uleb128 0x17
 16322 000d 11       		.uleb128 0x11
 16323 000e 01       		.uleb128 0x1
 16324 000f 10       		.uleb128 0x10
 16325 0010 17       		.uleb128 0x17
 16326 0011 00       		.byte	0
 16327 0012 00       		.byte	0
 16328 0013 02       		.uleb128 0x2
 16329 0014 24       		.uleb128 0x24
 16330 0015 00       		.byte	0
 16331 0016 0B       		.uleb128 0xb
 16332 0017 0B       		.uleb128 0xb
 16333 0018 3E       		.uleb128 0x3e
 16334 0019 0B       		.uleb128 0xb
 16335 001a 03       		.uleb128 0x3
 16336 001b 0E       		.uleb128 0xe
 16337 001c 00       		.byte	0
 16338 001d 00       		.byte	0
 16339 001e 03       		.uleb128 0x3
 16340 001f 16       		.uleb128 0x16
 16341 0020 00       		.byte	0
 16342 0021 03       		.uleb128 0x3
 16343 0022 0E       		.uleb128 0xe
 16344 0023 3A       		.uleb128 0x3a
 16345 0024 0B       		.uleb128 0xb
 16346 0025 3B       		.uleb128 0x3b
 16347 0026 0B       		.uleb128 0xb
 16348 0027 49       		.uleb128 0x49
 16349 0028 13       		.uleb128 0x13
 16350 0029 00       		.byte	0
 16351 002a 00       		.byte	0
 16352 002b 04       		.uleb128 0x4
 16353 002c 24       		.uleb128 0x24
 16354 002d 00       		.byte	0
 16355 002e 0B       		.uleb128 0xb
ARM GAS  C:\Users\RECEPC~1\AppData\Local\Temp\ccNQP0pp.s 			page 336


 16356 002f 0B       		.uleb128 0xb
 16357 0030 3E       		.uleb128 0x3e
 16358 0031 0B       		.uleb128 0xb
 16359 0032 03       		.uleb128 0x3
 16360 0033 08       		.uleb128 0x8
 16361 0034 00       		.byte	0
 16362 0035 00       		.byte	0
 16363 0036 05       		.uleb128 0x5
 16364 0037 16       		.uleb128 0x16
 16365 0038 00       		.byte	0
 16366 0039 03       		.uleb128 0x3
 16367 003a 0E       		.uleb128 0xe
 16368 003b 3A       		.uleb128 0x3a
 16369 003c 0B       		.uleb128 0xb
 16370 003d 3B       		.uleb128 0x3b
 16371 003e 05       		.uleb128 0x5
 16372 003f 49       		.uleb128 0x49
 16373 0040 13       		.uleb128 0x13
 16374 0041 00       		.byte	0
 16375 0042 00       		.byte	0
 16376 0043 06       		.uleb128 0x6
 16377 0044 35       		.uleb128 0x35
 16378 0045 00       		.byte	0
 16379 0046 49       		.uleb128 0x49
 16380 0047 13       		.uleb128 0x13
 16381 0048 00       		.byte	0
 16382 0049 00       		.byte	0
 16383 004a 07       		.uleb128 0x7
 16384 004b 0F       		.uleb128 0xf
 16385 004c 00       		.byte	0
 16386 004d 0B       		.uleb128 0xb
 16387 004e 0B       		.uleb128 0xb
 16388 004f 49       		.uleb128 0x49
 16389 0050 13       		.uleb128 0x13
 16390 0051 00       		.byte	0
 16391 0052 00       		.byte	0
 16392 0053 08       		.uleb128 0x8
 16393 0054 15       		.uleb128 0x15
 16394 0055 00       		.byte	0
 16395 0056 27       		.uleb128 0x27
 16396 0057 19       		.uleb128 0x19
 16397 0058 00       		.byte	0
 16398 0059 00       		.byte	0
 16399 005a 09       		.uleb128 0x9
 16400 005b 0F       		.uleb128 0xf
 16401 005c 00       		.byte	0
 16402 005d 0B       		.uleb128 0xb
 16403 005e 0B       		.uleb128 0xb
 16404 005f 00       		.byte	0
 16405 0060 00       		.byte	0
 16406 0061 0A       		.uleb128 0xa
 16407 0062 01       		.uleb128 0x1
 16408 0063 01       		.byte	0x1
 16409 0064 49       		.uleb128 0x49
 16410 0065 13       		.uleb128 0x13
 16411 0066 01       		.uleb128 0x1
 16412 0067 13       		.uleb128 0x13
ARM GAS  C:\Users\RECEPC~1\AppData\Local\Temp\ccNQP0pp.s 			page 337


 16413 0068 00       		.byte	0
 16414 0069 00       		.byte	0
 16415 006a 0B       		.uleb128 0xb
 16416 006b 21       		.uleb128 0x21
 16417 006c 00       		.byte	0
 16418 006d 49       		.uleb128 0x49
 16419 006e 13       		.uleb128 0x13
 16420 006f 2F       		.uleb128 0x2f
 16421 0070 0B       		.uleb128 0xb
 16422 0071 00       		.byte	0
 16423 0072 00       		.byte	0
 16424 0073 0C       		.uleb128 0xc
 16425 0074 04       		.uleb128 0x4
 16426 0075 01       		.byte	0x1
 16427 0076 03       		.uleb128 0x3
 16428 0077 0E       		.uleb128 0xe
 16429 0078 0B       		.uleb128 0xb
 16430 0079 0B       		.uleb128 0xb
 16431 007a 3A       		.uleb128 0x3a
 16432 007b 0B       		.uleb128 0xb
 16433 007c 3B       		.uleb128 0x3b
 16434 007d 0B       		.uleb128 0xb
 16435 007e 01       		.uleb128 0x1
 16436 007f 13       		.uleb128 0x13
 16437 0080 00       		.byte	0
 16438 0081 00       		.byte	0
 16439 0082 0D       		.uleb128 0xd
 16440 0083 28       		.uleb128 0x28
 16441 0084 00       		.byte	0
 16442 0085 03       		.uleb128 0x3
 16443 0086 0E       		.uleb128 0xe
 16444 0087 1C       		.uleb128 0x1c
 16445 0088 0D       		.uleb128 0xd
 16446 0089 00       		.byte	0
 16447 008a 00       		.byte	0
 16448 008b 0E       		.uleb128 0xe
 16449 008c 13       		.uleb128 0x13
 16450 008d 01       		.byte	0x1
 16451 008e 03       		.uleb128 0x3
 16452 008f 0E       		.uleb128 0xe
 16453 0090 0B       		.uleb128 0xb
 16454 0091 05       		.uleb128 0x5
 16455 0092 3A       		.uleb128 0x3a
 16456 0093 0B       		.uleb128 0xb
 16457 0094 3B       		.uleb128 0x3b
 16458 0095 0B       		.uleb128 0xb
 16459 0096 01       		.uleb128 0x1
 16460 0097 13       		.uleb128 0x13
 16461 0098 00       		.byte	0
 16462 0099 00       		.byte	0
 16463 009a 0F       		.uleb128 0xf
 16464 009b 0D       		.uleb128 0xd
 16465 009c 00       		.byte	0
 16466 009d 03       		.uleb128 0x3
 16467 009e 0E       		.uleb128 0xe
 16468 009f 3A       		.uleb128 0x3a
 16469 00a0 0B       		.uleb128 0xb
ARM GAS  C:\Users\RECEPC~1\AppData\Local\Temp\ccNQP0pp.s 			page 338


 16470 00a1 3B       		.uleb128 0x3b
 16471 00a2 0B       		.uleb128 0xb
 16472 00a3 49       		.uleb128 0x49
 16473 00a4 13       		.uleb128 0x13
 16474 00a5 38       		.uleb128 0x38
 16475 00a6 0B       		.uleb128 0xb
 16476 00a7 00       		.byte	0
 16477 00a8 00       		.byte	0
 16478 00a9 10       		.uleb128 0x10
 16479 00aa 0D       		.uleb128 0xd
 16480 00ab 00       		.byte	0
 16481 00ac 03       		.uleb128 0x3
 16482 00ad 0E       		.uleb128 0xe
 16483 00ae 3A       		.uleb128 0x3a
 16484 00af 0B       		.uleb128 0xb
 16485 00b0 3B       		.uleb128 0x3b
 16486 00b1 0B       		.uleb128 0xb
 16487 00b2 49       		.uleb128 0x49
 16488 00b3 13       		.uleb128 0x13
 16489 00b4 38       		.uleb128 0x38
 16490 00b5 05       		.uleb128 0x5
 16491 00b6 00       		.byte	0
 16492 00b7 00       		.byte	0
 16493 00b8 11       		.uleb128 0x11
 16494 00b9 21       		.uleb128 0x21
 16495 00ba 00       		.byte	0
 16496 00bb 49       		.uleb128 0x49
 16497 00bc 13       		.uleb128 0x13
 16498 00bd 2F       		.uleb128 0x2f
 16499 00be 05       		.uleb128 0x5
 16500 00bf 00       		.byte	0
 16501 00c0 00       		.byte	0
 16502 00c1 12       		.uleb128 0x12
 16503 00c2 15       		.uleb128 0x15
 16504 00c3 01       		.byte	0x1
 16505 00c4 27       		.uleb128 0x27
 16506 00c5 19       		.uleb128 0x19
 16507 00c6 01       		.uleb128 0x1
 16508 00c7 13       		.uleb128 0x13
 16509 00c8 00       		.byte	0
 16510 00c9 00       		.byte	0
 16511 00ca 13       		.uleb128 0x13
 16512 00cb 05       		.uleb128 0x5
 16513 00cc 00       		.byte	0
 16514 00cd 49       		.uleb128 0x49
 16515 00ce 13       		.uleb128 0x13
 16516 00cf 00       		.byte	0
 16517 00d0 00       		.byte	0
 16518 00d1 14       		.uleb128 0x14
 16519 00d2 13       		.uleb128 0x13
 16520 00d3 01       		.byte	0x1
 16521 00d4 03       		.uleb128 0x3
 16522 00d5 0E       		.uleb128 0xe
 16523 00d6 0B       		.uleb128 0xb
 16524 00d7 0B       		.uleb128 0xb
 16525 00d8 3A       		.uleb128 0x3a
 16526 00d9 0B       		.uleb128 0xb
ARM GAS  C:\Users\RECEPC~1\AppData\Local\Temp\ccNQP0pp.s 			page 339


 16527 00da 3B       		.uleb128 0x3b
 16528 00db 0B       		.uleb128 0xb
 16529 00dc 01       		.uleb128 0x1
 16530 00dd 13       		.uleb128 0x13
 16531 00de 00       		.byte	0
 16532 00df 00       		.byte	0
 16533 00e0 15       		.uleb128 0x15
 16534 00e1 15       		.uleb128 0x15
 16535 00e2 00       		.byte	0
 16536 00e3 27       		.uleb128 0x27
 16537 00e4 19       		.uleb128 0x19
 16538 00e5 49       		.uleb128 0x49
 16539 00e6 13       		.uleb128 0x13
 16540 00e7 00       		.byte	0
 16541 00e8 00       		.byte	0
 16542 00e9 16       		.uleb128 0x16
 16543 00ea 26       		.uleb128 0x26
 16544 00eb 00       		.byte	0
 16545 00ec 49       		.uleb128 0x49
 16546 00ed 13       		.uleb128 0x13
 16547 00ee 00       		.byte	0
 16548 00ef 00       		.byte	0
 16549 00f0 17       		.uleb128 0x17
 16550 00f1 04       		.uleb128 0x4
 16551 00f2 01       		.byte	0x1
 16552 00f3 0B       		.uleb128 0xb
 16553 00f4 0B       		.uleb128 0xb
 16554 00f5 3A       		.uleb128 0x3a
 16555 00f6 0B       		.uleb128 0xb
 16556 00f7 3B       		.uleb128 0x3b
 16557 00f8 0B       		.uleb128 0xb
 16558 00f9 01       		.uleb128 0x1
 16559 00fa 13       		.uleb128 0x13
 16560 00fb 00       		.byte	0
 16561 00fc 00       		.byte	0
 16562 00fd 18       		.uleb128 0x18
 16563 00fe 15       		.uleb128 0x15
 16564 00ff 01       		.byte	0x1
 16565 0100 27       		.uleb128 0x27
 16566 0101 19       		.uleb128 0x19
 16567 0102 49       		.uleb128 0x49
 16568 0103 13       		.uleb128 0x13
 16569 0104 01       		.uleb128 0x1
 16570 0105 13       		.uleb128 0x13
 16571 0106 00       		.byte	0
 16572 0107 00       		.byte	0
 16573 0108 19       		.uleb128 0x19
 16574 0109 28       		.uleb128 0x28
 16575 010a 00       		.byte	0
 16576 010b 03       		.uleb128 0x3
 16577 010c 08       		.uleb128 0x8
 16578 010d 1C       		.uleb128 0x1c
 16579 010e 0D       		.uleb128 0xd
 16580 010f 00       		.byte	0
 16581 0110 00       		.byte	0
 16582 0111 1A       		.uleb128 0x1a
 16583 0112 04       		.uleb128 0x4
ARM GAS  C:\Users\RECEPC~1\AppData\Local\Temp\ccNQP0pp.s 			page 340


 16584 0113 01       		.byte	0x1
 16585 0114 03       		.uleb128 0x3
 16586 0115 0E       		.uleb128 0xe
 16587 0116 0B       		.uleb128 0xb
 16588 0117 0B       		.uleb128 0xb
 16589 0118 3A       		.uleb128 0x3a
 16590 0119 0B       		.uleb128 0xb
 16591 011a 3B       		.uleb128 0x3b
 16592 011b 05       		.uleb128 0x5
 16593 011c 01       		.uleb128 0x1
 16594 011d 13       		.uleb128 0x13
 16595 011e 00       		.byte	0
 16596 011f 00       		.byte	0
 16597 0120 1B       		.uleb128 0x1b
 16598 0121 13       		.uleb128 0x13
 16599 0122 01       		.byte	0x1
 16600 0123 0B       		.uleb128 0xb
 16601 0124 05       		.uleb128 0x5
 16602 0125 3A       		.uleb128 0x3a
 16603 0126 0B       		.uleb128 0xb
 16604 0127 3B       		.uleb128 0x3b
 16605 0128 05       		.uleb128 0x5
 16606 0129 01       		.uleb128 0x1
 16607 012a 13       		.uleb128 0x13
 16608 012b 00       		.byte	0
 16609 012c 00       		.byte	0
 16610 012d 1C       		.uleb128 0x1c
 16611 012e 0D       		.uleb128 0xd
 16612 012f 00       		.byte	0
 16613 0130 03       		.uleb128 0x3
 16614 0131 0E       		.uleb128 0xe
 16615 0132 3A       		.uleb128 0x3a
 16616 0133 0B       		.uleb128 0xb
 16617 0134 3B       		.uleb128 0x3b
 16618 0135 05       		.uleb128 0x5
 16619 0136 49       		.uleb128 0x49
 16620 0137 13       		.uleb128 0x13
 16621 0138 38       		.uleb128 0x38
 16622 0139 0B       		.uleb128 0xb
 16623 013a 00       		.byte	0
 16624 013b 00       		.byte	0
 16625 013c 1D       		.uleb128 0x1d
 16626 013d 0D       		.uleb128 0xd
 16627 013e 00       		.byte	0
 16628 013f 03       		.uleb128 0x3
 16629 0140 0E       		.uleb128 0xe
 16630 0141 3A       		.uleb128 0x3a
 16631 0142 0B       		.uleb128 0xb
 16632 0143 3B       		.uleb128 0x3b
 16633 0144 05       		.uleb128 0x5
 16634 0145 49       		.uleb128 0x49
 16635 0146 13       		.uleb128 0x13
 16636 0147 38       		.uleb128 0x38
 16637 0148 05       		.uleb128 0x5
 16638 0149 00       		.byte	0
 16639 014a 00       		.byte	0
 16640 014b 1E       		.uleb128 0x1e
ARM GAS  C:\Users\RECEPC~1\AppData\Local\Temp\ccNQP0pp.s 			page 341


 16641 014c 13       		.uleb128 0x13
 16642 014d 01       		.byte	0x1
 16643 014e 0B       		.uleb128 0xb
 16644 014f 0B       		.uleb128 0xb
 16645 0150 3A       		.uleb128 0x3a
 16646 0151 0B       		.uleb128 0xb
 16647 0152 3B       		.uleb128 0x3b
 16648 0153 05       		.uleb128 0x5
 16649 0154 01       		.uleb128 0x1
 16650 0155 13       		.uleb128 0x13
 16651 0156 00       		.byte	0
 16652 0157 00       		.byte	0
 16653 0158 1F       		.uleb128 0x1f
 16654 0159 13       		.uleb128 0x13
 16655 015a 01       		.byte	0x1
 16656 015b 03       		.uleb128 0x3
 16657 015c 0E       		.uleb128 0xe
 16658 015d 0B       		.uleb128 0xb
 16659 015e 05       		.uleb128 0x5
 16660 015f 3A       		.uleb128 0x3a
 16661 0160 0B       		.uleb128 0xb
 16662 0161 3B       		.uleb128 0x3b
 16663 0162 05       		.uleb128 0x5
 16664 0163 01       		.uleb128 0x1
 16665 0164 13       		.uleb128 0x13
 16666 0165 00       		.byte	0
 16667 0166 00       		.byte	0
 16668 0167 20       		.uleb128 0x20
 16669 0168 13       		.uleb128 0x13
 16670 0169 01       		.byte	0x1
 16671 016a 03       		.uleb128 0x3
 16672 016b 0E       		.uleb128 0xe
 16673 016c 0B       		.uleb128 0xb
 16674 016d 0B       		.uleb128 0xb
 16675 016e 3A       		.uleb128 0x3a
 16676 016f 0B       		.uleb128 0xb
 16677 0170 3B       		.uleb128 0x3b
 16678 0171 05       		.uleb128 0x5
 16679 0172 01       		.uleb128 0x1
 16680 0173 13       		.uleb128 0x13
 16681 0174 00       		.byte	0
 16682 0175 00       		.byte	0
 16683 0176 21       		.uleb128 0x21
 16684 0177 0D       		.uleb128 0xd
 16685 0178 00       		.byte	0
 16686 0179 03       		.uleb128 0x3
 16687 017a 0E       		.uleb128 0xe
 16688 017b 3A       		.uleb128 0x3a
 16689 017c 0B       		.uleb128 0xb
 16690 017d 3B       		.uleb128 0x3b
 16691 017e 05       		.uleb128 0x5
 16692 017f 49       		.uleb128 0x49
 16693 0180 13       		.uleb128 0x13
 16694 0181 0B       		.uleb128 0xb
 16695 0182 0B       		.uleb128 0xb
 16696 0183 0D       		.uleb128 0xd
 16697 0184 0B       		.uleb128 0xb
ARM GAS  C:\Users\RECEPC~1\AppData\Local\Temp\ccNQP0pp.s 			page 342


 16698 0185 0C       		.uleb128 0xc
 16699 0186 0B       		.uleb128 0xb
 16700 0187 38       		.uleb128 0x38
 16701 0188 0B       		.uleb128 0xb
 16702 0189 00       		.byte	0
 16703 018a 00       		.byte	0
 16704 018b 22       		.uleb128 0x22
 16705 018c 13       		.uleb128 0x13
 16706 018d 01       		.byte	0x1
 16707 018e 0B       		.uleb128 0xb
 16708 018f 0B       		.uleb128 0xb
 16709 0190 3A       		.uleb128 0x3a
 16710 0191 0B       		.uleb128 0xb
 16711 0192 3B       		.uleb128 0x3b
 16712 0193 0B       		.uleb128 0xb
 16713 0194 01       		.uleb128 0x1
 16714 0195 13       		.uleb128 0x13
 16715 0196 00       		.byte	0
 16716 0197 00       		.byte	0
 16717 0198 23       		.uleb128 0x23
 16718 0199 2E       		.uleb128 0x2e
 16719 019a 01       		.byte	0x1
 16720 019b 3F       		.uleb128 0x3f
 16721 019c 19       		.uleb128 0x19
 16722 019d 03       		.uleb128 0x3
 16723 019e 0E       		.uleb128 0xe
 16724 019f 3A       		.uleb128 0x3a
 16725 01a0 0B       		.uleb128 0xb
 16726 01a1 3B       		.uleb128 0x3b
 16727 01a2 0B       		.uleb128 0xb
 16728 01a3 27       		.uleb128 0x27
 16729 01a4 19       		.uleb128 0x19
 16730 01a5 11       		.uleb128 0x11
 16731 01a6 01       		.uleb128 0x1
 16732 01a7 12       		.uleb128 0x12
 16733 01a8 06       		.uleb128 0x6
 16734 01a9 40       		.uleb128 0x40
 16735 01aa 18       		.uleb128 0x18
 16736 01ab 9642     		.uleb128 0x2116
 16737 01ad 19       		.uleb128 0x19
 16738 01ae 01       		.uleb128 0x1
 16739 01af 13       		.uleb128 0x13
 16740 01b0 00       		.byte	0
 16741 01b1 00       		.byte	0
 16742 01b2 24       		.uleb128 0x24
 16743 01b3 05       		.uleb128 0x5
 16744 01b4 00       		.byte	0
 16745 01b5 03       		.uleb128 0x3
 16746 01b6 0E       		.uleb128 0xe
 16747 01b7 3A       		.uleb128 0x3a
 16748 01b8 0B       		.uleb128 0xb
 16749 01b9 3B       		.uleb128 0x3b
 16750 01ba 0B       		.uleb128 0xb
 16751 01bb 49       		.uleb128 0x49
 16752 01bc 13       		.uleb128 0x13
 16753 01bd 02       		.uleb128 0x2
 16754 01be 18       		.uleb128 0x18
ARM GAS  C:\Users\RECEPC~1\AppData\Local\Temp\ccNQP0pp.s 			page 343


 16755 01bf 00       		.byte	0
 16756 01c0 00       		.byte	0
 16757 01c1 25       		.uleb128 0x25
 16758 01c2 34       		.uleb128 0x34
 16759 01c3 00       		.byte	0
 16760 01c4 03       		.uleb128 0x3
 16761 01c5 0E       		.uleb128 0xe
 16762 01c6 3A       		.uleb128 0x3a
 16763 01c7 0B       		.uleb128 0xb
 16764 01c8 3B       		.uleb128 0x3b
 16765 01c9 0B       		.uleb128 0xb
 16766 01ca 49       		.uleb128 0x49
 16767 01cb 13       		.uleb128 0x13
 16768 01cc 02       		.uleb128 0x2
 16769 01cd 18       		.uleb128 0x18
 16770 01ce 00       		.byte	0
 16771 01cf 00       		.byte	0
 16772 01d0 26       		.uleb128 0x26
 16773 01d1 0B       		.uleb128 0xb
 16774 01d2 01       		.byte	0x1
 16775 01d3 11       		.uleb128 0x11
 16776 01d4 01       		.uleb128 0x1
 16777 01d5 12       		.uleb128 0x12
 16778 01d6 06       		.uleb128 0x6
 16779 01d7 00       		.byte	0
 16780 01d8 00       		.byte	0
 16781 01d9 27       		.uleb128 0x27
 16782 01da 2E       		.uleb128 0x2e
 16783 01db 01       		.byte	0x1
 16784 01dc 3F       		.uleb128 0x3f
 16785 01dd 19       		.uleb128 0x19
 16786 01de 03       		.uleb128 0x3
 16787 01df 0E       		.uleb128 0xe
 16788 01e0 3A       		.uleb128 0x3a
 16789 01e1 0B       		.uleb128 0xb
 16790 01e2 3B       		.uleb128 0x3b
 16791 01e3 0B       		.uleb128 0xb
 16792 01e4 27       		.uleb128 0x27
 16793 01e5 19       		.uleb128 0x19
 16794 01e6 11       		.uleb128 0x11
 16795 01e7 01       		.uleb128 0x1
 16796 01e8 12       		.uleb128 0x12
 16797 01e9 06       		.uleb128 0x6
 16798 01ea 40       		.uleb128 0x40
 16799 01eb 18       		.uleb128 0x18
 16800 01ec 9742     		.uleb128 0x2117
 16801 01ee 19       		.uleb128 0x19
 16802 01ef 01       		.uleb128 0x1
 16803 01f0 13       		.uleb128 0x13
 16804 01f1 00       		.byte	0
 16805 01f2 00       		.byte	0
 16806 01f3 28       		.uleb128 0x28
 16807 01f4 34       		.uleb128 0x34
 16808 01f5 00       		.byte	0
 16809 01f6 03       		.uleb128 0x3
 16810 01f7 08       		.uleb128 0x8
 16811 01f8 3A       		.uleb128 0x3a
ARM GAS  C:\Users\RECEPC~1\AppData\Local\Temp\ccNQP0pp.s 			page 344


 16812 01f9 0B       		.uleb128 0xb
 16813 01fa 3B       		.uleb128 0x3b
 16814 01fb 05       		.uleb128 0x5
 16815 01fc 49       		.uleb128 0x49
 16816 01fd 13       		.uleb128 0x13
 16817 01fe 02       		.uleb128 0x2
 16818 01ff 18       		.uleb128 0x18
 16819 0200 00       		.byte	0
 16820 0201 00       		.byte	0
 16821 0202 29       		.uleb128 0x29
 16822 0203 2E       		.uleb128 0x2e
 16823 0204 01       		.byte	0x1
 16824 0205 3F       		.uleb128 0x3f
 16825 0206 19       		.uleb128 0x19
 16826 0207 03       		.uleb128 0x3
 16827 0208 0E       		.uleb128 0xe
 16828 0209 3A       		.uleb128 0x3a
 16829 020a 0B       		.uleb128 0xb
 16830 020b 3B       		.uleb128 0x3b
 16831 020c 05       		.uleb128 0x5
 16832 020d 27       		.uleb128 0x27
 16833 020e 19       		.uleb128 0x19
 16834 020f 11       		.uleb128 0x11
 16835 0210 01       		.uleb128 0x1
 16836 0211 12       		.uleb128 0x12
 16837 0212 06       		.uleb128 0x6
 16838 0213 40       		.uleb128 0x40
 16839 0214 18       		.uleb128 0x18
 16840 0215 9642     		.uleb128 0x2116
 16841 0217 19       		.uleb128 0x19
 16842 0218 01       		.uleb128 0x1
 16843 0219 13       		.uleb128 0x13
 16844 021a 00       		.byte	0
 16845 021b 00       		.byte	0
 16846 021c 2A       		.uleb128 0x2a
 16847 021d 05       		.uleb128 0x5
 16848 021e 00       		.byte	0
 16849 021f 03       		.uleb128 0x3
 16850 0220 0E       		.uleb128 0xe
 16851 0221 3A       		.uleb128 0x3a
 16852 0222 0B       		.uleb128 0xb
 16853 0223 3B       		.uleb128 0x3b
 16854 0224 05       		.uleb128 0x5
 16855 0225 49       		.uleb128 0x49
 16856 0226 13       		.uleb128 0x13
 16857 0227 02       		.uleb128 0x2
 16858 0228 18       		.uleb128 0x18
 16859 0229 00       		.byte	0
 16860 022a 00       		.byte	0
 16861 022b 2B       		.uleb128 0x2b
 16862 022c 34       		.uleb128 0x34
 16863 022d 00       		.byte	0
 16864 022e 03       		.uleb128 0x3
 16865 022f 0E       		.uleb128 0xe
 16866 0230 3A       		.uleb128 0x3a
 16867 0231 0B       		.uleb128 0xb
 16868 0232 3B       		.uleb128 0x3b
ARM GAS  C:\Users\RECEPC~1\AppData\Local\Temp\ccNQP0pp.s 			page 345


 16869 0233 05       		.uleb128 0x5
 16870 0234 49       		.uleb128 0x49
 16871 0235 13       		.uleb128 0x13
 16872 0236 02       		.uleb128 0x2
 16873 0237 18       		.uleb128 0x18
 16874 0238 00       		.byte	0
 16875 0239 00       		.byte	0
 16876 023a 2C       		.uleb128 0x2c
 16877 023b 2E       		.uleb128 0x2e
 16878 023c 01       		.byte	0x1
 16879 023d 3F       		.uleb128 0x3f
 16880 023e 19       		.uleb128 0x19
 16881 023f 03       		.uleb128 0x3
 16882 0240 0E       		.uleb128 0xe
 16883 0241 3A       		.uleb128 0x3a
 16884 0242 0B       		.uleb128 0xb
 16885 0243 3B       		.uleb128 0x3b
 16886 0244 05       		.uleb128 0x5
 16887 0245 27       		.uleb128 0x27
 16888 0246 19       		.uleb128 0x19
 16889 0247 11       		.uleb128 0x11
 16890 0248 01       		.uleb128 0x1
 16891 0249 12       		.uleb128 0x12
 16892 024a 06       		.uleb128 0x6
 16893 024b 40       		.uleb128 0x40
 16894 024c 18       		.uleb128 0x18
 16895 024d 9742     		.uleb128 0x2117
 16896 024f 19       		.uleb128 0x19
 16897 0250 01       		.uleb128 0x1
 16898 0251 13       		.uleb128 0x13
 16899 0252 00       		.byte	0
 16900 0253 00       		.byte	0
 16901 0254 2D       		.uleb128 0x2d
 16902 0255 0B       		.uleb128 0xb
 16903 0256 01       		.byte	0x1
 16904 0257 11       		.uleb128 0x11
 16905 0258 01       		.uleb128 0x1
 16906 0259 12       		.uleb128 0x12
 16907 025a 06       		.uleb128 0x6
 16908 025b 01       		.uleb128 0x1
 16909 025c 13       		.uleb128 0x13
 16910 025d 00       		.byte	0
 16911 025e 00       		.byte	0
 16912 025f 2E       		.uleb128 0x2e
 16913 0260 2E       		.uleb128 0x2e
 16914 0261 01       		.byte	0x1
 16915 0262 3F       		.uleb128 0x3f
 16916 0263 19       		.uleb128 0x19
 16917 0264 03       		.uleb128 0x3
 16918 0265 0E       		.uleb128 0xe
 16919 0266 3A       		.uleb128 0x3a
 16920 0267 0B       		.uleb128 0xb
 16921 0268 3B       		.uleb128 0x3b
 16922 0269 05       		.uleb128 0x5
 16923 026a 27       		.uleb128 0x27
 16924 026b 19       		.uleb128 0x19
 16925 026c 49       		.uleb128 0x49
ARM GAS  C:\Users\RECEPC~1\AppData\Local\Temp\ccNQP0pp.s 			page 346


 16926 026d 13       		.uleb128 0x13
 16927 026e 11       		.uleb128 0x11
 16928 026f 01       		.uleb128 0x1
 16929 0270 12       		.uleb128 0x12
 16930 0271 06       		.uleb128 0x6
 16931 0272 40       		.uleb128 0x40
 16932 0273 18       		.uleb128 0x18
 16933 0274 9642     		.uleb128 0x2116
 16934 0276 19       		.uleb128 0x19
 16935 0277 01       		.uleb128 0x1
 16936 0278 13       		.uleb128 0x13
 16937 0279 00       		.byte	0
 16938 027a 00       		.byte	0
 16939 027b 2F       		.uleb128 0x2f
 16940 027c 2E       		.uleb128 0x2e
 16941 027d 01       		.byte	0x1
 16942 027e 3F       		.uleb128 0x3f
 16943 027f 19       		.uleb128 0x19
 16944 0280 03       		.uleb128 0x3
 16945 0281 0E       		.uleb128 0xe
 16946 0282 3A       		.uleb128 0x3a
 16947 0283 0B       		.uleb128 0xb
 16948 0284 3B       		.uleb128 0x3b
 16949 0285 05       		.uleb128 0x5
 16950 0286 27       		.uleb128 0x27
 16951 0287 19       		.uleb128 0x19
 16952 0288 49       		.uleb128 0x49
 16953 0289 13       		.uleb128 0x13
 16954 028a 11       		.uleb128 0x11
 16955 028b 01       		.uleb128 0x1
 16956 028c 12       		.uleb128 0x12
 16957 028d 06       		.uleb128 0x6
 16958 028e 40       		.uleb128 0x40
 16959 028f 18       		.uleb128 0x18
 16960 0290 9742     		.uleb128 0x2117
 16961 0292 19       		.uleb128 0x19
 16962 0293 01       		.uleb128 0x1
 16963 0294 13       		.uleb128 0x13
 16964 0295 00       		.byte	0
 16965 0296 00       		.byte	0
 16966 0297 30       		.uleb128 0x30
 16967 0298 34       		.uleb128 0x34
 16968 0299 00       		.byte	0
 16969 029a 03       		.uleb128 0x3
 16970 029b 0E       		.uleb128 0xe
 16971 029c 3A       		.uleb128 0x3a
 16972 029d 0B       		.uleb128 0xb
 16973 029e 3B       		.uleb128 0x3b
 16974 029f 05       		.uleb128 0x5
 16975 02a0 49       		.uleb128 0x49
 16976 02a1 13       		.uleb128 0x13
 16977 02a2 3F       		.uleb128 0x3f
 16978 02a3 19       		.uleb128 0x19
 16979 02a4 3C       		.uleb128 0x3c
 16980 02a5 19       		.uleb128 0x19
 16981 02a6 00       		.byte	0
 16982 02a7 00       		.byte	0
ARM GAS  C:\Users\RECEPC~1\AppData\Local\Temp\ccNQP0pp.s 			page 347


 16983 02a8 31       		.uleb128 0x31
 16984 02a9 34       		.uleb128 0x34
 16985 02aa 00       		.byte	0
 16986 02ab 03       		.uleb128 0x3
 16987 02ac 0E       		.uleb128 0xe
 16988 02ad 3A       		.uleb128 0x3a
 16989 02ae 0B       		.uleb128 0xb
 16990 02af 3B       		.uleb128 0x3b
 16991 02b0 0B       		.uleb128 0xb
 16992 02b1 49       		.uleb128 0x49
 16993 02b2 13       		.uleb128 0x13
 16994 02b3 3F       		.uleb128 0x3f
 16995 02b4 19       		.uleb128 0x19
 16996 02b5 3C       		.uleb128 0x3c
 16997 02b6 19       		.uleb128 0x19
 16998 02b7 00       		.byte	0
 16999 02b8 00       		.byte	0
 17000 02b9 32       		.uleb128 0x32
 17001 02ba 34       		.uleb128 0x34
 17002 02bb 00       		.byte	0
 17003 02bc 03       		.uleb128 0x3
 17004 02bd 0E       		.uleb128 0xe
 17005 02be 3A       		.uleb128 0x3a
 17006 02bf 0B       		.uleb128 0xb
 17007 02c0 3B       		.uleb128 0x3b
 17008 02c1 05       		.uleb128 0x5
 17009 02c2 49       		.uleb128 0x49
 17010 02c3 13       		.uleb128 0x13
 17011 02c4 3F       		.uleb128 0x3f
 17012 02c5 19       		.uleb128 0x19
 17013 02c6 02       		.uleb128 0x2
 17014 02c7 18       		.uleb128 0x18
 17015 02c8 00       		.byte	0
 17016 02c9 00       		.byte	0
 17017 02ca 00       		.byte	0
 17018              		.section	.debug_aranges,"",%progbits
 17019 0000 CC010000 		.4byte	0x1cc
 17020 0004 0200     		.2byte	0x2
 17021 0006 00000000 		.4byte	.Ldebug_info0
 17022 000a 04       		.byte	0x4
 17023 000b 00       		.byte	0
 17024 000c 0000     		.2byte	0
 17025 000e 0000     		.2byte	0
 17026 0010 00000000 		.4byte	.LFB63
 17027 0014 A2000000 		.4byte	.LFE63-.LFB63
 17028 0018 00000000 		.4byte	.LFB64
 17029 001c 48000000 		.4byte	.LFE64-.LFB64
 17030 0020 00000000 		.4byte	.LFB65
 17031 0024 E0000000 		.4byte	.LFE65-.LFB65
 17032 0028 00000000 		.4byte	.LFB66
 17033 002c F4000000 		.4byte	.LFE66-.LFB66
 17034 0030 00000000 		.4byte	.LFB67
 17035 0034 5A000000 		.4byte	.LFE67-.LFB67
 17036 0038 00000000 		.4byte	.LFB68
 17037 003c F4080000 		.4byte	.LFE68-.LFB68
 17038 0040 00000000 		.4byte	.LFB69
 17039 0044 8C010000 		.4byte	.LFE69-.LFB69
ARM GAS  C:\Users\RECEPC~1\AppData\Local\Temp\ccNQP0pp.s 			page 348


 17040 0048 00000000 		.4byte	.LFB70
 17041 004c 04020000 		.4byte	.LFE70-.LFB70
 17042 0050 00000000 		.4byte	.LFB71
 17043 0054 72010000 		.4byte	.LFE71-.LFB71
 17044 0058 00000000 		.4byte	.LFB72
 17045 005c 2C000000 		.4byte	.LFE72-.LFB72
 17046 0060 00000000 		.4byte	.LFB73
 17047 0064 36000000 		.4byte	.LFE73-.LFB73
 17048 0068 00000000 		.4byte	.LFB74
 17049 006c 36000000 		.4byte	.LFE74-.LFB74
 17050 0070 00000000 		.4byte	.LFB75
 17051 0074 82000000 		.4byte	.LFE75-.LFB75
 17052 0078 00000000 		.4byte	.LFB76
 17053 007c 70000000 		.4byte	.LFE76-.LFB76
 17054 0080 00000000 		.4byte	.LFB77
 17055 0084 60000000 		.4byte	.LFE77-.LFB77
 17056 0088 00000000 		.4byte	.LFB78
 17057 008c 6A000000 		.4byte	.LFE78-.LFB78
 17058 0090 00000000 		.4byte	.LFB79
 17059 0094 6A000000 		.4byte	.LFE79-.LFB79
 17060 0098 00000000 		.4byte	.LFB80
 17061 009c 6A000000 		.4byte	.LFE80-.LFB80
 17062 00a0 00000000 		.4byte	.LFB81
 17063 00a4 6A000000 		.4byte	.LFE81-.LFB81
 17064 00a8 00000000 		.4byte	.LFB82
 17065 00ac 6A000000 		.4byte	.LFE82-.LFB82
 17066 00b0 00000000 		.4byte	.LFB83
 17067 00b4 4A010000 		.4byte	.LFE83-.LFB83
 17068 00b8 00000000 		.4byte	.LFB84
 17069 00bc 60010000 		.4byte	.LFE84-.LFB84
 17070 00c0 00000000 		.4byte	.LFB85
 17071 00c4 4E010000 		.4byte	.LFE85-.LFB85
 17072 00c8 00000000 		.4byte	.LFB86
 17073 00cc 78010000 		.4byte	.LFE86-.LFB86
 17074 00d0 00000000 		.4byte	.LFB87
 17075 00d4 AA000000 		.4byte	.LFE87-.LFB87
 17076 00d8 00000000 		.4byte	.LFB88
 17077 00dc A4010000 		.4byte	.LFE88-.LFB88
 17078 00e0 00000000 		.4byte	.LFB89
 17079 00e4 88010000 		.4byte	.LFE89-.LFB89
 17080 00e8 00000000 		.4byte	.LFB90
 17081 00ec 5E020000 		.4byte	.LFE90-.LFB90
 17082 00f0 00000000 		.4byte	.LFB91
 17083 00f4 54010000 		.4byte	.LFE91-.LFB91
 17084 00f8 00000000 		.4byte	.LFB92
 17085 00fc E2010000 		.4byte	.LFE92-.LFB92
 17086 0100 00000000 		.4byte	.LFB93
 17087 0104 6A000000 		.4byte	.LFE93-.LFB93
 17088 0108 00000000 		.4byte	.LFB94
 17089 010c 60000000 		.4byte	.LFE94-.LFB94
 17090 0110 00000000 		.4byte	.LFB95
 17091 0114 E6000000 		.4byte	.LFE95-.LFB95
 17092 0118 00000000 		.4byte	.LFB96
 17093 011c 16000000 		.4byte	.LFE96-.LFB96
 17094 0120 00000000 		.4byte	.LFB97
 17095 0124 E6000000 		.4byte	.LFE97-.LFB97
 17096 0128 00000000 		.4byte	.LFB98
ARM GAS  C:\Users\RECEPC~1\AppData\Local\Temp\ccNQP0pp.s 			page 349


 17097 012c EC000000 		.4byte	.LFE98-.LFB98
 17098 0130 00000000 		.4byte	.LFB99
 17099 0134 8E010000 		.4byte	.LFE99-.LFB99
 17100 0138 00000000 		.4byte	.LFB100
 17101 013c 38100000 		.4byte	.LFE100-.LFB100
 17102 0140 00000000 		.4byte	.LFB101
 17103 0144 E4010000 		.4byte	.LFE101-.LFB101
 17104 0148 00000000 		.4byte	.LFB102
 17105 014c 24010000 		.4byte	.LFE102-.LFB102
 17106 0150 00000000 		.4byte	.LFB103
 17107 0154 60000000 		.4byte	.LFE103-.LFB103
 17108 0158 00000000 		.4byte	.LFB104
 17109 015c 40020000 		.4byte	.LFE104-.LFB104
 17110 0160 00000000 		.4byte	.LFB105
 17111 0164 6C000000 		.4byte	.LFE105-.LFB105
 17112 0168 00000000 		.4byte	.LFB106
 17113 016c B8000000 		.4byte	.LFE106-.LFB106
 17114 0170 00000000 		.4byte	.LFB107
 17115 0174 98000000 		.4byte	.LFE107-.LFB107
 17116 0178 00000000 		.4byte	.LFB108
 17117 017c AC000000 		.4byte	.LFE108-.LFB108
 17118 0180 00000000 		.4byte	.LFB109
 17119 0184 88000000 		.4byte	.LFE109-.LFB109
 17120 0188 00000000 		.4byte	.LFB110
 17121 018c 5E000000 		.4byte	.LFE110-.LFB110
 17122 0190 00000000 		.4byte	.LFB111
 17123 0194 2E000000 		.4byte	.LFE111-.LFB111
 17124 0198 00000000 		.4byte	.LFB112
 17125 019c 2C000000 		.4byte	.LFE112-.LFB112
 17126 01a0 00000000 		.4byte	.LFB113
 17127 01a4 2C000000 		.4byte	.LFE113-.LFB113
 17128 01a8 00000000 		.4byte	.LFB114
 17129 01ac 08020000 		.4byte	.LFE114-.LFB114
 17130 01b0 00000000 		.4byte	.LFB115
 17131 01b4 64010000 		.4byte	.LFE115-.LFB115
 17132 01b8 00000000 		.4byte	.LFB116
 17133 01bc 64010000 		.4byte	.LFE116-.LFB116
 17134 01c0 00000000 		.4byte	.LFB117
 17135 01c4 48000000 		.4byte	.LFE117-.LFB117
 17136 01c8 00000000 		.4byte	0
 17137 01cc 00000000 		.4byte	0
 17138              		.section	.debug_ranges,"",%progbits
 17139              	.Ldebug_ranges0:
 17140 0000 00000000 		.4byte	.LFB63
 17141 0004 A2000000 		.4byte	.LFE63
 17142 0008 00000000 		.4byte	.LFB64
 17143 000c 48000000 		.4byte	.LFE64
 17144 0010 00000000 		.4byte	.LFB65
 17145 0014 E0000000 		.4byte	.LFE65
 17146 0018 00000000 		.4byte	.LFB66
 17147 001c F4000000 		.4byte	.LFE66
 17148 0020 00000000 		.4byte	.LFB67
 17149 0024 5A000000 		.4byte	.LFE67
 17150 0028 00000000 		.4byte	.LFB68
 17151 002c F4080000 		.4byte	.LFE68
 17152 0030 00000000 		.4byte	.LFB69
 17153 0034 8C010000 		.4byte	.LFE69
ARM GAS  C:\Users\RECEPC~1\AppData\Local\Temp\ccNQP0pp.s 			page 350


 17154 0038 00000000 		.4byte	.LFB70
 17155 003c 04020000 		.4byte	.LFE70
 17156 0040 00000000 		.4byte	.LFB71
 17157 0044 72010000 		.4byte	.LFE71
 17158 0048 00000000 		.4byte	.LFB72
 17159 004c 2C000000 		.4byte	.LFE72
 17160 0050 00000000 		.4byte	.LFB73
 17161 0054 36000000 		.4byte	.LFE73
 17162 0058 00000000 		.4byte	.LFB74
 17163 005c 36000000 		.4byte	.LFE74
 17164 0060 00000000 		.4byte	.LFB75
 17165 0064 82000000 		.4byte	.LFE75
 17166 0068 00000000 		.4byte	.LFB76
 17167 006c 70000000 		.4byte	.LFE76
 17168 0070 00000000 		.4byte	.LFB77
 17169 0074 60000000 		.4byte	.LFE77
 17170 0078 00000000 		.4byte	.LFB78
 17171 007c 6A000000 		.4byte	.LFE78
 17172 0080 00000000 		.4byte	.LFB79
 17173 0084 6A000000 		.4byte	.LFE79
 17174 0088 00000000 		.4byte	.LFB80
 17175 008c 6A000000 		.4byte	.LFE80
 17176 0090 00000000 		.4byte	.LFB81
 17177 0094 6A000000 		.4byte	.LFE81
 17178 0098 00000000 		.4byte	.LFB82
 17179 009c 6A000000 		.4byte	.LFE82
 17180 00a0 00000000 		.4byte	.LFB83
 17181 00a4 4A010000 		.4byte	.LFE83
 17182 00a8 00000000 		.4byte	.LFB84
 17183 00ac 60010000 		.4byte	.LFE84
 17184 00b0 00000000 		.4byte	.LFB85
 17185 00b4 4E010000 		.4byte	.LFE85
 17186 00b8 00000000 		.4byte	.LFB86
 17187 00bc 78010000 		.4byte	.LFE86
 17188 00c0 00000000 		.4byte	.LFB87
 17189 00c4 AA000000 		.4byte	.LFE87
 17190 00c8 00000000 		.4byte	.LFB88
 17191 00cc A4010000 		.4byte	.LFE88
 17192 00d0 00000000 		.4byte	.LFB89
 17193 00d4 88010000 		.4byte	.LFE89
 17194 00d8 00000000 		.4byte	.LFB90
 17195 00dc 5E020000 		.4byte	.LFE90
 17196 00e0 00000000 		.4byte	.LFB91
 17197 00e4 54010000 		.4byte	.LFE91
 17198 00e8 00000000 		.4byte	.LFB92
 17199 00ec E2010000 		.4byte	.LFE92
 17200 00f0 00000000 		.4byte	.LFB93
 17201 00f4 6A000000 		.4byte	.LFE93
 17202 00f8 00000000 		.4byte	.LFB94
 17203 00fc 60000000 		.4byte	.LFE94
 17204 0100 00000000 		.4byte	.LFB95
 17205 0104 E6000000 		.4byte	.LFE95
 17206 0108 00000000 		.4byte	.LFB96
 17207 010c 16000000 		.4byte	.LFE96
 17208 0110 00000000 		.4byte	.LFB97
 17209 0114 E6000000 		.4byte	.LFE97
 17210 0118 00000000 		.4byte	.LFB98
ARM GAS  C:\Users\RECEPC~1\AppData\Local\Temp\ccNQP0pp.s 			page 351


 17211 011c EC000000 		.4byte	.LFE98
 17212 0120 00000000 		.4byte	.LFB99
 17213 0124 8E010000 		.4byte	.LFE99
 17214 0128 00000000 		.4byte	.LFB100
 17215 012c 38100000 		.4byte	.LFE100
 17216 0130 00000000 		.4byte	.LFB101
 17217 0134 E4010000 		.4byte	.LFE101
 17218 0138 00000000 		.4byte	.LFB102
 17219 013c 24010000 		.4byte	.LFE102
 17220 0140 00000000 		.4byte	.LFB103
 17221 0144 60000000 		.4byte	.LFE103
 17222 0148 00000000 		.4byte	.LFB104
 17223 014c 40020000 		.4byte	.LFE104
 17224 0150 00000000 		.4byte	.LFB105
 17225 0154 6C000000 		.4byte	.LFE105
 17226 0158 00000000 		.4byte	.LFB106
 17227 015c B8000000 		.4byte	.LFE106
 17228 0160 00000000 		.4byte	.LFB107
 17229 0164 98000000 		.4byte	.LFE107
 17230 0168 00000000 		.4byte	.LFB108
 17231 016c AC000000 		.4byte	.LFE108
 17232 0170 00000000 		.4byte	.LFB109
 17233 0174 88000000 		.4byte	.LFE109
 17234 0178 00000000 		.4byte	.LFB110
 17235 017c 5E000000 		.4byte	.LFE110
 17236 0180 00000000 		.4byte	.LFB111
 17237 0184 2E000000 		.4byte	.LFE111
 17238 0188 00000000 		.4byte	.LFB112
 17239 018c 2C000000 		.4byte	.LFE112
 17240 0190 00000000 		.4byte	.LFB113
 17241 0194 2C000000 		.4byte	.LFE113
 17242 0198 00000000 		.4byte	.LFB114
 17243 019c 08020000 		.4byte	.LFE114
 17244 01a0 00000000 		.4byte	.LFB115
 17245 01a4 64010000 		.4byte	.LFE115
 17246 01a8 00000000 		.4byte	.LFB116
 17247 01ac 64010000 		.4byte	.LFE116
 17248 01b0 00000000 		.4byte	.LFB117
 17249 01b4 48000000 		.4byte	.LFE117
 17250 01b8 00000000 		.4byte	0
 17251 01bc 00000000 		.4byte	0
 17252              		.section	.debug_line,"",%progbits
 17253              	.Ldebug_line0:
 17254 0000 390D0000 		.section	.debug_str,"MS",%progbits,1
 17254      0200FC01 
 17254      00000201 
 17254      FB0E0D00 
 17254      01010101 
 17255              	.LASF473:
 17256 0000 5F707269 		.ascii	"_printerportside2\000"
 17256      6E746572 
 17256      706F7274 
 17256      73696465 
 17256      3200
 17257              	.LASF372:
 17258 0012 5F706F73 		.ascii	"_positionoffset\000"
 17258      6974696F 
ARM GAS  C:\Users\RECEPC~1\AppData\Local\Temp\ccNQP0pp.s 			page 352


 17258      6E6F6666 
 17258      73657400 
 17259              	.LASF287:
 17260 0022 5F70756D 		.ascii	"_pumprftransstate\000"
 17260      70726674 
 17260      72616E73 
 17260      73746174 
 17260      6500
 17261              	.LASF501:
 17262 0034 7070756D 		.ascii	"ppump\000"
 17262      7000
 17263              	.LASF367:
 17264 003a 5F766F6C 		.ascii	"_volumeunit\000"
 17264      756D6575 
 17264      6E697400 
 17265              	.LASF191:
 17266 0046 44495350 		.ascii	"DISPLAY1\000"
 17266      4C415931 
 17266      00
 17267              	.LASF192:
 17268 004f 44495350 		.ascii	"DISPLAY2\000"
 17268      4C415932 
 17268      00
 17269              	.LASF95:
 17270 0058 5F53494E 		.ascii	"_SINK_MESSAGE_\000"
 17270      4B5F4D45 
 17270      53534147 
 17270      455F00
 17271              	.LASF374:
 17272 0067 504E4541 		.ascii	"PNEARDISPENSERACTIVATEPROGRAMMING\000"
 17272      52444953 
 17272      50454E53 
 17272      45524143 
 17272      54495641 
 17273              	.LASF315:
 17274 0089 52657370 		.ascii	"ResponseSizeResolver\000"
 17274      6F6E7365 
 17274      53697A65 
 17274      5265736F 
 17274      6C766572 
 17275              	.LASF531:
 17276 009e 41637175 		.ascii	"AcquirePumpCompleteConfiguration\000"
 17276      69726550 
 17276      756D7043 
 17276      6F6D706C 
 17276      65746543 
 17277              	.LASF337:
 17278 00bf 5F726570 		.ascii	"_repushtimeoutmultiplier\000"
 17278      75736874 
 17278      696D656F 
 17278      75746D75 
 17278      6C746970 
 17279              	.LASF22:
 17280 00d8 73697A65 		.ascii	"sizetype\000"
 17280      74797065 
 17280      00
 17281              	.LASF497:
ARM GAS  C:\Users\RECEPC~1\AppData\Local\Temp\ccNQP0pp.s 			page 353


 17282 00e1 50726F63 		.ascii	"ProcessPumpTotalsDataPpuCheck\000"
 17282      65737350 
 17282      756D7054 
 17282      6F74616C 
 17282      73446174 
 17283              	.LASF61:
 17284 00ff 44495350 		.ascii	"DISPENSER_ACQUIRE_PUMP_STATE\000"
 17284      454E5345 
 17284      525F4143 
 17284      51554952 
 17284      455F5055 
 17285              	.LASF122:
 17286 011c 5F6D6573 		.ascii	"_messagelength\000"
 17286      73616765 
 17286      6C656E67 
 17286      746800
 17287              	.LASF327:
 17288 012b 5F50554D 		.ascii	"_PUMP_TRANSACTION_\000"
 17288      505F5452 
 17288      414E5341 
 17288      4354494F 
 17288      4E5F00
 17289              	.LASF200:
 17290 013e 50554D50 		.ascii	"PUMP_AUTHORIZATION\000"
 17290      5F415554 
 17290      484F5249 
 17290      5A415449 
 17290      4F4E00
 17291              	.LASF280:
 17292 0151 5F73696E 		.ascii	"_sinktransaction\000"
 17292      6B747261 
 17292      6E736163 
 17292      74696F6E 
 17292      00
 17293              	.LASF461:
 17294 0162 52465F43 		.ascii	"RF_CREDITSALEREPORT\000"
 17294      52454449 
 17294      5453414C 
 17294      45524550 
 17294      4F525400 
 17295              	.LASF144:
 17296 0176 44495350 		.ascii	"DISPLAY_SUBA_MANIJA\000"
 17296      4C41595F 
 17296      53554241 
 17296      5F4D414E 
 17296      494A4100 
 17297              	.LASF376:
 17298 018a 45455052 		.ascii	"EEPROM_CONFIGURATION_PAGE0\000"
 17298      4F4D5F43 
 17298      4F4E4649 
 17298      47555241 
 17298      54494F4E 
 17299              	.LASF38:
 17300 01a5 53494E4B 		.ascii	"SINK_BUSY\000"
 17300      5F425553 
 17300      5900
 17301              	.LASF378:
ARM GAS  C:\Users\RECEPC~1\AppData\Local\Temp\ccNQP0pp.s 			page 354


 17302 01af 45455052 		.ascii	"EEPROM_CONFIGURATION_PAGE2\000"
 17302      4F4D5F43 
 17302      4F4E4649 
 17302      47555241 
 17302      54494F4E 
 17303              	.LASF379:
 17304 01ca 45455052 		.ascii	"EEPROM_CONFIGURATION_PAGE3\000"
 17304      4F4D5F43 
 17304      4F4E4649 
 17304      47555241 
 17304      54494F4E 
 17305              	.LASF380:
 17306 01e5 45455052 		.ascii	"EEPROM_CONFIGURATION_PAGE4\000"
 17306      4F4D5F43 
 17306      4F4E4649 
 17306      47555241 
 17306      54494F4E 
 17307              	.LASF381:
 17308 0200 45455052 		.ascii	"EEPROM_CONFIGURATION_PAGE5\000"
 17308      4F4D5F43 
 17308      4F4E4649 
 17308      47555241 
 17308      54494F4E 
 17309              	.LASF382:
 17310 021b 45455052 		.ascii	"EEPROM_CONFIGURATION_PAGE6\000"
 17310      4F4D5F43 
 17310      4F4E4649 
 17310      47555241 
 17310      54494F4E 
 17311              	.LASF383:
 17312 0236 45455052 		.ascii	"EEPROM_CONFIGURATION_PAGE7\000"
 17312      4F4D5F43 
 17312      4F4E4649 
 17312      47555241 
 17312      54494F4E 
 17313              	.LASF58:
 17314 0251 53494E4B 		.ascii	"SINK_RELEASE_BY_ID\000"
 17314      5F52454C 
 17314      45415345 
 17314      5F42595F 
 17314      494400
 17315              	.LASF128:
 17316 0264 55415254 		.ascii	"UART_RF\000"
 17316      5F524600 
 17317              	.LASF12:
 17318 026c 696E7433 		.ascii	"int32_t\000"
 17318      325F7400 
 17319              	.LASF346:
 17320 0274 5F50554D 		.ascii	"_PUMP_JOB_QUEUE_\000"
 17320      505F4A4F 
 17320      425F5155 
 17320      4555455F 
 17320      00
 17321              	.LASF329:
 17322 0285 5F6A6F62 		.ascii	"_jobs\000"
 17322      7300
 17323              	.LASF526:
ARM GAS  C:\Users\RECEPC~1\AppData\Local\Temp\ccNQP0pp.s 			page 355


 17324 028b 41637175 		.ascii	"AcquirePumpMiscellaneousConfiguration\000"
 17324      69726550 
 17324      756D704D 
 17324      69736365 
 17324      6C6C616E 
 17325              	.LASF295:
 17326 02b1 5F727862 		.ascii	"_rxbuffersize\000"
 17326      75666665 
 17326      7273697A 
 17326      6500
 17327              	.LASF90:
 17328 02bf 49425554 		.ascii	"IBUTTON1_SCAN\000"
 17328      544F4E31 
 17328      5F534341 
 17328      4E00
 17329              	.LASF216:
 17330 02cd 50554D50 		.ascii	"PUMP_AUTHORIZED\000"
 17330      5F415554 
 17330      484F5249 
 17330      5A454400 
 17331              	.LASF56:
 17332 02dd 55415254 		.ascii	"UART_RF_AUTONOMOUS_MONITOR\000"
 17332      5F52465F 
 17332      4155544F 
 17332      4E4F4D4F 
 17332      55535F4D 
 17333              	.LASF418:
 17334 02f8 52465F4D 		.ascii	"RF_MUX_CREDIT_SERIAL_AUTH_REQUEST\000"
 17334      55585F43 
 17334      52454449 
 17334      545F5345 
 17334      5249414C 
 17335              	.LASF573:
 17336 031a 5F675F64 		.ascii	"_g_dispenserlayoutinfo\000"
 17336      69737065 
 17336      6E736572 
 17336      6C61796F 
 17336      7574696E 
 17337              	.LASF15:
 17338 0331 75696E74 		.ascii	"uint32\000"
 17338      333200
 17339              	.LASF248:
 17340 0338 5F737461 		.ascii	"_state\000"
 17340      746500
 17341              	.LASF164:
 17342 033f 44495350 		.ascii	"DISPLAY_COPIA_RECIBO\000"
 17342      4C41595F 
 17342      434F5049 
 17342      415F5245 
 17342      4349424F 
 17343              	.LASF523:
 17344 0354 50756D70 		.ascii	"PumpStopRequest\000"
 17344      53746F70 
 17344      52657175 
 17344      65737400 
 17345              	.LASF411:
 17346 0364 45455052 		.ascii	"EEPROM_DISPENSER_PUMP34_TRANSACTION_PAGE\000"
ARM GAS  C:\Users\RECEPC~1\AppData\Local\Temp\ccNQP0pp.s 			page 356


 17346      4F4D5F44 
 17346      49535045 
 17346      4E534552 
 17346      5F50554D 
 17347              	.LASF222:
 17348 038d 50554D50 		.ascii	"PUMP_UNKNOWN\000"
 17348      5F554E4B 
 17348      4E4F574E 
 17348      00
 17349              	.LASF206:
 17350 039a 50554D50 		.ascii	"PUMP_REAL_TIME_HOSE_VOLUME_REQUEST\000"
 17350      5F524541 
 17350      4C5F5449 
 17350      4D455F48 
 17350      4F53455F 
 17351              	.LASF83:
 17352 03bd 44495350 		.ascii	"DISPLAY1_MESSAGE\000"
 17352      4C415931 
 17352      5F4D4553 
 17352      53414745 
 17352      00
 17353              	.LASF485:
 17354 03ce 50726F63 		.ascii	"ProcessPumpTotalsDataStart\000"
 17354      65737350 
 17354      756D7054 
 17354      6F74616C 
 17354      73446174 
 17355              	.LASF514:
 17356 03e9 50756D70 		.ascii	"PumpPresetNoHose\000"
 17356      50726573 
 17356      65744E6F 
 17356      486F7365 
 17356      00
 17357              	.LASF65:
 17358 03fa 44495350 		.ascii	"DISPENSER_UNLOCK_EOT_PUMPS\000"
 17358      454E5345 
 17358      525F554E 
 17358      4C4F434B 
 17358      5F454F54 
 17359              	.LASF100:
 17360 0415 53746F70 		.ascii	"Stop\000"
 17360      00
 17361              	.LASF116:
 17362 041a 55415254 		.ascii	"UARTManager\000"
 17362      4D616E61 
 17362      67657200 
 17363              	.LASF455:
 17364 0426 5F52465F 		.ascii	"_RF_STATES_\000"
 17364      53544154 
 17364      45535F00 
 17365              	.LASF508:
 17366 0432 50756D70 		.ascii	"PumpTotalsDataRequest\000"
 17366      546F7461 
 17366      6C734461 
 17366      74615265 
 17366      71756573 
 17367              	.LASF356:
ARM GAS  C:\Users\RECEPC~1\AppData\Local\Temp\ccNQP0pp.s 			page 357


 17368 0448 50756D70 		.ascii	"PumpJobQueue\000"
 17368      4A6F6251 
 17368      75657565 
 17368      00
 17369              	.LASF245:
 17370 0455 5F50554D 		.ascii	"_PUMP_TRANS_HEALTH_\000"
 17370      505F5452 
 17370      414E535F 
 17370      4845414C 
 17370      54485F00 
 17371              	.LASF198:
 17372 0469 5F434F4D 		.ascii	"_COMMAND_ID_\000"
 17372      4D414E44 
 17372      5F49445F 
 17372      00
 17373              	.LASF469:
 17374 0476 5F74696D 		.ascii	"_timeouttoreceive\000"
 17374      656F7574 
 17374      746F7265 
 17374      63656976 
 17374      6500
 17375              	.LASF176:
 17376 0488 44495350 		.ascii	"DISPLAY_ABRIR_TURNO\000"
 17376      4C41595F 
 17376      41425249 
 17376      525F5455 
 17376      524E4F00 
 17377              	.LASF377:
 17378 049c 45455052 		.ascii	"EEPROM_CONFIGURATION_PAGE1\000"
 17378      4F4D5F43 
 17378      4F4E4649 
 17378      47555241 
 17378      54494F4E 
 17379              	.LASF456:
 17380 04b7 52465F49 		.ascii	"RF_IDLE\000"
 17380      444C4500 
 17381              	.LASF504:
 17382 04bf 50756D70 		.ascii	"PumpStateRequest\000"
 17382      53746174 
 17382      65526571 
 17382      75657374 
 17382      00
 17383              	.LASF163:
 17384 04d0 44495350 		.ascii	"DISPLAY_CONFIGURACIONES\000"
 17384      4C41595F 
 17384      434F4E46 
 17384      49475552 
 17384      4143494F 
 17385              	.LASF123:
 17386 04e8 5F6D6573 		.ascii	"_messagetx\000"
 17386      73616765 
 17386      747800
 17387              	.LASF323:
 17388 04f3 5F706F73 		.ascii	"_postconditions\000"
 17388      74636F6E 
 17388      64697469 
 17388      6F6E7300 
ARM GAS  C:\Users\RECEPC~1\AppData\Local\Temp\ccNQP0pp.s 			page 358


 17389              	.LASF414:
 17390 0503 45455052 		.ascii	"EEPROM_DISPENSER_PUMP43_TRANSACTION_PAGE\000"
 17390      4F4D5F44 
 17390      49535045 
 17390      4E534552 
 17390      5F50554D 
 17391              	.LASF20:
 17392 052c 63686172 		.ascii	"char8\000"
 17392      3800
 17393              	.LASF93:
 17394 0532 544F4747 		.ascii	"TOGGLE_SCREEN_AND_WRITE_TEST\000"
 17394      4C455F53 
 17394      43524545 
 17394      4E5F414E 
 17394      445F5752 
 17395              	.LASF72:
 17396 054f 44495350 		.ascii	"DISPENSER_ACQUIRE_TOTALS\000"
 17396      454E5345 
 17396      525F4143 
 17396      51554952 
 17396      455F544F 
 17397              	.LASF59:
 17398 0568 53494E4B 		.ascii	"SINK_RELEASE_BY_PTR\000"
 17398      5F52454C 
 17398      45415345 
 17398      5F42595F 
 17398      50545200 
 17399              	.LASF296:
 17400 057c 5F747261 		.ascii	"_transqueue\000"
 17400      6E737175 
 17400      65756500 
 17401              	.LASF476:
 17402 0588 70726576 		.ascii	"prevstate\000"
 17402      73746174 
 17402      6500
 17403              	.LASF388:
 17404 0592 45455052 		.ascii	"EEPROM_DISPENSER_PUMP1_PRODUCT_NAMES_PAGE\000"
 17404      4F4D5F44 
 17404      49535045 
 17404      4E534552 
 17404      5F50554D 
 17405              	.LASF465:
 17406 05bc 52465F41 		.ascii	"RF_AUTONOMOUS\000"
 17406      55544F4E 
 17406      4F4D4F55 
 17406      5300
 17407              	.LASF324:
 17408 05ca 496E6974 		.ascii	"Initialization\000"
 17408      69616C69 
 17408      7A617469 
 17408      6F6E00
 17409              	.LASF452:
 17410 05d9 52465F4D 		.ascii	"RF_MUX_COPY_REQUEST\000"
 17410      55585F43 
 17410      4F50595F 
 17410      52455155 
 17410      45535400 
ARM GAS  C:\Users\RECEPC~1\AppData\Local\Temp\ccNQP0pp.s 			page 359


 17411              	.LASF266:
 17412 05ed 5F707265 		.ascii	"_presettype\000"
 17412      73657474 
 17412      79706500 
 17413              	.LASF571:
 17414 05f9 5F675F70 		.ascii	"_g_pumpjobqueue\000"
 17414      756D706A 
 17414      6F627175 
 17414      65756500 
 17415              	.LASF407:
 17416 0609 45455052 		.ascii	"EEPROM_DISPENSER_PUMP24_TRANSACTION_PAGE\000"
 17416      4F4D5F44 
 17416      49535045 
 17416      4E534552 
 17416      5F50554D 
 17417              	.LASF77:
 17418 0632 5052494E 		.ascii	"PRINTER21_JOB\000"
 17418      54455232 
 17418      315F4A4F 
 17418      4200
 17419              	.LASF227:
 17420 0640 5F50554D 		.ascii	"_PUMP_FILL_CREDIT_\000"
 17420      505F4649 
 17420      4C4C5F43 
 17420      52454449 
 17420      545F00
 17421              	.LASF16:
 17422 0653 696E7438 		.ascii	"int8\000"
 17422      00
 17423              	.LASF449:
 17424 0658 52465F4D 		.ascii	"RF_MUX_ISLAND_OPER_DATA_RESPONSE\000"
 17424      55585F49 
 17424      534C414E 
 17424      445F4F50 
 17424      45525F44 
 17425              	.LASF467:
 17426 0679 5F746F61 		.ascii	"_toautonomoustimetoken\000"
 17426      75746F6E 
 17426      6F6D6F75 
 17426      7374696D 
 17426      65746F6B 
 17427              	.LASF494:
 17428 0690 7374726D 		.ascii	"strmlrc\000"
 17428      6C726300 
 17429              	.LASF384:
 17430 0698 45455052 		.ascii	"EEPROM_DISPENSER_PUMP1_LAYOUT_PAGE\000"
 17430      4F4D5F44 
 17430      49535045 
 17430      4E534552 
 17430      5F50554D 
 17431              	.LASF302:
 17432 06bb 50756D70 		.ascii	"PumpTransQueueDeallocate\000"
 17432      5472616E 
 17432      73517565 
 17432      75654465 
 17432      616C6C6F 
 17433              	.LASF205:
ARM GAS  C:\Users\RECEPC~1\AppData\Local\Temp\ccNQP0pp.s 			page 360


 17434 06d4 50554D50 		.ascii	"PUMP_REAL_TIME_MONEY_REQUEST\000"
 17434      5F524541 
 17434      4C5F5449 
 17434      4D455F4D 
 17434      4F4E4559 
 17435              	.LASF437:
 17436 06f1 52465F4D 		.ascii	"RF_MUX_CREDIT_SALE_PRINT_RESPONSE\000"
 17436      55585F43 
 17436      52454449 
 17436      545F5341 
 17436      4C455F50 
 17437              	.LASF117:
 17438 0713 5F554152 		.ascii	"_UART_MESSAGE_STATE_\000"
 17438      545F4D45 
 17438      53534147 
 17438      455F5354 
 17438      4154455F 
 17439              	.LASF447:
 17440 0728 52465F4D 		.ascii	"RF_MUX_POSITION_CFG_RESPONSE\000"
 17440      55585F50 
 17440      4F534954 
 17440      494F4E5F 
 17440      4346475F 
 17441              	.LASF4:
 17442 0745 5F5F7569 		.ascii	"__uint8_t\000"
 17442      6E74385F 
 17442      7400
 17443              	.LASF410:
 17444 074f 45455052 		.ascii	"EEPROM_DISPENSER_PUMP33_TRANSACTION_PAGE\000"
 17444      4F4D5F44 
 17444      49535045 
 17444      4E534552 
 17444      5F50554D 
 17445              	.LASF519:
 17446 0778 50756D70 		.ascii	"PumpPpuChange\000"
 17446      50707543 
 17446      68616E67 
 17446      6500
 17447              	.LASF141:
 17448 0786 44495350 		.ascii	"DISPLAY_INTRODUZCA_VALOR2\000"
 17448      4C41595F 
 17448      494E5452 
 17448      4F44555A 
 17448      43415F56 
 17449              	.LASF495:
 17450 07a0 6C6F6361 		.ascii	"locallrc\000"
 17450      6C6C7263 
 17450      00
 17451              	.LASF183:
 17452 07a9 44495350 		.ascii	"DISPLAY_IDENTIFICADOR_ESTACION\000"
 17452      4C41595F 
 17452      4944454E 
 17452      54494649 
 17452      4341444F 
 17453              	.LASF85:
 17454 07c8 44495350 		.ascii	"DISPLAY1_ANIMATE_HOME\000"
 17454      4C415931 
ARM GAS  C:\Users\RECEPC~1\AppData\Local\Temp\ccNQP0pp.s 			page 361


 17454      5F414E49 
 17454      4D415445 
 17454      5F484F4D 
 17455              	.LASF47:
 17456 07de 5F627566 		.ascii	"_buffer\000"
 17456      66657200 
 17457              	.LASF451:
 17458 07e6 52465F4D 		.ascii	"RF_MUX_ISLAND_ADMIN_RESPONSE\000"
 17458      55585F49 
 17458      534C414E 
 17458      445F4144 
 17458      4D494E5F 
 17459              	.LASF403:
 17460 0803 45455052 		.ascii	"EEPROM_DISPENSER_PUMP14_TRANSACTION_PAGE\000"
 17460      4F4D5F44 
 17460      49535045 
 17460      4E534552 
 17460      5F50554D 
 17461              	.LASF53:
 17462 082c 5F53494E 		.ascii	"_SINK_OBSERVABLES_\000"
 17462      4B5F4F42 
 17462      53455256 
 17462      41424C45 
 17462      535F00
 17463              	.LASF340:
 17464 083f 5F74696D 		.ascii	"_timeoutmultiplier\000"
 17464      656F7574 
 17464      6D756C74 
 17464      69706C69 
 17464      657200
 17465              	.LASF231:
 17466 0852 5F50554D 		.ascii	"_PUMP_TOTALS_\000"
 17466      505F544F 
 17466      54414C53 
 17466      5F00
 17467              	.LASF375:
 17468 0860 5F454550 		.ascii	"_EEPROM_MEM_FORMAT_\000"
 17468      524F4D5F 
 17468      4D454D5F 
 17468      464F524D 
 17468      41545F00 
 17469              	.LASF19:
 17470 0874 75696E74 		.ascii	"uint64\000"
 17470      363400
 17471              	.LASF6:
 17472 087b 6C6F6E67 		.ascii	"long int\000"
 17472      20696E74 
 17472      00
 17473              	.LASF285:
 17474 0884 5F726F75 		.ascii	"_roundrobinstate\000"
 17474      6E64726F 
 17474      62696E73 
 17474      74617465 
 17474      00
 17475              	.LASF276:
 17476 0895 5F70756D 		.ascii	"_pumpstate\000"
 17476      70737461 
ARM GAS  C:\Users\RECEPC~1\AppData\Local\Temp\ccNQP0pp.s 			page 362


 17476      746500
 17477              	.LASF134:
 17478 08a0 5F415641 		.ascii	"_AVAILABLE_DISPLAYS_\000"
 17478      494C4142 
 17478      4C455F44 
 17478      4953504C 
 17478      4159535F 
 17479              	.LASF63:
 17480 08b5 44495350 		.ascii	"DISPENSER_EXECUTE_CASH_TRANSACTION\000"
 17480      454E5345 
 17480      525F4558 
 17480      45435554 
 17480      455F4341 
 17481              	.LASF45:
 17482 08d8 5F6D6573 		.ascii	"_messagetimeoutmultiplier\000"
 17482      73616765 
 17482      74696D65 
 17482      6F75746D 
 17482      756C7469 
 17483              	.LASF74:
 17484 08f2 44495350 		.ascii	"DISPENSER_PUMP_BEEP_WARNING\000"
 17484      454E5345 
 17484      525F5055 
 17484      4D505F42 
 17484      4545505F 
 17485              	.LASF510:
 17486 090e 50756D70 		.ascii	"PumpPresetHose\000"
 17486      50726573 
 17486      6574486F 
 17486      736500
 17487              	.LASF543:
 17488 091d 50756D70 		.ascii	"PumpEnumeratorRequest\000"
 17488      456E756D 
 17488      65726174 
 17488      6F725265 
 17488      71756573 
 17489              	.LASF69:
 17490 0933 44495350 		.ascii	"DISPENSER_CONFIGURE_PRICES\000"
 17490      454E5345 
 17490      525F434F 
 17490      4E464947 
 17490      5552455F 
 17491              	.LASF385:
 17492 094e 45455052 		.ascii	"EEPROM_DISPENSER_PUMP2_LAYOUT_PAGE\000"
 17492      4F4D5F44 
 17492      49535045 
 17492      4E534552 
 17492      5F50554D 
 17493              	.LASF392:
 17494 0971 45455052 		.ascii	"EEPROM_DISPENSER_PUMP1_PPU_INFO_PAGE\000"
 17494      4F4D5F44 
 17494      49535045 
 17494      4E534552 
 17494      5F50554D 
 17495              	.LASF464:
 17496 0996 5F52465F 		.ascii	"_RF_AUTONOMOUS_MODE_\000"
 17496      4155544F 
ARM GAS  C:\Users\RECEPC~1\AppData\Local\Temp\ccNQP0pp.s 			page 363


 17496      4E4F4D4F 
 17496      55535F4D 
 17496      4F44455F 
 17497              	.LASF131:
 17498 09ab 55415254 		.ascii	"UART_DISPLAY1\000"
 17498      5F444953 
 17498      504C4159 
 17498      3100
 17499              	.LASF132:
 17500 09b9 55415254 		.ascii	"UART_DISPLAY2\000"
 17500      5F444953 
 17500      504C4159 
 17500      3200
 17501              	.LASF236:
 17502 09c7 5F50554D 		.ascii	"_PUMP_NETWORK_ENUMERATOR_\000"
 17502      505F4E45 
 17502      54574F52 
 17502      4B5F454E 
 17502      554D4552 
 17503              	.LASF349:
 17504 09e1 5F706A6F 		.ascii	"_pjobqueueallocated\000"
 17504      62717565 
 17504      7565616C 
 17504      6C6F6361 
 17504      74656400 
 17505              	.LASF161:
 17506 09f5 44495350 		.ascii	"DISPLAY_INTRODUZCA_KILOMETRAJE\000"
 17506      4C41595F 
 17506      494E5452 
 17506      4F44555A 
 17506      43415F4B 
 17507              	.LASF423:
 17508 0a14 52465F4D 		.ascii	"RF_MUX_CREDIT_PRESET_NOTIFICATION_RESPONSE\000"
 17508      55585F43 
 17508      52454449 
 17508      545F5052 
 17508      45534554 
 17509              	.LASF88:
 17510 0a3f 44495350 		.ascii	"DISPLAY2_UPDATE_DATETIME\000"
 17510      4C415932 
 17510      5F555044 
 17510      4154455F 
 17510      44415445 
 17511              	.LASF243:
 17512 0a58 5F50554D 		.ascii	"_PUMP_IDLE_\000"
 17512      505F4944 
 17512      4C455F00 
 17513              	.LASF64:
 17514 0a64 44495350 		.ascii	"DISPENSER_EXECUTE_CREDIT_TRANSACTION\000"
 17514      454E5345 
 17514      525F4558 
 17514      45435554 
 17514      455F4352 
 17515              	.LASF80:
 17516 0a89 5052494E 		.ascii	"PRINTER2_GENERIC_JOB\000"
 17516      54455232 
 17516      5F47454E 
ARM GAS  C:\Users\RECEPC~1\AppData\Local\Temp\ccNQP0pp.s 			page 364


 17516      45524943 
 17516      5F4A4F42 
 17517              	.LASF169:
 17518 0a9e 44495350 		.ascii	"DISPLAY_POR_FAVOR_ESPERE\000"
 17518      4C41595F 
 17518      504F525F 
 17518      4641564F 
 17518      525F4553 
 17519              	.LASF416:
 17520 0ab7 52465F4D 		.ascii	"RF_MUX_STATE_REQUEST\000"
 17520      55585F53 
 17520      54415445 
 17520      5F524551 
 17520      55455354 
 17521              	.LASF422:
 17522 0acc 52465F4D 		.ascii	"RF_MUX_CREDIT_PRESET_NOTIFICATION_REQUEST\000"
 17522      55585F43 
 17522      52454449 
 17522      545F5052 
 17522      45534554 
 17523              	.LASF174:
 17524 0af6 44495350 		.ascii	"DISPLAY_FECHA\000"
 17524      4C41595F 
 17524      46454348 
 17524      4100
 17525              	.LASF331:
 17526 0b04 5F726565 		.ascii	"_reenqueue\000"
 17526      6E717565 
 17526      756500
 17527              	.LASF518:
 17528 0b0f 50756D70 		.ascii	"PumpFullPresetNoHose\000"
 17528      46756C6C 
 17528      50726573 
 17528      65744E6F 
 17528      486F7365 
 17529              	.LASF326:
 17530 0b24 50756D70 		.ascii	"PumpTransactionJob\000"
 17530      5472616E 
 17530      73616374 
 17530      696F6E4A 
 17530      6F6200
 17531              	.LASF0:
 17532 0b37 7369676E 		.ascii	"signed char\000"
 17532      65642063 
 17532      68617200 
 17533              	.LASF25:
 17534 0b43 504E4541 		.ascii	"PNEAR_BYTE_PTR\000"
 17534      525F4259 
 17534      54455F50 
 17534      545200
 17535              	.LASF11:
 17536 0b52 75696E74 		.ascii	"uint8_t\000"
 17536      385F7400 
 17537              	.LASF503:
 17538 0b5a 50756D70 		.ascii	"PumpStartupAuthorization\000"
 17538      53746172 
 17538      74757041 
ARM GAS  C:\Users\RECEPC~1\AppData\Local\Temp\ccNQP0pp.s 			page 365


 17538      7574686F 
 17538      72697A61 
 17539              	.LASF155:
 17540 0b73 44495350 		.ascii	"DISPLAY_ID_DIGITAL\000"
 17540      4C41595F 
 17540      49445F44 
 17540      49474954 
 17540      414C00
 17541              	.LASF153:
 17542 0b86 44495350 		.ascii	"DISPLAY_TIEMPO_EXPIRADO\000"
 17542      4C41595F 
 17542      5449454D 
 17542      504F5F45 
 17542      58504952 
 17543              	.LASF557:
 17544 0b9e 5F706275 		.ascii	"_pbuffer\000"
 17544      66666572 
 17544      00
 17545              	.LASF108:
 17546 0ba7 436C6561 		.ascii	"ClearRxBuffer\000"
 17546      72527842 
 17546      75666665 
 17546      7200
 17547              	.LASF105:
 17548 0bb5 47657443 		.ascii	"GetChar\000"
 17548      68617200 
 17549              	.LASF417:
 17550 0bbd 52465F4D 		.ascii	"RF_MUX_STATE_RESPONSE\000"
 17550      55585F53 
 17550      54415445 
 17550      5F524553 
 17550      504F4E53 
 17551              	.LASF313:
 17552 0bd3 52657370 		.ascii	"Response\000"
 17552      6F6E7365 
 17552      00
 17553              	.LASF402:
 17554 0bdc 45455052 		.ascii	"EEPROM_DISPENSER_PUMP13_TRANSACTION_PAGE\000"
 17554      4F4D5F44 
 17554      49535045 
 17554      4E534552 
 17554      5F50554D 
 17555              	.LASF179:
 17556 0c05 44495350 		.ascii	"DISPLAY_USUARIO_VALIDO\000"
 17556      4C41595F 
 17556      55535541 
 17556      52494F5F 
 17556      56414C49 
 17557              	.LASF177:
 17558 0c1c 44495350 		.ascii	"DISPLAY_CERRAR_TURNO\000"
 17558      4C41595F 
 17558      43455252 
 17558      41525F54 
 17558      55524E4F 
 17559              	.LASF342:
 17560 0c31 5F707265 		.ascii	"_presponse\000"
 17560      73706F6E 
ARM GAS  C:\Users\RECEPC~1\AppData\Local\Temp\ccNQP0pp.s 			page 366


 17560      736500
 17561              	.LASF528:
 17562 0c3c 50756D70 		.ascii	"PumpHoseActiveState\000"
 17562      486F7365 
 17562      41637469 
 17562      76655374 
 17562      61746500 
 17563              	.LASF166:
 17564 0c50 44495350 		.ascii	"DISPLAY_SELECCIONE_POSICION\000"
 17564      4C41595F 
 17564      53454C45 
 17564      4343494F 
 17564      4E455F50 
 17565              	.LASF120:
 17566 0c6c 50454E44 		.ascii	"PENDING\000"
 17566      494E4700 
 17567              	.LASF84:
 17568 0c74 44495350 		.ascii	"DISPLAY1_UPDATE_DATETIME\000"
 17568      4C415931 
 17568      5F555044 
 17568      4154455F 
 17568      44415445 
 17569              	.LASF371:
 17570 0c8d 5F707265 		.ascii	"_presetdigits\000"
 17570      73657464 
 17570      69676974 
 17570      7300
 17571              	.LASF211:
 17572 0c9b 4C52436E 		.ascii	"LRCn\000"
 17572      00
 17573              	.LASF1:
 17574 0ca0 756E7369 		.ascii	"unsigned char\000"
 17574      676E6564 
 17574      20636861 
 17574      7200
 17575              	.LASF359:
 17576 0cae 5F6E756D 		.ascii	"_numpositions\000"
 17576      706F7369 
 17576      74696F6E 
 17576      7300
 17577              	.LASF486:
 17578 0cbc 686F7365 		.ascii	"hosecount\000"
 17578      636F756E 
 17578      7400
 17579              	.LASF140:
 17580 0cc6 44495350 		.ascii	"DISPLAY_INTRODUZCA_VALOR\000"
 17580      4C41595F 
 17580      494E5452 
 17580      4F44555A 
 17580      43415F56 
 17581              	.LASF424:
 17582 0cdf 52465F4D 		.ascii	"RF_MUX_CASH_SALE_START_REQUEST\000"
 17582      55585F43 
 17582      4153485F 
 17582      53414C45 
 17582      5F535441 
 17583              	.LASF554:
ARM GAS  C:\Users\RECEPC~1\AppData\Local\Temp\ccNQP0pp.s 			page 367


 17584 0cfe 706A6F62 		.ascii	"pjobcntr\000"
 17584      636E7472 
 17584      00
 17585              	.LASF271:
 17586 0d07 5F736572 		.ascii	"_serial\000"
 17586      69616C00 
 17587              	.LASF168:
 17588 0d0f 44495350 		.ascii	"DISPLAY_ESPERANDO_AUTORIZACION\000"
 17588      4C41595F 
 17588      45535045 
 17588      52414E44 
 17588      4F5F4155 
 17589              	.LASF547:
 17590 0d2e 50756D70 		.ascii	"PumpEnumeratorTimeout\000"
 17590      456E756D 
 17590      65726174 
 17590      6F725469 
 17590      6D656F75 
 17591              	.LASF502:
 17592 0d44 70756172 		.ascii	"puartdisp\000"
 17592      74646973 
 17592      7000
 17593              	.LASF118:
 17594 0d4e 46524545 		.ascii	"FREE\000"
 17594      00
 17595              	.LASF460:
 17596 0d53 52465F57 		.ascii	"RF_WORKSHIFTREQ\000"
 17596      4F524B53 
 17596      48494654 
 17596      52455100 
 17597              	.LASF330:
 17598 0d63 50756D70 		.ascii	"PumpTransaction\000"
 17598      5472616E 
 17598      73616374 
 17598      696F6E00 
 17599              	.LASF484:
 17600 0d73 65657072 		.ascii	"eeprompage\000"
 17600      6F6D7061 
 17600      676500
 17601              	.LASF68:
 17602 0d7e 44495350 		.ascii	"DISPENSER_ACQUIRE_CONFIGURATION_INFORMATION\000"
 17602      454E5345 
 17602      525F4143 
 17602      51554952 
 17602      455F434F 
 17603              	.LASF43:
 17604 0daa 5F6D6573 		.ascii	"_messagedelay\000"
 17604      73616765 
 17604      64656C61 
 17604      7900
 17605              	.LASF366:
 17606 0db8 5F766F6C 		.ascii	"_volumedecimals\000"
 17606      756D6564 
 17606      6563696D 
 17606      616C7300 
 17607              	.LASF51:
 17608 0dc8 5F426F6F 		.ascii	"_Bool\000"
ARM GAS  C:\Users\RECEPC~1\AppData\Local\Temp\ccNQP0pp.s 			page 368


 17608      6C00
 17609              	.LASF361:
 17610 0dce 5F686F73 		.ascii	"_hosesposition2\000"
 17610      6573706F 
 17610      73697469 
 17610      6F6E3200 
 17611              	.LASF270:
 17612 0dde 5F766F6C 		.ascii	"_volumeamount\000"
 17612      756D6561 
 17612      6D6F756E 
 17612      7400
 17613              	.LASF562:
 17614 0dec 43617374 		.ascii	"CastVolumeValue\000"
 17614      566F6C75 
 17614      6D655661 
 17614      6C756500 
 17615              	.LASF109:
 17616 0dfc 57726974 		.ascii	"WriteTxData\000"
 17616      65547844 
 17616      61746100 
 17617              	.LASF37:
 17618 0e08 53494E4B 		.ascii	"SINK_ALLOCATED\000"
 17618      5F414C4C 
 17618      4F434154 
 17618      454400
 17619              	.LASF353:
 17620 0e17 5065656B 		.ascii	"Peek\000"
 17620      00
 17621              	.LASF304:
 17622 0e1c 50756D70 		.ascii	"PumpTransQueueDequeue\000"
 17622      5472616E 
 17622      73517565 
 17622      75654465 
 17622      71756575 
 17623              	.LASF21:
 17624 0e32 63686172 		.ascii	"char\000"
 17624      00
 17625              	.LASF443:
 17626 0e37 52465F4D 		.ascii	"RF_MUX_LAST_CASH_SALE_RESPONSE\000"
 17626      55585F4C 
 17626      4153545F 
 17626      43415348 
 17626      5F53414C 
 17627              	.LASF436:
 17628 0e56 52465F4D 		.ascii	"RF_MUX_CREDIT_SALE_PRINT_REQUEST\000"
 17628      55585F43 
 17628      52454449 
 17628      545F5341 
 17628      4C455F50 
 17629              	.LASF181:
 17630 0e77 44495350 		.ascii	"DISPLAY_AMBAS_IMPRESORAS_FUNCIONANDO\000"
 17630      4C41595F 
 17630      414D4241 
 17630      535F494D 
 17630      50524553 
 17631              	.LASF32:
 17632 0e9c 42524F41 		.ascii	"BROADCASTFOREVER\000"
ARM GAS  C:\Users\RECEPC~1\AppData\Local\Temp\ccNQP0pp.s 			page 369


 17632      44434153 
 17632      54464F52 
 17632      45564552 
 17632      00
 17633              	.LASF87:
 17634 0ead 44495350 		.ascii	"DISPLAY2_MESSAGE\000"
 17634      4C415932 
 17634      5F4D4553 
 17634      53414745 
 17634      00
 17635              	.LASF210:
 17636 0ebe 5052446E 		.ascii	"PRDn\000"
 17636      00
 17637              	.LASF509:
 17638 0ec3 50756D70 		.ascii	"PumpDataToPump\000"
 17638      44617461 
 17638      546F5075 
 17638      6D7000
 17639              	.LASF320:
 17640 0ed2 5F6F6E65 		.ascii	"_oneshotpreconditions\000"
 17640      73686F74 
 17640      70726563 
 17640      6F6E6469 
 17640      74696F6E 
 17641              	.LASF129:
 17642 0ee8 55415254 		.ascii	"UART_PRINTER\000"
 17642      5F505249 
 17642      4E544552 
 17642      00
 17643              	.LASF389:
 17644 0ef5 45455052 		.ascii	"EEPROM_DISPENSER_PUMP2_PRODUCT_NAMES_PAGE\000"
 17644      4F4D5F44 
 17644      49535045 
 17644      4E534552 
 17644      5F50554D 
 17645              	.LASF364:
 17646 0f1f 5F6D6F6E 		.ascii	"_moneydecimals\000"
 17646      65796465 
 17646      63696D61 
 17646      6C7300
 17647              	.LASF104:
 17648 0f2e 52656164 		.ascii	"ReadRxStatus\000"
 17648      52785374 
 17648      61747573 
 17648      00
 17649              	.LASF193:
 17650 0f3b 50535452 		.ascii	"PSTR\000"
 17650      00
 17651              	.LASF368:
 17652 0f40 5F6D696E 		.ascii	"_minmoneyvalue\000"
 17652      6D6F6E65 
 17652      7976616C 
 17652      756500
 17653              	.LASF545:
 17654 0f4f 76617230 		.ascii	"var0\000"
 17654      00
 17655              	.LASF286:
ARM GAS  C:\Users\RECEPC~1\AppData\Local\Temp\ccNQP0pp.s 			page 370


 17656 0f54 5F706F73 		.ascii	"_positionlocked\000"
 17656      6974696F 
 17656      6E6C6F63 
 17656      6B656400 
 17657              	.LASF343:
 17658 0f64 5F707075 		.ascii	"_ppump\000"
 17658      6D7000
 17659              	.LASF241:
 17660 0f6b 5F50554D 		.ascii	"_PUMP_TRANS_STATE_\000"
 17660      505F5452 
 17660      414E535F 
 17660      53544154 
 17660      455F00
 17661              	.LASF406:
 17662 0f7e 45455052 		.ascii	"EEPROM_DISPENSER_PUMP23_TRANSACTION_PAGE\000"
 17662      4F4D5F44 
 17662      49535045 
 17662      4E534552 
 17662      5F50554D 
 17663              	.LASF546:
 17664 0fa7 76617231 		.ascii	"var1\000"
 17664      00
 17665              	.LASF114:
 17666 0fac 50757443 		.ascii	"PutCRLF\000"
 17666      524C4600 
 17667              	.LASF538:
 17668 0fb4 70627566 		.ascii	"pbuffer\000"
 17668      66657200 
 17669              	.LASF515:
 17670 0fbc 50756D70 		.ascii	"PumpPresetNotification\000"
 17670      50726573 
 17670      65744E6F 
 17670      74696669 
 17670      63617469 
 17671              	.LASF297:
 17672 0fd3 5F747261 		.ascii	"_transqueuelocked\000"
 17672      6E737175 
 17672      6575656C 
 17672      6F636B65 
 17672      6400
 17673              	.LASF267:
 17674 0fe5 5F686F73 		.ascii	"_hoseid\000"
 17674      65696400 
 17675              	.LASF204:
 17676 0fed 50554D50 		.ascii	"PUMP_TOTALS_DATA_REQUEST\000"
 17676      5F544F54 
 17676      414C535F 
 17676      44415441 
 17676      5F524551 
 17677              	.LASF217:
 17678 1006 50554D50 		.ascii	"PUMP_BUSY\000"
 17678      5F425553 
 17678      5900
 17679              	.LASF146:
 17680 1010 44495350 		.ascii	"DISPLAY_BAJE_MANIJA\000"
 17680      4C41595F 
 17680      42414A45 
ARM GAS  C:\Users\RECEPC~1\AppData\Local\Temp\ccNQP0pp.s 			page 371


 17680      5F4D414E 
 17680      494A4100 
 17681              	.LASF480:
 17682 1024 50726F63 		.ascii	"ProcessPumpRTMoneyRequest\000"
 17682      65737350 
 17682      756D7052 
 17682      544D6F6E 
 17682      65795265 
 17683              	.LASF76:
 17684 103e 5052494E 		.ascii	"PRINTER12_JOB\000"
 17684      54455231 
 17684      325F4A4F 
 17684      4200
 17685              	.LASF387:
 17686 104c 45455052 		.ascii	"EEPROM_DISPENSER_PUMP4_LAYOUT_PAGE\000"
 17686      4F4D5F44 
 17686      49535045 
 17686      4E534552 
 17686      5F50554D 
 17687              	.LASF223:
 17688 106f 5F545241 		.ascii	"_TRANSACTION_NAMES_\000"
 17688      4E534143 
 17688      54494F4E 
 17688      5F4E414D 
 17688      45535F00 
 17689              	.LASF44:
 17690 1083 5F6D6573 		.ascii	"_messagetimeout\000"
 17690      73616765 
 17690      74696D65 
 17690      6F757400 
 17691              	.LASF420:
 17692 1093 52465F4D 		.ascii	"RF_MUX_CREDIT_PRESET_AUTHORIZATION_REQUEST\000"
 17692      55585F43 
 17692      52454449 
 17692      545F5052 
 17692      45534554 
 17693              	.LASF478:
 17694 10be 41637175 		.ascii	"AcquireDatatoPumpResponse\000"
 17694      69726544 
 17694      61746174 
 17694      6F50756D 
 17694      70526573 
 17695              	.LASF139:
 17696 10d8 44495350 		.ascii	"DISPLAY_FORMA_PROGRAMACION\000"
 17696      4C41595F 
 17696      464F524D 
 17696      415F5052 
 17696      4F475241 
 17697              	.LASF112:
 17698 10f3 50757453 		.ascii	"PutString\000"
 17698      7472696E 
 17698      6700
 17699              	.LASF240:
 17700 10fd 5F50554D 		.ascii	"_PUMP_COMPLETE_CONFIGURATION_\000"
 17700      505F434F 
 17700      4D504C45 
 17700      54455F43 
ARM GAS  C:\Users\RECEPC~1\AppData\Local\Temp\ccNQP0pp.s 			page 372


 17700      4F4E4649 
 17701              	.LASF355:
 17702 111b 436C6561 		.ascii	"Clear\000"
 17702      7200
 17703              	.LASF564:
 17704 1121 73686966 		.ascii	"shiftbydelimiter\000"
 17704      74627964 
 17704      656C696D 
 17704      69746572 
 17704      00
 17705              	.LASF98:
 17706 1132 43757374 		.ascii	"CustomUARTSend\000"
 17706      6F6D5541 
 17706      52545365 
 17706      6E6400
 17707              	.LASF500:
 17708 1141 50756D70 		.ascii	"PumpAuthorization\000"
 17708      41757468 
 17708      6F72697A 
 17708      6174696F 
 17708      6E00
 17709              	.LASF430:
 17710 1153 52465F4D 		.ascii	"RF_MUX_TOTALS_REPORT_REQUEST\000"
 17710      55585F54 
 17710      4F54414C 
 17710      535F5245 
 17710      504F5254 
 17711              	.LASF365:
 17712 1170 5F707075 		.ascii	"_ppudecimals\000"
 17712      64656369 
 17712      6D616C73 
 17712      00
 17713              	.LASF274:
 17714 117d 5F70756D 		.ascii	"_pumpid\000"
 17714      70696400 
 17715              	.LASF536:
 17716 1185 41637175 		.ascii	"AcquireDispenserLayoutInformation\000"
 17716      69726544 
 17716      69737065 
 17716      6E736572 
 17716      4C61796F 
 17717              	.LASF135:
 17718 11a7 44495350 		.ascii	"DISPLAY_INICIO0\000"
 17718      4C41595F 
 17718      494E4943 
 17718      494F3000 
 17719              	.LASF136:
 17720 11b7 44495350 		.ascii	"DISPLAY_INICIO1\000"
 17720      4C41595F 
 17720      494E4943 
 17720      494F3100 
 17721              	.LASF137:
 17722 11c7 44495350 		.ascii	"DISPLAY_INICIO2\000"
 17722      4C41595F 
 17722      494E4943 
 17722      494F3200 
 17723              	.LASF30:
ARM GAS  C:\Users\RECEPC~1\AppData\Local\Temp\ccNQP0pp.s 			page 373


 17724 11d7 44454C41 		.ascii	"DELAYEDALLINTERESTED\000"
 17724      59454441 
 17724      4C4C494E 
 17724      54455245 
 17724      53544544 
 17725              	.LASF294:
 17726 11ec 5F727862 		.ascii	"_rxbuffer\000"
 17726      75666665 
 17726      7200
 17727              	.LASF318:
 17728 11f6 5F726573 		.ascii	"_responsesize\000"
 17728      706F6E73 
 17728      6573697A 
 17728      6500
 17729              	.LASF350:
 17730 1204 526F7461 		.ascii	"Rotate\000"
 17730      746500
 17731              	.LASF251:
 17732 120b 504E4541 		.ascii	"PNEAR_PUMPTRANSACTIONALSTATEPTR\000"
 17732      525F5055 
 17732      4D505452 
 17732      414E5341 
 17732      4354494F 
 17733              	.LASF180:
 17734 122b 44495350 		.ascii	"DISPLAY_USUARIO_INVALIDO\000"
 17734      4C41595F 
 17734      55535541 
 17734      52494F5F 
 17734      494E5641 
 17735              	.LASF466:
 17736 1244 52465F4E 		.ascii	"RF_NON_AUTONOMOUS\000"
 17736      4F4E5F41 
 17736      55544F4E 
 17736      4F4D4F55 
 17736      5300
 17737              	.LASF553:
 17738 1256 7074726A 		.ascii	"ptrjob\000"
 17738      6F6200
 17739              	.LASF395:
 17740 125d 45455052 		.ascii	"EEPROM_DISPENSER_PUMP4_PPU_INFO_PAGE\000"
 17740      4F4D5F44 
 17740      49535045 
 17740      4E534552 
 17740      5F50554D 
 17741              	.LASF293:
 17742 1282 5F747261 		.ascii	"_trasactionbuffer\000"
 17742      73616374 
 17742      696F6E62 
 17742      75666665 
 17742      7200
 17743              	.LASF558:
 17744 1294 46696E64 		.ascii	"FindLRC\000"
 17744      4C524300 
 17745              	.LASF482:
 17746 129c 50726F63 		.ascii	"ProcessPumpRTHoseVolumeRequestGlobal\000"
 17746      65737350 
 17746      756D7052 
ARM GAS  C:\Users\RECEPC~1\AppData\Local\Temp\ccNQP0pp.s 			page 374


 17746      54486F73 
 17746      65566F6C 
 17747              	.LASF572:
 17748 12c1 5F675F70 		.ascii	"_g_pumps\000"
 17748      756D7073 
 17748      00
 17749              	.LASF352:
 17750 12ca 456E7175 		.ascii	"Enqueue\000"
 17750      65756500 
 17751              	.LASF530:
 17752 12d2 7073696E 		.ascii	"psinkmsg\000"
 17752      6B6D7367 
 17752      00
 17753              	.LASF488:
 17754 12db 50726F63 		.ascii	"ProcessPumpTotalsDataEnd\000"
 17754      65737350 
 17754      756D7054 
 17754      6F74616C 
 17754      73446174 
 17755              	.LASF272:
 17756 12f4 50756D70 		.ascii	"PumpAuthorizationInfo\000"
 17756      41757468 
 17756      6F72697A 
 17756      6174696F 
 17756      6E496E66 
 17757              	.LASF396:
 17758 130a 45455052 		.ascii	"EEPROM_INSEPET_RESERVED_PAGE1\000"
 17758      4F4D5F49 
 17758      4E534550 
 17758      45545F52 
 17758      45534552 
 17759              	.LASF397:
 17760 1328 45455052 		.ascii	"EEPROM_INSEPET_RESERVED_PAGE2\000"
 17760      4F4D5F49 
 17760      4E534550 
 17760      45545F52 
 17760      45534552 
 17761              	.LASF398:
 17762 1346 45455052 		.ascii	"EEPROM_INSEPET_RESERVED_PAGE3\000"
 17762      4F4D5F49 
 17762      4E534550 
 17762      45545F52 
 17762      45534552 
 17763              	.LASF399:
 17764 1364 45455052 		.ascii	"EEPROM_INSEPET_RESERVED_PAGE4\000"
 17764      4F4D5F49 
 17764      4E534550 
 17764      45545F52 
 17764      45534552 
 17765              	.LASF290:
 17766 1382 5F727476 		.ascii	"_rtvolumeamount\000"
 17766      6F6C756D 
 17766      65616D6F 
 17766      756E7400 
 17767              	.LASF333:
 17768 1392 5F64656C 		.ascii	"_delay\000"
 17768      617900
ARM GAS  C:\Users\RECEPC~1\AppData\Local\Temp\ccNQP0pp.s 			page 375


 17769              	.LASF391:
 17770 1399 45455052 		.ascii	"EEPROM_DISPENSER_PUMP4_PRODUCT_NAMES_PAGE\000"
 17770      4F4D5F44 
 17770      49535045 
 17770      4E534552 
 17770      5F50554D 
 17771              	.LASF440:
 17772 13c3 52465F4D 		.ascii	"RF_MUX_PENDING_CREDIT_SALE_REQUEST\000"
 17772      55585F50 
 17772      454E4449 
 17772      4E475F43 
 17772      52454449 
 17773              	.LASF565:
 17774 13e6 73686966 		.ascii	"shiftcount\000"
 17774      74636F75 
 17774      6E7400
 17775              	.LASF33:
 17776 13f1 414C4C49 		.ascii	"ALLINTERESTEDFOREVER\000"
 17776      4E544552 
 17776      45535445 
 17776      44464F52 
 17776      45564552 
 17777              	.LASF548:
 17778 1406 41637175 		.ascii	"AcquirePumpSpecialFunctionResponseResolver\000"
 17778      69726550 
 17778      756D7053 
 17778      70656369 
 17778      616C4675 
 17779              	.LASF357:
 17780 1431 5F696E63 		.ascii	"_inconfiguration\000"
 17780      6F6E6669 
 17780      67757261 
 17780      74696F6E 
 17780      00
 17781              	.LASF232:
 17782 1442 5F50554D 		.ascii	"_PUMP_STATE_\000"
 17782      505F5354 
 17782      4154455F 
 17782      00
 17783              	.LASF559:
 17784 144f 496E6974 		.ascii	"InitiateTransaction\000"
 17784      69617465 
 17784      5472616E 
 17784      73616374 
 17784      696F6E00 
 17785              	.LASF7:
 17786 1463 6C6F6E67 		.ascii	"long unsigned int\000"
 17786      20756E73 
 17786      69676E65 
 17786      6420696E 
 17786      7400
 17787              	.LASF237:
 17788 1475 5F50554D 		.ascii	"_PUMP_PROGRAM_MODE_\000"
 17788      505F5052 
 17788      4F475241 
 17788      4D5F4D4F 
 17788      44455F00 
ARM GAS  C:\Users\RECEPC~1\AppData\Local\Temp\ccNQP0pp.s 			page 376


 17789              	.LASF185:
 17790 1489 44495350 		.ascii	"DISPLAY_DUMMY0\000"
 17790      4C41595F 
 17790      44554D4D 
 17790      593000
 17791              	.LASF186:
 17792 1498 44495350 		.ascii	"DISPLAY_DUMMY1\000"
 17792      4C41595F 
 17792      44554D4D 
 17792      593100
 17793              	.LASF187:
 17794 14a7 44495350 		.ascii	"DISPLAY_DUMMY2\000"
 17794      4C41595F 
 17794      44554D4D 
 17794      593200
 17795              	.LASF188:
 17796 14b6 44495350 		.ascii	"DISPLAY_DUMMY3\000"
 17796      4C41595F 
 17796      44554D4D 
 17796      593300
 17797              	.LASF244:
 17798 14c5 5F50554D 		.ascii	"_PUMP_UNKNOWN_\000"
 17798      505F554E 
 17798      4B4E4F57 
 17798      4E5F00
 17799              	.LASF524:
 17800 14d4 50756D70 		.ascii	"PumpStopAllRequest\000"
 17800      53746F70 
 17800      416C6C52 
 17800      65717565 
 17800      737400
 17801              	.LASF165:
 17802 14e7 44495350 		.ascii	"DISPLAY_IMPRIMIENDO_RECIBO\000"
 17802      4C41595F 
 17802      494D5052 
 17802      494D4945 
 17802      4E444F5F 
 17803              	.LASF477:
 17804 1502 41637175 		.ascii	"AcquirePumpStateResponse\000"
 17804      69726550 
 17804      756D7053 
 17804      74617465 
 17804      52657370 
 17805              	.LASF427:
 17806 151b 52465F4D 		.ascii	"RF_MUX_CASH_SALE_END_REPORT_RESPONSE\000"
 17806      55585F43 
 17806      4153485F 
 17806      53414C45 
 17806      5F454E44 
 17807              	.LASF428:
 17808 1540 52465F4D 		.ascii	"RF_MUX_TOTALS_REQUEST\000"
 17808      55585F54 
 17808      4F54414C 
 17808      535F5245 
 17808      51554553 
 17809              	.LASF49:
 17810 1556 5F706461 		.ascii	"_pdata\000"
ARM GAS  C:\Users\RECEPC~1\AppData\Local\Temp\ccNQP0pp.s 			page 377


 17810      746100
 17811              	.LASF560:
 17812 155d 5465726D 		.ascii	"TerminateTransaction\000"
 17812      696E6174 
 17812      65547261 
 17812      6E736163 
 17812      74696F6E 
 17813              	.LASF196:
 17814 1572 5F504F49 		.ascii	"_POINT_AS_DECIMAL_SEPARATOR_\000"
 17814      4E545F41 
 17814      535F4445 
 17814      43494D41 
 17814      4C5F5345 
 17815              	.LASF282:
 17816 158f 5F726573 		.ascii	"_restoreprice\000"
 17816      746F7265 
 17816      70726963 
 17816      6500
 17817              	.LASF325:
 17818 159d 46696E61 		.ascii	"Finalization\000"
 17818      6C697A61 
 17818      74696F6E 
 17818      00
 17819              	.LASF50:
 17820 15aa 43616C6C 		.ascii	"Callback\000"
 17820      6261636B 
 17820      00
 17821              	.LASF62:
 17822 15b3 44495350 		.ascii	"DISPENSER_ACQUIRE_PUMP_HOSE\000"
 17822      454E5345 
 17822      525F4143 
 17822      51554952 
 17822      455F5055 
 17823              	.LASF544:
 17824 15cf 41637175 		.ascii	"AcquirePumpEnumeratorResponse\000"
 17824      69726550 
 17824      756D7045 
 17824      6E756D65 
 17824      7261746F 
 17825              	.LASF341:
 17826 15ed 5F707265 		.ascii	"_prequest\000"
 17826      71756573 
 17826      7400
 17827              	.LASF468:
 17828 15f7 5F74696D 		.ascii	"_timeouttoautonomous\000"
 17828      656F7574 
 17828      746F6175 
 17828      746F6E6F 
 17828      6D6F7573 
 17829              	.LASF551:
 17830 160c 5072696D 		.ascii	"PrimeActivateProgramming\000"
 17830      65416374 
 17830      69766174 
 17830      6550726F 
 17830      6772616D 
 17831              	.LASF454:
 17832 1625 52465F4D 		.ascii	"RF_MUX_NULL\000"
ARM GAS  C:\Users\RECEPC~1\AppData\Local\Temp\ccNQP0pp.s 			page 378


 17832      55585F4E 
 17832      554C4C00 
 17833              	.LASF130:
 17834 1631 55415254 		.ascii	"UART_DISPENSER\000"
 17834      5F444953 
 17834      50454E53 
 17834      455200
 17835              	.LASF158:
 17836 1640 44495350 		.ascii	"DISPLAY_ID_RECONOCIDO\000"
 17836      4C41595F 
 17836      49445F52 
 17836      45434F4E 
 17836      4F434944 
 17837              	.LASF339:
 17838 1656 5F74696D 		.ascii	"_timeoutseed\000"
 17838      656F7574 
 17838      73656564 
 17838      00
 17839              	.LASF540:
 17840 1663 72657476 		.ascii	"retval\000"
 17840      616C00
 17841              	.LASF413:
 17842 166a 45455052 		.ascii	"EEPROM_DISPENSER_PUMP42_TRANSACTION_PAGE\000"
 17842      4F4D5F44 
 17842      49535045 
 17842      4E534552 
 17842      5F50554D 
 17843              	.LASF273:
 17844 1693 5F50554D 		.ascii	"_PUMP_LAYOUT_\000"
 17844      505F4C41 
 17844      594F5554 
 17844      5F00
 17845              	.LASF550:
 17846 16a1 41637175 		.ascii	"AcquirePpuChangeResponse\000"
 17846      69726550 
 17846      70754368 
 17846      616E6765 
 17846      52657370 
 17847              	.LASF512:
 17848 16ba 62756666 		.ascii	"buffndx\000"
 17848      6E647800 
 17849              	.LASF94:
 17850 16c2 57415443 		.ascii	"WATCHDOG_STARTUP\000"
 17850      48444F47 
 17850      5F535441 
 17850      52545550 
 17850      00
 17851              	.LASF182:
 17852 16d3 44495350 		.ascii	"DISPLAY_IMPRESORA_NO_FUNCIONANDO\000"
 17852      4C41595F 
 17852      494D5052 
 17852      45534F52 
 17852      415F4E4F 
 17853              	.LASF75:
 17854 16f4 5052494E 		.ascii	"PRINTER11_JOB\000"
 17854      54455231 
 17854      315F4A4F 
ARM GAS  C:\Users\RECEPC~1\AppData\Local\Temp\ccNQP0pp.s 			page 379


 17854      4200
 17855              	.LASF556:
 17856 1702 4765744C 		.ascii	"GetLRC\000"
 17856      524300
 17857              	.LASF149:
 17858 1709 44495350 		.ascii	"DISPLAY_INGRESE_PASSWORD\000"
 17858      4C41595F 
 17858      494E4752 
 17858      4553455F 
 17858      50415353 
 17859              	.LASF429:
 17860 1722 52465F4D 		.ascii	"RF_MUX_TOTALS_RESPONSE\000"
 17860      55585F54 
 17860      4F54414C 
 17860      535F5245 
 17860      53504F4E 
 17861              	.LASF8:
 17862 1739 6C6F6E67 		.ascii	"long long int\000"
 17862      206C6F6E 
 17862      6720696E 
 17862      7400
 17863              	.LASF328:
 17864 1747 5F747261 		.ascii	"_transactionname\000"
 17864      6E736163 
 17864      74696F6E 
 17864      6E616D65 
 17864      00
 17865              	.LASF170:
 17866 1758 44495350 		.ascii	"DISPLAY_AUTORIZACION_ACEPTADA\000"
 17866      4C41595F 
 17866      4155544F 
 17866      52495A41 
 17866      43494F4E 
 17867              	.LASF148:
 17868 1776 44495350 		.ascii	"DISPLAY_DESEA_IMPRIMIR_RECIBO\000"
 17868      4C41595F 
 17868      44455345 
 17868      415F494D 
 17868      5052494D 
 17869              	.LASF154:
 17870 1794 44495350 		.ascii	"DISPLAY_GRACIAS_VUELVA_PRONTO\000"
 17870      4C41595F 
 17870      47524143 
 17870      4941535F 
 17870      5655454C 
 17871              	.LASF457:
 17872 17b2 52465F44 		.ascii	"RF_DELIVERING\000"
 17872      454C4956 
 17872      4552494E 
 17872      4700
 17873              	.LASF60:
 17874 17c0 44495350 		.ascii	"DISPENSER_UPDATE_PUMP_TRANSACTION_TIMEOUTS\000"
 17874      454E5345 
 17874      525F5550 
 17874      44415445 
 17874      5F50554D 
 17875              	.LASF438:
ARM GAS  C:\Users\RECEPC~1\AppData\Local\Temp\ccNQP0pp.s 			page 380


 17876 17eb 52465F4D 		.ascii	"RF_MUX_CASH_SALE_PRINT_REQUEST\000"
 17876      55585F43 
 17876      4153485F 
 17876      53414C45 
 17876      5F505249 
 17877              	.LASF537:
 17878 180a 70747262 		.ascii	"ptrbuff\000"
 17878      75666600 
 17879              	.LASF115:
 17880 1812 436C6561 		.ascii	"ClearTxBuffer\000"
 17880      72547842 
 17880      75666665 
 17880      7200
 17881              	.LASF18:
 17882 1820 646F7562 		.ascii	"double\000"
 17882      6C6500
 17883              	.LASF409:
 17884 1827 45455052 		.ascii	"EEPROM_DISPENSER_PUMP32_TRANSACTION_PAGE\000"
 17884      4F4D5F44 
 17884      49535045 
 17884      4E534552 
 17884      5F50554D 
 17885              	.LASF150:
 17886 1850 44495350 		.ascii	"DISPLAY_PASSWORD_VALIDO\000"
 17886      4C41595F 
 17886      50415353 
 17886      574F5244 
 17886      5F56414C 
 17887              	.LASF580:
 17888 1868 433A5C54 		.ascii	"C:\\TeamInsepet\\NSX-Prime\\Hardware\\CorEx-MUX-Ker"
 17888      65616D49 
 17888      6E736570 
 17888      65745C4E 
 17888      53582D50 
 17889 1897 6E656C2D 		.ascii	"nel-Enhanced\\Workspace01\\CorEx-Mux-Kernel.cydsn\000"
 17889      456E6861 
 17889      6E636564 
 17889      5C576F72 
 17889      6B737061 
 17890              	.LASF142:
 17891 18c7 44495350 		.ascii	"DISPLAY_SELECCIONE_PRODUCTO3\000"
 17891      4C41595F 
 17891      53454C45 
 17891      4343494F 
 17891      4E455F50 
 17892              	.LASF143:
 17893 18e4 44495350 		.ascii	"DISPLAY_SELECCIONE_PRODUCTO4\000"
 17893      4C41595F 
 17893      53454C45 
 17893      4343494F 
 17893      4E455F50 
 17894              	.LASF207:
 17895 1901 50554D50 		.ascii	"PUMP_ALL_PUMPS_STOP\000"
 17895      5F414C4C 
 17895      5F50554D 
 17895      50535F53 
 17895      544F5000 
ARM GAS  C:\Users\RECEPC~1\AppData\Local\Temp\ccNQP0pp.s 			page 381


 17896              	.LASF579:
 17897 1915 2E5C5072 		.ascii	".\\PrimeImpl.c\000"
 17897      696D6549 
 17897      6D706C2E 
 17897      6300
 17898              	.LASF151:
 17899 1923 44495350 		.ascii	"DISPLAY_PASSWORD_INVALIDO\000"
 17899      4C41595F 
 17899      50415353 
 17899      574F5244 
 17899      5F494E56 
 17900              	.LASF289:
 17901 193d 5F72746D 		.ascii	"_rtmoneyamount\000"
 17901      6F6E6579 
 17901      616D6F75 
 17901      6E7400
 17902              	.LASF570:
 17903 194c 49544D5F 		.ascii	"ITM_RxBuffer\000"
 17903      52784275 
 17903      66666572 
 17903      00
 17904              	.LASF39:
 17905 1959 5F73656C 		.ascii	"_selfkill\000"
 17905      666B696C 
 17905      6C00
 17906              	.LASF17:
 17907 1963 666C6F61 		.ascii	"float\000"
 17907      7400
 17908              	.LASF534:
 17909 1969 70747265 		.ascii	"ptreeprom\000"
 17909      6570726F 
 17909      6D00
 17910              	.LASF412:
 17911 1973 45455052 		.ascii	"EEPROM_DISPENSER_PUMP41_TRANSACTION_PAGE\000"
 17911      4F4D5F44 
 17911      49535045 
 17911      4E534552 
 17911      5F50554D 
 17912              	.LASF246:
 17913 199c 5F50554D 		.ascii	"_PUMP_OK_\000"
 17913      505F4F4B 
 17913      5F00
 17914              	.LASF400:
 17915 19a6 45455052 		.ascii	"EEPROM_DISPENSER_PUMP11_TRANSACTION_PAGE\000"
 17915      4F4D5F44 
 17915      49535045 
 17915      4E534552 
 17915      5F50554D 
 17916              	.LASF561:
 17917 19cf 5465726D 		.ascii	"TerminateTransactionAndPrint\000"
 17917      696E6174 
 17917      65547261 
 17917      6E736163 
 17917      74696F6E 
 17918              	.LASF576:
 17919 19ec 5F675F70 		.ascii	"_g_ptractprogramming\000"
 17919      74726163 
ARM GAS  C:\Users\RECEPC~1\AppData\Local\Temp\ccNQP0pp.s 			page 382


 17919      7470726F 
 17919      6772616D 
 17919      6D696E67 
 17920              	.LASF264:
 17921 1a01 50756D70 		.ascii	"PumpDataContainer\000"
 17921      44617461 
 17921      436F6E74 
 17921      61696E65 
 17921      7200
 17922              	.LASF334:
 17923 1a13 5F64656C 		.ascii	"_delaymultiplier\000"
 17923      61796D75 
 17923      6C746970 
 17923      6C696572 
 17923      00
 17924              	.LASF577:
 17925 1a24 5F675F73 		.ascii	"_g_sfcharmap\000"
 17925      66636861 
 17925      726D6170 
 17925      00
 17926              	.LASF268:
 17927 1a31 5F707269 		.ascii	"_price\000"
 17927      636500
 17928              	.LASF10:
 17929 1a38 756E7369 		.ascii	"unsigned int\000"
 17929      676E6564 
 17929      20696E74 
 17929      00
 17930              	.LASF110:
 17931 1a45 52656164 		.ascii	"ReadTxStatus\000"
 17931      54785374 
 17931      61747573 
 17931      00
 17932              	.LASF521:
 17933 1a52 50756D70 		.ascii	"PumpDefault2CreditPpuChange\000"
 17933      44656661 
 17933      756C7432 
 17933      43726564 
 17933      69745070 
 17934              	.LASF322:
 17935 1a6e 5F6F6E65 		.ascii	"_oneshotpostconditions\000"
 17935      73686F74 
 17935      706F7374 
 17935      636F6E64 
 17935      6974696F 
 17936              	.LASF520:
 17937 1a85 62756666 		.ascii	"bufferlength\000"
 17937      65726C65 
 17937      6E677468 
 17937      00
 17938              	.LASF156:
 17939 1a92 44495350 		.ascii	"DISPLAY_ID_NO_RECONOCIDO\000"
 17939      4C41595F 
 17939      49445F4E 
 17939      4F5F5245 
 17939      434F4E4F 
 17940              	.LASF52:
ARM GAS  C:\Users\RECEPC~1\AppData\Local\Temp\ccNQP0pp.s 			page 383


 17941 1aab 5053494E 		.ascii	"PSINKMESSAGEPTR\000"
 17941      4B4D4553 
 17941      53414745 
 17941      50545200 
 17942              	.LASF539:
 17943 1abb 62756666 		.ascii	"buffersize\000"
 17943      65727369 
 17943      7A6500
 17944              	.LASF563:
 17945 1ac6 64656C69 		.ascii	"delimiterindex\000"
 17945      6D697465 
 17945      72696E64 
 17945      657800
 17946              	.LASF147:
 17947 1ad5 44495350 		.ascii	"DISPLAY_DIGITE_PLACA\000"
 17947      4C41595F 
 17947      44494749 
 17947      54455F50 
 17947      4C414341 
 17948              	.LASF27:
 17949 1aea 42524F41 		.ascii	"BROADCAST\000"
 17949      44434153 
 17949      5400
 17950              	.LASF96:
 17951 1af4 5F554152 		.ascii	"_UART_MANAGER_\000"
 17951      545F4D41 
 17951      4E414745 
 17951      525F00
 17952              	.LASF493:
 17953 1b03 50726F63 		.ascii	"ProcessPumpTotalsDataReport\000"
 17953      65737350 
 17953      756D7054 
 17953      6F74616C 
 17953      73446174 
 17954              	.LASF347:
 17955 1b1f 5F717565 		.ascii	"_queueindex\000"
 17955      7565696E 
 17955      64657800 
 17956              	.LASF541:
 17957 1b2b 6D73676C 		.ascii	"msglength\000"
 17957      656E6774 
 17957      6800
 17958              	.LASF581:
 17959 1b35 5F706F69 		.ascii	"_pointcommadecimalmode\000"
 17959      6E74636F 
 17959      6D6D6164 
 17959      6563696D 
 17959      616C6D6F 
 17960              	.LASF408:
 17961 1b4c 45455052 		.ascii	"EEPROM_DISPENSER_PUMP31_TRANSACTION_PAGE\000"
 17961      4F4D5F44 
 17961      49535045 
 17961      4E534552 
 17961      5F50554D 
 17962              	.LASF133:
 17963 1b75 55415254 		.ascii	"UART_NULL\000"
 17963      5F4E554C 
ARM GAS  C:\Users\RECEPC~1\AppData\Local\Temp\ccNQP0pp.s 			page 384


 17963      4C00
 17964              	.LASF426:
 17965 1b7f 52465F4D 		.ascii	"RF_MUX_CASH_SALE_END_REPORT_REQUEST\000"
 17965      55585F43 
 17965      4153485F 
 17965      53414C45 
 17965      5F454E44 
 17966              	.LASF233:
 17967 1ba3 5F50554D 		.ascii	"_PUMP_ACTIVE_HOSE_\000"
 17967      505F4143 
 17967      54495645 
 17967      5F484F53 
 17967      455F00
 17968              	.LASF235:
 17969 1bb6 5F50554D 		.ascii	"_PUMP_EOT_STARUP_\000"
 17969      505F454F 
 17969      545F5354 
 17969      41525550 
 17969      5F00
 17970              	.LASF527:
 17971 1bc8 50756D70 		.ascii	"PumpCompleteConfiguration\000"
 17971      436F6D70 
 17971      6C657465 
 17971      436F6E66 
 17971      69677572 
 17972              	.LASF513:
 17973 1be2 50756D70 		.ascii	"PumpCreditPresetHose\000"
 17973      43726564 
 17973      69745072 
 17973      65736574 
 17973      486F7365 
 17974              	.LASF569:
 17975 1bf7 70747273 		.ascii	"ptrstr\000"
 17975      747200
 17976              	.LASF345:
 17977 1bfe 5050554D 		.ascii	"PPUMPTRANSACTIONJOBCONTEXTPTR\000"
 17977      50545241 
 17977      4E534143 
 17977      54494F4E 
 17977      4A4F4243 
 17978              	.LASF401:
 17979 1c1c 45455052 		.ascii	"EEPROM_DISPENSER_PUMP12_TRANSACTION_PAGE\000"
 17979      4F4D5F44 
 17979      49535045 
 17979      4E534552 
 17979      5F50554D 
 17980              	.LASF535:
 17981 1c45 626C6B69 		.ascii	"blkindex\000"
 17981      6E646578 
 17981      00
 17982              	.LASF102:
 17983 1c4e 57726974 		.ascii	"WriteControlRegister\000"
 17983      65436F6E 
 17983      74726F6C 
 17983      52656769 
 17983      73746572 
 17984              	.LASF92:
ARM GAS  C:\Users\RECEPC~1\AppData\Local\Temp\ccNQP0pp.s 			page 385


 17985 1c63 474C4F42 		.ascii	"GLOBAL_TICK_NOTIFICATION\000"
 17985      414C5F54 
 17985      49434B5F 
 17985      4E4F5449 
 17985      46494341 
 17986              	.LASF215:
 17987 1c7c 50554D50 		.ascii	"PUMP_CALLING\000"
 17987      5F43414C 
 17987      4C494E47 
 17987      00
 17988              	.LASF28:
 17989 1c89 46495253 		.ascii	"FIRSTFOUND\000"
 17989      54464F55 
 17989      4E4400
 17990              	.LASF462:
 17991 1c94 52465F45 		.ascii	"RF_ERROR\000"
 17991      52524F52 
 17991      00
 17992              	.LASF24:
 17993 1c9d 4C50564F 		.ascii	"LPVOID\000"
 17993      494400
 17994              	.LASF73:
 17995 1ca4 44495350 		.ascii	"DISPENSER_PUMP_HANDLER\000"
 17995      454E5345 
 17995      525F5055 
 17995      4D505F48 
 17995      414E444C 
 17996              	.LASF338:
 17997 1cbb 5F726574 		.ascii	"_retriescounter\000"
 17997      72696573 
 17997      636F756E 
 17997      74657200 
 17998              	.LASF107:
 17999 1ccb 47657452 		.ascii	"GetRxBufferSize\000"
 17999      78427566 
 17999      66657253 
 17999      697A6500 
 18000              	.LASF291:
 18001 1cdb 5F747261 		.ascii	"_transhealth\000"
 18001      6E736865 
 18001      616C7468 
 18001      00
 18002              	.LASF458:
 18003 1ce8 52465F43 		.ascii	"RF_CASHSALEREPORT\000"
 18003      41534853 
 18003      414C4552 
 18003      45504F52 
 18003      5400
 18004              	.LASF542:
 18005 1cfa 72656D62 		.ascii	"remblocks\000"
 18005      6C6F636B 
 18005      7300
 18006              	.LASF404:
 18007 1d04 45455052 		.ascii	"EEPROM_DISPENSER_PUMP21_TRANSACTION_PAGE\000"
 18007      4F4D5F44 
 18007      49535045 
 18007      4E534552 
ARM GAS  C:\Users\RECEPC~1\AppData\Local\Temp\ccNQP0pp.s 			page 386


 18007      5F50554D 
 18008              	.LASF189:
 18009 1d2d 44495350 		.ascii	"DISPLAY_SIDE_DUMMY_DISPLAY\000"
 18009      4C41595F 
 18009      53494445 
 18009      5F44554D 
 18009      4D595F44 
 18010              	.LASF172:
 18011 1d48 44495350 		.ascii	"DISPLAY_CONFIGURAR_FECHA_HORA\000"
 18011      4C41595F 
 18011      434F4E46 
 18011      49475552 
 18011      41525F46 
 18012              	.LASF431:
 18013 1d66 52465F4D 		.ascii	"RF_MUX_TOTALS_REPORT_RESPONSE\000"
 18013      55585F54 
 18013      4F54414C 
 18013      535F5245 
 18013      504F5254 
 18014              	.LASF54:
 18015 1d84 55415254 		.ascii	"UART_RF_RECEPTION\000"
 18015      5F52465F 
 18015      52454345 
 18015      5054494F 
 18015      4E00
 18016              	.LASF311:
 18017 1d96 5F50554D 		.ascii	"_PUMP_TRANSACTION_JOB_\000"
 18017      505F5452 
 18017      414E5341 
 18017      4354494F 
 18017      4E5F4A4F 
 18018              	.LASF195:
 18019 1dad 5F444543 		.ascii	"_DECIMAL_SEPARATOR_\000"
 18019      494D414C 
 18019      5F534550 
 18019      41524154 
 18019      4F525F00 
 18020              	.LASF265:
 18021 1dc1 5F617574 		.ascii	"_authorized\000"
 18021      686F7269 
 18021      7A656400 
 18022              	.LASF23:
 18023 1dcd 6C6F6E67 		.ascii	"long double\000"
 18023      20646F75 
 18023      626C6500 
 18024              	.LASF351:
 18025 1dd9 416C6C6F 		.ascii	"Allocate\000"
 18025      63617465 
 18025      00
 18026              	.LASF199:
 18027 1de2 50554D50 		.ascii	"PUMP_STATE_REQUEST\000"
 18027      5F535441 
 18027      54455F52 
 18027      45515545 
 18027      535400
 18028              	.LASF225:
 18029 1df5 5F50554D 		.ascii	"_PUMP_FILL_BY_VOLUME_\000"
ARM GAS  C:\Users\RECEPC~1\AppData\Local\Temp\ccNQP0pp.s 			page 387


 18029      505F4649 
 18029      4C4C5F42 
 18029      595F564F 
 18029      4C554D45 
 18030              	.LASF516:
 18031 1e0b 50756D70 		.ascii	"PumpCreditPresetNotification\000"
 18031      43726564 
 18031      69745072 
 18031      65736574 
 18031      4E6F7469 
 18032              	.LASF249:
 18033 1e28 5F747261 		.ascii	"_transtate\000"
 18033      6E737461 
 18033      746500
 18034              	.LASF213:
 18035 1e33 50554D50 		.ascii	"PUMP_FAIL\000"
 18035      5F464149 
 18035      4C00
 18036              	.LASF99:
 18037 1e3d 53746172 		.ascii	"Start\000"
 18037      7400
 18038              	.LASF121:
 18039 1e43 5F554152 		.ascii	"_UART_MESSAGE_\000"
 18039      545F4D45 
 18039      53534147 
 18039      455F00
 18040              	.LASF167:
 18041 1e52 44495350 		.ascii	"DISPLAY_OPERACION_CANCELADA\000"
 18041      4C41595F 
 18041      4F504552 
 18041      4143494F 
 18041      4E5F4341 
 18042              	.LASF162:
 18043 1e6e 44495350 		.ascii	"DISPLAY_OPERACIONES\000"
 18043      4C41595F 
 18043      4F504552 
 18043      4143494F 
 18043      4E455300 
 18044              	.LASF219:
 18045 1e82 50554D50 		.ascii	"PUMP_FEOT\000"
 18045      5F46454F 
 18045      5400
 18046              	.LASF321:
 18047 1e8c 5F707265 		.ascii	"_preconditions\000"
 18047      636F6E64 
 18047      6974696F 
 18047      6E7300
 18048              	.LASF310:
 18049 1e9b 504E4541 		.ascii	"PNEAR_PUMPPTR\000"
 18049      525F5055 
 18049      4D505054 
 18049      5200
 18050              	.LASF126:
 18051 1ea9 50554152 		.ascii	"PUARTMESSAGEPTR\000"
 18051      544D4553 
 18051      53414745 
 18051      50545200 
ARM GAS  C:\Users\RECEPC~1\AppData\Local\Temp\ccNQP0pp.s 			page 388


 18052              	.LASF360:
 18053 1eb9 5F686F73 		.ascii	"_hosesposition1\000"
 18053      6573706F 
 18053      73697469 
 18053      6F6E3100 
 18054              	.LASF278:
 18055 1ec9 5F686F73 		.ascii	"_hoseactivestate\000"
 18055      65616374 
 18055      69766573 
 18055      74617465 
 18055      00
 18056              	.LASF362:
 18057 1eda 5F686F73 		.ascii	"_hosesposition3\000"
 18057      6573706F 
 18057      73697469 
 18057      6F6E3300 
 18058              	.LASF363:
 18059 1eea 5F686F73 		.ascii	"_hosesposition4\000"
 18059      6573706F 
 18059      73697469 
 18059      6F6E3400 
 18060              	.LASF152:
 18061 1efa 44495350 		.ascii	"DISPLAY_NUEVO_PASSWORD\000"
 18061      4C41595F 
 18061      4E554556 
 18061      4F5F5041 
 18061      5353574F 
 18062              	.LASF369:
 18063 1f11 5F6D696E 		.ascii	"_minvolumevalue\000"
 18063      766F6C75 
 18063      6D657661 
 18063      6C756500 
 18064              	.LASF314:
 18065 1f21 54696D65 		.ascii	"TimeoutCallback\000"
 18065      6F757443 
 18065      616C6C62 
 18065      61636B00 
 18066              	.LASF308:
 18067 1f31 436C6561 		.ascii	"CleanUp\000"
 18067      6E557000 
 18068              	.LASF157:
 18069 1f39 44495350 		.ascii	"DISPLAY_ESPERANDO_ID\000"
 18069      4C41595F 
 18069      45535045 
 18069      52414E44 
 18069      4F5F4944 
 18070              	.LASF348:
 18071 1f4e 5F6A6F62 		.ascii	"_jobqueueheap\000"
 18071      71756575 
 18071      65686561 
 18071      7000
 18072              	.LASF393:
 18073 1f5c 45455052 		.ascii	"EEPROM_DISPENSER_PUMP2_PPU_INFO_PAGE\000"
 18073      4F4D5F44 
 18073      49535045 
 18073      4E534552 
 18073      5F50554D 
ARM GAS  C:\Users\RECEPC~1\AppData\Local\Temp\ccNQP0pp.s 			page 389


 18074              	.LASF309:
 18075 1f81 50756D70 		.ascii	"Pump\000"
 18075      00
 18076              	.LASF238:
 18077 1f86 5F50554D 		.ascii	"_PUMP_STOP_\000"
 18077      505F5354 
 18077      4F505F00 
 18078              	.LASF138:
 18079 1f92 44495350 		.ascii	"DISPLAY_FORMA_PAGO_DESEADA\000"
 18079      4C41595F 
 18079      464F524D 
 18079      415F5041 
 18079      474F5F44 
 18080              	.LASF475:
 18081 1fad 706A6F62 		.ascii	"pjob\000"
 18081      00
 18082              	.LASF9:
 18083 1fb2 6C6F6E67 		.ascii	"long long unsigned int\000"
 18083      206C6F6E 
 18083      6720756E 
 18083      7369676E 
 18083      65642069 
 18084              	.LASF229:
 18085 1fc9 5F50554D 		.ascii	"_PUMP_PPU_CHANGE_\000"
 18085      505F5050 
 18085      555F4348 
 18085      414E4745 
 18085      5F00
 18086              	.LASF113:
 18087 1fdb 50757441 		.ascii	"PutArray\000"
 18087      72726179 
 18087      00
 18088              	.LASF292:
 18089 1fe4 5F706375 		.ascii	"_pcurrtransaction\000"
 18089      72727472 
 18089      616E7361 
 18089      6374696F 
 18089      6E00
 18090              	.LASF439:
 18091 1ff6 52465F4D 		.ascii	"RF_MUX_CASH_SALE_PRINT_RESPONSE\000"
 18091      55585F43 
 18091      4153485F 
 18091      53414C45 
 18091      5F505249 
 18092              	.LASF344:
 18093 2016 50756D70 		.ascii	"PumpTransactionJobContext\000"
 18093      5472616E 
 18093      73616374 
 18093      696F6E4A 
 18093      6F62436F 
 18094              	.LASF358:
 18095 2030 5F637572 		.ascii	"_currentloopopen\000"
 18095      72656E74 
 18095      6C6F6F70 
 18095      6F70656E 
 18095      00
 18096              	.LASF218:
ARM GAS  C:\Users\RECEPC~1\AppData\Local\Temp\ccNQP0pp.s 			page 390


 18097 2041 50554D50 		.ascii	"PUMP_PEOT\000"
 18097      5F50454F 
 18097      5400
 18098              	.LASF57:
 18099 204b 53494E4B 		.ascii	"SINK_UPDATE_COUNTERS\000"
 18099      5F555044 
 18099      4154455F 
 18099      434F554E 
 18099      54455253 
 18100              	.LASF101:
 18101 2060 52656164 		.ascii	"ReadControlRegister\000"
 18101      436F6E74 
 18101      726F6C52 
 18101      65676973 
 18101      74657200 
 18102              	.LASF450:
 18103 2074 52465F4D 		.ascii	"RF_MUX_ISLAND_ADMIN_REQUEST\000"
 18103      55585F49 
 18103      534C414E 
 18103      445F4144 
 18103      4D494E5F 
 18104              	.LASF255:
 18105 2090 5F766172 		.ascii	"_var3\000"
 18105      3300
 18106              	.LASF256:
 18107 2096 5F766172 		.ascii	"_var4\000"
 18107      3400
 18108              	.LASF317:
 18109 209c 5F726570 		.ascii	"_repushtimeoutlimit\000"
 18109      75736874 
 18109      696D656F 
 18109      75746C69 
 18109      6D697400 
 18110              	.LASF66:
 18111 20b0 44495350 		.ascii	"DISPENSER_LOAD_EEPROM_SETTINGS\000"
 18111      454E5345 
 18111      525F4C4F 
 18111      41445F45 
 18111      4550524F 
 18112              	.LASF269:
 18113 20cf 5F707265 		.ascii	"_presetamount\000"
 18113      73657461 
 18113      6D6F756E 
 18113      7400
 18114              	.LASF97:
 18115 20dd 5F696465 		.ascii	"_identifier\000"
 18115      6E746966 
 18115      69657200 
 18116              	.LASF442:
 18117 20e9 52465F4D 		.ascii	"RF_MUX_LAST_CASH_SALE_REQUEST\000"
 18117      55585F4C 
 18117      4153545F 
 18117      43415348 
 18117      5F53414C 
 18118              	.LASF277:
 18119 2107 5F637572 		.ascii	"_currenthose\000"
 18119      72656E74 
ARM GAS  C:\Users\RECEPC~1\AppData\Local\Temp\ccNQP0pp.s 			page 391


 18119      686F7365 
 18119      00
 18120              	.LASF575:
 18121 2114 5F675F70 		.ascii	"_g_printerlayout\000"
 18121      72696E74 
 18121      65726C61 
 18121      796F7574 
 18121      00
 18122              	.LASF208:
 18123 2125 5F434F4E 		.ascii	"_CONTROL_WORDS_\000"
 18123      54524F4C 
 18123      5F574F52 
 18123      44535F00 
 18124              	.LASF574:
 18125 2135 5F675F72 		.ascii	"_g_rfautorun\000"
 18125      66617574 
 18125      6F72756E 
 18125      00
 18126              	.LASF197:
 18127 2142 5F434F4D 		.ascii	"_COMMA_AS_DECIMAL_SEPARATOR_\000"
 18127      4D415F41 
 18127      535F4445 
 18127      43494D41 
 18127      4C5F5345 
 18128              	.LASF283:
 18129 215f 5F707265 		.ascii	"_presetdone\000"
 18129      73657464 
 18129      6F6E6500 
 18130              	.LASF555:
 18131 216b 436F6D70 		.ascii	"ComplementaryCreditTransactionOnHose\000"
 18131      6C656D65 
 18131      6E746172 
 18131      79437265 
 18131      64697454 
 18132              	.LASF106:
 18133 2190 47657442 		.ascii	"GetByte\000"
 18133      79746500 
 18134              	.LASF373:
 18135 2198 44697370 		.ascii	"DispenserLayoutInfo\000"
 18135      656E7365 
 18135      724C6179 
 18135      6F757449 
 18135      6E666F00 
 18136              	.LASF522:
 18137 21ac 50756D70 		.ascii	"PumpCredit2DefaultPpuChange\000"
 18137      43726564 
 18137      69743244 
 18137      65666175 
 18137      6C745070 
 18138              	.LASF489:
 18139 21c8 6C766172 		.ascii	"lvar6\000"
 18139      3600
 18140              	.LASF490:
 18141 21ce 6C766172 		.ascii	"lvar7\000"
 18141      3700
 18142              	.LASF491:
 18143 21d4 6C766172 		.ascii	"lvar8\000"
ARM GAS  C:\Users\RECEPC~1\AppData\Local\Temp\ccNQP0pp.s 			page 392


 18143      3800
 18144              	.LASF492:
 18145 21da 6C766172 		.ascii	"lvar9\000"
 18145      3900
 18146              	.LASF55:
 18147 21e0 55415254 		.ascii	"UART_RF_TEST\000"
 18147      5F52465F 
 18147      54455354 
 18147      00
 18148              	.LASF419:
 18149 21ed 52465F4D 		.ascii	"RF_MUX_CREDIT_SERIAL_AUTH_RESPONSE\000"
 18149      55585F43 
 18149      52454449 
 18149      545F5345 
 18149      5249414C 
 18150              	.LASF415:
 18151 2210 45455052 		.ascii	"EEPROM_DISPENSER_PUMP44_TRANSACTION_PAGE\000"
 18151      4F4D5F44 
 18151      49535045 
 18151      4E534552 
 18151      5F50554D 
 18152              	.LASF247:
 18153 2239 5F50554D 		.ascii	"_PUMP_FAIL_\000"
 18153      505F4641 
 18153      494C5F00 
 18154              	.LASF279:
 18155 2245 5F616371 		.ascii	"_acquiringstate\000"
 18155      75697269 
 18155      6E677374 
 18155      61746500 
 18156              	.LASF481:
 18157 2255 50726F63 		.ascii	"ProcessPumpRTHoseVolumeRequest\000"
 18157      65737350 
 18157      756D7052 
 18157      54486F73 
 18157      65566F6C 
 18158              	.LASF145:
 18159 2274 44495350 		.ascii	"DISPLAY_DESPACHANDO\000"
 18159      4C41595F 
 18159      44455350 
 18159      41434841 
 18159      4E444F00 
 18160              	.LASF221:
 18161 2288 50554D50 		.ascii	"PUMP_SEND_DATA\000"
 18161      5F53454E 
 18161      445F4441 
 18161      544100
 18162              	.LASF252:
 18163 2297 5F766172 		.ascii	"_var0\000"
 18163      3000
 18164              	.LASF253:
 18165 229d 5F766172 		.ascii	"_var1\000"
 18165      3100
 18166              	.LASF254:
 18167 22a3 5F766172 		.ascii	"_var2\000"
 18167      3200
 18168              	.LASF173:
ARM GAS  C:\Users\RECEPC~1\AppData\Local\Temp\ccNQP0pp.s 			page 393


 18169 22a9 44495350 		.ascii	"DISPLAY_HORA\000"
 18169      4C41595F 
 18169      484F5241 
 18169      00
 18170              	.LASF79:
 18171 22b6 5052494E 		.ascii	"PRINTER1_GENERIC_JOB\000"
 18171      54455231 
 18171      5F47454E 
 18171      45524943 
 18171      5F4A4F42 
 18172              	.LASF257:
 18173 22cb 5F766172 		.ascii	"_var5\000"
 18173      3500
 18174              	.LASF258:
 18175 22d1 5F766172 		.ascii	"_var6\000"
 18175      3600
 18176              	.LASF259:
 18177 22d7 5F766172 		.ascii	"_var7\000"
 18177      3700
 18178              	.LASF260:
 18179 22dd 5F766172 		.ascii	"_var8\000"
 18179      3800
 18180              	.LASF261:
 18181 22e3 5F766172 		.ascii	"_var9\000"
 18181      3900
 18182              	.LASF432:
 18183 22e9 52465F4D 		.ascii	"RF_MUX_PRICE_CHANGE_REQUEST\000"
 18183      55585F50 
 18183      52494345 
 18183      5F434841 
 18183      4E47455F 
 18184              	.LASF230:
 18185 2305 5F50554D 		.ascii	"_PUMP_RESTORE_PRICE_\000"
 18185      505F5245 
 18185      53544F52 
 18185      455F5052 
 18185      4943455F 
 18186              	.LASF262:
 18187 231a 5F766172 		.ascii	"_varA\000"
 18187      4100
 18188              	.LASF263:
 18189 2320 5F766172 		.ascii	"_varB\000"
 18189      4200
 18190              	.LASF463:
 18191 2326 52465F43 		.ascii	"RF_COPY_RECEIPT\000"
 18191      4F50595F 
 18191      52454345 
 18191      49505400 
 18192              	.LASF160:
 18193 2336 44495350 		.ascii	"DISPLAY_INTRODUZCA_VOLUMEN\000"
 18193      4C41595F 
 18193      494E5452 
 18193      4F44555A 
 18193      43415F56 
 18194              	.LASF29:
 18195 2351 414C4C49 		.ascii	"ALLINTERESTED\000"
 18195      4E544552 
ARM GAS  C:\Users\RECEPC~1\AppData\Local\Temp\ccNQP0pp.s 			page 394


 18195      45535445 
 18195      4400
 18196              	.LASF281:
 18197 235f 5F70656E 		.ascii	"_pendingtransaction\000"
 18197      64696E67 
 18197      7472616E 
 18197      73616374 
 18197      696F6E00 
 18198              	.LASF178:
 18199 2373 44495350 		.ascii	"DISPLAY_CANCELADO_X_PC\000"
 18199      4C41595F 
 18199      43414E43 
 18199      454C4144 
 18199      4F5F585F 
 18200              	.LASF275:
 18201 238a 5F70756D 		.ascii	"_pumpindex\000"
 18201      70696E64 
 18201      657800
 18202              	.LASF312:
 18203 2395 52657175 		.ascii	"Request\000"
 18203      65737400 
 18204              	.LASF483:
 18205 239d 50726F63 		.ascii	"ProcessPumpTransactionData\000"
 18205      65737350 
 18205      756D7054 
 18205      72616E73 
 18205      61637469 
 18206              	.LASF284:
 18207 23b8 5F70756D 		.ascii	"_pumplocked\000"
 18207      706C6F63 
 18207      6B656400 
 18208              	.LASF40:
 18209 23c4 5F6D6573 		.ascii	"_messageid\000"
 18209      73616765 
 18209      696400
 18210              	.LASF224:
 18211 23cf 5F50554D 		.ascii	"_PUMP_FILL_BY_MONEY_\000"
 18211      505F4649 
 18211      4C4C5F42 
 18211      595F4D4F 
 18211      4E45595F 
 18212              	.LASF119:
 18213 23e4 414C4C4F 		.ascii	"ALLOCATED\000"
 18213      43415445 
 18213      4400
 18214              	.LASF13:
 18215 23ee 75696E74 		.ascii	"uint8\000"
 18215      3800
 18216              	.LASF111:
 18217 23f4 50757443 		.ascii	"PutChar\000"
 18217      68617200 
 18218              	.LASF86:
 18219 23fc 44495350 		.ascii	"DISPLAY2_RECEPTION\000"
 18219      4C415932 
 18219      5F524543 
 18219      45505449 
 18219      4F4E00
ARM GAS  C:\Users\RECEPC~1\AppData\Local\Temp\ccNQP0pp.s 			page 395


 18220              	.LASF479:
 18221 240f 70706172 		.ascii	"pparam\000"
 18221      616D00
 18222              	.LASF459:
 18223 2416 52465F43 		.ascii	"RF_CREDITSALEAUTH\000"
 18223      52454449 
 18223      5453414C 
 18223      45415554 
 18223      4800
 18224              	.LASF202:
 18225 2428 50554D50 		.ascii	"PUMP_PUMP_STOP\000"
 18225      5F50554D 
 18225      505F5354 
 18225      4F5000
 18226              	.LASF2:
 18227 2437 73686F72 		.ascii	"short int\000"
 18227      7420696E 
 18227      7400
 18228              	.LASF184:
 18229 2441 44495350 		.ascii	"DISPLAY_PRECIO_POR_UNIDAD\000"
 18229      4C41595F 
 18229      50524543 
 18229      494F5F50 
 18229      4F525F55 
 18230              	.LASF298:
 18231 245b 50756D70 		.ascii	"PumpTransQueueLock\000"
 18231      5472616E 
 18231      73517565 
 18231      75654C6F 
 18231      636B00
 18232              	.LASF190:
 18233 246e 44495350 		.ascii	"DISPLAY_NULL\000"
 18233      4C41595F 
 18233      4E554C4C 
 18233      00
 18234              	.LASF303:
 18235 247b 50756D70 		.ascii	"PumpTransQueueAllocate\000"
 18235      5472616E 
 18235      73517565 
 18235      7565416C 
 18235      6C6F6361 
 18236              	.LASF71:
 18237 2492 44495350 		.ascii	"DISPENSER_CONFIGURE_SINGLE_PRICE\000"
 18237      454E5345 
 18237      525F434F 
 18237      4E464947 
 18237      5552455F 
 18238              	.LASF446:
 18239 24b3 52465F4D 		.ascii	"RF_MUX_POSITION_CFG_REQUEST\000"
 18239      55585F50 
 18239      4F534954 
 18239      494F4E5F 
 18239      4346475F 
 18240              	.LASF82:
 18241 24cf 44495350 		.ascii	"DISPLAY1_RECEPTION\000"
 18241      4C415931 
 18241      5F524543 
ARM GAS  C:\Users\RECEPC~1\AppData\Local\Temp\ccNQP0pp.s 			page 396


 18241      45505449 
 18241      4F4E00
 18242              	.LASF301:
 18243 24e2 50756D70 		.ascii	"PumpTransQueueEnqueue\000"
 18243      5472616E 
 18243      73517565 
 18243      7565456E 
 18243      71756575 
 18244              	.LASF474:
 18245 24f8 5072696E 		.ascii	"PrinterLayout\000"
 18245      7465724C 
 18245      61796F75 
 18245      7400
 18246              	.LASF354:
 18247 2506 44657175 		.ascii	"Dequeue\000"
 18247      65756500 
 18248              	.LASF67:
 18249 250e 44495350 		.ascii	"DISPENSER_ENUMERATE_VISIBLE_PUMPS\000"
 18249      454E5345 
 18249      525F454E 
 18249      554D4552 
 18249      4154455F 
 18250              	.LASF103:
 18251 2530 52656164 		.ascii	"ReadRxData\000"
 18251      52784461 
 18251      746100
 18252              	.LASF567:
 18253 253b 5472616E 		.ascii	"TranslateSpecialFuncionDigit\000"
 18253      736C6174 
 18253      65537065 
 18253      6369616C 
 18253      46756E63 
 18254              	.LASF46:
 18255 2558 5F6D6573 		.ascii	"_messagetimeoutlimit\000"
 18255      73616765 
 18255      74696D65 
 18255      6F75746C 
 18255      696D6974 
 18256              	.LASF127:
 18257 256d 5F554152 		.ascii	"_UART_MANAGERS_AVAILABLE_\000"
 18257      545F4D41 
 18257      4E414745 
 18257      52535F41 
 18257      5641494C 
 18258              	.LASF578:
 18259 2587 474E5520 		.ascii	"GNU C 4.9.3 20150303 (release) [ARM/embedded-4_9-br"
 18259      4320342E 
 18259      392E3320 
 18259      32303135 
 18259      30333033 
 18260 25ba 616E6368 		.ascii	"anch revision 221220] -mcpu=cortex-m3 -mthumb -g -O"
 18260      20726576 
 18260      6973696F 
 18260      6E203232 
 18260      31323230 
 18261 25ed 30202D66 		.ascii	"0 -ffunction-sections -ffat-lto-objects\000"
 18261      66756E63 
ARM GAS  C:\Users\RECEPC~1\AppData\Local\Temp\ccNQP0pp.s 			page 397


 18261      74696F6E 
 18261      2D736563 
 18261      74696F6E 
 18262              	.LASF505:
 18263 2615 50756D70 		.ascii	"PumpRTMoneyRequest\000"
 18263      52544D6F 
 18263      6E657952 
 18263      65717565 
 18263      737400
 18264              	.LASF487:
 18265 2628 696E6465 		.ascii	"index\000"
 18265      7800
 18266              	.LASF159:
 18267 262e 44495350 		.ascii	"DISPLAY_INTRODUZCA_CEDULA\000"
 18267      4C41595F 
 18267      494E5452 
 18267      4F44555A 
 18267      43415F43 
 18268              	.LASF335:
 18269 2648 5F726570 		.ascii	"_repushretriescounter\000"
 18269      75736872 
 18269      65747269 
 18269      6573636F 
 18269      756E7465 
 18270              	.LASF552:
 18271 265e 706D7367 		.ascii	"pmsg\000"
 18271      00
 18272              	.LASF41:
 18273 2663 5F6D6573 		.ascii	"_messagetype\000"
 18273      73616765 
 18273      74797065 
 18273      00
 18274              	.LASF507:
 18275 2670 50756D70 		.ascii	"PumpTransactionDataRequest\000"
 18275      5472616E 
 18275      73616374 
 18275      696F6E44 
 18275      61746152 
 18276              	.LASF31:
 18277 268b 46495253 		.ascii	"FIRSTFOUNDFOREVER\000"
 18277      54464F55 
 18277      4E44464F 
 18277      52455645 
 18277      5200
 18278              	.LASF517:
 18279 269d 50756D70 		.ascii	"PumpFullPresetHose\000"
 18279      46756C6C 
 18279      50726573 
 18279      6574486F 
 18279      736500
 18280              	.LASF496:
 18281 26b0 7472616E 		.ascii	"transtatefound\000"
 18281      73746174 
 18281      65666F75 
 18281      6E6400
 18282              	.LASF214:
 18283 26bf 50554D50 		.ascii	"PUMP_IDLE\000"
ARM GAS  C:\Users\RECEPC~1\AppData\Local\Temp\ccNQP0pp.s 			page 398


 18283      5F49444C 
 18283      4500
 18284              	.LASF394:
 18285 26c9 45455052 		.ascii	"EEPROM_DISPENSER_PUMP3_PPU_INFO_PAGE\000"
 18285      4F4D5F44 
 18285      49535045 
 18285      4E534552 
 18285      5F50554D 
 18286              	.LASF445:
 18287 26ee 52465F4D 		.ascii	"RF_MUX_BROADCAST_CFG_RESPONSE\000"
 18287      55585F42 
 18287      524F4144 
 18287      43415354 
 18287      5F434647 
 18288              	.LASF203:
 18289 270c 50554D50 		.ascii	"PUMP_TRANSACTION_DATA_REQUEST\000"
 18289      5F545241 
 18289      4E534143 
 18289      54494F4E 
 18289      5F444154 
 18290              	.LASF566:
 18291 272a 43617374 		.ascii	"CastMoneyValue\000"
 18291      4D6F6E65 
 18291      7956616C 
 18291      756500
 18292              	.LASF209:
 18293 2739 5055446E 		.ascii	"PUDn\000"
 18293      00
 18294              	.LASF305:
 18295 273e 50756D70 		.ascii	"PumpValidState\000"
 18295      56616C69 
 18295      64537461 
 18295      746500
 18296              	.LASF307:
 18297 274d 5F617574 		.ascii	"_authorizationinfo\000"
 18297      686F7269 
 18297      7A617469 
 18297      6F6E696E 
 18297      666F00
 18298              	.LASF239:
 18299 2760 5F50554D 		.ascii	"_PUMP_STOPALL_\000"
 18299      505F5354 
 18299      4F50414C 
 18299      4C5F00
 18300              	.LASF511:
 18301 276f 7472616E 		.ascii	"transtype\000"
 18301      73747970 
 18301      6500
 18302              	.LASF175:
 18303 2779 44495350 		.ascii	"DISPLAY_OPCION_TURNO\000"
 18303      4C41595F 
 18303      4F504349 
 18303      4F4E5F54 
 18303      55524E4F 
 18304              	.LASF336:
 18305 278e 5F726570 		.ascii	"_repushtimeoutseed\000"
 18305      75736874 
ARM GAS  C:\Users\RECEPC~1\AppData\Local\Temp\ccNQP0pp.s 			page 399


 18305      696D656F 
 18305      75747365 
 18305      656400
 18306              	.LASF228:
 18307 27a1 5F50554D 		.ascii	"_PUMP_FILL_CREDIT_COMPLEMENTARY_\000"
 18307      505F4649 
 18307      4C4C5F43 
 18307      52454449 
 18307      545F434F 
 18308              	.LASF568:
 18309 27c2 72656676 		.ascii	"refval\000"
 18309      616C00
 18310              	.LASF421:
 18311 27c9 52465F4D 		.ascii	"RF_MUX_CREDIT_PRESET_AUTHORIZATION_RESPONSE\000"
 18311      55585F43 
 18311      52454449 
 18311      545F5052 
 18311      45534554 
 18312              	.LASF42:
 18313 27f5 5F6D6573 		.ascii	"_messagestate\000"
 18313      73616765 
 18313      73746174 
 18313      6500
 18314              	.LASF525:
 18315 2803 50756D70 		.ascii	"PumpMiscellaneousConfiguration\000"
 18315      4D697363 
 18315      656C6C61 
 18315      6E656F75 
 18315      73436F6E 
 18316              	.LASF319:
 18317 2822 5F726574 		.ascii	"_retryinsteadofrepush\000"
 18317      7279696E 
 18317      73746561 
 18317      646F6672 
 18317      65707573 
 18318              	.LASF226:
 18319 2838 5F50554D 		.ascii	"_PUMP_FILL_FULL_\000"
 18319      505F4649 
 18319      4C4C5F46 
 18319      554C4C5F 
 18319      00
 18320              	.LASF89:
 18321 2849 44495350 		.ascii	"DISPLAY2_ANIMATE_HOME\000"
 18321      4C415932 
 18321      5F414E49 
 18321      4D415445 
 18321      5F484F4D 
 18322              	.LASF194:
 18323 285f 4C505241 		.ascii	"LPRAWPTR\000"
 18323      57505452 
 18323      00
 18324              	.LASF234:
 18325 2868 5F50554D 		.ascii	"_PUMP_EOT_\000"
 18325      505F454F 
 18325      545F00
 18326              	.LASF81:
 18327 2873 44495350 		.ascii	"DISPLAY_UPDATE_PUMP_STATE\000"
ARM GAS  C:\Users\RECEPC~1\AppData\Local\Temp\ccNQP0pp.s 			page 400


 18327      4C41595F 
 18327      55504441 
 18327      54455F50 
 18327      554D505F 
 18328              	.LASF34:
 18329 288d 5F4D4553 		.ascii	"_MESSAGE_TYPE_\000"
 18329      53414745 
 18329      5F545950 
 18329      455F00
 18330              	.LASF70:
 18331 289c 44495350 		.ascii	"DISPENSER_RESTORE_PRICES\000"
 18331      454E5345 
 18331      525F5245 
 18331      53544F52 
 18331      455F5052 
 18332              	.LASF201:
 18333 28b5 50554D50 		.ascii	"PUMP_DATA_TO_PUMP\000"
 18333      5F444154 
 18333      415F544F 
 18333      5F50554D 
 18333      5000
 18334              	.LASF425:
 18335 28c7 52465F4D 		.ascii	"RF_MUX_CASH_SALE_START_RESPONSE\000"
 18335      55585F43 
 18335      4153485F 
 18335      53414C45 
 18335      5F535441 
 18336              	.LASF316:
 18337 28e7 5F726573 		.ascii	"_responsetimeoutlimit\000"
 18337      706F6E73 
 18337      6574696D 
 18337      656F7574 
 18337      6C696D69 
 18338              	.LASF549:
 18339 28fd 41637175 		.ascii	"AcquirePumpTotalsResponseResolver\000"
 18339      69726550 
 18339      756D7054 
 18339      6F74616C 
 18339      73526573 
 18340              	.LASF288:
 18341 291f 5F707269 		.ascii	"_print\000"
 18341      6E7400
 18342              	.LASF242:
 18343 2926 5F50554D 		.ascii	"_PUMP_BUSY_\000"
 18343      505F4255 
 18343      53595F00 
 18344              	.LASF386:
 18345 2932 45455052 		.ascii	"EEPROM_DISPENSER_PUMP3_LAYOUT_PAGE\000"
 18345      4F4D5F44 
 18345      49535045 
 18345      4E534552 
 18345      5F50554D 
 18346              	.LASF433:
 18347 2955 52465F4D 		.ascii	"RF_MUX_PRICE_CHANGE_RESPONSE\000"
 18347      55585F50 
 18347      52494345 
 18347      5F434841 
ARM GAS  C:\Users\RECEPC~1\AppData\Local\Temp\ccNQP0pp.s 			page 401


 18347      4E47455F 
 18348              	.LASF3:
 18349 2972 73686F72 		.ascii	"short unsigned int\000"
 18349      7420756E 
 18349      7369676E 
 18349      65642069 
 18349      6E7400
 18350              	.LASF532:
 18351 2985 74617267 		.ascii	"targetmemoryareafound\000"
 18351      65746D65 
 18351      6D6F7279 
 18351      61726561 
 18351      666F756E 
 18352              	.LASF300:
 18353 299b 50756D70 		.ascii	"PumpTransQueueFind\000"
 18353      5472616E 
 18353      73517565 
 18353      75654669 
 18353      6E6400
 18354              	.LASF124:
 18355 29ae 4572726F 		.ascii	"ErrorHandler\000"
 18355      7248616E 
 18355      646C6572 
 18355      00
 18356              	.LASF470:
 18357 29bb 5F74696D 		.ascii	"_timeouttoreceivemultiplier\000"
 18357      656F7574 
 18357      746F7265 
 18357      63656976 
 18357      656D756C 
 18358              	.LASF506:
 18359 29d7 50756D70 		.ascii	"PumpRTHoseVolumeRequest\000"
 18359      5254486F 
 18359      7365566F 
 18359      6C756D65 
 18359      52657175 
 18360              	.LASF78:
 18361 29ef 5052494E 		.ascii	"PRINTER22_JOB\000"
 18361      54455232 
 18361      325F4A4F 
 18361      4200
 18362              	.LASF444:
 18363 29fd 52465F4D 		.ascii	"RF_MUX_BROADCAST_CFG_REQUEST\000"
 18363      55585F42 
 18363      524F4144 
 18363      43415354 
 18363      5F434647 
 18364              	.LASF498:
 18365 2a1a 50756D70 		.ascii	"PumpJobTimeout\000"
 18365      4A6F6254 
 18365      696D656F 
 18365      757400
 18366              	.LASF212:
 18367 2a29 5F50554D 		.ascii	"_PUMP_STATES_\000"
 18367      505F5354 
 18367      41544553 
 18367      5F00
ARM GAS  C:\Users\RECEPC~1\AppData\Local\Temp\ccNQP0pp.s 			page 402


 18368              	.LASF5:
 18369 2a37 5F5F696E 		.ascii	"__int32_t\000"
 18369      7433325F 
 18369      7400
 18370              	.LASF453:
 18371 2a41 52465F4D 		.ascii	"RF_MUX_COPY_REQUEST_RESPONSE\000"
 18371      55585F43 
 18371      4F50595F 
 18371      52455155 
 18371      4553545F 
 18372              	.LASF533:
 18373 2a5e 65657072 		.ascii	"eeprompumpconfigmemorypageid\000"
 18373      6F6D7075 
 18373      6D70636F 
 18373      6E666967 
 18373      6D656D6F 
 18374              	.LASF529:
 18375 2a7b 41637175 		.ascii	"AcquirePumpHoseActiveState\000"
 18375      69726550 
 18375      756D7048 
 18375      6F736541 
 18375      63746976 
 18376              	.LASF434:
 18377 2a96 52465F4D 		.ascii	"RF_MUX_GENERAL_PRINT_REQUEST\000"
 18377      55585F47 
 18377      454E4552 
 18377      414C5F50 
 18377      52494E54 
 18378              	.LASF390:
 18379 2ab3 45455052 		.ascii	"EEPROM_DISPENSER_PUMP3_PRODUCT_NAMES_PAGE\000"
 18379      4F4D5F44 
 18379      49535045 
 18379      4E534552 
 18379      5F50554D 
 18380              	.LASF250:
 18381 2add 50756D70 		.ascii	"PumpTransactionalState\000"
 18381      5472616E 
 18381      73616374 
 18381      696F6E61 
 18381      6C537461 
 18382              	.LASF306:
 18383 2af4 5F646174 		.ascii	"_datacontainer\000"
 18383      61636F6E 
 18383      7461696E 
 18383      657200
 18384              	.LASF332:
 18385 2b03 5F726565 		.ascii	"_reenqueuecounter\000"
 18385      6E717565 
 18385      7565636F 
 18385      756E7465 
 18385      7200
 18386              	.LASF220:
 18387 2b15 50554D50 		.ascii	"PUMP_STOPPED\000"
 18387      5F53544F 
 18387      50504544 
 18387      00
 18388              	.LASF35:
ARM GAS  C:\Users\RECEPC~1\AppData\Local\Temp\ccNQP0pp.s 			page 403


 18389 2b22 5F4D4553 		.ascii	"_MESSAGE_STATE_\000"
 18389      53414745 
 18389      5F535441 
 18389      54455F00 
 18390              	.LASF36:
 18391 2b32 53494E4B 		.ascii	"SINK_FREE\000"
 18391      5F465245 
 18391      4500
 18392              	.LASF26:
 18393 2b3c 4E4F4E45 		.ascii	"NONE\000"
 18393      00
 18394              	.LASF499:
 18395 2b41 50756D70 		.ascii	"PumpStateJobTimeout\000"
 18395      53746174 
 18395      654A6F62 
 18395      54696D65 
 18395      6F757400 
 18396              	.LASF91:
 18397 2b55 49425554 		.ascii	"IBUTTON2_SCAN\000"
 18397      544F4E32 
 18397      5F534341 
 18397      4E00
 18398              	.LASF441:
 18399 2b63 52465F4D 		.ascii	"RF_MUX_PENDING_CREDIT_SALE_RESPONSE\000"
 18399      55585F50 
 18399      454E4449 
 18399      4E475F43 
 18399      52454449 
 18400              	.LASF370:
 18401 2b87 5F646973 		.ascii	"_displaydigitsmode\000"
 18401      706C6179 
 18401      64696769 
 18401      74736D6F 
 18401      646500
 18402              	.LASF14:
 18403 2b9a 75696E74 		.ascii	"uint16\000"
 18403      313600
 18404              	.LASF448:
 18405 2ba1 52465F4D 		.ascii	"RF_MUX_ISLAND_OPER_DATA_REQUEST\000"
 18405      55585F49 
 18405      534C414E 
 18405      445F4F50 
 18405      45525F44 
 18406              	.LASF299:
 18407 2bc1 50756D70 		.ascii	"PumpTransQueueUnlock\000"
 18407      5472616E 
 18407      73517565 
 18407      7565556E 
 18407      6C6F636B 
 18408              	.LASF125:
 18409 2bd6 5F707561 		.ascii	"_puartmanager\000"
 18409      72746D61 
 18409      6E616765 
 18409      7200
 18410              	.LASF435:
 18411 2be4 52465F4D 		.ascii	"RF_MUX_GENERAL_PRINT_RESPONSE\000"
 18411      55585F47 
ARM GAS  C:\Users\RECEPC~1\AppData\Local\Temp\ccNQP0pp.s 			page 404


 18411      454E4552 
 18411      414C5F50 
 18411      52494E54 
 18412              	.LASF471:
 18413 2c02 52464175 		.ascii	"RFAutoRun\000"
 18413      746F5275 
 18413      6E00
 18414              	.LASF48:
 18415 2c0c 5F627566 		.ascii	"_buffersize\000"
 18415      66657273 
 18415      697A6500 
 18416              	.LASF405:
 18417 2c18 45455052 		.ascii	"EEPROM_DISPENSER_PUMP22_TRANSACTION_PAGE\000"
 18417      4F4D5F44 
 18417      49535045 
 18417      4E534552 
 18417      5F50554D 
 18418              	.LASF171:
 18419 2c41 44495350 		.ascii	"DISPLAY_AUTORIZACION_RECHAZADA\000"
 18419      4C41595F 
 18419      4155544F 
 18419      52495A41 
 18419      43494F4E 
 18420              	.LASF472:
 18421 2c60 5F707269 		.ascii	"_printerportside1\000"
 18421      6E746572 
 18421      706F7274 
 18421      73696465 
 18421      3100
 18422              		.ident	"GCC: (GNU Tools for ARM Embedded Processors) 4.9.3 20150303 (release) [ARM/embedded-4_9-br
