ARM GAS  C:\Users\RECEPC~1\AppData\Local\Temp\ccEI1MLs.s 			page 1


   1              		.syntax unified
   2              		.cpu cortex-m3
   3              		.fpu softvfp
   4              		.eabi_attribute 20, 1
   5              		.eabi_attribute 21, 1
   6              		.eabi_attribute 23, 3
   7              		.eabi_attribute 24, 1
   8              		.eabi_attribute 25, 1
   9              		.eabi_attribute 26, 1
  10              		.eabi_attribute 30, 6
  11              		.eabi_attribute 34, 1
  12              		.eabi_attribute 18, 4
  13              		.thumb
  14              		.file	"PrimeImpl.c"
  15              		.text
  16              	.Ltext0:
  17              		.cfi_sections	.debug_frame
  18              		.section	.text.AcquirePumpStateResponse,"ax",%progbits
  19              		.align	2
  20              		.global	AcquirePumpStateResponse
  21              		.thumb
  22              		.thumb_func
  23              		.type	AcquirePumpStateResponse, %function
  24              	AcquirePumpStateResponse:
  25              	.LFB63:
  26              		.file 1 ".\\PrimeImpl.c"
   1:.\PrimeImpl.c **** /* ========================================
   2:.\PrimeImpl.c ****  *
   3:.\PrimeImpl.c ****  * Copyright INSEPET SISTEMAS, 2016
   4:.\PrimeImpl.c ****  * All Rights Reserved
   5:.\PrimeImpl.c ****  * UNPUBLISHED, LICENSED SOFTWARE.
   6:.\PrimeImpl.c ****  *
   7:.\PrimeImpl.c ****  * CONFIDENTIAL AND PROPRIETARY INFORMATION
   8:.\PrimeImpl.c ****  * WHICH IS THE PROPERTY OF your company.
   9:.\PrimeImpl.c ****  *
  10:.\PrimeImpl.c ****  * ========================================
  11:.\PrimeImpl.c **** @Created By: HIJH
  12:.\PrimeImpl.c **** @Date: Septembre de 2016
  13:.\PrimeImpl.c **** */
  14:.\PrimeImpl.c **** 
  15:.\PrimeImpl.c **** #include <project.h>
  16:.\PrimeImpl.c **** #include "GlobalDefinitions.h"
  17:.\PrimeImpl.c **** #include "SinkManager.h"
  18:.\PrimeImpl.c **** #include "SinkObservables.h"
  19:.\PrimeImpl.c **** #include "UARTManager.h"
  20:.\PrimeImpl.c **** #include "Display.h"
  21:.\PrimeImpl.c **** #include "Dispenser.h"
  22:.\PrimeImpl.c **** #include "Eeprom.h"
  23:.\PrimeImpl.c **** #include "RFLink.h"
  24:.\PrimeImpl.c **** #include "Printer.h"
  25:.\PrimeImpl.c **** #include "Rtc.h"
  26:.\PrimeImpl.c **** 
  27:.\PrimeImpl.c **** #ifdef PRIME_PROTOCOL
  28:.\PrimeImpl.c **** 
  29:.\PrimeImpl.c **** uint8_t FindLRC(char8 *_pbuffer);
  30:.\PrimeImpl.c **** uint8_t GetLRC(char8 *_pbuffer);
  31:.\PrimeImpl.c **** 
ARM GAS  C:\Users\RECEPC~1\AppData\Local\Temp\ccEI1MLs.s 			page 2


  32:.\PrimeImpl.c **** void ComplementaryCreditTransactionOnHose(LPVOID pparam);
  33:.\PrimeImpl.c **** void PrimeActivateProgramming(LPVOID pparam);
  34:.\PrimeImpl.c **** extern PNEARDISPENSERACTIVATEPROGRAMMING _g_ptractprogramming;
  35:.\PrimeImpl.c **** 
  36:.\PrimeImpl.c **** ///////////////////////////////////////////////////////////////////////////////////////////////////
  37:.\PrimeImpl.c **** //////////////////////                 BLOCK OF AVAILABLE RESPONSE HANDLERS
  38:.\PrimeImpl.c **** ///////////////////////////////////////////////////////////////////////////////////////////////////
  39:.\PrimeImpl.c **** 
  40:.\PrimeImpl.c **** //@Created By: HIJH
  41:.\PrimeImpl.c **** //@Date: Septembre de 2016
  42:.\PrimeImpl.c **** //Updates the pump state into the pump structure
  43:.\PrimeImpl.c **** void AcquirePumpStateResponse(void *pparam)
  44:.\PrimeImpl.c **** {
  27              		.loc 1 44 0
  28              		.cfi_startproc
  29              		@ args = 0, pretend = 0, frame = 16
  30              		@ frame_needed = 1, uses_anonymous_args = 0
  31 0000 80B5     		push	{r7, lr}
  32              		.cfi_def_cfa_offset 8
  33              		.cfi_offset 7, -8
  34              		.cfi_offset 14, -4
  35 0002 84B0     		sub	sp, sp, #16
  36              		.cfi_def_cfa_offset 24
  37 0004 00AF     		add	r7, sp, #0
  38              		.cfi_def_cfa_register 7
  39 0006 7860     		str	r0, [r7, #4]
  45:.\PrimeImpl.c ****     PPUMPTRANSACTIONJOBCONTEXTPTR pjob = (PPUMPTRANSACTIONJOBCONTEXTPTR)pparam;
  40              		.loc 1 45 0
  41 0008 7B68     		ldr	r3, [r7, #4]
  42 000a FB60     		str	r3, [r7, #12]
  46:.\PrimeImpl.c ****     if(pjob)
  43              		.loc 1 46 0
  44 000c FB68     		ldr	r3, [r7, #12]
  45 000e 002B     		cmp	r3, #0
  46 0010 3ED0     		beq	.L1
  47              	.LBB2:
  47:.\PrimeImpl.c ****     {
  48:.\PrimeImpl.c ****         uint8 prevstate = pjob->_ppump->_pumpstate;
  48              		.loc 1 48 0
  49 0012 FB68     		ldr	r3, [r7, #12]
  50 0014 DB69     		ldr	r3, [r3, #28]
  51 0016 9B78     		ldrb	r3, [r3, #2]
  52 0018 FB72     		strb	r3, [r7, #11]
  49:.\PrimeImpl.c ****         pjob->_ppump->_pumpstate = ((pjob->_ppump->_rxbuffer[0x00] & 0xF0) >> 4);
  53              		.loc 1 49 0
  54 001a FB68     		ldr	r3, [r7, #12]
  55 001c DB69     		ldr	r3, [r3, #28]
  56 001e FA68     		ldr	r2, [r7, #12]
  57 0020 D269     		ldr	r2, [r2, #28]
  58 0022 92F88821 		ldrb	r2, [r2, #392]	@ zero_extendqisi2
  59 0026 1209     		lsrs	r2, r2, #4
  60 0028 D2B2     		uxtb	r2, r2
  61 002a 9A70     		strb	r2, [r3, #2]
  50:.\PrimeImpl.c ****         if(pjob->_ppump->PumpValidState(pjob->_ppump))
  62              		.loc 1 50 0
  63 002c FB68     		ldr	r3, [r7, #12]
  64 002e DB69     		ldr	r3, [r3, #28]
ARM GAS  C:\Users\RECEPC~1\AppData\Local\Temp\ccEI1MLs.s 			page 3


  65 0030 D3F8303B 		ldr	r3, [r3, #2864]
  66 0034 FA68     		ldr	r2, [r7, #12]
  67 0036 D269     		ldr	r2, [r2, #28]
  68 0038 1046     		mov	r0, r2
  69 003a 9847     		blx	r3
  70 003c 0346     		mov	r3, r0
  71 003e 002B     		cmp	r3, #0
  72 0040 04D0     		beq	.L3
  51:.\PrimeImpl.c ****             pjob->_ppump->_transhealth = _PUMP_OK_;
  73              		.loc 1 51 0
  74 0042 FB68     		ldr	r3, [r7, #12]
  75 0044 DB69     		ldr	r3, [r3, #28]
  76 0046 0122     		movs	r2, #1
  77 0048 1A76     		strb	r2, [r3, #24]
  78 004a 07E0     		b	.L4
  79              	.L3:
  52:.\PrimeImpl.c ****         else
  53:.\PrimeImpl.c ****         {
  54:.\PrimeImpl.c ****             pjob->_ppump->_transhealth = _PUMP_FAIL_;
  80              		.loc 1 54 0
  81 004c FB68     		ldr	r3, [r7, #12]
  82 004e DB69     		ldr	r3, [r3, #28]
  83 0050 0222     		movs	r2, #2
  84 0052 1A76     		strb	r2, [r3, #24]
  55:.\PrimeImpl.c ****             pjob->_ppump->_pumpstate = prevstate;
  85              		.loc 1 55 0
  86 0054 FB68     		ldr	r3, [r7, #12]
  87 0056 DB69     		ldr	r3, [r3, #28]
  88 0058 FA7A     		ldrb	r2, [r7, #11]
  89 005a 9A70     		strb	r2, [r3, #2]
  90              	.L4:
  56:.\PrimeImpl.c ****         }
  57:.\PrimeImpl.c ****         
  58:.\PrimeImpl.c ****         #ifdef CREDIT_SALE_PUMP_LOCK
  59:.\PrimeImpl.c ****         if(pjob->_ppump->_pumpstate == PUMP_CALLING)
  60:.\PrimeImpl.c ****             pjob->_ppump->_pumplocked = false;
  61:.\PrimeImpl.c ****         #endif
  62:.\PrimeImpl.c ****         
  63:.\PrimeImpl.c ****         if((pjob->_ppump->_pumpstate == PUMP_IDLE || pjob->_ppump->_pumpstate == PUMP_CALLING) && 
  91              		.loc 1 63 0
  92 005c FB68     		ldr	r3, [r7, #12]
  93 005e DB69     		ldr	r3, [r3, #28]
  94 0060 9B78     		ldrb	r3, [r3, #2]
  95 0062 DBB2     		uxtb	r3, r3
  96 0064 062B     		cmp	r3, #6
  97 0066 05D0     		beq	.L5
  98              		.loc 1 63 0 is_stmt 0 discriminator 2
  99 0068 FB68     		ldr	r3, [r7, #12]
 100 006a DB69     		ldr	r3, [r3, #28]
 101 006c 9B78     		ldrb	r3, [r3, #2]
 102 006e DBB2     		uxtb	r3, r3
 103 0070 072B     		cmp	r3, #7
 104 0072 09D1     		bne	.L6
 105              	.L5:
 106              		.loc 1 63 0 discriminator 3
 107 0074 FB7A     		ldrb	r3, [r7, #11]	@ zero_extendqisi2
 108 0076 092B     		cmp	r3, #9
ARM GAS  C:\Users\RECEPC~1\AppData\Local\Temp\ccEI1MLs.s 			page 4


 109 0078 02D0     		beq	.L7
  64:.\PrimeImpl.c ****             (prevstate == PUMP_BUSY || prevstate == PUMP_AUTHORIZED))
 110              		.loc 1 64 0 is_stmt 1
 111 007a FB7A     		ldrb	r3, [r7, #11]	@ zero_extendqisi2
 112 007c 082B     		cmp	r3, #8
 113 007e 03D1     		bne	.L6
 114              	.L7:
  65:.\PrimeImpl.c ****             pjob->_ppump->_pumprftransstate = RF_IDLE;
 115              		.loc 1 65 0
 116 0080 FB68     		ldr	r3, [r7, #12]
 117 0082 DB69     		ldr	r3, [r3, #28]
 118 0084 0822     		movs	r2, #8
 119 0086 9A73     		strb	r2, [r3, #14]
 120              	.L6:
  66:.\PrimeImpl.c ****         /*if((pjob->_ppump->_pumpstate == PUMP_IDLE || pjob->_ppump->_pumpstate == PUMP_CALLING) &&
  67:.\PrimeImpl.c ****             (prevstate == PUMP_FEOT || prevstate == PUMP_PEOT || prevstate == PUMP_BUSY || prevstat
  68:.\PrimeImpl.c ****             pjob->_ppump->_pumprftransstate = RF_IDLE;*/
  69:.\PrimeImpl.c ****         
  70:.\PrimeImpl.c ****         pjob->_ppump->_acquiringstate = false;
 121              		.loc 1 70 0
 122 0088 FB68     		ldr	r3, [r7, #12]
 123 008a DB69     		ldr	r3, [r3, #28]
 124 008c 0022     		movs	r2, #0
 125 008e 5A71     		strb	r2, [r3, #5]
 126              	.L1:
 127              	.LBE2:
  71:.\PrimeImpl.c ****     }
  72:.\PrimeImpl.c **** }
 128              		.loc 1 72 0
 129 0090 1037     		adds	r7, r7, #16
 130              		.cfi_def_cfa_offset 8
 131 0092 BD46     		mov	sp, r7
 132              		.cfi_def_cfa_register 13
 133              		@ sp needed
 134 0094 80BD     		pop	{r7, pc}
 135              		.cfi_endproc
 136              	.LFE63:
 137              		.size	AcquirePumpStateResponse, .-AcquirePumpStateResponse
 138 0096 00BF     		.section	.text.AcquireDatatoPumpResponse,"ax",%progbits
 139              		.align	2
 140              		.global	AcquireDatatoPumpResponse
 141              		.thumb
 142              		.thumb_func
 143              		.type	AcquireDatatoPumpResponse, %function
 144              	AcquireDatatoPumpResponse:
 145              	.LFB64:
  73:.\PrimeImpl.c **** 
  74:.\PrimeImpl.c **** //@Created By: HIJH
  75:.\PrimeImpl.c **** //@Date: Septembre de 2016
  76:.\PrimeImpl.c **** //Validates the response from the pump previous batch transfer (0xDp)
  77:.\PrimeImpl.c **** void AcquireDatatoPumpResponse(void *pparam)
  78:.\PrimeImpl.c **** {
 146              		.loc 1 78 0
 147              		.cfi_startproc
 148              		@ args = 0, pretend = 0, frame = 16
 149              		@ frame_needed = 1, uses_anonymous_args = 0
 150              		@ link register save eliminated.
ARM GAS  C:\Users\RECEPC~1\AppData\Local\Temp\ccEI1MLs.s 			page 5


 151 0000 80B4     		push	{r7}
 152              		.cfi_def_cfa_offset 4
 153              		.cfi_offset 7, -4
 154 0002 85B0     		sub	sp, sp, #20
 155              		.cfi_def_cfa_offset 24
 156 0004 00AF     		add	r7, sp, #0
 157              		.cfi_def_cfa_register 7
 158 0006 7860     		str	r0, [r7, #4]
  79:.\PrimeImpl.c ****     PPUMPTRANSACTIONJOBCONTEXTPTR pjob = (PPUMPTRANSACTIONJOBCONTEXTPTR)pparam;
 159              		.loc 1 79 0
 160 0008 7B68     		ldr	r3, [r7, #4]
 161 000a FB60     		str	r3, [r7, #12]
  80:.\PrimeImpl.c ****     if(pjob)
 162              		.loc 1 80 0
 163 000c FB68     		ldr	r3, [r7, #12]
 164 000e 002B     		cmp	r3, #0
 165 0010 15D0     		beq	.L8
  81:.\PrimeImpl.c ****     {
  82:.\PrimeImpl.c ****         if((0x0F & pjob->_ppump->_pumpid) == (pjob->_ppump->_rxbuffer[0x00] & 0x0F))
 166              		.loc 1 82 0
 167 0012 FB68     		ldr	r3, [r7, #12]
 168 0014 DB69     		ldr	r3, [r3, #28]
 169 0016 1B78     		ldrb	r3, [r3]	@ zero_extendqisi2
 170 0018 1A46     		mov	r2, r3
 171 001a FB68     		ldr	r3, [r7, #12]
 172 001c DB69     		ldr	r3, [r3, #28]
 173 001e 93F88831 		ldrb	r3, [r3, #392]	@ zero_extendqisi2
 174 0022 5340     		eors	r3, r3, r2
 175 0024 03F00F03 		and	r3, r3, #15
 176 0028 002B     		cmp	r3, #0
 177 002a 08D1     		bne	.L8
  83:.\PrimeImpl.c ****             pjob->_ppump->_pumpstate = ((pjob->_ppump->_rxbuffer[0x00] & 0xF0) >> 4);
 178              		.loc 1 83 0
 179 002c FB68     		ldr	r3, [r7, #12]
 180 002e DB69     		ldr	r3, [r3, #28]
 181 0030 FA68     		ldr	r2, [r7, #12]
 182 0032 D269     		ldr	r2, [r2, #28]
 183 0034 92F88821 		ldrb	r2, [r2, #392]	@ zero_extendqisi2
 184 0038 1209     		lsrs	r2, r2, #4
 185 003a D2B2     		uxtb	r2, r2
 186 003c 9A70     		strb	r2, [r3, #2]
 187              	.L8:
  84:.\PrimeImpl.c ****     }
  85:.\PrimeImpl.c **** }
 188              		.loc 1 85 0
 189 003e 1437     		adds	r7, r7, #20
 190              		.cfi_def_cfa_offset 4
 191 0040 BD46     		mov	sp, r7
 192              		.cfi_def_cfa_register 13
 193              		@ sp needed
 194 0042 5DF8047B 		ldr	r7, [sp], #4
 195              		.cfi_restore 7
 196              		.cfi_def_cfa_offset 0
 197 0046 7047     		bx	lr
 198              		.cfi_endproc
 199              	.LFE64:
 200              		.size	AcquireDatatoPumpResponse, .-AcquireDatatoPumpResponse
ARM GAS  C:\Users\RECEPC~1\AppData\Local\Temp\ccEI1MLs.s 			page 6


 201              		.section	.text.ProcessPumpRTMoneyRequest,"ax",%progbits
 202              		.align	2
 203              		.global	ProcessPumpRTMoneyRequest
 204              		.thumb
 205              		.thumb_func
 206              		.type	ProcessPumpRTMoneyRequest, %function
 207              	ProcessPumpRTMoneyRequest:
 208              	.LFB65:
  86:.\PrimeImpl.c **** 
  87:.\PrimeImpl.c **** void ProcessPumpRTMoneyRequest(void *pparam)
  88:.\PrimeImpl.c **** {
 209              		.loc 1 88 0
 210              		.cfi_startproc
 211              		@ args = 0, pretend = 0, frame = 16
 212              		@ frame_needed = 1, uses_anonymous_args = 0
 213 0000 90B5     		push	{r4, r7, lr}
 214              		.cfi_def_cfa_offset 12
 215              		.cfi_offset 4, -12
 216              		.cfi_offset 7, -8
 217              		.cfi_offset 14, -4
 218 0002 85B0     		sub	sp, sp, #20
 219              		.cfi_def_cfa_offset 32
 220 0004 00AF     		add	r7, sp, #0
 221              		.cfi_def_cfa_register 7
 222 0006 7860     		str	r0, [r7, #4]
  89:.\PrimeImpl.c ****     PPUMPTRANSACTIONJOBCONTEXTPTR pjob = (PPUMPTRANSACTIONJOBCONTEXTPTR)pparam;
 223              		.loc 1 89 0
 224 0008 7B68     		ldr	r3, [r7, #4]
 225 000a FB60     		str	r3, [r7, #12]
  90:.\PrimeImpl.c ****     if(pjob)
 226              		.loc 1 90 0
 227 000c FB68     		ldr	r3, [r7, #12]
 228 000e 002B     		cmp	r3, #0
 229 0010 63D0     		beq	.L10
  91:.\PrimeImpl.c ****     {
  92:.\PrimeImpl.c ****         //Bytes from index 0 to 7 are the digits for the Real Time Money Data in BCD format
  93:.\PrimeImpl.c ****         pjob->_ppump->_rxbuffer[0x00] = (pjob->_ppump->_rxbuffer[0x00] & 0x0F);
 230              		.loc 1 93 0
 231 0012 FB68     		ldr	r3, [r7, #12]
 232 0014 DB69     		ldr	r3, [r3, #28]
 233 0016 FA68     		ldr	r2, [r7, #12]
 234 0018 D269     		ldr	r2, [r2, #28]
 235 001a 92F88821 		ldrb	r2, [r2, #392]	@ zero_extendqisi2
 236 001e 02F00F02 		and	r2, r2, #15
 237 0022 D2B2     		uxtb	r2, r2
 238 0024 83F88821 		strb	r2, [r3, #392]
  94:.\PrimeImpl.c ****         pjob->_ppump->_rxbuffer[0x01] = (pjob->_ppump->_rxbuffer[0x01] & 0x0F);
 239              		.loc 1 94 0
 240 0028 FB68     		ldr	r3, [r7, #12]
 241 002a DB69     		ldr	r3, [r3, #28]
 242 002c FA68     		ldr	r2, [r7, #12]
 243 002e D269     		ldr	r2, [r2, #28]
 244 0030 92F88921 		ldrb	r2, [r2, #393]	@ zero_extendqisi2
 245 0034 02F00F02 		and	r2, r2, #15
 246 0038 D2B2     		uxtb	r2, r2
 247 003a 83F88921 		strb	r2, [r3, #393]
  95:.\PrimeImpl.c ****         pjob->_ppump->_rxbuffer[0x02] = (pjob->_ppump->_rxbuffer[0x02] & 0x0F);
ARM GAS  C:\Users\RECEPC~1\AppData\Local\Temp\ccEI1MLs.s 			page 7


 248              		.loc 1 95 0
 249 003e FB68     		ldr	r3, [r7, #12]
 250 0040 DB69     		ldr	r3, [r3, #28]
 251 0042 FA68     		ldr	r2, [r7, #12]
 252 0044 D269     		ldr	r2, [r2, #28]
 253 0046 92F88A21 		ldrb	r2, [r2, #394]	@ zero_extendqisi2
 254 004a 02F00F02 		and	r2, r2, #15
 255 004e D2B2     		uxtb	r2, r2
 256 0050 83F88A21 		strb	r2, [r3, #394]
  96:.\PrimeImpl.c ****         pjob->_ppump->_rxbuffer[0x03] = (pjob->_ppump->_rxbuffer[0x03] & 0x0F);
 257              		.loc 1 96 0
 258 0054 FB68     		ldr	r3, [r7, #12]
 259 0056 DB69     		ldr	r3, [r3, #28]
 260 0058 FA68     		ldr	r2, [r7, #12]
 261 005a D269     		ldr	r2, [r2, #28]
 262 005c 92F88B21 		ldrb	r2, [r2, #395]	@ zero_extendqisi2
 263 0060 02F00F02 		and	r2, r2, #15
 264 0064 D2B2     		uxtb	r2, r2
 265 0066 83F88B21 		strb	r2, [r3, #395]
  97:.\PrimeImpl.c ****         pjob->_ppump->_rxbuffer[0x04] = (pjob->_ppump->_rxbuffer[0x04] & 0x0F);
 266              		.loc 1 97 0
 267 006a FB68     		ldr	r3, [r7, #12]
 268 006c DB69     		ldr	r3, [r3, #28]
 269 006e FA68     		ldr	r2, [r7, #12]
 270 0070 D269     		ldr	r2, [r2, #28]
 271 0072 92F88C21 		ldrb	r2, [r2, #396]	@ zero_extendqisi2
 272 0076 02F00F02 		and	r2, r2, #15
 273 007a D2B2     		uxtb	r2, r2
 274 007c 83F88C21 		strb	r2, [r3, #396]
  98:.\PrimeImpl.c ****         pjob->_ppump->_rxbuffer[0x05] = (pjob->_ppump->_rxbuffer[0x05] & 0x0F);
 275              		.loc 1 98 0
 276 0080 FB68     		ldr	r3, [r7, #12]
 277 0082 DB69     		ldr	r3, [r3, #28]
 278 0084 FA68     		ldr	r2, [r7, #12]
 279 0086 D269     		ldr	r2, [r2, #28]
 280 0088 92F88D21 		ldrb	r2, [r2, #397]	@ zero_extendqisi2
 281 008c 02F00F02 		and	r2, r2, #15
 282 0090 D2B2     		uxtb	r2, r2
 283 0092 83F88D21 		strb	r2, [r3, #397]
  99:.\PrimeImpl.c ****         pjob->_ppump->_rxbuffer[0x06] = (pjob->_ppump->_rxbuffer[0x06] & 0x0F);
 284              		.loc 1 99 0
 285 0096 FB68     		ldr	r3, [r7, #12]
 286 0098 DB69     		ldr	r3, [r3, #28]
 287 009a FA68     		ldr	r2, [r7, #12]
 288 009c D269     		ldr	r2, [r2, #28]
 289 009e 92F88E21 		ldrb	r2, [r2, #398]	@ zero_extendqisi2
 290 00a2 02F00F02 		and	r2, r2, #15
 291 00a6 D2B2     		uxtb	r2, r2
 292 00a8 83F88E21 		strb	r2, [r3, #398]
 100:.\PrimeImpl.c ****         pjob->_ppump->_rxbuffer[0x07] = (pjob->_ppump->_rxbuffer[0x07] & 0x0F);
 293              		.loc 1 100 0
 294 00ac FB68     		ldr	r3, [r7, #12]
 295 00ae DB69     		ldr	r3, [r3, #28]
 296 00b0 FA68     		ldr	r2, [r7, #12]
 297 00b2 D269     		ldr	r2, [r2, #28]
 298 00b4 92F88F21 		ldrb	r2, [r2, #399]	@ zero_extendqisi2
 299 00b8 02F00F02 		and	r2, r2, #15
ARM GAS  C:\Users\RECEPC~1\AppData\Local\Temp\ccEI1MLs.s 			page 8


 300 00bc D2B2     		uxtb	r2, r2
 301 00be 83F88F21 		strb	r2, [r3, #399]
 101:.\PrimeImpl.c ****         pjob->_ppump->_rtmoneyamount = LSDBCDBUFF2HEX(PBYTECAST(&pjob->_ppump->_rxbuffer[0x00]), 0x
 302              		.loc 1 101 0
 303 00c2 FB68     		ldr	r3, [r7, #12]
 304 00c4 DC69     		ldr	r4, [r3, #28]
 305 00c6 FB68     		ldr	r3, [r7, #12]
 306 00c8 DB69     		ldr	r3, [r3, #28]
 307 00ca 03F5C473 		add	r3, r3, #392
 308 00ce 1846     		mov	r0, r3
 309 00d0 0821     		movs	r1, #8
 310 00d2 FFF7FEFF 		bl	LSDBCDBUFF2HEX
 311 00d6 0346     		mov	r3, r0
 312 00d8 2361     		str	r3, [r4, #16]
 313              	.L10:
 102:.\PrimeImpl.c ****     }
 103:.\PrimeImpl.c **** }
 314              		.loc 1 103 0
 315 00da 1437     		adds	r7, r7, #20
 316              		.cfi_def_cfa_offset 12
 317 00dc BD46     		mov	sp, r7
 318              		.cfi_def_cfa_register 13
 319              		@ sp needed
 320 00de 90BD     		pop	{r4, r7, pc}
 321              		.cfi_endproc
 322              	.LFE65:
 323              		.size	ProcessPumpRTMoneyRequest, .-ProcessPumpRTMoneyRequest
 324              		.section	.text.ProcessPumpRTHoseVolumeRequest,"ax",%progbits
 325              		.align	2
 326              		.global	ProcessPumpRTHoseVolumeRequest
 327              		.thumb
 328              		.thumb_func
 329              		.type	ProcessPumpRTHoseVolumeRequest, %function
 330              	ProcessPumpRTHoseVolumeRequest:
 331              	.LFB66:
 104:.\PrimeImpl.c **** 
 105:.\PrimeImpl.c **** void ProcessPumpRTHoseVolumeRequest(void *pparam)
 106:.\PrimeImpl.c **** {
 332              		.loc 1 106 0
 333              		.cfi_startproc
 334              		@ args = 0, pretend = 0, frame = 16
 335              		@ frame_needed = 1, uses_anonymous_args = 0
 336 0000 90B5     		push	{r4, r7, lr}
 337              		.cfi_def_cfa_offset 12
 338              		.cfi_offset 4, -12
 339              		.cfi_offset 7, -8
 340              		.cfi_offset 14, -4
 341 0002 85B0     		sub	sp, sp, #20
 342              		.cfi_def_cfa_offset 32
 343 0004 00AF     		add	r7, sp, #0
 344              		.cfi_def_cfa_register 7
 345 0006 7860     		str	r0, [r7, #4]
 107:.\PrimeImpl.c ****     PPUMPTRANSACTIONJOBCONTEXTPTR pjob = (PPUMPTRANSACTIONJOBCONTEXTPTR)pparam;
 346              		.loc 1 107 0
 347 0008 7B68     		ldr	r3, [r7, #4]
 348 000a FB60     		str	r3, [r7, #12]
 108:.\PrimeImpl.c ****     if(pjob)
ARM GAS  C:\Users\RECEPC~1\AppData\Local\Temp\ccEI1MLs.s 			page 9


 349              		.loc 1 108 0
 350 000c FB68     		ldr	r3, [r7, #12]
 351 000e 002B     		cmp	r3, #0
 352 0010 6DD0     		beq	.L12
 109:.\PrimeImpl.c ****     {
 110:.\PrimeImpl.c ****         pjob->_ppump->_currenthose = (pjob->_ppump->_rxbuffer[0x00] & 0x0F);//Real Time Hose Data
 353              		.loc 1 110 0
 354 0012 FB68     		ldr	r3, [r7, #12]
 355 0014 DB69     		ldr	r3, [r3, #28]
 356 0016 FA68     		ldr	r2, [r7, #12]
 357 0018 D269     		ldr	r2, [r2, #28]
 358 001a 92F88821 		ldrb	r2, [r2, #392]	@ zero_extendqisi2
 359 001e 02F00F02 		and	r2, r2, #15
 360 0022 D2B2     		uxtb	r2, r2
 361 0024 DA70     		strb	r2, [r3, #3]
 111:.\PrimeImpl.c ****         
 112:.\PrimeImpl.c ****         //Bytes from index 1 to 8 are the digits for the Real Time Volume Data in BCD format
 113:.\PrimeImpl.c ****         pjob->_ppump->_rxbuffer[0x01] = (pjob->_ppump->_rxbuffer[0x01] & 0x0F);
 362              		.loc 1 113 0
 363 0026 FB68     		ldr	r3, [r7, #12]
 364 0028 DB69     		ldr	r3, [r3, #28]
 365 002a FA68     		ldr	r2, [r7, #12]
 366 002c D269     		ldr	r2, [r2, #28]
 367 002e 92F88921 		ldrb	r2, [r2, #393]	@ zero_extendqisi2
 368 0032 02F00F02 		and	r2, r2, #15
 369 0036 D2B2     		uxtb	r2, r2
 370 0038 83F88921 		strb	r2, [r3, #393]
 114:.\PrimeImpl.c ****         pjob->_ppump->_rxbuffer[0x02] = (pjob->_ppump->_rxbuffer[0x02] & 0x0F);
 371              		.loc 1 114 0
 372 003c FB68     		ldr	r3, [r7, #12]
 373 003e DB69     		ldr	r3, [r3, #28]
 374 0040 FA68     		ldr	r2, [r7, #12]
 375 0042 D269     		ldr	r2, [r2, #28]
 376 0044 92F88A21 		ldrb	r2, [r2, #394]	@ zero_extendqisi2
 377 0048 02F00F02 		and	r2, r2, #15
 378 004c D2B2     		uxtb	r2, r2
 379 004e 83F88A21 		strb	r2, [r3, #394]
 115:.\PrimeImpl.c ****         pjob->_ppump->_rxbuffer[0x03] = (pjob->_ppump->_rxbuffer[0x03] & 0x0F);
 380              		.loc 1 115 0
 381 0052 FB68     		ldr	r3, [r7, #12]
 382 0054 DB69     		ldr	r3, [r3, #28]
 383 0056 FA68     		ldr	r2, [r7, #12]
 384 0058 D269     		ldr	r2, [r2, #28]
 385 005a 92F88B21 		ldrb	r2, [r2, #395]	@ zero_extendqisi2
 386 005e 02F00F02 		and	r2, r2, #15
 387 0062 D2B2     		uxtb	r2, r2
 388 0064 83F88B21 		strb	r2, [r3, #395]
 116:.\PrimeImpl.c ****         pjob->_ppump->_rxbuffer[0x04] = (pjob->_ppump->_rxbuffer[0x04] & 0x0F);
 389              		.loc 1 116 0
 390 0068 FB68     		ldr	r3, [r7, #12]
 391 006a DB69     		ldr	r3, [r3, #28]
 392 006c FA68     		ldr	r2, [r7, #12]
 393 006e D269     		ldr	r2, [r2, #28]
 394 0070 92F88C21 		ldrb	r2, [r2, #396]	@ zero_extendqisi2
 395 0074 02F00F02 		and	r2, r2, #15
 396 0078 D2B2     		uxtb	r2, r2
 397 007a 83F88C21 		strb	r2, [r3, #396]
ARM GAS  C:\Users\RECEPC~1\AppData\Local\Temp\ccEI1MLs.s 			page 10


 117:.\PrimeImpl.c ****         pjob->_ppump->_rxbuffer[0x05] = (pjob->_ppump->_rxbuffer[0x05] & 0x0F);
 398              		.loc 1 117 0
 399 007e FB68     		ldr	r3, [r7, #12]
 400 0080 DB69     		ldr	r3, [r3, #28]
 401 0082 FA68     		ldr	r2, [r7, #12]
 402 0084 D269     		ldr	r2, [r2, #28]
 403 0086 92F88D21 		ldrb	r2, [r2, #397]	@ zero_extendqisi2
 404 008a 02F00F02 		and	r2, r2, #15
 405 008e D2B2     		uxtb	r2, r2
 406 0090 83F88D21 		strb	r2, [r3, #397]
 118:.\PrimeImpl.c ****         pjob->_ppump->_rxbuffer[0x06] = (pjob->_ppump->_rxbuffer[0x06] & 0x0F);
 407              		.loc 1 118 0
 408 0094 FB68     		ldr	r3, [r7, #12]
 409 0096 DB69     		ldr	r3, [r3, #28]
 410 0098 FA68     		ldr	r2, [r7, #12]
 411 009a D269     		ldr	r2, [r2, #28]
 412 009c 92F88E21 		ldrb	r2, [r2, #398]	@ zero_extendqisi2
 413 00a0 02F00F02 		and	r2, r2, #15
 414 00a4 D2B2     		uxtb	r2, r2
 415 00a6 83F88E21 		strb	r2, [r3, #398]
 119:.\PrimeImpl.c ****         pjob->_ppump->_rxbuffer[0x07] = (pjob->_ppump->_rxbuffer[0x07] & 0x0F);
 416              		.loc 1 119 0
 417 00aa FB68     		ldr	r3, [r7, #12]
 418 00ac DB69     		ldr	r3, [r3, #28]
 419 00ae FA68     		ldr	r2, [r7, #12]
 420 00b0 D269     		ldr	r2, [r2, #28]
 421 00b2 92F88F21 		ldrb	r2, [r2, #399]	@ zero_extendqisi2
 422 00b6 02F00F02 		and	r2, r2, #15
 423 00ba D2B2     		uxtb	r2, r2
 424 00bc 83F88F21 		strb	r2, [r3, #399]
 120:.\PrimeImpl.c ****         pjob->_ppump->_rxbuffer[0x08] = (pjob->_ppump->_rxbuffer[0x08] & 0x0F);
 425              		.loc 1 120 0
 426 00c0 FB68     		ldr	r3, [r7, #12]
 427 00c2 DB69     		ldr	r3, [r3, #28]
 428 00c4 FA68     		ldr	r2, [r7, #12]
 429 00c6 D269     		ldr	r2, [r2, #28]
 430 00c8 92F89021 		ldrb	r2, [r2, #400]	@ zero_extendqisi2
 431 00cc 02F00F02 		and	r2, r2, #15
 432 00d0 D2B2     		uxtb	r2, r2
 433 00d2 83F89021 		strb	r2, [r3, #400]
 121:.\PrimeImpl.c ****         pjob->_ppump->_rtvolumeamount = LSDBCDBUFF2HEX(PBYTECAST(&pjob->_ppump->_rxbuffer[0x01]), 0
 434              		.loc 1 121 0
 435 00d6 FB68     		ldr	r3, [r7, #12]
 436 00d8 DC69     		ldr	r4, [r3, #28]
 437 00da FB68     		ldr	r3, [r7, #12]
 438 00dc DB69     		ldr	r3, [r3, #28]
 439 00de 03F28913 		addw	r3, r3, #393
 440 00e2 1846     		mov	r0, r3
 441 00e4 0821     		movs	r1, #8
 442 00e6 FFF7FEFF 		bl	LSDBCDBUFF2HEX
 443 00ea 0346     		mov	r3, r0
 444 00ec 6361     		str	r3, [r4, #20]
 445              	.L12:
 122:.\PrimeImpl.c ****     }
 123:.\PrimeImpl.c **** }
 446              		.loc 1 123 0
 447 00ee 1437     		adds	r7, r7, #20
ARM GAS  C:\Users\RECEPC~1\AppData\Local\Temp\ccEI1MLs.s 			page 11


 448              		.cfi_def_cfa_offset 12
 449 00f0 BD46     		mov	sp, r7
 450              		.cfi_def_cfa_register 13
 451              		@ sp needed
 452 00f2 90BD     		pop	{r4, r7, pc}
 453              		.cfi_endproc
 454              	.LFE66:
 455              		.size	ProcessPumpRTHoseVolumeRequest, .-ProcessPumpRTHoseVolumeRequest
 456              		.section	.text.ProcessPumpRTHoseVolumeRequestGlobal,"ax",%progbits
 457              		.align	2
 458              		.global	ProcessPumpRTHoseVolumeRequestGlobal
 459              		.thumb
 460              		.thumb_func
 461              		.type	ProcessPumpRTHoseVolumeRequestGlobal, %function
 462              	ProcessPumpRTHoseVolumeRequestGlobal:
 463              	.LFB67:
 124:.\PrimeImpl.c **** 
 125:.\PrimeImpl.c **** void ProcessPumpRTHoseVolumeRequestGlobal(void *pparam)
 126:.\PrimeImpl.c **** {
 464              		.loc 1 126 0
 465              		.cfi_startproc
 466              		@ args = 0, pretend = 0, frame = 16
 467              		@ frame_needed = 1, uses_anonymous_args = 0
 468 0000 80B5     		push	{r7, lr}
 469              		.cfi_def_cfa_offset 8
 470              		.cfi_offset 7, -8
 471              		.cfi_offset 14, -4
 472 0002 84B0     		sub	sp, sp, #16
 473              		.cfi_def_cfa_offset 24
 474 0004 00AF     		add	r7, sp, #0
 475              		.cfi_def_cfa_register 7
 476 0006 7860     		str	r0, [r7, #4]
 127:.\PrimeImpl.c ****     PPUMPTRANSACTIONJOBCONTEXTPTR pjob = (PPUMPTRANSACTIONJOBCONTEXTPTR)pparam;
 477              		.loc 1 127 0
 478 0008 7B68     		ldr	r3, [r7, #4]
 479 000a FB60     		str	r3, [r7, #12]
 128:.\PrimeImpl.c ****     if(pjob)
 480              		.loc 1 128 0
 481 000c FB68     		ldr	r3, [r7, #12]
 482 000e 002B     		cmp	r3, #0
 483 0010 20D0     		beq	.L14
 129:.\PrimeImpl.c ****     {
 130:.\PrimeImpl.c ****         pjob->_ppump->_currenthose = (pjob->_ppump->_rxbuffer[0x00] & 0x0F);//Real Time Hose Data
 484              		.loc 1 130 0
 485 0012 FB68     		ldr	r3, [r7, #12]
 486 0014 DB69     		ldr	r3, [r3, #28]
 487 0016 FA68     		ldr	r2, [r7, #12]
 488 0018 D269     		ldr	r2, [r2, #28]
 489 001a 92F88821 		ldrb	r2, [r2, #392]	@ zero_extendqisi2
 490 001e 02F00F02 		and	r2, r2, #15
 491 0022 D2B2     		uxtb	r2, r2
 492 0024 DA70     		strb	r2, [r3, #3]
 131:.\PrimeImpl.c ****         
 132:.\PrimeImpl.c ****         if(pjob->_ppump->_authorizationinfo._hoseid != pjob->_ppump->_currenthose)
 493              		.loc 1 132 0
 494 0026 FB68     		ldr	r3, [r7, #12]
 495 0028 DB69     		ldr	r3, [r3, #28]
ARM GAS  C:\Users\RECEPC~1\AppData\Local\Temp\ccEI1MLs.s 			page 12


 496 002a 93F87A3B 		ldrb	r3, [r3, #2938]
 497 002e DAB2     		uxtb	r2, r3
 498 0030 FB68     		ldr	r3, [r7, #12]
 499 0032 DB69     		ldr	r3, [r3, #28]
 500 0034 DB78     		ldrb	r3, [r3, #3]
 501 0036 DBB2     		uxtb	r3, r3
 502 0038 9A42     		cmp	r2, r3
 503 003a 08D0     		beq	.L16
 133:.\PrimeImpl.c ****         {
 134:.\PrimeImpl.c ****             pjob->_reenqueue = false;
 504              		.loc 1 134 0
 505 003c FB68     		ldr	r3, [r7, #12]
 506 003e 0022     		movs	r2, #0
 507 0040 1A70     		strb	r2, [r3]
 135:.\PrimeImpl.c ****             ComplementaryCreditTransactionOnHose(pjob->_ppump);
 508              		.loc 1 135 0
 509 0042 FB68     		ldr	r3, [r7, #12]
 510 0044 DB69     		ldr	r3, [r3, #28]
 511 0046 1846     		mov	r0, r3
 512 0048 FFF7FEFF 		bl	ComplementaryCreditTransactionOnHose
 513 004c 02E0     		b	.L14
 514              	.L16:
 136:.\PrimeImpl.c ****         }else
 137:.\PrimeImpl.c ****             pjob->_reenqueue = true;
 515              		.loc 1 137 0
 516 004e FB68     		ldr	r3, [r7, #12]
 517 0050 0122     		movs	r2, #1
 518 0052 1A70     		strb	r2, [r3]
 519              	.L14:
 138:.\PrimeImpl.c ****     }
 139:.\PrimeImpl.c **** }
 520              		.loc 1 139 0
 521 0054 1037     		adds	r7, r7, #16
 522              		.cfi_def_cfa_offset 8
 523 0056 BD46     		mov	sp, r7
 524              		.cfi_def_cfa_register 13
 525              		@ sp needed
 526 0058 80BD     		pop	{r7, pc}
 527              		.cfi_endproc
 528              	.LFE67:
 529              		.size	ProcessPumpRTHoseVolumeRequestGlobal, .-ProcessPumpRTHoseVolumeRequestGlobal
 530 005a 00BF     		.section	.text.ProcessPumpTransactionData,"ax",%progbits
 531              		.align	2
 532              		.global	ProcessPumpTransactionData
 533              		.thumb
 534              		.thumb_func
 535              		.type	ProcessPumpTransactionData, %function
 536              	ProcessPumpTransactionData:
 537              	.LFB68:
 140:.\PrimeImpl.c **** 
 141:.\PrimeImpl.c **** void ProcessPumpTransactionData(void *pparam)
 142:.\PrimeImpl.c **** {
 538              		.loc 1 142 0
 539              		.cfi_startproc
 540              		@ args = 0, pretend = 0, frame = 24
 541              		@ frame_needed = 1, uses_anonymous_args = 0
 542 0000 B0B5     		push	{r4, r5, r7, lr}
ARM GAS  C:\Users\RECEPC~1\AppData\Local\Temp\ccEI1MLs.s 			page 13


 543              		.cfi_def_cfa_offset 16
 544              		.cfi_offset 4, -16
 545              		.cfi_offset 5, -12
 546              		.cfi_offset 7, -8
 547              		.cfi_offset 14, -4
 548 0002 86B0     		sub	sp, sp, #24
 549              		.cfi_def_cfa_offset 40
 550 0004 00AF     		add	r7, sp, #0
 551              		.cfi_def_cfa_register 7
 552 0006 7860     		str	r0, [r7, #4]
 143:.\PrimeImpl.c ****     PPUMPTRANSACTIONJOBCONTEXTPTR pjob = (PPUMPTRANSACTIONJOBCONTEXTPTR)pparam;
 553              		.loc 1 143 0
 554 0008 7B68     		ldr	r3, [r7, #4]
 555 000a 7B61     		str	r3, [r7, #20]
 144:.\PrimeImpl.c ****     if(pjob)
 556              		.loc 1 144 0
 557 000c 7B69     		ldr	r3, [r7, #20]
 558 000e 002B     		cmp	r3, #0
 559 0010 00F06D84 		beq	.L17
 560              	.LBB3:
 145:.\PrimeImpl.c ****     {        
 146:.\PrimeImpl.c ****         {
 147:.\PrimeImpl.c ****             pjob->_ppump->_rxbuffer[0x09] = (pjob->_ppump->_rxbuffer[0x09] & 0x0F);//Hose id
 561              		.loc 1 147 0
 562 0014 7B69     		ldr	r3, [r7, #20]
 563 0016 DB69     		ldr	r3, [r3, #28]
 564 0018 7A69     		ldr	r2, [r7, #20]
 565 001a D269     		ldr	r2, [r2, #28]
 566 001c 92F89121 		ldrb	r2, [r2, #401]	@ zero_extendqisi2
 567 0020 02F00F02 		and	r2, r2, #15
 568 0024 D2B2     		uxtb	r2, r2
 569 0026 83F89121 		strb	r2, [r3, #401]
 148:.\PrimeImpl.c ****             pjob->_ppump->_authorizationinfo._hoseid = pjob->_ppump->_rxbuffer[0x09];//Hose id
 570              		.loc 1 148 0
 571 002a 7B69     		ldr	r3, [r7, #20]
 572 002c DB69     		ldr	r3, [r3, #28]
 573 002e 7A69     		ldr	r2, [r7, #20]
 574 0030 D269     		ldr	r2, [r2, #28]
 575 0032 92F89121 		ldrb	r2, [r2, #401]	@ zero_extendqisi2
 576 0036 83F87A2B 		strb	r2, [r3, #2938]
 149:.\PrimeImpl.c ****             
 150:.\PrimeImpl.c ****             //In this position is located the payment type (CREDIT: 0x0E , CASH:0x0D)
 151:.\PrimeImpl.c ****             if(pjob->_ppump->_trasactionbuffer[0x00] == 0x0D)
 577              		.loc 1 151 0
 578 003a 7B69     		ldr	r3, [r7, #20]
 579 003c DB69     		ldr	r3, [r3, #28]
 580 003e 93F82030 		ldrb	r3, [r3, #32]	@ zero_extendqisi2
 581 0042 0D2B     		cmp	r3, #13
 582 0044 40F0E080 		bne	.L19
 583              	.LBB4:
 152:.\PrimeImpl.c ****             {
 153:.\PrimeImpl.c ****                 I2CBusLock();
 584              		.loc 1 153 0
 585 0048 FFF7FEFF 		bl	I2CBusLock
 154:.\PrimeImpl.c ****                 ClearEepromBuffer();
 586              		.loc 1 154 0
 587 004c FFF7FEFF 		bl	ClearEepromBuffer
ARM GAS  C:\Users\RECEPC~1\AppData\Local\Temp\ccEI1MLs.s 			page 14


 155:.\PrimeImpl.c ****                 uint16 eeprompage = DispenserGetEepromPPUPageFromPumpID(pjob->_ppump->_pumpid);
 588              		.loc 1 155 0
 589 0050 7B69     		ldr	r3, [r7, #20]
 590 0052 DB69     		ldr	r3, [r3, #28]
 591 0054 1B78     		ldrb	r3, [r3]	@ zero_extendqisi2
 592 0056 1846     		mov	r0, r3
 593 0058 FFF7FEFF 		bl	DispenserGetEepromPPUPageFromPumpID
 594 005c 0346     		mov	r3, r0
 595 005e 7B82     		strh	r3, [r7, #18]	@ movhi
 156:.\PrimeImpl.c ****                 LoadEepromPage(eeprompage);
 596              		.loc 1 156 0
 597 0060 7B8A     		ldrh	r3, [r7, #18]
 598 0062 1846     		mov	r0, r3
 599 0064 FFF7FEFF 		bl	LoadEepromPage
 157:.\PrimeImpl.c ****                 switch(pjob->_ppump->_authorizationinfo._hoseid)
 600              		.loc 1 157 0
 601 0068 7B69     		ldr	r3, [r7, #20]
 602 006a DB69     		ldr	r3, [r3, #28]
 603 006c 93F87A3B 		ldrb	r3, [r3, #2938]
 604 0070 DBB2     		uxtb	r3, r3
 605 0072 032B     		cmp	r3, #3
 606 0074 64D8     		bhi	.L20
 607 0076 01A2     		adr	r2, .L22
 608 0078 52F823F0 		ldr	pc, [r2, r3, lsl #2]
 609              		.p2align 2
 610              	.L22:
 611 007c 8D000000 		.word	.L21+1
 612 0080 B7000000 		.word	.L23+1
 613 0084 E5000000 		.word	.L24+1
 614 0088 13010000 		.word	.L25+1
 615              		.p2align 1
 616              	.L21:
 158:.\PrimeImpl.c ****                 {
 159:.\PrimeImpl.c ****                     case 0x00:
 160:.\PrimeImpl.c ****                     //Six bytes only since the PPU is constrained to this length
 161:.\PrimeImpl.c ****                     memcpy(PBYTECAST(&pjob->_ppump->_trasactionbuffer[GetBufferIndexFromDisplayID(D
 617              		.loc 1 161 0
 618 008c 7B69     		ldr	r3, [r7, #20]
 619 008e DC69     		ldr	r4, [r3, #28]
 620 0090 6520     		movs	r0, #101
 621 0092 FFF7FEFF 		bl	GetBufferIndexFromDisplayID
 622 0096 0346     		mov	r3, r0
 623 0098 2033     		adds	r3, r3, #32
 624 009a 1C44     		add	r4, r4, r3
 625 009c FFF7FEFF 		bl	GetEepromBuffer
 626 00a0 0546     		mov	r5, r0
 627 00a2 6520     		movs	r0, #101
 628 00a4 FFF7FEFF 		bl	GetBufferLengthFromDisplayID
 629 00a8 0346     		mov	r3, r0
 630 00aa 2046     		mov	r0, r4
 631 00ac 2946     		mov	r1, r5
 632 00ae 1A46     		mov	r2, r3
 633 00b0 FFF7FEFF 		bl	memcpy
 162:.\PrimeImpl.c ****                     break;
 634              		.loc 1 162 0
 635 00b4 44E0     		b	.L20
 636              	.L23:
ARM GAS  C:\Users\RECEPC~1\AppData\Local\Temp\ccEI1MLs.s 			page 15


 163:.\PrimeImpl.c ****                     case 0x01:
 164:.\PrimeImpl.c ****                     //Six bytes only since the PPU is constrained to this length
 165:.\PrimeImpl.c ****                     memcpy(PBYTECAST(&pjob->_ppump->_trasactionbuffer[GetBufferIndexFromDisplayID(D
 637              		.loc 1 165 0
 638 00b6 7B69     		ldr	r3, [r7, #20]
 639 00b8 DC69     		ldr	r4, [r3, #28]
 640 00ba 6520     		movs	r0, #101
 641 00bc FFF7FEFF 		bl	GetBufferIndexFromDisplayID
 642 00c0 0346     		mov	r3, r0
 643 00c2 2033     		adds	r3, r3, #32
 644 00c4 E518     		adds	r5, r4, r3
 645 00c6 FFF7FEFF 		bl	GetEepromBuffer
 646 00ca 0346     		mov	r3, r0
 647 00cc 03F11004 		add	r4, r3, #16
 648 00d0 6520     		movs	r0, #101
 649 00d2 FFF7FEFF 		bl	GetBufferLengthFromDisplayID
 650 00d6 0346     		mov	r3, r0
 651 00d8 2846     		mov	r0, r5
 652 00da 2146     		mov	r1, r4
 653 00dc 1A46     		mov	r2, r3
 654 00de FFF7FEFF 		bl	memcpy
 166:.\PrimeImpl.c ****                     break;
 655              		.loc 1 166 0
 656 00e2 2DE0     		b	.L20
 657              	.L24:
 167:.\PrimeImpl.c ****                     case 0x02:
 168:.\PrimeImpl.c ****                     //Six bytes only since the PPU is constrained to this length
 169:.\PrimeImpl.c ****                     memcpy(PBYTECAST(&pjob->_ppump->_trasactionbuffer[GetBufferIndexFromDisplayID(D
 658              		.loc 1 169 0
 659 00e4 7B69     		ldr	r3, [r7, #20]
 660 00e6 DC69     		ldr	r4, [r3, #28]
 661 00e8 6520     		movs	r0, #101
 662 00ea FFF7FEFF 		bl	GetBufferIndexFromDisplayID
 663 00ee 0346     		mov	r3, r0
 664 00f0 2033     		adds	r3, r3, #32
 665 00f2 E518     		adds	r5, r4, r3
 666 00f4 FFF7FEFF 		bl	GetEepromBuffer
 667 00f8 0346     		mov	r3, r0
 668 00fa 03F12004 		add	r4, r3, #32
 669 00fe 6520     		movs	r0, #101
 670 0100 FFF7FEFF 		bl	GetBufferLengthFromDisplayID
 671 0104 0346     		mov	r3, r0
 672 0106 2846     		mov	r0, r5
 673 0108 2146     		mov	r1, r4
 674 010a 1A46     		mov	r2, r3
 675 010c FFF7FEFF 		bl	memcpy
 170:.\PrimeImpl.c ****                     break;
 676              		.loc 1 170 0
 677 0110 16E0     		b	.L20
 678              	.L25:
 171:.\PrimeImpl.c ****                     case 0x03:
 172:.\PrimeImpl.c ****                     //Six bytes only since the PPU is constrained to this length
 173:.\PrimeImpl.c ****                     memcpy(PBYTECAST(&pjob->_ppump->_trasactionbuffer[GetBufferIndexFromDisplayID(D
 679              		.loc 1 173 0
 680 0112 7B69     		ldr	r3, [r7, #20]
 681 0114 DC69     		ldr	r4, [r3, #28]
 682 0116 6520     		movs	r0, #101
ARM GAS  C:\Users\RECEPC~1\AppData\Local\Temp\ccEI1MLs.s 			page 16


 683 0118 FFF7FEFF 		bl	GetBufferIndexFromDisplayID
 684 011c 0346     		mov	r3, r0
 685 011e 2033     		adds	r3, r3, #32
 686 0120 E518     		adds	r5, r4, r3
 687 0122 FFF7FEFF 		bl	GetEepromBuffer
 688 0126 0346     		mov	r3, r0
 689 0128 03F13004 		add	r4, r3, #48
 690 012c 6520     		movs	r0, #101
 691 012e FFF7FEFF 		bl	GetBufferLengthFromDisplayID
 692 0132 0346     		mov	r3, r0
 693 0134 2846     		mov	r0, r5
 694 0136 2146     		mov	r1, r4
 695 0138 1A46     		mov	r2, r3
 696 013a FFF7FEFF 		bl	memcpy
 174:.\PrimeImpl.c ****                     break;
 697              		.loc 1 174 0
 698 013e 00BF     		nop
 699              	.L20:
 175:.\PrimeImpl.c ****                 }
 176:.\PrimeImpl.c ****                 I2CBusUnlock();
 700              		.loc 1 176 0
 701 0140 FFF7FEFF 		bl	I2CBusUnlock
 177:.\PrimeImpl.c ****                 
 178:.\PrimeImpl.c ****                 memcpy(PBYTECAST(&pjob->_ppump->_rxbuffer[0x0C]), PBYTECAST(&pjob->_ppump->_trasact
 702              		.loc 1 178 0
 703 0144 7B69     		ldr	r3, [r7, #20]
 704 0146 DB69     		ldr	r3, [r3, #28]
 705 0148 03F5CA75 		add	r5, r3, #404
 706 014c 7B69     		ldr	r3, [r7, #20]
 707 014e DC69     		ldr	r4, [r3, #28]
 708 0150 6520     		movs	r0, #101
 709 0152 FFF7FEFF 		bl	GetBufferIndexFromDisplayID
 710 0156 0346     		mov	r3, r0
 711 0158 2033     		adds	r3, r3, #32
 712 015a 2344     		add	r3, r3, r4
 713 015c 2846     		mov	r0, r5
 714 015e 1946     		mov	r1, r3
 715 0160 0622     		movs	r2, #6
 716 0162 FFF7FEFF 		bl	memcpy
 179:.\PrimeImpl.c ****                 
 180:.\PrimeImpl.c ****                 //Bytes from index 12 to 17 are the digits for the PPU used for the transaction
 181:.\PrimeImpl.c ****                 //Digits are in BCD format
 182:.\PrimeImpl.c ****                 pjob->_ppump->_rxbuffer[0x0C] = (pjob->_ppump->_rxbuffer[0x0C] & 0x0F);
 717              		.loc 1 182 0
 718 0166 7B69     		ldr	r3, [r7, #20]
 719 0168 DB69     		ldr	r3, [r3, #28]
 720 016a 7A69     		ldr	r2, [r7, #20]
 721 016c D269     		ldr	r2, [r2, #28]
 722 016e 92F89421 		ldrb	r2, [r2, #404]	@ zero_extendqisi2
 723 0172 02F00F02 		and	r2, r2, #15
 724 0176 D2B2     		uxtb	r2, r2
 725 0178 83F89421 		strb	r2, [r3, #404]
 183:.\PrimeImpl.c ****                 pjob->_ppump->_rxbuffer[0x0D] = (pjob->_ppump->_rxbuffer[0x0D] & 0x0F);
 726              		.loc 1 183 0
 727 017c 7B69     		ldr	r3, [r7, #20]
 728 017e DB69     		ldr	r3, [r3, #28]
 729 0180 7A69     		ldr	r2, [r7, #20]
ARM GAS  C:\Users\RECEPC~1\AppData\Local\Temp\ccEI1MLs.s 			page 17


 730 0182 D269     		ldr	r2, [r2, #28]
 731 0184 92F89521 		ldrb	r2, [r2, #405]	@ zero_extendqisi2
 732 0188 02F00F02 		and	r2, r2, #15
 733 018c D2B2     		uxtb	r2, r2
 734 018e 83F89521 		strb	r2, [r3, #405]
 184:.\PrimeImpl.c ****                 pjob->_ppump->_rxbuffer[0x0E] = (pjob->_ppump->_rxbuffer[0x0E] & 0x0F);
 735              		.loc 1 184 0
 736 0192 7B69     		ldr	r3, [r7, #20]
 737 0194 DB69     		ldr	r3, [r3, #28]
 738 0196 7A69     		ldr	r2, [r7, #20]
 739 0198 D269     		ldr	r2, [r2, #28]
 740 019a 92F89621 		ldrb	r2, [r2, #406]	@ zero_extendqisi2
 741 019e 02F00F02 		and	r2, r2, #15
 742 01a2 D2B2     		uxtb	r2, r2
 743 01a4 83F89621 		strb	r2, [r3, #406]
 185:.\PrimeImpl.c ****                 pjob->_ppump->_rxbuffer[0x0F] = (pjob->_ppump->_rxbuffer[0x0F] & 0x0F);
 744              		.loc 1 185 0
 745 01a8 7B69     		ldr	r3, [r7, #20]
 746 01aa DB69     		ldr	r3, [r3, #28]
 747 01ac 7A69     		ldr	r2, [r7, #20]
 748 01ae D269     		ldr	r2, [r2, #28]
 749 01b0 92F89721 		ldrb	r2, [r2, #407]	@ zero_extendqisi2
 750 01b4 02F00F02 		and	r2, r2, #15
 751 01b8 D2B2     		uxtb	r2, r2
 752 01ba 83F89721 		strb	r2, [r3, #407]
 186:.\PrimeImpl.c ****                 pjob->_ppump->_rxbuffer[0x10] = (pjob->_ppump->_rxbuffer[0x10] & 0x0F);
 753              		.loc 1 186 0
 754 01be 7B69     		ldr	r3, [r7, #20]
 755 01c0 DB69     		ldr	r3, [r3, #28]
 756 01c2 7A69     		ldr	r2, [r7, #20]
 757 01c4 D269     		ldr	r2, [r2, #28]
 758 01c6 92F89821 		ldrb	r2, [r2, #408]	@ zero_extendqisi2
 759 01ca 02F00F02 		and	r2, r2, #15
 760 01ce D2B2     		uxtb	r2, r2
 761 01d0 83F89821 		strb	r2, [r3, #408]
 187:.\PrimeImpl.c ****                 pjob->_ppump->_rxbuffer[0x11] = (pjob->_ppump->_rxbuffer[0x11] & 0x0F);
 762              		.loc 1 187 0
 763 01d4 7B69     		ldr	r3, [r7, #20]
 764 01d6 DB69     		ldr	r3, [r3, #28]
 765 01d8 7A69     		ldr	r2, [r7, #20]
 766 01da D269     		ldr	r2, [r2, #28]
 767 01dc 92F89921 		ldrb	r2, [r2, #409]	@ zero_extendqisi2
 768 01e0 02F00F02 		and	r2, r2, #15
 769 01e4 D2B2     		uxtb	r2, r2
 770 01e6 83F89921 		strb	r2, [r3, #409]
 188:.\PrimeImpl.c ****                 pjob->_ppump->_authorizationinfo._price = LSDBCDBUFF2HEX(PBYTECAST(&pjob->_ppump->_
 771              		.loc 1 188 0
 772 01ea 7B69     		ldr	r3, [r7, #20]
 773 01ec DC69     		ldr	r4, [r3, #28]
 774 01ee 7B69     		ldr	r3, [r7, #20]
 775 01f0 DB69     		ldr	r3, [r3, #28]
 776 01f2 03F5CA73 		add	r3, r3, #404
 777 01f6 1846     		mov	r0, r3
 778 01f8 0621     		movs	r1, #6
 779 01fa FFF7FEFF 		bl	LSDBCDBUFF2HEX
 780 01fe 0346     		mov	r3, r0
 781 0200 9BB2     		uxth	r3, r3
ARM GAS  C:\Users\RECEPC~1\AppData\Local\Temp\ccEI1MLs.s 			page 18


 782 0202 A4F87C3B 		strh	r3, [r4, #2940]	@ movhi
 783              	.LBE4:
 784 0206 41E0     		b	.L26
 785              	.L19:
 189:.\PrimeImpl.c ****                 
 190:.\PrimeImpl.c ****             }
 191:.\PrimeImpl.c ****             else
 192:.\PrimeImpl.c ****             {
 193:.\PrimeImpl.c ****                 pjob->_ppump->_rxbuffer[0x0C] = (pjob->_ppump->_rxbuffer[0x0C] & 0x0F);
 786              		.loc 1 193 0
 787 0208 7B69     		ldr	r3, [r7, #20]
 788 020a DB69     		ldr	r3, [r3, #28]
 789 020c 7A69     		ldr	r2, [r7, #20]
 790 020e D269     		ldr	r2, [r2, #28]
 791 0210 92F89421 		ldrb	r2, [r2, #404]	@ zero_extendqisi2
 792 0214 02F00F02 		and	r2, r2, #15
 793 0218 D2B2     		uxtb	r2, r2
 794 021a 83F89421 		strb	r2, [r3, #404]
 194:.\PrimeImpl.c ****                 pjob->_ppump->_rxbuffer[0x0D] = (pjob->_ppump->_rxbuffer[0x0D] & 0x0F);
 795              		.loc 1 194 0
 796 021e 7B69     		ldr	r3, [r7, #20]
 797 0220 DB69     		ldr	r3, [r3, #28]
 798 0222 7A69     		ldr	r2, [r7, #20]
 799 0224 D269     		ldr	r2, [r2, #28]
 800 0226 92F89521 		ldrb	r2, [r2, #405]	@ zero_extendqisi2
 801 022a 02F00F02 		and	r2, r2, #15
 802 022e D2B2     		uxtb	r2, r2
 803 0230 83F89521 		strb	r2, [r3, #405]
 195:.\PrimeImpl.c ****                 pjob->_ppump->_rxbuffer[0x0E] = (pjob->_ppump->_rxbuffer[0x0E] & 0x0F);
 804              		.loc 1 195 0
 805 0234 7B69     		ldr	r3, [r7, #20]
 806 0236 DB69     		ldr	r3, [r3, #28]
 807 0238 7A69     		ldr	r2, [r7, #20]
 808 023a D269     		ldr	r2, [r2, #28]
 809 023c 92F89621 		ldrb	r2, [r2, #406]	@ zero_extendqisi2
 810 0240 02F00F02 		and	r2, r2, #15
 811 0244 D2B2     		uxtb	r2, r2
 812 0246 83F89621 		strb	r2, [r3, #406]
 196:.\PrimeImpl.c ****                 pjob->_ppump->_rxbuffer[0x0F] = (pjob->_ppump->_rxbuffer[0x0F] & 0x0F);
 813              		.loc 1 196 0
 814 024a 7B69     		ldr	r3, [r7, #20]
 815 024c DB69     		ldr	r3, [r3, #28]
 816 024e 7A69     		ldr	r2, [r7, #20]
 817 0250 D269     		ldr	r2, [r2, #28]
 818 0252 92F89721 		ldrb	r2, [r2, #407]	@ zero_extendqisi2
 819 0256 02F00F02 		and	r2, r2, #15
 820 025a D2B2     		uxtb	r2, r2
 821 025c 83F89721 		strb	r2, [r3, #407]
 197:.\PrimeImpl.c ****                 pjob->_ppump->_rxbuffer[0x10] = (pjob->_ppump->_rxbuffer[0x10] & 0x0F);
 822              		.loc 1 197 0
 823 0260 7B69     		ldr	r3, [r7, #20]
 824 0262 DB69     		ldr	r3, [r3, #28]
 825 0264 7A69     		ldr	r2, [r7, #20]
 826 0266 D269     		ldr	r2, [r2, #28]
 827 0268 92F89821 		ldrb	r2, [r2, #408]	@ zero_extendqisi2
 828 026c 02F00F02 		and	r2, r2, #15
 829 0270 D2B2     		uxtb	r2, r2
ARM GAS  C:\Users\RECEPC~1\AppData\Local\Temp\ccEI1MLs.s 			page 19


 830 0272 83F89821 		strb	r2, [r3, #408]
 198:.\PrimeImpl.c ****                 pjob->_ppump->_rxbuffer[0x11] = (pjob->_ppump->_rxbuffer[0x11] & 0x0F);
 831              		.loc 1 198 0
 832 0276 7B69     		ldr	r3, [r7, #20]
 833 0278 DB69     		ldr	r3, [r3, #28]
 834 027a 7A69     		ldr	r2, [r7, #20]
 835 027c D269     		ldr	r2, [r2, #28]
 836 027e 92F89921 		ldrb	r2, [r2, #409]	@ zero_extendqisi2
 837 0282 02F00F02 		and	r2, r2, #15
 838 0286 D2B2     		uxtb	r2, r2
 839 0288 83F89921 		strb	r2, [r3, #409]
 840              	.L26:
 199:.\PrimeImpl.c ****             }
 200:.\PrimeImpl.c ****             
 201:.\PrimeImpl.c ****             #ifdef _FDBD65F5_2FFE_4AA7_9C5F_F70414D772FF_
 202:.\PrimeImpl.c ****             memset(&pjob->_ppump->_rxbuffer[0x13], 0x00, 0x08);
 841              		.loc 1 202 0
 842 028c 7B69     		ldr	r3, [r7, #20]
 843 028e DB69     		ldr	r3, [r3, #28]
 844 0290 03F29B13 		addw	r3, r3, #411
 845 0294 1846     		mov	r0, r3
 846 0296 0021     		movs	r1, #0
 847 0298 0822     		movs	r2, #8
 848 029a FFF7FEFF 		bl	memset
 203:.\PrimeImpl.c ****             B78AD90CF552D9B30A(pjob->_ppump->_rtvolumeamount, (PNEAR_BYTE_PTR)&pjob->_ppump->_rxbuf
 849              		.loc 1 203 0
 850 029e 7B69     		ldr	r3, [r7, #20]
 851 02a0 DB69     		ldr	r3, [r3, #28]
 852 02a2 5B69     		ldr	r3, [r3, #20]
 853 02a4 1A46     		mov	r2, r3
 854 02a6 4FF00003 		mov	r3, #0
 855 02aa 7969     		ldr	r1, [r7, #20]
 856 02ac C969     		ldr	r1, [r1, #28]
 857 02ae 01F29B14 		addw	r4, r1, #411
 858 02b2 1046     		mov	r0, r2
 859 02b4 1946     		mov	r1, r3
 860 02b6 2246     		mov	r2, r4
 861 02b8 FFF7FEFF 		bl	B78AD90CF552D9B30A
 204:.\PrimeImpl.c ****             memset(&pjob->_ppump->_rxbuffer[0x1C], 0x00, 0x08);
 862              		.loc 1 204 0
 863 02bc 7B69     		ldr	r3, [r7, #20]
 864 02be DB69     		ldr	r3, [r3, #28]
 865 02c0 03F5D273 		add	r3, r3, #420
 866 02c4 1846     		mov	r0, r3
 867 02c6 0021     		movs	r1, #0
 868 02c8 0822     		movs	r2, #8
 869 02ca FFF7FEFF 		bl	memset
 205:.\PrimeImpl.c ****             B78AD90CF552D9B30A(pjob->_ppump->_rtmoneyamount, (PNEAR_BYTE_PTR)&pjob->_ppump->_rxbuff
 870              		.loc 1 205 0
 871 02ce 7B69     		ldr	r3, [r7, #20]
 872 02d0 DB69     		ldr	r3, [r3, #28]
 873 02d2 1B69     		ldr	r3, [r3, #16]
 874 02d4 1A46     		mov	r2, r3
 875 02d6 4FF00003 		mov	r3, #0
 876 02da 7969     		ldr	r1, [r7, #20]
 877 02dc C969     		ldr	r1, [r1, #28]
 878 02de 01F2A514 		addw	r4, r1, #421
ARM GAS  C:\Users\RECEPC~1\AppData\Local\Temp\ccEI1MLs.s 			page 20


 879 02e2 1046     		mov	r0, r2
 880 02e4 1946     		mov	r1, r3
 881 02e6 2246     		mov	r2, r4
 882 02e8 FFF7FEFF 		bl	B78AD90CF552D9B30A
 206:.\PrimeImpl.c ****             #endif
 207:.\PrimeImpl.c **** 
 208:.\PrimeImpl.c ****             //Bytes from index 19 to 26 are the digits for the fuel volume delivered in the transac
 209:.\PrimeImpl.c ****             //Digits are in BCD format
 210:.\PrimeImpl.c ****             pjob->_ppump->_rxbuffer[0x13] = (pjob->_ppump->_rxbuffer[0x13] & 0x0F);
 883              		.loc 1 210 0
 884 02ec 7B69     		ldr	r3, [r7, #20]
 885 02ee DB69     		ldr	r3, [r3, #28]
 886 02f0 7A69     		ldr	r2, [r7, #20]
 887 02f2 D269     		ldr	r2, [r2, #28]
 888 02f4 92F89B21 		ldrb	r2, [r2, #411]	@ zero_extendqisi2
 889 02f8 02F00F02 		and	r2, r2, #15
 890 02fc D2B2     		uxtb	r2, r2
 891 02fe 83F89B21 		strb	r2, [r3, #411]
 211:.\PrimeImpl.c ****             pjob->_ppump->_rxbuffer[0x14] = (pjob->_ppump->_rxbuffer[0x14] & 0x0F);
 892              		.loc 1 211 0
 893 0302 7B69     		ldr	r3, [r7, #20]
 894 0304 DB69     		ldr	r3, [r3, #28]
 895 0306 7A69     		ldr	r2, [r7, #20]
 896 0308 D269     		ldr	r2, [r2, #28]
 897 030a 92F89C21 		ldrb	r2, [r2, #412]	@ zero_extendqisi2
 898 030e 02F00F02 		and	r2, r2, #15
 899 0312 D2B2     		uxtb	r2, r2
 900 0314 83F89C21 		strb	r2, [r3, #412]
 212:.\PrimeImpl.c ****             pjob->_ppump->_rxbuffer[0x15] = (pjob->_ppump->_rxbuffer[0x15] & 0x0F);
 901              		.loc 1 212 0
 902 0318 7B69     		ldr	r3, [r7, #20]
 903 031a DB69     		ldr	r3, [r3, #28]
 904 031c 7A69     		ldr	r2, [r7, #20]
 905 031e D269     		ldr	r2, [r2, #28]
 906 0320 92F89D21 		ldrb	r2, [r2, #413]	@ zero_extendqisi2
 907 0324 02F00F02 		and	r2, r2, #15
 908 0328 D2B2     		uxtb	r2, r2
 909 032a 83F89D21 		strb	r2, [r3, #413]
 213:.\PrimeImpl.c ****             pjob->_ppump->_rxbuffer[0x16] = (pjob->_ppump->_rxbuffer[0x16] & 0x0F);
 910              		.loc 1 213 0
 911 032e 7B69     		ldr	r3, [r7, #20]
 912 0330 DB69     		ldr	r3, [r3, #28]
 913 0332 7A69     		ldr	r2, [r7, #20]
 914 0334 D269     		ldr	r2, [r2, #28]
 915 0336 92F89E21 		ldrb	r2, [r2, #414]	@ zero_extendqisi2
 916 033a 02F00F02 		and	r2, r2, #15
 917 033e D2B2     		uxtb	r2, r2
 918 0340 83F89E21 		strb	r2, [r3, #414]
 214:.\PrimeImpl.c ****             pjob->_ppump->_rxbuffer[0x17] = (pjob->_ppump->_rxbuffer[0x17] & 0x0F);
 919              		.loc 1 214 0
 920 0344 7B69     		ldr	r3, [r7, #20]
 921 0346 DB69     		ldr	r3, [r3, #28]
 922 0348 7A69     		ldr	r2, [r7, #20]
 923 034a D269     		ldr	r2, [r2, #28]
 924 034c 92F89F21 		ldrb	r2, [r2, #415]	@ zero_extendqisi2
 925 0350 02F00F02 		and	r2, r2, #15
 926 0354 D2B2     		uxtb	r2, r2
ARM GAS  C:\Users\RECEPC~1\AppData\Local\Temp\ccEI1MLs.s 			page 21


 927 0356 83F89F21 		strb	r2, [r3, #415]
 215:.\PrimeImpl.c ****             pjob->_ppump->_rxbuffer[0x18] = (pjob->_ppump->_rxbuffer[0x18] & 0x0F);
 928              		.loc 1 215 0
 929 035a 7B69     		ldr	r3, [r7, #20]
 930 035c DB69     		ldr	r3, [r3, #28]
 931 035e 7A69     		ldr	r2, [r7, #20]
 932 0360 D269     		ldr	r2, [r2, #28]
 933 0362 92F8A021 		ldrb	r2, [r2, #416]	@ zero_extendqisi2
 934 0366 02F00F02 		and	r2, r2, #15
 935 036a D2B2     		uxtb	r2, r2
 936 036c 83F8A021 		strb	r2, [r3, #416]
 216:.\PrimeImpl.c ****             pjob->_ppump->_rxbuffer[0x19] = (pjob->_ppump->_rxbuffer[0x19] & 0x0F);
 937              		.loc 1 216 0
 938 0370 7B69     		ldr	r3, [r7, #20]
 939 0372 DB69     		ldr	r3, [r3, #28]
 940 0374 7A69     		ldr	r2, [r7, #20]
 941 0376 D269     		ldr	r2, [r2, #28]
 942 0378 92F8A121 		ldrb	r2, [r2, #417]	@ zero_extendqisi2
 943 037c 02F00F02 		and	r2, r2, #15
 944 0380 D2B2     		uxtb	r2, r2
 945 0382 83F8A121 		strb	r2, [r3, #417]
 217:.\PrimeImpl.c ****             pjob->_ppump->_rxbuffer[0x1A] = (pjob->_ppump->_rxbuffer[0x1A] & 0x0F);
 946              		.loc 1 217 0
 947 0386 7B69     		ldr	r3, [r7, #20]
 948 0388 DB69     		ldr	r3, [r3, #28]
 949 038a 7A69     		ldr	r2, [r7, #20]
 950 038c D269     		ldr	r2, [r2, #28]
 951 038e 92F8A221 		ldrb	r2, [r2, #418]	@ zero_extendqisi2
 952 0392 02F00F02 		and	r2, r2, #15
 953 0396 D2B2     		uxtb	r2, r2
 954 0398 83F8A221 		strb	r2, [r3, #418]
 218:.\PrimeImpl.c ****             pjob->_ppump->_authorizationinfo._volumeamount = LSDBCDBUFF2HEX(PBYTECAST(&pjob->_ppump
 955              		.loc 1 218 0
 956 039c 7B69     		ldr	r3, [r7, #20]
 957 039e DC69     		ldr	r4, [r3, #28]
 958 03a0 7B69     		ldr	r3, [r7, #20]
 959 03a2 DB69     		ldr	r3, [r3, #28]
 960 03a4 03F29B13 		addw	r3, r3, #411
 961 03a8 1846     		mov	r0, r3
 962 03aa 0821     		movs	r1, #8
 963 03ac FFF7FEFF 		bl	LSDBCDBUFF2HEX
 964 03b0 0346     		mov	r3, r0
 965 03b2 C4F8843B 		str	r3, [r4, #2948]
 219:.\PrimeImpl.c ****             
 220:.\PrimeImpl.c ****             ////////////////////////////////////////////////////////////////////////////////
 221:.\PrimeImpl.c ****             ////////////////////////////////////////////////////////////////////////////////
 222:.\PrimeImpl.c ****             
 223:.\PrimeImpl.c ****             //Bytes from index 28 to 35 are the digits for the money charged to the transaction
 224:.\PrimeImpl.c ****             //Digits are in BCD format
 225:.\PrimeImpl.c ****             if(_g_dispenserlayoutinfo._displaydigitsmode == 0x07)
 966              		.loc 1 225 0
 967 03b6 B74B     		ldr	r3, .L40
 968 03b8 1B7C     		ldrb	r3, [r3, #16]	@ zero_extendqisi2
 969 03ba 072B     		cmp	r3, #7
 970 03bc 05D1     		bne	.L27
 226:.\PrimeImpl.c ****                 pjob->_ppump->_rxbuffer[0x1C] = (pjob->_ppump->_rxbuffer[0x1C] & 0x00);//Zero to ma
 971              		.loc 1 226 0
ARM GAS  C:\Users\RECEPC~1\AppData\Local\Temp\ccEI1MLs.s 			page 22


 972 03be 7B69     		ldr	r3, [r7, #20]
 973 03c0 DB69     		ldr	r3, [r3, #28]
 974 03c2 0022     		movs	r2, #0
 975 03c4 83F8A421 		strb	r2, [r3, #420]
 976 03c8 0AE0     		b	.L28
 977              	.L27:
 227:.\PrimeImpl.c ****             else
 228:.\PrimeImpl.c ****                 pjob->_ppump->_rxbuffer[0x1C] = (pjob->_ppump->_rxbuffer[0x1C] & 0x0F);
 978              		.loc 1 228 0
 979 03ca 7B69     		ldr	r3, [r7, #20]
 980 03cc DB69     		ldr	r3, [r3, #28]
 981 03ce 7A69     		ldr	r2, [r7, #20]
 982 03d0 D269     		ldr	r2, [r2, #28]
 983 03d2 92F8A421 		ldrb	r2, [r2, #420]	@ zero_extendqisi2
 984 03d6 02F00F02 		and	r2, r2, #15
 985 03da D2B2     		uxtb	r2, r2
 986 03dc 83F8A421 		strb	r2, [r3, #420]
 987              	.L28:
 229:.\PrimeImpl.c ****             
 230:.\PrimeImpl.c ****             pjob->_ppump->_rxbuffer[0x1D] = (pjob->_ppump->_rxbuffer[0x1D] & 0x0F);
 988              		.loc 1 230 0
 989 03e0 7B69     		ldr	r3, [r7, #20]
 990 03e2 DB69     		ldr	r3, [r3, #28]
 991 03e4 7A69     		ldr	r2, [r7, #20]
 992 03e6 D269     		ldr	r2, [r2, #28]
 993 03e8 92F8A521 		ldrb	r2, [r2, #421]	@ zero_extendqisi2
 994 03ec 02F00F02 		and	r2, r2, #15
 995 03f0 D2B2     		uxtb	r2, r2
 996 03f2 83F8A521 		strb	r2, [r3, #421]
 231:.\PrimeImpl.c ****             pjob->_ppump->_rxbuffer[0x1E] = (pjob->_ppump->_rxbuffer[0x1E] & 0x0F);
 997              		.loc 1 231 0
 998 03f6 7B69     		ldr	r3, [r7, #20]
 999 03f8 DB69     		ldr	r3, [r3, #28]
 1000 03fa 7A69     		ldr	r2, [r7, #20]
 1001 03fc D269     		ldr	r2, [r2, #28]
 1002 03fe 92F8A621 		ldrb	r2, [r2, #422]	@ zero_extendqisi2
 1003 0402 02F00F02 		and	r2, r2, #15
 1004 0406 D2B2     		uxtb	r2, r2
 1005 0408 83F8A621 		strb	r2, [r3, #422]
 232:.\PrimeImpl.c ****             pjob->_ppump->_rxbuffer[0x1F] = (pjob->_ppump->_rxbuffer[0x1F] & 0x0F);
 1006              		.loc 1 232 0
 1007 040c 7B69     		ldr	r3, [r7, #20]
 1008 040e DB69     		ldr	r3, [r3, #28]
 1009 0410 7A69     		ldr	r2, [r7, #20]
 1010 0412 D269     		ldr	r2, [r2, #28]
 1011 0414 92F8A721 		ldrb	r2, [r2, #423]	@ zero_extendqisi2
 1012 0418 02F00F02 		and	r2, r2, #15
 1013 041c D2B2     		uxtb	r2, r2
 1014 041e 83F8A721 		strb	r2, [r3, #423]
 233:.\PrimeImpl.c ****             pjob->_ppump->_rxbuffer[0x20] = (pjob->_ppump->_rxbuffer[0x20] & 0x0F);
 1015              		.loc 1 233 0
 1016 0422 7B69     		ldr	r3, [r7, #20]
 1017 0424 DB69     		ldr	r3, [r3, #28]
 1018 0426 7A69     		ldr	r2, [r7, #20]
 1019 0428 D269     		ldr	r2, [r2, #28]
 1020 042a 92F8A821 		ldrb	r2, [r2, #424]	@ zero_extendqisi2
 1021 042e 02F00F02 		and	r2, r2, #15
ARM GAS  C:\Users\RECEPC~1\AppData\Local\Temp\ccEI1MLs.s 			page 23


 1022 0432 D2B2     		uxtb	r2, r2
 1023 0434 83F8A821 		strb	r2, [r3, #424]
 234:.\PrimeImpl.c ****             pjob->_ppump->_rxbuffer[0x21] = (pjob->_ppump->_rxbuffer[0x21] & 0x0F);
 1024              		.loc 1 234 0
 1025 0438 7B69     		ldr	r3, [r7, #20]
 1026 043a DB69     		ldr	r3, [r3, #28]
 1027 043c 7A69     		ldr	r2, [r7, #20]
 1028 043e D269     		ldr	r2, [r2, #28]
 1029 0440 92F8A921 		ldrb	r2, [r2, #425]	@ zero_extendqisi2
 1030 0444 02F00F02 		and	r2, r2, #15
 1031 0448 D2B2     		uxtb	r2, r2
 1032 044a 83F8A921 		strb	r2, [r3, #425]
 235:.\PrimeImpl.c ****             pjob->_ppump->_rxbuffer[0x22] = (pjob->_ppump->_rxbuffer[0x22] & 0x0F);
 1033              		.loc 1 235 0
 1034 044e 7B69     		ldr	r3, [r7, #20]
 1035 0450 DB69     		ldr	r3, [r3, #28]
 1036 0452 7A69     		ldr	r2, [r7, #20]
 1037 0454 D269     		ldr	r2, [r2, #28]
 1038 0456 92F8AA21 		ldrb	r2, [r2, #426]	@ zero_extendqisi2
 1039 045a 02F00F02 		and	r2, r2, #15
 1040 045e D2B2     		uxtb	r2, r2
 1041 0460 83F8AA21 		strb	r2, [r3, #426]
 236:.\PrimeImpl.c ****             pjob->_ppump->_rxbuffer[0x23] = (pjob->_ppump->_rxbuffer[0x23] & 0x0F);
 1042              		.loc 1 236 0
 1043 0464 7B69     		ldr	r3, [r7, #20]
 1044 0466 DB69     		ldr	r3, [r3, #28]
 1045 0468 7A69     		ldr	r2, [r7, #20]
 1046 046a D269     		ldr	r2, [r2, #28]
 1047 046c 92F8AB21 		ldrb	r2, [r2, #427]	@ zero_extendqisi2
 1048 0470 02F00F02 		and	r2, r2, #15
 1049 0474 D2B2     		uxtb	r2, r2
 1050 0476 83F8AB21 		strb	r2, [r3, #427]
 237:.\PrimeImpl.c ****             //INQUIRY ABOUT THE EXTRA x10 RESULT SINCE THERE IS AN EXTRA 0 IN THE RESPONSE FOR THE 
 238:.\PrimeImpl.c ****             //MEANWHILE DIVIDING BY 10 TO REMOVE THE ZERO
 239:.\PrimeImpl.c ****             if(_g_dispenserlayoutinfo._displaydigitsmode == 0x07)
 1051              		.loc 1 239 0
 1052 047a 864B     		ldr	r3, .L40
 1053 047c 1B7C     		ldrb	r3, [r3, #16]	@ zero_extendqisi2
 1054 047e 072B     		cmp	r3, #7
 1055 0480 11D1     		bne	.L29
 240:.\PrimeImpl.c ****                 pjob->_ppump->_authorizationinfo._presetamount = (LSDBCDBUFF2HEX(PBYTECAST(&pjob->_
 1056              		.loc 1 240 0
 1057 0482 7B69     		ldr	r3, [r7, #20]
 1058 0484 DC69     		ldr	r4, [r3, #28]
 1059 0486 7B69     		ldr	r3, [r7, #20]
 1060 0488 DB69     		ldr	r3, [r3, #28]
 1061 048a 03F5D273 		add	r3, r3, #420
 1062 048e 1846     		mov	r0, r3
 1063 0490 0821     		movs	r1, #8
 1064 0492 FFF7FEFF 		bl	LSDBCDBUFF2HEX
 1065 0496 0246     		mov	r2, r0
 1066 0498 7F4B     		ldr	r3, .L40+4
 1067 049a A3FB0223 		umull	r2, r3, r3, r2
 1068 049e DB08     		lsrs	r3, r3, #3
 1069 04a0 C4F8803B 		str	r3, [r4, #2944]
 1070 04a4 0CE0     		b	.L30
 1071              	.L29:
ARM GAS  C:\Users\RECEPC~1\AppData\Local\Temp\ccEI1MLs.s 			page 24


 241:.\PrimeImpl.c ****             else
 242:.\PrimeImpl.c ****                 pjob->_ppump->_authorizationinfo._presetamount = LSDBCDBUFF2HEX(PBYTECAST(&pjob->_p
 1072              		.loc 1 242 0
 1073 04a6 7B69     		ldr	r3, [r7, #20]
 1074 04a8 DC69     		ldr	r4, [r3, #28]
 1075 04aa 7B69     		ldr	r3, [r7, #20]
 1076 04ac DB69     		ldr	r3, [r3, #28]
 1077 04ae 03F5D273 		add	r3, r3, #420
 1078 04b2 1846     		mov	r0, r3
 1079 04b4 0821     		movs	r1, #8
 1080 04b6 FFF7FEFF 		bl	LSDBCDBUFF2HEX
 1081 04ba 0346     		mov	r3, r0
 1082 04bc C4F8803B 		str	r3, [r4, #2944]
 1083              	.L30:
 243:.\PrimeImpl.c ****                 
 244:.\PrimeImpl.c ****             //CAREFUL WITH RETURNS BETWEEN THE LOCK/UNLOCK CALLS
 245:.\PrimeImpl.c ****             //AND RECURSIVE CALLS THAT WOULD DEADLOCK!
 246:.\PrimeImpl.c ****             I2CBusLock();
 1084              		.loc 1 246 0
 1085 04c0 FFF7FEFF 		bl	I2CBusLock
 247:.\PrimeImpl.c ****             ClearRtcBuffer();
 1086              		.loc 1 247 0
 1087 04c4 FFF7FEFF 		bl	ClearRtcBuffer
 248:.\PrimeImpl.c ****             ReadRTC();
 1088              		.loc 1 248 0
 1089 04c8 FFF7FEFF 		bl	ReadRTC
 249:.\PrimeImpl.c ****         
 250:.\PrimeImpl.c ****             ClearEepromBuffer();
 1090              		.loc 1 250 0
 1091 04cc FFF7FEFF 		bl	ClearEepromBuffer
 251:.\PrimeImpl.c ****             //In this position is located the payment type (CREDIT: 0x0E , CASH:0x0D)
 252:.\PrimeImpl.c ****             if(pjob->_ppump->_trasactionbuffer[0x00] == 0x0D)
 1092              		.loc 1 252 0
 1093 04d0 7B69     		ldr	r3, [r7, #20]
 1094 04d2 DB69     		ldr	r3, [r3, #28]
 1095 04d4 93F82030 		ldrb	r3, [r3, #32]	@ zero_extendqisi2
 1096 04d8 0D2B     		cmp	r3, #13
 1097 04da 40F0DF80 		bne	.L31
 253:.\PrimeImpl.c ****             {
 254:.\PrimeImpl.c ****                 //HERE WE STORE THE LAST TRANSACTION IN EEPROM! ALWAYS THE PREVIOUS TRANSACTION REP
 255:.\PrimeImpl.c ****                 //WILL BE OVERWRITTEN AND LOST.
 256:.\PrimeImpl.c ****                 //IN CASE OF A "CREDIT SALE", THE WHOLE DATA WILL BE STORED IN A SEPARATE MEMORY RE
 257:.\PrimeImpl.c ****                 //SINCE IN CASE OF A RF LINK DROP, THE STATE OF THE SALE COULD BE RECOVERED BY THE 
 258:.\PrimeImpl.c ****                 LoadEepromPage(EEPROM_DISPENSER_PUMP1_LAYOUT_PAGE);
 1098              		.loc 1 258 0
 1099 04de 4FF40070 		mov	r0, #512
 1100 04e2 FFF7FEFF 		bl	LoadEepromPage
 259:.\PrimeImpl.c ****                 if(GetEepromBuffer()[0] == ((pjob->_ppump->_rxbuffer[0x04] & 0x0F) + 1))
 1101              		.loc 1 259 0
 1102 04e6 FFF7FEFF 		bl	GetEepromBuffer
 1103 04ea 0346     		mov	r3, r0
 1104 04ec 1B78     		ldrb	r3, [r3]	@ zero_extendqisi2
 1105 04ee 1A46     		mov	r2, r3
 1106 04f0 7B69     		ldr	r3, [r7, #20]
 1107 04f2 DB69     		ldr	r3, [r3, #28]
 1108 04f4 93F88C31 		ldrb	r3, [r3, #396]	@ zero_extendqisi2
 1109 04f8 03F00F03 		and	r3, r3, #15
ARM GAS  C:\Users\RECEPC~1\AppData\Local\Temp\ccEI1MLs.s 			page 25


 1110 04fc 0133     		adds	r3, r3, #1
 1111 04fe 9A42     		cmp	r2, r3
 1112 0500 22D1     		bne	.L32
 260:.\PrimeImpl.c ****                 {
 261:.\PrimeImpl.c ****                     ClearEepromBuffer();
 1113              		.loc 1 261 0
 1114 0502 FFF7FEFF 		bl	ClearEepromBuffer
 262:.\PrimeImpl.c ****                     //Storing the current Date/Time for this transaction
 263:.\PrimeImpl.c ****                     memcpy(GetEepromBuffer(), GetRtcBuffer(), 0x07);
 1115              		.loc 1 263 0
 1116 0506 FFF7FEFF 		bl	GetEepromBuffer
 1117 050a 0446     		mov	r4, r0
 1118 050c FFF7FEFF 		bl	GetRtcBuffer
 1119 0510 0346     		mov	r3, r0
 1120 0512 2046     		mov	r0, r4
 1121 0514 1946     		mov	r1, r3
 1122 0516 0722     		movs	r2, #7
 1123 0518 FFF7FEFF 		bl	memcpy
 264:.\PrimeImpl.c ****                     memcpy(&GetEepromBuffer()[0x07], pjob->_ppump->_rxbuffer, pjob->_ppump->_rxbuff
 1124              		.loc 1 264 0
 1125 051c FFF7FEFF 		bl	GetEepromBuffer
 1126 0520 0346     		mov	r3, r0
 1127 0522 D91D     		adds	r1, r3, #7
 1128 0524 7B69     		ldr	r3, [r7, #20]
 1129 0526 DB69     		ldr	r3, [r3, #28]
 1130 0528 03F5C472 		add	r2, r3, #392
 1131 052c 7B69     		ldr	r3, [r7, #20]
 1132 052e DB69     		ldr	r3, [r3, #28]
 1133 0530 B3F8F032 		ldrh	r3, [r3, #752]
 1134 0534 0846     		mov	r0, r1
 1135 0536 1146     		mov	r1, r2
 1136 0538 1A46     		mov	r2, r3
 1137 053a FFF7FEFF 		bl	memcpy
 265:.\PrimeImpl.c ****                     StoreEepromPage(EEPROM_DISPENSER_PUMP12_TRANSACTION_PAGE);
 1138              		.loc 1 265 0
 1139 053e 4FF4C860 		mov	r0, #1600
 1140 0542 FFF7FEFF 		bl	StoreEepromPage
 1141 0546 82E1     		b	.L36
 1142              	.L32:
 266:.\PrimeImpl.c ****                 }
 267:.\PrimeImpl.c ****                 else
 268:.\PrimeImpl.c ****                 {
 269:.\PrimeImpl.c ****                     ClearEepromBuffer();
 1143              		.loc 1 269 0
 1144 0548 FFF7FEFF 		bl	ClearEepromBuffer
 270:.\PrimeImpl.c ****                     LoadEepromPage(EEPROM_DISPENSER_PUMP2_LAYOUT_PAGE);
 1145              		.loc 1 270 0
 1146 054c 4FF41070 		mov	r0, #576
 1147 0550 FFF7FEFF 		bl	LoadEepromPage
 271:.\PrimeImpl.c ****                     if(GetEepromBuffer()[0] == ((pjob->_ppump->_rxbuffer[0x04] & 0x0F) + 1))
 1148              		.loc 1 271 0
 1149 0554 FFF7FEFF 		bl	GetEepromBuffer
 1150 0558 0346     		mov	r3, r0
 1151 055a 1B78     		ldrb	r3, [r3]	@ zero_extendqisi2
 1152 055c 1A46     		mov	r2, r3
 1153 055e 7B69     		ldr	r3, [r7, #20]
 1154 0560 DB69     		ldr	r3, [r3, #28]
ARM GAS  C:\Users\RECEPC~1\AppData\Local\Temp\ccEI1MLs.s 			page 26


 1155 0562 93F88C31 		ldrb	r3, [r3, #396]	@ zero_extendqisi2
 1156 0566 03F00F03 		and	r3, r3, #15
 1157 056a 0133     		adds	r3, r3, #1
 1158 056c 9A42     		cmp	r2, r3
 1159 056e 22D1     		bne	.L34
 272:.\PrimeImpl.c ****                     {
 273:.\PrimeImpl.c ****                         ClearEepromBuffer();
 1160              		.loc 1 273 0
 1161 0570 FFF7FEFF 		bl	ClearEepromBuffer
 274:.\PrimeImpl.c ****                         //Storing the current Date/Time for this transaction
 275:.\PrimeImpl.c ****                         memcpy(GetEepromBuffer(), GetRtcBuffer(), 0x07);
 1162              		.loc 1 275 0
 1163 0574 FFF7FEFF 		bl	GetEepromBuffer
 1164 0578 0446     		mov	r4, r0
 1165 057a FFF7FEFF 		bl	GetRtcBuffer
 1166 057e 0346     		mov	r3, r0
 1167 0580 2046     		mov	r0, r4
 1168 0582 1946     		mov	r1, r3
 1169 0584 0722     		movs	r2, #7
 1170 0586 FFF7FEFF 		bl	memcpy
 276:.\PrimeImpl.c ****                         memcpy(&GetEepromBuffer()[0x07], pjob->_ppump->_rxbuffer, pjob->_ppump->_rx
 1171              		.loc 1 276 0
 1172 058a FFF7FEFF 		bl	GetEepromBuffer
 1173 058e 0346     		mov	r3, r0
 1174 0590 D91D     		adds	r1, r3, #7
 1175 0592 7B69     		ldr	r3, [r7, #20]
 1176 0594 DB69     		ldr	r3, [r3, #28]
 1177 0596 03F5C472 		add	r2, r3, #392
 1178 059a 7B69     		ldr	r3, [r7, #20]
 1179 059c DB69     		ldr	r3, [r3, #28]
 1180 059e B3F8F032 		ldrh	r3, [r3, #752]
 1181 05a2 0846     		mov	r0, r1
 1182 05a4 1146     		mov	r1, r2
 1183 05a6 1A46     		mov	r2, r3
 1184 05a8 FFF7FEFF 		bl	memcpy
 277:.\PrimeImpl.c ****                         StoreEepromPage(EEPROM_DISPENSER_PUMP22_TRANSACTION_PAGE);
 1185              		.loc 1 277 0
 1186 05ac 4FF4E860 		mov	r0, #1856
 1187 05b0 FFF7FEFF 		bl	StoreEepromPage
 1188 05b4 4BE1     		b	.L36
 1189              	.L34:
 278:.\PrimeImpl.c ****                     }
 279:.\PrimeImpl.c ****                     else
 280:.\PrimeImpl.c ****                     {
 281:.\PrimeImpl.c ****                         ClearEepromBuffer();
 1190              		.loc 1 281 0
 1191 05b6 FFF7FEFF 		bl	ClearEepromBuffer
 282:.\PrimeImpl.c ****                         LoadEepromPage(EEPROM_DISPENSER_PUMP3_LAYOUT_PAGE);
 1192              		.loc 1 282 0
 1193 05ba 4FF42070 		mov	r0, #640
 1194 05be FFF7FEFF 		bl	LoadEepromPage
 283:.\PrimeImpl.c ****                         if(GetEepromBuffer()[0] == ((pjob->_ppump->_rxbuffer[0x04] & 0x0F) + 1))
 1195              		.loc 1 283 0
 1196 05c2 FFF7FEFF 		bl	GetEepromBuffer
 1197 05c6 0346     		mov	r3, r0
 1198 05c8 1B78     		ldrb	r3, [r3]	@ zero_extendqisi2
 1199 05ca 1A46     		mov	r2, r3
ARM GAS  C:\Users\RECEPC~1\AppData\Local\Temp\ccEI1MLs.s 			page 27


 1200 05cc 7B69     		ldr	r3, [r7, #20]
 1201 05ce DB69     		ldr	r3, [r3, #28]
 1202 05d0 93F88C31 		ldrb	r3, [r3, #396]	@ zero_extendqisi2
 1203 05d4 03F00F03 		and	r3, r3, #15
 1204 05d8 0133     		adds	r3, r3, #1
 1205 05da 9A42     		cmp	r2, r3
 1206 05dc 22D1     		bne	.L35
 284:.\PrimeImpl.c ****                         {
 285:.\PrimeImpl.c ****                             ClearEepromBuffer();
 1207              		.loc 1 285 0
 1208 05de FFF7FEFF 		bl	ClearEepromBuffer
 286:.\PrimeImpl.c ****                             //Storing the current Date/Time for this transaction
 287:.\PrimeImpl.c ****                             memcpy(GetEepromBuffer(), GetRtcBuffer(), 0x07);
 1209              		.loc 1 287 0
 1210 05e2 FFF7FEFF 		bl	GetEepromBuffer
 1211 05e6 0446     		mov	r4, r0
 1212 05e8 FFF7FEFF 		bl	GetRtcBuffer
 1213 05ec 0346     		mov	r3, r0
 1214 05ee 2046     		mov	r0, r4
 1215 05f0 1946     		mov	r1, r3
 1216 05f2 0722     		movs	r2, #7
 1217 05f4 FFF7FEFF 		bl	memcpy
 288:.\PrimeImpl.c ****                             memcpy(&GetEepromBuffer()[0x07], pjob->_ppump->_rxbuffer, pjob->_ppump-
 1218              		.loc 1 288 0
 1219 05f8 FFF7FEFF 		bl	GetEepromBuffer
 1220 05fc 0346     		mov	r3, r0
 1221 05fe D91D     		adds	r1, r3, #7
 1222 0600 7B69     		ldr	r3, [r7, #20]
 1223 0602 DB69     		ldr	r3, [r3, #28]
 1224 0604 03F5C472 		add	r2, r3, #392
 1225 0608 7B69     		ldr	r3, [r7, #20]
 1226 060a DB69     		ldr	r3, [r3, #28]
 1227 060c B3F8F032 		ldrh	r3, [r3, #752]
 1228 0610 0846     		mov	r0, r1
 1229 0612 1146     		mov	r1, r2
 1230 0614 1A46     		mov	r2, r3
 1231 0616 FFF7FEFF 		bl	memcpy
 289:.\PrimeImpl.c ****                             StoreEepromPage(EEPROM_DISPENSER_PUMP32_TRANSACTION_PAGE);
 1232              		.loc 1 289 0
 1233 061a 4FF40460 		mov	r0, #2112
 1234 061e FFF7FEFF 		bl	StoreEepromPage
 1235 0622 14E1     		b	.L36
 1236              	.L35:
 290:.\PrimeImpl.c ****                         }
 291:.\PrimeImpl.c ****                         else
 292:.\PrimeImpl.c ****                         {
 293:.\PrimeImpl.c ****                             ClearEepromBuffer();
 1237              		.loc 1 293 0
 1238 0624 FFF7FEFF 		bl	ClearEepromBuffer
 294:.\PrimeImpl.c ****                             LoadEepromPage(EEPROM_DISPENSER_PUMP4_LAYOUT_PAGE);
 1239              		.loc 1 294 0
 1240 0628 4FF43070 		mov	r0, #704
 1241 062c FFF7FEFF 		bl	LoadEepromPage
 295:.\PrimeImpl.c ****                             if(GetEepromBuffer()[0] == ((pjob->_ppump->_rxbuffer[0x04] & 0x0F) + 1)
 1242              		.loc 1 295 0
 1243 0630 FFF7FEFF 		bl	GetEepromBuffer
 1244 0634 0346     		mov	r3, r0
ARM GAS  C:\Users\RECEPC~1\AppData\Local\Temp\ccEI1MLs.s 			page 28


 1245 0636 1B78     		ldrb	r3, [r3]	@ zero_extendqisi2
 1246 0638 1A46     		mov	r2, r3
 1247 063a 7B69     		ldr	r3, [r7, #20]
 1248 063c DB69     		ldr	r3, [r3, #28]
 1249 063e 93F88C31 		ldrb	r3, [r3, #396]	@ zero_extendqisi2
 1250 0642 03F00F03 		and	r3, r3, #15
 1251 0646 0133     		adds	r3, r3, #1
 1252 0648 9A42     		cmp	r2, r3
 1253 064a 40F00081 		bne	.L36
 296:.\PrimeImpl.c ****                             {
 297:.\PrimeImpl.c ****                                 ClearEepromBuffer();
 1254              		.loc 1 297 0
 1255 064e FFF7FEFF 		bl	ClearEepromBuffer
 298:.\PrimeImpl.c ****                                 //Storing the current Date/Time for this transaction
 299:.\PrimeImpl.c ****                                 memcpy(GetEepromBuffer(), GetRtcBuffer(), 0x07);
 1256              		.loc 1 299 0
 1257 0652 FFF7FEFF 		bl	GetEepromBuffer
 1258 0656 0446     		mov	r4, r0
 1259 0658 FFF7FEFF 		bl	GetRtcBuffer
 1260 065c 0346     		mov	r3, r0
 1261 065e 2046     		mov	r0, r4
 1262 0660 1946     		mov	r1, r3
 1263 0662 0722     		movs	r2, #7
 1264 0664 FFF7FEFF 		bl	memcpy
 300:.\PrimeImpl.c ****                                 memcpy(&GetEepromBuffer()[0x07], pjob->_ppump->_rxbuffer, pjob->_pp
 1265              		.loc 1 300 0
 1266 0668 FFF7FEFF 		bl	GetEepromBuffer
 1267 066c 0346     		mov	r3, r0
 1268 066e D91D     		adds	r1, r3, #7
 1269 0670 7B69     		ldr	r3, [r7, #20]
 1270 0672 DB69     		ldr	r3, [r3, #28]
 1271 0674 03F5C472 		add	r2, r3, #392
 1272 0678 7B69     		ldr	r3, [r7, #20]
 1273 067a DB69     		ldr	r3, [r3, #28]
 1274 067c B3F8F032 		ldrh	r3, [r3, #752]
 1275 0680 0846     		mov	r0, r1
 1276 0682 1146     		mov	r1, r2
 1277 0684 1A46     		mov	r2, r3
 1278 0686 FFF7FEFF 		bl	memcpy
 301:.\PrimeImpl.c ****                                 StoreEepromPage(EEPROM_DISPENSER_PUMP42_TRANSACTION_PAGE);
 1279              		.loc 1 301 0
 1280 068a 4FF41460 		mov	r0, #2368
 1281 068e FFF7FEFF 		bl	StoreEepromPage
 1282 0692 DCE0     		b	.L36
 1283              	.L41:
 1284              		.align	2
 1285              	.L40:
 1286 0694 00000000 		.word	_g_dispenserlayoutinfo
 1287 0698 CDCCCCCC 		.word	-858993459
 1288              	.L31:
 302:.\PrimeImpl.c ****                             }
 303:.\PrimeImpl.c ****                         }
 304:.\PrimeImpl.c ****                     }
 305:.\PrimeImpl.c ****                 }
 306:.\PrimeImpl.c ****             }else{//CREDIT TRANSACTION
 307:.\PrimeImpl.c ****                 //HERE WE STORE THE LAST TRANSACTION IN EEPROM! ALWAYS THE PREVIOUS TRANSACTION REP
 308:.\PrimeImpl.c ****                 //WILL BE OVERWRITTEN AND LOST.
ARM GAS  C:\Users\RECEPC~1\AppData\Local\Temp\ccEI1MLs.s 			page 29


 309:.\PrimeImpl.c ****                 //IN CASE OF A "CREDIT SALE", THE WHOLE DATA WILL BE STORED IN A SEPARATE MEMORY RE
 310:.\PrimeImpl.c ****                 //SINCE IN CASE OF A RF LINK DROP, THE STATE OF THE SALE COULD BE RECOVERED BY THE 
 311:.\PrimeImpl.c ****                 LoadEepromPage(EEPROM_DISPENSER_PUMP1_LAYOUT_PAGE);
 1289              		.loc 1 311 0
 1290 069c 4FF40070 		mov	r0, #512
 1291 06a0 FFF7FEFF 		bl	LoadEepromPage
 312:.\PrimeImpl.c ****                 if(GetEepromBuffer()[0] == ((pjob->_ppump->_rxbuffer[0x04] & 0x0F) + 1))
 1292              		.loc 1 312 0
 1293 06a4 FFF7FEFF 		bl	GetEepromBuffer
 1294 06a8 0346     		mov	r3, r0
 1295 06aa 1B78     		ldrb	r3, [r3]	@ zero_extendqisi2
 1296 06ac 1A46     		mov	r2, r3
 1297 06ae 7B69     		ldr	r3, [r7, #20]
 1298 06b0 DB69     		ldr	r3, [r3, #28]
 1299 06b2 93F88C31 		ldrb	r3, [r3, #396]	@ zero_extendqisi2
 1300 06b6 03F00F03 		and	r3, r3, #15
 1301 06ba 0133     		adds	r3, r3, #1
 1302 06bc 9A42     		cmp	r2, r3
 1303 06be 22D1     		bne	.L37
 313:.\PrimeImpl.c ****                 {
 314:.\PrimeImpl.c ****                     ClearEepromBuffer();
 1304              		.loc 1 314 0
 1305 06c0 FFF7FEFF 		bl	ClearEepromBuffer
 315:.\PrimeImpl.c ****                     //Storing the current Date/Time for this transaction
 316:.\PrimeImpl.c ****                     memcpy(GetEepromBuffer(), GetRtcBuffer(), 0x07);
 1306              		.loc 1 316 0
 1307 06c4 FFF7FEFF 		bl	GetEepromBuffer
 1308 06c8 0446     		mov	r4, r0
 1309 06ca FFF7FEFF 		bl	GetRtcBuffer
 1310 06ce 0346     		mov	r3, r0
 1311 06d0 2046     		mov	r0, r4
 1312 06d2 1946     		mov	r1, r3
 1313 06d4 0722     		movs	r2, #7
 1314 06d6 FFF7FEFF 		bl	memcpy
 317:.\PrimeImpl.c ****                     memcpy(&GetEepromBuffer()[0x07], pjob->_ppump->_rxbuffer, pjob->_ppump->_rxbuff
 1315              		.loc 1 317 0
 1316 06da FFF7FEFF 		bl	GetEepromBuffer
 1317 06de 0346     		mov	r3, r0
 1318 06e0 D91D     		adds	r1, r3, #7
 1319 06e2 7B69     		ldr	r3, [r7, #20]
 1320 06e4 DB69     		ldr	r3, [r3, #28]
 1321 06e6 03F5C472 		add	r2, r3, #392
 1322 06ea 7B69     		ldr	r3, [r7, #20]
 1323 06ec DB69     		ldr	r3, [r3, #28]
 1324 06ee B3F8F032 		ldrh	r3, [r3, #752]
 1325 06f2 0846     		mov	r0, r1
 1326 06f4 1146     		mov	r1, r2
 1327 06f6 1A46     		mov	r2, r3
 1328 06f8 FFF7FEFF 		bl	memcpy
 318:.\PrimeImpl.c ****                     StoreEepromPage(EEPROM_DISPENSER_PUMP14_TRANSACTION_PAGE);
 1329              		.loc 1 318 0
 1330 06fc 4FF4D860 		mov	r0, #1728
 1331 0700 FFF7FEFF 		bl	StoreEepromPage
 1332 0704 A3E0     		b	.L36
 1333              	.L37:
 319:.\PrimeImpl.c ****                 }
 320:.\PrimeImpl.c ****                 else
ARM GAS  C:\Users\RECEPC~1\AppData\Local\Temp\ccEI1MLs.s 			page 30


 321:.\PrimeImpl.c ****                 {
 322:.\PrimeImpl.c ****                     ClearEepromBuffer();
 1334              		.loc 1 322 0
 1335 0706 FFF7FEFF 		bl	ClearEepromBuffer
 323:.\PrimeImpl.c ****                     LoadEepromPage(EEPROM_DISPENSER_PUMP2_LAYOUT_PAGE);
 1336              		.loc 1 323 0
 1337 070a 4FF41070 		mov	r0, #576
 1338 070e FFF7FEFF 		bl	LoadEepromPage
 324:.\PrimeImpl.c ****                     if(GetEepromBuffer()[0] == ((pjob->_ppump->_rxbuffer[0x04] & 0x0F) + 1))
 1339              		.loc 1 324 0
 1340 0712 FFF7FEFF 		bl	GetEepromBuffer
 1341 0716 0346     		mov	r3, r0
 1342 0718 1B78     		ldrb	r3, [r3]	@ zero_extendqisi2
 1343 071a 1A46     		mov	r2, r3
 1344 071c 7B69     		ldr	r3, [r7, #20]
 1345 071e DB69     		ldr	r3, [r3, #28]
 1346 0720 93F88C31 		ldrb	r3, [r3, #396]	@ zero_extendqisi2
 1347 0724 03F00F03 		and	r3, r3, #15
 1348 0728 0133     		adds	r3, r3, #1
 1349 072a 9A42     		cmp	r2, r3
 1350 072c 22D1     		bne	.L38
 325:.\PrimeImpl.c ****                     {
 326:.\PrimeImpl.c ****                         ClearEepromBuffer();
 1351              		.loc 1 326 0
 1352 072e FFF7FEFF 		bl	ClearEepromBuffer
 327:.\PrimeImpl.c ****                         //Storing the current Date/Time for this transaction
 328:.\PrimeImpl.c ****                         memcpy(GetEepromBuffer(), GetRtcBuffer(), 0x07);
 1353              		.loc 1 328 0
 1354 0732 FFF7FEFF 		bl	GetEepromBuffer
 1355 0736 0446     		mov	r4, r0
 1356 0738 FFF7FEFF 		bl	GetRtcBuffer
 1357 073c 0346     		mov	r3, r0
 1358 073e 2046     		mov	r0, r4
 1359 0740 1946     		mov	r1, r3
 1360 0742 0722     		movs	r2, #7
 1361 0744 FFF7FEFF 		bl	memcpy
 329:.\PrimeImpl.c ****                         memcpy(&GetEepromBuffer()[0x07], pjob->_ppump->_rxbuffer, pjob->_ppump->_rx
 1362              		.loc 1 329 0
 1363 0748 FFF7FEFF 		bl	GetEepromBuffer
 1364 074c 0346     		mov	r3, r0
 1365 074e D91D     		adds	r1, r3, #7
 1366 0750 7B69     		ldr	r3, [r7, #20]
 1367 0752 DB69     		ldr	r3, [r3, #28]
 1368 0754 03F5C472 		add	r2, r3, #392
 1369 0758 7B69     		ldr	r3, [r7, #20]
 1370 075a DB69     		ldr	r3, [r3, #28]
 1371 075c B3F8F032 		ldrh	r3, [r3, #752]
 1372 0760 0846     		mov	r0, r1
 1373 0762 1146     		mov	r1, r2
 1374 0764 1A46     		mov	r2, r3
 1375 0766 FFF7FEFF 		bl	memcpy
 330:.\PrimeImpl.c ****                         StoreEepromPage(EEPROM_DISPENSER_PUMP24_TRANSACTION_PAGE);
 1376              		.loc 1 330 0
 1377 076a 4FF4F860 		mov	r0, #1984
 1378 076e FFF7FEFF 		bl	StoreEepromPage
 1379 0772 6CE0     		b	.L36
 1380              	.L38:
ARM GAS  C:\Users\RECEPC~1\AppData\Local\Temp\ccEI1MLs.s 			page 31


 331:.\PrimeImpl.c ****                     }
 332:.\PrimeImpl.c ****                     else
 333:.\PrimeImpl.c ****                     {
 334:.\PrimeImpl.c ****                         ClearEepromBuffer();
 1381              		.loc 1 334 0
 1382 0774 FFF7FEFF 		bl	ClearEepromBuffer
 335:.\PrimeImpl.c ****                         LoadEepromPage(EEPROM_DISPENSER_PUMP3_LAYOUT_PAGE);
 1383              		.loc 1 335 0
 1384 0778 4FF42070 		mov	r0, #640
 1385 077c FFF7FEFF 		bl	LoadEepromPage
 336:.\PrimeImpl.c ****                         if(GetEepromBuffer()[0] == ((pjob->_ppump->_rxbuffer[0x04] & 0x0F) + 1))
 1386              		.loc 1 336 0
 1387 0780 FFF7FEFF 		bl	GetEepromBuffer
 1388 0784 0346     		mov	r3, r0
 1389 0786 1B78     		ldrb	r3, [r3]	@ zero_extendqisi2
 1390 0788 1A46     		mov	r2, r3
 1391 078a 7B69     		ldr	r3, [r7, #20]
 1392 078c DB69     		ldr	r3, [r3, #28]
 1393 078e 93F88C31 		ldrb	r3, [r3, #396]	@ zero_extendqisi2
 1394 0792 03F00F03 		and	r3, r3, #15
 1395 0796 0133     		adds	r3, r3, #1
 1396 0798 9A42     		cmp	r2, r3
 1397 079a 22D1     		bne	.L39
 337:.\PrimeImpl.c ****                         {
 338:.\PrimeImpl.c ****                             ClearEepromBuffer();
 1398              		.loc 1 338 0
 1399 079c FFF7FEFF 		bl	ClearEepromBuffer
 339:.\PrimeImpl.c ****                             //Storing the current Date/Time for this transaction
 340:.\PrimeImpl.c ****                             memcpy(GetEepromBuffer(), GetRtcBuffer(), 0x07);
 1400              		.loc 1 340 0
 1401 07a0 FFF7FEFF 		bl	GetEepromBuffer
 1402 07a4 0446     		mov	r4, r0
 1403 07a6 FFF7FEFF 		bl	GetRtcBuffer
 1404 07aa 0346     		mov	r3, r0
 1405 07ac 2046     		mov	r0, r4
 1406 07ae 1946     		mov	r1, r3
 1407 07b0 0722     		movs	r2, #7
 1408 07b2 FFF7FEFF 		bl	memcpy
 341:.\PrimeImpl.c ****                             memcpy(&GetEepromBuffer()[0x07], pjob->_ppump->_rxbuffer, pjob->_ppump-
 1409              		.loc 1 341 0
 1410 07b6 FFF7FEFF 		bl	GetEepromBuffer
 1411 07ba 0346     		mov	r3, r0
 1412 07bc D91D     		adds	r1, r3, #7
 1413 07be 7B69     		ldr	r3, [r7, #20]
 1414 07c0 DB69     		ldr	r3, [r3, #28]
 1415 07c2 03F5C472 		add	r2, r3, #392
 1416 07c6 7B69     		ldr	r3, [r7, #20]
 1417 07c8 DB69     		ldr	r3, [r3, #28]
 1418 07ca B3F8F032 		ldrh	r3, [r3, #752]
 1419 07ce 0846     		mov	r0, r1
 1420 07d0 1146     		mov	r1, r2
 1421 07d2 1A46     		mov	r2, r3
 1422 07d4 FFF7FEFF 		bl	memcpy
 342:.\PrimeImpl.c ****                             StoreEepromPage(EEPROM_DISPENSER_PUMP34_TRANSACTION_PAGE);
 1423              		.loc 1 342 0
 1424 07d8 4FF40C60 		mov	r0, #2240
 1425 07dc FFF7FEFF 		bl	StoreEepromPage
ARM GAS  C:\Users\RECEPC~1\AppData\Local\Temp\ccEI1MLs.s 			page 32


 1426 07e0 35E0     		b	.L36
 1427              	.L39:
 343:.\PrimeImpl.c ****                         }
 344:.\PrimeImpl.c ****                         else
 345:.\PrimeImpl.c ****                         {
 346:.\PrimeImpl.c ****                             ClearEepromBuffer();
 1428              		.loc 1 346 0
 1429 07e2 FFF7FEFF 		bl	ClearEepromBuffer
 347:.\PrimeImpl.c ****                             LoadEepromPage(EEPROM_DISPENSER_PUMP4_LAYOUT_PAGE);
 1430              		.loc 1 347 0
 1431 07e6 4FF43070 		mov	r0, #704
 1432 07ea FFF7FEFF 		bl	LoadEepromPage
 348:.\PrimeImpl.c ****                             if(GetEepromBuffer()[0] == ((pjob->_ppump->_rxbuffer[0x04] & 0x0F) + 1)
 1433              		.loc 1 348 0
 1434 07ee FFF7FEFF 		bl	GetEepromBuffer
 1435 07f2 0346     		mov	r3, r0
 1436 07f4 1B78     		ldrb	r3, [r3]	@ zero_extendqisi2
 1437 07f6 1A46     		mov	r2, r3
 1438 07f8 7B69     		ldr	r3, [r7, #20]
 1439 07fa DB69     		ldr	r3, [r3, #28]
 1440 07fc 93F88C31 		ldrb	r3, [r3, #396]	@ zero_extendqisi2
 1441 0800 03F00F03 		and	r3, r3, #15
 1442 0804 0133     		adds	r3, r3, #1
 1443 0806 9A42     		cmp	r2, r3
 1444 0808 21D1     		bne	.L36
 349:.\PrimeImpl.c ****                             {
 350:.\PrimeImpl.c ****                                 ClearEepromBuffer();
 1445              		.loc 1 350 0
 1446 080a FFF7FEFF 		bl	ClearEepromBuffer
 351:.\PrimeImpl.c ****                                 //Storing the current Date/Time for this transaction
 352:.\PrimeImpl.c ****                                 memcpy(GetEepromBuffer(), GetRtcBuffer(), 0x07);
 1447              		.loc 1 352 0
 1448 080e FFF7FEFF 		bl	GetEepromBuffer
 1449 0812 0446     		mov	r4, r0
 1450 0814 FFF7FEFF 		bl	GetRtcBuffer
 1451 0818 0346     		mov	r3, r0
 1452 081a 2046     		mov	r0, r4
 1453 081c 1946     		mov	r1, r3
 1454 081e 0722     		movs	r2, #7
 1455 0820 FFF7FEFF 		bl	memcpy
 353:.\PrimeImpl.c ****                                 memcpy(&GetEepromBuffer()[0x07], pjob->_ppump->_rxbuffer, pjob->_pp
 1456              		.loc 1 353 0
 1457 0824 FFF7FEFF 		bl	GetEepromBuffer
 1458 0828 0346     		mov	r3, r0
 1459 082a D91D     		adds	r1, r3, #7
 1460 082c 7B69     		ldr	r3, [r7, #20]
 1461 082e DB69     		ldr	r3, [r3, #28]
 1462 0830 03F5C472 		add	r2, r3, #392
 1463 0834 7B69     		ldr	r3, [r7, #20]
 1464 0836 DB69     		ldr	r3, [r3, #28]
 1465 0838 B3F8F032 		ldrh	r3, [r3, #752]
 1466 083c 0846     		mov	r0, r1
 1467 083e 1146     		mov	r1, r2
 1468 0840 1A46     		mov	r2, r3
 1469 0842 FFF7FEFF 		bl	memcpy
 354:.\PrimeImpl.c ****                                 StoreEepromPage(EEPROM_DISPENSER_PUMP44_TRANSACTION_PAGE);
 1470              		.loc 1 354 0
ARM GAS  C:\Users\RECEPC~1\AppData\Local\Temp\ccEI1MLs.s 			page 33


 1471 0846 4FF41C60 		mov	r0, #2496
 1472 084a FFF7FEFF 		bl	StoreEepromPage
 1473              	.L36:
 355:.\PrimeImpl.c ****                             }
 356:.\PrimeImpl.c ****                         }
 357:.\PrimeImpl.c ****                     }
 358:.\PrimeImpl.c ****                 }
 359:.\PrimeImpl.c ****             }
 360:.\PrimeImpl.c ****             I2CBusUnlock();
 1474              		.loc 1 360 0
 1475 084e FFF7FEFF 		bl	I2CBusUnlock
 361:.\PrimeImpl.c ****                 
 362:.\PrimeImpl.c ****             //HERE WE ATTEMPT TO PUSH THE TRANSACTION INTO THE PUMP'S TRANSACTIONAL QUEUE.
 363:.\PrimeImpl.c ****             //THIS IS DONE ONLY IF THERE IS ROOM IN THE QUEUE, OTHERWISE THIS STATE WON'T
 364:.\PrimeImpl.c ****             //BE REPORTED TO THE REMOTE PEER.
 365:.\PrimeImpl.c ****             pjob->_ppump->PumpTransQueueLock(pjob->_ppump);
 1476              		.loc 1 365 0
 1477 0852 7B69     		ldr	r3, [r7, #20]
 1478 0854 DB69     		ldr	r3, [r3, #28]
 1479 0856 D3F8143B 		ldr	r3, [r3, #2836]
 1480 085a 7A69     		ldr	r2, [r7, #20]
 1481 085c D269     		ldr	r2, [r2, #28]
 1482 085e 1046     		mov	r0, r2
 1483 0860 9847     		blx	r3
 366:.\PrimeImpl.c ****             PNEAR_PUMPTRANSACTIONALSTATEPTR pts = pjob->_ppump->PumpTransQueueAllocate(pjob->_ppump
 1484              		.loc 1 366 0
 1485 0862 7B69     		ldr	r3, [r7, #20]
 1486 0864 DB69     		ldr	r3, [r3, #28]
 1487 0866 D3F8283B 		ldr	r3, [r3, #2856]
 1488 086a 7A69     		ldr	r2, [r7, #20]
 1489 086c D269     		ldr	r2, [r2, #28]
 1490 086e 1046     		mov	r0, r2
 1491 0870 9847     		blx	r3
 1492 0872 F860     		str	r0, [r7, #12]
 367:.\PrimeImpl.c ****             pjob->_ppump->PumpTransQueueUnlock(pjob->_ppump);
 1493              		.loc 1 367 0
 1494 0874 7B69     		ldr	r3, [r7, #20]
 1495 0876 DB69     		ldr	r3, [r3, #28]
 1496 0878 D3F8183B 		ldr	r3, [r3, #2840]
 1497 087c 7A69     		ldr	r2, [r7, #20]
 1498 087e D269     		ldr	r2, [r2, #28]
 1499 0880 1046     		mov	r0, r2
 1500 0882 9847     		blx	r3
 368:.\PrimeImpl.c ****             if(pts)
 1501              		.loc 1 368 0
 1502 0884 FB68     		ldr	r3, [r7, #12]
 1503 0886 002B     		cmp	r3, #0
 1504 0888 31D0     		beq	.L17
 369:.\PrimeImpl.c ****             {
 370:.\PrimeImpl.c ****                 pts->_transtate = RF_MUX_CASH_SALE_END_REPORT_RESPONSE;
 1505              		.loc 1 370 0
 1506 088a FB68     		ldr	r3, [r7, #12]
 1507 088c A422     		movs	r2, #164
 1508 088e 5A70     		strb	r2, [r3, #1]
 371:.\PrimeImpl.c ****                 memcpy(pts->_buffer, pjob->_ppump->_rxbuffer, pjob->_ppump->_rxbuffersize);
 1509              		.loc 1 371 0
 1510 0890 FB68     		ldr	r3, [r7, #12]
ARM GAS  C:\Users\RECEPC~1\AppData\Local\Temp\ccEI1MLs.s 			page 34


 1511 0892 991C     		adds	r1, r3, #2
 1512 0894 7B69     		ldr	r3, [r7, #20]
 1513 0896 DB69     		ldr	r3, [r3, #28]
 1514 0898 03F5C472 		add	r2, r3, #392
 1515 089c 7B69     		ldr	r3, [r7, #20]
 1516 089e DB69     		ldr	r3, [r3, #28]
 1517 08a0 B3F8F032 		ldrh	r3, [r3, #752]
 1518 08a4 0846     		mov	r0, r1
 1519 08a6 1146     		mov	r1, r2
 1520 08a8 1A46     		mov	r2, r3
 1521 08aa FFF7FEFF 		bl	memcpy
 372:.\PrimeImpl.c ****                 pts->_buffersize = pjob->_ppump->_rxbuffersize;
 1522              		.loc 1 372 0
 1523 08ae 7B69     		ldr	r3, [r7, #20]
 1524 08b0 DB69     		ldr	r3, [r3, #28]
 1525 08b2 B3F8F022 		ldrh	r2, [r3, #752]
 1526 08b6 FB68     		ldr	r3, [r7, #12]
 1527 08b8 A3F80221 		strh	r2, [r3, #258]	@ movhi
 373:.\PrimeImpl.c ****                 
 374:.\PrimeImpl.c ****                 pjob->_ppump->PumpTransQueueLock(pjob->_ppump);
 1528              		.loc 1 374 0
 1529 08bc 7B69     		ldr	r3, [r7, #20]
 1530 08be DB69     		ldr	r3, [r3, #28]
 1531 08c0 D3F8143B 		ldr	r3, [r3, #2836]
 1532 08c4 7A69     		ldr	r2, [r7, #20]
 1533 08c6 D269     		ldr	r2, [r2, #28]
 1534 08c8 1046     		mov	r0, r2
 1535 08ca 9847     		blx	r3
 375:.\PrimeImpl.c ****                 pjob->_ppump->PumpTransQueueEnqueue(pjob->_ppump, pts);
 1536              		.loc 1 375 0
 1537 08cc 7B69     		ldr	r3, [r7, #20]
 1538 08ce DB69     		ldr	r3, [r3, #28]
 1539 08d0 D3F8203B 		ldr	r3, [r3, #2848]
 1540 08d4 7A69     		ldr	r2, [r7, #20]
 1541 08d6 D269     		ldr	r2, [r2, #28]
 1542 08d8 1046     		mov	r0, r2
 1543 08da F968     		ldr	r1, [r7, #12]
 1544 08dc 9847     		blx	r3
 376:.\PrimeImpl.c ****                 pjob->_ppump->PumpTransQueueUnlock(pjob->_ppump);
 1545              		.loc 1 376 0
 1546 08de 7B69     		ldr	r3, [r7, #20]
 1547 08e0 DB69     		ldr	r3, [r3, #28]
 1548 08e2 D3F8183B 		ldr	r3, [r3, #2840]
 1549 08e6 7A69     		ldr	r2, [r7, #20]
 1550 08e8 D269     		ldr	r2, [r2, #28]
 1551 08ea 1046     		mov	r0, r2
 1552 08ec 9847     		blx	r3
 1553              	.L17:
 1554              	.LBE3:
 377:.\PrimeImpl.c ****             }
 378:.\PrimeImpl.c ****             
 379:.\PrimeImpl.c ****         }  
 380:.\PrimeImpl.c ****     }
 381:.\PrimeImpl.c **** }
 1555              		.loc 1 381 0
 1556 08ee 1837     		adds	r7, r7, #24
 1557              		.cfi_def_cfa_offset 16
ARM GAS  C:\Users\RECEPC~1\AppData\Local\Temp\ccEI1MLs.s 			page 35


 1558 08f0 BD46     		mov	sp, r7
 1559              		.cfi_def_cfa_register 13
 1560              		@ sp needed
 1561 08f2 B0BD     		pop	{r4, r5, r7, pc}
 1562              		.cfi_endproc
 1563              	.LFE68:
 1564              		.size	ProcessPumpTransactionData, .-ProcessPumpTransactionData
 1565              		.section	.text.ProcessPumpTotalsDataStart,"ax",%progbits
 1566              		.align	2
 1567              		.global	ProcessPumpTotalsDataStart
 1568              		.thumb
 1569              		.thumb_func
 1570              		.type	ProcessPumpTotalsDataStart, %function
 1571              	ProcessPumpTotalsDataStart:
 1572              	.LFB69:
 382:.\PrimeImpl.c **** 
 383:.\PrimeImpl.c **** 
 384:.\PrimeImpl.c **** //@Created By: HIJH
 385:.\PrimeImpl.c **** //@Date: Septembre de 2016
 386:.\PrimeImpl.c **** //Processes the totals data buffer dynamically since it changes its size
 387:.\PrimeImpl.c **** //depending on the Pump-Hose layout
 388:.\PrimeImpl.c **** void ProcessPumpTotalsDataStart(void *pparam)
 389:.\PrimeImpl.c **** {
 1573              		.loc 1 389 0
 1574              		.cfi_startproc
 1575              		@ args = 0, pretend = 0, frame = 16
 1576              		@ frame_needed = 1, uses_anonymous_args = 0
 1577 0000 90B5     		push	{r4, r7, lr}
 1578              		.cfi_def_cfa_offset 12
 1579              		.cfi_offset 4, -12
 1580              		.cfi_offset 7, -8
 1581              		.cfi_offset 14, -4
 1582 0002 85B0     		sub	sp, sp, #20
 1583              		.cfi_def_cfa_offset 32
 1584 0004 00AF     		add	r7, sp, #0
 1585              		.cfi_def_cfa_register 7
 1586 0006 7860     		str	r0, [r7, #4]
 390:.\PrimeImpl.c ****     PPUMPTRANSACTIONJOBCONTEXTPTR pjob = (PPUMPTRANSACTIONJOBCONTEXTPTR)pparam;
 1587              		.loc 1 390 0
 1588 0008 7B68     		ldr	r3, [r7, #4]
 1589 000a BB60     		str	r3, [r7, #8]
 391:.\PrimeImpl.c ****     if(pjob)
 1590              		.loc 1 391 0
 1591 000c BB68     		ldr	r3, [r7, #8]
 1592 000e 002B     		cmp	r3, #0
 1593 0010 00F0B580 		beq	.L42
 1594              	.LBB5:
 392:.\PrimeImpl.c ****     {        
 393:.\PrimeImpl.c ****         uint8 hosecount = 0x00;
 1595              		.loc 1 393 0
 1596 0014 0023     		movs	r3, #0
 1597 0016 FB73     		strb	r3, [r7, #15]
 394:.\PrimeImpl.c ****         FOR(uint8 index = 0, index < _g_dispenserlayoutinfo._numpositions, index++)
 1598              		.loc 1 394 0
 1599 0018 0023     		movs	r3, #0
 1600 001a BB73     		strb	r3, [r7, #14]
 1601 001c 30E0     		b	.L44
ARM GAS  C:\Users\RECEPC~1\AppData\Local\Temp\ccEI1MLs.s 			page 36


 1602              	.L53:
 395:.\PrimeImpl.c ****         {
 396:.\PrimeImpl.c ****             if(pjob->_ppump->_pumpid == _g_pumps[index]._pumpid)
 1603              		.loc 1 396 0
 1604 001e BB68     		ldr	r3, [r7, #8]
 1605 0020 DB69     		ldr	r3, [r3, #28]
 1606 0022 1A78     		ldrb	r2, [r3]	@ zero_extendqisi2
 1607 0024 BB7B     		ldrb	r3, [r7, #14]	@ zero_extendqisi2
 1608 0026 5749     		ldr	r1, .L60
 1609 0028 40F69830 		movw	r0, #2968
 1610 002c 00FB03F3 		mul	r3, r0, r3
 1611 0030 0B44     		add	r3, r3, r1
 1612 0032 1B78     		ldrb	r3, [r3]	@ zero_extendqisi2
 1613 0034 9A42     		cmp	r2, r3
 1614 0036 20D1     		bne	.L45
 397:.\PrimeImpl.c ****             {
 398:.\PrimeImpl.c ****                 switch(index)
 1615              		.loc 1 398 0
 1616 0038 BB7B     		ldrb	r3, [r7, #14]	@ zero_extendqisi2
 1617 003a 042B     		cmp	r3, #4
 1618 003c 26D8     		bhi	.L59
 1619 003e 01A2     		adr	r2, .L48
 1620 0040 52F823F0 		ldr	pc, [r2, r3, lsl #2]
 1621              		.p2align 2
 1622              	.L48:
 1623 0044 59000000 		.word	.L47+1
 1624 0048 61000000 		.word	.L49+1
 1625 004c 69000000 		.word	.L50+1
 1626 0050 8D000000 		.word	.L59+1
 1627 0054 71000000 		.word	.L51+1
 1628              		.p2align 1
 1629              	.L47:
 399:.\PrimeImpl.c ****                 {
 400:.\PrimeImpl.c ****                     case 0x0:
 401:.\PrimeImpl.c ****                     hosecount = _g_dispenserlayoutinfo._hosesposition1;
 1630              		.loc 1 401 0
 1631 0058 4B4B     		ldr	r3, .L60+4
 1632 005a DB78     		ldrb	r3, [r3, #3]
 1633 005c FB73     		strb	r3, [r7, #15]
 402:.\PrimeImpl.c ****                     break;
 1634              		.loc 1 402 0
 1635 005e 0BE0     		b	.L46
 1636              	.L49:
 403:.\PrimeImpl.c ****                     case 0x1:
 404:.\PrimeImpl.c ****                     hosecount = _g_dispenserlayoutinfo._hosesposition2;
 1637              		.loc 1 404 0
 1638 0060 494B     		ldr	r3, .L60+4
 1639 0062 1B79     		ldrb	r3, [r3, #4]
 1640 0064 FB73     		strb	r3, [r7, #15]
 405:.\PrimeImpl.c ****                     break;
 1641              		.loc 1 405 0
 1642 0066 07E0     		b	.L46
 1643              	.L50:
 406:.\PrimeImpl.c ****                     case 0x2:
 407:.\PrimeImpl.c ****                     hosecount = _g_dispenserlayoutinfo._hosesposition3;
 1644              		.loc 1 407 0
 1645 0068 474B     		ldr	r3, .L60+4
ARM GAS  C:\Users\RECEPC~1\AppData\Local\Temp\ccEI1MLs.s 			page 37


 1646 006a 5B79     		ldrb	r3, [r3, #5]
 1647 006c FB73     		strb	r3, [r7, #15]
 408:.\PrimeImpl.c ****                     break;
 1648              		.loc 1 408 0
 1649 006e 03E0     		b	.L46
 1650              	.L51:
 409:.\PrimeImpl.c ****                     case 0x4:
 410:.\PrimeImpl.c ****                     hosecount = _g_dispenserlayoutinfo._hosesposition4;
 1651              		.loc 1 410 0
 1652 0070 454B     		ldr	r3, .L60+4
 1653 0072 9B79     		ldrb	r3, [r3, #6]
 1654 0074 FB73     		strb	r3, [r7, #15]
 411:.\PrimeImpl.c ****                     break;
 1655              		.loc 1 411 0
 1656 0076 00BF     		nop
 1657              	.L46:
 412:.\PrimeImpl.c ****                 }
 413:.\PrimeImpl.c ****                 break;
 1658              		.loc 1 413 0
 1659 0078 08E0     		b	.L59
 1660              	.L45:
 394:.\PrimeImpl.c ****         {
 1661              		.loc 1 394 0 discriminator 2
 1662 007a BB7B     		ldrb	r3, [r7, #14]	@ zero_extendqisi2
 1663 007c 0133     		adds	r3, r3, #1
 1664 007e BB73     		strb	r3, [r7, #14]
 1665              	.L44:
 394:.\PrimeImpl.c ****         {
 1666              		.loc 1 394 0 is_stmt 0 discriminator 1
 1667 0080 414B     		ldr	r3, .L60+4
 1668 0082 9B78     		ldrb	r3, [r3, #2]	@ zero_extendqisi2
 1669 0084 BA7B     		ldrb	r2, [r7, #14]	@ zero_extendqisi2
 1670 0086 9A42     		cmp	r2, r3
 1671 0088 C9D3     		bcc	.L53
 1672 008a 00E0     		b	.L52
 1673              	.L59:
 1674              		.loc 1 413 0 is_stmt 1
 1675 008c 00BF     		nop
 1676              	.L52:
 414:.\PrimeImpl.c ****             }
 415:.\PrimeImpl.c ****         }
 416:.\PrimeImpl.c ****         
 417:.\PrimeImpl.c ****         //All indexes were taken according to the documentation
 418:.\PrimeImpl.c ****         FOR(index = 0, index < hosecount, index++)
 1677              		.loc 1 418 0
 1678 008e 0023     		movs	r3, #0
 1679 0090 BB73     		strb	r3, [r7, #14]
 1680 0092 66E0     		b	.L54
 1681              	.L58:
 419:.\PrimeImpl.c ****         {
 420:.\PrimeImpl.c ****             switch(index)
 1682              		.loc 1 420 0
 1683 0094 BB7B     		ldrb	r3, [r7, #14]	@ zero_extendqisi2
 1684 0096 002B     		cmp	r3, #0
 1685 0098 02D0     		beq	.L56
 1686 009a 012B     		cmp	r3, #1
 1687 009c 2FD0     		beq	.L57
ARM GAS  C:\Users\RECEPC~1\AppData\Local\Temp\ccEI1MLs.s 			page 38


 1688 009e 5DE0     		b	.L55
 1689              	.L56:
 421:.\PrimeImpl.c ****             {
 422:.\PrimeImpl.c ****             case 0x00:
 423:.\PrimeImpl.c ****                 pjob->_ppump->_datacontainer._var6 = BCDPositiveValueToUInt((LPRAWPTR)&pjob->_ppump
 1690              		.loc 1 423 0
 1691 00a0 BB68     		ldr	r3, [r7, #8]
 1692 00a2 DC69     		ldr	r4, [r3, #28]
 1693 00a4 BB68     		ldr	r3, [r7, #8]
 1694 00a6 DA69     		ldr	r2, [r3, #28]
 1695 00a8 BB7B     		ldrb	r3, [r7, #14]	@ zero_extendqisi2
 1696 00aa 2A21     		movs	r1, #42
 1697 00ac 01FB03F3 		mul	r3, r1, r3
 1698 00b0 0233     		adds	r3, r3, #2
 1699 00b2 03F5C473 		add	r3, r3, #392
 1700 00b6 1344     		add	r3, r3, r2
 1701 00b8 1846     		mov	r0, r3
 1702 00ba 0C21     		movs	r1, #12
 1703 00bc 0F22     		movs	r2, #15
 1704 00be FFF7FEFF 		bl	BCDPositiveValueToUInt
 1705 00c2 0246     		mov	r2, r0
 1706 00c4 0B46     		mov	r3, r1
 1707 00c6 04F64831 		addw	r1, r4, #2888
 1708 00ca C1E90023 		strd	r2, [r1]
 424:.\PrimeImpl.c ****                 pjob->_ppump->_datacontainer._var7 = BCDPositiveValueToUInt((LPRAWPTR)&pjob->_ppump
 1709              		.loc 1 424 0
 1710 00ce BB68     		ldr	r3, [r7, #8]
 1711 00d0 DC69     		ldr	r4, [r3, #28]
 1712 00d2 BB68     		ldr	r3, [r7, #8]
 1713 00d4 DA69     		ldr	r2, [r3, #28]
 1714 00d6 BB7B     		ldrb	r3, [r7, #14]	@ zero_extendqisi2
 1715 00d8 2A21     		movs	r1, #42
 1716 00da 01FB03F3 		mul	r3, r1, r3
 1717 00de 1133     		adds	r3, r3, #17
 1718 00e0 03F5C473 		add	r3, r3, #392
 1719 00e4 1344     		add	r3, r3, r2
 1720 00e6 1846     		mov	r0, r3
 1721 00e8 0C21     		movs	r1, #12
 1722 00ea 0F22     		movs	r2, #15
 1723 00ec FFF7FEFF 		bl	BCDPositiveValueToUInt
 1724 00f0 0246     		mov	r2, r0
 1725 00f2 0B46     		mov	r3, r1
 1726 00f4 04F53561 		add	r1, r4, #2896
 1727 00f8 C1E90023 		strd	r2, [r1]
 425:.\PrimeImpl.c ****                 break;
 1728              		.loc 1 425 0
 1729 00fc 2EE0     		b	.L55
 1730              	.L57:
 426:.\PrimeImpl.c ****             case 0x01:
 427:.\PrimeImpl.c ****                 pjob->_ppump->_datacontainer._var8 = BCDPositiveValueToUInt((LPRAWPTR)&pjob->_ppump
 1731              		.loc 1 427 0
 1732 00fe BB68     		ldr	r3, [r7, #8]
 1733 0100 DC69     		ldr	r4, [r3, #28]
 1734 0102 BB68     		ldr	r3, [r7, #8]
 1735 0104 DA69     		ldr	r2, [r3, #28]
 1736 0106 BB7B     		ldrb	r3, [r7, #14]	@ zero_extendqisi2
 1737 0108 2A21     		movs	r1, #42
ARM GAS  C:\Users\RECEPC~1\AppData\Local\Temp\ccEI1MLs.s 			page 39


 1738 010a 01FB03F3 		mul	r3, r1, r3
 1739 010e 0233     		adds	r3, r3, #2
 1740 0110 03F5C473 		add	r3, r3, #392
 1741 0114 1344     		add	r3, r3, r2
 1742 0116 1846     		mov	r0, r3
 1743 0118 0C21     		movs	r1, #12
 1744 011a 0F22     		movs	r2, #15
 1745 011c FFF7FEFF 		bl	BCDPositiveValueToUInt
 1746 0120 0246     		mov	r2, r0
 1747 0122 0B46     		mov	r3, r1
 1748 0124 04F65831 		addw	r1, r4, #2904
 1749 0128 C1E90023 		strd	r2, [r1]
 428:.\PrimeImpl.c ****                 pjob->_ppump->_datacontainer._var9 = BCDPositiveValueToUInt((LPRAWPTR)&pjob->_ppump
 1750              		.loc 1 428 0
 1751 012c BB68     		ldr	r3, [r7, #8]
 1752 012e DC69     		ldr	r4, [r3, #28]
 1753 0130 BB68     		ldr	r3, [r7, #8]
 1754 0132 DA69     		ldr	r2, [r3, #28]
 1755 0134 BB7B     		ldrb	r3, [r7, #14]	@ zero_extendqisi2
 1756 0136 2A21     		movs	r1, #42
 1757 0138 01FB03F3 		mul	r3, r1, r3
 1758 013c 1133     		adds	r3, r3, #17
 1759 013e 03F5C473 		add	r3, r3, #392
 1760 0142 1344     		add	r3, r3, r2
 1761 0144 1846     		mov	r0, r3
 1762 0146 0C21     		movs	r1, #12
 1763 0148 0F22     		movs	r2, #15
 1764 014a FFF7FEFF 		bl	BCDPositiveValueToUInt
 1765 014e 0246     		mov	r2, r0
 1766 0150 0B46     		mov	r3, r1
 1767 0152 04F53661 		add	r1, r4, #2912
 1768 0156 C1E90023 		strd	r2, [r1]
 429:.\PrimeImpl.c ****                 break;
 1769              		.loc 1 429 0
 1770 015a 00BF     		nop
 1771              	.L55:
 418:.\PrimeImpl.c ****         {
 1772              		.loc 1 418 0 discriminator 2
 1773 015c BB7B     		ldrb	r3, [r7, #14]	@ zero_extendqisi2
 1774 015e 0133     		adds	r3, r3, #1
 1775 0160 BB73     		strb	r3, [r7, #14]
 1776              	.L54:
 418:.\PrimeImpl.c ****         {
 1777              		.loc 1 418 0 is_stmt 0 discriminator 1
 1778 0162 BA7B     		ldrb	r2, [r7, #14]	@ zero_extendqisi2
 1779 0164 FB7B     		ldrb	r3, [r7, #15]	@ zero_extendqisi2
 1780 0166 9A42     		cmp	r2, r3
 1781 0168 94D3     		bcc	.L58
 430:.\PrimeImpl.c ****             //WARNING: IN CASE OF AN ENCORE DISPENSER OR ANOTHER WITH MORE THAN TWO HOSES PER POSIT
 431:.\PrimeImpl.c ****             }
 432:.\PrimeImpl.c ****         }
 433:.\PrimeImpl.c ****         
 434:.\PrimeImpl.c ****         memset(pjob->_ppump->_rxbuffer, 0x00, _PUMP_RX_BUFFER_SIZE_);
 1782              		.loc 1 434 0 is_stmt 1
 1783 016a BB68     		ldr	r3, [r7, #8]
 1784 016c DB69     		ldr	r3, [r3, #28]
 1785 016e 03F5C473 		add	r3, r3, #392
ARM GAS  C:\Users\RECEPC~1\AppData\Local\Temp\ccEI1MLs.s 			page 40


 1786 0172 1846     		mov	r0, r3
 1787 0174 0021     		movs	r1, #0
 1788 0176 4FF4B472 		mov	r2, #360
 1789 017a FFF7FEFF 		bl	memset
 1790              	.L42:
 1791              	.LBE5:
 435:.\PrimeImpl.c ****     }
 436:.\PrimeImpl.c **** }
 1792              		.loc 1 436 0
 1793 017e 1437     		adds	r7, r7, #20
 1794              		.cfi_def_cfa_offset 12
 1795 0180 BD46     		mov	sp, r7
 1796              		.cfi_def_cfa_register 13
 1797              		@ sp needed
 1798 0182 90BD     		pop	{r4, r7, pc}
 1799              	.L61:
 1800              		.align	2
 1801              	.L60:
 1802 0184 00000000 		.word	_g_pumps
 1803 0188 00000000 		.word	_g_dispenserlayoutinfo
 1804              		.cfi_endproc
 1805              	.LFE69:
 1806              		.size	ProcessPumpTotalsDataStart, .-ProcessPumpTotalsDataStart
 1807              		.section	.text.ProcessPumpTotalsDataEnd,"ax",%progbits
 1808              		.align	2
 1809              		.global	ProcessPumpTotalsDataEnd
 1810              		.thumb
 1811              		.thumb_func
 1812              		.type	ProcessPumpTotalsDataEnd, %function
 1813              	ProcessPumpTotalsDataEnd:
 1814              	.LFB70:
 437:.\PrimeImpl.c **** 
 438:.\PrimeImpl.c **** //@Created By: HIJH
 439:.\PrimeImpl.c **** //@Septembre de 2016
 440:.\PrimeImpl.c **** void ProcessPumpTotalsDataEnd(void *pparam)
 441:.\PrimeImpl.c **** {
 1815              		.loc 1 441 0
 1816              		.cfi_startproc
 1817              		@ args = 0, pretend = 0, frame = 56
 1818              		@ frame_needed = 1, uses_anonymous_args = 0
 1819 0000 80B5     		push	{r7, lr}
 1820              		.cfi_def_cfa_offset 8
 1821              		.cfi_offset 7, -8
 1822              		.cfi_offset 14, -4
 1823 0002 8EB0     		sub	sp, sp, #56
 1824              		.cfi_def_cfa_offset 64
 1825 0004 00AF     		add	r7, sp, #0
 1826              		.cfi_def_cfa_register 7
 1827 0006 7860     		str	r0, [r7, #4]
 442:.\PrimeImpl.c ****     PPUMPTRANSACTIONJOBCONTEXTPTR pjob = (PPUMPTRANSACTIONJOBCONTEXTPTR)pparam;
 1828              		.loc 1 442 0
 1829 0008 7B68     		ldr	r3, [r7, #4]
 1830 000a FB61     		str	r3, [r7, #28]
 443:.\PrimeImpl.c ****     if(pjob)
 1831              		.loc 1 443 0
 1832 000c FB69     		ldr	r3, [r7, #28]
 1833 000e 002B     		cmp	r3, #0
ARM GAS  C:\Users\RECEPC~1\AppData\Local\Temp\ccEI1MLs.s 			page 41


 1834 0010 00F0F180 		beq	.L62
 1835              	.LBB6:
 444:.\PrimeImpl.c ****     {
 445:.\PrimeImpl.c ****         uint8 hosecount = 0x00;
 1836              		.loc 1 445 0
 1837 0014 0023     		movs	r3, #0
 1838 0016 87F83730 		strb	r3, [r7, #55]
 446:.\PrimeImpl.c ****         FOR(uint8 index = 0, index < _g_dispenserlayoutinfo._numpositions, index++)
 1839              		.loc 1 446 0
 1840 001a 0023     		movs	r3, #0
 1841 001c 87F83630 		strb	r3, [r7, #54]
 1842 0020 38E0     		b	.L64
 1843              	.L73:
 447:.\PrimeImpl.c ****         {
 448:.\PrimeImpl.c ****             if(pjob->_ppump->_pumpid == _g_pumps[index]._pumpid)
 1844              		.loc 1 448 0
 1845 0022 FB69     		ldr	r3, [r7, #28]
 1846 0024 DB69     		ldr	r3, [r3, #28]
 1847 0026 1A78     		ldrb	r2, [r3]	@ zero_extendqisi2
 1848 0028 97F83630 		ldrb	r3, [r7, #54]	@ zero_extendqisi2
 1849 002c 7349     		ldr	r1, .L86
 1850 002e 40F69830 		movw	r0, #2968
 1851 0032 00FB03F3 		mul	r3, r0, r3
 1852 0036 0B44     		add	r3, r3, r1
 1853 0038 1B78     		ldrb	r3, [r3]	@ zero_extendqisi2
 1854 003a 9A42     		cmp	r2, r3
 1855 003c 25D1     		bne	.L65
 449:.\PrimeImpl.c ****             {
 450:.\PrimeImpl.c ****                 switch(index)
 1856              		.loc 1 450 0
 1857 003e 97F83630 		ldrb	r3, [r7, #54]	@ zero_extendqisi2
 1858 0042 042B     		cmp	r3, #4
 1859 0044 2DD8     		bhi	.L85
 1860 0046 01A2     		adr	r2, .L68
 1861 0048 52F823F0 		ldr	pc, [r2, r3, lsl #2]
 1862              		.p2align 2
 1863              	.L68:
 1864 004c 61000000 		.word	.L67+1
 1865 0050 6B000000 		.word	.L69+1
 1866 0054 75000000 		.word	.L70+1
 1867 0058 A3000000 		.word	.L85+1
 1868 005c 7F000000 		.word	.L71+1
 1869              		.p2align 1
 1870              	.L67:
 451:.\PrimeImpl.c ****                 {
 452:.\PrimeImpl.c ****                     case 0x0:
 453:.\PrimeImpl.c ****                     hosecount = _g_dispenserlayoutinfo._hosesposition1;
 1871              		.loc 1 453 0
 1872 0060 674B     		ldr	r3, .L86+4
 1873 0062 DB78     		ldrb	r3, [r3, #3]
 1874 0064 87F83730 		strb	r3, [r7, #55]
 454:.\PrimeImpl.c ****                     break;
 1875              		.loc 1 454 0
 1876 0068 0EE0     		b	.L66
 1877              	.L69:
 455:.\PrimeImpl.c ****                     case 0x1:
 456:.\PrimeImpl.c ****                     hosecount = _g_dispenserlayoutinfo._hosesposition2;
ARM GAS  C:\Users\RECEPC~1\AppData\Local\Temp\ccEI1MLs.s 			page 42


 1878              		.loc 1 456 0
 1879 006a 654B     		ldr	r3, .L86+4
 1880 006c 1B79     		ldrb	r3, [r3, #4]
 1881 006e 87F83730 		strb	r3, [r7, #55]
 457:.\PrimeImpl.c ****                     break;
 1882              		.loc 1 457 0
 1883 0072 09E0     		b	.L66
 1884              	.L70:
 458:.\PrimeImpl.c ****                     case 0x2:
 459:.\PrimeImpl.c ****                     hosecount = _g_dispenserlayoutinfo._hosesposition3;
 1885              		.loc 1 459 0
 1886 0074 624B     		ldr	r3, .L86+4
 1887 0076 5B79     		ldrb	r3, [r3, #5]
 1888 0078 87F83730 		strb	r3, [r7, #55]
 460:.\PrimeImpl.c ****                     break;
 1889              		.loc 1 460 0
 1890 007c 04E0     		b	.L66
 1891              	.L71:
 461:.\PrimeImpl.c ****                     case 0x4:
 462:.\PrimeImpl.c ****                     hosecount = _g_dispenserlayoutinfo._hosesposition4;
 1892              		.loc 1 462 0
 1893 007e 604B     		ldr	r3, .L86+4
 1894 0080 9B79     		ldrb	r3, [r3, #6]
 1895 0082 87F83730 		strb	r3, [r7, #55]
 463:.\PrimeImpl.c ****                     break;
 1896              		.loc 1 463 0
 1897 0086 00BF     		nop
 1898              	.L66:
 464:.\PrimeImpl.c ****                 }
 465:.\PrimeImpl.c ****                 break;
 1899              		.loc 1 465 0
 1900 0088 0BE0     		b	.L85
 1901              	.L65:
 446:.\PrimeImpl.c ****         {
 1902              		.loc 1 446 0 discriminator 2
 1903 008a 97F83630 		ldrb	r3, [r7, #54]	@ zero_extendqisi2
 1904 008e 0133     		adds	r3, r3, #1
 1905 0090 87F83630 		strb	r3, [r7, #54]
 1906              	.L64:
 446:.\PrimeImpl.c ****         {
 1907              		.loc 1 446 0 is_stmt 0 discriminator 1
 1908 0094 5A4B     		ldr	r3, .L86+4
 1909 0096 9B78     		ldrb	r3, [r3, #2]	@ zero_extendqisi2
 1910 0098 97F83620 		ldrb	r2, [r7, #54]	@ zero_extendqisi2
 1911 009c 9A42     		cmp	r2, r3
 1912 009e C0D3     		bcc	.L73
 1913 00a0 00E0     		b	.L72
 1914              	.L85:
 1915              		.loc 1 465 0 is_stmt 1
 1916 00a2 00BF     		nop
 1917              	.L72:
 466:.\PrimeImpl.c ****             }
 467:.\PrimeImpl.c ****         }
 468:.\PrimeImpl.c ****         
 469:.\PrimeImpl.c ****         uint64 lvar6, lvar7, lvar8, lvar9;
 470:.\PrimeImpl.c ****         //All indexes were taken according to the documentation
 471:.\PrimeImpl.c ****         FOR(index = 0, index < hosecount, index++)
ARM GAS  C:\Users\RECEPC~1\AppData\Local\Temp\ccEI1MLs.s 			page 43


 1918              		.loc 1 471 0
 1919 00a4 0023     		movs	r3, #0
 1920 00a6 87F83630 		strb	r3, [r7, #54]
 1921 00aa 55E0     		b	.L74
 1922              	.L78:
 472:.\PrimeImpl.c ****         {
 473:.\PrimeImpl.c ****             switch(index)
 1923              		.loc 1 473 0
 1924 00ac 97F83630 		ldrb	r3, [r7, #54]	@ zero_extendqisi2
 1925 00b0 002B     		cmp	r3, #0
 1926 00b2 02D0     		beq	.L76
 1927 00b4 012B     		cmp	r3, #1
 1928 00b6 25D0     		beq	.L77
 1929 00b8 49E0     		b	.L75
 1930              	.L76:
 474:.\PrimeImpl.c ****             {
 475:.\PrimeImpl.c ****             case 0x00:
 476:.\PrimeImpl.c ****                 lvar6 = BCDPositiveValueToUInt((LPRAWPTR)&pjob->_ppump->_rxbuffer[0x02 + _PUMP_TOTA
 1931              		.loc 1 476 0
 1932 00ba FB69     		ldr	r3, [r7, #28]
 1933 00bc DA69     		ldr	r2, [r3, #28]
 1934 00be 97F83630 		ldrb	r3, [r7, #54]	@ zero_extendqisi2
 1935 00c2 2A21     		movs	r1, #42
 1936 00c4 01FB03F3 		mul	r3, r1, r3
 1937 00c8 0233     		adds	r3, r3, #2
 1938 00ca 03F5C473 		add	r3, r3, #392
 1939 00ce 1344     		add	r3, r3, r2
 1940 00d0 1846     		mov	r0, r3
 1941 00d2 0C21     		movs	r1, #12
 1942 00d4 0F22     		movs	r2, #15
 1943 00d6 FFF7FEFF 		bl	BCDPositiveValueToUInt
 1944 00da C7E90A01 		strd	r0, [r7, #40]
 477:.\PrimeImpl.c ****                 lvar7 = BCDPositiveValueToUInt((LPRAWPTR)&pjob->_ppump->_rxbuffer[0x11 + _PUMP_TOTA
 1945              		.loc 1 477 0
 1946 00de FB69     		ldr	r3, [r7, #28]
 1947 00e0 DA69     		ldr	r2, [r3, #28]
 1948 00e2 97F83630 		ldrb	r3, [r7, #54]	@ zero_extendqisi2
 1949 00e6 2A21     		movs	r1, #42
 1950 00e8 01FB03F3 		mul	r3, r1, r3
 1951 00ec 1133     		adds	r3, r3, #17
 1952 00ee 03F5C473 		add	r3, r3, #392
 1953 00f2 1344     		add	r3, r3, r2
 1954 00f4 1846     		mov	r0, r3
 1955 00f6 0C21     		movs	r1, #12
 1956 00f8 0F22     		movs	r2, #15
 1957 00fa FFF7FEFF 		bl	BCDPositiveValueToUInt
 1958 00fe C7E90401 		strd	r0, [r7, #16]
 478:.\PrimeImpl.c ****                 break;
 1959              		.loc 1 478 0
 1960 0102 24E0     		b	.L75
 1961              	.L77:
 479:.\PrimeImpl.c ****             case 0x01:
 480:.\PrimeImpl.c ****                 lvar8 = BCDPositiveValueToUInt((LPRAWPTR)&pjob->_ppump->_rxbuffer[0x02 + _PUMP_TOTA
 1962              		.loc 1 480 0
 1963 0104 FB69     		ldr	r3, [r7, #28]
 1964 0106 DA69     		ldr	r2, [r3, #28]
 1965 0108 97F83630 		ldrb	r3, [r7, #54]	@ zero_extendqisi2
ARM GAS  C:\Users\RECEPC~1\AppData\Local\Temp\ccEI1MLs.s 			page 44


 1966 010c 2A21     		movs	r1, #42
 1967 010e 01FB03F3 		mul	r3, r1, r3
 1968 0112 0233     		adds	r3, r3, #2
 1969 0114 03F5C473 		add	r3, r3, #392
 1970 0118 1344     		add	r3, r3, r2
 1971 011a 1846     		mov	r0, r3
 1972 011c 0C21     		movs	r1, #12
 1973 011e 0F22     		movs	r2, #15
 1974 0120 FFF7FEFF 		bl	BCDPositiveValueToUInt
 1975 0124 C7E90801 		strd	r0, [r7, #32]
 481:.\PrimeImpl.c ****                 lvar9 = BCDPositiveValueToUInt((LPRAWPTR)&pjob->_ppump->_rxbuffer[0x11 + _PUMP_TOTA
 1976              		.loc 1 481 0
 1977 0128 FB69     		ldr	r3, [r7, #28]
 1978 012a DA69     		ldr	r2, [r3, #28]
 1979 012c 97F83630 		ldrb	r3, [r7, #54]	@ zero_extendqisi2
 1980 0130 2A21     		movs	r1, #42
 1981 0132 01FB03F3 		mul	r3, r1, r3
 1982 0136 1133     		adds	r3, r3, #17
 1983 0138 03F5C473 		add	r3, r3, #392
 1984 013c 1344     		add	r3, r3, r2
 1985 013e 1846     		mov	r0, r3
 1986 0140 0C21     		movs	r1, #12
 1987 0142 0F22     		movs	r2, #15
 1988 0144 FFF7FEFF 		bl	BCDPositiveValueToUInt
 1989 0148 C7E90201 		strd	r0, [r7, #8]
 482:.\PrimeImpl.c ****                 break;
 1990              		.loc 1 482 0
 1991 014c 00BF     		nop
 1992              	.L75:
 471:.\PrimeImpl.c ****         {
 1993              		.loc 1 471 0 discriminator 2
 1994 014e 97F83630 		ldrb	r3, [r7, #54]	@ zero_extendqisi2
 1995 0152 0133     		adds	r3, r3, #1
 1996 0154 87F83630 		strb	r3, [r7, #54]
 1997              	.L74:
 471:.\PrimeImpl.c ****         {
 1998              		.loc 1 471 0 is_stmt 0 discriminator 1
 1999 0158 97F83620 		ldrb	r2, [r7, #54]	@ zero_extendqisi2
 2000 015c 97F83730 		ldrb	r3, [r7, #55]	@ zero_extendqisi2
 2001 0160 9A42     		cmp	r2, r3
 2002 0162 A3D3     		bcc	.L78
 483:.\PrimeImpl.c ****             //WARNING: IN CASE OF AN ENCORE DISPENSER OR ANOTHER WITH MORE THAN TWO HOSES PER POSIT
 484:.\PrimeImpl.c ****             }
 485:.\PrimeImpl.c ****         }
 486:.\PrimeImpl.c ****         //INSPECT FOR ANY DIFFERENCE BETWEEN THE SOT AND THE EOT TOTALS TO INFORM THE REMOTE PEER
 487:.\PrimeImpl.c ****         switch(hosecount)
 2003              		.loc 1 487 0 is_stmt 1
 2004 0164 97F83730 		ldrb	r3, [r7, #55]	@ zero_extendqisi2
 2005 0168 012B     		cmp	r3, #1
 2006 016a 02D0     		beq	.L80
 2007 016c 022B     		cmp	r3, #2
 2008 016e 13D0     		beq	.L81
 2009 0170 37E0     		b	.L79
 2010              	.L80:
 488:.\PrimeImpl.c ****         {
 489:.\PrimeImpl.c ****             case 0x1:
 490:.\PrimeImpl.c ****             {
ARM GAS  C:\Users\RECEPC~1\AppData\Local\Temp\ccEI1MLs.s 			page 45


 491:.\PrimeImpl.c ****                 if((lvar6 - pjob->_ppump->_datacontainer._var6) ||
 2011              		.loc 1 491 0
 2012 0172 FB69     		ldr	r3, [r7, #28]
 2013 0174 DB69     		ldr	r3, [r3, #28]
 2014 0176 03F64833 		addw	r3, r3, #2888
 2015 017a D3E90001 		ldrd	r0, [r3]
 2016 017e D7E90A23 		ldrd	r2, [r7, #40]
 2017 0182 9942     		cmp	r1, r3
 2018 0184 08BF     		it	eq
 2019 0186 9042     		cmpeq	r0, r2
 2020 0188 05D1     		bne	.L82
 492:.\PrimeImpl.c ****                     (lvar7 - pjob->_ppump->_datacontainer._var7))
 2021              		.loc 1 492 0 discriminator 1
 2022 018a FB69     		ldr	r3, [r7, #28]
 2023 018c DB69     		ldr	r3, [r3, #28]
 2024 018e 03F53563 		add	r3, r3, #2896
 2025 0192 D3E90023 		ldrd	r2, [r3]
 2026              	.L82:
 493:.\PrimeImpl.c ****                 {
 494:.\PrimeImpl.c ****                     //TODO: SAVE THIS CONDITION AND NOTIFY THE REMOTE PEER (NSX IN THIS CASE)
 495:.\PrimeImpl.c ****                 }
 496:.\PrimeImpl.c ****                 break;
 2027              		.loc 1 496 0
 2028 0196 24E0     		b	.L79
 2029              	.L81:
 497:.\PrimeImpl.c ****             }
 498:.\PrimeImpl.c ****             case 0x2:
 499:.\PrimeImpl.c ****             {
 500:.\PrimeImpl.c ****                 if((lvar6 - pjob->_ppump->_datacontainer._var6) ||
 2030              		.loc 1 500 0
 2031 0198 FB69     		ldr	r3, [r7, #28]
 2032 019a DB69     		ldr	r3, [r3, #28]
 2033 019c 03F64833 		addw	r3, r3, #2888
 2034 01a0 D3E90001 		ldrd	r0, [r3]
 2035 01a4 D7E90A23 		ldrd	r2, [r7, #40]
 2036 01a8 9942     		cmp	r1, r3
 2037 01aa 08BF     		it	eq
 2038 01ac 9042     		cmpeq	r0, r2
 2039 01ae 05D1     		bne	.L83
 501:.\PrimeImpl.c ****                     (lvar7 - pjob->_ppump->_datacontainer._var7))
 2040              		.loc 1 501 0 discriminator 1
 2041 01b0 FB69     		ldr	r3, [r7, #28]
 2042 01b2 DB69     		ldr	r3, [r3, #28]
 2043 01b4 03F53563 		add	r3, r3, #2896
 2044 01b8 D3E90023 		ldrd	r2, [r3]
 2045              	.L83:
 502:.\PrimeImpl.c ****                 {
 503:.\PrimeImpl.c ****                     //TODO: SAVE THIS CONDITION AND NOTIFY THE REMOTE PEER (NSX IN THIS CASE)
 504:.\PrimeImpl.c ****                 }
 505:.\PrimeImpl.c ****                 if((lvar8 - pjob->_ppump->_datacontainer._var8) ||
 2046              		.loc 1 505 0
 2047 01bc FB69     		ldr	r3, [r7, #28]
 2048 01be DB69     		ldr	r3, [r3, #28]
 2049 01c0 03F65833 		addw	r3, r3, #2904
 2050 01c4 D3E90001 		ldrd	r0, [r3]
 2051 01c8 D7E90823 		ldrd	r2, [r7, #32]
 2052 01cc 9942     		cmp	r1, r3
ARM GAS  C:\Users\RECEPC~1\AppData\Local\Temp\ccEI1MLs.s 			page 46


 2053 01ce 08BF     		it	eq
 2054 01d0 9042     		cmpeq	r0, r2
 2055 01d2 05D1     		bne	.L84
 506:.\PrimeImpl.c ****                     (lvar9 - pjob->_ppump->_datacontainer._var9))
 2056              		.loc 1 506 0 discriminator 1
 2057 01d4 FB69     		ldr	r3, [r7, #28]
 2058 01d6 DB69     		ldr	r3, [r3, #28]
 2059 01d8 03F53663 		add	r3, r3, #2912
 2060 01dc D3E90023 		ldrd	r2, [r3]
 2061              	.L84:
 507:.\PrimeImpl.c ****                 {
 508:.\PrimeImpl.c ****                     //TODO: SAVE THIS CONDITION AND NOTIFY THE REMOTE PEER (NSX IN THIS CASE)
 509:.\PrimeImpl.c ****                 }
 510:.\PrimeImpl.c ****                 break;
 2062              		.loc 1 510 0
 2063 01e0 00BF     		nop
 2064              	.L79:
 511:.\PrimeImpl.c ****             }
 512:.\PrimeImpl.c ****             //WARNING: IN CASE OF AN ENCORE DISPENSER OR ANOTHER WITH MORE THAN TWO HOSES PER POSIT
 513:.\PrimeImpl.c ****         }
 514:.\PrimeImpl.c ****         
 515:.\PrimeImpl.c ****         memset(pjob->_ppump->_rxbuffer, 0x00, _PUMP_RX_BUFFER_SIZE_);
 2065              		.loc 1 515 0
 2066 01e2 FB69     		ldr	r3, [r7, #28]
 2067 01e4 DB69     		ldr	r3, [r3, #28]
 2068 01e6 03F5C473 		add	r3, r3, #392
 2069 01ea 1846     		mov	r0, r3
 2070 01ec 0021     		movs	r1, #0
 2071 01ee 4FF4B472 		mov	r2, #360
 2072 01f2 FFF7FEFF 		bl	memset
 2073              	.L62:
 2074              	.LBE6:
 516:.\PrimeImpl.c ****     }
 517:.\PrimeImpl.c **** }
 2075              		.loc 1 517 0
 2076 01f6 3837     		adds	r7, r7, #56
 2077              		.cfi_def_cfa_offset 8
 2078 01f8 BD46     		mov	sp, r7
 2079              		.cfi_def_cfa_register 13
 2080              		@ sp needed
 2081 01fa 80BD     		pop	{r7, pc}
 2082              	.L87:
 2083              		.align	2
 2084              	.L86:
 2085 01fc 00000000 		.word	_g_pumps
 2086 0200 00000000 		.word	_g_dispenserlayoutinfo
 2087              		.cfi_endproc
 2088              	.LFE70:
 2089              		.size	ProcessPumpTotalsDataEnd, .-ProcessPumpTotalsDataEnd
 2090              		.section	.text.ProcessPumpTotalsDataReport,"ax",%progbits
 2091              		.align	2
 2092              		.global	ProcessPumpTotalsDataReport
 2093              		.thumb
 2094              		.thumb_func
 2095              		.type	ProcessPumpTotalsDataReport, %function
 2096              	ProcessPumpTotalsDataReport:
 2097              	.LFB71:
ARM GAS  C:\Users\RECEPC~1\AppData\Local\Temp\ccEI1MLs.s 			page 47


 518:.\PrimeImpl.c **** 
 519:.\PrimeImpl.c **** //@Created By: HIJH
 520:.\PrimeImpl.c **** //@Septembre de 2016
 521:.\PrimeImpl.c **** void ProcessPumpTotalsDataReport(void *pparam)
 522:.\PrimeImpl.c **** {
 2098              		.loc 1 522 0
 2099              		.cfi_startproc
 2100              		@ args = 0, pretend = 0, frame = 24
 2101              		@ frame_needed = 1, uses_anonymous_args = 0
 2102 0000 80B5     		push	{r7, lr}
 2103              		.cfi_def_cfa_offset 8
 2104              		.cfi_offset 7, -8
 2105              		.cfi_offset 14, -4
 2106 0002 86B0     		sub	sp, sp, #24
 2107              		.cfi_def_cfa_offset 32
 2108 0004 00AF     		add	r7, sp, #0
 2109              		.cfi_def_cfa_register 7
 2110 0006 7860     		str	r0, [r7, #4]
 523:.\PrimeImpl.c ****     PPUMPTRANSACTIONJOBCONTEXTPTR pjob = (PPUMPTRANSACTIONJOBCONTEXTPTR)pparam;
 2111              		.loc 1 523 0
 2112 0008 7B68     		ldr	r3, [r7, #4]
 2113 000a 7B61     		str	r3, [r7, #20]
 524:.\PrimeImpl.c ****     if(pjob)
 2114              		.loc 1 524 0
 2115 000c 7B69     		ldr	r3, [r7, #20]
 2116 000e 002B     		cmp	r3, #0
 2117 0010 00F0AC80 		beq	.L88
 2118              	.LBB7:
 525:.\PrimeImpl.c ****     {
 526:.\PrimeImpl.c ****         //If the response is corrupted, then re-throw the transaction node for a limited number of 
 527:.\PrimeImpl.c ****         uint8 strmlrc = FindLRC(pjob->_ppump->_rxbuffer);
 2119              		.loc 1 527 0
 2120 0014 7B69     		ldr	r3, [r7, #20]
 2121 0016 DB69     		ldr	r3, [r3, #28]
 2122 0018 03F5C473 		add	r3, r3, #392
 2123 001c 1846     		mov	r0, r3
 2124 001e FFF7FEFF 		bl	FindLRC
 2125 0022 0346     		mov	r3, r0
 2126 0024 FB74     		strb	r3, [r7, #19]
 528:.\PrimeImpl.c ****         uint8 locallrc = GetLRC(pjob->_ppump->_rxbuffer);
 2127              		.loc 1 528 0
 2128 0026 7B69     		ldr	r3, [r7, #20]
 2129 0028 DB69     		ldr	r3, [r3, #28]
 2130 002a 03F5C473 		add	r3, r3, #392
 2131 002e 1846     		mov	r0, r3
 2132 0030 FFF7FEFF 		bl	GetLRC
 2133 0034 0346     		mov	r3, r0
 2134 0036 BB74     		strb	r3, [r7, #18]
 529:.\PrimeImpl.c ****         if(strmlrc != locallrc && pjob->_reenqueuecounter < _MAX_RETRIES_)
 2135              		.loc 1 529 0
 2136 0038 FA7C     		ldrb	r2, [r7, #19]	@ zero_extendqisi2
 2137 003a BB7C     		ldrb	r3, [r7, #18]	@ zero_extendqisi2
 2138 003c 9A42     		cmp	r2, r3
 2139 003e 0FD0     		beq	.L90
 2140              		.loc 1 529 0 is_stmt 0 discriminator 1
 2141 0040 7B69     		ldr	r3, [r7, #20]
 2142 0042 5B78     		ldrb	r3, [r3, #1]
ARM GAS  C:\Users\RECEPC~1\AppData\Local\Temp\ccEI1MLs.s 			page 48


 2143 0044 DBB2     		uxtb	r3, r3
 2144 0046 132B     		cmp	r3, #19
 2145 0048 0AD8     		bhi	.L90
 530:.\PrimeImpl.c ****         {
 531:.\PrimeImpl.c ****             pjob->_reenqueuecounter++;
 2146              		.loc 1 531 0 is_stmt 1
 2147 004a 7B69     		ldr	r3, [r7, #20]
 2148 004c 5B78     		ldrb	r3, [r3, #1]
 2149 004e DBB2     		uxtb	r3, r3
 2150 0050 0133     		adds	r3, r3, #1
 2151 0052 DAB2     		uxtb	r2, r3
 2152 0054 7B69     		ldr	r3, [r7, #20]
 2153 0056 5A70     		strb	r2, [r3, #1]
 532:.\PrimeImpl.c ****             pjob->_reenqueue = true;
 2154              		.loc 1 532 0
 2155 0058 7B69     		ldr	r3, [r7, #20]
 2156 005a 0122     		movs	r2, #1
 2157 005c 1A70     		strb	r2, [r3]
 533:.\PrimeImpl.c ****             return;
 2158              		.loc 1 533 0
 2159 005e 85E0     		b	.L88
 2160              	.L90:
 534:.\PrimeImpl.c ****         }
 535:.\PrimeImpl.c ****         pjob->_reenqueue = false;
 2161              		.loc 1 535 0
 2162 0060 7B69     		ldr	r3, [r7, #20]
 2163 0062 0022     		movs	r2, #0
 2164 0064 1A70     		strb	r2, [r3]
 536:.\PrimeImpl.c ****         
 537:.\PrimeImpl.c ****         pjob->_ppump->PumpTransQueueLock(pjob->_ppump);
 2165              		.loc 1 537 0
 2166 0066 7B69     		ldr	r3, [r7, #20]
 2167 0068 DB69     		ldr	r3, [r3, #28]
 2168 006a D3F8143B 		ldr	r3, [r3, #2836]
 2169 006e 7A69     		ldr	r2, [r7, #20]
 2170 0070 D269     		ldr	r2, [r2, #28]
 2171 0072 1046     		mov	r0, r2
 2172 0074 9847     		blx	r3
 538:.\PrimeImpl.c ****         bool transtatefound = pjob->_ppump->PumpTransQueueFind(pjob->_ppump, RF_MUX_TOTALS_REPORT_R
 2173              		.loc 1 538 0
 2174 0076 7B69     		ldr	r3, [r7, #20]
 2175 0078 DB69     		ldr	r3, [r3, #28]
 2176 007a D3F81C3B 		ldr	r3, [r3, #2844]
 2177 007e 7A69     		ldr	r2, [r7, #20]
 2178 0080 D269     		ldr	r2, [r2, #28]
 2179 0082 1046     		mov	r0, r2
 2180 0084 E821     		movs	r1, #232
 2181 0086 9847     		blx	r3
 2182 0088 0346     		mov	r3, r0
 2183 008a 7B74     		strb	r3, [r7, #17]
 539:.\PrimeImpl.c ****         PNEAR_PUMPTRANSACTIONALSTATEPTR pts = pjob->_ppump->PumpTransQueueAllocate(pjob->_ppump);
 2184              		.loc 1 539 0
 2185 008c 7B69     		ldr	r3, [r7, #20]
 2186 008e DB69     		ldr	r3, [r3, #28]
 2187 0090 D3F8283B 		ldr	r3, [r3, #2856]
 2188 0094 7A69     		ldr	r2, [r7, #20]
 2189 0096 D269     		ldr	r2, [r2, #28]
ARM GAS  C:\Users\RECEPC~1\AppData\Local\Temp\ccEI1MLs.s 			page 49


 2190 0098 1046     		mov	r0, r2
 2191 009a 9847     		blx	r3
 2192 009c F860     		str	r0, [r7, #12]
 540:.\PrimeImpl.c ****         pjob->_ppump->PumpTransQueueUnlock(pjob->_ppump);
 2193              		.loc 1 540 0
 2194 009e 7B69     		ldr	r3, [r7, #20]
 2195 00a0 DB69     		ldr	r3, [r3, #28]
 2196 00a2 D3F8183B 		ldr	r3, [r3, #2840]
 2197 00a6 7A69     		ldr	r2, [r7, #20]
 2198 00a8 D269     		ldr	r2, [r2, #28]
 2199 00aa 1046     		mov	r0, r2
 2200 00ac 9847     		blx	r3
 541:.\PrimeImpl.c ****         if(pts && !transtatefound)
 2201              		.loc 1 541 0
 2202 00ae FB68     		ldr	r3, [r7, #12]
 2203 00b0 002B     		cmp	r3, #0
 2204 00b2 38D0     		beq	.L91
 2205              		.loc 1 541 0 is_stmt 0 discriminator 1
 2206 00b4 7B7C     		ldrb	r3, [r7, #17]
 2207 00b6 83F00103 		eor	r3, r3, #1
 2208 00ba DBB2     		uxtb	r3, r3
 2209 00bc 002B     		cmp	r3, #0
 2210 00be 32D0     		beq	.L91
 542:.\PrimeImpl.c ****         {
 543:.\PrimeImpl.c ****             pts->_transtate = RF_MUX_TOTALS_REPORT_RESPONSE;
 2211              		.loc 1 543 0 is_stmt 1
 2212 00c0 FB68     		ldr	r3, [r7, #12]
 2213 00c2 E822     		movs	r2, #232
 2214 00c4 5A70     		strb	r2, [r3, #1]
 544:.\PrimeImpl.c ****             
 545:.\PrimeImpl.c ****             memcpy(pts->_buffer, pjob->_ppump->_rxbuffer, pjob->_ppump->_rxbuffersize);
 2215              		.loc 1 545 0
 2216 00c6 FB68     		ldr	r3, [r7, #12]
 2217 00c8 991C     		adds	r1, r3, #2
 2218 00ca 7B69     		ldr	r3, [r7, #20]
 2219 00cc DB69     		ldr	r3, [r3, #28]
 2220 00ce 03F5C472 		add	r2, r3, #392
 2221 00d2 7B69     		ldr	r3, [r7, #20]
 2222 00d4 DB69     		ldr	r3, [r3, #28]
 2223 00d6 B3F8F032 		ldrh	r3, [r3, #752]
 2224 00da 0846     		mov	r0, r1
 2225 00dc 1146     		mov	r1, r2
 2226 00de 1A46     		mov	r2, r3
 2227 00e0 FFF7FEFF 		bl	memcpy
 546:.\PrimeImpl.c ****             pts->_buffersize = pjob->_ppump->_rxbuffersize;
 2228              		.loc 1 546 0
 2229 00e4 7B69     		ldr	r3, [r7, #20]
 2230 00e6 DB69     		ldr	r3, [r3, #28]
 2231 00e8 B3F8F022 		ldrh	r2, [r3, #752]
 2232 00ec FB68     		ldr	r3, [r7, #12]
 2233 00ee A3F80221 		strh	r2, [r3, #258]	@ movhi
 547:.\PrimeImpl.c ****             
 548:.\PrimeImpl.c ****             pjob->_ppump->PumpTransQueueLock(pjob->_ppump);
 2234              		.loc 1 548 0
 2235 00f2 7B69     		ldr	r3, [r7, #20]
 2236 00f4 DB69     		ldr	r3, [r3, #28]
 2237 00f6 D3F8143B 		ldr	r3, [r3, #2836]
ARM GAS  C:\Users\RECEPC~1\AppData\Local\Temp\ccEI1MLs.s 			page 50


 2238 00fa 7A69     		ldr	r2, [r7, #20]
 2239 00fc D269     		ldr	r2, [r2, #28]
 2240 00fe 1046     		mov	r0, r2
 2241 0100 9847     		blx	r3
 549:.\PrimeImpl.c ****             pjob->_ppump->PumpTransQueueEnqueue(pjob->_ppump, pts);
 2242              		.loc 1 549 0
 2243 0102 7B69     		ldr	r3, [r7, #20]
 2244 0104 DB69     		ldr	r3, [r3, #28]
 2245 0106 D3F8203B 		ldr	r3, [r3, #2848]
 2246 010a 7A69     		ldr	r2, [r7, #20]
 2247 010c D269     		ldr	r2, [r2, #28]
 2248 010e 1046     		mov	r0, r2
 2249 0110 F968     		ldr	r1, [r7, #12]
 2250 0112 9847     		blx	r3
 550:.\PrimeImpl.c ****             pjob->_ppump->PumpTransQueueUnlock(pjob->_ppump);
 2251              		.loc 1 550 0
 2252 0114 7B69     		ldr	r3, [r7, #20]
 2253 0116 DB69     		ldr	r3, [r3, #28]
 2254 0118 D3F8183B 		ldr	r3, [r3, #2840]
 2255 011c 7A69     		ldr	r2, [r7, #20]
 2256 011e D269     		ldr	r2, [r2, #28]
 2257 0120 1046     		mov	r0, r2
 2258 0122 9847     		blx	r3
 2259 0124 18E0     		b	.L92
 2260              	.L91:
 551:.\PrimeImpl.c ****         }
 552:.\PrimeImpl.c ****         else
 553:.\PrimeImpl.c ****         {
 554:.\PrimeImpl.c ****             pjob->_ppump->PumpTransQueueLock(pjob->_ppump);
 2261              		.loc 1 554 0
 2262 0126 7B69     		ldr	r3, [r7, #20]
 2263 0128 DB69     		ldr	r3, [r3, #28]
 2264 012a D3F8143B 		ldr	r3, [r3, #2836]
 2265 012e 7A69     		ldr	r2, [r7, #20]
 2266 0130 D269     		ldr	r2, [r2, #28]
 2267 0132 1046     		mov	r0, r2
 2268 0134 9847     		blx	r3
 555:.\PrimeImpl.c ****             pjob->_ppump->PumpTransQueueDeallocate(pjob->_ppump, pts);
 2269              		.loc 1 555 0
 2270 0136 7B69     		ldr	r3, [r7, #20]
 2271 0138 DB69     		ldr	r3, [r3, #28]
 2272 013a D3F8243B 		ldr	r3, [r3, #2852]
 2273 013e 7A69     		ldr	r2, [r7, #20]
 2274 0140 D269     		ldr	r2, [r2, #28]
 2275 0142 1046     		mov	r0, r2
 2276 0144 F968     		ldr	r1, [r7, #12]
 2277 0146 9847     		blx	r3
 556:.\PrimeImpl.c ****             pjob->_ppump->PumpTransQueueUnlock(pjob->_ppump);
 2278              		.loc 1 556 0
 2279 0148 7B69     		ldr	r3, [r7, #20]
 2280 014a DB69     		ldr	r3, [r3, #28]
 2281 014c D3F8183B 		ldr	r3, [r3, #2840]
 2282 0150 7A69     		ldr	r2, [r7, #20]
 2283 0152 D269     		ldr	r2, [r2, #28]
 2284 0154 1046     		mov	r0, r2
 2285 0156 9847     		blx	r3
 2286              	.L92:
ARM GAS  C:\Users\RECEPC~1\AppData\Local\Temp\ccEI1MLs.s 			page 51


 557:.\PrimeImpl.c ****         }
 558:.\PrimeImpl.c ****         memset(pjob->_ppump->_rxbuffer, 0x00, _PUMP_RX_BUFFER_SIZE_);
 2287              		.loc 1 558 0
 2288 0158 7B69     		ldr	r3, [r7, #20]
 2289 015a DB69     		ldr	r3, [r3, #28]
 2290 015c 03F5C473 		add	r3, r3, #392
 2291 0160 1846     		mov	r0, r3
 2292 0162 0021     		movs	r1, #0
 2293 0164 4FF4B472 		mov	r2, #360
 2294 0168 FFF7FEFF 		bl	memset
 2295              	.L88:
 2296              	.LBE7:
 559:.\PrimeImpl.c ****     }
 560:.\PrimeImpl.c **** }
 2297              		.loc 1 560 0
 2298 016c 1837     		adds	r7, r7, #24
 2299              		.cfi_def_cfa_offset 8
 2300 016e BD46     		mov	sp, r7
 2301              		.cfi_def_cfa_register 13
 2302              		@ sp needed
 2303 0170 80BD     		pop	{r7, pc}
 2304              		.cfi_endproc
 2305              	.LFE71:
 2306              		.size	ProcessPumpTotalsDataReport, .-ProcessPumpTotalsDataReport
 2307 0172 00BF     		.section	.text.ProcessPumpTotalsDataPpuCheck,"ax",%progbits
 2308              		.align	2
 2309              		.global	ProcessPumpTotalsDataPpuCheck
 2310              		.thumb
 2311              		.thumb_func
 2312              		.type	ProcessPumpTotalsDataPpuCheck, %function
 2313              	ProcessPumpTotalsDataPpuCheck:
 2314              	.LFB72:
 561:.\PrimeImpl.c **** 
 562:.\PrimeImpl.c **** //@Created By: HIJH
 563:.\PrimeImpl.c **** //@Septembre de 2016
 564:.\PrimeImpl.c **** void ProcessPumpTotalsDataPpuCheck(void *pparam)
 565:.\PrimeImpl.c **** {
 2315              		.loc 1 565 0
 2316              		.cfi_startproc
 2317              		@ args = 0, pretend = 0, frame = 16
 2318              		@ frame_needed = 1, uses_anonymous_args = 0
 2319 0000 80B5     		push	{r7, lr}
 2320              		.cfi_def_cfa_offset 8
 2321              		.cfi_offset 7, -8
 2322              		.cfi_offset 14, -4
 2323 0002 84B0     		sub	sp, sp, #16
 2324              		.cfi_def_cfa_offset 24
 2325 0004 00AF     		add	r7, sp, #0
 2326              		.cfi_def_cfa_register 7
 2327 0006 7860     		str	r0, [r7, #4]
 566:.\PrimeImpl.c ****     PPUMPTRANSACTIONJOBCONTEXTPTR pjob = (PPUMPTRANSACTIONJOBCONTEXTPTR)pparam;
 2328              		.loc 1 566 0
 2329 0008 7B68     		ldr	r3, [r7, #4]
 2330 000a FB60     		str	r3, [r7, #12]
 567:.\PrimeImpl.c ****     if(pjob)
 2331              		.loc 1 567 0
 2332 000c FB68     		ldr	r3, [r7, #12]
ARM GAS  C:\Users\RECEPC~1\AppData\Local\Temp\ccEI1MLs.s 			page 52


 2333 000e 002B     		cmp	r3, #0
 2334 0010 09D0     		beq	.L93
 568:.\PrimeImpl.c ****     {
 569:.\PrimeImpl.c **** /*        
 570:.\PrimeImpl.c ****         
 571:.\PrimeImpl.c ****         PNEAR_PUMPTRANSACTIONALSTATEPTR pts = pjob->_ppump->PumpTransQueueAllocate(pjob->_ppump);
 572:.\PrimeImpl.c ****         if(pts)
 573:.\PrimeImpl.c ****         {
 574:.\PrimeImpl.c ****             pts->_transtate = _PUMP_POSITION_TRANSREPORT_;
 575:.\PrimeImpl.c ****             memcpy(pts->_buffer, pjob->_ppump->_rxbuffer, pjob->_ppump->_rxbuffersize);
 576:.\PrimeImpl.c ****             pts->_buffersize = pjob->_ppump->_rxbuffersize;
 577:.\PrimeImpl.c ****         }
 578:.\PrimeImpl.c ****         
 579:.\PrimeImpl.c ****         
 580:.\PrimeImpl.c ****         uint8 var = 0;//THIS IS A DUMMY VAR TO DROP THE WARNING IF THERE IS NO ASSIGNMENT!!
 581:.\PrimeImpl.c ****         uint8 index = 0;
 582:.\PrimeImpl.c ****         //All indexes were taken according to the documentation
 583:.\PrimeImpl.c ****         var = (pjob->_ppump->_rxbuffer[0x02 + _PUMP_TOTALS_BUFFER_SHIFT_*index] & 0x0F);//Hose id
 584:.\PrimeImpl.c **** 
 585:.\PrimeImpl.c ****         //Bytes from index 0x04 + _PUMP_TOTALS_BUFFER_SHIFT_*index to 0x0F + _PUMP_TOTALS_BUFFER_SH
 586:.\PrimeImpl.c ****         //are the digits for the total fuel volume delivered until now on this pump
 587:.\PrimeImpl.c ****         //Digits are in BCD format
 588:.\PrimeImpl.c ****         var = (pjob->_ppump->_rxbuffer[0x04 + _PUMP_TOTALS_BUFFER_SHIFT_*index] & 0x0F);
 589:.\PrimeImpl.c ****         var = (pjob->_ppump->_rxbuffer[0x05 + _PUMP_TOTALS_BUFFER_SHIFT_*index] & 0x0F);
 590:.\PrimeImpl.c ****         var = (pjob->_ppump->_rxbuffer[0x06 + _PUMP_TOTALS_BUFFER_SHIFT_*index] & 0x0F);
 591:.\PrimeImpl.c ****         var = (pjob->_ppump->_rxbuffer[0x07 + _PUMP_TOTALS_BUFFER_SHIFT_*index] & 0x0F);
 592:.\PrimeImpl.c ****         var = (pjob->_ppump->_rxbuffer[0x08 + _PUMP_TOTALS_BUFFER_SHIFT_*index] & 0x0F);
 593:.\PrimeImpl.c ****         var = (pjob->_ppump->_rxbuffer[0x09 + _PUMP_TOTALS_BUFFER_SHIFT_*index] & 0x0F);
 594:.\PrimeImpl.c ****         var = (pjob->_ppump->_rxbuffer[0x0A + _PUMP_TOTALS_BUFFER_SHIFT_*index] & 0x0F);
 595:.\PrimeImpl.c ****         var = (pjob->_ppump->_rxbuffer[0x0B + _PUMP_TOTALS_BUFFER_SHIFT_*index] & 0x0F);
 596:.\PrimeImpl.c ****         var = (pjob->_ppump->_rxbuffer[0x0C + _PUMP_TOTALS_BUFFER_SHIFT_*index] & 0x0F);
 597:.\PrimeImpl.c ****         var = (pjob->_ppump->_rxbuffer[0x0D + _PUMP_TOTALS_BUFFER_SHIFT_*index] & 0x0F);
 598:.\PrimeImpl.c ****         var = (pjob->_ppump->_rxbuffer[0x0E + _PUMP_TOTALS_BUFFER_SHIFT_*index] & 0x0F);
 599:.\PrimeImpl.c ****         var = (pjob->_ppump->_rxbuffer[0x0F + _PUMP_TOTALS_BUFFER_SHIFT_*index] & 0x0F);
 600:.\PrimeImpl.c **** 
 601:.\PrimeImpl.c ****         //Bytes from index 0x11 + _PUMP_TOTALS_BUFFER_SHIFT_*index to 0x1C + _PUMP_TOTALS_BUFFER_SH
 602:.\PrimeImpl.c ****         //are the digits for the total money charged until now on this pump
 603:.\PrimeImpl.c ****         //Digits are in BCD format
 604:.\PrimeImpl.c ****         var = (pjob->_ppump->_rxbuffer[0x11 + _PUMP_TOTALS_BUFFER_SHIFT_*index] & 0x0F);
 605:.\PrimeImpl.c ****         var = (pjob->_ppump->_rxbuffer[0x12 + _PUMP_TOTALS_BUFFER_SHIFT_*index] & 0x0F);
 606:.\PrimeImpl.c ****         var = (pjob->_ppump->_rxbuffer[0x13 + _PUMP_TOTALS_BUFFER_SHIFT_*index] & 0x0F);
 607:.\PrimeImpl.c ****         var = (pjob->_ppump->_rxbuffer[0x14 + _PUMP_TOTALS_BUFFER_SHIFT_*index] & 0x0F);
 608:.\PrimeImpl.c ****         var = (pjob->_ppump->_rxbuffer[0x15 + _PUMP_TOTALS_BUFFER_SHIFT_*index] & 0x0F);
 609:.\PrimeImpl.c ****         var = (pjob->_ppump->_rxbuffer[0x16 + _PUMP_TOTALS_BUFFER_SHIFT_*index] & 0x0F);
 610:.\PrimeImpl.c ****         var = (pjob->_ppump->_rxbuffer[0x17 + _PUMP_TOTALS_BUFFER_SHIFT_*index] & 0x0F);
 611:.\PrimeImpl.c ****         var = (pjob->_ppump->_rxbuffer[0x18 + _PUMP_TOTALS_BUFFER_SHIFT_*index] & 0x0F);
 612:.\PrimeImpl.c ****         var = (pjob->_ppump->_rxbuffer[0x19 + _PUMP_TOTALS_BUFFER_SHIFT_*index] & 0x0F);
 613:.\PrimeImpl.c ****         var = (pjob->_ppump->_rxbuffer[0x1A + _PUMP_TOTALS_BUFFER_SHIFT_*index] & 0x0F);
 614:.\PrimeImpl.c ****         var = (pjob->_ppump->_rxbuffer[0x1B + _PUMP_TOTALS_BUFFER_SHIFT_*index] & 0x0F);
 615:.\PrimeImpl.c ****         var = (pjob->_ppump->_rxbuffer[0x1C + _PUMP_TOTALS_BUFFER_SHIFT_*index] & 0x0F);
 616:.\PrimeImpl.c ****         
 617:.\PrimeImpl.c ****         //Bytes from index 0x1E + _PUMP_TOTALS_BUFFER_SHIFT_*index to 0x23 + _PUMP_TOTALS_BUFFER_SH
 618:.\PrimeImpl.c ****         //are the digits for the reference PPU used on this pump/hose
 619:.\PrimeImpl.c ****         //Digits are in BCD format
 620:.\PrimeImpl.c ****         var = (pjob->_ppump->_rxbuffer[0x1E + _PUMP_TOTALS_BUFFER_SHIFT_*index] & 0x0F);
 621:.\PrimeImpl.c ****         var = (pjob->_ppump->_rxbuffer[0x1F + _PUMP_TOTALS_BUFFER_SHIFT_*index] & 0x0F);
 622:.\PrimeImpl.c ****         var = (pjob->_ppump->_rxbuffer[0x20 + _PUMP_TOTALS_BUFFER_SHIFT_*index] & 0x0F);
ARM GAS  C:\Users\RECEPC~1\AppData\Local\Temp\ccEI1MLs.s 			page 53


 623:.\PrimeImpl.c ****         var = (pjob->_ppump->_rxbuffer[0x21 + _PUMP_TOTALS_BUFFER_SHIFT_*index] & 0x0F);
 624:.\PrimeImpl.c ****         var = (pjob->_ppump->_rxbuffer[0x22 + _PUMP_TOTALS_BUFFER_SHIFT_*index] & 0x0F);
 625:.\PrimeImpl.c ****         var = (pjob->_ppump->_rxbuffer[0x23 + _PUMP_TOTALS_BUFFER_SHIFT_*index] & 0x0F);
 626:.\PrimeImpl.c **** */        
 627:.\PrimeImpl.c ****         memset(pjob->_ppump->_rxbuffer, 0x00, _PUMP_RX_BUFFER_SIZE_);
 2335              		.loc 1 627 0
 2336 0012 FB68     		ldr	r3, [r7, #12]
 2337 0014 DB69     		ldr	r3, [r3, #28]
 2338 0016 03F5C473 		add	r3, r3, #392
 2339 001a 1846     		mov	r0, r3
 2340 001c 0021     		movs	r1, #0
 2341 001e 4FF4B472 		mov	r2, #360
 2342 0022 FFF7FEFF 		bl	memset
 2343              	.L93:
 628:.\PrimeImpl.c ****     }
 629:.\PrimeImpl.c **** }
 2344              		.loc 1 629 0
 2345 0026 1037     		adds	r7, r7, #16
 2346              		.cfi_def_cfa_offset 8
 2347 0028 BD46     		mov	sp, r7
 2348              		.cfi_def_cfa_register 13
 2349              		@ sp needed
 2350 002a 80BD     		pop	{r7, pc}
 2351              		.cfi_endproc
 2352              	.LFE72:
 2353              		.size	ProcessPumpTotalsDataPpuCheck, .-ProcessPumpTotalsDataPpuCheck
 2354              		.section	.text.PumpJobTimeout,"ax",%progbits
 2355              		.align	2
 2356              		.global	PumpJobTimeout
 2357              		.thumb
 2358              		.thumb_func
 2359              		.type	PumpJobTimeout, %function
 2360              	PumpJobTimeout:
 2361              	.LFB73:
 630:.\PrimeImpl.c **** 
 631:.\PrimeImpl.c **** //@Created By: HIJH
 632:.\PrimeImpl.c **** //@Date: Septembre de 2016
 633:.\PrimeImpl.c **** //This must be used to notify the log registry about the timeout issue
 634:.\PrimeImpl.c **** void PumpJobTimeout(void *pparam)
 635:.\PrimeImpl.c **** {
 2362              		.loc 1 635 0
 2363              		.cfi_startproc
 2364              		@ args = 0, pretend = 0, frame = 16
 2365              		@ frame_needed = 1, uses_anonymous_args = 0
 2366              		@ link register save eliminated.
 2367 0000 80B4     		push	{r7}
 2368              		.cfi_def_cfa_offset 4
 2369              		.cfi_offset 7, -4
 2370 0002 85B0     		sub	sp, sp, #20
 2371              		.cfi_def_cfa_offset 24
 2372 0004 00AF     		add	r7, sp, #0
 2373              		.cfi_def_cfa_register 7
 2374 0006 7860     		str	r0, [r7, #4]
 636:.\PrimeImpl.c ****     PPUMPTRANSACTIONJOBCONTEXTPTR pjob = (PPUMPTRANSACTIONJOBCONTEXTPTR)pparam;
 2375              		.loc 1 636 0
 2376 0008 7B68     		ldr	r3, [r7, #4]
 2377 000a FB60     		str	r3, [r7, #12]
ARM GAS  C:\Users\RECEPC~1\AppData\Local\Temp\ccEI1MLs.s 			page 54


 637:.\PrimeImpl.c ****     if(pjob)
 2378              		.loc 1 637 0
 2379 000c FB68     		ldr	r3, [r7, #12]
 2380 000e 002B     		cmp	r3, #0
 2381 0010 0CD0     		beq	.L95
 638:.\PrimeImpl.c ****     {
 639:.\PrimeImpl.c ****         //Release the Current Loop and log if possible
 640:.\PrimeImpl.c ****         if(pjob->_retriescounter >= _MAX_RETRIES_)
 2382              		.loc 1 640 0
 2383 0012 FB68     		ldr	r3, [r7, #12]
 2384 0014 DB89     		ldrh	r3, [r3, #14]	@ movhi
 2385 0016 9BB2     		uxth	r3, r3
 2386 0018 132B     		cmp	r3, #19
 2387 001a 07D9     		bls	.L95
 641:.\PrimeImpl.c ****         {
 642:.\PrimeImpl.c ****             pjob->_ppump->_pumpstate = PUMP_UNKNOWN;
 2388              		.loc 1 642 0
 2389 001c FB68     		ldr	r3, [r7, #12]
 2390 001e DB69     		ldr	r3, [r3, #28]
 2391 0020 FF22     		movs	r2, #255
 2392 0022 9A70     		strb	r2, [r3, #2]
 643:.\PrimeImpl.c ****             pjob->_ppump->_transhealth = _PUMP_FAIL_;
 2393              		.loc 1 643 0
 2394 0024 FB68     		ldr	r3, [r7, #12]
 2395 0026 DB69     		ldr	r3, [r3, #28]
 2396 0028 0222     		movs	r2, #2
 2397 002a 1A76     		strb	r2, [r3, #24]
 2398              	.L95:
 644:.\PrimeImpl.c ****         }
 645:.\PrimeImpl.c ****     }
 646:.\PrimeImpl.c **** }
 2399              		.loc 1 646 0
 2400 002c 1437     		adds	r7, r7, #20
 2401              		.cfi_def_cfa_offset 4
 2402 002e BD46     		mov	sp, r7
 2403              		.cfi_def_cfa_register 13
 2404              		@ sp needed
 2405 0030 5DF8047B 		ldr	r7, [sp], #4
 2406              		.cfi_restore 7
 2407              		.cfi_def_cfa_offset 0
 2408 0034 7047     		bx	lr
 2409              		.cfi_endproc
 2410              	.LFE73:
 2411              		.size	PumpJobTimeout, .-PumpJobTimeout
 2412 0036 00BF     		.section	.text.PumpStateJobTimeout,"ax",%progbits
 2413              		.align	2
 2414              		.global	PumpStateJobTimeout
 2415              		.thumb
 2416              		.thumb_func
 2417              		.type	PumpStateJobTimeout, %function
 2418              	PumpStateJobTimeout:
 2419              	.LFB74:
 647:.\PrimeImpl.c **** 
 648:.\PrimeImpl.c **** //@Created By: HIJH
 649:.\PrimeImpl.c **** //@Date: Septembre de 2016
 650:.\PrimeImpl.c **** //This must be used to notify the log registry about the timeout issue
 651:.\PrimeImpl.c **** void PumpStateJobTimeout(void *pparam)
ARM GAS  C:\Users\RECEPC~1\AppData\Local\Temp\ccEI1MLs.s 			page 55


 652:.\PrimeImpl.c **** {
 2420              		.loc 1 652 0
 2421              		.cfi_startproc
 2422              		@ args = 0, pretend = 0, frame = 16
 2423              		@ frame_needed = 1, uses_anonymous_args = 0
 2424              		@ link register save eliminated.
 2425 0000 80B4     		push	{r7}
 2426              		.cfi_def_cfa_offset 4
 2427              		.cfi_offset 7, -4
 2428 0002 85B0     		sub	sp, sp, #20
 2429              		.cfi_def_cfa_offset 24
 2430 0004 00AF     		add	r7, sp, #0
 2431              		.cfi_def_cfa_register 7
 2432 0006 7860     		str	r0, [r7, #4]
 653:.\PrimeImpl.c ****     PPUMPTRANSACTIONJOBCONTEXTPTR pjob = (PPUMPTRANSACTIONJOBCONTEXTPTR)pparam;
 2433              		.loc 1 653 0
 2434 0008 7B68     		ldr	r3, [r7, #4]
 2435 000a FB60     		str	r3, [r7, #12]
 654:.\PrimeImpl.c ****     if(pjob)
 2436              		.loc 1 654 0
 2437 000c FB68     		ldr	r3, [r7, #12]
 2438 000e 002B     		cmp	r3, #0
 2439 0010 0CD0     		beq	.L97
 655:.\PrimeImpl.c ****     {
 656:.\PrimeImpl.c ****         //Release the Current Loop and log if possible
 657:.\PrimeImpl.c ****         if(pjob->_retriescounter >= _MAX_RETRIES_)
 2440              		.loc 1 657 0
 2441 0012 FB68     		ldr	r3, [r7, #12]
 2442 0014 DB89     		ldrh	r3, [r3, #14]	@ movhi
 2443 0016 9BB2     		uxth	r3, r3
 2444 0018 132B     		cmp	r3, #19
 2445 001a 07D9     		bls	.L97
 658:.\PrimeImpl.c ****         {
 659:.\PrimeImpl.c ****             pjob->_ppump->_pumpstate = PUMP_UNKNOWN;
 2446              		.loc 1 659 0
 2447 001c FB68     		ldr	r3, [r7, #12]
 2448 001e DB69     		ldr	r3, [r3, #28]
 2449 0020 FF22     		movs	r2, #255
 2450 0022 9A70     		strb	r2, [r3, #2]
 660:.\PrimeImpl.c ****             pjob->_ppump->_transhealth = _PUMP_FAIL_;
 2451              		.loc 1 660 0
 2452 0024 FB68     		ldr	r3, [r7, #12]
 2453 0026 DB69     		ldr	r3, [r3, #28]
 2454 0028 0222     		movs	r2, #2
 2455 002a 1A76     		strb	r2, [r3, #24]
 2456              	.L97:
 661:.\PrimeImpl.c ****         }
 662:.\PrimeImpl.c ****     }
 663:.\PrimeImpl.c **** }
 2457              		.loc 1 663 0
 2458 002c 1437     		adds	r7, r7, #20
 2459              		.cfi_def_cfa_offset 4
 2460 002e BD46     		mov	sp, r7
 2461              		.cfi_def_cfa_register 13
 2462              		@ sp needed
 2463 0030 5DF8047B 		ldr	r7, [sp], #4
 2464              		.cfi_restore 7
ARM GAS  C:\Users\RECEPC~1\AppData\Local\Temp\ccEI1MLs.s 			page 56


 2465              		.cfi_def_cfa_offset 0
 2466 0034 7047     		bx	lr
 2467              		.cfi_endproc
 2468              	.LFE74:
 2469              		.size	PumpStateJobTimeout, .-PumpStateJobTimeout
 2470 0036 00BF     		.section	.text.PumpAuthorization,"ax",%progbits
 2471              		.align	2
 2472              		.global	PumpAuthorization
 2473              		.thumb
 2474              		.thumb_func
 2475              		.type	PumpAuthorization, %function
 2476              	PumpAuthorization:
 2477              	.LFB75:
 664:.\PrimeImpl.c **** 
 665:.\PrimeImpl.c **** ///////////////////////////////////////////////////////////////////////////////////////////////////
 666:.\PrimeImpl.c **** //////////////////////                 BLOCK OF AVAILABLE REQUEST HANDLERS
 667:.\PrimeImpl.c **** ///////////////////////////////////////////////////////////////////////////////////////////////////
 668:.\PrimeImpl.c **** 
 669:.\PrimeImpl.c **** //@Created By: HIJH
 670:.\PrimeImpl.c **** //@Date: Septembre de 2016
 671:.\PrimeImpl.c **** //Sends the authorization request to the pump. This is a single byte command with no response
 672:.\PrimeImpl.c **** void PumpAuthorization(void *pparam)
 673:.\PrimeImpl.c **** {
 2478              		.loc 1 673 0
 2479              		.cfi_startproc
 2480              		@ args = 0, pretend = 0, frame = 24
 2481              		@ frame_needed = 1, uses_anonymous_args = 0
 2482 0000 80B5     		push	{r7, lr}
 2483              		.cfi_def_cfa_offset 8
 2484              		.cfi_offset 7, -8
 2485              		.cfi_offset 14, -4
 2486 0002 86B0     		sub	sp, sp, #24
 2487              		.cfi_def_cfa_offset 32
 2488 0004 00AF     		add	r7, sp, #0
 2489              		.cfi_def_cfa_register 7
 2490 0006 7860     		str	r0, [r7, #4]
 674:.\PrimeImpl.c ****     PNEAR_PUMPPTR ppump = (PNEAR_PUMPPTR)pparam;
 2491              		.loc 1 674 0
 2492 0008 7B68     		ldr	r3, [r7, #4]
 2493 000a 7B61     		str	r3, [r7, #20]
 675:.\PrimeImpl.c ****     if(ppump)
 2494              		.loc 1 675 0
 2495 000c 7B69     		ldr	r3, [r7, #20]
 2496 000e 002B     		cmp	r3, #0
 2497 0010 34D0     		beq	.L99
 2498              	.LBB8:
 676:.\PrimeImpl.c ****     {
 677:.\PrimeImpl.c ****         
 678:.\PrimeImpl.c ****         if(!ppump->_presetdone)
 2499              		.loc 1 678 0
 2500 0012 7B69     		ldr	r3, [r7, #20]
 2501 0014 9B7A     		ldrb	r3, [r3, #10]
 2502 0016 DBB2     		uxtb	r3, r3
 2503 0018 83F00103 		eor	r3, r3, #1
 2504 001c DBB2     		uxtb	r3, r3
 2505 001e 002B     		cmp	r3, #0
 2506 0020 00D0     		beq	.L101
ARM GAS  C:\Users\RECEPC~1\AppData\Local\Temp\ccEI1MLs.s 			page 57


 679:.\PrimeImpl.c ****             return;
 2507              		.loc 1 679 0
 2508 0022 2BE0     		b	.L99
 2509              	.L101:
 680:.\PrimeImpl.c ****         
 681:.\PrimeImpl.c ****         uint8_t index = 0;
 2510              		.loc 1 681 0
 2511 0024 0023     		movs	r3, #0
 2512 0026 FB74     		strb	r3, [r7, #19]
 682:.\PrimeImpl.c ****         memset(ppump->_rxbuffer, 0x00, _PUMP_RX_BUFFER_SIZE_);
 2513              		.loc 1 682 0
 2514 0028 7B69     		ldr	r3, [r7, #20]
 2515 002a 03F5C473 		add	r3, r3, #392
 2516 002e 1846     		mov	r0, r3
 2517 0030 0021     		movs	r1, #0
 2518 0032 4FF4B472 		mov	r2, #360
 2519 0036 FFF7FEFF 		bl	memset
 683:.\PrimeImpl.c ****         PUARTMESSAGEPTR puartdisp = GetUARTMessageSlot(UART_DISPENSER);
 2520              		.loc 1 683 0
 2521 003a A220     		movs	r0, #162
 2522 003c FFF7FEFF 		bl	GetUARTMessageSlot
 2523 0040 F860     		str	r0, [r7, #12]
 684:.\PrimeImpl.c ****         if(puartdisp)
 2524              		.loc 1 684 0
 2525 0042 FB68     		ldr	r3, [r7, #12]
 2526 0044 002B     		cmp	r3, #0
 2527 0046 19D0     		beq	.L99
 685:.\PrimeImpl.c ****         {
 686:.\PrimeImpl.c ****             //Just one byte for the response
 687:.\PrimeImpl.c ****             puartdisp->_messagetx[index++] = PUMP_COMMAND(PUMP_AUTHORIZATION, ppump->_pumpid);
 2528              		.loc 1 687 0
 2529 0048 FB7C     		ldrb	r3, [r7, #19]	@ zero_extendqisi2
 2530 004a 5A1C     		adds	r2, r3, #1
 2531 004c FA74     		strb	r2, [r7, #19]
 2532 004e 1946     		mov	r1, r3
 2533 0050 7B69     		ldr	r3, [r7, #20]
 2534 0052 1B78     		ldrb	r3, [r3]	@ zero_extendqisi2
 2535 0054 DBB2     		uxtb	r3, r3
 2536 0056 03F00F03 		and	r3, r3, #15
 2537 005a DBB2     		uxtb	r3, r3
 2538 005c 43F01003 		orr	r3, r3, #16
 2539 0060 DBB2     		uxtb	r3, r3
 2540 0062 DAB2     		uxtb	r2, r3
 2541 0064 FB68     		ldr	r3, [r7, #12]
 2542 0066 0B44     		add	r3, r3, r1
 2543 0068 1A71     		strb	r2, [r3, #4]
 688:.\PrimeImpl.c ****             puartdisp->_messagelength = 1;//One byte
 2544              		.loc 1 688 0
 2545 006a FB68     		ldr	r3, [r7, #12]
 2546 006c 0122     		movs	r2, #1
 2547 006e 5A80     		strh	r2, [r3, #2]	@ movhi
 689:.\PrimeImpl.c ****             puartdisp->_messagestate = PENDING;
 2548              		.loc 1 689 0
 2549 0070 FB68     		ldr	r3, [r7, #12]
 2550 0072 C222     		movs	r2, #194
 2551 0074 1A70     		strb	r2, [r3]
 690:.\PrimeImpl.c ****             
ARM GAS  C:\Users\RECEPC~1\AppData\Local\Temp\ccEI1MLs.s 			page 58


 691:.\PrimeImpl.c ****             ppump->_authorized = true;
 2552              		.loc 1 691 0
 2553 0076 7B69     		ldr	r3, [r7, #20]
 2554 0078 0122     		movs	r2, #1
 2555 007a 1A72     		strb	r2, [r3, #8]
 2556              	.L99:
 2557              	.LBE8:
 692:.\PrimeImpl.c ****         }
 693:.\PrimeImpl.c ****     }
 694:.\PrimeImpl.c **** }
 2558              		.loc 1 694 0
 2559 007c 1837     		adds	r7, r7, #24
 2560              		.cfi_def_cfa_offset 8
 2561 007e BD46     		mov	sp, r7
 2562              		.cfi_def_cfa_register 13
 2563              		@ sp needed
 2564 0080 80BD     		pop	{r7, pc}
 2565              		.cfi_endproc
 2566              	.LFE75:
 2567              		.size	PumpAuthorization, .-PumpAuthorization
 2568 0082 00BF     		.section	.text.PumpStartupAuthorization,"ax",%progbits
 2569              		.align	2
 2570              		.global	PumpStartupAuthorization
 2571              		.thumb
 2572              		.thumb_func
 2573              		.type	PumpStartupAuthorization, %function
 2574              	PumpStartupAuthorization:
 2575              	.LFB76:
 695:.\PrimeImpl.c **** 
 696:.\PrimeImpl.c **** //@Created By: HIJH
 697:.\PrimeImpl.c **** //@Date: Septembre de 2016
 698:.\PrimeImpl.c **** //Sends the authorization request to the pump. This is a single byte command with no response
 699:.\PrimeImpl.c **** void PumpStartupAuthorization(void *pparam)
 700:.\PrimeImpl.c **** {
 2576              		.loc 1 700 0
 2577              		.cfi_startproc
 2578              		@ args = 0, pretend = 0, frame = 24
 2579              		@ frame_needed = 1, uses_anonymous_args = 0
 2580 0000 80B5     		push	{r7, lr}
 2581              		.cfi_def_cfa_offset 8
 2582              		.cfi_offset 7, -8
 2583              		.cfi_offset 14, -4
 2584 0002 86B0     		sub	sp, sp, #24
 2585              		.cfi_def_cfa_offset 32
 2586 0004 00AF     		add	r7, sp, #0
 2587              		.cfi_def_cfa_register 7
 2588 0006 7860     		str	r0, [r7, #4]
 701:.\PrimeImpl.c ****     PNEAR_PUMPPTR ppump = (PNEAR_PUMPPTR)pparam;
 2589              		.loc 1 701 0
 2590 0008 7B68     		ldr	r3, [r7, #4]
 2591 000a 7B61     		str	r3, [r7, #20]
 702:.\PrimeImpl.c ****     if(ppump)
 2592              		.loc 1 702 0
 2593 000c 7B69     		ldr	r3, [r7, #20]
 2594 000e 002B     		cmp	r3, #0
 2595 0010 2BD0     		beq	.L102
 2596              	.LBB9:
ARM GAS  C:\Users\RECEPC~1\AppData\Local\Temp\ccEI1MLs.s 			page 59


 703:.\PrimeImpl.c ****     {                
 704:.\PrimeImpl.c ****         uint8_t index = 0;
 2597              		.loc 1 704 0
 2598 0012 0023     		movs	r3, #0
 2599 0014 FB74     		strb	r3, [r7, #19]
 705:.\PrimeImpl.c ****         memset(ppump->_rxbuffer, 0x00, _PUMP_RX_BUFFER_SIZE_);
 2600              		.loc 1 705 0
 2601 0016 7B69     		ldr	r3, [r7, #20]
 2602 0018 03F5C473 		add	r3, r3, #392
 2603 001c 1846     		mov	r0, r3
 2604 001e 0021     		movs	r1, #0
 2605 0020 4FF4B472 		mov	r2, #360
 2606 0024 FFF7FEFF 		bl	memset
 706:.\PrimeImpl.c ****         PUARTMESSAGEPTR puartdisp = GetUARTMessageSlot(UART_DISPENSER);
 2607              		.loc 1 706 0
 2608 0028 A220     		movs	r0, #162
 2609 002a FFF7FEFF 		bl	GetUARTMessageSlot
 2610 002e F860     		str	r0, [r7, #12]
 707:.\PrimeImpl.c ****         if(puartdisp)
 2611              		.loc 1 707 0
 2612 0030 FB68     		ldr	r3, [r7, #12]
 2613 0032 002B     		cmp	r3, #0
 2614 0034 16D0     		beq	.L104
 708:.\PrimeImpl.c ****         {
 709:.\PrimeImpl.c ****             //Just one byte for the response
 710:.\PrimeImpl.c ****             puartdisp->_messagetx[index++] = PUMP_COMMAND(PUMP_AUTHORIZATION, ppump->_pumpid);
 2615              		.loc 1 710 0
 2616 0036 FB7C     		ldrb	r3, [r7, #19]	@ zero_extendqisi2
 2617 0038 5A1C     		adds	r2, r3, #1
 2618 003a FA74     		strb	r2, [r7, #19]
 2619 003c 1946     		mov	r1, r3
 2620 003e 7B69     		ldr	r3, [r7, #20]
 2621 0040 1B78     		ldrb	r3, [r3]	@ zero_extendqisi2
 2622 0042 DBB2     		uxtb	r3, r3
 2623 0044 03F00F03 		and	r3, r3, #15
 2624 0048 DBB2     		uxtb	r3, r3
 2625 004a 43F01003 		orr	r3, r3, #16
 2626 004e DBB2     		uxtb	r3, r3
 2627 0050 DAB2     		uxtb	r2, r3
 2628 0052 FB68     		ldr	r3, [r7, #12]
 2629 0054 0B44     		add	r3, r3, r1
 2630 0056 1A71     		strb	r2, [r3, #4]
 711:.\PrimeImpl.c ****             puartdisp->_messagelength = 1;//One byte
 2631              		.loc 1 711 0
 2632 0058 FB68     		ldr	r3, [r7, #12]
 2633 005a 0122     		movs	r2, #1
 2634 005c 5A80     		strh	r2, [r3, #2]	@ movhi
 712:.\PrimeImpl.c ****             puartdisp->_messagestate = PENDING;
 2635              		.loc 1 712 0
 2636 005e FB68     		ldr	r3, [r7, #12]
 2637 0060 C222     		movs	r2, #194
 2638 0062 1A70     		strb	r2, [r3]
 2639              	.L104:
 713:.\PrimeImpl.c ****             
 714:.\PrimeImpl.c ****         }
 715:.\PrimeImpl.c ****         CyDelay(100);
 2640              		.loc 1 715 0
ARM GAS  C:\Users\RECEPC~1\AppData\Local\Temp\ccEI1MLs.s 			page 60


 2641 0064 6420     		movs	r0, #100
 2642 0066 FFF7FEFF 		bl	CyDelay
 2643              	.L102:
 2644              	.LBE9:
 716:.\PrimeImpl.c ****     }
 717:.\PrimeImpl.c **** }
 2645              		.loc 1 717 0
 2646 006a 1837     		adds	r7, r7, #24
 2647              		.cfi_def_cfa_offset 8
 2648 006c BD46     		mov	sp, r7
 2649              		.cfi_def_cfa_register 13
 2650              		@ sp needed
 2651 006e 80BD     		pop	{r7, pc}
 2652              		.cfi_endproc
 2653              	.LFE76:
 2654              		.size	PumpStartupAuthorization, .-PumpStartupAuthorization
 2655              		.section	.text.PumpStateRequest,"ax",%progbits
 2656              		.align	2
 2657              		.global	PumpStateRequest
 2658              		.thumb
 2659              		.thumb_func
 2660              		.type	PumpStateRequest, %function
 2661              	PumpStateRequest:
 2662              	.LFB77:
 718:.\PrimeImpl.c **** 
 719:.\PrimeImpl.c **** //@Created By: HIJH
 720:.\PrimeImpl.c **** //@Date: Septembre de 2016
 721:.\PrimeImpl.c **** //Sends the state request to the pump. This is a single byte command with one byte of response
 722:.\PrimeImpl.c **** void PumpStateRequest(void *pparam)
 723:.\PrimeImpl.c **** {
 2663              		.loc 1 723 0
 2664              		.cfi_startproc
 2665              		@ args = 0, pretend = 0, frame = 24
 2666              		@ frame_needed = 1, uses_anonymous_args = 0
 2667 0000 80B5     		push	{r7, lr}
 2668              		.cfi_def_cfa_offset 8
 2669              		.cfi_offset 7, -8
 2670              		.cfi_offset 14, -4
 2671 0002 86B0     		sub	sp, sp, #24
 2672              		.cfi_def_cfa_offset 32
 2673 0004 00AF     		add	r7, sp, #0
 2674              		.cfi_def_cfa_register 7
 2675 0006 7860     		str	r0, [r7, #4]
 724:.\PrimeImpl.c ****     PNEAR_PUMPPTR ppump = (PNEAR_PUMPPTR)pparam;
 2676              		.loc 1 724 0
 2677 0008 7B68     		ldr	r3, [r7, #4]
 2678 000a 7B61     		str	r3, [r7, #20]
 725:.\PrimeImpl.c ****     if(ppump)
 2679              		.loc 1 725 0
 2680 000c 7B69     		ldr	r3, [r7, #20]
 2681 000e 002B     		cmp	r3, #0
 2682 0010 23D0     		beq	.L105
 2683              	.LBB10:
 726:.\PrimeImpl.c ****     {
 727:.\PrimeImpl.c ****         uint8_t index = 0;
 2684              		.loc 1 727 0
 2685 0012 0023     		movs	r3, #0
ARM GAS  C:\Users\RECEPC~1\AppData\Local\Temp\ccEI1MLs.s 			page 61


 2686 0014 FB74     		strb	r3, [r7, #19]
 728:.\PrimeImpl.c ****         memset(ppump->_rxbuffer, 0x00, _PUMP_RX_BUFFER_SIZE_);
 2687              		.loc 1 728 0
 2688 0016 7B69     		ldr	r3, [r7, #20]
 2689 0018 03F5C473 		add	r3, r3, #392
 2690 001c 1846     		mov	r0, r3
 2691 001e 0021     		movs	r1, #0
 2692 0020 4FF4B472 		mov	r2, #360
 2693 0024 FFF7FEFF 		bl	memset
 729:.\PrimeImpl.c ****         PUARTMESSAGEPTR puartdisp = GetUARTMessageSlot(UART_DISPENSER);
 2694              		.loc 1 729 0
 2695 0028 A220     		movs	r0, #162
 2696 002a FFF7FEFF 		bl	GetUARTMessageSlot
 2697 002e F860     		str	r0, [r7, #12]
 730:.\PrimeImpl.c ****         if(puartdisp)
 2698              		.loc 1 730 0
 2699 0030 FB68     		ldr	r3, [r7, #12]
 2700 0032 002B     		cmp	r3, #0
 2701 0034 11D0     		beq	.L105
 731:.\PrimeImpl.c ****         {
 732:.\PrimeImpl.c ****             puartdisp->_messagetx[index++] = PUMP_COMMAND(PUMP_STATE_REQUEST, ppump->_pumpid);
 2702              		.loc 1 732 0
 2703 0036 FB7C     		ldrb	r3, [r7, #19]	@ zero_extendqisi2
 2704 0038 5A1C     		adds	r2, r3, #1
 2705 003a FA74     		strb	r2, [r7, #19]
 2706 003c 1946     		mov	r1, r3
 2707 003e 7B69     		ldr	r3, [r7, #20]
 2708 0040 1B78     		ldrb	r3, [r3]	@ zero_extendqisi2
 2709 0042 03F00F03 		and	r3, r3, #15
 2710 0046 DAB2     		uxtb	r2, r3
 2711 0048 FB68     		ldr	r3, [r7, #12]
 2712 004a 0B44     		add	r3, r3, r1
 2713 004c 1A71     		strb	r2, [r3, #4]
 733:.\PrimeImpl.c ****             puartdisp->_messagelength = 1;//One byte
 2714              		.loc 1 733 0
 2715 004e FB68     		ldr	r3, [r7, #12]
 2716 0050 0122     		movs	r2, #1
 2717 0052 5A80     		strh	r2, [r3, #2]	@ movhi
 734:.\PrimeImpl.c ****             puartdisp->_messagestate = PENDING;
 2718              		.loc 1 734 0
 2719 0054 FB68     		ldr	r3, [r7, #12]
 2720 0056 C222     		movs	r2, #194
 2721 0058 1A70     		strb	r2, [r3]
 2722              	.L105:
 2723              	.LBE10:
 735:.\PrimeImpl.c ****         }
 736:.\PrimeImpl.c ****     }
 737:.\PrimeImpl.c **** }
 2724              		.loc 1 737 0
 2725 005a 1837     		adds	r7, r7, #24
 2726              		.cfi_def_cfa_offset 8
 2727 005c BD46     		mov	sp, r7
 2728              		.cfi_def_cfa_register 13
 2729              		@ sp needed
 2730 005e 80BD     		pop	{r7, pc}
 2731              		.cfi_endproc
 2732              	.LFE77:
ARM GAS  C:\Users\RECEPC~1\AppData\Local\Temp\ccEI1MLs.s 			page 62


 2733              		.size	PumpStateRequest, .-PumpStateRequest
 2734              		.section	.text.PumpRTMoneyRequest,"ax",%progbits
 2735              		.align	2
 2736              		.global	PumpRTMoneyRequest
 2737              		.thumb
 2738              		.thumb_func
 2739              		.type	PumpRTMoneyRequest, %function
 2740              	PumpRTMoneyRequest:
 2741              	.LFB78:
 738:.\PrimeImpl.c **** 
 739:.\PrimeImpl.c **** //@Created By: HIJH
 740:.\PrimeImpl.c **** //@Date: Septembre de 2016
 741:.\PrimeImpl.c **** void PumpRTMoneyRequest(void *pparam)
 742:.\PrimeImpl.c **** {
 2742              		.loc 1 742 0
 2743              		.cfi_startproc
 2744              		@ args = 0, pretend = 0, frame = 24
 2745              		@ frame_needed = 1, uses_anonymous_args = 0
 2746 0000 80B5     		push	{r7, lr}
 2747              		.cfi_def_cfa_offset 8
 2748              		.cfi_offset 7, -8
 2749              		.cfi_offset 14, -4
 2750 0002 86B0     		sub	sp, sp, #24
 2751              		.cfi_def_cfa_offset 32
 2752 0004 00AF     		add	r7, sp, #0
 2753              		.cfi_def_cfa_register 7
 2754 0006 7860     		str	r0, [r7, #4]
 743:.\PrimeImpl.c ****     PNEAR_PUMPPTR ppump = (PNEAR_PUMPPTR)pparam;
 2755              		.loc 1 743 0
 2756 0008 7B68     		ldr	r3, [r7, #4]
 2757 000a 7B61     		str	r3, [r7, #20]
 744:.\PrimeImpl.c ****     if(ppump)
 2758              		.loc 1 744 0
 2759 000c 7B69     		ldr	r3, [r7, #20]
 2760 000e 002B     		cmp	r3, #0
 2761 0010 28D0     		beq	.L107
 2762              	.LBB11:
 745:.\PrimeImpl.c ****     {
 746:.\PrimeImpl.c ****         uint8_t index = 0;
 2763              		.loc 1 746 0
 2764 0012 0023     		movs	r3, #0
 2765 0014 FB74     		strb	r3, [r7, #19]
 747:.\PrimeImpl.c ****         memset(ppump->_rxbuffer, 0x00, _PUMP_RX_BUFFER_SIZE_);
 2766              		.loc 1 747 0
 2767 0016 7B69     		ldr	r3, [r7, #20]
 2768 0018 03F5C473 		add	r3, r3, #392
 2769 001c 1846     		mov	r0, r3
 2770 001e 0021     		movs	r1, #0
 2771 0020 4FF4B472 		mov	r2, #360
 2772 0024 FFF7FEFF 		bl	memset
 748:.\PrimeImpl.c ****         PUARTMESSAGEPTR puartdisp = GetUARTMessageSlot(UART_DISPENSER);
 2773              		.loc 1 748 0
 2774 0028 A220     		movs	r0, #162
 2775 002a FFF7FEFF 		bl	GetUARTMessageSlot
 2776 002e F860     		str	r0, [r7, #12]
 749:.\PrimeImpl.c ****         if(puartdisp)
 2777              		.loc 1 749 0
ARM GAS  C:\Users\RECEPC~1\AppData\Local\Temp\ccEI1MLs.s 			page 63


 2778 0030 FB68     		ldr	r3, [r7, #12]
 2779 0032 002B     		cmp	r3, #0
 2780 0034 16D0     		beq	.L107
 750:.\PrimeImpl.c ****         {
 751:.\PrimeImpl.c ****             puartdisp->_messagetx[index++] = PUMP_COMMAND(PUMP_REAL_TIME_MONEY_REQUEST, ppump->_pum
 2781              		.loc 1 751 0
 2782 0036 FB7C     		ldrb	r3, [r7, #19]	@ zero_extendqisi2
 2783 0038 5A1C     		adds	r2, r3, #1
 2784 003a FA74     		strb	r2, [r7, #19]
 2785 003c 1946     		mov	r1, r3
 2786 003e 7B69     		ldr	r3, [r7, #20]
 2787 0040 1B78     		ldrb	r3, [r3]	@ zero_extendqisi2
 2788 0042 DBB2     		uxtb	r3, r3
 2789 0044 03F00F03 		and	r3, r3, #15
 2790 0048 DBB2     		uxtb	r3, r3
 2791 004a 43F06003 		orr	r3, r3, #96
 2792 004e DBB2     		uxtb	r3, r3
 2793 0050 DAB2     		uxtb	r2, r3
 2794 0052 FB68     		ldr	r3, [r7, #12]
 2795 0054 0B44     		add	r3, r3, r1
 2796 0056 1A71     		strb	r2, [r3, #4]
 752:.\PrimeImpl.c ****             puartdisp->_messagelength = 1;//One byte
 2797              		.loc 1 752 0
 2798 0058 FB68     		ldr	r3, [r7, #12]
 2799 005a 0122     		movs	r2, #1
 2800 005c 5A80     		strh	r2, [r3, #2]	@ movhi
 753:.\PrimeImpl.c ****             puartdisp->_messagestate = PENDING;
 2801              		.loc 1 753 0
 2802 005e FB68     		ldr	r3, [r7, #12]
 2803 0060 C222     		movs	r2, #194
 2804 0062 1A70     		strb	r2, [r3]
 2805              	.L107:
 2806              	.LBE11:
 754:.\PrimeImpl.c ****         }
 755:.\PrimeImpl.c ****     }
 756:.\PrimeImpl.c **** }
 2807              		.loc 1 756 0
 2808 0064 1837     		adds	r7, r7, #24
 2809              		.cfi_def_cfa_offset 8
 2810 0066 BD46     		mov	sp, r7
 2811              		.cfi_def_cfa_register 13
 2812              		@ sp needed
 2813 0068 80BD     		pop	{r7, pc}
 2814              		.cfi_endproc
 2815              	.LFE78:
 2816              		.size	PumpRTMoneyRequest, .-PumpRTMoneyRequest
 2817 006a 00BF     		.section	.text.PumpRTHoseVolumeRequest,"ax",%progbits
 2818              		.align	2
 2819              		.global	PumpRTHoseVolumeRequest
 2820              		.thumb
 2821              		.thumb_func
 2822              		.type	PumpRTHoseVolumeRequest, %function
 2823              	PumpRTHoseVolumeRequest:
 2824              	.LFB79:
 757:.\PrimeImpl.c **** 
 758:.\PrimeImpl.c **** //@Created By: HIJH
 759:.\PrimeImpl.c **** //@Date: Septembre de 2016
ARM GAS  C:\Users\RECEPC~1\AppData\Local\Temp\ccEI1MLs.s 			page 64


 760:.\PrimeImpl.c **** void PumpRTHoseVolumeRequest(void *pparam)
 761:.\PrimeImpl.c **** {
 2825              		.loc 1 761 0
 2826              		.cfi_startproc
 2827              		@ args = 0, pretend = 0, frame = 24
 2828              		@ frame_needed = 1, uses_anonymous_args = 0
 2829 0000 80B5     		push	{r7, lr}
 2830              		.cfi_def_cfa_offset 8
 2831              		.cfi_offset 7, -8
 2832              		.cfi_offset 14, -4
 2833 0002 86B0     		sub	sp, sp, #24
 2834              		.cfi_def_cfa_offset 32
 2835 0004 00AF     		add	r7, sp, #0
 2836              		.cfi_def_cfa_register 7
 2837 0006 7860     		str	r0, [r7, #4]
 762:.\PrimeImpl.c ****     PNEAR_PUMPPTR ppump = (PNEAR_PUMPPTR)pparam;
 2838              		.loc 1 762 0
 2839 0008 7B68     		ldr	r3, [r7, #4]
 2840 000a 7B61     		str	r3, [r7, #20]
 763:.\PrimeImpl.c ****     if(ppump)
 2841              		.loc 1 763 0
 2842 000c 7B69     		ldr	r3, [r7, #20]
 2843 000e 002B     		cmp	r3, #0
 2844 0010 28D0     		beq	.L109
 2845              	.LBB12:
 764:.\PrimeImpl.c ****     {
 765:.\PrimeImpl.c ****         uint8_t index = 0;
 2846              		.loc 1 765 0
 2847 0012 0023     		movs	r3, #0
 2848 0014 FB74     		strb	r3, [r7, #19]
 766:.\PrimeImpl.c ****         memset(ppump->_rxbuffer, 0x00, _PUMP_RX_BUFFER_SIZE_);
 2849              		.loc 1 766 0
 2850 0016 7B69     		ldr	r3, [r7, #20]
 2851 0018 03F5C473 		add	r3, r3, #392
 2852 001c 1846     		mov	r0, r3
 2853 001e 0021     		movs	r1, #0
 2854 0020 4FF4B472 		mov	r2, #360
 2855 0024 FFF7FEFF 		bl	memset
 767:.\PrimeImpl.c ****         PUARTMESSAGEPTR puartdisp = GetUARTMessageSlot(UART_DISPENSER);
 2856              		.loc 1 767 0
 2857 0028 A220     		movs	r0, #162
 2858 002a FFF7FEFF 		bl	GetUARTMessageSlot
 2859 002e F860     		str	r0, [r7, #12]
 768:.\PrimeImpl.c ****         if(puartdisp)
 2860              		.loc 1 768 0
 2861 0030 FB68     		ldr	r3, [r7, #12]
 2862 0032 002B     		cmp	r3, #0
 2863 0034 16D0     		beq	.L109
 769:.\PrimeImpl.c ****         {
 770:.\PrimeImpl.c ****             puartdisp->_messagetx[index++] = PUMP_COMMAND(PUMP_REAL_TIME_HOSE_VOLUME_REQUEST, ppump
 2864              		.loc 1 770 0
 2865 0036 FB7C     		ldrb	r3, [r7, #19]	@ zero_extendqisi2
 2866 0038 5A1C     		adds	r2, r3, #1
 2867 003a FA74     		strb	r2, [r7, #19]
 2868 003c 1946     		mov	r1, r3
 2869 003e 7B69     		ldr	r3, [r7, #20]
 2870 0040 1B78     		ldrb	r3, [r3]	@ zero_extendqisi2
ARM GAS  C:\Users\RECEPC~1\AppData\Local\Temp\ccEI1MLs.s 			page 65


 2871 0042 DBB2     		uxtb	r3, r3
 2872 0044 03F00F03 		and	r3, r3, #15
 2873 0048 DBB2     		uxtb	r3, r3
 2874 004a 43F07003 		orr	r3, r3, #112
 2875 004e DBB2     		uxtb	r3, r3
 2876 0050 DAB2     		uxtb	r2, r3
 2877 0052 FB68     		ldr	r3, [r7, #12]
 2878 0054 0B44     		add	r3, r3, r1
 2879 0056 1A71     		strb	r2, [r3, #4]
 771:.\PrimeImpl.c ****             puartdisp->_messagelength = 1;//One byte
 2880              		.loc 1 771 0
 2881 0058 FB68     		ldr	r3, [r7, #12]
 2882 005a 0122     		movs	r2, #1
 2883 005c 5A80     		strh	r2, [r3, #2]	@ movhi
 772:.\PrimeImpl.c ****             puartdisp->_messagestate = PENDING;
 2884              		.loc 1 772 0
 2885 005e FB68     		ldr	r3, [r7, #12]
 2886 0060 C222     		movs	r2, #194
 2887 0062 1A70     		strb	r2, [r3]
 2888              	.L109:
 2889              	.LBE12:
 773:.\PrimeImpl.c ****         }
 774:.\PrimeImpl.c ****     }
 775:.\PrimeImpl.c **** }
 2890              		.loc 1 775 0
 2891 0064 1837     		adds	r7, r7, #24
 2892              		.cfi_def_cfa_offset 8
 2893 0066 BD46     		mov	sp, r7
 2894              		.cfi_def_cfa_register 13
 2895              		@ sp needed
 2896 0068 80BD     		pop	{r7, pc}
 2897              		.cfi_endproc
 2898              	.LFE79:
 2899              		.size	PumpRTHoseVolumeRequest, .-PumpRTHoseVolumeRequest
 2900 006a 00BF     		.section	.text.PumpTransactionDataRequest,"ax",%progbits
 2901              		.align	2
 2902              		.global	PumpTransactionDataRequest
 2903              		.thumb
 2904              		.thumb_func
 2905              		.type	PumpTransactionDataRequest, %function
 2906              	PumpTransactionDataRequest:
 2907              	.LFB80:
 776:.\PrimeImpl.c **** 
 777:.\PrimeImpl.c **** //@Created By: HIJH
 778:.\PrimeImpl.c **** //@Date: Septembre de 2016
 779:.\PrimeImpl.c **** //Requests the last transaction data to the pump. This is a single byte command with a fixed length
 780:.\PrimeImpl.c **** void PumpTransactionDataRequest(void *pparam)
 781:.\PrimeImpl.c **** {
 2908              		.loc 1 781 0
 2909              		.cfi_startproc
 2910              		@ args = 0, pretend = 0, frame = 24
 2911              		@ frame_needed = 1, uses_anonymous_args = 0
 2912 0000 80B5     		push	{r7, lr}
 2913              		.cfi_def_cfa_offset 8
 2914              		.cfi_offset 7, -8
 2915              		.cfi_offset 14, -4
 2916 0002 86B0     		sub	sp, sp, #24
ARM GAS  C:\Users\RECEPC~1\AppData\Local\Temp\ccEI1MLs.s 			page 66


 2917              		.cfi_def_cfa_offset 32
 2918 0004 00AF     		add	r7, sp, #0
 2919              		.cfi_def_cfa_register 7
 2920 0006 7860     		str	r0, [r7, #4]
 782:.\PrimeImpl.c ****     PNEAR_PUMPPTR ppump = (PNEAR_PUMPPTR)pparam;
 2921              		.loc 1 782 0
 2922 0008 7B68     		ldr	r3, [r7, #4]
 2923 000a 7B61     		str	r3, [r7, #20]
 783:.\PrimeImpl.c ****     if(ppump)
 2924              		.loc 1 783 0
 2925 000c 7B69     		ldr	r3, [r7, #20]
 2926 000e 002B     		cmp	r3, #0
 2927 0010 28D0     		beq	.L111
 2928              	.LBB13:
 784:.\PrimeImpl.c ****     {        
 785:.\PrimeImpl.c ****         uint8_t index = 0;
 2929              		.loc 1 785 0
 2930 0012 0023     		movs	r3, #0
 2931 0014 FB74     		strb	r3, [r7, #19]
 786:.\PrimeImpl.c ****         memset(ppump->_rxbuffer, 0x00, _PUMP_RX_BUFFER_SIZE_);
 2932              		.loc 1 786 0
 2933 0016 7B69     		ldr	r3, [r7, #20]
 2934 0018 03F5C473 		add	r3, r3, #392
 2935 001c 1846     		mov	r0, r3
 2936 001e 0021     		movs	r1, #0
 2937 0020 4FF4B472 		mov	r2, #360
 2938 0024 FFF7FEFF 		bl	memset
 787:.\PrimeImpl.c ****         PUARTMESSAGEPTR puartdisp = GetUARTMessageSlot(UART_DISPENSER);
 2939              		.loc 1 787 0
 2940 0028 A220     		movs	r0, #162
 2941 002a FFF7FEFF 		bl	GetUARTMessageSlot
 2942 002e F860     		str	r0, [r7, #12]
 788:.\PrimeImpl.c ****         if(puartdisp)
 2943              		.loc 1 788 0
 2944 0030 FB68     		ldr	r3, [r7, #12]
 2945 0032 002B     		cmp	r3, #0
 2946 0034 16D0     		beq	.L111
 789:.\PrimeImpl.c ****         {
 790:.\PrimeImpl.c ****             puartdisp->_messagetx[index++] = PUMP_COMMAND(PUMP_TRANSACTION_DATA_REQUEST, ppump->_pu
 2947              		.loc 1 790 0
 2948 0036 FB7C     		ldrb	r3, [r7, #19]	@ zero_extendqisi2
 2949 0038 5A1C     		adds	r2, r3, #1
 2950 003a FA74     		strb	r2, [r7, #19]
 2951 003c 1946     		mov	r1, r3
 2952 003e 7B69     		ldr	r3, [r7, #20]
 2953 0040 1B78     		ldrb	r3, [r3]	@ zero_extendqisi2
 2954 0042 DBB2     		uxtb	r3, r3
 2955 0044 03F00F03 		and	r3, r3, #15
 2956 0048 DBB2     		uxtb	r3, r3
 2957 004a 43F04003 		orr	r3, r3, #64
 2958 004e DBB2     		uxtb	r3, r3
 2959 0050 DAB2     		uxtb	r2, r3
 2960 0052 FB68     		ldr	r3, [r7, #12]
 2961 0054 0B44     		add	r3, r3, r1
 2962 0056 1A71     		strb	r2, [r3, #4]
 791:.\PrimeImpl.c ****             puartdisp->_messagelength = 1;//One byte
 2963              		.loc 1 791 0
ARM GAS  C:\Users\RECEPC~1\AppData\Local\Temp\ccEI1MLs.s 			page 67


 2964 0058 FB68     		ldr	r3, [r7, #12]
 2965 005a 0122     		movs	r2, #1
 2966 005c 5A80     		strh	r2, [r3, #2]	@ movhi
 792:.\PrimeImpl.c ****             puartdisp->_messagestate = PENDING;
 2967              		.loc 1 792 0
 2968 005e FB68     		ldr	r3, [r7, #12]
 2969 0060 C222     		movs	r2, #194
 2970 0062 1A70     		strb	r2, [r3]
 2971              	.L111:
 2972              	.LBE13:
 793:.\PrimeImpl.c ****         }
 794:.\PrimeImpl.c ****     }
 795:.\PrimeImpl.c **** }
 2973              		.loc 1 795 0
 2974 0064 1837     		adds	r7, r7, #24
 2975              		.cfi_def_cfa_offset 8
 2976 0066 BD46     		mov	sp, r7
 2977              		.cfi_def_cfa_register 13
 2978              		@ sp needed
 2979 0068 80BD     		pop	{r7, pc}
 2980              		.cfi_endproc
 2981              	.LFE80:
 2982              		.size	PumpTransactionDataRequest, .-PumpTransactionDataRequest
 2983 006a 00BF     		.section	.text.PumpTotalsDataRequest,"ax",%progbits
 2984              		.align	2
 2985              		.global	PumpTotalsDataRequest
 2986              		.thumb
 2987              		.thumb_func
 2988              		.type	PumpTotalsDataRequest, %function
 2989              	PumpTotalsDataRequest:
 2990              	.LFB81:
 796:.\PrimeImpl.c **** 
 797:.\PrimeImpl.c **** //@Created By: HIJH
 798:.\PrimeImpl.c **** //@Date: Septembre de 2016
 799:.\PrimeImpl.c **** //Requests the report of totals for the current pump. This is a single byte command with a variable
 800:.\PrimeImpl.c **** //that depends on the number of available hoses.
 801:.\PrimeImpl.c **** void PumpTotalsDataRequest(void *pparam)
 802:.\PrimeImpl.c **** {
 2991              		.loc 1 802 0
 2992              		.cfi_startproc
 2993              		@ args = 0, pretend = 0, frame = 24
 2994              		@ frame_needed = 1, uses_anonymous_args = 0
 2995 0000 80B5     		push	{r7, lr}
 2996              		.cfi_def_cfa_offset 8
 2997              		.cfi_offset 7, -8
 2998              		.cfi_offset 14, -4
 2999 0002 86B0     		sub	sp, sp, #24
 3000              		.cfi_def_cfa_offset 32
 3001 0004 00AF     		add	r7, sp, #0
 3002              		.cfi_def_cfa_register 7
 3003 0006 7860     		str	r0, [r7, #4]
 803:.\PrimeImpl.c ****     PNEAR_PUMPPTR ppump = (PNEAR_PUMPPTR)pparam;
 3004              		.loc 1 803 0
 3005 0008 7B68     		ldr	r3, [r7, #4]
 3006 000a 7B61     		str	r3, [r7, #20]
 804:.\PrimeImpl.c ****     if(ppump)
 3007              		.loc 1 804 0
ARM GAS  C:\Users\RECEPC~1\AppData\Local\Temp\ccEI1MLs.s 			page 68


 3008 000c 7B69     		ldr	r3, [r7, #20]
 3009 000e 002B     		cmp	r3, #0
 3010 0010 28D0     		beq	.L113
 3011              	.LBB14:
 805:.\PrimeImpl.c ****     {        
 806:.\PrimeImpl.c ****         uint8_t index = 0;
 3012              		.loc 1 806 0
 3013 0012 0023     		movs	r3, #0
 3014 0014 FB74     		strb	r3, [r7, #19]
 807:.\PrimeImpl.c ****         memset(ppump->_rxbuffer, 0x00, _PUMP_RX_BUFFER_SIZE_);
 3015              		.loc 1 807 0
 3016 0016 7B69     		ldr	r3, [r7, #20]
 3017 0018 03F5C473 		add	r3, r3, #392
 3018 001c 1846     		mov	r0, r3
 3019 001e 0021     		movs	r1, #0
 3020 0020 4FF4B472 		mov	r2, #360
 3021 0024 FFF7FEFF 		bl	memset
 808:.\PrimeImpl.c ****         PUARTMESSAGEPTR puartdisp = GetUARTMessageSlot(UART_DISPENSER);
 3022              		.loc 1 808 0
 3023 0028 A220     		movs	r0, #162
 3024 002a FFF7FEFF 		bl	GetUARTMessageSlot
 3025 002e F860     		str	r0, [r7, #12]
 809:.\PrimeImpl.c ****         if(puartdisp)
 3026              		.loc 1 809 0
 3027 0030 FB68     		ldr	r3, [r7, #12]
 3028 0032 002B     		cmp	r3, #0
 3029 0034 16D0     		beq	.L113
 810:.\PrimeImpl.c ****         {
 811:.\PrimeImpl.c ****             puartdisp->_messagetx[index++] = PUMP_COMMAND(PUMP_TOTALS_DATA_REQUEST, ppump->_pumpid)
 3030              		.loc 1 811 0
 3031 0036 FB7C     		ldrb	r3, [r7, #19]	@ zero_extendqisi2
 3032 0038 5A1C     		adds	r2, r3, #1
 3033 003a FA74     		strb	r2, [r7, #19]
 3034 003c 1946     		mov	r1, r3
 3035 003e 7B69     		ldr	r3, [r7, #20]
 3036 0040 1B78     		ldrb	r3, [r3]	@ zero_extendqisi2
 3037 0042 DBB2     		uxtb	r3, r3
 3038 0044 03F00F03 		and	r3, r3, #15
 3039 0048 DBB2     		uxtb	r3, r3
 3040 004a 43F05003 		orr	r3, r3, #80
 3041 004e DBB2     		uxtb	r3, r3
 3042 0050 DAB2     		uxtb	r2, r3
 3043 0052 FB68     		ldr	r3, [r7, #12]
 3044 0054 0B44     		add	r3, r3, r1
 3045 0056 1A71     		strb	r2, [r3, #4]
 812:.\PrimeImpl.c ****             puartdisp->_messagelength = 1;//One byte
 3046              		.loc 1 812 0
 3047 0058 FB68     		ldr	r3, [r7, #12]
 3048 005a 0122     		movs	r2, #1
 3049 005c 5A80     		strh	r2, [r3, #2]	@ movhi
 813:.\PrimeImpl.c ****             puartdisp->_messagestate = PENDING;
 3050              		.loc 1 813 0
 3051 005e FB68     		ldr	r3, [r7, #12]
 3052 0060 C222     		movs	r2, #194
 3053 0062 1A70     		strb	r2, [r3]
 3054              	.L113:
 3055              	.LBE14:
ARM GAS  C:\Users\RECEPC~1\AppData\Local\Temp\ccEI1MLs.s 			page 69


 814:.\PrimeImpl.c ****         }
 815:.\PrimeImpl.c ****     }
 816:.\PrimeImpl.c **** }
 3056              		.loc 1 816 0
 3057 0064 1837     		adds	r7, r7, #24
 3058              		.cfi_def_cfa_offset 8
 3059 0066 BD46     		mov	sp, r7
 3060              		.cfi_def_cfa_register 13
 3061              		@ sp needed
 3062 0068 80BD     		pop	{r7, pc}
 3063              		.cfi_endproc
 3064              	.LFE81:
 3065              		.size	PumpTotalsDataRequest, .-PumpTotalsDataRequest
 3066 006a 00BF     		.section	.text.PumpDataToPump,"ax",%progbits
 3067              		.align	2
 3068              		.global	PumpDataToPump
 3069              		.thumb
 3070              		.thumb_func
 3071              		.type	PumpDataToPump, %function
 3072              	PumpDataToPump:
 3073              	.LFB82:
 817:.\PrimeImpl.c **** 
 818:.\PrimeImpl.c **** //@Created By: HIJH
 819:.\PrimeImpl.c **** //@Date: Septembre de 2016
 820:.\PrimeImpl.c **** //Requests the pump to enter in "SEND DATA" mode. This is a single byte command with a special one 
 821:.\PrimeImpl.c **** //that indicates that the pump is ready to receive data.
 822:.\PrimeImpl.c **** void PumpDataToPump(void *pparam)
 823:.\PrimeImpl.c **** {
 3074              		.loc 1 823 0
 3075              		.cfi_startproc
 3076              		@ args = 0, pretend = 0, frame = 24
 3077              		@ frame_needed = 1, uses_anonymous_args = 0
 3078 0000 80B5     		push	{r7, lr}
 3079              		.cfi_def_cfa_offset 8
 3080              		.cfi_offset 7, -8
 3081              		.cfi_offset 14, -4
 3082 0002 86B0     		sub	sp, sp, #24
 3083              		.cfi_def_cfa_offset 32
 3084 0004 00AF     		add	r7, sp, #0
 3085              		.cfi_def_cfa_register 7
 3086 0006 7860     		str	r0, [r7, #4]
 824:.\PrimeImpl.c ****     PNEAR_PUMPPTR ppump = (PNEAR_PUMPPTR)pparam;
 3087              		.loc 1 824 0
 3088 0008 7B68     		ldr	r3, [r7, #4]
 3089 000a 7B61     		str	r3, [r7, #20]
 825:.\PrimeImpl.c ****     if(ppump)
 3090              		.loc 1 825 0
 3091 000c 7B69     		ldr	r3, [r7, #20]
 3092 000e 002B     		cmp	r3, #0
 3093 0010 28D0     		beq	.L115
 3094              	.LBB15:
 826:.\PrimeImpl.c ****     {
 827:.\PrimeImpl.c ****         uint8_t index = 0;        
 3095              		.loc 1 827 0
 3096 0012 0023     		movs	r3, #0
 3097 0014 FB74     		strb	r3, [r7, #19]
 828:.\PrimeImpl.c ****         memset(ppump->_rxbuffer, 0x00, _PUMP_RX_BUFFER_SIZE_);
ARM GAS  C:\Users\RECEPC~1\AppData\Local\Temp\ccEI1MLs.s 			page 70


 3098              		.loc 1 828 0
 3099 0016 7B69     		ldr	r3, [r7, #20]
 3100 0018 03F5C473 		add	r3, r3, #392
 3101 001c 1846     		mov	r0, r3
 3102 001e 0021     		movs	r1, #0
 3103 0020 4FF4B472 		mov	r2, #360
 3104 0024 FFF7FEFF 		bl	memset
 829:.\PrimeImpl.c ****         PUARTMESSAGEPTR puartdisp = GetUARTMessageSlot(UART_DISPENSER);
 3105              		.loc 1 829 0
 3106 0028 A220     		movs	r0, #162
 3107 002a FFF7FEFF 		bl	GetUARTMessageSlot
 3108 002e F860     		str	r0, [r7, #12]
 830:.\PrimeImpl.c ****         if(puartdisp)
 3109              		.loc 1 830 0
 3110 0030 FB68     		ldr	r3, [r7, #12]
 3111 0032 002B     		cmp	r3, #0
 3112 0034 16D0     		beq	.L115
 831:.\PrimeImpl.c ****         {
 832:.\PrimeImpl.c ****             puartdisp->_messagetx[index++] = PUMP_COMMAND(PUMP_DATA_TO_PUMP, ppump->_pumpid);
 3113              		.loc 1 832 0
 3114 0036 FB7C     		ldrb	r3, [r7, #19]	@ zero_extendqisi2
 3115 0038 5A1C     		adds	r2, r3, #1
 3116 003a FA74     		strb	r2, [r7, #19]
 3117 003c 1946     		mov	r1, r3
 3118 003e 7B69     		ldr	r3, [r7, #20]
 3119 0040 1B78     		ldrb	r3, [r3]	@ zero_extendqisi2
 3120 0042 DBB2     		uxtb	r3, r3
 3121 0044 03F00F03 		and	r3, r3, #15
 3122 0048 DBB2     		uxtb	r3, r3
 3123 004a 43F02003 		orr	r3, r3, #32
 3124 004e DBB2     		uxtb	r3, r3
 3125 0050 DAB2     		uxtb	r2, r3
 3126 0052 FB68     		ldr	r3, [r7, #12]
 3127 0054 0B44     		add	r3, r3, r1
 3128 0056 1A71     		strb	r2, [r3, #4]
 833:.\PrimeImpl.c ****             puartdisp->_messagelength = 1;//One byte
 3129              		.loc 1 833 0
 3130 0058 FB68     		ldr	r3, [r7, #12]
 3131 005a 0122     		movs	r2, #1
 3132 005c 5A80     		strh	r2, [r3, #2]	@ movhi
 834:.\PrimeImpl.c ****             puartdisp->_messagestate = PENDING;
 3133              		.loc 1 834 0
 3134 005e FB68     		ldr	r3, [r7, #12]
 3135 0060 C222     		movs	r2, #194
 3136 0062 1A70     		strb	r2, [r3]
 3137              	.L115:
 3138              	.LBE15:
 835:.\PrimeImpl.c ****         }
 836:.\PrimeImpl.c ****     }
 837:.\PrimeImpl.c **** }
 3139              		.loc 1 837 0
 3140 0064 1837     		adds	r7, r7, #24
 3141              		.cfi_def_cfa_offset 8
 3142 0066 BD46     		mov	sp, r7
 3143              		.cfi_def_cfa_register 13
 3144              		@ sp needed
 3145 0068 80BD     		pop	{r7, pc}
ARM GAS  C:\Users\RECEPC~1\AppData\Local\Temp\ccEI1MLs.s 			page 71


 3146              		.cfi_endproc
 3147              	.LFE82:
 3148              		.size	PumpDataToPump, .-PumpDataToPump
 3149 006a 00BF     		.section	.text.PumpPresetHose,"ax",%progbits
 3150              		.align	2
 3151              		.global	PumpPresetHose
 3152              		.thumb
 3153              		.thumb_func
 3154              		.type	PumpPresetHose, %function
 3155              	PumpPresetHose:
 3156              	.LFB83:
 838:.\PrimeImpl.c **** 
 839:.\PrimeImpl.c **** //@Created By: HIJH
 840:.\PrimeImpl.c **** //@Septembre de 2016
 841:.\PrimeImpl.c **** ///////////////////////////////////////////////////////////////////////////////////////////////////
 842:.\PrimeImpl.c **** //Preset values will be placed within the SinkMessage's buffer. This is a convention that applies t
 843:.\PrimeImpl.c **** //all of the available transactions. The pump function must deal with this while it is assembling t
 844:.\PrimeImpl.c **** //For this message the data comes as follows:
 845:.\PrimeImpl.c **** // - First byte is the preset type (Volume:1 / Money:2 )
 846:.\PrimeImpl.c **** // - Second byte is the Hose (A:0, B:1, C:2, D:3)
 847:.\PrimeImpl.c **** // - Block of 8 bytes for the preset value
 848:.\PrimeImpl.c **** //This block of data (10 bytes) must be moved to another position within the same buffer (even posi
 849:.\PrimeImpl.c **** void PumpPresetHose(void *pparam)
 850:.\PrimeImpl.c **** {
 3157              		.loc 1 850 0
 3158              		.cfi_startproc
 3159              		@ args = 0, pretend = 0, frame = 32
 3160              		@ frame_needed = 1, uses_anonymous_args = 0
 3161 0000 90B5     		push	{r4, r7, lr}
 3162              		.cfi_def_cfa_offset 12
 3163              		.cfi_offset 4, -12
 3164              		.cfi_offset 7, -8
 3165              		.cfi_offset 14, -4
 3166 0002 89B0     		sub	sp, sp, #36
 3167              		.cfi_def_cfa_offset 48
 3168 0004 00AF     		add	r7, sp, #0
 3169              		.cfi_def_cfa_register 7
 3170 0006 7860     		str	r0, [r7, #4]
 851:.\PrimeImpl.c ****     PNEAR_PUMPPTR ppump = (PNEAR_PUMPPTR)pparam;
 3171              		.loc 1 851 0
 3172 0008 7B68     		ldr	r3, [r7, #4]
 3173 000a BB61     		str	r3, [r7, #24]
 852:.\PrimeImpl.c ****     if(ppump)
 3174              		.loc 1 852 0
 3175 000c BB69     		ldr	r3, [r7, #24]
 3176 000e 002B     		cmp	r3, #0
 3177 0010 00F09880 		beq	.L117
 3178              	.LBB16:
 853:.\PrimeImpl.c ****     {
 854:.\PrimeImpl.c ****         uint8_t index = 0;        
 3179              		.loc 1 854 0
 3180 0014 0023     		movs	r3, #0
 3181 0016 FB77     		strb	r3, [r7, #31]
 855:.\PrimeImpl.c ****         PUARTMESSAGEPTR puartdisp = GetUARTMessageSlot(UART_DISPENSER);
 3182              		.loc 1 855 0
 3183 0018 A220     		movs	r0, #162
 3184 001a FFF7FEFF 		bl	GetUARTMessageSlot
ARM GAS  C:\Users\RECEPC~1\AppData\Local\Temp\ccEI1MLs.s 			page 72


 3185 001e 7861     		str	r0, [r7, #20]
 856:.\PrimeImpl.c ****         memset(ppump->_rxbuffer, 0x00, _PUMP_RX_BUFFER_SIZE_);
 3186              		.loc 1 856 0
 3187 0020 BB69     		ldr	r3, [r7, #24]
 3188 0022 03F5C473 		add	r3, r3, #392
 3189 0026 1846     		mov	r0, r3
 3190 0028 0021     		movs	r1, #0
 3191 002a 4FF4B472 		mov	r2, #360
 3192 002e FFF7FEFF 		bl	memset
 857:.\PrimeImpl.c ****         if(puartdisp)
 3193              		.loc 1 857 0
 3194 0032 7B69     		ldr	r3, [r7, #20]
 3195 0034 002B     		cmp	r3, #0
 3196 0036 00F08580 		beq	.L117
 3197              	.LBB17:
 858:.\PrimeImpl.c ****         {
 859:.\PrimeImpl.c **** ///////////////////////////////////////////////////////////////////////////////////////////////////
 860:.\PrimeImpl.c ****             puartdisp->_messagetx[index++] = SOM;
 3198              		.loc 1 860 0
 3199 003a FB7F     		ldrb	r3, [r7, #31]	@ zero_extendqisi2
 3200 003c 5A1C     		adds	r2, r3, #1
 3201 003e FA77     		strb	r2, [r7, #31]
 3202 0040 1A46     		mov	r2, r3
 3203 0042 7B69     		ldr	r3, [r7, #20]
 3204 0044 1344     		add	r3, r3, r2
 3205 0046 FF22     		movs	r2, #255
 3206 0048 1A71     		strb	r2, [r3, #4]
 861:.\PrimeImpl.c ****             
 862:.\PrimeImpl.c ****             #ifndef PRIME_CASH_SALE_NOHOSE
 863:.\PrimeImpl.c ****             puartdisp->_messagetx[index++] = 0xE1;
 864:.\PrimeImpl.c ****             #endif
 865:.\PrimeImpl.c ****             #ifdef PRIME_CASH_SALE_NOHOSE
 866:.\PrimeImpl.c ****             puartdisp->_messagetx[index++] = 0xE3;
 3207              		.loc 1 866 0
 3208 004a FB7F     		ldrb	r3, [r7, #31]	@ zero_extendqisi2
 3209 004c 5A1C     		adds	r2, r3, #1
 3210 004e FA77     		strb	r2, [r7, #31]
 3211 0050 1A46     		mov	r2, r3
 3212 0052 7B69     		ldr	r3, [r7, #20]
 3213 0054 1344     		add	r3, r3, r2
 3214 0056 E322     		movs	r2, #227
 3215 0058 1A71     		strb	r2, [r3, #4]
 867:.\PrimeImpl.c ****             #endif
 868:.\PrimeImpl.c ****             
 869:.\PrimeImpl.c ****             ///THIS IS AN APPLIED CONVENTION ===>> 0x0004 INDEX POSITION WITHIN THE PUMP'S BUFFER P
 870:.\PrimeImpl.c ****             ///THESE CODES MUST BE MATCHED OTHERWISE THE LOGIC WILL BREAKUP THE CODE!
 871:.\PrimeImpl.c ****             uint8 transtype = (0xF0 | ((ppump->_trasactionbuffer[0x0004] == 0x0F)? 0x02: 0x01));//p
 3216              		.loc 1 871 0
 3217 005a BB69     		ldr	r3, [r7, #24]
 3218 005c 93F82430 		ldrb	r3, [r3, #36]	@ zero_extendqisi2
 3219 0060 0F2B     		cmp	r3, #15
 3220 0062 01D1     		bne	.L119
 3221              		.loc 1 871 0 is_stmt 0 discriminator 1
 3222 0064 F223     		movs	r3, #242
 3223 0066 00E0     		b	.L120
 3224              	.L119:
 3225              		.loc 1 871 0 discriminator 2
ARM GAS  C:\Users\RECEPC~1\AppData\Local\Temp\ccEI1MLs.s 			page 73


 3226 0068 F123     		movs	r3, #241
 3227              	.L120:
 3228              		.loc 1 871 0 discriminator 4
 3229 006a FB74     		strb	r3, [r7, #19]
 872:.\PrimeImpl.c ****             puartdisp->_messagetx[index++] = transtype;
 3230              		.loc 1 872 0 is_stmt 1 discriminator 4
 3231 006c FB7F     		ldrb	r3, [r7, #31]	@ zero_extendqisi2
 3232 006e 5A1C     		adds	r2, r3, #1
 3233 0070 FA77     		strb	r2, [r7, #31]
 3234 0072 1A46     		mov	r2, r3
 3235 0074 7B69     		ldr	r3, [r7, #20]
 3236 0076 1344     		add	r3, r3, r2
 3237 0078 FA7C     		ldrb	r2, [r7, #19]
 3238 007a 1A71     		strb	r2, [r3, #4]
 873:.\PrimeImpl.c ****             
 874:.\PrimeImpl.c ****             #ifndef PRIME_CASH_SALE_NOHOSE
 875:.\PrimeImpl.c ****             puartdisp->_messagetx[index++] = 0xF6; //Hose Data next
 876:.\PrimeImpl.c ****             ///THIS IS AN APPLIED CONVENTION ===>> 0x0006 INDEX POSITION WITHIN THE PUMP'S BUFFER P
 877:.\PrimeImpl.c ****             ///THESE CODES MUST BE MATCHED OTHERWISE THE LOGIC WILL BREAKUP THE CODE!
 878:.\PrimeImpl.c ****             puartdisp->_messagetx[index++] = (0xE0 | (0x0F & ppump->_trasactionbuffer[GetBufferInde
 879:.\PrimeImpl.c ****             #endif
 880:.\PrimeImpl.c ****             
 881:.\PrimeImpl.c ****             puartdisp->_messagetx[index++] = 0xF8; //Preset Data next
 3239              		.loc 1 881 0 discriminator 4
 3240 007c FB7F     		ldrb	r3, [r7, #31]	@ zero_extendqisi2
 3241 007e 5A1C     		adds	r2, r3, #1
 3242 0080 FA77     		strb	r2, [r7, #31]
 3243 0082 1A46     		mov	r2, r3
 3244 0084 7B69     		ldr	r3, [r7, #20]
 3245 0086 1344     		add	r3, r3, r2
 3246 0088 F822     		movs	r2, #248
 3247 008a 1A71     		strb	r2, [r3, #4]
 882:.\PrimeImpl.c ****             //Here we copy the remaining 8 bytes for the preset value
 883:.\PrimeImpl.c ****             ///THIS IS AN APPLIED CONVENTION ===>> 0x0008 INDEX POSITION WITHIN THE PUMP'S BUFFER P
 884:.\PrimeImpl.c ****             ///THESE CODES MUST BE MATCHED OTHERWISE THE LOGIC WILL BREAKUP THE CODE!
 885:.\PrimeImpl.c ****             char8 *ptr = &ppump->_trasactionbuffer[0x0008];
 3248              		.loc 1 885 0 discriminator 4
 3249 008c BB69     		ldr	r3, [r7, #24]
 3250 008e 2833     		adds	r3, r3, #40
 3251 0090 FB60     		str	r3, [r7, #12]
 886:.\PrimeImpl.c ****             if(!ppump->_presetdone)
 3252              		.loc 1 886 0 discriminator 4
 3253 0092 BB69     		ldr	r3, [r7, #24]
 3254 0094 9B7A     		ldrb	r3, [r3, #10]
 3255 0096 DBB2     		uxtb	r3, r3
 3256 0098 83F00103 		eor	r3, r3, #1
 3257 009c DBB2     		uxtb	r3, r3
 3258 009e 002B     		cmp	r3, #0
 3259 00a0 0BD0     		beq	.L121
 887:.\PrimeImpl.c ****             {
 888:.\PrimeImpl.c ****                 if(transtype == 0xF1) //Volume PRESET, then multiply by 1000
 3260              		.loc 1 888 0
 3261 00a2 FB7C     		ldrb	r3, [r7, #19]	@ zero_extendqisi2
 3262 00a4 F12B     		cmp	r3, #241
 3263 00a6 04D1     		bne	.L122
 889:.\PrimeImpl.c ****                     CastVolumeValue(ptr, 0x08);
 3264              		.loc 1 889 0
ARM GAS  C:\Users\RECEPC~1\AppData\Local\Temp\ccEI1MLs.s 			page 74


 3265 00a8 F868     		ldr	r0, [r7, #12]
 3266 00aa 0821     		movs	r1, #8
 3267 00ac FFF7FEFF 		bl	CastVolumeValue
 3268 00b0 03E0     		b	.L121
 3269              	.L122:
 890:.\PrimeImpl.c ****                 else
 891:.\PrimeImpl.c ****                     CastMoneyValue(ptr, 0x08);
 3270              		.loc 1 891 0
 3271 00b2 F868     		ldr	r0, [r7, #12]
 3272 00b4 0821     		movs	r1, #8
 3273 00b6 FFF7FEFF 		bl	CastMoneyValue
 3274              	.L121:
 892:.\PrimeImpl.c ****                     
 893:.\PrimeImpl.c ****             }
 894:.\PrimeImpl.c ****             ppump->_presetdone = true;
 3275              		.loc 1 894 0
 3276 00ba BB69     		ldr	r3, [r7, #24]
 3277 00bc 0122     		movs	r2, #1
 3278 00be 9A72     		strb	r2, [r3, #10]
 895:.\PrimeImpl.c ****                 
 896:.\PrimeImpl.c ****             FOR(uint8 buffndx = 0, buffndx < 0x08, buffndx++)
 3279              		.loc 1 896 0
 3280 00c0 0023     		movs	r3, #0
 3281 00c2 BB77     		strb	r3, [r7, #30]
 3282 00c4 16E0     		b	.L123
 3283              	.L124:
 897:.\PrimeImpl.c ****                 puartdisp->_messagetx[index++] = (0xE0 | (0x0F & ptr[7 - buffndx])); //Translate fr
 3284              		.loc 1 897 0 discriminator 3
 3285 00c6 FB7F     		ldrb	r3, [r7, #31]	@ zero_extendqisi2
 3286 00c8 5A1C     		adds	r2, r3, #1
 3287 00ca FA77     		strb	r2, [r7, #31]
 3288 00cc 1946     		mov	r1, r3
 3289 00ce BB7F     		ldrb	r3, [r7, #30]	@ zero_extendqisi2
 3290 00d0 C3F10703 		rsb	r3, r3, #7
 3291 00d4 1A46     		mov	r2, r3
 3292 00d6 FB68     		ldr	r3, [r7, #12]
 3293 00d8 1344     		add	r3, r3, r2
 3294 00da 1B78     		ldrb	r3, [r3]	@ zero_extendqisi2
 3295 00dc 03F00F03 		and	r3, r3, #15
 3296 00e0 DBB2     		uxtb	r3, r3
 3297 00e2 63F01F03 		orn	r3, r3, #31
 3298 00e6 DAB2     		uxtb	r2, r3
 3299 00e8 7B69     		ldr	r3, [r7, #20]
 3300 00ea 0B44     		add	r3, r3, r1
 3301 00ec 1A71     		strb	r2, [r3, #4]
 896:.\PrimeImpl.c ****                 puartdisp->_messagetx[index++] = (0xE0 | (0x0F & ptr[7 - buffndx])); //Translate fr
 3302              		.loc 1 896 0 discriminator 3
 3303 00ee BB7F     		ldrb	r3, [r7, #30]	@ zero_extendqisi2
 3304 00f0 0133     		adds	r3, r3, #1
 3305 00f2 BB77     		strb	r3, [r7, #30]
 3306              	.L123:
 896:.\PrimeImpl.c ****                 puartdisp->_messagetx[index++] = (0xE0 | (0x0F & ptr[7 - buffndx])); //Translate fr
 3307              		.loc 1 896 0 is_stmt 0 discriminator 1
 3308 00f4 BB7F     		ldrb	r3, [r7, #30]	@ zero_extendqisi2
 3309 00f6 072B     		cmp	r3, #7
 3310 00f8 E5D9     		bls	.L124
 898:.\PrimeImpl.c ****                 
ARM GAS  C:\Users\RECEPC~1\AppData\Local\Temp\ccEI1MLs.s 			page 75


 899:.\PrimeImpl.c ****             puartdisp->_messagetx[index++] = LRCn; //LRC next
 3311              		.loc 1 899 0 is_stmt 1
 3312 00fa FB7F     		ldrb	r3, [r7, #31]	@ zero_extendqisi2
 3313 00fc 5A1C     		adds	r2, r3, #1
 3314 00fe FA77     		strb	r2, [r7, #31]
 3315 0100 1A46     		mov	r2, r3
 3316 0102 7B69     		ldr	r3, [r7, #20]
 3317 0104 1344     		add	r3, r3, r2
 3318 0106 FB22     		movs	r2, #251
 3319 0108 1A71     		strb	r2, [r3, #4]
 900:.\PrimeImpl.c ****             puartdisp->_messagetx[index++] = GetLRC(puartdisp->_messagetx);
 3320              		.loc 1 900 0
 3321 010a FB7F     		ldrb	r3, [r7, #31]	@ zero_extendqisi2
 3322 010c 5A1C     		adds	r2, r3, #1
 3323 010e FA77     		strb	r2, [r7, #31]
 3324 0110 1C46     		mov	r4, r3
 3325 0112 7B69     		ldr	r3, [r7, #20]
 3326 0114 0433     		adds	r3, r3, #4
 3327 0116 1846     		mov	r0, r3
 3328 0118 FFF7FEFF 		bl	GetLRC
 3329 011c 0346     		mov	r3, r0
 3330 011e 1A46     		mov	r2, r3
 3331 0120 7B69     		ldr	r3, [r7, #20]
 3332 0122 2344     		add	r3, r3, r4
 3333 0124 1A71     		strb	r2, [r3, #4]
 901:.\PrimeImpl.c ****             puartdisp->_messagetx[index++] = EOM;
 3334              		.loc 1 901 0
 3335 0126 FB7F     		ldrb	r3, [r7, #31]	@ zero_extendqisi2
 3336 0128 5A1C     		adds	r2, r3, #1
 3337 012a FA77     		strb	r2, [r7, #31]
 3338 012c 1A46     		mov	r2, r3
 3339 012e 7B69     		ldr	r3, [r7, #20]
 3340 0130 1344     		add	r3, r3, r2
 3341 0132 F022     		movs	r2, #240
 3342 0134 1A71     		strb	r2, [r3, #4]
 902:.\PrimeImpl.c **** ///////////////////////////////////////////////////////////////////////////////////////////////////
 903:.\PrimeImpl.c ****             
 904:.\PrimeImpl.c ****             puartdisp->_messagelength = index;
 3343              		.loc 1 904 0
 3344 0136 FB7F     		ldrb	r3, [r7, #31]	@ zero_extendqisi2
 3345 0138 9AB2     		uxth	r2, r3
 3346 013a 7B69     		ldr	r3, [r7, #20]
 3347 013c 5A80     		strh	r2, [r3, #2]	@ movhi
 905:.\PrimeImpl.c ****             puartdisp->_messagestate = PENDING;
 3348              		.loc 1 905 0
 3349 013e 7B69     		ldr	r3, [r7, #20]
 3350 0140 C222     		movs	r2, #194
 3351 0142 1A70     		strb	r2, [r3]
 3352              	.L117:
 3353              	.LBE17:
 3354              	.LBE16:
 906:.\PrimeImpl.c ****         }
 907:.\PrimeImpl.c ****     }
 908:.\PrimeImpl.c ****     
 909:.\PrimeImpl.c **** }
 3355              		.loc 1 909 0
 3356 0144 2437     		adds	r7, r7, #36
ARM GAS  C:\Users\RECEPC~1\AppData\Local\Temp\ccEI1MLs.s 			page 76


 3357              		.cfi_def_cfa_offset 12
 3358 0146 BD46     		mov	sp, r7
 3359              		.cfi_def_cfa_register 13
 3360              		@ sp needed
 3361 0148 90BD     		pop	{r4, r7, pc}
 3362              		.cfi_endproc
 3363              	.LFE83:
 3364              		.size	PumpPresetHose, .-PumpPresetHose
 3365 014a 00BF     		.section	.text.PumpCreditPresetHose,"ax",%progbits
 3366              		.align	2
 3367              		.global	PumpCreditPresetHose
 3368              		.thumb
 3369              		.thumb_func
 3370              		.type	PumpCreditPresetHose, %function
 3371              	PumpCreditPresetHose:
 3372              	.LFB84:
 910:.\PrimeImpl.c **** 
 911:.\PrimeImpl.c **** //@Created By: HIJH
 912:.\PrimeImpl.c **** //@Septembre de 2016
 913:.\PrimeImpl.c **** ///////////////////////////////////////////////////////////////////////////////////////////////////
 914:.\PrimeImpl.c **** //This preset is a convention that applies to "Credit Transactions"
 915:.\PrimeImpl.c **** //The pump will hold all the necessary information for the preset.
 916:.\PrimeImpl.c **** //For this message the data comes as follows:
 917:.\PrimeImpl.c **** void PumpCreditPresetHose(void *pparam)
 918:.\PrimeImpl.c **** {
 3373              		.loc 1 918 0
 3374              		.cfi_startproc
 3375              		@ args = 0, pretend = 0, frame = 32
 3376              		@ frame_needed = 1, uses_anonymous_args = 0
 3377 0000 90B5     		push	{r4, r7, lr}
 3378              		.cfi_def_cfa_offset 12
 3379              		.cfi_offset 4, -12
 3380              		.cfi_offset 7, -8
 3381              		.cfi_offset 14, -4
 3382 0002 89B0     		sub	sp, sp, #36
 3383              		.cfi_def_cfa_offset 48
 3384 0004 00AF     		add	r7, sp, #0
 3385              		.cfi_def_cfa_register 7
 3386 0006 7860     		str	r0, [r7, #4]
 919:.\PrimeImpl.c ****     PNEAR_PUMPPTR ppump = (PNEAR_PUMPPTR)pparam;
 3387              		.loc 1 919 0
 3388 0008 7B68     		ldr	r3, [r7, #4]
 3389 000a BB61     		str	r3, [r7, #24]
 920:.\PrimeImpl.c ****     if(ppump)
 3390              		.loc 1 920 0
 3391 000c BB69     		ldr	r3, [r7, #24]
 3392 000e 002B     		cmp	r3, #0
 3393 0010 00F0A380 		beq	.L125
 3394              	.LBB18:
 921:.\PrimeImpl.c ****     {
 922:.\PrimeImpl.c ****         uint8_t index = 0;        
 3395              		.loc 1 922 0
 3396 0014 0023     		movs	r3, #0
 3397 0016 FB77     		strb	r3, [r7, #31]
 923:.\PrimeImpl.c ****         PUARTMESSAGEPTR puartdisp = GetUARTMessageSlot(UART_DISPENSER);
 3398              		.loc 1 923 0
 3399 0018 A220     		movs	r0, #162
ARM GAS  C:\Users\RECEPC~1\AppData\Local\Temp\ccEI1MLs.s 			page 77


 3400 001a FFF7FEFF 		bl	GetUARTMessageSlot
 3401 001e 7861     		str	r0, [r7, #20]
 924:.\PrimeImpl.c ****         memset(ppump->_rxbuffer, 0x00, _PUMP_RX_BUFFER_SIZE_);
 3402              		.loc 1 924 0
 3403 0020 BB69     		ldr	r3, [r7, #24]
 3404 0022 03F5C473 		add	r3, r3, #392
 3405 0026 1846     		mov	r0, r3
 3406 0028 0021     		movs	r1, #0
 3407 002a 4FF4B472 		mov	r2, #360
 3408 002e FFF7FEFF 		bl	memset
 925:.\PrimeImpl.c ****         if(puartdisp)
 3409              		.loc 1 925 0
 3410 0032 7B69     		ldr	r3, [r7, #20]
 3411 0034 002B     		cmp	r3, #0
 3412 0036 00F09080 		beq	.L125
 3413              	.LBB19:
 926:.\PrimeImpl.c ****         {
 927:.\PrimeImpl.c **** ///////////////////////////////////////////////////////////////////////////////////////////////////
 928:.\PrimeImpl.c ****             puartdisp->_messagetx[index++] = SOM;
 3414              		.loc 1 928 0
 3415 003a FB7F     		ldrb	r3, [r7, #31]	@ zero_extendqisi2
 3416 003c 5A1C     		adds	r2, r3, #1
 3417 003e FA77     		strb	r2, [r7, #31]
 3418 0040 1A46     		mov	r2, r3
 3419 0042 7B69     		ldr	r3, [r7, #20]
 3420 0044 1344     		add	r3, r3, r2
 3421 0046 FF22     		movs	r2, #255
 3422 0048 1A71     		strb	r2, [r3, #4]
 929:.\PrimeImpl.c ****             #ifdef PRIME_CREDIT_SALE_NOHOSE
 930:.\PrimeImpl.c ****             puartdisp->_messagetx[index++] = 0xE3;
 3423              		.loc 1 930 0
 3424 004a FB7F     		ldrb	r3, [r7, #31]	@ zero_extendqisi2
 3425 004c 5A1C     		adds	r2, r3, #1
 3426 004e FA77     		strb	r2, [r7, #31]
 3427 0050 1A46     		mov	r2, r3
 3428 0052 7B69     		ldr	r3, [r7, #20]
 3429 0054 1344     		add	r3, r3, r2
 3430 0056 E322     		movs	r2, #227
 3431 0058 1A71     		strb	r2, [r3, #4]
 931:.\PrimeImpl.c ****             #endif
 932:.\PrimeImpl.c ****             #ifndef PRIME_CREDIT_SALE_NOHOSE
 933:.\PrimeImpl.c ****             puartdisp->_messagetx[index++] = 0xE1; //Data Length (n = 1 if F4/F5 are not included)
 934:.\PrimeImpl.c ****             #endif
 935:.\PrimeImpl.c **** 
 936:.\PrimeImpl.c ****             ///THIS IS AN APPLIED CONVENTION ===>> 0x0004 INDEX POSITION WITHIN THE PUMP'S BUFFER P
 937:.\PrimeImpl.c ****             ///THESE CODES MUST BE MATCHED OTHERWISE THE LOGIC WILL BREAKUP THE CODE!
 938:.\PrimeImpl.c ****             uint8 transtype = 0xF2;//preset type (0xF2 = Money, 0xF1 = Volume)
 3432              		.loc 1 938 0
 3433 005a F223     		movs	r3, #242
 3434 005c FB74     		strb	r3, [r7, #19]
 939:.\PrimeImpl.c ****             puartdisp->_messagetx[index++] = transtype;
 3435              		.loc 1 939 0
 3436 005e FB7F     		ldrb	r3, [r7, #31]	@ zero_extendqisi2
 3437 0060 5A1C     		adds	r2, r3, #1
 3438 0062 FA77     		strb	r2, [r7, #31]
 3439 0064 1A46     		mov	r2, r3
 3440 0066 7B69     		ldr	r3, [r7, #20]
ARM GAS  C:\Users\RECEPC~1\AppData\Local\Temp\ccEI1MLs.s 			page 78


 3441 0068 1344     		add	r3, r3, r2
 3442 006a FA7C     		ldrb	r2, [r7, #19]
 3443 006c 1A71     		strb	r2, [r3, #4]
 940:.\PrimeImpl.c ****             #ifndef PRIME_CREDIT_SALE_NOHOSE
 941:.\PrimeImpl.c ****             puartdisp->_messagetx[index++] = 0xF6; //Hose Data next
 942:.\PrimeImpl.c ****             ///THIS IS AN APPLIED CONVENTION ===>> 0x0006 INDEX POSITION WITHIN THE PUMP'S BUFFER P
 943:.\PrimeImpl.c ****             ///THESE CODES MUST BE MATCHED OTHERWISE THE LOGIC WILL BREAKUP THE CODE!
 944:.\PrimeImpl.c ****             puartdisp->_messagetx[index++] = (0xE0 | ppump->_authorizationinfo._hoseid);
 945:.\PrimeImpl.c ****             #endif
 946:.\PrimeImpl.c ****             
 947:.\PrimeImpl.c ****             puartdisp->_messagetx[index++] = 0xF8; //Preset Data next
 3444              		.loc 1 947 0
 3445 006e FB7F     		ldrb	r3, [r7, #31]	@ zero_extendqisi2
 3446 0070 5A1C     		adds	r2, r3, #1
 3447 0072 FA77     		strb	r2, [r7, #31]
 3448 0074 1A46     		mov	r2, r3
 3449 0076 7B69     		ldr	r3, [r7, #20]
 3450 0078 1344     		add	r3, r3, r2
 3451 007a F822     		movs	r2, #248
 3452 007c 1A71     		strb	r2, [r3, #4]
 948:.\PrimeImpl.c ****             //Here we copy the remaining 8 bytes for the preset value
 949:.\PrimeImpl.c ****             ///THIS IS AN APPLIED CONVENTION ===>> 0x0008 INDEX POSITION WITHIN THE PUMP'S BUFFER P
 950:.\PrimeImpl.c ****             ///THESE CODES MUST BE MATCHED OTHERWISE THE LOGIC WILL BREAKUP THE CODE!
 951:.\PrimeImpl.c ****             memset(PBYTECAST(&ppump->_trasactionbuffer[0x0008]),0x00, 0x0008);
 3453              		.loc 1 951 0
 3454 007e BB69     		ldr	r3, [r7, #24]
 3455 0080 2833     		adds	r3, r3, #40
 3456 0082 1846     		mov	r0, r3
 3457 0084 0021     		movs	r1, #0
 3458 0086 0822     		movs	r2, #8
 3459 0088 FFF7FEFF 		bl	memset
 952:.\PrimeImpl.c ****             B78AD90CF552D9B30A(ppump->_authorizationinfo._presetamount, PBYTECAST(&ppump->_trasacti
 3460              		.loc 1 952 0
 3461 008c BB69     		ldr	r3, [r7, #24]
 3462 008e D3F8803B 		ldr	r3, [r3, #2944]
 3463 0092 1A46     		mov	r2, r3
 3464 0094 4FF00003 		mov	r3, #0
 3465 0098 B969     		ldr	r1, [r7, #24]
 3466 009a 01F12804 		add	r4, r1, #40
 3467 009e 1046     		mov	r0, r2
 3468 00a0 1946     		mov	r1, r3
 3469 00a2 2246     		mov	r2, r4
 3470 00a4 FFF7FEFF 		bl	B78AD90CF552D9B30A
 953:.\PrimeImpl.c ****             
 954:.\PrimeImpl.c ****             char8 *ptr = &ppump->_trasactionbuffer[0x0008];
 3471              		.loc 1 954 0
 3472 00a8 BB69     		ldr	r3, [r7, #24]
 3473 00aa 2833     		adds	r3, r3, #40
 3474 00ac FB60     		str	r3, [r7, #12]
 955:.\PrimeImpl.c ****             PSTRBUFFTOGG(PBYTECAST(ptr), 0x08);
 3475              		.loc 1 955 0
 3476 00ae F868     		ldr	r0, [r7, #12]
 3477 00b0 0821     		movs	r1, #8
 3478 00b2 FFF7FEFF 		bl	PSTRBUFFTOGG
 956:.\PrimeImpl.c ****             if(transtype == 0xF1) //Volume PRESET, then multiply by 1000
 3479              		.loc 1 956 0
 3480 00b6 FB7C     		ldrb	r3, [r7, #19]	@ zero_extendqisi2
ARM GAS  C:\Users\RECEPC~1\AppData\Local\Temp\ccEI1MLs.s 			page 79


 3481 00b8 F12B     		cmp	r3, #241
 3482 00ba 04D1     		bne	.L127
 957:.\PrimeImpl.c ****                 CastVolumeValue(ptr, 0x08);
 3483              		.loc 1 957 0
 3484 00bc F868     		ldr	r0, [r7, #12]
 3485 00be 0821     		movs	r1, #8
 3486 00c0 FFF7FEFF 		bl	CastVolumeValue
 3487 00c4 03E0     		b	.L128
 3488              	.L127:
 958:.\PrimeImpl.c ****             else
 959:.\PrimeImpl.c ****                 CastMoneyValue(ptr, 0x08);
 3489              		.loc 1 959 0
 3490 00c6 F868     		ldr	r0, [r7, #12]
 3491 00c8 0821     		movs	r1, #8
 3492 00ca FFF7FEFF 		bl	CastMoneyValue
 3493              	.L128:
 960:.\PrimeImpl.c ****             
 961:.\PrimeImpl.c ****             PSTRBUFFTOGG(PBYTECAST(ptr), 0x08);
 3494              		.loc 1 961 0
 3495 00ce F868     		ldr	r0, [r7, #12]
 3496 00d0 0821     		movs	r1, #8
 3497 00d2 FFF7FEFF 		bl	PSTRBUFFTOGG
 962:.\PrimeImpl.c ****             FOR(uint8 buffndx = 0, buffndx < 8, buffndx++)
 3498              		.loc 1 962 0
 3499 00d6 0023     		movs	r3, #0
 3500 00d8 BB77     		strb	r3, [r7, #30]
 3501 00da 13E0     		b	.L129
 3502              	.L130:
 963:.\PrimeImpl.c ****                 puartdisp->_messagetx[index++] = (0xE0 | (0x0F & ptr[buffndx])); //Translate from A
 3503              		.loc 1 963 0 discriminator 3
 3504 00dc FB7F     		ldrb	r3, [r7, #31]	@ zero_extendqisi2
 3505 00de 5A1C     		adds	r2, r3, #1
 3506 00e0 FA77     		strb	r2, [r7, #31]
 3507 00e2 1946     		mov	r1, r3
 3508 00e4 BB7F     		ldrb	r3, [r7, #30]	@ zero_extendqisi2
 3509 00e6 FA68     		ldr	r2, [r7, #12]
 3510 00e8 1344     		add	r3, r3, r2
 3511 00ea 1B78     		ldrb	r3, [r3]	@ zero_extendqisi2
 3512 00ec 03F00F03 		and	r3, r3, #15
 3513 00f0 DBB2     		uxtb	r3, r3
 3514 00f2 63F01F03 		orn	r3, r3, #31
 3515 00f6 DAB2     		uxtb	r2, r3
 3516 00f8 7B69     		ldr	r3, [r7, #20]
 3517 00fa 0B44     		add	r3, r3, r1
 3518 00fc 1A71     		strb	r2, [r3, #4]
 962:.\PrimeImpl.c ****             FOR(uint8 buffndx = 0, buffndx < 8, buffndx++)
 3519              		.loc 1 962 0 discriminator 3
 3520 00fe BB7F     		ldrb	r3, [r7, #30]	@ zero_extendqisi2
 3521 0100 0133     		adds	r3, r3, #1
 3522 0102 BB77     		strb	r3, [r7, #30]
 3523              	.L129:
 962:.\PrimeImpl.c ****             FOR(uint8 buffndx = 0, buffndx < 8, buffndx++)
 3524              		.loc 1 962 0 is_stmt 0 discriminator 1
 3525 0104 BB7F     		ldrb	r3, [r7, #30]	@ zero_extendqisi2
 3526 0106 072B     		cmp	r3, #7
 3527 0108 E8D9     		bls	.L130
 964:.\PrimeImpl.c **** 
ARM GAS  C:\Users\RECEPC~1\AppData\Local\Temp\ccEI1MLs.s 			page 80


 965:.\PrimeImpl.c ****             ppump->_presetdone = true;
 3528              		.loc 1 965 0 is_stmt 1
 3529 010a BB69     		ldr	r3, [r7, #24]
 3530 010c 0122     		movs	r2, #1
 3531 010e 9A72     		strb	r2, [r3, #10]
 966:.\PrimeImpl.c **** 
 967:.\PrimeImpl.c ****             puartdisp->_messagetx[index++] = LRCn; //LRC next
 3532              		.loc 1 967 0
 3533 0110 FB7F     		ldrb	r3, [r7, #31]	@ zero_extendqisi2
 3534 0112 5A1C     		adds	r2, r3, #1
 3535 0114 FA77     		strb	r2, [r7, #31]
 3536 0116 1A46     		mov	r2, r3
 3537 0118 7B69     		ldr	r3, [r7, #20]
 3538 011a 1344     		add	r3, r3, r2
 3539 011c FB22     		movs	r2, #251
 3540 011e 1A71     		strb	r2, [r3, #4]
 968:.\PrimeImpl.c ****             puartdisp->_messagetx[index++] = GetLRC(puartdisp->_messagetx);
 3541              		.loc 1 968 0
 3542 0120 FB7F     		ldrb	r3, [r7, #31]	@ zero_extendqisi2
 3543 0122 5A1C     		adds	r2, r3, #1
 3544 0124 FA77     		strb	r2, [r7, #31]
 3545 0126 1C46     		mov	r4, r3
 3546 0128 7B69     		ldr	r3, [r7, #20]
 3547 012a 0433     		adds	r3, r3, #4
 3548 012c 1846     		mov	r0, r3
 3549 012e FFF7FEFF 		bl	GetLRC
 3550 0132 0346     		mov	r3, r0
 3551 0134 1A46     		mov	r2, r3
 3552 0136 7B69     		ldr	r3, [r7, #20]
 3553 0138 2344     		add	r3, r3, r4
 3554 013a 1A71     		strb	r2, [r3, #4]
 969:.\PrimeImpl.c ****             puartdisp->_messagetx[index++] = EOM;
 3555              		.loc 1 969 0
 3556 013c FB7F     		ldrb	r3, [r7, #31]	@ zero_extendqisi2
 3557 013e 5A1C     		adds	r2, r3, #1
 3558 0140 FA77     		strb	r2, [r7, #31]
 3559 0142 1A46     		mov	r2, r3
 3560 0144 7B69     		ldr	r3, [r7, #20]
 3561 0146 1344     		add	r3, r3, r2
 3562 0148 F022     		movs	r2, #240
 3563 014a 1A71     		strb	r2, [r3, #4]
 970:.\PrimeImpl.c **** ///////////////////////////////////////////////////////////////////////////////////////////////////
 971:.\PrimeImpl.c ****             
 972:.\PrimeImpl.c ****             puartdisp->_messagelength = index;
 3564              		.loc 1 972 0
 3565 014c FB7F     		ldrb	r3, [r7, #31]	@ zero_extendqisi2
 3566 014e 9AB2     		uxth	r2, r3
 3567 0150 7B69     		ldr	r3, [r7, #20]
 3568 0152 5A80     		strh	r2, [r3, #2]	@ movhi
 973:.\PrimeImpl.c ****             puartdisp->_messagestate = PENDING;
 3569              		.loc 1 973 0
 3570 0154 7B69     		ldr	r3, [r7, #20]
 3571 0156 C222     		movs	r2, #194
 3572 0158 1A70     		strb	r2, [r3]
 3573              	.L125:
 3574              	.LBE19:
 3575              	.LBE18:
ARM GAS  C:\Users\RECEPC~1\AppData\Local\Temp\ccEI1MLs.s 			page 81


 974:.\PrimeImpl.c ****         }
 975:.\PrimeImpl.c ****     }
 976:.\PrimeImpl.c ****     
 977:.\PrimeImpl.c **** }
 3576              		.loc 1 977 0
 3577 015a 2437     		adds	r7, r7, #36
 3578              		.cfi_def_cfa_offset 12
 3579 015c BD46     		mov	sp, r7
 3580              		.cfi_def_cfa_register 13
 3581              		@ sp needed
 3582 015e 90BD     		pop	{r4, r7, pc}
 3583              		.cfi_endproc
 3584              	.LFE84:
 3585              		.size	PumpCreditPresetHose, .-PumpCreditPresetHose
 3586              		.section	.text.PumpPresetNoHose,"ax",%progbits
 3587              		.align	2
 3588              		.global	PumpPresetNoHose
 3589              		.thumb
 3590              		.thumb_func
 3591              		.type	PumpPresetNoHose, %function
 3592              	PumpPresetNoHose:
 3593              	.LFB85:
 978:.\PrimeImpl.c **** 
 979:.\PrimeImpl.c **** //@Created By: HIJH
 980:.\PrimeImpl.c **** //@Septembre de 2016
 981:.\PrimeImpl.c **** ///////////////////////////////////////////////////////////////////////////////////////////////////
 982:.\PrimeImpl.c **** //Preset values will be placed within the SinkMessage's buffer. This is a convention that applies t
 983:.\PrimeImpl.c **** //all of the available transactions. The pump function must deal with this while it is assembling t
 984:.\PrimeImpl.c **** //For this message the data comes as follows:
 985:.\PrimeImpl.c **** // - First byte is the preset type (Volume:1 / Money:2 )
 986:.\PrimeImpl.c **** // - Block of 8 bytes for the preset value
 987:.\PrimeImpl.c **** //This block of data (10 bytes) must be moved to another position within the same buffer (even posi
 988:.\PrimeImpl.c **** void PumpPresetNoHose(void *pparam)
 989:.\PrimeImpl.c **** {
 3594              		.loc 1 989 0
 3595              		.cfi_startproc
 3596              		@ args = 0, pretend = 0, frame = 32
 3597              		@ frame_needed = 1, uses_anonymous_args = 0
 3598 0000 90B5     		push	{r4, r7, lr}
 3599              		.cfi_def_cfa_offset 12
 3600              		.cfi_offset 4, -12
 3601              		.cfi_offset 7, -8
 3602              		.cfi_offset 14, -4
 3603 0002 89B0     		sub	sp, sp, #36
 3604              		.cfi_def_cfa_offset 48
 3605 0004 00AF     		add	r7, sp, #0
 3606              		.cfi_def_cfa_register 7
 3607 0006 7860     		str	r0, [r7, #4]
 990:.\PrimeImpl.c ****     PNEAR_PUMPPTR ppump = (PNEAR_PUMPPTR)pparam;
 3608              		.loc 1 990 0
 3609 0008 7B68     		ldr	r3, [r7, #4]
 3610 000a BB61     		str	r3, [r7, #24]
 991:.\PrimeImpl.c ****     if(ppump)
 3611              		.loc 1 991 0
 3612 000c BB69     		ldr	r3, [r7, #24]
 3613 000e 002B     		cmp	r3, #0
 3614 0010 00F09A80 		beq	.L131
ARM GAS  C:\Users\RECEPC~1\AppData\Local\Temp\ccEI1MLs.s 			page 82


 3615              	.LBB20:
 992:.\PrimeImpl.c ****     {
 993:.\PrimeImpl.c ****         uint8_t index = 0;
 3616              		.loc 1 993 0
 3617 0014 0023     		movs	r3, #0
 3618 0016 FB77     		strb	r3, [r7, #31]
 994:.\PrimeImpl.c ****         memset(ppump->_rxbuffer, 0x00, _PUMP_RX_BUFFER_SIZE_);
 3619              		.loc 1 994 0
 3620 0018 BB69     		ldr	r3, [r7, #24]
 3621 001a 03F5C473 		add	r3, r3, #392
 3622 001e 1846     		mov	r0, r3
 3623 0020 0021     		movs	r1, #0
 3624 0022 4FF4B472 		mov	r2, #360
 3625 0026 FFF7FEFF 		bl	memset
 995:.\PrimeImpl.c ****         PUARTMESSAGEPTR puartdisp = GetUARTMessageSlot(UART_DISPENSER);
 3626              		.loc 1 995 0
 3627 002a A220     		movs	r0, #162
 3628 002c FFF7FEFF 		bl	GetUARTMessageSlot
 3629 0030 7861     		str	r0, [r7, #20]
 996:.\PrimeImpl.c ****         if(puartdisp)
 3630              		.loc 1 996 0
 3631 0032 7B69     		ldr	r3, [r7, #20]
 3632 0034 002B     		cmp	r3, #0
 3633 0036 00F08780 		beq	.L131
 3634              	.LBB21:
 997:.\PrimeImpl.c ****         {
 998:.\PrimeImpl.c **** ///////////////////////////////////////////////////////////////////////////////////////////////////
 999:.\PrimeImpl.c ****             puartdisp->_messagetx[index++] = SOM;
 3635              		.loc 1 999 0
 3636 003a FB7F     		ldrb	r3, [r7, #31]	@ zero_extendqisi2
 3637 003c 5A1C     		adds	r2, r3, #1
 3638 003e FA77     		strb	r2, [r7, #31]
 3639 0040 1A46     		mov	r2, r3
 3640 0042 7B69     		ldr	r3, [r7, #20]
 3641 0044 1344     		add	r3, r3, r2
 3642 0046 FF22     		movs	r2, #255
 3643 0048 1A71     		strb	r2, [r3, #4]
1000:.\PrimeImpl.c ****             puartdisp->_messagetx[index++] = 0xE3;
 3644              		.loc 1 1000 0
 3645 004a FB7F     		ldrb	r3, [r7, #31]	@ zero_extendqisi2
 3646 004c 5A1C     		adds	r2, r3, #1
 3647 004e FA77     		strb	r2, [r7, #31]
 3648 0050 1A46     		mov	r2, r3
 3649 0052 7B69     		ldr	r3, [r7, #20]
 3650 0054 1344     		add	r3, r3, r2
 3651 0056 E322     		movs	r2, #227
 3652 0058 1A71     		strb	r2, [r3, #4]
1001:.\PrimeImpl.c ****             ///THIS IS AN APPLIED CONVENTION ===>> 0x0004 INDEX POSITION WITHIN THE PUMP'S BUFFER P
1002:.\PrimeImpl.c ****             ///THESE CODES MUST BE MATCHED OTHERWISE THE LOGIC WILL BREAKUP THE CODE!
1003:.\PrimeImpl.c ****             uint8 transtype = (0xF0 | ((ppump->_trasactionbuffer[0x0004] == 0x0F)? 0x02: 0x01));//p
 3653              		.loc 1 1003 0
 3654 005a BB69     		ldr	r3, [r7, #24]
 3655 005c 93F82430 		ldrb	r3, [r3, #36]	@ zero_extendqisi2
 3656 0060 0F2B     		cmp	r3, #15
 3657 0062 01D1     		bne	.L133
 3658              		.loc 1 1003 0 is_stmt 0 discriminator 1
 3659 0064 F223     		movs	r3, #242
ARM GAS  C:\Users\RECEPC~1\AppData\Local\Temp\ccEI1MLs.s 			page 83


 3660 0066 00E0     		b	.L134
 3661              	.L133:
 3662              		.loc 1 1003 0 discriminator 2
 3663 0068 F123     		movs	r3, #241
 3664              	.L134:
 3665              		.loc 1 1003 0 discriminator 4
 3666 006a FB74     		strb	r3, [r7, #19]
1004:.\PrimeImpl.c ****             puartdisp->_messagetx[index++] = transtype;
 3667              		.loc 1 1004 0 is_stmt 1 discriminator 4
 3668 006c FB7F     		ldrb	r3, [r7, #31]	@ zero_extendqisi2
 3669 006e 5A1C     		adds	r2, r3, #1
 3670 0070 FA77     		strb	r2, [r7, #31]
 3671 0072 1A46     		mov	r2, r3
 3672 0074 7B69     		ldr	r3, [r7, #20]
 3673 0076 1344     		add	r3, r3, r2
 3674 0078 FA7C     		ldrb	r2, [r7, #19]
 3675 007a 1A71     		strb	r2, [r3, #4]
1005:.\PrimeImpl.c ****                         
1006:.\PrimeImpl.c ****             puartdisp->_messagetx[index++] = 0xF8; //Preset Data next
 3676              		.loc 1 1006 0 discriminator 4
 3677 007c FB7F     		ldrb	r3, [r7, #31]	@ zero_extendqisi2
 3678 007e 5A1C     		adds	r2, r3, #1
 3679 0080 FA77     		strb	r2, [r7, #31]
 3680 0082 1A46     		mov	r2, r3
 3681 0084 7B69     		ldr	r3, [r7, #20]
 3682 0086 1344     		add	r3, r3, r2
 3683 0088 F822     		movs	r2, #248
 3684 008a 1A71     		strb	r2, [r3, #4]
1007:.\PrimeImpl.c ****             //Here we copy the remaining 8 bytes for the preset value
1008:.\PrimeImpl.c ****             ///THIS IS AN APPLIED CONVENTION ===>> 0x0008 INDEX POSITION WITHIN THE PUMP'S BUFFER P
1009:.\PrimeImpl.c ****             ///THESE CODES MUST BE MATCHED OTHERWISE THE LOGIC WILL BREAKUP THE CODE!
1010:.\PrimeImpl.c ****             char8 *ptr = &ppump->_trasactionbuffer[0x0008];
 3685              		.loc 1 1010 0 discriminator 4
 3686 008c BB69     		ldr	r3, [r7, #24]
 3687 008e 2833     		adds	r3, r3, #40
 3688 0090 FB60     		str	r3, [r7, #12]
1011:.\PrimeImpl.c ****             if(!ppump->_presetdone)
 3689              		.loc 1 1011 0 discriminator 4
 3690 0092 BB69     		ldr	r3, [r7, #24]
 3691 0094 9B7A     		ldrb	r3, [r3, #10]
 3692 0096 DBB2     		uxtb	r3, r3
 3693 0098 83F00103 		eor	r3, r3, #1
 3694 009c DBB2     		uxtb	r3, r3
 3695 009e 002B     		cmp	r3, #0
 3696 00a0 0BD0     		beq	.L135
1012:.\PrimeImpl.c ****             {
1013:.\PrimeImpl.c ****                 if(transtype == 0xF1) //Volume PRESET, then multiply by 1000
 3697              		.loc 1 1013 0
 3698 00a2 FB7C     		ldrb	r3, [r7, #19]	@ zero_extendqisi2
 3699 00a4 F12B     		cmp	r3, #241
 3700 00a6 04D1     		bne	.L136
1014:.\PrimeImpl.c ****                     CastVolumeValue(ptr, 0x08);
 3701              		.loc 1 1014 0
 3702 00a8 F868     		ldr	r0, [r7, #12]
 3703 00aa 0821     		movs	r1, #8
 3704 00ac FFF7FEFF 		bl	CastVolumeValue
 3705 00b0 03E0     		b	.L135
ARM GAS  C:\Users\RECEPC~1\AppData\Local\Temp\ccEI1MLs.s 			page 84


 3706              	.L136:
1015:.\PrimeImpl.c ****                 else
1016:.\PrimeImpl.c ****                     CastMoneyValue(ptr, 0x08);
 3707              		.loc 1 1016 0
 3708 00b2 F868     		ldr	r0, [r7, #12]
 3709 00b4 0821     		movs	r1, #8
 3710 00b6 FFF7FEFF 		bl	CastMoneyValue
 3711              	.L135:
1017:.\PrimeImpl.c ****                     
1018:.\PrimeImpl.c ****             }
1019:.\PrimeImpl.c ****             ppump->_presetdone = true;
 3712              		.loc 1 1019 0
 3713 00ba BB69     		ldr	r3, [r7, #24]
 3714 00bc 0122     		movs	r2, #1
 3715 00be 9A72     		strb	r2, [r3, #10]
1020:.\PrimeImpl.c ****                 
1021:.\PrimeImpl.c ****             FOR(uint8 buffndx = 0, buffndx < 0x08, buffndx++)
 3716              		.loc 1 1021 0
 3717 00c0 0023     		movs	r3, #0
 3718 00c2 BB77     		strb	r3, [r7, #30]
 3719 00c4 18E0     		b	.L137
 3720              	.L138:
1022:.\PrimeImpl.c ****                 puartdisp->_messagetx[index++] = (0xE0 | (ptr[7 - buffndx] & 0x0F)); //Translate fr
 3721              		.loc 1 1022 0 discriminator 3
 3722 00c6 FB7F     		ldrb	r3, [r7, #31]	@ zero_extendqisi2
 3723 00c8 5A1C     		adds	r2, r3, #1
 3724 00ca FA77     		strb	r2, [r7, #31]
 3725 00cc 1946     		mov	r1, r3
 3726 00ce BB7F     		ldrb	r3, [r7, #30]	@ zero_extendqisi2
 3727 00d0 C3F10703 		rsb	r3, r3, #7
 3728 00d4 1A46     		mov	r2, r3
 3729 00d6 FB68     		ldr	r3, [r7, #12]
 3730 00d8 1344     		add	r3, r3, r2
 3731 00da 1B78     		ldrb	r3, [r3]	@ zero_extendqisi2
 3732 00dc DBB2     		uxtb	r3, r3
 3733 00de 03F00F03 		and	r3, r3, #15
 3734 00e2 DBB2     		uxtb	r3, r3
 3735 00e4 63F01F03 		orn	r3, r3, #31
 3736 00e8 DBB2     		uxtb	r3, r3
 3737 00ea DAB2     		uxtb	r2, r3
 3738 00ec 7B69     		ldr	r3, [r7, #20]
 3739 00ee 0B44     		add	r3, r3, r1
 3740 00f0 1A71     		strb	r2, [r3, #4]
1021:.\PrimeImpl.c ****                 puartdisp->_messagetx[index++] = (0xE0 | (ptr[7 - buffndx] & 0x0F)); //Translate fr
 3741              		.loc 1 1021 0 discriminator 3
 3742 00f2 BB7F     		ldrb	r3, [r7, #30]	@ zero_extendqisi2
 3743 00f4 0133     		adds	r3, r3, #1
 3744 00f6 BB77     		strb	r3, [r7, #30]
 3745              	.L137:
1021:.\PrimeImpl.c ****                 puartdisp->_messagetx[index++] = (0xE0 | (ptr[7 - buffndx] & 0x0F)); //Translate fr
 3746              		.loc 1 1021 0 is_stmt 0 discriminator 1
 3747 00f8 BB7F     		ldrb	r3, [r7, #30]	@ zero_extendqisi2
 3748 00fa 072B     		cmp	r3, #7
 3749 00fc E3D9     		bls	.L138
1023:.\PrimeImpl.c **** 
1024:.\PrimeImpl.c ****             puartdisp->_messagetx[index++] = LRCn; //LRC next
 3750              		.loc 1 1024 0 is_stmt 1
ARM GAS  C:\Users\RECEPC~1\AppData\Local\Temp\ccEI1MLs.s 			page 85


 3751 00fe FB7F     		ldrb	r3, [r7, #31]	@ zero_extendqisi2
 3752 0100 5A1C     		adds	r2, r3, #1
 3753 0102 FA77     		strb	r2, [r7, #31]
 3754 0104 1A46     		mov	r2, r3
 3755 0106 7B69     		ldr	r3, [r7, #20]
 3756 0108 1344     		add	r3, r3, r2
 3757 010a FB22     		movs	r2, #251
 3758 010c 1A71     		strb	r2, [r3, #4]
1025:.\PrimeImpl.c ****             puartdisp->_messagetx[index++] = GetLRC(puartdisp->_messagetx);
 3759              		.loc 1 1025 0
 3760 010e FB7F     		ldrb	r3, [r7, #31]	@ zero_extendqisi2
 3761 0110 5A1C     		adds	r2, r3, #1
 3762 0112 FA77     		strb	r2, [r7, #31]
 3763 0114 1C46     		mov	r4, r3
 3764 0116 7B69     		ldr	r3, [r7, #20]
 3765 0118 0433     		adds	r3, r3, #4
 3766 011a 1846     		mov	r0, r3
 3767 011c FFF7FEFF 		bl	GetLRC
 3768 0120 0346     		mov	r3, r0
 3769 0122 1A46     		mov	r2, r3
 3770 0124 7B69     		ldr	r3, [r7, #20]
 3771 0126 2344     		add	r3, r3, r4
 3772 0128 1A71     		strb	r2, [r3, #4]
1026:.\PrimeImpl.c ****             puartdisp->_messagetx[index++] = EOM;
 3773              		.loc 1 1026 0
 3774 012a FB7F     		ldrb	r3, [r7, #31]	@ zero_extendqisi2
 3775 012c 5A1C     		adds	r2, r3, #1
 3776 012e FA77     		strb	r2, [r7, #31]
 3777 0130 1A46     		mov	r2, r3
 3778 0132 7B69     		ldr	r3, [r7, #20]
 3779 0134 1344     		add	r3, r3, r2
 3780 0136 F022     		movs	r2, #240
 3781 0138 1A71     		strb	r2, [r3, #4]
1027:.\PrimeImpl.c **** ///////////////////////////////////////////////////////////////////////////////////////////////////
1028:.\PrimeImpl.c ****             
1029:.\PrimeImpl.c ****             puartdisp->_messagelength = index;
 3782              		.loc 1 1029 0
 3783 013a FB7F     		ldrb	r3, [r7, #31]	@ zero_extendqisi2
 3784 013c 9AB2     		uxth	r2, r3
 3785 013e 7B69     		ldr	r3, [r7, #20]
 3786 0140 5A80     		strh	r2, [r3, #2]	@ movhi
1030:.\PrimeImpl.c ****             puartdisp->_messagestate = PENDING;
 3787              		.loc 1 1030 0
 3788 0142 7B69     		ldr	r3, [r7, #20]
 3789 0144 C222     		movs	r2, #194
 3790 0146 1A70     		strb	r2, [r3]
 3791              	.L131:
 3792              	.LBE21:
 3793              	.LBE20:
1031:.\PrimeImpl.c ****         }
1032:.\PrimeImpl.c ****     }
1033:.\PrimeImpl.c ****     
1034:.\PrimeImpl.c **** }
 3794              		.loc 1 1034 0
 3795 0148 2437     		adds	r7, r7, #36
 3796              		.cfi_def_cfa_offset 12
 3797 014a BD46     		mov	sp, r7
ARM GAS  C:\Users\RECEPC~1\AppData\Local\Temp\ccEI1MLs.s 			page 86


 3798              		.cfi_def_cfa_register 13
 3799              		@ sp needed
 3800 014c 90BD     		pop	{r4, r7, pc}
 3801              		.cfi_endproc
 3802              	.LFE85:
 3803              		.size	PumpPresetNoHose, .-PumpPresetNoHose
 3804 014e 00BF     		.section	.text.PumpPresetNotification,"ax",%progbits
 3805              		.align	2
 3806              		.global	PumpPresetNotification
 3807              		.thumb
 3808              		.thumb_func
 3809              		.type	PumpPresetNotification, %function
 3810              	PumpPresetNotification:
 3811              	.LFB86:
1035:.\PrimeImpl.c **** 
1036:.\PrimeImpl.c **** //@Created By: HIJH
1037:.\PrimeImpl.c **** //@Septembre de 2016
1038:.\PrimeImpl.c **** //Message to be notified to the remote peer (NSX)
1039:.\PrimeImpl.c **** void PumpPresetNotification(LPVOID pparam)
1040:.\PrimeImpl.c **** {
 3812              		.loc 1 1040 0
 3813              		.cfi_startproc
 3814              		@ args = 0, pretend = 0, frame = 24
 3815              		@ frame_needed = 1, uses_anonymous_args = 0
 3816 0000 B0B5     		push	{r4, r5, r7, lr}
 3817              		.cfi_def_cfa_offset 16
 3818              		.cfi_offset 4, -16
 3819              		.cfi_offset 5, -12
 3820              		.cfi_offset 7, -8
 3821              		.cfi_offset 14, -4
 3822 0002 86B0     		sub	sp, sp, #24
 3823              		.cfi_def_cfa_offset 40
 3824 0004 00AF     		add	r7, sp, #0
 3825              		.cfi_def_cfa_register 7
 3826 0006 7860     		str	r0, [r7, #4]
1041:.\PrimeImpl.c ****     PPUMPTRANSACTIONJOBCONTEXTPTR pjob = (PPUMPTRANSACTIONJOBCONTEXTPTR)pparam;
 3827              		.loc 1 1041 0
 3828 0008 7B68     		ldr	r3, [r7, #4]
 3829 000a 7B61     		str	r3, [r7, #20]
1042:.\PrimeImpl.c ****     if(pjob)
 3830              		.loc 1 1042 0
 3831 000c 7B69     		ldr	r3, [r7, #20]
 3832 000e 002B     		cmp	r3, #0
 3833 0010 00F0CE80 		beq	.L139
 3834              	.LBB22:
1043:.\PrimeImpl.c ****     {
1044:.\PrimeImpl.c ****         //HERE WE ATTEMPT TO PUSH THE TRANSACTION INTO THE PUMP'S TRANSACTIONAL QUEUE.
1045:.\PrimeImpl.c ****         //THIS IS DONE ONLY IF THERE IS ROOM IN THE QUEUE, OTHERWISE THIS STATE WON'T
1046:.\PrimeImpl.c ****         //BE REPORTED TO THE REMOTE PEER.
1047:.\PrimeImpl.c ****         pjob->_ppump->PumpTransQueueLock(pjob->_ppump);
 3835              		.loc 1 1047 0
 3836 0014 7B69     		ldr	r3, [r7, #20]
 3837 0016 DB69     		ldr	r3, [r3, #28]
 3838 0018 D3F8143B 		ldr	r3, [r3, #2836]
 3839 001c 7A69     		ldr	r2, [r7, #20]
 3840 001e D269     		ldr	r2, [r2, #28]
 3841 0020 1046     		mov	r0, r2
ARM GAS  C:\Users\RECEPC~1\AppData\Local\Temp\ccEI1MLs.s 			page 87


 3842 0022 9847     		blx	r3
1048:.\PrimeImpl.c ****         PNEAR_PUMPTRANSACTIONALSTATEPTR pts = pjob->_ppump->PumpTransQueueAllocate(pjob->_ppump);
 3843              		.loc 1 1048 0
 3844 0024 7B69     		ldr	r3, [r7, #20]
 3845 0026 DB69     		ldr	r3, [r3, #28]
 3846 0028 D3F8283B 		ldr	r3, [r3, #2856]
 3847 002c 7A69     		ldr	r2, [r7, #20]
 3848 002e D269     		ldr	r2, [r2, #28]
 3849 0030 1046     		mov	r0, r2
 3850 0032 9847     		blx	r3
 3851 0034 3861     		str	r0, [r7, #16]
1049:.\PrimeImpl.c ****         pjob->_ppump->PumpTransQueueUnlock(pjob->_ppump);
 3852              		.loc 1 1049 0
 3853 0036 7B69     		ldr	r3, [r7, #20]
 3854 0038 DB69     		ldr	r3, [r3, #28]
 3855 003a D3F8183B 		ldr	r3, [r3, #2840]
 3856 003e 7A69     		ldr	r2, [r7, #20]
 3857 0040 D269     		ldr	r2, [r2, #28]
 3858 0042 1046     		mov	r0, r2
 3859 0044 9847     		blx	r3
1050:.\PrimeImpl.c ****         if(pts)
 3860              		.loc 1 1050 0
 3861 0046 3B69     		ldr	r3, [r7, #16]
 3862 0048 002B     		cmp	r3, #0
 3863 004a 00F0B180 		beq	.L139
 3864              	.LBB23:
1051:.\PrimeImpl.c ****         {
1052:.\PrimeImpl.c ****             uint8 index = 0;
 3865              		.loc 1 1052 0
 3866 004e 0023     		movs	r3, #0
 3867 0050 FB73     		strb	r3, [r7, #15]
1053:.\PrimeImpl.c ****             pts->_transtate = RF_MUX_CASH_SALE_START_REQUEST;
 3868              		.loc 1 1053 0
 3869 0052 3B69     		ldr	r3, [r7, #16]
 3870 0054 AA22     		movs	r2, #170
 3871 0056 5A70     		strb	r2, [r3, #1]
1054:.\PrimeImpl.c ****             //Pump ID always comes in position 0x00
1055:.\PrimeImpl.c ****             pts->_buffer[index++] = pjob->_ppump->_pumpid;
 3872              		.loc 1 1055 0
 3873 0058 FB7B     		ldrb	r3, [r7, #15]	@ zero_extendqisi2
 3874 005a 5A1C     		adds	r2, r3, #1
 3875 005c FA73     		strb	r2, [r7, #15]
 3876 005e 1946     		mov	r1, r3
 3877 0060 7B69     		ldr	r3, [r7, #20]
 3878 0062 DB69     		ldr	r3, [r3, #28]
 3879 0064 1A78     		ldrb	r2, [r3]	@ zero_extendqisi2
 3880 0066 3B69     		ldr	r3, [r7, #16]
 3881 0068 0B44     		add	r3, r3, r1
 3882 006a 9A70     		strb	r2, [r3, #2]
1056:.\PrimeImpl.c ****             //PRESET type
1057:.\PrimeImpl.c ****             pts->_buffer[index++] = (0xF0 | ((pjob->_ppump->_trasactionbuffer[0x0004] == 0x0F)? 0x0
 3883              		.loc 1 1057 0
 3884 006c FB7B     		ldrb	r3, [r7, #15]	@ zero_extendqisi2
 3885 006e 5A1C     		adds	r2, r3, #1
 3886 0070 FA73     		strb	r2, [r7, #15]
 3887 0072 1946     		mov	r1, r3
 3888 0074 7B69     		ldr	r3, [r7, #20]
ARM GAS  C:\Users\RECEPC~1\AppData\Local\Temp\ccEI1MLs.s 			page 88


 3889 0076 DB69     		ldr	r3, [r3, #28]
 3890 0078 93F82430 		ldrb	r3, [r3, #36]	@ zero_extendqisi2
 3891 007c 0F2B     		cmp	r3, #15
 3892 007e 01D1     		bne	.L141
 3893              		.loc 1 1057 0 is_stmt 0 discriminator 1
 3894 0080 F222     		movs	r2, #242
 3895 0082 00E0     		b	.L142
 3896              	.L141:
 3897              		.loc 1 1057 0 discriminator 2
 3898 0084 F122     		movs	r2, #241
 3899              	.L142:
 3900              		.loc 1 1057 0 discriminator 4
 3901 0086 3B69     		ldr	r3, [r7, #16]
 3902 0088 0B44     		add	r3, r3, r1
 3903 008a 9A70     		strb	r2, [r3, #2]
1058:.\PrimeImpl.c ****             
1059:.\PrimeImpl.c ****             //PRESET value (8 bytes)
1060:.\PrimeImpl.c ****             PSTRBUFFTOGG(PBYTECAST(&pjob->_ppump->_trasactionbuffer[0x0008]), 0x08);
 3904              		.loc 1 1060 0 is_stmt 1 discriminator 4
 3905 008c 7B69     		ldr	r3, [r7, #20]
 3906 008e DB69     		ldr	r3, [r3, #28]
 3907 0090 2833     		adds	r3, r3, #40
 3908 0092 1846     		mov	r0, r3
 3909 0094 0821     		movs	r1, #8
 3910 0096 FFF7FEFF 		bl	PSTRBUFFTOGG
1061:.\PrimeImpl.c ****             memcpy(&pts->_buffer[index], &pjob->_ppump->_trasactionbuffer[0x0008], 0x08);
 3911              		.loc 1 1061 0 discriminator 4
 3912 009a FB7B     		ldrb	r3, [r7, #15]	@ zero_extendqisi2
 3913 009c 3A69     		ldr	r2, [r7, #16]
 3914 009e 1344     		add	r3, r3, r2
 3915 00a0 9A1C     		adds	r2, r3, #2
 3916 00a2 7B69     		ldr	r3, [r7, #20]
 3917 00a4 DB69     		ldr	r3, [r3, #28]
 3918 00a6 2833     		adds	r3, r3, #40
 3919 00a8 1046     		mov	r0, r2
 3920 00aa 1946     		mov	r1, r3
 3921 00ac 0822     		movs	r2, #8
 3922 00ae FFF7FEFF 		bl	memcpy
1062:.\PrimeImpl.c ****             index += 0x08;
 3923              		.loc 1 1062 0 discriminator 4
 3924 00b2 FB7B     		ldrb	r3, [r7, #15]
 3925 00b4 0833     		adds	r3, r3, #8
 3926 00b6 FB73     		strb	r3, [r7, #15]
1063:.\PrimeImpl.c ****             //Car's Plate
1064:.\PrimeImpl.c ****             memcpy(&pts->_buffer[index], &pjob->_ppump->_trasactionbuffer[GetBufferIndexFromDisplay
 3927              		.loc 1 1064 0 discriminator 4
 3928 00b8 FB7B     		ldrb	r3, [r7, #15]	@ zero_extendqisi2
 3929 00ba 3A69     		ldr	r2, [r7, #16]
 3930 00bc 1344     		add	r3, r3, r2
 3931 00be 9D1C     		adds	r5, r3, #2
 3932 00c0 7B69     		ldr	r3, [r7, #20]
 3933 00c2 DC69     		ldr	r4, [r3, #28]
 3934 00c4 0A20     		movs	r0, #10
 3935 00c6 FFF7FEFF 		bl	GetBufferIndexFromDisplayID
 3936 00ca 0346     		mov	r3, r0
 3937 00cc 2033     		adds	r3, r3, #32
 3938 00ce 1C44     		add	r4, r4, r3
ARM GAS  C:\Users\RECEPC~1\AppData\Local\Temp\ccEI1MLs.s 			page 89


 3939 00d0 0A20     		movs	r0, #10
 3940 00d2 FFF7FEFF 		bl	GetBufferLengthFromDisplayID
 3941 00d6 0346     		mov	r3, r0
 3942 00d8 2846     		mov	r0, r5
 3943 00da 2146     		mov	r1, r4
 3944 00dc 1A46     		mov	r2, r3
 3945 00de FFF7FEFF 		bl	memcpy
1065:.\PrimeImpl.c ****             index += GetBufferLengthFromDisplayID(DISPLAY_DIGITE_PLACA);
 3946              		.loc 1 1065 0 discriminator 4
 3947 00e2 0A20     		movs	r0, #10
 3948 00e4 FFF7FEFF 		bl	GetBufferLengthFromDisplayID
 3949 00e8 0346     		mov	r3, r0
 3950 00ea 1A46     		mov	r2, r3
 3951 00ec FB7B     		ldrb	r3, [r7, #15]
 3952 00ee 1344     		add	r3, r3, r2
 3953 00f0 FB73     		strb	r3, [r7, #15]
1066:.\PrimeImpl.c ****             pts->_buffer[index] = index;
 3954              		.loc 1 1066 0 discriminator 4
 3955 00f2 FB7B     		ldrb	r3, [r7, #15]	@ zero_extendqisi2
 3956 00f4 3A69     		ldr	r2, [r7, #16]
 3957 00f6 1344     		add	r3, r3, r2
 3958 00f8 FA7B     		ldrb	r2, [r7, #15]
 3959 00fa 9A70     		strb	r2, [r3, #2]
1067:.\PrimeImpl.c ****             //Car's Milleage
1068:.\PrimeImpl.c ****             memcpy(&pts->_buffer[index], &pjob->_ppump->_trasactionbuffer[GetBufferIndexFromDisplay
 3960              		.loc 1 1068 0 discriminator 4
 3961 00fc FB7B     		ldrb	r3, [r7, #15]	@ zero_extendqisi2
 3962 00fe 3A69     		ldr	r2, [r7, #16]
 3963 0100 1344     		add	r3, r3, r2
 3964 0102 9D1C     		adds	r5, r3, #2
 3965 0104 7B69     		ldr	r3, [r7, #20]
 3966 0106 DC69     		ldr	r4, [r3, #28]
 3967 0108 0E20     		movs	r0, #14
 3968 010a FFF7FEFF 		bl	GetBufferIndexFromDisplayID
 3969 010e 0346     		mov	r3, r0
 3970 0110 2033     		adds	r3, r3, #32
 3971 0112 1C44     		add	r4, r4, r3
 3972 0114 0E20     		movs	r0, #14
 3973 0116 FFF7FEFF 		bl	GetBufferLengthFromDisplayID
 3974 011a 0346     		mov	r3, r0
 3975 011c 2846     		mov	r0, r5
 3976 011e 2146     		mov	r1, r4
 3977 0120 1A46     		mov	r2, r3
 3978 0122 FFF7FEFF 		bl	memcpy
1069:.\PrimeImpl.c ****             index += GetBufferLengthFromDisplayID(DISPLAY_INTRODUZCA_KILOMETRAJE);
 3979              		.loc 1 1069 0 discriminator 4
 3980 0126 0E20     		movs	r0, #14
 3981 0128 FFF7FEFF 		bl	GetBufferLengthFromDisplayID
 3982 012c 0346     		mov	r3, r0
 3983 012e 1A46     		mov	r2, r3
 3984 0130 FB7B     		ldrb	r3, [r7, #15]
 3985 0132 1344     		add	r3, r3, r2
 3986 0134 FB73     		strb	r3, [r7, #15]
1070:.\PrimeImpl.c ****             
1071:.\PrimeImpl.c ****             pts->_buffersize = index;
 3987              		.loc 1 1071 0 discriminator 4
 3988 0136 FB7B     		ldrb	r3, [r7, #15]	@ zero_extendqisi2
ARM GAS  C:\Users\RECEPC~1\AppData\Local\Temp\ccEI1MLs.s 			page 90


 3989 0138 9AB2     		uxth	r2, r3
 3990 013a 3B69     		ldr	r3, [r7, #16]
 3991 013c A3F80221 		strh	r2, [r3, #258]	@ movhi
1072:.\PrimeImpl.c ****             
1073:.\PrimeImpl.c ****             PNEAR_PUMPTRANSACTIONALSTATEPTR ptstemp = pjob->_ppump->PumpTransQueueAllocate(pjob->_p
 3992              		.loc 1 1073 0 discriminator 4
 3993 0140 7B69     		ldr	r3, [r7, #20]
 3994 0142 DB69     		ldr	r3, [r3, #28]
 3995 0144 D3F8283B 		ldr	r3, [r3, #2856]
 3996 0148 7A69     		ldr	r2, [r7, #20]
 3997 014a D269     		ldr	r2, [r2, #28]
 3998 014c 1046     		mov	r0, r2
 3999 014e 9847     		blx	r3
 4000 0150 B860     		str	r0, [r7, #8]
1074:.\PrimeImpl.c ****             if(ptstemp)
 4001              		.loc 1 1074 0 discriminator 4
 4002 0152 BB68     		ldr	r3, [r7, #8]
 4003 0154 002B     		cmp	r3, #0
 4004 0156 22D0     		beq	.L143
1075:.\PrimeImpl.c ****             {
1076:.\PrimeImpl.c ****                 pjob->_ppump->PumpTransQueueDeallocate(pjob->_ppump,ptstemp);
 4005              		.loc 1 1076 0
 4006 0158 7B69     		ldr	r3, [r7, #20]
 4007 015a DB69     		ldr	r3, [r3, #28]
 4008 015c D3F8243B 		ldr	r3, [r3, #2852]
 4009 0160 7A69     		ldr	r2, [r7, #20]
 4010 0162 D269     		ldr	r2, [r2, #28]
 4011 0164 1046     		mov	r0, r2
 4012 0166 B968     		ldr	r1, [r7, #8]
 4013 0168 9847     		blx	r3
1077:.\PrimeImpl.c ****                 pjob->_ppump->PumpTransQueueLock(pjob->_ppump);
 4014              		.loc 1 1077 0
 4015 016a 7B69     		ldr	r3, [r7, #20]
 4016 016c DB69     		ldr	r3, [r3, #28]
 4017 016e D3F8143B 		ldr	r3, [r3, #2836]
 4018 0172 7A69     		ldr	r2, [r7, #20]
 4019 0174 D269     		ldr	r2, [r2, #28]
 4020 0176 1046     		mov	r0, r2
 4021 0178 9847     		blx	r3
1078:.\PrimeImpl.c ****                 pjob->_ppump->PumpTransQueueEnqueue(pjob->_ppump, pts);
 4022              		.loc 1 1078 0
 4023 017a 7B69     		ldr	r3, [r7, #20]
 4024 017c DB69     		ldr	r3, [r3, #28]
 4025 017e D3F8203B 		ldr	r3, [r3, #2848]
 4026 0182 7A69     		ldr	r2, [r7, #20]
 4027 0184 D269     		ldr	r2, [r2, #28]
 4028 0186 1046     		mov	r0, r2
 4029 0188 3969     		ldr	r1, [r7, #16]
 4030 018a 9847     		blx	r3
1079:.\PrimeImpl.c ****                 pjob->_ppump->PumpTransQueueUnlock(pjob->_ppump);
 4031              		.loc 1 1079 0
 4032 018c 7B69     		ldr	r3, [r7, #20]
 4033 018e DB69     		ldr	r3, [r3, #28]
 4034 0190 D3F8183B 		ldr	r3, [r3, #2840]
 4035 0194 7A69     		ldr	r2, [r7, #20]
 4036 0196 D269     		ldr	r2, [r2, #28]
 4037 0198 1046     		mov	r0, r2
ARM GAS  C:\Users\RECEPC~1\AppData\Local\Temp\ccEI1MLs.s 			page 91


 4038 019a 9847     		blx	r3
 4039 019c 08E0     		b	.L139
 4040              	.L143:
1080:.\PrimeImpl.c ****             }else
1081:.\PrimeImpl.c ****                 pjob->_ppump->PumpTransQueueDeallocate(pjob->_ppump, pts);
 4041              		.loc 1 1081 0
 4042 019e 7B69     		ldr	r3, [r7, #20]
 4043 01a0 DB69     		ldr	r3, [r3, #28]
 4044 01a2 D3F8243B 		ldr	r3, [r3, #2852]
 4045 01a6 7A69     		ldr	r2, [r7, #20]
 4046 01a8 D269     		ldr	r2, [r2, #28]
 4047 01aa 1046     		mov	r0, r2
 4048 01ac 3969     		ldr	r1, [r7, #16]
 4049 01ae 9847     		blx	r3
 4050              	.L139:
 4051              	.LBE23:
 4052              	.LBE22:
1082:.\PrimeImpl.c ****         }
1083:.\PrimeImpl.c ****     }
1084:.\PrimeImpl.c **** }
 4053              		.loc 1 1084 0
 4054 01b0 1837     		adds	r7, r7, #24
 4055              		.cfi_def_cfa_offset 16
 4056 01b2 BD46     		mov	sp, r7
 4057              		.cfi_def_cfa_register 13
 4058              		@ sp needed
 4059 01b4 B0BD     		pop	{r4, r5, r7, pc}
 4060              		.cfi_endproc
 4061              	.LFE86:
 4062              		.size	PumpPresetNotification, .-PumpPresetNotification
 4063 01b6 00BF     		.section	.text.PumpCreditPresetNotification,"ax",%progbits
 4064              		.align	2
 4065              		.global	PumpCreditPresetNotification
 4066              		.thumb
 4067              		.thumb_func
 4068              		.type	PumpCreditPresetNotification, %function
 4069              	PumpCreditPresetNotification:
 4070              	.LFB87:
1085:.\PrimeImpl.c **** 
1086:.\PrimeImpl.c **** 
1087:.\PrimeImpl.c **** //@Created By: HIJH
1088:.\PrimeImpl.c **** //@Septembre de 2016
1089:.\PrimeImpl.c **** //Message to be notified to the remote peer (NSX)
1090:.\PrimeImpl.c **** void PumpCreditPresetNotification(LPVOID pparam)
1091:.\PrimeImpl.c **** {
 4071              		.loc 1 1091 0
 4072              		.cfi_startproc
 4073              		@ args = 0, pretend = 0, frame = 24
 4074              		@ frame_needed = 1, uses_anonymous_args = 0
 4075 0000 80B5     		push	{r7, lr}
 4076              		.cfi_def_cfa_offset 8
 4077              		.cfi_offset 7, -8
 4078              		.cfi_offset 14, -4
 4079 0002 86B0     		sub	sp, sp, #24
 4080              		.cfi_def_cfa_offset 32
 4081 0004 00AF     		add	r7, sp, #0
 4082              		.cfi_def_cfa_register 7
ARM GAS  C:\Users\RECEPC~1\AppData\Local\Temp\ccEI1MLs.s 			page 92


 4083 0006 7860     		str	r0, [r7, #4]
1092:.\PrimeImpl.c ****     PPUMPTRANSACTIONJOBCONTEXTPTR pjob = (PPUMPTRANSACTIONJOBCONTEXTPTR)pparam;
 4084              		.loc 1 1092 0
 4085 0008 7B68     		ldr	r3, [r7, #4]
 4086 000a 7B61     		str	r3, [r7, #20]
1093:.\PrimeImpl.c ****     if(pjob)
 4087              		.loc 1 1093 0
 4088 000c 7B69     		ldr	r3, [r7, #20]
 4089 000e 002B     		cmp	r3, #0
 4090 0010 67D0     		beq	.L144
 4091              	.LBB24:
1094:.\PrimeImpl.c ****     {
1095:.\PrimeImpl.c ****         //HERE WE ATTEMPT TO PUSH THE TRANSACTION INTO THE PUMP'S TRANSACTIONAL QUEUE.
1096:.\PrimeImpl.c ****         //THIS IS DONE ONLY IF THERE IS ROOM IN THE QUEUE, OTHERWISE THIS STATE WON'T
1097:.\PrimeImpl.c ****         //BE REPORTED TO THE REMOTE PEER.
1098:.\PrimeImpl.c ****         pjob->_ppump->PumpTransQueueLock(pjob->_ppump);
 4092              		.loc 1 1098 0
 4093 0012 7B69     		ldr	r3, [r7, #20]
 4094 0014 DB69     		ldr	r3, [r3, #28]
 4095 0016 D3F8143B 		ldr	r3, [r3, #2836]
 4096 001a 7A69     		ldr	r2, [r7, #20]
 4097 001c D269     		ldr	r2, [r2, #28]
 4098 001e 1046     		mov	r0, r2
 4099 0020 9847     		blx	r3
1099:.\PrimeImpl.c ****         PNEAR_PUMPTRANSACTIONALSTATEPTR pts = pjob->_ppump->PumpTransQueueAllocate(pjob->_ppump);
 4100              		.loc 1 1099 0
 4101 0022 7B69     		ldr	r3, [r7, #20]
 4102 0024 DB69     		ldr	r3, [r3, #28]
 4103 0026 D3F8283B 		ldr	r3, [r3, #2856]
 4104 002a 7A69     		ldr	r2, [r7, #20]
 4105 002c D269     		ldr	r2, [r2, #28]
 4106 002e 1046     		mov	r0, r2
 4107 0030 9847     		blx	r3
 4108 0032 3861     		str	r0, [r7, #16]
1100:.\PrimeImpl.c ****         pjob->_ppump->PumpTransQueueUnlock(pjob->_ppump);
 4109              		.loc 1 1100 0
 4110 0034 7B69     		ldr	r3, [r7, #20]
 4111 0036 DB69     		ldr	r3, [r3, #28]
 4112 0038 D3F8183B 		ldr	r3, [r3, #2840]
 4113 003c 7A69     		ldr	r2, [r7, #20]
 4114 003e D269     		ldr	r2, [r2, #28]
 4115 0040 1046     		mov	r0, r2
 4116 0042 9847     		blx	r3
1101:.\PrimeImpl.c ****         if(pts)
 4117              		.loc 1 1101 0
 4118 0044 3B69     		ldr	r3, [r7, #16]
 4119 0046 002B     		cmp	r3, #0
 4120 0048 4BD0     		beq	.L144
 4121              	.LBB25:
1102:.\PrimeImpl.c ****         {
1103:.\PrimeImpl.c ****             uint8 index = 0;
 4122              		.loc 1 1103 0
 4123 004a 0023     		movs	r3, #0
 4124 004c FB73     		strb	r3, [r7, #15]
1104:.\PrimeImpl.c ****             pts->_transtate = RF_MUX_CREDIT_PRESET_NOTIFICATION_REQUEST;
 4125              		.loc 1 1104 0
 4126 004e 3B69     		ldr	r3, [r7, #16]
ARM GAS  C:\Users\RECEPC~1\AppData\Local\Temp\ccEI1MLs.s 			page 93


 4127 0050 AE22     		movs	r2, #174
 4128 0052 5A70     		strb	r2, [r3, #1]
1105:.\PrimeImpl.c ****             //Pump ID always comes in position 0x00
1106:.\PrimeImpl.c ****             pts->_buffer[index++] = pjob->_ppump->_pumpid;
 4129              		.loc 1 1106 0
 4130 0054 FB7B     		ldrb	r3, [r7, #15]	@ zero_extendqisi2
 4131 0056 5A1C     		adds	r2, r3, #1
 4132 0058 FA73     		strb	r2, [r7, #15]
 4133 005a 1946     		mov	r1, r3
 4134 005c 7B69     		ldr	r3, [r7, #20]
 4135 005e DB69     		ldr	r3, [r3, #28]
 4136 0060 1A78     		ldrb	r2, [r3]	@ zero_extendqisi2
 4137 0062 3B69     		ldr	r3, [r7, #16]
 4138 0064 0B44     		add	r3, r3, r1
 4139 0066 9A70     		strb	r2, [r3, #2]
1107:.\PrimeImpl.c ****             pts->_buffersize = index;
 4140              		.loc 1 1107 0
 4141 0068 FB7B     		ldrb	r3, [r7, #15]	@ zero_extendqisi2
 4142 006a 9AB2     		uxth	r2, r3
 4143 006c 3B69     		ldr	r3, [r7, #16]
 4144 006e A3F80221 		strh	r2, [r3, #258]	@ movhi
1108:.\PrimeImpl.c ****             
1109:.\PrimeImpl.c ****             PNEAR_PUMPTRANSACTIONALSTATEPTR ptstemp = pjob->_ppump->PumpTransQueueAllocate(pjob->_p
 4145              		.loc 1 1109 0
 4146 0072 7B69     		ldr	r3, [r7, #20]
 4147 0074 DB69     		ldr	r3, [r3, #28]
 4148 0076 D3F8283B 		ldr	r3, [r3, #2856]
 4149 007a 7A69     		ldr	r2, [r7, #20]
 4150 007c D269     		ldr	r2, [r2, #28]
 4151 007e 1046     		mov	r0, r2
 4152 0080 9847     		blx	r3
 4153 0082 B860     		str	r0, [r7, #8]
1110:.\PrimeImpl.c ****             if(ptstemp)
 4154              		.loc 1 1110 0
 4155 0084 BB68     		ldr	r3, [r7, #8]
 4156 0086 002B     		cmp	r3, #0
 4157 0088 22D0     		beq	.L146
1111:.\PrimeImpl.c ****             {
1112:.\PrimeImpl.c ****                 pjob->_ppump->PumpTransQueueDeallocate(pjob->_ppump,ptstemp);
 4158              		.loc 1 1112 0
 4159 008a 7B69     		ldr	r3, [r7, #20]
 4160 008c DB69     		ldr	r3, [r3, #28]
 4161 008e D3F8243B 		ldr	r3, [r3, #2852]
 4162 0092 7A69     		ldr	r2, [r7, #20]
 4163 0094 D269     		ldr	r2, [r2, #28]
 4164 0096 1046     		mov	r0, r2
 4165 0098 B968     		ldr	r1, [r7, #8]
 4166 009a 9847     		blx	r3
1113:.\PrimeImpl.c ****                 pjob->_ppump->PumpTransQueueLock(pjob->_ppump);
 4167              		.loc 1 1113 0
 4168 009c 7B69     		ldr	r3, [r7, #20]
 4169 009e DB69     		ldr	r3, [r3, #28]
 4170 00a0 D3F8143B 		ldr	r3, [r3, #2836]
 4171 00a4 7A69     		ldr	r2, [r7, #20]
 4172 00a6 D269     		ldr	r2, [r2, #28]
 4173 00a8 1046     		mov	r0, r2
 4174 00aa 9847     		blx	r3
ARM GAS  C:\Users\RECEPC~1\AppData\Local\Temp\ccEI1MLs.s 			page 94


1114:.\PrimeImpl.c ****                 pjob->_ppump->PumpTransQueueEnqueue(pjob->_ppump, pts);
 4175              		.loc 1 1114 0
 4176 00ac 7B69     		ldr	r3, [r7, #20]
 4177 00ae DB69     		ldr	r3, [r3, #28]
 4178 00b0 D3F8203B 		ldr	r3, [r3, #2848]
 4179 00b4 7A69     		ldr	r2, [r7, #20]
 4180 00b6 D269     		ldr	r2, [r2, #28]
 4181 00b8 1046     		mov	r0, r2
 4182 00ba 3969     		ldr	r1, [r7, #16]
 4183 00bc 9847     		blx	r3
1115:.\PrimeImpl.c ****                 pjob->_ppump->PumpTransQueueUnlock(pjob->_ppump);
 4184              		.loc 1 1115 0
 4185 00be 7B69     		ldr	r3, [r7, #20]
 4186 00c0 DB69     		ldr	r3, [r3, #28]
 4187 00c2 D3F8183B 		ldr	r3, [r3, #2840]
 4188 00c6 7A69     		ldr	r2, [r7, #20]
 4189 00c8 D269     		ldr	r2, [r2, #28]
 4190 00ca 1046     		mov	r0, r2
 4191 00cc 9847     		blx	r3
 4192 00ce 08E0     		b	.L144
 4193              	.L146:
1116:.\PrimeImpl.c ****             }else
1117:.\PrimeImpl.c ****                 pjob->_ppump->PumpTransQueueDeallocate(pjob->_ppump, pts);
 4194              		.loc 1 1117 0
 4195 00d0 7B69     		ldr	r3, [r7, #20]
 4196 00d2 DB69     		ldr	r3, [r3, #28]
 4197 00d4 D3F8243B 		ldr	r3, [r3, #2852]
 4198 00d8 7A69     		ldr	r2, [r7, #20]
 4199 00da D269     		ldr	r2, [r2, #28]
 4200 00dc 1046     		mov	r0, r2
 4201 00de 3969     		ldr	r1, [r7, #16]
 4202 00e0 9847     		blx	r3
 4203              	.L144:
 4204              	.LBE25:
 4205              	.LBE24:
1118:.\PrimeImpl.c ****         }
1119:.\PrimeImpl.c ****     }
1120:.\PrimeImpl.c **** }
 4206              		.loc 1 1120 0
 4207 00e2 1837     		adds	r7, r7, #24
 4208              		.cfi_def_cfa_offset 8
 4209 00e4 BD46     		mov	sp, r7
 4210              		.cfi_def_cfa_register 13
 4211              		@ sp needed
 4212 00e6 80BD     		pop	{r7, pc}
 4213              		.cfi_endproc
 4214              	.LFE87:
 4215              		.size	PumpCreditPresetNotification, .-PumpCreditPresetNotification
 4216              		.section	.text.PumpFullPresetHose,"ax",%progbits
 4217              		.align	2
 4218              		.global	PumpFullPresetHose
 4219              		.thumb
 4220              		.thumb_func
 4221              		.type	PumpFullPresetHose, %function
 4222              	PumpFullPresetHose:
 4223              	.LFB88:
1121:.\PrimeImpl.c **** 
ARM GAS  C:\Users\RECEPC~1\AppData\Local\Temp\ccEI1MLs.s 			page 95


1122:.\PrimeImpl.c **** //@Created By: HIJH
1123:.\PrimeImpl.c **** //@Septembre de 2016
1124:.\PrimeImpl.c **** ///////////////////////////////////////////////////////////////////////////////////////////////////
1125:.\PrimeImpl.c **** //Preset values will be placed within the SinkMessage's buffer. This is a convention that applies t
1126:.\PrimeImpl.c **** //all of the available transactions. The pump function must deal with this while it is assembling t
1127:.\PrimeImpl.c **** //For this message the data comes as follows:
1128:.\PrimeImpl.c **** // - First byte is the preset type (Volume:1 / Money:2 )
1129:.\PrimeImpl.c **** // - Second byte is the Hose (A:0, B:1, C:2, D:3)
1130:.\PrimeImpl.c **** // - Block of 8 bytes for the preset value
1131:.\PrimeImpl.c **** //This block of data (10 bytes) must be moved to another position within the same buffer (even posi
1132:.\PrimeImpl.c **** void PumpFullPresetHose(void *pparam)
1133:.\PrimeImpl.c **** {
 4224              		.loc 1 1133 0
 4225              		.cfi_startproc
 4226              		@ args = 0, pretend = 0, frame = 32
 4227              		@ frame_needed = 1, uses_anonymous_args = 0
 4228 0000 90B5     		push	{r4, r7, lr}
 4229              		.cfi_def_cfa_offset 12
 4230              		.cfi_offset 4, -12
 4231              		.cfi_offset 7, -8
 4232              		.cfi_offset 14, -4
 4233 0002 89B0     		sub	sp, sp, #36
 4234              		.cfi_def_cfa_offset 48
 4235 0004 00AF     		add	r7, sp, #0
 4236              		.cfi_def_cfa_register 7
 4237 0006 7860     		str	r0, [r7, #4]
1134:.\PrimeImpl.c ****     PNEAR_PUMPPTR ppump = (PNEAR_PUMPPTR)pparam;
 4238              		.loc 1 1134 0
 4239 0008 7B68     		ldr	r3, [r7, #4]
 4240 000a BB61     		str	r3, [r7, #24]
1135:.\PrimeImpl.c ****     if(ppump)
 4241              		.loc 1 1135 0
 4242 000c BB69     		ldr	r3, [r7, #24]
 4243 000e 002B     		cmp	r3, #0
 4244 0010 00F0AC80 		beq	.L147
 4245              	.LBB26:
1136:.\PrimeImpl.c ****     {
1137:.\PrimeImpl.c ****         uint8_t index = 0;        
 4246              		.loc 1 1137 0
 4247 0014 0023     		movs	r3, #0
 4248 0016 FB77     		strb	r3, [r7, #31]
