ARM GAS  C:\Users\RECEPC~1\AppData\Local\Temp\ccQD6Oev.s 			page 1


   1              		.syntax unified
   2              		.cpu cortex-m3
   3              		.fpu softvfp
   4              		.eabi_attribute 20, 1
   5              		.eabi_attribute 21, 1
   6              		.eabi_attribute 23, 3
   7              		.eabi_attribute 24, 1
   8              		.eabi_attribute 25, 1
   9              		.eabi_attribute 26, 1
  10              		.eabi_attribute 30, 6
  11              		.eabi_attribute 34, 1
  12              		.eabi_attribute 18, 4
  13              		.thumb
  14              		.file	"PrimeImpl.c"
  15              		.text
  16              	.Ltext0:
  17              		.cfi_sections	.debug_frame
  18              		.section	.text.AcquirePumpStateResponse,"ax",%progbits
  19              		.align	2
  20              		.global	AcquirePumpStateResponse
  21              		.thumb
  22              		.thumb_func
  23              		.type	AcquirePumpStateResponse, %function
  24              	AcquirePumpStateResponse:
  25              	.LFB63:
  26              		.file 1 ".\\PrimeImpl.c"
   1:.\PrimeImpl.c **** /* ========================================
   2:.\PrimeImpl.c ****  *
   3:.\PrimeImpl.c ****  * Copyright INSEPET SISTEMAS, 2016
   4:.\PrimeImpl.c ****  * All Rights Reserved
   5:.\PrimeImpl.c ****  * UNPUBLISHED, LICENSED SOFTWARE.
   6:.\PrimeImpl.c ****  *
   7:.\PrimeImpl.c ****  * CONFIDENTIAL AND PROPRIETARY INFORMATION
   8:.\PrimeImpl.c ****  * WHICH IS THE PROPERTY OF your company.
   9:.\PrimeImpl.c ****  *
  10:.\PrimeImpl.c ****  * ========================================
  11:.\PrimeImpl.c **** @Created By: HIJH
  12:.\PrimeImpl.c **** @Date: Septembre de 2016
  13:.\PrimeImpl.c **** */
  14:.\PrimeImpl.c **** 
  15:.\PrimeImpl.c **** #include <project.h>
  16:.\PrimeImpl.c **** #include "GlobalDefinitions.h"
  17:.\PrimeImpl.c **** #include "SinkManager.h"
  18:.\PrimeImpl.c **** #include "SinkObservables.h"
  19:.\PrimeImpl.c **** #include "UARTManager.h"
  20:.\PrimeImpl.c **** #include "Display.h"
  21:.\PrimeImpl.c **** #include "Dispenser.h"
  22:.\PrimeImpl.c **** #include "Eeprom.h"
  23:.\PrimeImpl.c **** #include "RFLink.h"
  24:.\PrimeImpl.c **** #include "Printer.h"
  25:.\PrimeImpl.c **** #include "Rtc.h"
  26:.\PrimeImpl.c **** 
  27:.\PrimeImpl.c **** #ifdef PRIME_PROTOCOL
  28:.\PrimeImpl.c **** 
  29:.\PrimeImpl.c **** uint8_t FindLRC(char8 *_pbuffer);
  30:.\PrimeImpl.c **** uint8_t GetLRC(char8 *_pbuffer);
  31:.\PrimeImpl.c **** 
ARM GAS  C:\Users\RECEPC~1\AppData\Local\Temp\ccQD6Oev.s 			page 2


  32:.\PrimeImpl.c **** void ComplementaryCreditTransactionOnHose(LPVOID pparam);
  33:.\PrimeImpl.c **** void PrimeActivateProgramming(LPVOID pparam);
  34:.\PrimeImpl.c **** extern PNEARDISPENSERACTIVATEPROGRAMMING _g_ptractprogramming;
  35:.\PrimeImpl.c **** 
  36:.\PrimeImpl.c **** ///////////////////////////////////////////////////////////////////////////////////////////////////
  37:.\PrimeImpl.c **** //////////////////////                 BLOCK OF AVAILABLE RESPONSE HANDLERS
  38:.\PrimeImpl.c **** ///////////////////////////////////////////////////////////////////////////////////////////////////
  39:.\PrimeImpl.c **** 
  40:.\PrimeImpl.c **** //@Created By: HIJH
  41:.\PrimeImpl.c **** //@Date: Septembre de 2016
  42:.\PrimeImpl.c **** //Updates the pump state into the pump structure
  43:.\PrimeImpl.c **** void AcquirePumpStateResponse(void *pparam)
  44:.\PrimeImpl.c **** {
  27              		.loc 1 44 0
  28              		.cfi_startproc
  29              		@ args = 0, pretend = 0, frame = 16
  30              		@ frame_needed = 1, uses_anonymous_args = 0
  31 0000 80B5     		push	{r7, lr}
  32              		.cfi_def_cfa_offset 8
  33              		.cfi_offset 7, -8
  34              		.cfi_offset 14, -4
  35 0002 84B0     		sub	sp, sp, #16
  36              		.cfi_def_cfa_offset 24
  37 0004 00AF     		add	r7, sp, #0
  38              		.cfi_def_cfa_register 7
  39 0006 7860     		str	r0, [r7, #4]
  45:.\PrimeImpl.c ****     PPUMPTRANSACTIONJOBCONTEXTPTR pjob = (PPUMPTRANSACTIONJOBCONTEXTPTR)pparam;
  40              		.loc 1 45 0
  41 0008 7B68     		ldr	r3, [r7, #4]
  42 000a FB60     		str	r3, [r7, #12]
  46:.\PrimeImpl.c ****     if(pjob)
  43              		.loc 1 46 0
  44 000c FB68     		ldr	r3, [r7, #12]
  45 000e 002B     		cmp	r3, #0
  46 0010 48D0     		beq	.L1
  47              	.LBB2:
  47:.\PrimeImpl.c ****     {
  48:.\PrimeImpl.c ****         uint8 prevstate = pjob->_ppump->_pumpstate;
  48              		.loc 1 48 0
  49 0012 FB68     		ldr	r3, [r7, #12]
  50 0014 DB69     		ldr	r3, [r3, #28]
  51 0016 9B78     		ldrb	r3, [r3, #2]
  52 0018 FB72     		strb	r3, [r7, #11]
  49:.\PrimeImpl.c ****         pjob->_ppump->_pumpstate = ((pjob->_ppump->_rxbuffer[0x00] & 0xF0) >> 4);
  53              		.loc 1 49 0
  54 001a FB68     		ldr	r3, [r7, #12]
  55 001c DB69     		ldr	r3, [r3, #28]
  56 001e FA68     		ldr	r2, [r7, #12]
  57 0020 D269     		ldr	r2, [r2, #28]
  58 0022 92F88821 		ldrb	r2, [r2, #392]	@ zero_extendqisi2
  59 0026 1209     		lsrs	r2, r2, #4
  60 0028 D2B2     		uxtb	r2, r2
  61 002a 9A70     		strb	r2, [r3, #2]
  50:.\PrimeImpl.c ****         if(pjob->_ppump->PumpValidState(pjob->_ppump))
  62              		.loc 1 50 0
  63 002c FB68     		ldr	r3, [r7, #12]
  64 002e DB69     		ldr	r3, [r3, #28]
ARM GAS  C:\Users\RECEPC~1\AppData\Local\Temp\ccQD6Oev.s 			page 3


  65 0030 D3F8303B 		ldr	r3, [r3, #2864]
  66 0034 FA68     		ldr	r2, [r7, #12]
  67 0036 D269     		ldr	r2, [r2, #28]
  68 0038 1046     		mov	r0, r2
  69 003a 9847     		blx	r3
  70 003c 0346     		mov	r3, r0
  71 003e 002B     		cmp	r3, #0
  72 0040 04D0     		beq	.L3
  51:.\PrimeImpl.c ****             pjob->_ppump->_transhealth = _PUMP_OK_;
  73              		.loc 1 51 0
  74 0042 FB68     		ldr	r3, [r7, #12]
  75 0044 DB69     		ldr	r3, [r3, #28]
  76 0046 0122     		movs	r2, #1
  77 0048 1A76     		strb	r2, [r3, #24]
  78 004a 07E0     		b	.L4
  79              	.L3:
  52:.\PrimeImpl.c ****         else
  53:.\PrimeImpl.c ****         {
  54:.\PrimeImpl.c ****             pjob->_ppump->_transhealth = _PUMP_FAIL_;
  80              		.loc 1 54 0
  81 004c FB68     		ldr	r3, [r7, #12]
  82 004e DB69     		ldr	r3, [r3, #28]
  83 0050 0222     		movs	r2, #2
  84 0052 1A76     		strb	r2, [r3, #24]
  55:.\PrimeImpl.c ****             pjob->_ppump->_pumpstate = prevstate;
  85              		.loc 1 55 0
  86 0054 FB68     		ldr	r3, [r7, #12]
  87 0056 DB69     		ldr	r3, [r3, #28]
  88 0058 FA7A     		ldrb	r2, [r7, #11]
  89 005a 9A70     		strb	r2, [r3, #2]
  90              	.L4:
  56:.\PrimeImpl.c ****         }
  57:.\PrimeImpl.c ****         
  58:.\PrimeImpl.c ****         if(pjob->_ppump->_pumpstate == PUMP_CALLING)
  91              		.loc 1 58 0
  92 005c FB68     		ldr	r3, [r7, #12]
  93 005e DB69     		ldr	r3, [r3, #28]
  94 0060 9B78     		ldrb	r3, [r3, #2]
  95 0062 DBB2     		uxtb	r3, r3
  96 0064 072B     		cmp	r3, #7
  97 0066 03D1     		bne	.L5
  59:.\PrimeImpl.c ****             pjob->_ppump->_pumplocked = false;
  98              		.loc 1 59 0
  99 0068 FB68     		ldr	r3, [r7, #12]
 100 006a DB69     		ldr	r3, [r3, #28]
 101 006c 0022     		movs	r2, #0
 102 006e DA72     		strb	r2, [r3, #11]
 103              	.L5:
  60:.\PrimeImpl.c ****         
  61:.\PrimeImpl.c ****         if((pjob->_ppump->_pumpstate == PUMP_IDLE || pjob->_ppump->_pumpstate == PUMP_CALLING) && 
 104              		.loc 1 61 0
 105 0070 FB68     		ldr	r3, [r7, #12]
 106 0072 DB69     		ldr	r3, [r3, #28]
 107 0074 9B78     		ldrb	r3, [r3, #2]
 108 0076 DBB2     		uxtb	r3, r3
 109 0078 062B     		cmp	r3, #6
 110 007a 05D0     		beq	.L6
ARM GAS  C:\Users\RECEPC~1\AppData\Local\Temp\ccQD6Oev.s 			page 4


 111              		.loc 1 61 0 is_stmt 0 discriminator 2
 112 007c FB68     		ldr	r3, [r7, #12]
 113 007e DB69     		ldr	r3, [r3, #28]
 114 0080 9B78     		ldrb	r3, [r3, #2]
 115 0082 DBB2     		uxtb	r3, r3
 116 0084 072B     		cmp	r3, #7
 117 0086 09D1     		bne	.L7
 118              	.L6:
 119              		.loc 1 61 0 discriminator 3
 120 0088 FB7A     		ldrb	r3, [r7, #11]	@ zero_extendqisi2
 121 008a 092B     		cmp	r3, #9
 122 008c 02D0     		beq	.L8
  62:.\PrimeImpl.c ****             (prevstate == PUMP_BUSY || prevstate == PUMP_AUTHORIZED))
 123              		.loc 1 62 0 is_stmt 1
 124 008e FB7A     		ldrb	r3, [r7, #11]	@ zero_extendqisi2
 125 0090 082B     		cmp	r3, #8
 126 0092 03D1     		bne	.L7
 127              	.L8:
  63:.\PrimeImpl.c ****             pjob->_ppump->_pumprftransstate = RF_IDLE;
 128              		.loc 1 63 0
 129 0094 FB68     		ldr	r3, [r7, #12]
 130 0096 DB69     		ldr	r3, [r3, #28]
 131 0098 0822     		movs	r2, #8
 132 009a 9A73     		strb	r2, [r3, #14]
 133              	.L7:
  64:.\PrimeImpl.c ****         /*if((pjob->_ppump->_pumpstate == PUMP_IDLE || pjob->_ppump->_pumpstate == PUMP_CALLING) &&
  65:.\PrimeImpl.c ****             (prevstate == PUMP_FEOT || prevstate == PUMP_PEOT || prevstate == PUMP_BUSY || prevstat
  66:.\PrimeImpl.c ****             pjob->_ppump->_pumprftransstate = RF_IDLE;*/
  67:.\PrimeImpl.c ****                 
  68:.\PrimeImpl.c ****         pjob->_ppump->_acquiringstate = false;
 134              		.loc 1 68 0
 135 009c FB68     		ldr	r3, [r7, #12]
 136 009e DB69     		ldr	r3, [r3, #28]
 137 00a0 0022     		movs	r2, #0
 138 00a2 5A71     		strb	r2, [r3, #5]
 139              	.L1:
 140              	.LBE2:
  69:.\PrimeImpl.c ****     }
  70:.\PrimeImpl.c **** }
 141              		.loc 1 70 0
 142 00a4 1037     		adds	r7, r7, #16
 143              		.cfi_def_cfa_offset 8
 144 00a6 BD46     		mov	sp, r7
 145              		.cfi_def_cfa_register 13
 146              		@ sp needed
 147 00a8 80BD     		pop	{r7, pc}
 148              		.cfi_endproc
 149              	.LFE63:
 150              		.size	AcquirePumpStateResponse, .-AcquirePumpStateResponse
 151 00aa 00BF     		.section	.text.AcquireDatatoPumpResponse,"ax",%progbits
 152              		.align	2
 153              		.global	AcquireDatatoPumpResponse
 154              		.thumb
 155              		.thumb_func
 156              		.type	AcquireDatatoPumpResponse, %function
 157              	AcquireDatatoPumpResponse:
 158              	.LFB64:
ARM GAS  C:\Users\RECEPC~1\AppData\Local\Temp\ccQD6Oev.s 			page 5


  71:.\PrimeImpl.c **** 
  72:.\PrimeImpl.c **** //@Created By: HIJH
  73:.\PrimeImpl.c **** //@Date: Septembre de 2016
  74:.\PrimeImpl.c **** //Validates the response from the pump previous batch transfer (0xDp)
  75:.\PrimeImpl.c **** void AcquireDatatoPumpResponse(void *pparam)
  76:.\PrimeImpl.c **** {
 159              		.loc 1 76 0
 160              		.cfi_startproc
 161              		@ args = 0, pretend = 0, frame = 16
 162              		@ frame_needed = 1, uses_anonymous_args = 0
 163              		@ link register save eliminated.
 164 0000 80B4     		push	{r7}
 165              		.cfi_def_cfa_offset 4
 166              		.cfi_offset 7, -4
 167 0002 85B0     		sub	sp, sp, #20
 168              		.cfi_def_cfa_offset 24
 169 0004 00AF     		add	r7, sp, #0
 170              		.cfi_def_cfa_register 7
 171 0006 7860     		str	r0, [r7, #4]
  77:.\PrimeImpl.c ****     PPUMPTRANSACTIONJOBCONTEXTPTR pjob = (PPUMPTRANSACTIONJOBCONTEXTPTR)pparam;
 172              		.loc 1 77 0
 173 0008 7B68     		ldr	r3, [r7, #4]
 174 000a FB60     		str	r3, [r7, #12]
  78:.\PrimeImpl.c ****     if(pjob)
 175              		.loc 1 78 0
 176 000c FB68     		ldr	r3, [r7, #12]
 177 000e 002B     		cmp	r3, #0
 178 0010 15D0     		beq	.L9
  79:.\PrimeImpl.c ****     {
  80:.\PrimeImpl.c ****         if((0x0F & pjob->_ppump->_pumpid) == (pjob->_ppump->_rxbuffer[0x00] & 0x0F))
 179              		.loc 1 80 0
 180 0012 FB68     		ldr	r3, [r7, #12]
 181 0014 DB69     		ldr	r3, [r3, #28]
 182 0016 1B78     		ldrb	r3, [r3]	@ zero_extendqisi2
 183 0018 1A46     		mov	r2, r3
 184 001a FB68     		ldr	r3, [r7, #12]
 185 001c DB69     		ldr	r3, [r3, #28]
 186 001e 93F88831 		ldrb	r3, [r3, #392]	@ zero_extendqisi2
 187 0022 5340     		eors	r3, r3, r2
 188 0024 03F00F03 		and	r3, r3, #15
 189 0028 002B     		cmp	r3, #0
 190 002a 08D1     		bne	.L9
  81:.\PrimeImpl.c ****             pjob->_ppump->_pumpstate = ((pjob->_ppump->_rxbuffer[0x00] & 0xF0) >> 4);
 191              		.loc 1 81 0
 192 002c FB68     		ldr	r3, [r7, #12]
 193 002e DB69     		ldr	r3, [r3, #28]
 194 0030 FA68     		ldr	r2, [r7, #12]
 195 0032 D269     		ldr	r2, [r2, #28]
 196 0034 92F88821 		ldrb	r2, [r2, #392]	@ zero_extendqisi2
 197 0038 1209     		lsrs	r2, r2, #4
 198 003a D2B2     		uxtb	r2, r2
 199 003c 9A70     		strb	r2, [r3, #2]
 200              	.L9:
  82:.\PrimeImpl.c ****     }
  83:.\PrimeImpl.c **** }
 201              		.loc 1 83 0
 202 003e 1437     		adds	r7, r7, #20
ARM GAS  C:\Users\RECEPC~1\AppData\Local\Temp\ccQD6Oev.s 			page 6


 203              		.cfi_def_cfa_offset 4
 204 0040 BD46     		mov	sp, r7
 205              		.cfi_def_cfa_register 13
 206              		@ sp needed
 207 0042 5DF8047B 		ldr	r7, [sp], #4
 208              		.cfi_restore 7
 209              		.cfi_def_cfa_offset 0
 210 0046 7047     		bx	lr
 211              		.cfi_endproc
 212              	.LFE64:
 213              		.size	AcquireDatatoPumpResponse, .-AcquireDatatoPumpResponse
 214              		.section	.text.ProcessPumpRTMoneyRequest,"ax",%progbits
 215              		.align	2
 216              		.global	ProcessPumpRTMoneyRequest
 217              		.thumb
 218              		.thumb_func
 219              		.type	ProcessPumpRTMoneyRequest, %function
 220              	ProcessPumpRTMoneyRequest:
 221              	.LFB65:
  84:.\PrimeImpl.c **** 
  85:.\PrimeImpl.c **** void ProcessPumpRTMoneyRequest(void *pparam)
  86:.\PrimeImpl.c **** {
 222              		.loc 1 86 0
 223              		.cfi_startproc
 224              		@ args = 0, pretend = 0, frame = 16
 225              		@ frame_needed = 1, uses_anonymous_args = 0
 226 0000 90B5     		push	{r4, r7, lr}
 227              		.cfi_def_cfa_offset 12
 228              		.cfi_offset 4, -12
 229              		.cfi_offset 7, -8
 230              		.cfi_offset 14, -4
 231 0002 85B0     		sub	sp, sp, #20
 232              		.cfi_def_cfa_offset 32
 233 0004 00AF     		add	r7, sp, #0
 234              		.cfi_def_cfa_register 7
 235 0006 7860     		str	r0, [r7, #4]
  87:.\PrimeImpl.c ****     PPUMPTRANSACTIONJOBCONTEXTPTR pjob = (PPUMPTRANSACTIONJOBCONTEXTPTR)pparam;
 236              		.loc 1 87 0
 237 0008 7B68     		ldr	r3, [r7, #4]
 238 000a FB60     		str	r3, [r7, #12]
  88:.\PrimeImpl.c ****     if(pjob)
 239              		.loc 1 88 0
 240 000c FB68     		ldr	r3, [r7, #12]
 241 000e 002B     		cmp	r3, #0
 242 0010 63D0     		beq	.L11
  89:.\PrimeImpl.c ****     {
  90:.\PrimeImpl.c ****         //Bytes from index 0 to 7 are the digits for the Real Time Money Data in BCD format
  91:.\PrimeImpl.c ****         pjob->_ppump->_rxbuffer[0x00] = (pjob->_ppump->_rxbuffer[0x00] & 0x0F);
 243              		.loc 1 91 0
 244 0012 FB68     		ldr	r3, [r7, #12]
 245 0014 DB69     		ldr	r3, [r3, #28]
 246 0016 FA68     		ldr	r2, [r7, #12]
 247 0018 D269     		ldr	r2, [r2, #28]
 248 001a 92F88821 		ldrb	r2, [r2, #392]	@ zero_extendqisi2
 249 001e 02F00F02 		and	r2, r2, #15
 250 0022 D2B2     		uxtb	r2, r2
 251 0024 83F88821 		strb	r2, [r3, #392]
ARM GAS  C:\Users\RECEPC~1\AppData\Local\Temp\ccQD6Oev.s 			page 7


  92:.\PrimeImpl.c ****         pjob->_ppump->_rxbuffer[0x01] = (pjob->_ppump->_rxbuffer[0x01] & 0x0F);
 252              		.loc 1 92 0
 253 0028 FB68     		ldr	r3, [r7, #12]
 254 002a DB69     		ldr	r3, [r3, #28]
 255 002c FA68     		ldr	r2, [r7, #12]
 256 002e D269     		ldr	r2, [r2, #28]
 257 0030 92F88921 		ldrb	r2, [r2, #393]	@ zero_extendqisi2
 258 0034 02F00F02 		and	r2, r2, #15
 259 0038 D2B2     		uxtb	r2, r2
 260 003a 83F88921 		strb	r2, [r3, #393]
  93:.\PrimeImpl.c ****         pjob->_ppump->_rxbuffer[0x02] = (pjob->_ppump->_rxbuffer[0x02] & 0x0F);
 261              		.loc 1 93 0
 262 003e FB68     		ldr	r3, [r7, #12]
 263 0040 DB69     		ldr	r3, [r3, #28]
 264 0042 FA68     		ldr	r2, [r7, #12]
 265 0044 D269     		ldr	r2, [r2, #28]
 266 0046 92F88A21 		ldrb	r2, [r2, #394]	@ zero_extendqisi2
 267 004a 02F00F02 		and	r2, r2, #15
 268 004e D2B2     		uxtb	r2, r2
 269 0050 83F88A21 		strb	r2, [r3, #394]
  94:.\PrimeImpl.c ****         pjob->_ppump->_rxbuffer[0x03] = (pjob->_ppump->_rxbuffer[0x03] & 0x0F);
 270              		.loc 1 94 0
 271 0054 FB68     		ldr	r3, [r7, #12]
 272 0056 DB69     		ldr	r3, [r3, #28]
 273 0058 FA68     		ldr	r2, [r7, #12]
 274 005a D269     		ldr	r2, [r2, #28]
 275 005c 92F88B21 		ldrb	r2, [r2, #395]	@ zero_extendqisi2
 276 0060 02F00F02 		and	r2, r2, #15
 277 0064 D2B2     		uxtb	r2, r2
 278 0066 83F88B21 		strb	r2, [r3, #395]
  95:.\PrimeImpl.c ****         pjob->_ppump->_rxbuffer[0x04] = (pjob->_ppump->_rxbuffer[0x04] & 0x0F);
 279              		.loc 1 95 0
 280 006a FB68     		ldr	r3, [r7, #12]
 281 006c DB69     		ldr	r3, [r3, #28]
 282 006e FA68     		ldr	r2, [r7, #12]
 283 0070 D269     		ldr	r2, [r2, #28]
 284 0072 92F88C21 		ldrb	r2, [r2, #396]	@ zero_extendqisi2
 285 0076 02F00F02 		and	r2, r2, #15
 286 007a D2B2     		uxtb	r2, r2
 287 007c 83F88C21 		strb	r2, [r3, #396]
  96:.\PrimeImpl.c ****         pjob->_ppump->_rxbuffer[0x05] = (pjob->_ppump->_rxbuffer[0x05] & 0x0F);
 288              		.loc 1 96 0
 289 0080 FB68     		ldr	r3, [r7, #12]
 290 0082 DB69     		ldr	r3, [r3, #28]
 291 0084 FA68     		ldr	r2, [r7, #12]
 292 0086 D269     		ldr	r2, [r2, #28]
 293 0088 92F88D21 		ldrb	r2, [r2, #397]	@ zero_extendqisi2
 294 008c 02F00F02 		and	r2, r2, #15
 295 0090 D2B2     		uxtb	r2, r2
 296 0092 83F88D21 		strb	r2, [r3, #397]
  97:.\PrimeImpl.c ****         pjob->_ppump->_rxbuffer[0x06] = (pjob->_ppump->_rxbuffer[0x06] & 0x0F);
 297              		.loc 1 97 0
 298 0096 FB68     		ldr	r3, [r7, #12]
 299 0098 DB69     		ldr	r3, [r3, #28]
 300 009a FA68     		ldr	r2, [r7, #12]
 301 009c D269     		ldr	r2, [r2, #28]
 302 009e 92F88E21 		ldrb	r2, [r2, #398]	@ zero_extendqisi2
ARM GAS  C:\Users\RECEPC~1\AppData\Local\Temp\ccQD6Oev.s 			page 8


 303 00a2 02F00F02 		and	r2, r2, #15
 304 00a6 D2B2     		uxtb	r2, r2
 305 00a8 83F88E21 		strb	r2, [r3, #398]
  98:.\PrimeImpl.c ****         pjob->_ppump->_rxbuffer[0x07] = (pjob->_ppump->_rxbuffer[0x07] & 0x0F);
 306              		.loc 1 98 0
 307 00ac FB68     		ldr	r3, [r7, #12]
 308 00ae DB69     		ldr	r3, [r3, #28]
 309 00b0 FA68     		ldr	r2, [r7, #12]
 310 00b2 D269     		ldr	r2, [r2, #28]
 311 00b4 92F88F21 		ldrb	r2, [r2, #399]	@ zero_extendqisi2
 312 00b8 02F00F02 		and	r2, r2, #15
 313 00bc D2B2     		uxtb	r2, r2
 314 00be 83F88F21 		strb	r2, [r3, #399]
  99:.\PrimeImpl.c ****         pjob->_ppump->_rtmoneyamount = LSDBCDBUFF2HEX(PBYTECAST(&pjob->_ppump->_rxbuffer[0x00]), 0x
 315              		.loc 1 99 0
 316 00c2 FB68     		ldr	r3, [r7, #12]
 317 00c4 DC69     		ldr	r4, [r3, #28]
 318 00c6 FB68     		ldr	r3, [r7, #12]
 319 00c8 DB69     		ldr	r3, [r3, #28]
 320 00ca 03F5C473 		add	r3, r3, #392
 321 00ce 1846     		mov	r0, r3
 322 00d0 0821     		movs	r1, #8
 323 00d2 FFF7FEFF 		bl	LSDBCDBUFF2HEX
 324 00d6 0346     		mov	r3, r0
 325 00d8 2361     		str	r3, [r4, #16]
 326              	.L11:
 100:.\PrimeImpl.c ****     }
 101:.\PrimeImpl.c **** }
 327              		.loc 1 101 0
 328 00da 1437     		adds	r7, r7, #20
 329              		.cfi_def_cfa_offset 12
 330 00dc BD46     		mov	sp, r7
 331              		.cfi_def_cfa_register 13
 332              		@ sp needed
 333 00de 90BD     		pop	{r4, r7, pc}
 334              		.cfi_endproc
 335              	.LFE65:
 336              		.size	ProcessPumpRTMoneyRequest, .-ProcessPumpRTMoneyRequest
 337              		.section	.text.ProcessPumpRTHoseVolumeRequest,"ax",%progbits
 338              		.align	2
 339              		.global	ProcessPumpRTHoseVolumeRequest
 340              		.thumb
 341              		.thumb_func
 342              		.type	ProcessPumpRTHoseVolumeRequest, %function
 343              	ProcessPumpRTHoseVolumeRequest:
 344              	.LFB66:
 102:.\PrimeImpl.c **** 
 103:.\PrimeImpl.c **** void ProcessPumpRTHoseVolumeRequest(void *pparam)
 104:.\PrimeImpl.c **** {
 345              		.loc 1 104 0
 346              		.cfi_startproc
 347              		@ args = 0, pretend = 0, frame = 16
 348              		@ frame_needed = 1, uses_anonymous_args = 0
 349 0000 90B5     		push	{r4, r7, lr}
 350              		.cfi_def_cfa_offset 12
 351              		.cfi_offset 4, -12
 352              		.cfi_offset 7, -8
ARM GAS  C:\Users\RECEPC~1\AppData\Local\Temp\ccQD6Oev.s 			page 9


 353              		.cfi_offset 14, -4
 354 0002 85B0     		sub	sp, sp, #20
 355              		.cfi_def_cfa_offset 32
 356 0004 00AF     		add	r7, sp, #0
 357              		.cfi_def_cfa_register 7
 358 0006 7860     		str	r0, [r7, #4]
 105:.\PrimeImpl.c ****     PPUMPTRANSACTIONJOBCONTEXTPTR pjob = (PPUMPTRANSACTIONJOBCONTEXTPTR)pparam;
 359              		.loc 1 105 0
 360 0008 7B68     		ldr	r3, [r7, #4]
 361 000a FB60     		str	r3, [r7, #12]
 106:.\PrimeImpl.c ****     if(pjob)
 362              		.loc 1 106 0
 363 000c FB68     		ldr	r3, [r7, #12]
 364 000e 002B     		cmp	r3, #0
 365 0010 6DD0     		beq	.L13
 107:.\PrimeImpl.c ****     {
 108:.\PrimeImpl.c ****         pjob->_ppump->_currenthose = (pjob->_ppump->_rxbuffer[0x00] & 0x0F);//Real Time Hose Data
 366              		.loc 1 108 0
 367 0012 FB68     		ldr	r3, [r7, #12]
 368 0014 DB69     		ldr	r3, [r3, #28]
 369 0016 FA68     		ldr	r2, [r7, #12]
 370 0018 D269     		ldr	r2, [r2, #28]
 371 001a 92F88821 		ldrb	r2, [r2, #392]	@ zero_extendqisi2
 372 001e 02F00F02 		and	r2, r2, #15
 373 0022 D2B2     		uxtb	r2, r2
 374 0024 DA70     		strb	r2, [r3, #3]
 109:.\PrimeImpl.c ****         
 110:.\PrimeImpl.c ****         //Bytes from index 1 to 8 are the digits for the Real Time Volume Data in BCD format
 111:.\PrimeImpl.c ****         pjob->_ppump->_rxbuffer[0x01] = (pjob->_ppump->_rxbuffer[0x01] & 0x0F);
 375              		.loc 1 111 0
 376 0026 FB68     		ldr	r3, [r7, #12]
 377 0028 DB69     		ldr	r3, [r3, #28]
 378 002a FA68     		ldr	r2, [r7, #12]
 379 002c D269     		ldr	r2, [r2, #28]
 380 002e 92F88921 		ldrb	r2, [r2, #393]	@ zero_extendqisi2
 381 0032 02F00F02 		and	r2, r2, #15
 382 0036 D2B2     		uxtb	r2, r2
 383 0038 83F88921 		strb	r2, [r3, #393]
 112:.\PrimeImpl.c ****         pjob->_ppump->_rxbuffer[0x02] = (pjob->_ppump->_rxbuffer[0x02] & 0x0F);
 384              		.loc 1 112 0
 385 003c FB68     		ldr	r3, [r7, #12]
 386 003e DB69     		ldr	r3, [r3, #28]
 387 0040 FA68     		ldr	r2, [r7, #12]
 388 0042 D269     		ldr	r2, [r2, #28]
 389 0044 92F88A21 		ldrb	r2, [r2, #394]	@ zero_extendqisi2
 390 0048 02F00F02 		and	r2, r2, #15
 391 004c D2B2     		uxtb	r2, r2
 392 004e 83F88A21 		strb	r2, [r3, #394]
 113:.\PrimeImpl.c ****         pjob->_ppump->_rxbuffer[0x03] = (pjob->_ppump->_rxbuffer[0x03] & 0x0F);
 393              		.loc 1 113 0
 394 0052 FB68     		ldr	r3, [r7, #12]
 395 0054 DB69     		ldr	r3, [r3, #28]
 396 0056 FA68     		ldr	r2, [r7, #12]
 397 0058 D269     		ldr	r2, [r2, #28]
 398 005a 92F88B21 		ldrb	r2, [r2, #395]	@ zero_extendqisi2
 399 005e 02F00F02 		and	r2, r2, #15
 400 0062 D2B2     		uxtb	r2, r2
ARM GAS  C:\Users\RECEPC~1\AppData\Local\Temp\ccQD6Oev.s 			page 10


 401 0064 83F88B21 		strb	r2, [r3, #395]
 114:.\PrimeImpl.c ****         pjob->_ppump->_rxbuffer[0x04] = (pjob->_ppump->_rxbuffer[0x04] & 0x0F);
 402              		.loc 1 114 0
 403 0068 FB68     		ldr	r3, [r7, #12]
 404 006a DB69     		ldr	r3, [r3, #28]
 405 006c FA68     		ldr	r2, [r7, #12]
 406 006e D269     		ldr	r2, [r2, #28]
 407 0070 92F88C21 		ldrb	r2, [r2, #396]	@ zero_extendqisi2
 408 0074 02F00F02 		and	r2, r2, #15
 409 0078 D2B2     		uxtb	r2, r2
 410 007a 83F88C21 		strb	r2, [r3, #396]
 115:.\PrimeImpl.c ****         pjob->_ppump->_rxbuffer[0x05] = (pjob->_ppump->_rxbuffer[0x05] & 0x0F);
 411              		.loc 1 115 0
 412 007e FB68     		ldr	r3, [r7, #12]
 413 0080 DB69     		ldr	r3, [r3, #28]
 414 0082 FA68     		ldr	r2, [r7, #12]
 415 0084 D269     		ldr	r2, [r2, #28]
 416 0086 92F88D21 		ldrb	r2, [r2, #397]	@ zero_extendqisi2
 417 008a 02F00F02 		and	r2, r2, #15
 418 008e D2B2     		uxtb	r2, r2
 419 0090 83F88D21 		strb	r2, [r3, #397]
 116:.\PrimeImpl.c ****         pjob->_ppump->_rxbuffer[0x06] = (pjob->_ppump->_rxbuffer[0x06] & 0x0F);
 420              		.loc 1 116 0
 421 0094 FB68     		ldr	r3, [r7, #12]
 422 0096 DB69     		ldr	r3, [r3, #28]
 423 0098 FA68     		ldr	r2, [r7, #12]
 424 009a D269     		ldr	r2, [r2, #28]
 425 009c 92F88E21 		ldrb	r2, [r2, #398]	@ zero_extendqisi2
 426 00a0 02F00F02 		and	r2, r2, #15
 427 00a4 D2B2     		uxtb	r2, r2
 428 00a6 83F88E21 		strb	r2, [r3, #398]
 117:.\PrimeImpl.c ****         pjob->_ppump->_rxbuffer[0x07] = (pjob->_ppump->_rxbuffer[0x07] & 0x0F);
 429              		.loc 1 117 0
 430 00aa FB68     		ldr	r3, [r7, #12]
 431 00ac DB69     		ldr	r3, [r3, #28]
 432 00ae FA68     		ldr	r2, [r7, #12]
 433 00b0 D269     		ldr	r2, [r2, #28]
 434 00b2 92F88F21 		ldrb	r2, [r2, #399]	@ zero_extendqisi2
 435 00b6 02F00F02 		and	r2, r2, #15
 436 00ba D2B2     		uxtb	r2, r2
 437 00bc 83F88F21 		strb	r2, [r3, #399]
 118:.\PrimeImpl.c ****         pjob->_ppump->_rxbuffer[0x08] = (pjob->_ppump->_rxbuffer[0x08] & 0x0F);
 438              		.loc 1 118 0
 439 00c0 FB68     		ldr	r3, [r7, #12]
 440 00c2 DB69     		ldr	r3, [r3, #28]
 441 00c4 FA68     		ldr	r2, [r7, #12]
 442 00c6 D269     		ldr	r2, [r2, #28]
 443 00c8 92F89021 		ldrb	r2, [r2, #400]	@ zero_extendqisi2
 444 00cc 02F00F02 		and	r2, r2, #15
 445 00d0 D2B2     		uxtb	r2, r2
 446 00d2 83F89021 		strb	r2, [r3, #400]
 119:.\PrimeImpl.c ****         pjob->_ppump->_rtvolumeamount = LSDBCDBUFF2HEX(PBYTECAST(&pjob->_ppump->_rxbuffer[0x01]), 0
 447              		.loc 1 119 0
 448 00d6 FB68     		ldr	r3, [r7, #12]
 449 00d8 DC69     		ldr	r4, [r3, #28]
 450 00da FB68     		ldr	r3, [r7, #12]
 451 00dc DB69     		ldr	r3, [r3, #28]
ARM GAS  C:\Users\RECEPC~1\AppData\Local\Temp\ccQD6Oev.s 			page 11


 452 00de 03F28913 		addw	r3, r3, #393
 453 00e2 1846     		mov	r0, r3
 454 00e4 0821     		movs	r1, #8
 455 00e6 FFF7FEFF 		bl	LSDBCDBUFF2HEX
 456 00ea 0346     		mov	r3, r0
 457 00ec 6361     		str	r3, [r4, #20]
 458              	.L13:
 120:.\PrimeImpl.c ****     }
 121:.\PrimeImpl.c **** }
 459              		.loc 1 121 0
 460 00ee 1437     		adds	r7, r7, #20
 461              		.cfi_def_cfa_offset 12
 462 00f0 BD46     		mov	sp, r7
 463              		.cfi_def_cfa_register 13
 464              		@ sp needed
 465 00f2 90BD     		pop	{r4, r7, pc}
 466              		.cfi_endproc
 467              	.LFE66:
 468              		.size	ProcessPumpRTHoseVolumeRequest, .-ProcessPumpRTHoseVolumeRequest
 469              		.section	.text.ProcessPumpRTHoseVolumeRequestGlobal,"ax",%progbits
 470              		.align	2
 471              		.global	ProcessPumpRTHoseVolumeRequestGlobal
 472              		.thumb
 473              		.thumb_func
 474              		.type	ProcessPumpRTHoseVolumeRequestGlobal, %function
 475              	ProcessPumpRTHoseVolumeRequestGlobal:
 476              	.LFB67:
 122:.\PrimeImpl.c **** 
 123:.\PrimeImpl.c **** void ProcessPumpRTHoseVolumeRequestGlobal(void *pparam)
 124:.\PrimeImpl.c **** {
 477              		.loc 1 124 0
 478              		.cfi_startproc
 479              		@ args = 0, pretend = 0, frame = 16
 480              		@ frame_needed = 1, uses_anonymous_args = 0
 481 0000 80B5     		push	{r7, lr}
 482              		.cfi_def_cfa_offset 8
 483              		.cfi_offset 7, -8
 484              		.cfi_offset 14, -4
 485 0002 84B0     		sub	sp, sp, #16
 486              		.cfi_def_cfa_offset 24
 487 0004 00AF     		add	r7, sp, #0
 488              		.cfi_def_cfa_register 7
 489 0006 7860     		str	r0, [r7, #4]
 125:.\PrimeImpl.c ****     PPUMPTRANSACTIONJOBCONTEXTPTR pjob = (PPUMPTRANSACTIONJOBCONTEXTPTR)pparam;
 490              		.loc 1 125 0
 491 0008 7B68     		ldr	r3, [r7, #4]
 492 000a FB60     		str	r3, [r7, #12]
 126:.\PrimeImpl.c ****     if(pjob)
 493              		.loc 1 126 0
 494 000c FB68     		ldr	r3, [r7, #12]
 495 000e 002B     		cmp	r3, #0
 496 0010 20D0     		beq	.L15
 127:.\PrimeImpl.c ****     {
 128:.\PrimeImpl.c ****         pjob->_ppump->_currenthose = (pjob->_ppump->_rxbuffer[0x00] & 0x0F);//Real Time Hose Data
 497              		.loc 1 128 0
 498 0012 FB68     		ldr	r3, [r7, #12]
 499 0014 DB69     		ldr	r3, [r3, #28]
ARM GAS  C:\Users\RECEPC~1\AppData\Local\Temp\ccQD6Oev.s 			page 12


 500 0016 FA68     		ldr	r2, [r7, #12]
 501 0018 D269     		ldr	r2, [r2, #28]
 502 001a 92F88821 		ldrb	r2, [r2, #392]	@ zero_extendqisi2
 503 001e 02F00F02 		and	r2, r2, #15
 504 0022 D2B2     		uxtb	r2, r2
 505 0024 DA70     		strb	r2, [r3, #3]
 129:.\PrimeImpl.c ****         
 130:.\PrimeImpl.c ****         if(pjob->_ppump->_authorizationinfo._hoseid != pjob->_ppump->_currenthose)
 506              		.loc 1 130 0
 507 0026 FB68     		ldr	r3, [r7, #12]
 508 0028 DB69     		ldr	r3, [r3, #28]
 509 002a 93F87A3B 		ldrb	r3, [r3, #2938]
 510 002e DAB2     		uxtb	r2, r3
 511 0030 FB68     		ldr	r3, [r7, #12]
 512 0032 DB69     		ldr	r3, [r3, #28]
 513 0034 DB78     		ldrb	r3, [r3, #3]
 514 0036 DBB2     		uxtb	r3, r3
 515 0038 9A42     		cmp	r2, r3
 516 003a 08D0     		beq	.L17
 131:.\PrimeImpl.c ****         {
 132:.\PrimeImpl.c ****             pjob->_reenqueue = false;
 517              		.loc 1 132 0
 518 003c FB68     		ldr	r3, [r7, #12]
 519 003e 0022     		movs	r2, #0
 520 0040 1A70     		strb	r2, [r3]
 133:.\PrimeImpl.c ****             ComplementaryCreditTransactionOnHose(pjob->_ppump);
 521              		.loc 1 133 0
 522 0042 FB68     		ldr	r3, [r7, #12]
 523 0044 DB69     		ldr	r3, [r3, #28]
 524 0046 1846     		mov	r0, r3
 525 0048 FFF7FEFF 		bl	ComplementaryCreditTransactionOnHose
 526 004c 02E0     		b	.L15
 527              	.L17:
 134:.\PrimeImpl.c ****         }else
 135:.\PrimeImpl.c ****             pjob->_reenqueue = true;
 528              		.loc 1 135 0
 529 004e FB68     		ldr	r3, [r7, #12]
 530 0050 0122     		movs	r2, #1
 531 0052 1A70     		strb	r2, [r3]
 532              	.L15:
 136:.\PrimeImpl.c ****     }
 137:.\PrimeImpl.c **** }
 533              		.loc 1 137 0
 534 0054 1037     		adds	r7, r7, #16
 535              		.cfi_def_cfa_offset 8
 536 0056 BD46     		mov	sp, r7
 537              		.cfi_def_cfa_register 13
 538              		@ sp needed
 539 0058 80BD     		pop	{r7, pc}
 540              		.cfi_endproc
 541              	.LFE67:
 542              		.size	ProcessPumpRTHoseVolumeRequestGlobal, .-ProcessPumpRTHoseVolumeRequestGlobal
 543 005a 00BF     		.section	.text.ProcessPumpTransactionData,"ax",%progbits
 544              		.align	2
 545              		.global	ProcessPumpTransactionData
 546              		.thumb
 547              		.thumb_func
ARM GAS  C:\Users\RECEPC~1\AppData\Local\Temp\ccQD6Oev.s 			page 13


 548              		.type	ProcessPumpTransactionData, %function
 549              	ProcessPumpTransactionData:
 550              	.LFB68:
 138:.\PrimeImpl.c **** 
 139:.\PrimeImpl.c **** void ProcessPumpTransactionData(void *pparam)
 140:.\PrimeImpl.c **** {
 551              		.loc 1 140 0
 552              		.cfi_startproc
 553              		@ args = 0, pretend = 0, frame = 24
 554              		@ frame_needed = 1, uses_anonymous_args = 0
 555 0000 B0B5     		push	{r4, r5, r7, lr}
 556              		.cfi_def_cfa_offset 16
 557              		.cfi_offset 4, -16
 558              		.cfi_offset 5, -12
 559              		.cfi_offset 7, -8
 560              		.cfi_offset 14, -4
 561 0002 86B0     		sub	sp, sp, #24
 562              		.cfi_def_cfa_offset 40
 563 0004 00AF     		add	r7, sp, #0
 564              		.cfi_def_cfa_register 7
 565 0006 7860     		str	r0, [r7, #4]
 141:.\PrimeImpl.c ****     PPUMPTRANSACTIONJOBCONTEXTPTR pjob = (PPUMPTRANSACTIONJOBCONTEXTPTR)pparam;
 566              		.loc 1 141 0
 567 0008 7B68     		ldr	r3, [r7, #4]
 568 000a 7B61     		str	r3, [r7, #20]
 142:.\PrimeImpl.c ****     if(pjob)
 569              		.loc 1 142 0
 570 000c 7B69     		ldr	r3, [r7, #20]
 571 000e 002B     		cmp	r3, #0
 572 0010 00F06D84 		beq	.L18
 573              	.LBB3:
 143:.\PrimeImpl.c ****     {        
 144:.\PrimeImpl.c ****         {
 145:.\PrimeImpl.c ****             pjob->_ppump->_rxbuffer[0x09] = (pjob->_ppump->_rxbuffer[0x09] & 0x0F);//Hose id
 574              		.loc 1 145 0
 575 0014 7B69     		ldr	r3, [r7, #20]
 576 0016 DB69     		ldr	r3, [r3, #28]
 577 0018 7A69     		ldr	r2, [r7, #20]
 578 001a D269     		ldr	r2, [r2, #28]
 579 001c 92F89121 		ldrb	r2, [r2, #401]	@ zero_extendqisi2
 580 0020 02F00F02 		and	r2, r2, #15
 581 0024 D2B2     		uxtb	r2, r2
 582 0026 83F89121 		strb	r2, [r3, #401]
 146:.\PrimeImpl.c ****             pjob->_ppump->_authorizationinfo._hoseid = pjob->_ppump->_rxbuffer[0x09];//Hose id
 583              		.loc 1 146 0
 584 002a 7B69     		ldr	r3, [r7, #20]
 585 002c DB69     		ldr	r3, [r3, #28]
 586 002e 7A69     		ldr	r2, [r7, #20]
 587 0030 D269     		ldr	r2, [r2, #28]
 588 0032 92F89121 		ldrb	r2, [r2, #401]	@ zero_extendqisi2
 589 0036 83F87A2B 		strb	r2, [r3, #2938]
 147:.\PrimeImpl.c ****             
 148:.\PrimeImpl.c ****             //In this position is located the payment type (CREDIT: 0x0E , CASH:0x0D)
 149:.\PrimeImpl.c ****             if(pjob->_ppump->_trasactionbuffer[0x00] == 0x0D)
 590              		.loc 1 149 0
 591 003a 7B69     		ldr	r3, [r7, #20]
 592 003c DB69     		ldr	r3, [r3, #28]
ARM GAS  C:\Users\RECEPC~1\AppData\Local\Temp\ccQD6Oev.s 			page 14


 593 003e 93F82030 		ldrb	r3, [r3, #32]	@ zero_extendqisi2
 594 0042 0D2B     		cmp	r3, #13
 595 0044 40F0E080 		bne	.L20
 596              	.LBB4:
 150:.\PrimeImpl.c ****             {
 151:.\PrimeImpl.c ****                 I2CBusLock();
 597              		.loc 1 151 0
 598 0048 FFF7FEFF 		bl	I2CBusLock
 152:.\PrimeImpl.c ****                 ClearEepromBuffer();
 599              		.loc 1 152 0
 600 004c FFF7FEFF 		bl	ClearEepromBuffer
 153:.\PrimeImpl.c ****                 uint16 eeprompage = DispenserGetEepromPPUPageFromPumpID(pjob->_ppump->_pumpid);
 601              		.loc 1 153 0
 602 0050 7B69     		ldr	r3, [r7, #20]
 603 0052 DB69     		ldr	r3, [r3, #28]
 604 0054 1B78     		ldrb	r3, [r3]	@ zero_extendqisi2
 605 0056 1846     		mov	r0, r3
 606 0058 FFF7FEFF 		bl	DispenserGetEepromPPUPageFromPumpID
 607 005c 0346     		mov	r3, r0
 608 005e 7B82     		strh	r3, [r7, #18]	@ movhi
 154:.\PrimeImpl.c ****                 LoadEepromPage(eeprompage);
 609              		.loc 1 154 0
 610 0060 7B8A     		ldrh	r3, [r7, #18]
 611 0062 1846     		mov	r0, r3
 612 0064 FFF7FEFF 		bl	LoadEepromPage
 155:.\PrimeImpl.c ****                 switch(pjob->_ppump->_authorizationinfo._hoseid)
 613              		.loc 1 155 0
 614 0068 7B69     		ldr	r3, [r7, #20]
 615 006a DB69     		ldr	r3, [r3, #28]
 616 006c 93F87A3B 		ldrb	r3, [r3, #2938]
 617 0070 DBB2     		uxtb	r3, r3
 618 0072 032B     		cmp	r3, #3
 619 0074 64D8     		bhi	.L21
 620 0076 01A2     		adr	r2, .L23
 621 0078 52F823F0 		ldr	pc, [r2, r3, lsl #2]
 622              		.p2align 2
 623              	.L23:
 624 007c 8D000000 		.word	.L22+1
 625 0080 B7000000 		.word	.L24+1
 626 0084 E5000000 		.word	.L25+1
 627 0088 13010000 		.word	.L26+1
 628              		.p2align 1
 629              	.L22:
 156:.\PrimeImpl.c ****                 {
 157:.\PrimeImpl.c ****                     case 0x00:
 158:.\PrimeImpl.c ****                     //Six bytes only since the PPU is constrained to this length
 159:.\PrimeImpl.c ****                     memcpy(PBYTECAST(&pjob->_ppump->_trasactionbuffer[GetBufferIndexFromDisplayID(D
 630              		.loc 1 159 0
 631 008c 7B69     		ldr	r3, [r7, #20]
 632 008e DC69     		ldr	r4, [r3, #28]
 633 0090 6520     		movs	r0, #101
 634 0092 FFF7FEFF 		bl	GetBufferIndexFromDisplayID
 635 0096 0346     		mov	r3, r0
 636 0098 2033     		adds	r3, r3, #32
 637 009a 1C44     		add	r4, r4, r3
 638 009c FFF7FEFF 		bl	GetEepromBuffer
 639 00a0 0546     		mov	r5, r0
ARM GAS  C:\Users\RECEPC~1\AppData\Local\Temp\ccQD6Oev.s 			page 15


 640 00a2 6520     		movs	r0, #101
 641 00a4 FFF7FEFF 		bl	GetBufferLengthFromDisplayID
 642 00a8 0346     		mov	r3, r0
 643 00aa 2046     		mov	r0, r4
 644 00ac 2946     		mov	r1, r5
 645 00ae 1A46     		mov	r2, r3
 646 00b0 FFF7FEFF 		bl	memcpy
 160:.\PrimeImpl.c ****                     break;
 647              		.loc 1 160 0
 648 00b4 44E0     		b	.L21
 649              	.L24:
 161:.\PrimeImpl.c ****                     case 0x01:
 162:.\PrimeImpl.c ****                     //Six bytes only since the PPU is constrained to this length
 163:.\PrimeImpl.c ****                     memcpy(PBYTECAST(&pjob->_ppump->_trasactionbuffer[GetBufferIndexFromDisplayID(D
 650              		.loc 1 163 0
 651 00b6 7B69     		ldr	r3, [r7, #20]
 652 00b8 DC69     		ldr	r4, [r3, #28]
 653 00ba 6520     		movs	r0, #101
 654 00bc FFF7FEFF 		bl	GetBufferIndexFromDisplayID
 655 00c0 0346     		mov	r3, r0
 656 00c2 2033     		adds	r3, r3, #32
 657 00c4 E518     		adds	r5, r4, r3
 658 00c6 FFF7FEFF 		bl	GetEepromBuffer
 659 00ca 0346     		mov	r3, r0
 660 00cc 03F11004 		add	r4, r3, #16
 661 00d0 6520     		movs	r0, #101
 662 00d2 FFF7FEFF 		bl	GetBufferLengthFromDisplayID
 663 00d6 0346     		mov	r3, r0
 664 00d8 2846     		mov	r0, r5
 665 00da 2146     		mov	r1, r4
 666 00dc 1A46     		mov	r2, r3
 667 00de FFF7FEFF 		bl	memcpy
 164:.\PrimeImpl.c ****                     break;
 668              		.loc 1 164 0
 669 00e2 2DE0     		b	.L21
 670              	.L25:
 165:.\PrimeImpl.c ****                     case 0x02:
 166:.\PrimeImpl.c ****                     //Six bytes only since the PPU is constrained to this length
 167:.\PrimeImpl.c ****                     memcpy(PBYTECAST(&pjob->_ppump->_trasactionbuffer[GetBufferIndexFromDisplayID(D
 671              		.loc 1 167 0
 672 00e4 7B69     		ldr	r3, [r7, #20]
 673 00e6 DC69     		ldr	r4, [r3, #28]
 674 00e8 6520     		movs	r0, #101
 675 00ea FFF7FEFF 		bl	GetBufferIndexFromDisplayID
 676 00ee 0346     		mov	r3, r0
 677 00f0 2033     		adds	r3, r3, #32
 678 00f2 E518     		adds	r5, r4, r3
 679 00f4 FFF7FEFF 		bl	GetEepromBuffer
 680 00f8 0346     		mov	r3, r0
 681 00fa 03F12004 		add	r4, r3, #32
 682 00fe 6520     		movs	r0, #101
 683 0100 FFF7FEFF 		bl	GetBufferLengthFromDisplayID
 684 0104 0346     		mov	r3, r0
 685 0106 2846     		mov	r0, r5
 686 0108 2146     		mov	r1, r4
 687 010a 1A46     		mov	r2, r3
 688 010c FFF7FEFF 		bl	memcpy
ARM GAS  C:\Users\RECEPC~1\AppData\Local\Temp\ccQD6Oev.s 			page 16


 168:.\PrimeImpl.c ****                     break;
 689              		.loc 1 168 0
 690 0110 16E0     		b	.L21
 691              	.L26:
 169:.\PrimeImpl.c ****                     case 0x03:
 170:.\PrimeImpl.c ****                     //Six bytes only since the PPU is constrained to this length
 171:.\PrimeImpl.c ****                     memcpy(PBYTECAST(&pjob->_ppump->_trasactionbuffer[GetBufferIndexFromDisplayID(D
 692              		.loc 1 171 0
 693 0112 7B69     		ldr	r3, [r7, #20]
 694 0114 DC69     		ldr	r4, [r3, #28]
 695 0116 6520     		movs	r0, #101
 696 0118 FFF7FEFF 		bl	GetBufferIndexFromDisplayID
 697 011c 0346     		mov	r3, r0
 698 011e 2033     		adds	r3, r3, #32
 699 0120 E518     		adds	r5, r4, r3
 700 0122 FFF7FEFF 		bl	GetEepromBuffer
 701 0126 0346     		mov	r3, r0
 702 0128 03F13004 		add	r4, r3, #48
 703 012c 6520     		movs	r0, #101
 704 012e FFF7FEFF 		bl	GetBufferLengthFromDisplayID
 705 0132 0346     		mov	r3, r0
 706 0134 2846     		mov	r0, r5
 707 0136 2146     		mov	r1, r4
 708 0138 1A46     		mov	r2, r3
 709 013a FFF7FEFF 		bl	memcpy
 172:.\PrimeImpl.c ****                     break;
 710              		.loc 1 172 0
 711 013e 00BF     		nop
 712              	.L21:
 173:.\PrimeImpl.c ****                 }
 174:.\PrimeImpl.c ****                 I2CBusUnlock();
 713              		.loc 1 174 0
 714 0140 FFF7FEFF 		bl	I2CBusUnlock
 175:.\PrimeImpl.c ****                 
 176:.\PrimeImpl.c ****                 memcpy(PBYTECAST(&pjob->_ppump->_rxbuffer[0x0C]), PBYTECAST(&pjob->_ppump->_trasact
 715              		.loc 1 176 0
 716 0144 7B69     		ldr	r3, [r7, #20]
 717 0146 DB69     		ldr	r3, [r3, #28]
 718 0148 03F5CA75 		add	r5, r3, #404
 719 014c 7B69     		ldr	r3, [r7, #20]
 720 014e DC69     		ldr	r4, [r3, #28]
 721 0150 6520     		movs	r0, #101
 722 0152 FFF7FEFF 		bl	GetBufferIndexFromDisplayID
 723 0156 0346     		mov	r3, r0
 724 0158 2033     		adds	r3, r3, #32
 725 015a 2344     		add	r3, r3, r4
 726 015c 2846     		mov	r0, r5
 727 015e 1946     		mov	r1, r3
 728 0160 0622     		movs	r2, #6
 729 0162 FFF7FEFF 		bl	memcpy
 177:.\PrimeImpl.c ****                 
 178:.\PrimeImpl.c ****                 //Bytes from index 12 to 17 are the digits for the PPU used for the transaction
 179:.\PrimeImpl.c ****                 //Digits are in BCD format
 180:.\PrimeImpl.c ****                 pjob->_ppump->_rxbuffer[0x0C] = (pjob->_ppump->_rxbuffer[0x0C] & 0x0F);
 730              		.loc 1 180 0
 731 0166 7B69     		ldr	r3, [r7, #20]
 732 0168 DB69     		ldr	r3, [r3, #28]
ARM GAS  C:\Users\RECEPC~1\AppData\Local\Temp\ccQD6Oev.s 			page 17


 733 016a 7A69     		ldr	r2, [r7, #20]
 734 016c D269     		ldr	r2, [r2, #28]
 735 016e 92F89421 		ldrb	r2, [r2, #404]	@ zero_extendqisi2
 736 0172 02F00F02 		and	r2, r2, #15
 737 0176 D2B2     		uxtb	r2, r2
 738 0178 83F89421 		strb	r2, [r3, #404]
 181:.\PrimeImpl.c ****                 pjob->_ppump->_rxbuffer[0x0D] = (pjob->_ppump->_rxbuffer[0x0D] & 0x0F);
 739              		.loc 1 181 0
 740 017c 7B69     		ldr	r3, [r7, #20]
 741 017e DB69     		ldr	r3, [r3, #28]
 742 0180 7A69     		ldr	r2, [r7, #20]
 743 0182 D269     		ldr	r2, [r2, #28]
 744 0184 92F89521 		ldrb	r2, [r2, #405]	@ zero_extendqisi2
 745 0188 02F00F02 		and	r2, r2, #15
 746 018c D2B2     		uxtb	r2, r2
 747 018e 83F89521 		strb	r2, [r3, #405]
 182:.\PrimeImpl.c ****                 pjob->_ppump->_rxbuffer[0x0E] = (pjob->_ppump->_rxbuffer[0x0E] & 0x0F);
 748              		.loc 1 182 0
 749 0192 7B69     		ldr	r3, [r7, #20]
 750 0194 DB69     		ldr	r3, [r3, #28]
 751 0196 7A69     		ldr	r2, [r7, #20]
 752 0198 D269     		ldr	r2, [r2, #28]
 753 019a 92F89621 		ldrb	r2, [r2, #406]	@ zero_extendqisi2
 754 019e 02F00F02 		and	r2, r2, #15
 755 01a2 D2B2     		uxtb	r2, r2
 756 01a4 83F89621 		strb	r2, [r3, #406]
 183:.\PrimeImpl.c ****                 pjob->_ppump->_rxbuffer[0x0F] = (pjob->_ppump->_rxbuffer[0x0F] & 0x0F);
 757              		.loc 1 183 0
 758 01a8 7B69     		ldr	r3, [r7, #20]
 759 01aa DB69     		ldr	r3, [r3, #28]
 760 01ac 7A69     		ldr	r2, [r7, #20]
 761 01ae D269     		ldr	r2, [r2, #28]
 762 01b0 92F89721 		ldrb	r2, [r2, #407]	@ zero_extendqisi2
 763 01b4 02F00F02 		and	r2, r2, #15
 764 01b8 D2B2     		uxtb	r2, r2
 765 01ba 83F89721 		strb	r2, [r3, #407]
 184:.\PrimeImpl.c ****                 pjob->_ppump->_rxbuffer[0x10] = (pjob->_ppump->_rxbuffer[0x10] & 0x0F);
 766              		.loc 1 184 0
 767 01be 7B69     		ldr	r3, [r7, #20]
 768 01c0 DB69     		ldr	r3, [r3, #28]
 769 01c2 7A69     		ldr	r2, [r7, #20]
 770 01c4 D269     		ldr	r2, [r2, #28]
 771 01c6 92F89821 		ldrb	r2, [r2, #408]	@ zero_extendqisi2
 772 01ca 02F00F02 		and	r2, r2, #15
 773 01ce D2B2     		uxtb	r2, r2
 774 01d0 83F89821 		strb	r2, [r3, #408]
 185:.\PrimeImpl.c ****                 pjob->_ppump->_rxbuffer[0x11] = (pjob->_ppump->_rxbuffer[0x11] & 0x0F);
 775              		.loc 1 185 0
 776 01d4 7B69     		ldr	r3, [r7, #20]
 777 01d6 DB69     		ldr	r3, [r3, #28]
 778 01d8 7A69     		ldr	r2, [r7, #20]
 779 01da D269     		ldr	r2, [r2, #28]
 780 01dc 92F89921 		ldrb	r2, [r2, #409]	@ zero_extendqisi2
 781 01e0 02F00F02 		and	r2, r2, #15
 782 01e4 D2B2     		uxtb	r2, r2
 783 01e6 83F89921 		strb	r2, [r3, #409]
 186:.\PrimeImpl.c ****                 pjob->_ppump->_authorizationinfo._price = LSDBCDBUFF2HEX(PBYTECAST(&pjob->_ppump->_
ARM GAS  C:\Users\RECEPC~1\AppData\Local\Temp\ccQD6Oev.s 			page 18


 784              		.loc 1 186 0
 785 01ea 7B69     		ldr	r3, [r7, #20]
 786 01ec DC69     		ldr	r4, [r3, #28]
 787 01ee 7B69     		ldr	r3, [r7, #20]
 788 01f0 DB69     		ldr	r3, [r3, #28]
 789 01f2 03F5CA73 		add	r3, r3, #404
 790 01f6 1846     		mov	r0, r3
 791 01f8 0621     		movs	r1, #6
 792 01fa FFF7FEFF 		bl	LSDBCDBUFF2HEX
 793 01fe 0346     		mov	r3, r0
 794 0200 9BB2     		uxth	r3, r3
 795 0202 A4F87C3B 		strh	r3, [r4, #2940]	@ movhi
 796              	.LBE4:
 797 0206 41E0     		b	.L27
 798              	.L20:
 187:.\PrimeImpl.c ****                 
 188:.\PrimeImpl.c ****             }
 189:.\PrimeImpl.c ****             else
 190:.\PrimeImpl.c ****             {
 191:.\PrimeImpl.c ****                 pjob->_ppump->_rxbuffer[0x0C] = (pjob->_ppump->_rxbuffer[0x0C] & 0x0F);
 799              		.loc 1 191 0
 800 0208 7B69     		ldr	r3, [r7, #20]
 801 020a DB69     		ldr	r3, [r3, #28]
 802 020c 7A69     		ldr	r2, [r7, #20]
 803 020e D269     		ldr	r2, [r2, #28]
 804 0210 92F89421 		ldrb	r2, [r2, #404]	@ zero_extendqisi2
 805 0214 02F00F02 		and	r2, r2, #15
 806 0218 D2B2     		uxtb	r2, r2
 807 021a 83F89421 		strb	r2, [r3, #404]
 192:.\PrimeImpl.c ****                 pjob->_ppump->_rxbuffer[0x0D] = (pjob->_ppump->_rxbuffer[0x0D] & 0x0F);
 808              		.loc 1 192 0
 809 021e 7B69     		ldr	r3, [r7, #20]
 810 0220 DB69     		ldr	r3, [r3, #28]
 811 0222 7A69     		ldr	r2, [r7, #20]
 812 0224 D269     		ldr	r2, [r2, #28]
 813 0226 92F89521 		ldrb	r2, [r2, #405]	@ zero_extendqisi2
 814 022a 02F00F02 		and	r2, r2, #15
 815 022e D2B2     		uxtb	r2, r2
 816 0230 83F89521 		strb	r2, [r3, #405]
 193:.\PrimeImpl.c ****                 pjob->_ppump->_rxbuffer[0x0E] = (pjob->_ppump->_rxbuffer[0x0E] & 0x0F);
 817              		.loc 1 193 0
 818 0234 7B69     		ldr	r3, [r7, #20]
 819 0236 DB69     		ldr	r3, [r3, #28]
 820 0238 7A69     		ldr	r2, [r7, #20]
 821 023a D269     		ldr	r2, [r2, #28]
 822 023c 92F89621 		ldrb	r2, [r2, #406]	@ zero_extendqisi2
 823 0240 02F00F02 		and	r2, r2, #15
 824 0244 D2B2     		uxtb	r2, r2
 825 0246 83F89621 		strb	r2, [r3, #406]
 194:.\PrimeImpl.c ****                 pjob->_ppump->_rxbuffer[0x0F] = (pjob->_ppump->_rxbuffer[0x0F] & 0x0F);
 826              		.loc 1 194 0
 827 024a 7B69     		ldr	r3, [r7, #20]
 828 024c DB69     		ldr	r3, [r3, #28]
 829 024e 7A69     		ldr	r2, [r7, #20]
 830 0250 D269     		ldr	r2, [r2, #28]
 831 0252 92F89721 		ldrb	r2, [r2, #407]	@ zero_extendqisi2
 832 0256 02F00F02 		and	r2, r2, #15
ARM GAS  C:\Users\RECEPC~1\AppData\Local\Temp\ccQD6Oev.s 			page 19


 833 025a D2B2     		uxtb	r2, r2
 834 025c 83F89721 		strb	r2, [r3, #407]
 195:.\PrimeImpl.c ****                 pjob->_ppump->_rxbuffer[0x10] = (pjob->_ppump->_rxbuffer[0x10] & 0x0F);
 835              		.loc 1 195 0
 836 0260 7B69     		ldr	r3, [r7, #20]
 837 0262 DB69     		ldr	r3, [r3, #28]
 838 0264 7A69     		ldr	r2, [r7, #20]
 839 0266 D269     		ldr	r2, [r2, #28]
 840 0268 92F89821 		ldrb	r2, [r2, #408]	@ zero_extendqisi2
 841 026c 02F00F02 		and	r2, r2, #15
 842 0270 D2B2     		uxtb	r2, r2
 843 0272 83F89821 		strb	r2, [r3, #408]
 196:.\PrimeImpl.c ****                 pjob->_ppump->_rxbuffer[0x11] = (pjob->_ppump->_rxbuffer[0x11] & 0x0F);
 844              		.loc 1 196 0
 845 0276 7B69     		ldr	r3, [r7, #20]
 846 0278 DB69     		ldr	r3, [r3, #28]
 847 027a 7A69     		ldr	r2, [r7, #20]
 848 027c D269     		ldr	r2, [r2, #28]
 849 027e 92F89921 		ldrb	r2, [r2, #409]	@ zero_extendqisi2
 850 0282 02F00F02 		and	r2, r2, #15
 851 0286 D2B2     		uxtb	r2, r2
 852 0288 83F89921 		strb	r2, [r3, #409]
 853              	.L27:
 197:.\PrimeImpl.c ****             }
 198:.\PrimeImpl.c ****             
 199:.\PrimeImpl.c ****             #ifdef _FDBD65F5_2FFE_4AA7_9C5F_F70414D772FF_
 200:.\PrimeImpl.c ****             memset(&pjob->_ppump->_rxbuffer[0x13], 0x00, 0x08);
 854              		.loc 1 200 0
 855 028c 7B69     		ldr	r3, [r7, #20]
 856 028e DB69     		ldr	r3, [r3, #28]
 857 0290 03F29B13 		addw	r3, r3, #411
 858 0294 1846     		mov	r0, r3
 859 0296 0021     		movs	r1, #0
 860 0298 0822     		movs	r2, #8
 861 029a FFF7FEFF 		bl	memset
 201:.\PrimeImpl.c ****             B78AD90CF552D9B30A(pjob->_ppump->_rtvolumeamount, (PNEAR_BYTE_PTR)&pjob->_ppump->_rxbuf
 862              		.loc 1 201 0
 863 029e 7B69     		ldr	r3, [r7, #20]
 864 02a0 DB69     		ldr	r3, [r3, #28]
 865 02a2 5B69     		ldr	r3, [r3, #20]
 866 02a4 1A46     		mov	r2, r3
 867 02a6 4FF00003 		mov	r3, #0
 868 02aa 7969     		ldr	r1, [r7, #20]
 869 02ac C969     		ldr	r1, [r1, #28]
 870 02ae 01F29B14 		addw	r4, r1, #411
 871 02b2 1046     		mov	r0, r2
 872 02b4 1946     		mov	r1, r3
 873 02b6 2246     		mov	r2, r4
 874 02b8 FFF7FEFF 		bl	B78AD90CF552D9B30A
 202:.\PrimeImpl.c ****             memset(&pjob->_ppump->_rxbuffer[0x1C], 0x00, 0x08);
 875              		.loc 1 202 0
 876 02bc 7B69     		ldr	r3, [r7, #20]
 877 02be DB69     		ldr	r3, [r3, #28]
 878 02c0 03F5D273 		add	r3, r3, #420
 879 02c4 1846     		mov	r0, r3
 880 02c6 0021     		movs	r1, #0
 881 02c8 0822     		movs	r2, #8
ARM GAS  C:\Users\RECEPC~1\AppData\Local\Temp\ccQD6Oev.s 			page 20


 882 02ca FFF7FEFF 		bl	memset
 203:.\PrimeImpl.c ****             B78AD90CF552D9B30A(pjob->_ppump->_rtmoneyamount, (PNEAR_BYTE_PTR)&pjob->_ppump->_rxbuff
 883              		.loc 1 203 0
 884 02ce 7B69     		ldr	r3, [r7, #20]
 885 02d0 DB69     		ldr	r3, [r3, #28]
 886 02d2 1B69     		ldr	r3, [r3, #16]
 887 02d4 1A46     		mov	r2, r3
 888 02d6 4FF00003 		mov	r3, #0
 889 02da 7969     		ldr	r1, [r7, #20]
 890 02dc C969     		ldr	r1, [r1, #28]
 891 02de 01F2A514 		addw	r4, r1, #421
 892 02e2 1046     		mov	r0, r2
 893 02e4 1946     		mov	r1, r3
 894 02e6 2246     		mov	r2, r4
 895 02e8 FFF7FEFF 		bl	B78AD90CF552D9B30A
 204:.\PrimeImpl.c ****             #endif
 205:.\PrimeImpl.c **** 
 206:.\PrimeImpl.c ****             //Bytes from index 19 to 26 are the digits for the fuel volume delivered in the transac
 207:.\PrimeImpl.c ****             //Digits are in BCD format
 208:.\PrimeImpl.c ****             pjob->_ppump->_rxbuffer[0x13] = (pjob->_ppump->_rxbuffer[0x13] & 0x0F);
 896              		.loc 1 208 0
 897 02ec 7B69     		ldr	r3, [r7, #20]
 898 02ee DB69     		ldr	r3, [r3, #28]
 899 02f0 7A69     		ldr	r2, [r7, #20]
 900 02f2 D269     		ldr	r2, [r2, #28]
 901 02f4 92F89B21 		ldrb	r2, [r2, #411]	@ zero_extendqisi2
 902 02f8 02F00F02 		and	r2, r2, #15
 903 02fc D2B2     		uxtb	r2, r2
 904 02fe 83F89B21 		strb	r2, [r3, #411]
 209:.\PrimeImpl.c ****             pjob->_ppump->_rxbuffer[0x14] = (pjob->_ppump->_rxbuffer[0x14] & 0x0F);
 905              		.loc 1 209 0
 906 0302 7B69     		ldr	r3, [r7, #20]
 907 0304 DB69     		ldr	r3, [r3, #28]
 908 0306 7A69     		ldr	r2, [r7, #20]
 909 0308 D269     		ldr	r2, [r2, #28]
 910 030a 92F89C21 		ldrb	r2, [r2, #412]	@ zero_extendqisi2
 911 030e 02F00F02 		and	r2, r2, #15
 912 0312 D2B2     		uxtb	r2, r2
 913 0314 83F89C21 		strb	r2, [r3, #412]
 210:.\PrimeImpl.c ****             pjob->_ppump->_rxbuffer[0x15] = (pjob->_ppump->_rxbuffer[0x15] & 0x0F);
 914              		.loc 1 210 0
 915 0318 7B69     		ldr	r3, [r7, #20]
 916 031a DB69     		ldr	r3, [r3, #28]
 917 031c 7A69     		ldr	r2, [r7, #20]
 918 031e D269     		ldr	r2, [r2, #28]
 919 0320 92F89D21 		ldrb	r2, [r2, #413]	@ zero_extendqisi2
 920 0324 02F00F02 		and	r2, r2, #15
 921 0328 D2B2     		uxtb	r2, r2
 922 032a 83F89D21 		strb	r2, [r3, #413]
 211:.\PrimeImpl.c ****             pjob->_ppump->_rxbuffer[0x16] = (pjob->_ppump->_rxbuffer[0x16] & 0x0F);
 923              		.loc 1 211 0
 924 032e 7B69     		ldr	r3, [r7, #20]
 925 0330 DB69     		ldr	r3, [r3, #28]
 926 0332 7A69     		ldr	r2, [r7, #20]
 927 0334 D269     		ldr	r2, [r2, #28]
 928 0336 92F89E21 		ldrb	r2, [r2, #414]	@ zero_extendqisi2
 929 033a 02F00F02 		and	r2, r2, #15
ARM GAS  C:\Users\RECEPC~1\AppData\Local\Temp\ccQD6Oev.s 			page 21


 930 033e D2B2     		uxtb	r2, r2
 931 0340 83F89E21 		strb	r2, [r3, #414]
 212:.\PrimeImpl.c ****             pjob->_ppump->_rxbuffer[0x17] = (pjob->_ppump->_rxbuffer[0x17] & 0x0F);
 932              		.loc 1 212 0
 933 0344 7B69     		ldr	r3, [r7, #20]
 934 0346 DB69     		ldr	r3, [r3, #28]
 935 0348 7A69     		ldr	r2, [r7, #20]
 936 034a D269     		ldr	r2, [r2, #28]
 937 034c 92F89F21 		ldrb	r2, [r2, #415]	@ zero_extendqisi2
 938 0350 02F00F02 		and	r2, r2, #15
 939 0354 D2B2     		uxtb	r2, r2
 940 0356 83F89F21 		strb	r2, [r3, #415]
 213:.\PrimeImpl.c ****             pjob->_ppump->_rxbuffer[0x18] = (pjob->_ppump->_rxbuffer[0x18] & 0x0F);
 941              		.loc 1 213 0
 942 035a 7B69     		ldr	r3, [r7, #20]
 943 035c DB69     		ldr	r3, [r3, #28]
 944 035e 7A69     		ldr	r2, [r7, #20]
 945 0360 D269     		ldr	r2, [r2, #28]
 946 0362 92F8A021 		ldrb	r2, [r2, #416]	@ zero_extendqisi2
 947 0366 02F00F02 		and	r2, r2, #15
 948 036a D2B2     		uxtb	r2, r2
 949 036c 83F8A021 		strb	r2, [r3, #416]
 214:.\PrimeImpl.c ****             pjob->_ppump->_rxbuffer[0x19] = (pjob->_ppump->_rxbuffer[0x19] & 0x0F);
 950              		.loc 1 214 0
 951 0370 7B69     		ldr	r3, [r7, #20]
 952 0372 DB69     		ldr	r3, [r3, #28]
 953 0374 7A69     		ldr	r2, [r7, #20]
 954 0376 D269     		ldr	r2, [r2, #28]
 955 0378 92F8A121 		ldrb	r2, [r2, #417]	@ zero_extendqisi2
 956 037c 02F00F02 		and	r2, r2, #15
 957 0380 D2B2     		uxtb	r2, r2
 958 0382 83F8A121 		strb	r2, [r3, #417]
 215:.\PrimeImpl.c ****             pjob->_ppump->_rxbuffer[0x1A] = (pjob->_ppump->_rxbuffer[0x1A] & 0x0F);
 959              		.loc 1 215 0
 960 0386 7B69     		ldr	r3, [r7, #20]
 961 0388 DB69     		ldr	r3, [r3, #28]
 962 038a 7A69     		ldr	r2, [r7, #20]
 963 038c D269     		ldr	r2, [r2, #28]
 964 038e 92F8A221 		ldrb	r2, [r2, #418]	@ zero_extendqisi2
 965 0392 02F00F02 		and	r2, r2, #15
 966 0396 D2B2     		uxtb	r2, r2
 967 0398 83F8A221 		strb	r2, [r3, #418]
 216:.\PrimeImpl.c ****             pjob->_ppump->_authorizationinfo._volumeamount = LSDBCDBUFF2HEX(PBYTECAST(&pjob->_ppump
 968              		.loc 1 216 0
 969 039c 7B69     		ldr	r3, [r7, #20]
 970 039e DC69     		ldr	r4, [r3, #28]
 971 03a0 7B69     		ldr	r3, [r7, #20]
 972 03a2 DB69     		ldr	r3, [r3, #28]
 973 03a4 03F29B13 		addw	r3, r3, #411
 974 03a8 1846     		mov	r0, r3
 975 03aa 0821     		movs	r1, #8
 976 03ac FFF7FEFF 		bl	LSDBCDBUFF2HEX
 977 03b0 0346     		mov	r3, r0
 978 03b2 C4F8843B 		str	r3, [r4, #2948]
 217:.\PrimeImpl.c ****             
 218:.\PrimeImpl.c ****             ////////////////////////////////////////////////////////////////////////////////
 219:.\PrimeImpl.c ****             ////////////////////////////////////////////////////////////////////////////////
ARM GAS  C:\Users\RECEPC~1\AppData\Local\Temp\ccQD6Oev.s 			page 22


 220:.\PrimeImpl.c ****             
 221:.\PrimeImpl.c ****             //Bytes from index 28 to 35 are the digits for the money charged to the transaction
 222:.\PrimeImpl.c ****             //Digits are in BCD format
 223:.\PrimeImpl.c ****             if(_g_dispenserlayoutinfo._displaydigitsmode == 0x07)
 979              		.loc 1 223 0
 980 03b6 B74B     		ldr	r3, .L41
 981 03b8 1B7C     		ldrb	r3, [r3, #16]	@ zero_extendqisi2
 982 03ba 072B     		cmp	r3, #7
 983 03bc 05D1     		bne	.L28
 224:.\PrimeImpl.c ****                 pjob->_ppump->_rxbuffer[0x1C] = (pjob->_ppump->_rxbuffer[0x1C] & 0x00);//Zero to ma
 984              		.loc 1 224 0
 985 03be 7B69     		ldr	r3, [r7, #20]
 986 03c0 DB69     		ldr	r3, [r3, #28]
 987 03c2 0022     		movs	r2, #0
 988 03c4 83F8A421 		strb	r2, [r3, #420]
 989 03c8 0AE0     		b	.L29
 990              	.L28:
 225:.\PrimeImpl.c ****             else
 226:.\PrimeImpl.c ****                 pjob->_ppump->_rxbuffer[0x1C] = (pjob->_ppump->_rxbuffer[0x1C] & 0x0F);
 991              		.loc 1 226 0
 992 03ca 7B69     		ldr	r3, [r7, #20]
 993 03cc DB69     		ldr	r3, [r3, #28]
 994 03ce 7A69     		ldr	r2, [r7, #20]
 995 03d0 D269     		ldr	r2, [r2, #28]
 996 03d2 92F8A421 		ldrb	r2, [r2, #420]	@ zero_extendqisi2
 997 03d6 02F00F02 		and	r2, r2, #15
 998 03da D2B2     		uxtb	r2, r2
 999 03dc 83F8A421 		strb	r2, [r3, #420]
 1000              	.L29:
 227:.\PrimeImpl.c ****             
 228:.\PrimeImpl.c ****             pjob->_ppump->_rxbuffer[0x1D] = (pjob->_ppump->_rxbuffer[0x1D] & 0x0F);
 1001              		.loc 1 228 0
 1002 03e0 7B69     		ldr	r3, [r7, #20]
 1003 03e2 DB69     		ldr	r3, [r3, #28]
 1004 03e4 7A69     		ldr	r2, [r7, #20]
 1005 03e6 D269     		ldr	r2, [r2, #28]
 1006 03e8 92F8A521 		ldrb	r2, [r2, #421]	@ zero_extendqisi2
 1007 03ec 02F00F02 		and	r2, r2, #15
 1008 03f0 D2B2     		uxtb	r2, r2
 1009 03f2 83F8A521 		strb	r2, [r3, #421]
 229:.\PrimeImpl.c ****             pjob->_ppump->_rxbuffer[0x1E] = (pjob->_ppump->_rxbuffer[0x1E] & 0x0F);
 1010              		.loc 1 229 0
 1011 03f6 7B69     		ldr	r3, [r7, #20]
 1012 03f8 DB69     		ldr	r3, [r3, #28]
 1013 03fa 7A69     		ldr	r2, [r7, #20]
 1014 03fc D269     		ldr	r2, [r2, #28]
 1015 03fe 92F8A621 		ldrb	r2, [r2, #422]	@ zero_extendqisi2
 1016 0402 02F00F02 		and	r2, r2, #15
 1017 0406 D2B2     		uxtb	r2, r2
 1018 0408 83F8A621 		strb	r2, [r3, #422]
 230:.\PrimeImpl.c ****             pjob->_ppump->_rxbuffer[0x1F] = (pjob->_ppump->_rxbuffer[0x1F] & 0x0F);
 1019              		.loc 1 230 0
 1020 040c 7B69     		ldr	r3, [r7, #20]
 1021 040e DB69     		ldr	r3, [r3, #28]
 1022 0410 7A69     		ldr	r2, [r7, #20]
 1023 0412 D269     		ldr	r2, [r2, #28]
 1024 0414 92F8A721 		ldrb	r2, [r2, #423]	@ zero_extendqisi2
ARM GAS  C:\Users\RECEPC~1\AppData\Local\Temp\ccQD6Oev.s 			page 23


 1025 0418 02F00F02 		and	r2, r2, #15
 1026 041c D2B2     		uxtb	r2, r2
 1027 041e 83F8A721 		strb	r2, [r3, #423]
 231:.\PrimeImpl.c ****             pjob->_ppump->_rxbuffer[0x20] = (pjob->_ppump->_rxbuffer[0x20] & 0x0F);
 1028              		.loc 1 231 0
 1029 0422 7B69     		ldr	r3, [r7, #20]
 1030 0424 DB69     		ldr	r3, [r3, #28]
 1031 0426 7A69     		ldr	r2, [r7, #20]
 1032 0428 D269     		ldr	r2, [r2, #28]
 1033 042a 92F8A821 		ldrb	r2, [r2, #424]	@ zero_extendqisi2
 1034 042e 02F00F02 		and	r2, r2, #15
 1035 0432 D2B2     		uxtb	r2, r2
 1036 0434 83F8A821 		strb	r2, [r3, #424]
 232:.\PrimeImpl.c ****             pjob->_ppump->_rxbuffer[0x21] = (pjob->_ppump->_rxbuffer[0x21] & 0x0F);
 1037              		.loc 1 232 0
 1038 0438 7B69     		ldr	r3, [r7, #20]
 1039 043a DB69     		ldr	r3, [r3, #28]
 1040 043c 7A69     		ldr	r2, [r7, #20]
 1041 043e D269     		ldr	r2, [r2, #28]
 1042 0440 92F8A921 		ldrb	r2, [r2, #425]	@ zero_extendqisi2
 1043 0444 02F00F02 		and	r2, r2, #15
 1044 0448 D2B2     		uxtb	r2, r2
 1045 044a 83F8A921 		strb	r2, [r3, #425]
 233:.\PrimeImpl.c ****             pjob->_ppump->_rxbuffer[0x22] = (pjob->_ppump->_rxbuffer[0x22] & 0x0F);
 1046              		.loc 1 233 0
 1047 044e 7B69     		ldr	r3, [r7, #20]
 1048 0450 DB69     		ldr	r3, [r3, #28]
 1049 0452 7A69     		ldr	r2, [r7, #20]
 1050 0454 D269     		ldr	r2, [r2, #28]
 1051 0456 92F8AA21 		ldrb	r2, [r2, #426]	@ zero_extendqisi2
 1052 045a 02F00F02 		and	r2, r2, #15
 1053 045e D2B2     		uxtb	r2, r2
 1054 0460 83F8AA21 		strb	r2, [r3, #426]
 234:.\PrimeImpl.c ****             pjob->_ppump->_rxbuffer[0x23] = (pjob->_ppump->_rxbuffer[0x23] & 0x0F);
 1055              		.loc 1 234 0
 1056 0464 7B69     		ldr	r3, [r7, #20]
 1057 0466 DB69     		ldr	r3, [r3, #28]
 1058 0468 7A69     		ldr	r2, [r7, #20]
 1059 046a D269     		ldr	r2, [r2, #28]
 1060 046c 92F8AB21 		ldrb	r2, [r2, #427]	@ zero_extendqisi2
 1061 0470 02F00F02 		and	r2, r2, #15
 1062 0474 D2B2     		uxtb	r2, r2
 1063 0476 83F8AB21 		strb	r2, [r3, #427]
 235:.\PrimeImpl.c ****             //INQUIRY ABOUT THE EXTRA x10 RESULT SINCE THERE IS AN EXTRA 0 IN THE RESPONSE FOR THE 
 236:.\PrimeImpl.c ****             //MEANWHILE DIVIDING BY 10 TO REMOVE THE ZERO
 237:.\PrimeImpl.c ****             if(_g_dispenserlayoutinfo._displaydigitsmode == 0x07)
 1064              		.loc 1 237 0
 1065 047a 864B     		ldr	r3, .L41
 1066 047c 1B7C     		ldrb	r3, [r3, #16]	@ zero_extendqisi2
 1067 047e 072B     		cmp	r3, #7
 1068 0480 11D1     		bne	.L30
 238:.\PrimeImpl.c ****                 pjob->_ppump->_authorizationinfo._presetamount = (LSDBCDBUFF2HEX(PBYTECAST(&pjob->_
 1069              		.loc 1 238 0
 1070 0482 7B69     		ldr	r3, [r7, #20]
 1071 0484 DC69     		ldr	r4, [r3, #28]
 1072 0486 7B69     		ldr	r3, [r7, #20]
 1073 0488 DB69     		ldr	r3, [r3, #28]
ARM GAS  C:\Users\RECEPC~1\AppData\Local\Temp\ccQD6Oev.s 			page 24


 1074 048a 03F5D273 		add	r3, r3, #420
 1075 048e 1846     		mov	r0, r3
 1076 0490 0821     		movs	r1, #8
 1077 0492 FFF7FEFF 		bl	LSDBCDBUFF2HEX
 1078 0496 0246     		mov	r2, r0
 1079 0498 7F4B     		ldr	r3, .L41+4
 1080 049a A3FB0223 		umull	r2, r3, r3, r2
 1081 049e DB08     		lsrs	r3, r3, #3
 1082 04a0 C4F8803B 		str	r3, [r4, #2944]
 1083 04a4 0CE0     		b	.L31
 1084              	.L30:
 239:.\PrimeImpl.c ****             else
 240:.\PrimeImpl.c ****                 pjob->_ppump->_authorizationinfo._presetamount = LSDBCDBUFF2HEX(PBYTECAST(&pjob->_p
 1085              		.loc 1 240 0
 1086 04a6 7B69     		ldr	r3, [r7, #20]
 1087 04a8 DC69     		ldr	r4, [r3, #28]
 1088 04aa 7B69     		ldr	r3, [r7, #20]
 1089 04ac DB69     		ldr	r3, [r3, #28]
 1090 04ae 03F5D273 		add	r3, r3, #420
 1091 04b2 1846     		mov	r0, r3
 1092 04b4 0821     		movs	r1, #8
 1093 04b6 FFF7FEFF 		bl	LSDBCDBUFF2HEX
 1094 04ba 0346     		mov	r3, r0
 1095 04bc C4F8803B 		str	r3, [r4, #2944]
 1096              	.L31:
 241:.\PrimeImpl.c ****                 
 242:.\PrimeImpl.c ****             //CAREFUL WITH RETURNS BETWEEN THE LOCK/UNLOCK CALLS
 243:.\PrimeImpl.c ****             //AND RECURSIVE CALLS THAT WOULD DEADLOCK!
 244:.\PrimeImpl.c ****             I2CBusLock();
 1097              		.loc 1 244 0
 1098 04c0 FFF7FEFF 		bl	I2CBusLock
 245:.\PrimeImpl.c ****             ClearRtcBuffer();
 1099              		.loc 1 245 0
 1100 04c4 FFF7FEFF 		bl	ClearRtcBuffer
 246:.\PrimeImpl.c ****             ReadRTC();
 1101              		.loc 1 246 0
 1102 04c8 FFF7FEFF 		bl	ReadRTC
 247:.\PrimeImpl.c ****         
 248:.\PrimeImpl.c ****             ClearEepromBuffer();
 1103              		.loc 1 248 0
 1104 04cc FFF7FEFF 		bl	ClearEepromBuffer
 249:.\PrimeImpl.c ****             //In this position is located the payment type (CREDIT: 0x0E , CASH:0x0D)
 250:.\PrimeImpl.c ****             if(pjob->_ppump->_trasactionbuffer[0x00] == 0x0D)
 1105              		.loc 1 250 0
 1106 04d0 7B69     		ldr	r3, [r7, #20]
 1107 04d2 DB69     		ldr	r3, [r3, #28]
 1108 04d4 93F82030 		ldrb	r3, [r3, #32]	@ zero_extendqisi2
 1109 04d8 0D2B     		cmp	r3, #13
 1110 04da 40F0DF80 		bne	.L32
 251:.\PrimeImpl.c ****             {
 252:.\PrimeImpl.c ****                 //HERE WE STORE THE LAST TRANSACTION IN EEPROM! ALWAYS THE PREVIOUS TRANSACTION REP
 253:.\PrimeImpl.c ****                 //WILL BE OVERWRITTEN AND LOST.
 254:.\PrimeImpl.c ****                 //IN CASE OF A "CREDIT SALE", THE WHOLE DATA WILL BE STORED IN A SEPARATE MEMORY RE
 255:.\PrimeImpl.c ****                 //SINCE IN CASE OF A RF LINK DROP, THE STATE OF THE SALE COULD BE RECOVERED BY THE 
 256:.\PrimeImpl.c ****                 LoadEepromPage(EEPROM_DISPENSER_PUMP1_LAYOUT_PAGE);
 1111              		.loc 1 256 0
 1112 04de 4FF40070 		mov	r0, #512
ARM GAS  C:\Users\RECEPC~1\AppData\Local\Temp\ccQD6Oev.s 			page 25


 1113 04e2 FFF7FEFF 		bl	LoadEepromPage
 257:.\PrimeImpl.c ****                 if(GetEepromBuffer()[0] == ((pjob->_ppump->_rxbuffer[0x04] & 0x0F) + 1))
 1114              		.loc 1 257 0
 1115 04e6 FFF7FEFF 		bl	GetEepromBuffer
 1116 04ea 0346     		mov	r3, r0
 1117 04ec 1B78     		ldrb	r3, [r3]	@ zero_extendqisi2
 1118 04ee 1A46     		mov	r2, r3
 1119 04f0 7B69     		ldr	r3, [r7, #20]
 1120 04f2 DB69     		ldr	r3, [r3, #28]
 1121 04f4 93F88C31 		ldrb	r3, [r3, #396]	@ zero_extendqisi2
 1122 04f8 03F00F03 		and	r3, r3, #15
 1123 04fc 0133     		adds	r3, r3, #1
 1124 04fe 9A42     		cmp	r2, r3
 1125 0500 22D1     		bne	.L33
 258:.\PrimeImpl.c ****                 {
 259:.\PrimeImpl.c ****                     ClearEepromBuffer();
 1126              		.loc 1 259 0
 1127 0502 FFF7FEFF 		bl	ClearEepromBuffer
 260:.\PrimeImpl.c ****                     //Storing the current Date/Time for this transaction
 261:.\PrimeImpl.c ****                     memcpy(GetEepromBuffer(), GetRtcBuffer(), 0x07);
 1128              		.loc 1 261 0
 1129 0506 FFF7FEFF 		bl	GetEepromBuffer
 1130 050a 0446     		mov	r4, r0
 1131 050c FFF7FEFF 		bl	GetRtcBuffer
 1132 0510 0346     		mov	r3, r0
 1133 0512 2046     		mov	r0, r4
 1134 0514 1946     		mov	r1, r3
 1135 0516 0722     		movs	r2, #7
 1136 0518 FFF7FEFF 		bl	memcpy
 262:.\PrimeImpl.c ****                     memcpy(&GetEepromBuffer()[0x07], pjob->_ppump->_rxbuffer, pjob->_ppump->_rxbuff
 1137              		.loc 1 262 0
 1138 051c FFF7FEFF 		bl	GetEepromBuffer
 1139 0520 0346     		mov	r3, r0
 1140 0522 D91D     		adds	r1, r3, #7
 1141 0524 7B69     		ldr	r3, [r7, #20]
 1142 0526 DB69     		ldr	r3, [r3, #28]
 1143 0528 03F5C472 		add	r2, r3, #392
 1144 052c 7B69     		ldr	r3, [r7, #20]
 1145 052e DB69     		ldr	r3, [r3, #28]
 1146 0530 B3F8F032 		ldrh	r3, [r3, #752]
 1147 0534 0846     		mov	r0, r1
 1148 0536 1146     		mov	r1, r2
 1149 0538 1A46     		mov	r2, r3
 1150 053a FFF7FEFF 		bl	memcpy
 263:.\PrimeImpl.c ****                     StoreEepromPage(EEPROM_DISPENSER_PUMP12_TRANSACTION_PAGE);
 1151              		.loc 1 263 0
 1152 053e 4FF4C860 		mov	r0, #1600
 1153 0542 FFF7FEFF 		bl	StoreEepromPage
 1154 0546 82E1     		b	.L37
 1155              	.L33:
 264:.\PrimeImpl.c ****                 }
 265:.\PrimeImpl.c ****                 else
 266:.\PrimeImpl.c ****                 {
 267:.\PrimeImpl.c ****                     ClearEepromBuffer();
 1156              		.loc 1 267 0
 1157 0548 FFF7FEFF 		bl	ClearEepromBuffer
 268:.\PrimeImpl.c ****                     LoadEepromPage(EEPROM_DISPENSER_PUMP2_LAYOUT_PAGE);
ARM GAS  C:\Users\RECEPC~1\AppData\Local\Temp\ccQD6Oev.s 			page 26


 1158              		.loc 1 268 0
 1159 054c 4FF41070 		mov	r0, #576
 1160 0550 FFF7FEFF 		bl	LoadEepromPage
 269:.\PrimeImpl.c ****                     if(GetEepromBuffer()[0] == ((pjob->_ppump->_rxbuffer[0x04] & 0x0F) + 1))
 1161              		.loc 1 269 0
 1162 0554 FFF7FEFF 		bl	GetEepromBuffer
 1163 0558 0346     		mov	r3, r0
 1164 055a 1B78     		ldrb	r3, [r3]	@ zero_extendqisi2
 1165 055c 1A46     		mov	r2, r3
 1166 055e 7B69     		ldr	r3, [r7, #20]
 1167 0560 DB69     		ldr	r3, [r3, #28]
 1168 0562 93F88C31 		ldrb	r3, [r3, #396]	@ zero_extendqisi2
 1169 0566 03F00F03 		and	r3, r3, #15
 1170 056a 0133     		adds	r3, r3, #1
 1171 056c 9A42     		cmp	r2, r3
 1172 056e 22D1     		bne	.L35
 270:.\PrimeImpl.c ****                     {
 271:.\PrimeImpl.c ****                         ClearEepromBuffer();
 1173              		.loc 1 271 0
 1174 0570 FFF7FEFF 		bl	ClearEepromBuffer
 272:.\PrimeImpl.c ****                         //Storing the current Date/Time for this transaction
 273:.\PrimeImpl.c ****                         memcpy(GetEepromBuffer(), GetRtcBuffer(), 0x07);
 1175              		.loc 1 273 0
 1176 0574 FFF7FEFF 		bl	GetEepromBuffer
 1177 0578 0446     		mov	r4, r0
 1178 057a FFF7FEFF 		bl	GetRtcBuffer
 1179 057e 0346     		mov	r3, r0
 1180 0580 2046     		mov	r0, r4
 1181 0582 1946     		mov	r1, r3
 1182 0584 0722     		movs	r2, #7
 1183 0586 FFF7FEFF 		bl	memcpy
 274:.\PrimeImpl.c ****                         memcpy(&GetEepromBuffer()[0x07], pjob->_ppump->_rxbuffer, pjob->_ppump->_rx
 1184              		.loc 1 274 0
 1185 058a FFF7FEFF 		bl	GetEepromBuffer
 1186 058e 0346     		mov	r3, r0
 1187 0590 D91D     		adds	r1, r3, #7
 1188 0592 7B69     		ldr	r3, [r7, #20]
 1189 0594 DB69     		ldr	r3, [r3, #28]
 1190 0596 03F5C472 		add	r2, r3, #392
 1191 059a 7B69     		ldr	r3, [r7, #20]
 1192 059c DB69     		ldr	r3, [r3, #28]
 1193 059e B3F8F032 		ldrh	r3, [r3, #752]
 1194 05a2 0846     		mov	r0, r1
 1195 05a4 1146     		mov	r1, r2
 1196 05a6 1A46     		mov	r2, r3
 1197 05a8 FFF7FEFF 		bl	memcpy
 275:.\PrimeImpl.c ****                         StoreEepromPage(EEPROM_DISPENSER_PUMP22_TRANSACTION_PAGE);
 1198              		.loc 1 275 0
 1199 05ac 4FF4E860 		mov	r0, #1856
 1200 05b0 FFF7FEFF 		bl	StoreEepromPage
 1201 05b4 4BE1     		b	.L37
 1202              	.L35:
 276:.\PrimeImpl.c ****                     }
 277:.\PrimeImpl.c ****                     else
 278:.\PrimeImpl.c ****                     {
 279:.\PrimeImpl.c ****                         ClearEepromBuffer();
 1203              		.loc 1 279 0
ARM GAS  C:\Users\RECEPC~1\AppData\Local\Temp\ccQD6Oev.s 			page 27


 1204 05b6 FFF7FEFF 		bl	ClearEepromBuffer
 280:.\PrimeImpl.c ****                         LoadEepromPage(EEPROM_DISPENSER_PUMP3_LAYOUT_PAGE);
 1205              		.loc 1 280 0
 1206 05ba 4FF42070 		mov	r0, #640
 1207 05be FFF7FEFF 		bl	LoadEepromPage
 281:.\PrimeImpl.c ****                         if(GetEepromBuffer()[0] == ((pjob->_ppump->_rxbuffer[0x04] & 0x0F) + 1))
 1208              		.loc 1 281 0
 1209 05c2 FFF7FEFF 		bl	GetEepromBuffer
 1210 05c6 0346     		mov	r3, r0
 1211 05c8 1B78     		ldrb	r3, [r3]	@ zero_extendqisi2
 1212 05ca 1A46     		mov	r2, r3
 1213 05cc 7B69     		ldr	r3, [r7, #20]
 1214 05ce DB69     		ldr	r3, [r3, #28]
 1215 05d0 93F88C31 		ldrb	r3, [r3, #396]	@ zero_extendqisi2
 1216 05d4 03F00F03 		and	r3, r3, #15
 1217 05d8 0133     		adds	r3, r3, #1
 1218 05da 9A42     		cmp	r2, r3
 1219 05dc 22D1     		bne	.L36
 282:.\PrimeImpl.c ****                         {
 283:.\PrimeImpl.c ****                             ClearEepromBuffer();
 1220              		.loc 1 283 0
 1221 05de FFF7FEFF 		bl	ClearEepromBuffer
 284:.\PrimeImpl.c ****                             //Storing the current Date/Time for this transaction
 285:.\PrimeImpl.c ****                             memcpy(GetEepromBuffer(), GetRtcBuffer(), 0x07);
 1222              		.loc 1 285 0
 1223 05e2 FFF7FEFF 		bl	GetEepromBuffer
 1224 05e6 0446     		mov	r4, r0
 1225 05e8 FFF7FEFF 		bl	GetRtcBuffer
 1226 05ec 0346     		mov	r3, r0
 1227 05ee 2046     		mov	r0, r4
 1228 05f0 1946     		mov	r1, r3
 1229 05f2 0722     		movs	r2, #7
 1230 05f4 FFF7FEFF 		bl	memcpy
 286:.\PrimeImpl.c ****                             memcpy(&GetEepromBuffer()[0x07], pjob->_ppump->_rxbuffer, pjob->_ppump-
 1231              		.loc 1 286 0
 1232 05f8 FFF7FEFF 		bl	GetEepromBuffer
 1233 05fc 0346     		mov	r3, r0
 1234 05fe D91D     		adds	r1, r3, #7
 1235 0600 7B69     		ldr	r3, [r7, #20]
 1236 0602 DB69     		ldr	r3, [r3, #28]
 1237 0604 03F5C472 		add	r2, r3, #392
 1238 0608 7B69     		ldr	r3, [r7, #20]
 1239 060a DB69     		ldr	r3, [r3, #28]
 1240 060c B3F8F032 		ldrh	r3, [r3, #752]
 1241 0610 0846     		mov	r0, r1
 1242 0612 1146     		mov	r1, r2
 1243 0614 1A46     		mov	r2, r3
 1244 0616 FFF7FEFF 		bl	memcpy
 287:.\PrimeImpl.c ****                             StoreEepromPage(EEPROM_DISPENSER_PUMP32_TRANSACTION_PAGE);
 1245              		.loc 1 287 0
 1246 061a 4FF40460 		mov	r0, #2112
 1247 061e FFF7FEFF 		bl	StoreEepromPage
 1248 0622 14E1     		b	.L37
 1249              	.L36:
 288:.\PrimeImpl.c ****                         }
 289:.\PrimeImpl.c ****                         else
 290:.\PrimeImpl.c ****                         {
ARM GAS  C:\Users\RECEPC~1\AppData\Local\Temp\ccQD6Oev.s 			page 28


 291:.\PrimeImpl.c ****                             ClearEepromBuffer();
 1250              		.loc 1 291 0
 1251 0624 FFF7FEFF 		bl	ClearEepromBuffer
 292:.\PrimeImpl.c ****                             LoadEepromPage(EEPROM_DISPENSER_PUMP4_LAYOUT_PAGE);
 1252              		.loc 1 292 0
 1253 0628 4FF43070 		mov	r0, #704
 1254 062c FFF7FEFF 		bl	LoadEepromPage
 293:.\PrimeImpl.c ****                             if(GetEepromBuffer()[0] == ((pjob->_ppump->_rxbuffer[0x04] & 0x0F) + 1)
 1255              		.loc 1 293 0
 1256 0630 FFF7FEFF 		bl	GetEepromBuffer
 1257 0634 0346     		mov	r3, r0
 1258 0636 1B78     		ldrb	r3, [r3]	@ zero_extendqisi2
 1259 0638 1A46     		mov	r2, r3
 1260 063a 7B69     		ldr	r3, [r7, #20]
 1261 063c DB69     		ldr	r3, [r3, #28]
 1262 063e 93F88C31 		ldrb	r3, [r3, #396]	@ zero_extendqisi2
 1263 0642 03F00F03 		and	r3, r3, #15
 1264 0646 0133     		adds	r3, r3, #1
 1265 0648 9A42     		cmp	r2, r3
 1266 064a 40F00081 		bne	.L37
 294:.\PrimeImpl.c ****                             {
 295:.\PrimeImpl.c ****                                 ClearEepromBuffer();
 1267              		.loc 1 295 0
 1268 064e FFF7FEFF 		bl	ClearEepromBuffer
 296:.\PrimeImpl.c ****                                 //Storing the current Date/Time for this transaction
 297:.\PrimeImpl.c ****                                 memcpy(GetEepromBuffer(), GetRtcBuffer(), 0x07);
 1269              		.loc 1 297 0
 1270 0652 FFF7FEFF 		bl	GetEepromBuffer
 1271 0656 0446     		mov	r4, r0
 1272 0658 FFF7FEFF 		bl	GetRtcBuffer
 1273 065c 0346     		mov	r3, r0
 1274 065e 2046     		mov	r0, r4
 1275 0660 1946     		mov	r1, r3
 1276 0662 0722     		movs	r2, #7
 1277 0664 FFF7FEFF 		bl	memcpy
 298:.\PrimeImpl.c ****                                 memcpy(&GetEepromBuffer()[0x07], pjob->_ppump->_rxbuffer, pjob->_pp
 1278              		.loc 1 298 0
 1279 0668 FFF7FEFF 		bl	GetEepromBuffer
 1280 066c 0346     		mov	r3, r0
 1281 066e D91D     		adds	r1, r3, #7
 1282 0670 7B69     		ldr	r3, [r7, #20]
 1283 0672 DB69     		ldr	r3, [r3, #28]
 1284 0674 03F5C472 		add	r2, r3, #392
 1285 0678 7B69     		ldr	r3, [r7, #20]
 1286 067a DB69     		ldr	r3, [r3, #28]
 1287 067c B3F8F032 		ldrh	r3, [r3, #752]
 1288 0680 0846     		mov	r0, r1
 1289 0682 1146     		mov	r1, r2
 1290 0684 1A46     		mov	r2, r3
 1291 0686 FFF7FEFF 		bl	memcpy
 299:.\PrimeImpl.c ****                                 StoreEepromPage(EEPROM_DISPENSER_PUMP42_TRANSACTION_PAGE);
 1292              		.loc 1 299 0
 1293 068a 4FF41460 		mov	r0, #2368
 1294 068e FFF7FEFF 		bl	StoreEepromPage
 1295 0692 DCE0     		b	.L37
 1296              	.L42:
 1297              		.align	2
ARM GAS  C:\Users\RECEPC~1\AppData\Local\Temp\ccQD6Oev.s 			page 29


 1298              	.L41:
 1299 0694 00000000 		.word	_g_dispenserlayoutinfo
 1300 0698 CDCCCCCC 		.word	-858993459
 1301              	.L32:
 300:.\PrimeImpl.c ****                             }
 301:.\PrimeImpl.c ****                         }
 302:.\PrimeImpl.c ****                     }
 303:.\PrimeImpl.c ****                 }
 304:.\PrimeImpl.c ****             }else{//CREDIT TRANSACTION
 305:.\PrimeImpl.c ****                 //HERE WE STORE THE LAST TRANSACTION IN EEPROM! ALWAYS THE PREVIOUS TRANSACTION REP
 306:.\PrimeImpl.c ****                 //WILL BE OVERWRITTEN AND LOST.
 307:.\PrimeImpl.c ****                 //IN CASE OF A "CREDIT SALE", THE WHOLE DATA WILL BE STORED IN A SEPARATE MEMORY RE
 308:.\PrimeImpl.c ****                 //SINCE IN CASE OF A RF LINK DROP, THE STATE OF THE SALE COULD BE RECOVERED BY THE 
 309:.\PrimeImpl.c ****                 LoadEepromPage(EEPROM_DISPENSER_PUMP1_LAYOUT_PAGE);
 1302              		.loc 1 309 0
 1303 069c 4FF40070 		mov	r0, #512
 1304 06a0 FFF7FEFF 		bl	LoadEepromPage
 310:.\PrimeImpl.c ****                 if(GetEepromBuffer()[0] == ((pjob->_ppump->_rxbuffer[0x04] & 0x0F) + 1))
 1305              		.loc 1 310 0
 1306 06a4 FFF7FEFF 		bl	GetEepromBuffer
 1307 06a8 0346     		mov	r3, r0
 1308 06aa 1B78     		ldrb	r3, [r3]	@ zero_extendqisi2
 1309 06ac 1A46     		mov	r2, r3
 1310 06ae 7B69     		ldr	r3, [r7, #20]
 1311 06b0 DB69     		ldr	r3, [r3, #28]
 1312 06b2 93F88C31 		ldrb	r3, [r3, #396]	@ zero_extendqisi2
 1313 06b6 03F00F03 		and	r3, r3, #15
 1314 06ba 0133     		adds	r3, r3, #1
 1315 06bc 9A42     		cmp	r2, r3
 1316 06be 22D1     		bne	.L38
 311:.\PrimeImpl.c ****                 {
 312:.\PrimeImpl.c ****                     ClearEepromBuffer();
 1317              		.loc 1 312 0
 1318 06c0 FFF7FEFF 		bl	ClearEepromBuffer
 313:.\PrimeImpl.c ****                     //Storing the current Date/Time for this transaction
 314:.\PrimeImpl.c ****                     memcpy(GetEepromBuffer(), GetRtcBuffer(), 0x07);
 1319              		.loc 1 314 0
 1320 06c4 FFF7FEFF 		bl	GetEepromBuffer
 1321 06c8 0446     		mov	r4, r0
 1322 06ca FFF7FEFF 		bl	GetRtcBuffer
 1323 06ce 0346     		mov	r3, r0
 1324 06d0 2046     		mov	r0, r4
 1325 06d2 1946     		mov	r1, r3
 1326 06d4 0722     		movs	r2, #7
 1327 06d6 FFF7FEFF 		bl	memcpy
 315:.\PrimeImpl.c ****                     memcpy(&GetEepromBuffer()[0x07], pjob->_ppump->_rxbuffer, pjob->_ppump->_rxbuff
 1328              		.loc 1 315 0
 1329 06da FFF7FEFF 		bl	GetEepromBuffer
 1330 06de 0346     		mov	r3, r0
 1331 06e0 D91D     		adds	r1, r3, #7
 1332 06e2 7B69     		ldr	r3, [r7, #20]
 1333 06e4 DB69     		ldr	r3, [r3, #28]
 1334 06e6 03F5C472 		add	r2, r3, #392
 1335 06ea 7B69     		ldr	r3, [r7, #20]
 1336 06ec DB69     		ldr	r3, [r3, #28]
 1337 06ee B3F8F032 		ldrh	r3, [r3, #752]
 1338 06f2 0846     		mov	r0, r1
ARM GAS  C:\Users\RECEPC~1\AppData\Local\Temp\ccQD6Oev.s 			page 30


 1339 06f4 1146     		mov	r1, r2
 1340 06f6 1A46     		mov	r2, r3
 1341 06f8 FFF7FEFF 		bl	memcpy
 316:.\PrimeImpl.c ****                     StoreEepromPage(EEPROM_DISPENSER_PUMP14_TRANSACTION_PAGE);
 1342              		.loc 1 316 0
 1343 06fc 4FF4D860 		mov	r0, #1728
 1344 0700 FFF7FEFF 		bl	StoreEepromPage
 1345 0704 A3E0     		b	.L37
 1346              	.L38:
 317:.\PrimeImpl.c ****                 }
 318:.\PrimeImpl.c ****                 else
 319:.\PrimeImpl.c ****                 {
 320:.\PrimeImpl.c ****                     ClearEepromBuffer();
 1347              		.loc 1 320 0
 1348 0706 FFF7FEFF 		bl	ClearEepromBuffer
 321:.\PrimeImpl.c ****                     LoadEepromPage(EEPROM_DISPENSER_PUMP2_LAYOUT_PAGE);
 1349              		.loc 1 321 0
 1350 070a 4FF41070 		mov	r0, #576
 1351 070e FFF7FEFF 		bl	LoadEepromPage
 322:.\PrimeImpl.c ****                     if(GetEepromBuffer()[0] == ((pjob->_ppump->_rxbuffer[0x04] & 0x0F) + 1))
 1352              		.loc 1 322 0
 1353 0712 FFF7FEFF 		bl	GetEepromBuffer
 1354 0716 0346     		mov	r3, r0
 1355 0718 1B78     		ldrb	r3, [r3]	@ zero_extendqisi2
 1356 071a 1A46     		mov	r2, r3
 1357 071c 7B69     		ldr	r3, [r7, #20]
 1358 071e DB69     		ldr	r3, [r3, #28]
 1359 0720 93F88C31 		ldrb	r3, [r3, #396]	@ zero_extendqisi2
 1360 0724 03F00F03 		and	r3, r3, #15
 1361 0728 0133     		adds	r3, r3, #1
 1362 072a 9A42     		cmp	r2, r3
 1363 072c 22D1     		bne	.L39
 323:.\PrimeImpl.c ****                     {
 324:.\PrimeImpl.c ****                         ClearEepromBuffer();
 1364              		.loc 1 324 0
 1365 072e FFF7FEFF 		bl	ClearEepromBuffer
 325:.\PrimeImpl.c ****                         //Storing the current Date/Time for this transaction
 326:.\PrimeImpl.c ****                         memcpy(GetEepromBuffer(), GetRtcBuffer(), 0x07);
 1366              		.loc 1 326 0
 1367 0732 FFF7FEFF 		bl	GetEepromBuffer
 1368 0736 0446     		mov	r4, r0
 1369 0738 FFF7FEFF 		bl	GetRtcBuffer
 1370 073c 0346     		mov	r3, r0
 1371 073e 2046     		mov	r0, r4
 1372 0740 1946     		mov	r1, r3
 1373 0742 0722     		movs	r2, #7
 1374 0744 FFF7FEFF 		bl	memcpy
 327:.\PrimeImpl.c ****                         memcpy(&GetEepromBuffer()[0x07], pjob->_ppump->_rxbuffer, pjob->_ppump->_rx
 1375              		.loc 1 327 0
 1376 0748 FFF7FEFF 		bl	GetEepromBuffer
 1377 074c 0346     		mov	r3, r0
 1378 074e D91D     		adds	r1, r3, #7
 1379 0750 7B69     		ldr	r3, [r7, #20]
 1380 0752 DB69     		ldr	r3, [r3, #28]
 1381 0754 03F5C472 		add	r2, r3, #392
 1382 0758 7B69     		ldr	r3, [r7, #20]
 1383 075a DB69     		ldr	r3, [r3, #28]
ARM GAS  C:\Users\RECEPC~1\AppData\Local\Temp\ccQD6Oev.s 			page 31


 1384 075c B3F8F032 		ldrh	r3, [r3, #752]
 1385 0760 0846     		mov	r0, r1
 1386 0762 1146     		mov	r1, r2
 1387 0764 1A46     		mov	r2, r3
 1388 0766 FFF7FEFF 		bl	memcpy
 328:.\PrimeImpl.c ****                         StoreEepromPage(EEPROM_DISPENSER_PUMP24_TRANSACTION_PAGE);
 1389              		.loc 1 328 0
 1390 076a 4FF4F860 		mov	r0, #1984
 1391 076e FFF7FEFF 		bl	StoreEepromPage
 1392 0772 6CE0     		b	.L37
 1393              	.L39:
 329:.\PrimeImpl.c ****                     }
 330:.\PrimeImpl.c ****                     else
 331:.\PrimeImpl.c ****                     {
 332:.\PrimeImpl.c ****                         ClearEepromBuffer();
 1394              		.loc 1 332 0
 1395 0774 FFF7FEFF 		bl	ClearEepromBuffer
 333:.\PrimeImpl.c ****                         LoadEepromPage(EEPROM_DISPENSER_PUMP3_LAYOUT_PAGE);
 1396              		.loc 1 333 0
 1397 0778 4FF42070 		mov	r0, #640
 1398 077c FFF7FEFF 		bl	LoadEepromPage
 334:.\PrimeImpl.c ****                         if(GetEepromBuffer()[0] == ((pjob->_ppump->_rxbuffer[0x04] & 0x0F) + 1))
 1399              		.loc 1 334 0
 1400 0780 FFF7FEFF 		bl	GetEepromBuffer
 1401 0784 0346     		mov	r3, r0
 1402 0786 1B78     		ldrb	r3, [r3]	@ zero_extendqisi2
 1403 0788 1A46     		mov	r2, r3
 1404 078a 7B69     		ldr	r3, [r7, #20]
 1405 078c DB69     		ldr	r3, [r3, #28]
 1406 078e 93F88C31 		ldrb	r3, [r3, #396]	@ zero_extendqisi2
 1407 0792 03F00F03 		and	r3, r3, #15
 1408 0796 0133     		adds	r3, r3, #1
 1409 0798 9A42     		cmp	r2, r3
 1410 079a 22D1     		bne	.L40
 335:.\PrimeImpl.c ****                         {
 336:.\PrimeImpl.c ****                             ClearEepromBuffer();
 1411              		.loc 1 336 0
 1412 079c FFF7FEFF 		bl	ClearEepromBuffer
 337:.\PrimeImpl.c ****                             //Storing the current Date/Time for this transaction
 338:.\PrimeImpl.c ****                             memcpy(GetEepromBuffer(), GetRtcBuffer(), 0x07);
 1413              		.loc 1 338 0
 1414 07a0 FFF7FEFF 		bl	GetEepromBuffer
 1415 07a4 0446     		mov	r4, r0
 1416 07a6 FFF7FEFF 		bl	GetRtcBuffer
 1417 07aa 0346     		mov	r3, r0
 1418 07ac 2046     		mov	r0, r4
 1419 07ae 1946     		mov	r1, r3
 1420 07b0 0722     		movs	r2, #7
 1421 07b2 FFF7FEFF 		bl	memcpy
 339:.\PrimeImpl.c ****                             memcpy(&GetEepromBuffer()[0x07], pjob->_ppump->_rxbuffer, pjob->_ppump-
 1422              		.loc 1 339 0
 1423 07b6 FFF7FEFF 		bl	GetEepromBuffer
 1424 07ba 0346     		mov	r3, r0
 1425 07bc D91D     		adds	r1, r3, #7
 1426 07be 7B69     		ldr	r3, [r7, #20]
 1427 07c0 DB69     		ldr	r3, [r3, #28]
 1428 07c2 03F5C472 		add	r2, r3, #392
ARM GAS  C:\Users\RECEPC~1\AppData\Local\Temp\ccQD6Oev.s 			page 32


 1429 07c6 7B69     		ldr	r3, [r7, #20]
 1430 07c8 DB69     		ldr	r3, [r3, #28]
 1431 07ca B3F8F032 		ldrh	r3, [r3, #752]
 1432 07ce 0846     		mov	r0, r1
 1433 07d0 1146     		mov	r1, r2
 1434 07d2 1A46     		mov	r2, r3
 1435 07d4 FFF7FEFF 		bl	memcpy
 340:.\PrimeImpl.c ****                             StoreEepromPage(EEPROM_DISPENSER_PUMP34_TRANSACTION_PAGE);
 1436              		.loc 1 340 0
 1437 07d8 4FF40C60 		mov	r0, #2240
 1438 07dc FFF7FEFF 		bl	StoreEepromPage
 1439 07e0 35E0     		b	.L37
 1440              	.L40:
 341:.\PrimeImpl.c ****                         }
 342:.\PrimeImpl.c ****                         else
 343:.\PrimeImpl.c ****                         {
 344:.\PrimeImpl.c ****                             ClearEepromBuffer();
 1441              		.loc 1 344 0
 1442 07e2 FFF7FEFF 		bl	ClearEepromBuffer
 345:.\PrimeImpl.c ****                             LoadEepromPage(EEPROM_DISPENSER_PUMP4_LAYOUT_PAGE);
 1443              		.loc 1 345 0
 1444 07e6 4FF43070 		mov	r0, #704
 1445 07ea FFF7FEFF 		bl	LoadEepromPage
 346:.\PrimeImpl.c ****                             if(GetEepromBuffer()[0] == ((pjob->_ppump->_rxbuffer[0x04] & 0x0F) + 1)
 1446              		.loc 1 346 0
 1447 07ee FFF7FEFF 		bl	GetEepromBuffer
 1448 07f2 0346     		mov	r3, r0
 1449 07f4 1B78     		ldrb	r3, [r3]	@ zero_extendqisi2
 1450 07f6 1A46     		mov	r2, r3
 1451 07f8 7B69     		ldr	r3, [r7, #20]
 1452 07fa DB69     		ldr	r3, [r3, #28]
 1453 07fc 93F88C31 		ldrb	r3, [r3, #396]	@ zero_extendqisi2
 1454 0800 03F00F03 		and	r3, r3, #15
 1455 0804 0133     		adds	r3, r3, #1
 1456 0806 9A42     		cmp	r2, r3
 1457 0808 21D1     		bne	.L37
 347:.\PrimeImpl.c ****                             {
 348:.\PrimeImpl.c ****                                 ClearEepromBuffer();
 1458              		.loc 1 348 0
 1459 080a FFF7FEFF 		bl	ClearEepromBuffer
 349:.\PrimeImpl.c ****                                 //Storing the current Date/Time for this transaction
 350:.\PrimeImpl.c ****                                 memcpy(GetEepromBuffer(), GetRtcBuffer(), 0x07);
 1460              		.loc 1 350 0
 1461 080e FFF7FEFF 		bl	GetEepromBuffer
 1462 0812 0446     		mov	r4, r0
 1463 0814 FFF7FEFF 		bl	GetRtcBuffer
 1464 0818 0346     		mov	r3, r0
 1465 081a 2046     		mov	r0, r4
 1466 081c 1946     		mov	r1, r3
 1467 081e 0722     		movs	r2, #7
 1468 0820 FFF7FEFF 		bl	memcpy
 351:.\PrimeImpl.c ****                                 memcpy(&GetEepromBuffer()[0x07], pjob->_ppump->_rxbuffer, pjob->_pp
 1469              		.loc 1 351 0
 1470 0824 FFF7FEFF 		bl	GetEepromBuffer
 1471 0828 0346     		mov	r3, r0
 1472 082a D91D     		adds	r1, r3, #7
 1473 082c 7B69     		ldr	r3, [r7, #20]
ARM GAS  C:\Users\RECEPC~1\AppData\Local\Temp\ccQD6Oev.s 			page 33


 1474 082e DB69     		ldr	r3, [r3, #28]
 1475 0830 03F5C472 		add	r2, r3, #392
 1476 0834 7B69     		ldr	r3, [r7, #20]
 1477 0836 DB69     		ldr	r3, [r3, #28]
 1478 0838 B3F8F032 		ldrh	r3, [r3, #752]
 1479 083c 0846     		mov	r0, r1
 1480 083e 1146     		mov	r1, r2
 1481 0840 1A46     		mov	r2, r3
 1482 0842 FFF7FEFF 		bl	memcpy
 352:.\PrimeImpl.c ****                                 StoreEepromPage(EEPROM_DISPENSER_PUMP44_TRANSACTION_PAGE);
 1483              		.loc 1 352 0
 1484 0846 4FF41C60 		mov	r0, #2496
 1485 084a FFF7FEFF 		bl	StoreEepromPage
 1486              	.L37:
 353:.\PrimeImpl.c ****                             }
 354:.\PrimeImpl.c ****                         }
 355:.\PrimeImpl.c ****                     }
 356:.\PrimeImpl.c ****                 }
 357:.\PrimeImpl.c ****             }
 358:.\PrimeImpl.c ****             I2CBusUnlock();
 1487              		.loc 1 358 0
 1488 084e FFF7FEFF 		bl	I2CBusUnlock
 359:.\PrimeImpl.c ****                 
 360:.\PrimeImpl.c ****             //HERE WE ATTEMPT TO PUSH THE TRANSACTION INTO THE PUMP'S TRANSACTIONAL QUEUE.
 361:.\PrimeImpl.c ****             //THIS IS DONE ONLY IF THERE IS ROOM IN THE QUEUE, OTHERWISE THIS STATE WON'T
 362:.\PrimeImpl.c ****             //BE REPORTED TO THE REMOTE PEER.
 363:.\PrimeImpl.c ****             pjob->_ppump->PumpTransQueueLock(pjob->_ppump);
 1489              		.loc 1 363 0
 1490 0852 7B69     		ldr	r3, [r7, #20]
 1491 0854 DB69     		ldr	r3, [r3, #28]
 1492 0856 D3F8143B 		ldr	r3, [r3, #2836]
 1493 085a 7A69     		ldr	r2, [r7, #20]
 1494 085c D269     		ldr	r2, [r2, #28]
 1495 085e 1046     		mov	r0, r2
 1496 0860 9847     		blx	r3
 364:.\PrimeImpl.c ****             PNEAR_PUMPTRANSACTIONALSTATEPTR pts = pjob->_ppump->PumpTransQueueAllocate(pjob->_ppump
 1497              		.loc 1 364 0
 1498 0862 7B69     		ldr	r3, [r7, #20]
 1499 0864 DB69     		ldr	r3, [r3, #28]
 1500 0866 D3F8283B 		ldr	r3, [r3, #2856]
 1501 086a 7A69     		ldr	r2, [r7, #20]
 1502 086c D269     		ldr	r2, [r2, #28]
 1503 086e 1046     		mov	r0, r2
 1504 0870 9847     		blx	r3
 1505 0872 F860     		str	r0, [r7, #12]
 365:.\PrimeImpl.c ****             pjob->_ppump->PumpTransQueueUnlock(pjob->_ppump);
 1506              		.loc 1 365 0
 1507 0874 7B69     		ldr	r3, [r7, #20]
 1508 0876 DB69     		ldr	r3, [r3, #28]
 1509 0878 D3F8183B 		ldr	r3, [r3, #2840]
 1510 087c 7A69     		ldr	r2, [r7, #20]
 1511 087e D269     		ldr	r2, [r2, #28]
 1512 0880 1046     		mov	r0, r2
 1513 0882 9847     		blx	r3
 366:.\PrimeImpl.c ****             if(pts)
 1514              		.loc 1 366 0
 1515 0884 FB68     		ldr	r3, [r7, #12]
ARM GAS  C:\Users\RECEPC~1\AppData\Local\Temp\ccQD6Oev.s 			page 34


 1516 0886 002B     		cmp	r3, #0
 1517 0888 31D0     		beq	.L18
 367:.\PrimeImpl.c ****             {
 368:.\PrimeImpl.c ****                 pts->_transtate = RF_MUX_CASH_SALE_END_REPORT_RESPONSE;
 1518              		.loc 1 368 0
 1519 088a FB68     		ldr	r3, [r7, #12]
 1520 088c A422     		movs	r2, #164
 1521 088e 5A70     		strb	r2, [r3, #1]
 369:.\PrimeImpl.c ****                 memcpy(pts->_buffer, pjob->_ppump->_rxbuffer, pjob->_ppump->_rxbuffersize);
 1522              		.loc 1 369 0
 1523 0890 FB68     		ldr	r3, [r7, #12]
 1524 0892 991C     		adds	r1, r3, #2
 1525 0894 7B69     		ldr	r3, [r7, #20]
 1526 0896 DB69     		ldr	r3, [r3, #28]
 1527 0898 03F5C472 		add	r2, r3, #392
 1528 089c 7B69     		ldr	r3, [r7, #20]
 1529 089e DB69     		ldr	r3, [r3, #28]
 1530 08a0 B3F8F032 		ldrh	r3, [r3, #752]
 1531 08a4 0846     		mov	r0, r1
 1532 08a6 1146     		mov	r1, r2
 1533 08a8 1A46     		mov	r2, r3
 1534 08aa FFF7FEFF 		bl	memcpy
 370:.\PrimeImpl.c ****                 pts->_buffersize = pjob->_ppump->_rxbuffersize;
 1535              		.loc 1 370 0
 1536 08ae 7B69     		ldr	r3, [r7, #20]
 1537 08b0 DB69     		ldr	r3, [r3, #28]
 1538 08b2 B3F8F022 		ldrh	r2, [r3, #752]
 1539 08b6 FB68     		ldr	r3, [r7, #12]
 1540 08b8 A3F80221 		strh	r2, [r3, #258]	@ movhi
 371:.\PrimeImpl.c ****                 
 372:.\PrimeImpl.c ****                 pjob->_ppump->PumpTransQueueLock(pjob->_ppump);
 1541              		.loc 1 372 0
 1542 08bc 7B69     		ldr	r3, [r7, #20]
 1543 08be DB69     		ldr	r3, [r3, #28]
 1544 08c0 D3F8143B 		ldr	r3, [r3, #2836]
 1545 08c4 7A69     		ldr	r2, [r7, #20]
 1546 08c6 D269     		ldr	r2, [r2, #28]
 1547 08c8 1046     		mov	r0, r2
 1548 08ca 9847     		blx	r3
 373:.\PrimeImpl.c ****                 pjob->_ppump->PumpTransQueueEnqueue(pjob->_ppump, pts);
 1549              		.loc 1 373 0
 1550 08cc 7B69     		ldr	r3, [r7, #20]
 1551 08ce DB69     		ldr	r3, [r3, #28]
 1552 08d0 D3F8203B 		ldr	r3, [r3, #2848]
 1553 08d4 7A69     		ldr	r2, [r7, #20]
 1554 08d6 D269     		ldr	r2, [r2, #28]
 1555 08d8 1046     		mov	r0, r2
 1556 08da F968     		ldr	r1, [r7, #12]
 1557 08dc 9847     		blx	r3
 374:.\PrimeImpl.c ****                 pjob->_ppump->PumpTransQueueUnlock(pjob->_ppump);
 1558              		.loc 1 374 0
 1559 08de 7B69     		ldr	r3, [r7, #20]
 1560 08e0 DB69     		ldr	r3, [r3, #28]
 1561 08e2 D3F8183B 		ldr	r3, [r3, #2840]
 1562 08e6 7A69     		ldr	r2, [r7, #20]
 1563 08e8 D269     		ldr	r2, [r2, #28]
 1564 08ea 1046     		mov	r0, r2
ARM GAS  C:\Users\RECEPC~1\AppData\Local\Temp\ccQD6Oev.s 			page 35


 1565 08ec 9847     		blx	r3
 1566              	.L18:
 1567              	.LBE3:
 375:.\PrimeImpl.c ****             }
 376:.\PrimeImpl.c ****             
 377:.\PrimeImpl.c ****         }  
 378:.\PrimeImpl.c ****     }
 379:.\PrimeImpl.c **** }
 1568              		.loc 1 379 0
 1569 08ee 1837     		adds	r7, r7, #24
 1570              		.cfi_def_cfa_offset 16
 1571 08f0 BD46     		mov	sp, r7
 1572              		.cfi_def_cfa_register 13
 1573              		@ sp needed
 1574 08f2 B0BD     		pop	{r4, r5, r7, pc}
 1575              		.cfi_endproc
 1576              	.LFE68:
 1577              		.size	ProcessPumpTransactionData, .-ProcessPumpTransactionData
 1578              		.section	.text.ProcessPumpTotalsDataStart,"ax",%progbits
 1579              		.align	2
 1580              		.global	ProcessPumpTotalsDataStart
 1581              		.thumb
 1582              		.thumb_func
 1583              		.type	ProcessPumpTotalsDataStart, %function
 1584              	ProcessPumpTotalsDataStart:
 1585              	.LFB69:
 380:.\PrimeImpl.c **** 
 381:.\PrimeImpl.c **** 
 382:.\PrimeImpl.c **** //@Created By: HIJH
 383:.\PrimeImpl.c **** //@Date: Septembre de 2016
 384:.\PrimeImpl.c **** //Processes the totals data buffer dynamically since it changes its size
 385:.\PrimeImpl.c **** //depending on the Pump-Hose layout
 386:.\PrimeImpl.c **** void ProcessPumpTotalsDataStart(void *pparam)
 387:.\PrimeImpl.c **** {
 1586              		.loc 1 387 0
 1587              		.cfi_startproc
 1588              		@ args = 0, pretend = 0, frame = 16
 1589              		@ frame_needed = 1, uses_anonymous_args = 0
 1590 0000 90B5     		push	{r4, r7, lr}
 1591              		.cfi_def_cfa_offset 12
 1592              		.cfi_offset 4, -12
 1593              		.cfi_offset 7, -8
 1594              		.cfi_offset 14, -4
 1595 0002 85B0     		sub	sp, sp, #20
 1596              		.cfi_def_cfa_offset 32
 1597 0004 00AF     		add	r7, sp, #0
 1598              		.cfi_def_cfa_register 7
 1599 0006 7860     		str	r0, [r7, #4]
 388:.\PrimeImpl.c ****     PPUMPTRANSACTIONJOBCONTEXTPTR pjob = (PPUMPTRANSACTIONJOBCONTEXTPTR)pparam;
 1600              		.loc 1 388 0
 1601 0008 7B68     		ldr	r3, [r7, #4]
 1602 000a BB60     		str	r3, [r7, #8]
 389:.\PrimeImpl.c ****     if(pjob)
 1603              		.loc 1 389 0
 1604 000c BB68     		ldr	r3, [r7, #8]
 1605 000e 002B     		cmp	r3, #0
 1606 0010 00F0B580 		beq	.L43
ARM GAS  C:\Users\RECEPC~1\AppData\Local\Temp\ccQD6Oev.s 			page 36


 1607              	.LBB5:
 390:.\PrimeImpl.c ****     {        
 391:.\PrimeImpl.c ****         uint8 hosecount = 0x00;
 1608              		.loc 1 391 0
 1609 0014 0023     		movs	r3, #0
 1610 0016 FB73     		strb	r3, [r7, #15]
 392:.\PrimeImpl.c ****         FOR(uint8 index = 0, index < _g_dispenserlayoutinfo._numpositions, index++)
 1611              		.loc 1 392 0
 1612 0018 0023     		movs	r3, #0
 1613 001a BB73     		strb	r3, [r7, #14]
 1614 001c 30E0     		b	.L45
 1615              	.L54:
 393:.\PrimeImpl.c ****         {
 394:.\PrimeImpl.c ****             if(pjob->_ppump->_pumpid == _g_pumps[index]._pumpid)
 1616              		.loc 1 394 0
 1617 001e BB68     		ldr	r3, [r7, #8]
 1618 0020 DB69     		ldr	r3, [r3, #28]
 1619 0022 1A78     		ldrb	r2, [r3]	@ zero_extendqisi2
 1620 0024 BB7B     		ldrb	r3, [r7, #14]	@ zero_extendqisi2
 1621 0026 5749     		ldr	r1, .L61
 1622 0028 40F69830 		movw	r0, #2968
 1623 002c 00FB03F3 		mul	r3, r0, r3
 1624 0030 0B44     		add	r3, r3, r1
 1625 0032 1B78     		ldrb	r3, [r3]	@ zero_extendqisi2
 1626 0034 9A42     		cmp	r2, r3
 1627 0036 20D1     		bne	.L46
 395:.\PrimeImpl.c ****             {
 396:.\PrimeImpl.c ****                 switch(index)
 1628              		.loc 1 396 0
 1629 0038 BB7B     		ldrb	r3, [r7, #14]	@ zero_extendqisi2
 1630 003a 042B     		cmp	r3, #4
 1631 003c 26D8     		bhi	.L60
 1632 003e 01A2     		adr	r2, .L49
 1633 0040 52F823F0 		ldr	pc, [r2, r3, lsl #2]
 1634              		.p2align 2
 1635              	.L49:
 1636 0044 59000000 		.word	.L48+1
 1637 0048 61000000 		.word	.L50+1
 1638 004c 69000000 		.word	.L51+1
 1639 0050 8D000000 		.word	.L60+1
 1640 0054 71000000 		.word	.L52+1
 1641              		.p2align 1
 1642              	.L48:
 397:.\PrimeImpl.c ****                 {
 398:.\PrimeImpl.c ****                     case 0x0:
 399:.\PrimeImpl.c ****                     hosecount = _g_dispenserlayoutinfo._hosesposition1;
 1643              		.loc 1 399 0
 1644 0058 4B4B     		ldr	r3, .L61+4
 1645 005a DB78     		ldrb	r3, [r3, #3]
 1646 005c FB73     		strb	r3, [r7, #15]
 400:.\PrimeImpl.c ****                     break;
 1647              		.loc 1 400 0
 1648 005e 0BE0     		b	.L47
 1649              	.L50:
 401:.\PrimeImpl.c ****                     case 0x1:
 402:.\PrimeImpl.c ****                     hosecount = _g_dispenserlayoutinfo._hosesposition2;
 1650              		.loc 1 402 0
ARM GAS  C:\Users\RECEPC~1\AppData\Local\Temp\ccQD6Oev.s 			page 37


 1651 0060 494B     		ldr	r3, .L61+4
 1652 0062 1B79     		ldrb	r3, [r3, #4]
 1653 0064 FB73     		strb	r3, [r7, #15]
 403:.\PrimeImpl.c ****                     break;
 1654              		.loc 1 403 0
 1655 0066 07E0     		b	.L47
 1656              	.L51:
 404:.\PrimeImpl.c ****                     case 0x2:
 405:.\PrimeImpl.c ****                     hosecount = _g_dispenserlayoutinfo._hosesposition3;
 1657              		.loc 1 405 0
 1658 0068 474B     		ldr	r3, .L61+4
 1659 006a 5B79     		ldrb	r3, [r3, #5]
 1660 006c FB73     		strb	r3, [r7, #15]
 406:.\PrimeImpl.c ****                     break;
 1661              		.loc 1 406 0
 1662 006e 03E0     		b	.L47
 1663              	.L52:
 407:.\PrimeImpl.c ****                     case 0x4:
 408:.\PrimeImpl.c ****                     hosecount = _g_dispenserlayoutinfo._hosesposition4;
 1664              		.loc 1 408 0
 1665 0070 454B     		ldr	r3, .L61+4
 1666 0072 9B79     		ldrb	r3, [r3, #6]
 1667 0074 FB73     		strb	r3, [r7, #15]
 409:.\PrimeImpl.c ****                     break;
 1668              		.loc 1 409 0
 1669 0076 00BF     		nop
 1670              	.L47:
 410:.\PrimeImpl.c ****                 }
 411:.\PrimeImpl.c ****                 break;
 1671              		.loc 1 411 0
 1672 0078 08E0     		b	.L60
 1673              	.L46:
 392:.\PrimeImpl.c ****         {
 1674              		.loc 1 392 0 discriminator 2
 1675 007a BB7B     		ldrb	r3, [r7, #14]	@ zero_extendqisi2
 1676 007c 0133     		adds	r3, r3, #1
 1677 007e BB73     		strb	r3, [r7, #14]
 1678              	.L45:
 392:.\PrimeImpl.c ****         {
 1679              		.loc 1 392 0 is_stmt 0 discriminator 1
 1680 0080 414B     		ldr	r3, .L61+4
 1681 0082 9B78     		ldrb	r3, [r3, #2]	@ zero_extendqisi2
 1682 0084 BA7B     		ldrb	r2, [r7, #14]	@ zero_extendqisi2
 1683 0086 9A42     		cmp	r2, r3
 1684 0088 C9D3     		bcc	.L54
 1685 008a 00E0     		b	.L53
 1686              	.L60:
 1687              		.loc 1 411 0 is_stmt 1
 1688 008c 00BF     		nop
 1689              	.L53:
 412:.\PrimeImpl.c ****             }
 413:.\PrimeImpl.c ****         }
 414:.\PrimeImpl.c ****         
 415:.\PrimeImpl.c ****         //All indexes were taken according to the documentation
 416:.\PrimeImpl.c ****         FOR(index = 0, index < hosecount, index++)
 1690              		.loc 1 416 0
 1691 008e 0023     		movs	r3, #0
ARM GAS  C:\Users\RECEPC~1\AppData\Local\Temp\ccQD6Oev.s 			page 38


 1692 0090 BB73     		strb	r3, [r7, #14]
 1693 0092 66E0     		b	.L55
 1694              	.L59:
 417:.\PrimeImpl.c ****         {
 418:.\PrimeImpl.c ****             switch(index)
 1695              		.loc 1 418 0
 1696 0094 BB7B     		ldrb	r3, [r7, #14]	@ zero_extendqisi2
 1697 0096 002B     		cmp	r3, #0
 1698 0098 02D0     		beq	.L57
 1699 009a 012B     		cmp	r3, #1
 1700 009c 2FD0     		beq	.L58
 1701 009e 5DE0     		b	.L56
 1702              	.L57:
 419:.\PrimeImpl.c ****             {
 420:.\PrimeImpl.c ****             case 0x00:
 421:.\PrimeImpl.c ****                 pjob->_ppump->_datacontainer._var6 = BCDPositiveValueToUInt((LPRAWPTR)&pjob->_ppump
 1703              		.loc 1 421 0
 1704 00a0 BB68     		ldr	r3, [r7, #8]
 1705 00a2 DC69     		ldr	r4, [r3, #28]
 1706 00a4 BB68     		ldr	r3, [r7, #8]
 1707 00a6 DA69     		ldr	r2, [r3, #28]
 1708 00a8 BB7B     		ldrb	r3, [r7, #14]	@ zero_extendqisi2
 1709 00aa 2A21     		movs	r1, #42
 1710 00ac 01FB03F3 		mul	r3, r1, r3
 1711 00b0 0233     		adds	r3, r3, #2
 1712 00b2 03F5C473 		add	r3, r3, #392
 1713 00b6 1344     		add	r3, r3, r2
 1714 00b8 1846     		mov	r0, r3
 1715 00ba 0C21     		movs	r1, #12
 1716 00bc 0F22     		movs	r2, #15
 1717 00be FFF7FEFF 		bl	BCDPositiveValueToUInt
 1718 00c2 0246     		mov	r2, r0
 1719 00c4 0B46     		mov	r3, r1
 1720 00c6 04F64831 		addw	r1, r4, #2888
 1721 00ca C1E90023 		strd	r2, [r1]
 422:.\PrimeImpl.c ****                 pjob->_ppump->_datacontainer._var7 = BCDPositiveValueToUInt((LPRAWPTR)&pjob->_ppump
 1722              		.loc 1 422 0
 1723 00ce BB68     		ldr	r3, [r7, #8]
 1724 00d0 DC69     		ldr	r4, [r3, #28]
 1725 00d2 BB68     		ldr	r3, [r7, #8]
 1726 00d4 DA69     		ldr	r2, [r3, #28]
 1727 00d6 BB7B     		ldrb	r3, [r7, #14]	@ zero_extendqisi2
 1728 00d8 2A21     		movs	r1, #42
 1729 00da 01FB03F3 		mul	r3, r1, r3
 1730 00de 1133     		adds	r3, r3, #17
 1731 00e0 03F5C473 		add	r3, r3, #392
 1732 00e4 1344     		add	r3, r3, r2
 1733 00e6 1846     		mov	r0, r3
 1734 00e8 0C21     		movs	r1, #12
 1735 00ea 0F22     		movs	r2, #15
 1736 00ec FFF7FEFF 		bl	BCDPositiveValueToUInt
 1737 00f0 0246     		mov	r2, r0
 1738 00f2 0B46     		mov	r3, r1
 1739 00f4 04F53561 		add	r1, r4, #2896
 1740 00f8 C1E90023 		strd	r2, [r1]
 423:.\PrimeImpl.c ****                 break;
 1741              		.loc 1 423 0
ARM GAS  C:\Users\RECEPC~1\AppData\Local\Temp\ccQD6Oev.s 			page 39


 1742 00fc 2EE0     		b	.L56
 1743              	.L58:
 424:.\PrimeImpl.c ****             case 0x01:
 425:.\PrimeImpl.c ****                 pjob->_ppump->_datacontainer._var8 = BCDPositiveValueToUInt((LPRAWPTR)&pjob->_ppump
 1744              		.loc 1 425 0
 1745 00fe BB68     		ldr	r3, [r7, #8]
 1746 0100 DC69     		ldr	r4, [r3, #28]
 1747 0102 BB68     		ldr	r3, [r7, #8]
 1748 0104 DA69     		ldr	r2, [r3, #28]
 1749 0106 BB7B     		ldrb	r3, [r7, #14]	@ zero_extendqisi2
 1750 0108 2A21     		movs	r1, #42
 1751 010a 01FB03F3 		mul	r3, r1, r3
 1752 010e 0233     		adds	r3, r3, #2
 1753 0110 03F5C473 		add	r3, r3, #392
 1754 0114 1344     		add	r3, r3, r2
 1755 0116 1846     		mov	r0, r3
 1756 0118 0C21     		movs	r1, #12
 1757 011a 0F22     		movs	r2, #15
 1758 011c FFF7FEFF 		bl	BCDPositiveValueToUInt
 1759 0120 0246     		mov	r2, r0
 1760 0122 0B46     		mov	r3, r1
 1761 0124 04F65831 		addw	r1, r4, #2904
 1762 0128 C1E90023 		strd	r2, [r1]
 426:.\PrimeImpl.c ****                 pjob->_ppump->_datacontainer._var9 = BCDPositiveValueToUInt((LPRAWPTR)&pjob->_ppump
 1763              		.loc 1 426 0
 1764 012c BB68     		ldr	r3, [r7, #8]
 1765 012e DC69     		ldr	r4, [r3, #28]
 1766 0130 BB68     		ldr	r3, [r7, #8]
 1767 0132 DA69     		ldr	r2, [r3, #28]
 1768 0134 BB7B     		ldrb	r3, [r7, #14]	@ zero_extendqisi2
 1769 0136 2A21     		movs	r1, #42
 1770 0138 01FB03F3 		mul	r3, r1, r3
 1771 013c 1133     		adds	r3, r3, #17
 1772 013e 03F5C473 		add	r3, r3, #392
 1773 0142 1344     		add	r3, r3, r2
 1774 0144 1846     		mov	r0, r3
 1775 0146 0C21     		movs	r1, #12
 1776 0148 0F22     		movs	r2, #15
 1777 014a FFF7FEFF 		bl	BCDPositiveValueToUInt
 1778 014e 0246     		mov	r2, r0
 1779 0150 0B46     		mov	r3, r1
 1780 0152 04F53661 		add	r1, r4, #2912
 1781 0156 C1E90023 		strd	r2, [r1]
 427:.\PrimeImpl.c ****                 break;
 1782              		.loc 1 427 0
 1783 015a 00BF     		nop
 1784              	.L56:
 416:.\PrimeImpl.c ****         {
 1785              		.loc 1 416 0 discriminator 2
 1786 015c BB7B     		ldrb	r3, [r7, #14]	@ zero_extendqisi2
 1787 015e 0133     		adds	r3, r3, #1
 1788 0160 BB73     		strb	r3, [r7, #14]
 1789              	.L55:
 416:.\PrimeImpl.c ****         {
 1790              		.loc 1 416 0 is_stmt 0 discriminator 1
 1791 0162 BA7B     		ldrb	r2, [r7, #14]	@ zero_extendqisi2
 1792 0164 FB7B     		ldrb	r3, [r7, #15]	@ zero_extendqisi2
ARM GAS  C:\Users\RECEPC~1\AppData\Local\Temp\ccQD6Oev.s 			page 40


 1793 0166 9A42     		cmp	r2, r3
 1794 0168 94D3     		bcc	.L59
 428:.\PrimeImpl.c ****             //WARNING: IN CASE OF AN ENCORE DISPENSER OR ANOTHER WITH MORE THAN TWO HOSES PER POSIT
 429:.\PrimeImpl.c ****             }
 430:.\PrimeImpl.c ****         }
 431:.\PrimeImpl.c ****         
 432:.\PrimeImpl.c ****         memset(pjob->_ppump->_rxbuffer, 0x00, _PUMP_RX_BUFFER_SIZE_);
 1795              		.loc 1 432 0 is_stmt 1
 1796 016a BB68     		ldr	r3, [r7, #8]
 1797 016c DB69     		ldr	r3, [r3, #28]
 1798 016e 03F5C473 		add	r3, r3, #392
 1799 0172 1846     		mov	r0, r3
 1800 0174 0021     		movs	r1, #0
 1801 0176 4FF4B472 		mov	r2, #360
 1802 017a FFF7FEFF 		bl	memset
 1803              	.L43:
 1804              	.LBE5:
 433:.\PrimeImpl.c ****     }
 434:.\PrimeImpl.c **** }
 1805              		.loc 1 434 0
 1806 017e 1437     		adds	r7, r7, #20
 1807              		.cfi_def_cfa_offset 12
 1808 0180 BD46     		mov	sp, r7
 1809              		.cfi_def_cfa_register 13
 1810              		@ sp needed
 1811 0182 90BD     		pop	{r4, r7, pc}
 1812              	.L62:
 1813              		.align	2
 1814              	.L61:
 1815 0184 00000000 		.word	_g_pumps
 1816 0188 00000000 		.word	_g_dispenserlayoutinfo
 1817              		.cfi_endproc
 1818              	.LFE69:
 1819              		.size	ProcessPumpTotalsDataStart, .-ProcessPumpTotalsDataStart
 1820              		.section	.text.ProcessPumpTotalsDataEnd,"ax",%progbits
 1821              		.align	2
 1822              		.global	ProcessPumpTotalsDataEnd
 1823              		.thumb
 1824              		.thumb_func
 1825              		.type	ProcessPumpTotalsDataEnd, %function
 1826              	ProcessPumpTotalsDataEnd:
 1827              	.LFB70:
 435:.\PrimeImpl.c **** 
 436:.\PrimeImpl.c **** //@Created By: HIJH
 437:.\PrimeImpl.c **** //@Septembre de 2016
 438:.\PrimeImpl.c **** void ProcessPumpTotalsDataEnd(void *pparam)
 439:.\PrimeImpl.c **** {
 1828              		.loc 1 439 0
 1829              		.cfi_startproc
 1830              		@ args = 0, pretend = 0, frame = 56
 1831              		@ frame_needed = 1, uses_anonymous_args = 0
 1832 0000 80B5     		push	{r7, lr}
 1833              		.cfi_def_cfa_offset 8
 1834              		.cfi_offset 7, -8
 1835              		.cfi_offset 14, -4
 1836 0002 8EB0     		sub	sp, sp, #56
 1837              		.cfi_def_cfa_offset 64
ARM GAS  C:\Users\RECEPC~1\AppData\Local\Temp\ccQD6Oev.s 			page 41


 1838 0004 00AF     		add	r7, sp, #0
 1839              		.cfi_def_cfa_register 7
 1840 0006 7860     		str	r0, [r7, #4]
 440:.\PrimeImpl.c ****     PPUMPTRANSACTIONJOBCONTEXTPTR pjob = (PPUMPTRANSACTIONJOBCONTEXTPTR)pparam;
 1841              		.loc 1 440 0
 1842 0008 7B68     		ldr	r3, [r7, #4]
 1843 000a FB61     		str	r3, [r7, #28]
 441:.\PrimeImpl.c ****     if(pjob)
 1844              		.loc 1 441 0
 1845 000c FB69     		ldr	r3, [r7, #28]
 1846 000e 002B     		cmp	r3, #0
 1847 0010 00F0F180 		beq	.L63
 1848              	.LBB6:
 442:.\PrimeImpl.c ****     {
 443:.\PrimeImpl.c ****         uint8 hosecount = 0x00;
 1849              		.loc 1 443 0
 1850 0014 0023     		movs	r3, #0
 1851 0016 87F83730 		strb	r3, [r7, #55]
 444:.\PrimeImpl.c ****         FOR(uint8 index = 0, index < _g_dispenserlayoutinfo._numpositions, index++)
 1852              		.loc 1 444 0
 1853 001a 0023     		movs	r3, #0
 1854 001c 87F83630 		strb	r3, [r7, #54]
 1855 0020 38E0     		b	.L65
 1856              	.L74:
 445:.\PrimeImpl.c ****         {
 446:.\PrimeImpl.c ****             if(pjob->_ppump->_pumpid == _g_pumps[index]._pumpid)
 1857              		.loc 1 446 0
 1858 0022 FB69     		ldr	r3, [r7, #28]
 1859 0024 DB69     		ldr	r3, [r3, #28]
 1860 0026 1A78     		ldrb	r2, [r3]	@ zero_extendqisi2
 1861 0028 97F83630 		ldrb	r3, [r7, #54]	@ zero_extendqisi2
 1862 002c 7349     		ldr	r1, .L87
 1863 002e 40F69830 		movw	r0, #2968
 1864 0032 00FB03F3 		mul	r3, r0, r3
 1865 0036 0B44     		add	r3, r3, r1
 1866 0038 1B78     		ldrb	r3, [r3]	@ zero_extendqisi2
 1867 003a 9A42     		cmp	r2, r3
 1868 003c 25D1     		bne	.L66
 447:.\PrimeImpl.c ****             {
 448:.\PrimeImpl.c ****                 switch(index)
 1869              		.loc 1 448 0
 1870 003e 97F83630 		ldrb	r3, [r7, #54]	@ zero_extendqisi2
 1871 0042 042B     		cmp	r3, #4
 1872 0044 2DD8     		bhi	.L86
 1873 0046 01A2     		adr	r2, .L69
 1874 0048 52F823F0 		ldr	pc, [r2, r3, lsl #2]
 1875              		.p2align 2
 1876              	.L69:
 1877 004c 61000000 		.word	.L68+1
 1878 0050 6B000000 		.word	.L70+1
 1879 0054 75000000 		.word	.L71+1
 1880 0058 A3000000 		.word	.L86+1
 1881 005c 7F000000 		.word	.L72+1
 1882              		.p2align 1
 1883              	.L68:
 449:.\PrimeImpl.c ****                 {
 450:.\PrimeImpl.c ****                     case 0x0:
ARM GAS  C:\Users\RECEPC~1\AppData\Local\Temp\ccQD6Oev.s 			page 42


 451:.\PrimeImpl.c ****                     hosecount = _g_dispenserlayoutinfo._hosesposition1;
 1884              		.loc 1 451 0
 1885 0060 674B     		ldr	r3, .L87+4
 1886 0062 DB78     		ldrb	r3, [r3, #3]
 1887 0064 87F83730 		strb	r3, [r7, #55]
 452:.\PrimeImpl.c ****                     break;
 1888              		.loc 1 452 0
 1889 0068 0EE0     		b	.L67
 1890              	.L70:
 453:.\PrimeImpl.c ****                     case 0x1:
 454:.\PrimeImpl.c ****                     hosecount = _g_dispenserlayoutinfo._hosesposition2;
 1891              		.loc 1 454 0
 1892 006a 654B     		ldr	r3, .L87+4
 1893 006c 1B79     		ldrb	r3, [r3, #4]
 1894 006e 87F83730 		strb	r3, [r7, #55]
 455:.\PrimeImpl.c ****                     break;
 1895              		.loc 1 455 0
 1896 0072 09E0     		b	.L67
 1897              	.L71:
 456:.\PrimeImpl.c ****                     case 0x2:
 457:.\PrimeImpl.c ****                     hosecount = _g_dispenserlayoutinfo._hosesposition3;
 1898              		.loc 1 457 0
 1899 0074 624B     		ldr	r3, .L87+4
 1900 0076 5B79     		ldrb	r3, [r3, #5]
 1901 0078 87F83730 		strb	r3, [r7, #55]
 458:.\PrimeImpl.c ****                     break;
 1902              		.loc 1 458 0
 1903 007c 04E0     		b	.L67
 1904              	.L72:
 459:.\PrimeImpl.c ****                     case 0x4:
 460:.\PrimeImpl.c ****                     hosecount = _g_dispenserlayoutinfo._hosesposition4;
 1905              		.loc 1 460 0
 1906 007e 604B     		ldr	r3, .L87+4
 1907 0080 9B79     		ldrb	r3, [r3, #6]
 1908 0082 87F83730 		strb	r3, [r7, #55]
 461:.\PrimeImpl.c ****                     break;
 1909              		.loc 1 461 0
 1910 0086 00BF     		nop
 1911              	.L67:
 462:.\PrimeImpl.c ****                 }
 463:.\PrimeImpl.c ****                 break;
 1912              		.loc 1 463 0
 1913 0088 0BE0     		b	.L86
 1914              	.L66:
 444:.\PrimeImpl.c ****         {
 1915              		.loc 1 444 0 discriminator 2
 1916 008a 97F83630 		ldrb	r3, [r7, #54]	@ zero_extendqisi2
 1917 008e 0133     		adds	r3, r3, #1
 1918 0090 87F83630 		strb	r3, [r7, #54]
 1919              	.L65:
 444:.\PrimeImpl.c ****         {
 1920              		.loc 1 444 0 is_stmt 0 discriminator 1
 1921 0094 5A4B     		ldr	r3, .L87+4
 1922 0096 9B78     		ldrb	r3, [r3, #2]	@ zero_extendqisi2
 1923 0098 97F83620 		ldrb	r2, [r7, #54]	@ zero_extendqisi2
 1924 009c 9A42     		cmp	r2, r3
 1925 009e C0D3     		bcc	.L74
ARM GAS  C:\Users\RECEPC~1\AppData\Local\Temp\ccQD6Oev.s 			page 43


 1926 00a0 00E0     		b	.L73
 1927              	.L86:
 1928              		.loc 1 463 0 is_stmt 1
 1929 00a2 00BF     		nop
 1930              	.L73:
 464:.\PrimeImpl.c ****             }
 465:.\PrimeImpl.c ****         }
 466:.\PrimeImpl.c ****         
 467:.\PrimeImpl.c ****         uint64 lvar6, lvar7, lvar8, lvar9;
 468:.\PrimeImpl.c ****         //All indexes were taken according to the documentation
 469:.\PrimeImpl.c ****         FOR(index = 0, index < hosecount, index++)
 1931              		.loc 1 469 0
 1932 00a4 0023     		movs	r3, #0
 1933 00a6 87F83630 		strb	r3, [r7, #54]
 1934 00aa 55E0     		b	.L75
 1935              	.L79:
 470:.\PrimeImpl.c ****         {
 471:.\PrimeImpl.c ****             switch(index)
 1936              		.loc 1 471 0
 1937 00ac 97F83630 		ldrb	r3, [r7, #54]	@ zero_extendqisi2
 1938 00b0 002B     		cmp	r3, #0
 1939 00b2 02D0     		beq	.L77
 1940 00b4 012B     		cmp	r3, #1
 1941 00b6 25D0     		beq	.L78
 1942 00b8 49E0     		b	.L76
 1943              	.L77:
 472:.\PrimeImpl.c ****             {
 473:.\PrimeImpl.c ****             case 0x00:
 474:.\PrimeImpl.c ****                 lvar6 = BCDPositiveValueToUInt((LPRAWPTR)&pjob->_ppump->_rxbuffer[0x02 + _PUMP_TOTA
 1944              		.loc 1 474 0
 1945 00ba FB69     		ldr	r3, [r7, #28]
 1946 00bc DA69     		ldr	r2, [r3, #28]
 1947 00be 97F83630 		ldrb	r3, [r7, #54]	@ zero_extendqisi2
 1948 00c2 2A21     		movs	r1, #42
 1949 00c4 01FB03F3 		mul	r3, r1, r3
 1950 00c8 0233     		adds	r3, r3, #2
 1951 00ca 03F5C473 		add	r3, r3, #392
 1952 00ce 1344     		add	r3, r3, r2
 1953 00d0 1846     		mov	r0, r3
 1954 00d2 0C21     		movs	r1, #12
 1955 00d4 0F22     		movs	r2, #15
 1956 00d6 FFF7FEFF 		bl	BCDPositiveValueToUInt
 1957 00da C7E90A01 		strd	r0, [r7, #40]
 475:.\PrimeImpl.c ****                 lvar7 = BCDPositiveValueToUInt((LPRAWPTR)&pjob->_ppump->_rxbuffer[0x11 + _PUMP_TOTA
 1958              		.loc 1 475 0
 1959 00de FB69     		ldr	r3, [r7, #28]
 1960 00e0 DA69     		ldr	r2, [r3, #28]
 1961 00e2 97F83630 		ldrb	r3, [r7, #54]	@ zero_extendqisi2
 1962 00e6 2A21     		movs	r1, #42
 1963 00e8 01FB03F3 		mul	r3, r1, r3
 1964 00ec 1133     		adds	r3, r3, #17
 1965 00ee 03F5C473 		add	r3, r3, #392
 1966 00f2 1344     		add	r3, r3, r2
 1967 00f4 1846     		mov	r0, r3
 1968 00f6 0C21     		movs	r1, #12
 1969 00f8 0F22     		movs	r2, #15
 1970 00fa FFF7FEFF 		bl	BCDPositiveValueToUInt
ARM GAS  C:\Users\RECEPC~1\AppData\Local\Temp\ccQD6Oev.s 			page 44


 1971 00fe C7E90401 		strd	r0, [r7, #16]
 476:.\PrimeImpl.c ****                 break;
 1972              		.loc 1 476 0
 1973 0102 24E0     		b	.L76
 1974              	.L78:
 477:.\PrimeImpl.c ****             case 0x01:
 478:.\PrimeImpl.c ****                 lvar8 = BCDPositiveValueToUInt((LPRAWPTR)&pjob->_ppump->_rxbuffer[0x02 + _PUMP_TOTA
 1975              		.loc 1 478 0
 1976 0104 FB69     		ldr	r3, [r7, #28]
 1977 0106 DA69     		ldr	r2, [r3, #28]
 1978 0108 97F83630 		ldrb	r3, [r7, #54]	@ zero_extendqisi2
 1979 010c 2A21     		movs	r1, #42
 1980 010e 01FB03F3 		mul	r3, r1, r3
 1981 0112 0233     		adds	r3, r3, #2
 1982 0114 03F5C473 		add	r3, r3, #392
 1983 0118 1344     		add	r3, r3, r2
 1984 011a 1846     		mov	r0, r3
 1985 011c 0C21     		movs	r1, #12
 1986 011e 0F22     		movs	r2, #15
 1987 0120 FFF7FEFF 		bl	BCDPositiveValueToUInt
 1988 0124 C7E90801 		strd	r0, [r7, #32]
 479:.\PrimeImpl.c ****                 lvar9 = BCDPositiveValueToUInt((LPRAWPTR)&pjob->_ppump->_rxbuffer[0x11 + _PUMP_TOTA
 1989              		.loc 1 479 0
 1990 0128 FB69     		ldr	r3, [r7, #28]
 1991 012a DA69     		ldr	r2, [r3, #28]
 1992 012c 97F83630 		ldrb	r3, [r7, #54]	@ zero_extendqisi2
 1993 0130 2A21     		movs	r1, #42
 1994 0132 01FB03F3 		mul	r3, r1, r3
 1995 0136 1133     		adds	r3, r3, #17
 1996 0138 03F5C473 		add	r3, r3, #392
 1997 013c 1344     		add	r3, r3, r2
 1998 013e 1846     		mov	r0, r3
 1999 0140 0C21     		movs	r1, #12
 2000 0142 0F22     		movs	r2, #15
 2001 0144 FFF7FEFF 		bl	BCDPositiveValueToUInt
 2002 0148 C7E90201 		strd	r0, [r7, #8]
 480:.\PrimeImpl.c ****                 break;
 2003              		.loc 1 480 0
 2004 014c 00BF     		nop
 2005              	.L76:
 469:.\PrimeImpl.c ****         {
 2006              		.loc 1 469 0 discriminator 2
 2007 014e 97F83630 		ldrb	r3, [r7, #54]	@ zero_extendqisi2
 2008 0152 0133     		adds	r3, r3, #1
 2009 0154 87F83630 		strb	r3, [r7, #54]
 2010              	.L75:
 469:.\PrimeImpl.c ****         {
 2011              		.loc 1 469 0 is_stmt 0 discriminator 1
 2012 0158 97F83620 		ldrb	r2, [r7, #54]	@ zero_extendqisi2
 2013 015c 97F83730 		ldrb	r3, [r7, #55]	@ zero_extendqisi2
 2014 0160 9A42     		cmp	r2, r3
 2015 0162 A3D3     		bcc	.L79
 481:.\PrimeImpl.c ****             //WARNING: IN CASE OF AN ENCORE DISPENSER OR ANOTHER WITH MORE THAN TWO HOSES PER POSIT
 482:.\PrimeImpl.c ****             }
 483:.\PrimeImpl.c ****         }
 484:.\PrimeImpl.c ****         //INSPECT FOR ANY DIFFERENCE BETWEEN THE SOT AND THE EOT TOTALS TO INFORM THE REMOTE PEER
 485:.\PrimeImpl.c ****         switch(hosecount)
ARM GAS  C:\Users\RECEPC~1\AppData\Local\Temp\ccQD6Oev.s 			page 45


 2016              		.loc 1 485 0 is_stmt 1
 2017 0164 97F83730 		ldrb	r3, [r7, #55]	@ zero_extendqisi2
 2018 0168 012B     		cmp	r3, #1
 2019 016a 02D0     		beq	.L81
 2020 016c 022B     		cmp	r3, #2
 2021 016e 13D0     		beq	.L82
 2022 0170 37E0     		b	.L80
 2023              	.L81:
 486:.\PrimeImpl.c ****         {
 487:.\PrimeImpl.c ****             case 0x1:
 488:.\PrimeImpl.c ****             {
 489:.\PrimeImpl.c ****                 if((lvar6 - pjob->_ppump->_datacontainer._var6) ||
 2024              		.loc 1 489 0
 2025 0172 FB69     		ldr	r3, [r7, #28]
 2026 0174 DB69     		ldr	r3, [r3, #28]
 2027 0176 03F64833 		addw	r3, r3, #2888
 2028 017a D3E90001 		ldrd	r0, [r3]
 2029 017e D7E90A23 		ldrd	r2, [r7, #40]
 2030 0182 9942     		cmp	r1, r3
 2031 0184 08BF     		it	eq
 2032 0186 9042     		cmpeq	r0, r2
 2033 0188 05D1     		bne	.L83
 490:.\PrimeImpl.c ****                     (lvar7 - pjob->_ppump->_datacontainer._var7))
 2034              		.loc 1 490 0 discriminator 1
 2035 018a FB69     		ldr	r3, [r7, #28]
 2036 018c DB69     		ldr	r3, [r3, #28]
 2037 018e 03F53563 		add	r3, r3, #2896
 2038 0192 D3E90023 		ldrd	r2, [r3]
 2039              	.L83:
 491:.\PrimeImpl.c ****                 {
 492:.\PrimeImpl.c ****                     //TODO: SAVE THIS CONDITION AND NOTIFY THE REMOTE PEER (NSX IN THIS CASE)
 493:.\PrimeImpl.c ****                 }
 494:.\PrimeImpl.c ****                 break;
 2040              		.loc 1 494 0
 2041 0196 24E0     		b	.L80
 2042              	.L82:
 495:.\PrimeImpl.c ****             }
 496:.\PrimeImpl.c ****             case 0x2:
 497:.\PrimeImpl.c ****             {
 498:.\PrimeImpl.c ****                 if((lvar6 - pjob->_ppump->_datacontainer._var6) ||
 2043              		.loc 1 498 0
 2044 0198 FB69     		ldr	r3, [r7, #28]
 2045 019a DB69     		ldr	r3, [r3, #28]
 2046 019c 03F64833 		addw	r3, r3, #2888
 2047 01a0 D3E90001 		ldrd	r0, [r3]
 2048 01a4 D7E90A23 		ldrd	r2, [r7, #40]
 2049 01a8 9942     		cmp	r1, r3
 2050 01aa 08BF     		it	eq
 2051 01ac 9042     		cmpeq	r0, r2
 2052 01ae 05D1     		bne	.L84
 499:.\PrimeImpl.c ****                     (lvar7 - pjob->_ppump->_datacontainer._var7))
 2053              		.loc 1 499 0 discriminator 1
 2054 01b0 FB69     		ldr	r3, [r7, #28]
 2055 01b2 DB69     		ldr	r3, [r3, #28]
 2056 01b4 03F53563 		add	r3, r3, #2896
 2057 01b8 D3E90023 		ldrd	r2, [r3]
 2058              	.L84:
ARM GAS  C:\Users\RECEPC~1\AppData\Local\Temp\ccQD6Oev.s 			page 46


 500:.\PrimeImpl.c ****                 {
 501:.\PrimeImpl.c ****                     //TODO: SAVE THIS CONDITION AND NOTIFY THE REMOTE PEER (NSX IN THIS CASE)
 502:.\PrimeImpl.c ****                 }
 503:.\PrimeImpl.c ****                 if((lvar8 - pjob->_ppump->_datacontainer._var8) ||
 2059              		.loc 1 503 0
 2060 01bc FB69     		ldr	r3, [r7, #28]
 2061 01be DB69     		ldr	r3, [r3, #28]
 2062 01c0 03F65833 		addw	r3, r3, #2904
 2063 01c4 D3E90001 		ldrd	r0, [r3]
 2064 01c8 D7E90823 		ldrd	r2, [r7, #32]
 2065 01cc 9942     		cmp	r1, r3
 2066 01ce 08BF     		it	eq
 2067 01d0 9042     		cmpeq	r0, r2
 2068 01d2 05D1     		bne	.L85
 504:.\PrimeImpl.c ****                     (lvar9 - pjob->_ppump->_datacontainer._var9))
 2069              		.loc 1 504 0 discriminator 1
 2070 01d4 FB69     		ldr	r3, [r7, #28]
 2071 01d6 DB69     		ldr	r3, [r3, #28]
 2072 01d8 03F53663 		add	r3, r3, #2912
 2073 01dc D3E90023 		ldrd	r2, [r3]
 2074              	.L85:
 505:.\PrimeImpl.c ****                 {
 506:.\PrimeImpl.c ****                     //TODO: SAVE THIS CONDITION AND NOTIFY THE REMOTE PEER (NSX IN THIS CASE)
 507:.\PrimeImpl.c ****                 }
 508:.\PrimeImpl.c ****                 break;
 2075              		.loc 1 508 0
 2076 01e0 00BF     		nop
 2077              	.L80:
 509:.\PrimeImpl.c ****             }
 510:.\PrimeImpl.c ****             //WARNING: IN CASE OF AN ENCORE DISPENSER OR ANOTHER WITH MORE THAN TWO HOSES PER POSIT
 511:.\PrimeImpl.c ****         }
 512:.\PrimeImpl.c ****         
 513:.\PrimeImpl.c ****         memset(pjob->_ppump->_rxbuffer, 0x00, _PUMP_RX_BUFFER_SIZE_);
 2078              		.loc 1 513 0
 2079 01e2 FB69     		ldr	r3, [r7, #28]
 2080 01e4 DB69     		ldr	r3, [r3, #28]
 2081 01e6 03F5C473 		add	r3, r3, #392
 2082 01ea 1846     		mov	r0, r3
 2083 01ec 0021     		movs	r1, #0
 2084 01ee 4FF4B472 		mov	r2, #360
 2085 01f2 FFF7FEFF 		bl	memset
 2086              	.L63:
 2087              	.LBE6:
 514:.\PrimeImpl.c ****     }
 515:.\PrimeImpl.c **** }
 2088              		.loc 1 515 0
 2089 01f6 3837     		adds	r7, r7, #56
 2090              		.cfi_def_cfa_offset 8
 2091 01f8 BD46     		mov	sp, r7
 2092              		.cfi_def_cfa_register 13
 2093              		@ sp needed
 2094 01fa 80BD     		pop	{r7, pc}
 2095              	.L88:
 2096              		.align	2
 2097              	.L87:
 2098 01fc 00000000 		.word	_g_pumps
 2099 0200 00000000 		.word	_g_dispenserlayoutinfo
ARM GAS  C:\Users\RECEPC~1\AppData\Local\Temp\ccQD6Oev.s 			page 47


 2100              		.cfi_endproc
 2101              	.LFE70:
 2102              		.size	ProcessPumpTotalsDataEnd, .-ProcessPumpTotalsDataEnd
 2103              		.section	.text.ProcessPumpTotalsDataReport,"ax",%progbits
 2104              		.align	2
 2105              		.global	ProcessPumpTotalsDataReport
 2106              		.thumb
 2107              		.thumb_func
 2108              		.type	ProcessPumpTotalsDataReport, %function
 2109              	ProcessPumpTotalsDataReport:
 2110              	.LFB71:
 516:.\PrimeImpl.c **** 
 517:.\PrimeImpl.c **** //@Created By: HIJH
 518:.\PrimeImpl.c **** //@Septembre de 2016
 519:.\PrimeImpl.c **** void ProcessPumpTotalsDataReport(void *pparam)
 520:.\PrimeImpl.c **** {
 2111              		.loc 1 520 0
 2112              		.cfi_startproc
 2113              		@ args = 0, pretend = 0, frame = 24
 2114              		@ frame_needed = 1, uses_anonymous_args = 0
 2115 0000 80B5     		push	{r7, lr}
 2116              		.cfi_def_cfa_offset 8
 2117              		.cfi_offset 7, -8
 2118              		.cfi_offset 14, -4
 2119 0002 86B0     		sub	sp, sp, #24
 2120              		.cfi_def_cfa_offset 32
 2121 0004 00AF     		add	r7, sp, #0
 2122              		.cfi_def_cfa_register 7
 2123 0006 7860     		str	r0, [r7, #4]
 521:.\PrimeImpl.c ****     PPUMPTRANSACTIONJOBCONTEXTPTR pjob = (PPUMPTRANSACTIONJOBCONTEXTPTR)pparam;
 2124              		.loc 1 521 0
 2125 0008 7B68     		ldr	r3, [r7, #4]
 2126 000a 7B61     		str	r3, [r7, #20]
 522:.\PrimeImpl.c ****     if(pjob)
 2127              		.loc 1 522 0
 2128 000c 7B69     		ldr	r3, [r7, #20]
 2129 000e 002B     		cmp	r3, #0
 2130 0010 00F0C180 		beq	.L89
 2131              	.LBB7:
 523:.\PrimeImpl.c ****     {
 524:.\PrimeImpl.c ****         bool dataok = true;
 2132              		.loc 1 524 0
 2133 0014 0123     		movs	r3, #1
 2134 0016 FB74     		strb	r3, [r7, #19]
 525:.\PrimeImpl.c ****         uint8 numhoses = 0x00;
 2135              		.loc 1 525 0
 2136 0018 0023     		movs	r3, #0
 2137 001a BB74     		strb	r3, [r7, #18]
 526:.\PrimeImpl.c ****         switch(pjob->_ppump->_pumpindex)
 2138              		.loc 1 526 0
 2139 001c 7B69     		ldr	r3, [r7, #20]
 2140 001e DB69     		ldr	r3, [r3, #28]
 2141 0020 5B78     		ldrb	r3, [r3, #1]	@ zero_extendqisi2
 2142 0022 002B     		cmp	r3, #0
 2143 0024 02D0     		beq	.L92
 2144 0026 012B     		cmp	r3, #1
 2145 0028 04D0     		beq	.L93
ARM GAS  C:\Users\RECEPC~1\AppData\Local\Temp\ccQD6Oev.s 			page 48


 2146 002a 07E0     		b	.L91
 2147              	.L92:
 527:.\PrimeImpl.c ****         {
 528:.\PrimeImpl.c ****             case 0x00:
 529:.\PrimeImpl.c ****             {
 530:.\PrimeImpl.c ****                 numhoses = _g_dispenserlayoutinfo._hosesposition1;
 2148              		.loc 1 530 0
 2149 002c 5B4B     		ldr	r3, .L97
 2150 002e DB78     		ldrb	r3, [r3, #3]
 2151 0030 BB74     		strb	r3, [r7, #18]
 531:.\PrimeImpl.c ****                 break;
 2152              		.loc 1 531 0
 2153 0032 03E0     		b	.L91
 2154              	.L93:
 532:.\PrimeImpl.c ****             }
 533:.\PrimeImpl.c ****             case 0x01:
 534:.\PrimeImpl.c ****             {
 535:.\PrimeImpl.c ****                 numhoses = _g_dispenserlayoutinfo._hosesposition2;
 2155              		.loc 1 535 0
 2156 0034 594B     		ldr	r3, .L97
 2157 0036 1B79     		ldrb	r3, [r3, #4]
 2158 0038 BB74     		strb	r3, [r7, #18]
 536:.\PrimeImpl.c ****                 break;
 2159              		.loc 1 536 0
 2160 003a 00BF     		nop
 2161              	.L91:
 537:.\PrimeImpl.c ****             }
 538:.\PrimeImpl.c ****         }
 539:.\PrimeImpl.c ****         
 540:.\PrimeImpl.c ****         pjob->_reenqueue = false;
 2162              		.loc 1 540 0
 2163 003c 7B69     		ldr	r3, [r7, #20]
 2164 003e 0022     		movs	r2, #0
 2165 0040 1A70     		strb	r2, [r3]
 541:.\PrimeImpl.c ****         
 542:.\PrimeImpl.c ****         pjob->_ppump->PumpTransQueueLock(pjob->_ppump);
 2166              		.loc 1 542 0
 2167 0042 7B69     		ldr	r3, [r7, #20]
 2168 0044 DB69     		ldr	r3, [r3, #28]
 2169 0046 D3F8143B 		ldr	r3, [r3, #2836]
 2170 004a 7A69     		ldr	r2, [r7, #20]
 2171 004c D269     		ldr	r2, [r2, #28]
 2172 004e 1046     		mov	r0, r2
 2173 0050 9847     		blx	r3
 543:.\PrimeImpl.c ****         bool transtatefound = pjob->_ppump->PumpTransQueueFind(pjob->_ppump, RF_MUX_TOTALS_REPORT_R
 2174              		.loc 1 543 0
 2175 0052 7B69     		ldr	r3, [r7, #20]
 2176 0054 DB69     		ldr	r3, [r3, #28]
 2177 0056 D3F81C3B 		ldr	r3, [r3, #2844]
 2178 005a 7A69     		ldr	r2, [r7, #20]
 2179 005c D269     		ldr	r2, [r2, #28]
 2180 005e 1046     		mov	r0, r2
 2181 0060 E821     		movs	r1, #232
 2182 0062 9847     		blx	r3
 2183 0064 0346     		mov	r3, r0
 2184 0066 7B74     		strb	r3, [r7, #17]
 544:.\PrimeImpl.c ****         PNEAR_PUMPTRANSACTIONALSTATEPTR pts = pjob->_ppump->PumpTransQueueAllocate(pjob->_ppump);
ARM GAS  C:\Users\RECEPC~1\AppData\Local\Temp\ccQD6Oev.s 			page 49


 2185              		.loc 1 544 0
 2186 0068 7B69     		ldr	r3, [r7, #20]
 2187 006a DB69     		ldr	r3, [r3, #28]
 2188 006c D3F8283B 		ldr	r3, [r3, #2856]
 2189 0070 7A69     		ldr	r2, [r7, #20]
 2190 0072 D269     		ldr	r2, [r2, #28]
 2191 0074 1046     		mov	r0, r2
 2192 0076 9847     		blx	r3
 2193 0078 F860     		str	r0, [r7, #12]
 545:.\PrimeImpl.c ****         PNEAR_PUMPTRANSACTIONALSTATEPTR ptstemp = pjob->_ppump->PumpTransQueueAllocate(pjob->_ppump
 2194              		.loc 1 545 0
 2195 007a 7B69     		ldr	r3, [r7, #20]
 2196 007c DB69     		ldr	r3, [r3, #28]
 2197 007e D3F8283B 		ldr	r3, [r3, #2856]
 2198 0082 7A69     		ldr	r2, [r7, #20]
 2199 0084 D269     		ldr	r2, [r2, #28]
 2200 0086 1046     		mov	r0, r2
 2201 0088 9847     		blx	r3
 2202 008a B860     		str	r0, [r7, #8]
 546:.\PrimeImpl.c ****         
 547:.\PrimeImpl.c ****         pjob->_ppump->PumpTransQueueUnlock(pjob->_ppump);
 2203              		.loc 1 547 0
 2204 008c 7B69     		ldr	r3, [r7, #20]
 2205 008e DB69     		ldr	r3, [r3, #28]
 2206 0090 D3F8183B 		ldr	r3, [r3, #2840]
 2207 0094 7A69     		ldr	r2, [r7, #20]
 2208 0096 D269     		ldr	r2, [r2, #28]
 2209 0098 1046     		mov	r0, r2
 2210 009a 9847     		blx	r3
 548:.\PrimeImpl.c ****         if(ptstemp)
 2211              		.loc 1 548 0
 2212 009c BB68     		ldr	r3, [r7, #8]
 2213 009e 002B     		cmp	r3, #0
 2214 00a0 68D0     		beq	.L94
 549:.\PrimeImpl.c ****         {
 550:.\PrimeImpl.c ****             if(pts && !transtatefound)
 2215              		.loc 1 550 0
 2216 00a2 FB68     		ldr	r3, [r7, #12]
 2217 00a4 002B     		cmp	r3, #0
 2218 00a6 41D0     		beq	.L95
 2219              		.loc 1 550 0 is_stmt 0 discriminator 1
 2220 00a8 7B7C     		ldrb	r3, [r7, #17]
 2221 00aa 83F00103 		eor	r3, r3, #1
 2222 00ae DBB2     		uxtb	r3, r3
 2223 00b0 002B     		cmp	r3, #0
 2224 00b2 3BD0     		beq	.L95
 551:.\PrimeImpl.c ****             {
 552:.\PrimeImpl.c ****                 pts->_transtate = RF_MUX_TOTALS_REPORT_RESPONSE;
 2225              		.loc 1 552 0 is_stmt 1
 2226 00b4 FB68     		ldr	r3, [r7, #12]
 2227 00b6 E822     		movs	r2, #232
 2228 00b8 5A70     		strb	r2, [r3, #1]
 553:.\PrimeImpl.c ****                 
 554:.\PrimeImpl.c ****                 memcpy(pts->_buffer, pjob->_ppump->_rxbuffer, pjob->_ppump->_rxbuffersize);
 2229              		.loc 1 554 0
 2230 00ba FB68     		ldr	r3, [r7, #12]
 2231 00bc 991C     		adds	r1, r3, #2
ARM GAS  C:\Users\RECEPC~1\AppData\Local\Temp\ccQD6Oev.s 			page 50


 2232 00be 7B69     		ldr	r3, [r7, #20]
 2233 00c0 DB69     		ldr	r3, [r3, #28]
 2234 00c2 03F5C472 		add	r2, r3, #392
 2235 00c6 7B69     		ldr	r3, [r7, #20]
 2236 00c8 DB69     		ldr	r3, [r3, #28]
 2237 00ca B3F8F032 		ldrh	r3, [r3, #752]
 2238 00ce 0846     		mov	r0, r1
 2239 00d0 1146     		mov	r1, r2
 2240 00d2 1A46     		mov	r2, r3
 2241 00d4 FFF7FEFF 		bl	memcpy
 555:.\PrimeImpl.c ****                 pts->_buffersize = pjob->_ppump->_rxbuffersize;
 2242              		.loc 1 555 0
 2243 00d8 7B69     		ldr	r3, [r7, #20]
 2244 00da DB69     		ldr	r3, [r3, #28]
 2245 00dc B3F8F022 		ldrh	r2, [r3, #752]
 2246 00e0 FB68     		ldr	r3, [r7, #12]
 2247 00e2 A3F80221 		strh	r2, [r3, #258]	@ movhi
 556:.\PrimeImpl.c ****                 
 557:.\PrimeImpl.c ****                 pjob->_ppump->PumpTransQueueDeallocate(pjob->_ppump,ptstemp);
 2248              		.loc 1 557 0
 2249 00e6 7B69     		ldr	r3, [r7, #20]
 2250 00e8 DB69     		ldr	r3, [r3, #28]
 2251 00ea D3F8243B 		ldr	r3, [r3, #2852]
 2252 00ee 7A69     		ldr	r2, [r7, #20]
 2253 00f0 D269     		ldr	r2, [r2, #28]
 2254 00f2 1046     		mov	r0, r2
 2255 00f4 B968     		ldr	r1, [r7, #8]
 2256 00f6 9847     		blx	r3
 558:.\PrimeImpl.c ****                 pjob->_ppump->PumpTransQueueLock(pjob->_ppump);
 2257              		.loc 1 558 0
 2258 00f8 7B69     		ldr	r3, [r7, #20]
 2259 00fa DB69     		ldr	r3, [r3, #28]
 2260 00fc D3F8143B 		ldr	r3, [r3, #2836]
 2261 0100 7A69     		ldr	r2, [r7, #20]
 2262 0102 D269     		ldr	r2, [r2, #28]
 2263 0104 1046     		mov	r0, r2
 2264 0106 9847     		blx	r3
 559:.\PrimeImpl.c ****                 pjob->_ppump->PumpTransQueueEnqueue(pjob->_ppump, pts);
 2265              		.loc 1 559 0
 2266 0108 7B69     		ldr	r3, [r7, #20]
 2267 010a DB69     		ldr	r3, [r3, #28]
 2268 010c D3F8203B 		ldr	r3, [r3, #2848]
 2269 0110 7A69     		ldr	r2, [r7, #20]
 2270 0112 D269     		ldr	r2, [r2, #28]
 2271 0114 1046     		mov	r0, r2
 2272 0116 F968     		ldr	r1, [r7, #12]
 2273 0118 9847     		blx	r3
 560:.\PrimeImpl.c ****                 pjob->_ppump->PumpTransQueueUnlock(pjob->_ppump);
 2274              		.loc 1 560 0
 2275 011a 7B69     		ldr	r3, [r7, #20]
 2276 011c DB69     		ldr	r3, [r3, #28]
 2277 011e D3F8183B 		ldr	r3, [r3, #2840]
 2278 0122 7A69     		ldr	r2, [r7, #20]
 2279 0124 D269     		ldr	r2, [r2, #28]
 2280 0126 1046     		mov	r0, r2
 2281 0128 9847     		blx	r3
 2282 012a 18E0     		b	.L96
ARM GAS  C:\Users\RECEPC~1\AppData\Local\Temp\ccQD6Oev.s 			page 51


 2283              	.L95:
 561:.\PrimeImpl.c ****             }
 562:.\PrimeImpl.c ****             else
 563:.\PrimeImpl.c ****             {
 564:.\PrimeImpl.c ****                 pjob->_ppump->PumpTransQueueLock(pjob->_ppump);
 2284              		.loc 1 564 0
 2285 012c 7B69     		ldr	r3, [r7, #20]
 2286 012e DB69     		ldr	r3, [r3, #28]
 2287 0130 D3F8143B 		ldr	r3, [r3, #2836]
 2288 0134 7A69     		ldr	r2, [r7, #20]
 2289 0136 D269     		ldr	r2, [r2, #28]
 2290 0138 1046     		mov	r0, r2
 2291 013a 9847     		blx	r3
 565:.\PrimeImpl.c ****                 pjob->_ppump->PumpTransQueueDeallocate(pjob->_ppump, pts);
 2292              		.loc 1 565 0
 2293 013c 7B69     		ldr	r3, [r7, #20]
 2294 013e DB69     		ldr	r3, [r3, #28]
 2295 0140 D3F8243B 		ldr	r3, [r3, #2852]
 2296 0144 7A69     		ldr	r2, [r7, #20]
 2297 0146 D269     		ldr	r2, [r2, #28]
 2298 0148 1046     		mov	r0, r2
 2299 014a F968     		ldr	r1, [r7, #12]
 2300 014c 9847     		blx	r3
 566:.\PrimeImpl.c ****                 pjob->_ppump->PumpTransQueueUnlock(pjob->_ppump);
 2301              		.loc 1 566 0
 2302 014e 7B69     		ldr	r3, [r7, #20]
 2303 0150 DB69     		ldr	r3, [r3, #28]
 2304 0152 D3F8183B 		ldr	r3, [r3, #2840]
 2305 0156 7A69     		ldr	r2, [r7, #20]
 2306 0158 D269     		ldr	r2, [r2, #28]
 2307 015a 1046     		mov	r0, r2
 2308 015c 9847     		blx	r3
 2309              	.L96:
 567:.\PrimeImpl.c ****             }
 568:.\PrimeImpl.c ****             memset(pjob->_ppump->_rxbuffer, 0x00, _PUMP_RX_BUFFER_SIZE_);
 2310              		.loc 1 568 0
 2311 015e 7B69     		ldr	r3, [r7, #20]
 2312 0160 DB69     		ldr	r3, [r3, #28]
 2313 0162 03F5C473 		add	r3, r3, #392
 2314 0166 1846     		mov	r0, r3
 2315 0168 0021     		movs	r1, #0
 2316 016a 4FF4B472 		mov	r2, #360
 2317 016e FFF7FEFF 		bl	memset
 2318 0172 10E0     		b	.L89
 2319              	.L94:
 569:.\PrimeImpl.c ****         }else{
 570:.\PrimeImpl.c ****             pjob->_ppump->PumpTransQueueDeallocate(pjob->_ppump, pts);
 2320              		.loc 1 570 0
 2321 0174 7B69     		ldr	r3, [r7, #20]
 2322 0176 DB69     		ldr	r3, [r3, #28]
 2323 0178 D3F8243B 		ldr	r3, [r3, #2852]
 2324 017c 7A69     		ldr	r2, [r7, #20]
 2325 017e D269     		ldr	r2, [r2, #28]
 2326 0180 1046     		mov	r0, r2
 2327 0182 F968     		ldr	r1, [r7, #12]
 2328 0184 9847     		blx	r3
 571:.\PrimeImpl.c ****             pjob->_ppump->PumpTransQueueUnlock(pjob->_ppump);
ARM GAS  C:\Users\RECEPC~1\AppData\Local\Temp\ccQD6Oev.s 			page 52


 2329              		.loc 1 571 0
 2330 0186 7B69     		ldr	r3, [r7, #20]
 2331 0188 DB69     		ldr	r3, [r3, #28]
 2332 018a D3F8183B 		ldr	r3, [r3, #2840]
 2333 018e 7A69     		ldr	r2, [r7, #20]
 2334 0190 D269     		ldr	r2, [r2, #28]
 2335 0192 1046     		mov	r0, r2
 2336 0194 9847     		blx	r3
 2337              	.L89:
 2338              	.LBE7:
 572:.\PrimeImpl.c ****         }
 573:.\PrimeImpl.c ****     }
 574:.\PrimeImpl.c **** }
 2339              		.loc 1 574 0
 2340 0196 1837     		adds	r7, r7, #24
 2341              		.cfi_def_cfa_offset 8
 2342 0198 BD46     		mov	sp, r7
 2343              		.cfi_def_cfa_register 13
 2344              		@ sp needed
 2345 019a 80BD     		pop	{r7, pc}
 2346              	.L98:
 2347              		.align	2
 2348              	.L97:
 2349 019c 00000000 		.word	_g_dispenserlayoutinfo
 2350              		.cfi_endproc
 2351              	.LFE71:
 2352              		.size	ProcessPumpTotalsDataReport, .-ProcessPumpTotalsDataReport
 2353              		.section	.text.ProcessPumpTotalsDataPpuCheck,"ax",%progbits
 2354              		.align	2
 2355              		.global	ProcessPumpTotalsDataPpuCheck
 2356              		.thumb
 2357              		.thumb_func
 2358              		.type	ProcessPumpTotalsDataPpuCheck, %function
 2359              	ProcessPumpTotalsDataPpuCheck:
 2360              	.LFB72:
 575:.\PrimeImpl.c **** 
 576:.\PrimeImpl.c **** //@Created By: HIJH
 577:.\PrimeImpl.c **** //@Septembre de 2016
 578:.\PrimeImpl.c **** void ProcessPumpTotalsDataPpuCheck(void *pparam)
 579:.\PrimeImpl.c **** {
 2361              		.loc 1 579 0
 2362              		.cfi_startproc
 2363              		@ args = 0, pretend = 0, frame = 16
 2364              		@ frame_needed = 1, uses_anonymous_args = 0
 2365 0000 80B5     		push	{r7, lr}
 2366              		.cfi_def_cfa_offset 8
 2367              		.cfi_offset 7, -8
 2368              		.cfi_offset 14, -4
 2369 0002 84B0     		sub	sp, sp, #16
 2370              		.cfi_def_cfa_offset 24
 2371 0004 00AF     		add	r7, sp, #0
 2372              		.cfi_def_cfa_register 7
 2373 0006 7860     		str	r0, [r7, #4]
 580:.\PrimeImpl.c ****     PPUMPTRANSACTIONJOBCONTEXTPTR pjob = (PPUMPTRANSACTIONJOBCONTEXTPTR)pparam;
 2374              		.loc 1 580 0
 2375 0008 7B68     		ldr	r3, [r7, #4]
 2376 000a FB60     		str	r3, [r7, #12]
ARM GAS  C:\Users\RECEPC~1\AppData\Local\Temp\ccQD6Oev.s 			page 53


 581:.\PrimeImpl.c ****     if(pjob)
 2377              		.loc 1 581 0
 2378 000c FB68     		ldr	r3, [r7, #12]
 2379 000e 002B     		cmp	r3, #0
 2380 0010 09D0     		beq	.L99
 582:.\PrimeImpl.c ****     {
 583:.\PrimeImpl.c **** /*        
 584:.\PrimeImpl.c ****         
 585:.\PrimeImpl.c ****         PNEAR_PUMPTRANSACTIONALSTATEPTR pts = pjob->_ppump->PumpTransQueueAllocate(pjob->_ppump);
 586:.\PrimeImpl.c ****         if(pts)
 587:.\PrimeImpl.c ****         {
 588:.\PrimeImpl.c ****             pts->_transtate = _PUMP_POSITION_TRANSREPORT_;
 589:.\PrimeImpl.c ****             memcpy(pts->_buffer, pjob->_ppump->_rxbuffer, pjob->_ppump->_rxbuffersize);
 590:.\PrimeImpl.c ****             pts->_buffersize = pjob->_ppump->_rxbuffersize;
 591:.\PrimeImpl.c ****         }
 592:.\PrimeImpl.c ****         
 593:.\PrimeImpl.c ****         
 594:.\PrimeImpl.c ****         uint8 var = 0;//THIS IS A DUMMY VAR TO DROP THE WARNING IF THERE IS NO ASSIGNMENT!!
 595:.\PrimeImpl.c ****         uint8 index = 0;
 596:.\PrimeImpl.c ****         //All indexes were taken according to the documentation
 597:.\PrimeImpl.c ****         var = (pjob->_ppump->_rxbuffer[0x02 + _PUMP_TOTALS_BUFFER_SHIFT_*index] & 0x0F);//Hose id
 598:.\PrimeImpl.c **** 
 599:.\PrimeImpl.c ****         //Bytes from index 0x04 + _PUMP_TOTALS_BUFFER_SHIFT_*index to 0x0F + _PUMP_TOTALS_BUFFER_SH
 600:.\PrimeImpl.c ****         //are the digits for the total fuel volume delivered until now on this pump
 601:.\PrimeImpl.c ****         //Digits are in BCD format
 602:.\PrimeImpl.c ****         var = (pjob->_ppump->_rxbuffer[0x04 + _PUMP_TOTALS_BUFFER_SHIFT_*index] & 0x0F);
 603:.\PrimeImpl.c ****         var = (pjob->_ppump->_rxbuffer[0x05 + _PUMP_TOTALS_BUFFER_SHIFT_*index] & 0x0F);
 604:.\PrimeImpl.c ****         var = (pjob->_ppump->_rxbuffer[0x06 + _PUMP_TOTALS_BUFFER_SHIFT_*index] & 0x0F);
 605:.\PrimeImpl.c ****         var = (pjob->_ppump->_rxbuffer[0x07 + _PUMP_TOTALS_BUFFER_SHIFT_*index] & 0x0F);
 606:.\PrimeImpl.c ****         var = (pjob->_ppump->_rxbuffer[0x08 + _PUMP_TOTALS_BUFFER_SHIFT_*index] & 0x0F);
 607:.\PrimeImpl.c ****         var = (pjob->_ppump->_rxbuffer[0x09 + _PUMP_TOTALS_BUFFER_SHIFT_*index] & 0x0F);
 608:.\PrimeImpl.c ****         var = (pjob->_ppump->_rxbuffer[0x0A + _PUMP_TOTALS_BUFFER_SHIFT_*index] & 0x0F);
 609:.\PrimeImpl.c ****         var = (pjob->_ppump->_rxbuffer[0x0B + _PUMP_TOTALS_BUFFER_SHIFT_*index] & 0x0F);
 610:.\PrimeImpl.c ****         var = (pjob->_ppump->_rxbuffer[0x0C + _PUMP_TOTALS_BUFFER_SHIFT_*index] & 0x0F);
 611:.\PrimeImpl.c ****         var = (pjob->_ppump->_rxbuffer[0x0D + _PUMP_TOTALS_BUFFER_SHIFT_*index] & 0x0F);
 612:.\PrimeImpl.c ****         var = (pjob->_ppump->_rxbuffer[0x0E + _PUMP_TOTALS_BUFFER_SHIFT_*index] & 0x0F);
 613:.\PrimeImpl.c ****         var = (pjob->_ppump->_rxbuffer[0x0F + _PUMP_TOTALS_BUFFER_SHIFT_*index] & 0x0F);
 614:.\PrimeImpl.c **** 
 615:.\PrimeImpl.c ****         //Bytes from index 0x11 + _PUMP_TOTALS_BUFFER_SHIFT_*index to 0x1C + _PUMP_TOTALS_BUFFER_SH
 616:.\PrimeImpl.c ****         //are the digits for the total money charged until now on this pump
 617:.\PrimeImpl.c ****         //Digits are in BCD format
 618:.\PrimeImpl.c ****         var = (pjob->_ppump->_rxbuffer[0x11 + _PUMP_TOTALS_BUFFER_SHIFT_*index] & 0x0F);
 619:.\PrimeImpl.c ****         var = (pjob->_ppump->_rxbuffer[0x12 + _PUMP_TOTALS_BUFFER_SHIFT_*index] & 0x0F);
 620:.\PrimeImpl.c ****         var = (pjob->_ppump->_rxbuffer[0x13 + _PUMP_TOTALS_BUFFER_SHIFT_*index] & 0x0F);
 621:.\PrimeImpl.c ****         var = (pjob->_ppump->_rxbuffer[0x14 + _PUMP_TOTALS_BUFFER_SHIFT_*index] & 0x0F);
 622:.\PrimeImpl.c ****         var = (pjob->_ppump->_rxbuffer[0x15 + _PUMP_TOTALS_BUFFER_SHIFT_*index] & 0x0F);
 623:.\PrimeImpl.c ****         var = (pjob->_ppump->_rxbuffer[0x16 + _PUMP_TOTALS_BUFFER_SHIFT_*index] & 0x0F);
 624:.\PrimeImpl.c ****         var = (pjob->_ppump->_rxbuffer[0x17 + _PUMP_TOTALS_BUFFER_SHIFT_*index] & 0x0F);
 625:.\PrimeImpl.c ****         var = (pjob->_ppump->_rxbuffer[0x18 + _PUMP_TOTALS_BUFFER_SHIFT_*index] & 0x0F);
 626:.\PrimeImpl.c ****         var = (pjob->_ppump->_rxbuffer[0x19 + _PUMP_TOTALS_BUFFER_SHIFT_*index] & 0x0F);
 627:.\PrimeImpl.c ****         var = (pjob->_ppump->_rxbuffer[0x1A + _PUMP_TOTALS_BUFFER_SHIFT_*index] & 0x0F);
 628:.\PrimeImpl.c ****         var = (pjob->_ppump->_rxbuffer[0x1B + _PUMP_TOTALS_BUFFER_SHIFT_*index] & 0x0F);
 629:.\PrimeImpl.c ****         var = (pjob->_ppump->_rxbuffer[0x1C + _PUMP_TOTALS_BUFFER_SHIFT_*index] & 0x0F);
 630:.\PrimeImpl.c ****         
 631:.\PrimeImpl.c ****         //Bytes from index 0x1E + _PUMP_TOTALS_BUFFER_SHIFT_*index to 0x23 + _PUMP_TOTALS_BUFFER_SH
 632:.\PrimeImpl.c ****         //are the digits for the reference PPU used on this pump/hose
 633:.\PrimeImpl.c ****         //Digits are in BCD format
ARM GAS  C:\Users\RECEPC~1\AppData\Local\Temp\ccQD6Oev.s 			page 54


 634:.\PrimeImpl.c ****         var = (pjob->_ppump->_rxbuffer[0x1E + _PUMP_TOTALS_BUFFER_SHIFT_*index] & 0x0F);
 635:.\PrimeImpl.c ****         var = (pjob->_ppump->_rxbuffer[0x1F + _PUMP_TOTALS_BUFFER_SHIFT_*index] & 0x0F);
 636:.\PrimeImpl.c ****         var = (pjob->_ppump->_rxbuffer[0x20 + _PUMP_TOTALS_BUFFER_SHIFT_*index] & 0x0F);
 637:.\PrimeImpl.c ****         var = (pjob->_ppump->_rxbuffer[0x21 + _PUMP_TOTALS_BUFFER_SHIFT_*index] & 0x0F);
 638:.\PrimeImpl.c ****         var = (pjob->_ppump->_rxbuffer[0x22 + _PUMP_TOTALS_BUFFER_SHIFT_*index] & 0x0F);
 639:.\PrimeImpl.c ****         var = (pjob->_ppump->_rxbuffer[0x23 + _PUMP_TOTALS_BUFFER_SHIFT_*index] & 0x0F);
 640:.\PrimeImpl.c **** */        
 641:.\PrimeImpl.c ****         memset(pjob->_ppump->_rxbuffer, 0x00, _PUMP_RX_BUFFER_SIZE_);
 2381              		.loc 1 641 0
 2382 0012 FB68     		ldr	r3, [r7, #12]
 2383 0014 DB69     		ldr	r3, [r3, #28]
 2384 0016 03F5C473 		add	r3, r3, #392
 2385 001a 1846     		mov	r0, r3
 2386 001c 0021     		movs	r1, #0
 2387 001e 4FF4B472 		mov	r2, #360
 2388 0022 FFF7FEFF 		bl	memset
 2389              	.L99:
 642:.\PrimeImpl.c ****     }
 643:.\PrimeImpl.c **** }
 2390              		.loc 1 643 0
 2391 0026 1037     		adds	r7, r7, #16
 2392              		.cfi_def_cfa_offset 8
 2393 0028 BD46     		mov	sp, r7
 2394              		.cfi_def_cfa_register 13
 2395              		@ sp needed
 2396 002a 80BD     		pop	{r7, pc}
 2397              		.cfi_endproc
 2398              	.LFE72:
 2399              		.size	ProcessPumpTotalsDataPpuCheck, .-ProcessPumpTotalsDataPpuCheck
 2400              		.section	.text.PumpJobTimeout,"ax",%progbits
 2401              		.align	2
 2402              		.global	PumpJobTimeout
 2403              		.thumb
 2404              		.thumb_func
 2405              		.type	PumpJobTimeout, %function
 2406              	PumpJobTimeout:
 2407              	.LFB73:
 644:.\PrimeImpl.c **** 
 645:.\PrimeImpl.c **** //@Created By: HIJH
 646:.\PrimeImpl.c **** //@Date: Septembre de 2016
 647:.\PrimeImpl.c **** //This must be used to notify the log registry about the timeout issue
 648:.\PrimeImpl.c **** void PumpJobTimeout(void *pparam)
 649:.\PrimeImpl.c **** {
 2408              		.loc 1 649 0
 2409              		.cfi_startproc
 2410              		@ args = 0, pretend = 0, frame = 16
 2411              		@ frame_needed = 1, uses_anonymous_args = 0
 2412              		@ link register save eliminated.
 2413 0000 80B4     		push	{r7}
 2414              		.cfi_def_cfa_offset 4
 2415              		.cfi_offset 7, -4
 2416 0002 85B0     		sub	sp, sp, #20
 2417              		.cfi_def_cfa_offset 24
 2418 0004 00AF     		add	r7, sp, #0
 2419              		.cfi_def_cfa_register 7
 2420 0006 7860     		str	r0, [r7, #4]
 650:.\PrimeImpl.c ****     PPUMPTRANSACTIONJOBCONTEXTPTR pjob = (PPUMPTRANSACTIONJOBCONTEXTPTR)pparam;
ARM GAS  C:\Users\RECEPC~1\AppData\Local\Temp\ccQD6Oev.s 			page 55


 2421              		.loc 1 650 0
 2422 0008 7B68     		ldr	r3, [r7, #4]
 2423 000a FB60     		str	r3, [r7, #12]
 651:.\PrimeImpl.c ****     if(pjob)
 2424              		.loc 1 651 0
 2425 000c FB68     		ldr	r3, [r7, #12]
 2426 000e 002B     		cmp	r3, #0
 2427 0010 0CD0     		beq	.L101
 652:.\PrimeImpl.c ****     {
 653:.\PrimeImpl.c ****         //Release the Current Loop and log if possible
 654:.\PrimeImpl.c ****         if(pjob->_retriescounter >= _MAX_RETRIES_)
 2428              		.loc 1 654 0
 2429 0012 FB68     		ldr	r3, [r7, #12]
 2430 0014 DB89     		ldrh	r3, [r3, #14]	@ movhi
 2431 0016 9BB2     		uxth	r3, r3
 2432 0018 132B     		cmp	r3, #19
 2433 001a 07D9     		bls	.L101
 655:.\PrimeImpl.c ****         {
 656:.\PrimeImpl.c ****             pjob->_ppump->_pumpstate = PUMP_UNKNOWN;
 2434              		.loc 1 656 0
 2435 001c FB68     		ldr	r3, [r7, #12]
 2436 001e DB69     		ldr	r3, [r3, #28]
 2437 0020 FF22     		movs	r2, #255
 2438 0022 9A70     		strb	r2, [r3, #2]
 657:.\PrimeImpl.c ****             pjob->_ppump->_transhealth = _PUMP_FAIL_;
 2439              		.loc 1 657 0
 2440 0024 FB68     		ldr	r3, [r7, #12]
 2441 0026 DB69     		ldr	r3, [r3, #28]
 2442 0028 0222     		movs	r2, #2
 2443 002a 1A76     		strb	r2, [r3, #24]
 2444              	.L101:
 658:.\PrimeImpl.c ****         }
 659:.\PrimeImpl.c ****     }
 660:.\PrimeImpl.c **** }
 2445              		.loc 1 660 0
 2446 002c 1437     		adds	r7, r7, #20
 2447              		.cfi_def_cfa_offset 4
 2448 002e BD46     		mov	sp, r7
 2449              		.cfi_def_cfa_register 13
 2450              		@ sp needed
 2451 0030 5DF8047B 		ldr	r7, [sp], #4
 2452              		.cfi_restore 7
 2453              		.cfi_def_cfa_offset 0
 2454 0034 7047     		bx	lr
 2455              		.cfi_endproc
 2456              	.LFE73:
 2457              		.size	PumpJobTimeout, .-PumpJobTimeout
 2458 0036 00BF     		.section	.text.PumpStateJobTimeout,"ax",%progbits
 2459              		.align	2
 2460              		.global	PumpStateJobTimeout
 2461              		.thumb
 2462              		.thumb_func
 2463              		.type	PumpStateJobTimeout, %function
 2464              	PumpStateJobTimeout:
 2465              	.LFB74:
 661:.\PrimeImpl.c **** 
 662:.\PrimeImpl.c **** //@Created By: HIJH
ARM GAS  C:\Users\RECEPC~1\AppData\Local\Temp\ccQD6Oev.s 			page 56


 663:.\PrimeImpl.c **** //@Date: Septembre de 2016
 664:.\PrimeImpl.c **** //This must be used to notify the log registry about the timeout issue
 665:.\PrimeImpl.c **** void PumpStateJobTimeout(void *pparam)
 666:.\PrimeImpl.c **** {
 2466              		.loc 1 666 0
 2467              		.cfi_startproc
 2468              		@ args = 0, pretend = 0, frame = 16
 2469              		@ frame_needed = 1, uses_anonymous_args = 0
 2470              		@ link register save eliminated.
 2471 0000 80B4     		push	{r7}
 2472              		.cfi_def_cfa_offset 4
 2473              		.cfi_offset 7, -4
 2474 0002 85B0     		sub	sp, sp, #20
 2475              		.cfi_def_cfa_offset 24
 2476 0004 00AF     		add	r7, sp, #0
 2477              		.cfi_def_cfa_register 7
 2478 0006 7860     		str	r0, [r7, #4]
 667:.\PrimeImpl.c ****     PPUMPTRANSACTIONJOBCONTEXTPTR pjob = (PPUMPTRANSACTIONJOBCONTEXTPTR)pparam;
 2479              		.loc 1 667 0
 2480 0008 7B68     		ldr	r3, [r7, #4]
 2481 000a FB60     		str	r3, [r7, #12]
 668:.\PrimeImpl.c ****     if(pjob)
 2482              		.loc 1 668 0
 2483 000c FB68     		ldr	r3, [r7, #12]
 2484 000e 002B     		cmp	r3, #0
 2485 0010 0CD0     		beq	.L103
 669:.\PrimeImpl.c ****     {
 670:.\PrimeImpl.c ****         //Release the Current Loop and log if possible
 671:.\PrimeImpl.c ****         if(pjob->_retriescounter >= _MAX_RETRIES_)
 2486              		.loc 1 671 0
 2487 0012 FB68     		ldr	r3, [r7, #12]
 2488 0014 DB89     		ldrh	r3, [r3, #14]	@ movhi
 2489 0016 9BB2     		uxth	r3, r3
 2490 0018 132B     		cmp	r3, #19
 2491 001a 07D9     		bls	.L103
 672:.\PrimeImpl.c ****         {
 673:.\PrimeImpl.c ****             pjob->_ppump->_pumpstate = PUMP_UNKNOWN;
 2492              		.loc 1 673 0
 2493 001c FB68     		ldr	r3, [r7, #12]
 2494 001e DB69     		ldr	r3, [r3, #28]
 2495 0020 FF22     		movs	r2, #255
 2496 0022 9A70     		strb	r2, [r3, #2]
 674:.\PrimeImpl.c ****             pjob->_ppump->_transhealth = _PUMP_FAIL_;
 2497              		.loc 1 674 0
 2498 0024 FB68     		ldr	r3, [r7, #12]
 2499 0026 DB69     		ldr	r3, [r3, #28]
 2500 0028 0222     		movs	r2, #2
 2501 002a 1A76     		strb	r2, [r3, #24]
 2502              	.L103:
 675:.\PrimeImpl.c ****         }
 676:.\PrimeImpl.c ****     }
 677:.\PrimeImpl.c **** }
 2503              		.loc 1 677 0
 2504 002c 1437     		adds	r7, r7, #20
 2505              		.cfi_def_cfa_offset 4
 2506 002e BD46     		mov	sp, r7
 2507              		.cfi_def_cfa_register 13
ARM GAS  C:\Users\RECEPC~1\AppData\Local\Temp\ccQD6Oev.s 			page 57


 2508              		@ sp needed
 2509 0030 5DF8047B 		ldr	r7, [sp], #4
 2510              		.cfi_restore 7
 2511              		.cfi_def_cfa_offset 0
 2512 0034 7047     		bx	lr
 2513              		.cfi_endproc
 2514              	.LFE74:
 2515              		.size	PumpStateJobTimeout, .-PumpStateJobTimeout
 2516 0036 00BF     		.section	.text.PumpAuthorization,"ax",%progbits
 2517              		.align	2
 2518              		.global	PumpAuthorization
 2519              		.thumb
 2520              		.thumb_func
 2521              		.type	PumpAuthorization, %function
 2522              	PumpAuthorization:
 2523              	.LFB75:
 678:.\PrimeImpl.c **** 
 679:.\PrimeImpl.c **** ///////////////////////////////////////////////////////////////////////////////////////////////////
 680:.\PrimeImpl.c **** //////////////////////                 BLOCK OF AVAILABLE REQUEST HANDLERS
 681:.\PrimeImpl.c **** ///////////////////////////////////////////////////////////////////////////////////////////////////
 682:.\PrimeImpl.c **** 
 683:.\PrimeImpl.c **** //@Created By: HIJH
 684:.\PrimeImpl.c **** //@Date: Septembre de 2016
 685:.\PrimeImpl.c **** //Sends the authorization request to the pump. This is a single byte command with no response
 686:.\PrimeImpl.c **** void PumpAuthorization(void *pparam)
 687:.\PrimeImpl.c **** {
 2524              		.loc 1 687 0
 2525              		.cfi_startproc
 2526              		@ args = 0, pretend = 0, frame = 24
 2527              		@ frame_needed = 1, uses_anonymous_args = 0
 2528 0000 80B5     		push	{r7, lr}
 2529              		.cfi_def_cfa_offset 8
 2530              		.cfi_offset 7, -8
 2531              		.cfi_offset 14, -4
 2532 0002 86B0     		sub	sp, sp, #24
 2533              		.cfi_def_cfa_offset 32
 2534 0004 00AF     		add	r7, sp, #0
 2535              		.cfi_def_cfa_register 7
 2536 0006 7860     		str	r0, [r7, #4]
 688:.\PrimeImpl.c ****     PNEAR_PUMPPTR ppump = (PNEAR_PUMPPTR)pparam;
 2537              		.loc 1 688 0
 2538 0008 7B68     		ldr	r3, [r7, #4]
 2539 000a 7B61     		str	r3, [r7, #20]
 689:.\PrimeImpl.c ****     if(ppump)
 2540              		.loc 1 689 0
 2541 000c 7B69     		ldr	r3, [r7, #20]
 2542 000e 002B     		cmp	r3, #0
 2543 0010 34D0     		beq	.L105
 2544              	.LBB8:
 690:.\PrimeImpl.c ****     {
 691:.\PrimeImpl.c ****         
 692:.\PrimeImpl.c ****         if(!ppump->_presetdone)
 2545              		.loc 1 692 0
 2546 0012 7B69     		ldr	r3, [r7, #20]
 2547 0014 9B7A     		ldrb	r3, [r3, #10]
 2548 0016 DBB2     		uxtb	r3, r3
 2549 0018 83F00103 		eor	r3, r3, #1
ARM GAS  C:\Users\RECEPC~1\AppData\Local\Temp\ccQD6Oev.s 			page 58


 2550 001c DBB2     		uxtb	r3, r3
 2551 001e 002B     		cmp	r3, #0
 2552 0020 00D0     		beq	.L107
 693:.\PrimeImpl.c ****             return;
 2553              		.loc 1 693 0
 2554 0022 2BE0     		b	.L105
 2555              	.L107:
 694:.\PrimeImpl.c ****         
 695:.\PrimeImpl.c ****         uint8_t index = 0;
 2556              		.loc 1 695 0
 2557 0024 0023     		movs	r3, #0
 2558 0026 FB74     		strb	r3, [r7, #19]
 696:.\PrimeImpl.c ****         memset(ppump->_rxbuffer, 0x00, _PUMP_RX_BUFFER_SIZE_);
 2559              		.loc 1 696 0
 2560 0028 7B69     		ldr	r3, [r7, #20]
 2561 002a 03F5C473 		add	r3, r3, #392
 2562 002e 1846     		mov	r0, r3
 2563 0030 0021     		movs	r1, #0
 2564 0032 4FF4B472 		mov	r2, #360
 2565 0036 FFF7FEFF 		bl	memset
 697:.\PrimeImpl.c ****         PUARTMESSAGEPTR puartdisp = GetUARTMessageSlot(UART_DISPENSER);
 2566              		.loc 1 697 0
 2567 003a A220     		movs	r0, #162
 2568 003c FFF7FEFF 		bl	GetUARTMessageSlot
 2569 0040 F860     		str	r0, [r7, #12]
 698:.\PrimeImpl.c ****         if(puartdisp)
 2570              		.loc 1 698 0
 2571 0042 FB68     		ldr	r3, [r7, #12]
 2572 0044 002B     		cmp	r3, #0
 2573 0046 19D0     		beq	.L105
 699:.\PrimeImpl.c ****         {
 700:.\PrimeImpl.c ****             //Just one byte for the response
 701:.\PrimeImpl.c ****             puartdisp->_messagetx[index++] = PUMP_COMMAND(PUMP_AUTHORIZATION, ppump->_pumpid);
 2574              		.loc 1 701 0
 2575 0048 FB7C     		ldrb	r3, [r7, #19]	@ zero_extendqisi2
 2576 004a 5A1C     		adds	r2, r3, #1
 2577 004c FA74     		strb	r2, [r7, #19]
 2578 004e 1946     		mov	r1, r3
 2579 0050 7B69     		ldr	r3, [r7, #20]
 2580 0052 1B78     		ldrb	r3, [r3]	@ zero_extendqisi2
 2581 0054 DBB2     		uxtb	r3, r3
 2582 0056 03F00F03 		and	r3, r3, #15
 2583 005a DBB2     		uxtb	r3, r3
 2584 005c 43F01003 		orr	r3, r3, #16
 2585 0060 DBB2     		uxtb	r3, r3
 2586 0062 DAB2     		uxtb	r2, r3
 2587 0064 FB68     		ldr	r3, [r7, #12]
 2588 0066 0B44     		add	r3, r3, r1
 2589 0068 1A71     		strb	r2, [r3, #4]
 702:.\PrimeImpl.c ****             puartdisp->_messagelength = 1;//One byte
 2590              		.loc 1 702 0
 2591 006a FB68     		ldr	r3, [r7, #12]
 2592 006c 0122     		movs	r2, #1
 2593 006e 5A80     		strh	r2, [r3, #2]	@ movhi
 703:.\PrimeImpl.c ****             puartdisp->_messagestate = PENDING;
 2594              		.loc 1 703 0
 2595 0070 FB68     		ldr	r3, [r7, #12]
ARM GAS  C:\Users\RECEPC~1\AppData\Local\Temp\ccQD6Oev.s 			page 59


 2596 0072 C222     		movs	r2, #194
 2597 0074 1A70     		strb	r2, [r3]
 704:.\PrimeImpl.c ****             
 705:.\PrimeImpl.c ****             ppump->_authorized = true;
 2598              		.loc 1 705 0
 2599 0076 7B69     		ldr	r3, [r7, #20]
 2600 0078 0122     		movs	r2, #1
 2601 007a 1A72     		strb	r2, [r3, #8]
 2602              	.L105:
 2603              	.LBE8:
 706:.\PrimeImpl.c ****         }
 707:.\PrimeImpl.c ****     }
 708:.\PrimeImpl.c **** }
 2604              		.loc 1 708 0
 2605 007c 1837     		adds	r7, r7, #24
 2606              		.cfi_def_cfa_offset 8
 2607 007e BD46     		mov	sp, r7
 2608              		.cfi_def_cfa_register 13
 2609              		@ sp needed
 2610 0080 80BD     		pop	{r7, pc}
 2611              		.cfi_endproc
 2612              	.LFE75:
 2613              		.size	PumpAuthorization, .-PumpAuthorization
 2614 0082 00BF     		.section	.text.PumpStartupAuthorization,"ax",%progbits
 2615              		.align	2
 2616              		.global	PumpStartupAuthorization
 2617              		.thumb
 2618              		.thumb_func
 2619              		.type	PumpStartupAuthorization, %function
 2620              	PumpStartupAuthorization:
 2621              	.LFB76:
 709:.\PrimeImpl.c **** 
 710:.\PrimeImpl.c **** //@Created By: HIJH
 711:.\PrimeImpl.c **** //@Date: Septembre de 2016
 712:.\PrimeImpl.c **** //Sends the authorization request to the pump. This is a single byte command with no response
 713:.\PrimeImpl.c **** void PumpStartupAuthorization(void *pparam)
 714:.\PrimeImpl.c **** {
 2622              		.loc 1 714 0
 2623              		.cfi_startproc
 2624              		@ args = 0, pretend = 0, frame = 24
 2625              		@ frame_needed = 1, uses_anonymous_args = 0
 2626 0000 80B5     		push	{r7, lr}
 2627              		.cfi_def_cfa_offset 8
 2628              		.cfi_offset 7, -8
 2629              		.cfi_offset 14, -4
 2630 0002 86B0     		sub	sp, sp, #24
 2631              		.cfi_def_cfa_offset 32
 2632 0004 00AF     		add	r7, sp, #0
 2633              		.cfi_def_cfa_register 7
 2634 0006 7860     		str	r0, [r7, #4]
 715:.\PrimeImpl.c ****     PNEAR_PUMPPTR ppump = (PNEAR_PUMPPTR)pparam;
 2635              		.loc 1 715 0
 2636 0008 7B68     		ldr	r3, [r7, #4]
 2637 000a 7B61     		str	r3, [r7, #20]
 716:.\PrimeImpl.c ****     if(ppump)
 2638              		.loc 1 716 0
 2639 000c 7B69     		ldr	r3, [r7, #20]
ARM GAS  C:\Users\RECEPC~1\AppData\Local\Temp\ccQD6Oev.s 			page 60


 2640 000e 002B     		cmp	r3, #0
 2641 0010 2BD0     		beq	.L108
 2642              	.LBB9:
 717:.\PrimeImpl.c ****     {                
 718:.\PrimeImpl.c ****         uint8_t index = 0;
 2643              		.loc 1 718 0
 2644 0012 0023     		movs	r3, #0
 2645 0014 FB74     		strb	r3, [r7, #19]
 719:.\PrimeImpl.c ****         memset(ppump->_rxbuffer, 0x00, _PUMP_RX_BUFFER_SIZE_);
 2646              		.loc 1 719 0
 2647 0016 7B69     		ldr	r3, [r7, #20]
 2648 0018 03F5C473 		add	r3, r3, #392
 2649 001c 1846     		mov	r0, r3
 2650 001e 0021     		movs	r1, #0
 2651 0020 4FF4B472 		mov	r2, #360
 2652 0024 FFF7FEFF 		bl	memset
 720:.\PrimeImpl.c ****         PUARTMESSAGEPTR puartdisp = GetUARTMessageSlot(UART_DISPENSER);
 2653              		.loc 1 720 0
 2654 0028 A220     		movs	r0, #162
 2655 002a FFF7FEFF 		bl	GetUARTMessageSlot
 2656 002e F860     		str	r0, [r7, #12]
 721:.\PrimeImpl.c ****         if(puartdisp)
 2657              		.loc 1 721 0
 2658 0030 FB68     		ldr	r3, [r7, #12]
 2659 0032 002B     		cmp	r3, #0
 2660 0034 16D0     		beq	.L110
 722:.\PrimeImpl.c ****         {
 723:.\PrimeImpl.c ****             //Just one byte for the response
 724:.\PrimeImpl.c ****             puartdisp->_messagetx[index++] = PUMP_COMMAND(PUMP_AUTHORIZATION, ppump->_pumpid);
 2661              		.loc 1 724 0
 2662 0036 FB7C     		ldrb	r3, [r7, #19]	@ zero_extendqisi2
 2663 0038 5A1C     		adds	r2, r3, #1
 2664 003a FA74     		strb	r2, [r7, #19]
 2665 003c 1946     		mov	r1, r3
 2666 003e 7B69     		ldr	r3, [r7, #20]
 2667 0040 1B78     		ldrb	r3, [r3]	@ zero_extendqisi2
 2668 0042 DBB2     		uxtb	r3, r3
 2669 0044 03F00F03 		and	r3, r3, #15
 2670 0048 DBB2     		uxtb	r3, r3
 2671 004a 43F01003 		orr	r3, r3, #16
 2672 004e DBB2     		uxtb	r3, r3
 2673 0050 DAB2     		uxtb	r2, r3
 2674 0052 FB68     		ldr	r3, [r7, #12]
 2675 0054 0B44     		add	r3, r3, r1
 2676 0056 1A71     		strb	r2, [r3, #4]
 725:.\PrimeImpl.c ****             puartdisp->_messagelength = 1;//One byte
 2677              		.loc 1 725 0
 2678 0058 FB68     		ldr	r3, [r7, #12]
 2679 005a 0122     		movs	r2, #1
 2680 005c 5A80     		strh	r2, [r3, #2]	@ movhi
 726:.\PrimeImpl.c ****             puartdisp->_messagestate = PENDING;
 2681              		.loc 1 726 0
 2682 005e FB68     		ldr	r3, [r7, #12]
 2683 0060 C222     		movs	r2, #194
 2684 0062 1A70     		strb	r2, [r3]
 2685              	.L110:
 727:.\PrimeImpl.c ****             
ARM GAS  C:\Users\RECEPC~1\AppData\Local\Temp\ccQD6Oev.s 			page 61


 728:.\PrimeImpl.c ****         }
 729:.\PrimeImpl.c ****         CyDelay(100);
 2686              		.loc 1 729 0
 2687 0064 6420     		movs	r0, #100
 2688 0066 FFF7FEFF 		bl	CyDelay
 2689              	.L108:
 2690              	.LBE9:
 730:.\PrimeImpl.c ****     }
 731:.\PrimeImpl.c **** }
 2691              		.loc 1 731 0
 2692 006a 1837     		adds	r7, r7, #24
 2693              		.cfi_def_cfa_offset 8
 2694 006c BD46     		mov	sp, r7
 2695              		.cfi_def_cfa_register 13
 2696              		@ sp needed
 2697 006e 80BD     		pop	{r7, pc}
 2698              		.cfi_endproc
 2699              	.LFE76:
 2700              		.size	PumpStartupAuthorization, .-PumpStartupAuthorization
 2701              		.section	.text.PumpStateRequest,"ax",%progbits
 2702              		.align	2
 2703              		.global	PumpStateRequest
 2704              		.thumb
 2705              		.thumb_func
 2706              		.type	PumpStateRequest, %function
 2707              	PumpStateRequest:
 2708              	.LFB77:
 732:.\PrimeImpl.c **** 
 733:.\PrimeImpl.c **** //@Created By: HIJH
 734:.\PrimeImpl.c **** //@Date: Septembre de 2016
 735:.\PrimeImpl.c **** //Sends the state request to the pump. This is a single byte command with one byte of response
 736:.\PrimeImpl.c **** void PumpStateRequest(void *pparam)
 737:.\PrimeImpl.c **** {
 2709              		.loc 1 737 0
 2710              		.cfi_startproc
 2711              		@ args = 0, pretend = 0, frame = 24
 2712              		@ frame_needed = 1, uses_anonymous_args = 0
 2713 0000 80B5     		push	{r7, lr}
 2714              		.cfi_def_cfa_offset 8
 2715              		.cfi_offset 7, -8
 2716              		.cfi_offset 14, -4
 2717 0002 86B0     		sub	sp, sp, #24
 2718              		.cfi_def_cfa_offset 32
 2719 0004 00AF     		add	r7, sp, #0
 2720              		.cfi_def_cfa_register 7
 2721 0006 7860     		str	r0, [r7, #4]
 738:.\PrimeImpl.c ****     PNEAR_PUMPPTR ppump = (PNEAR_PUMPPTR)pparam;
 2722              		.loc 1 738 0
 2723 0008 7B68     		ldr	r3, [r7, #4]
 2724 000a 7B61     		str	r3, [r7, #20]
 739:.\PrimeImpl.c ****     if(ppump)
 2725              		.loc 1 739 0
 2726 000c 7B69     		ldr	r3, [r7, #20]
 2727 000e 002B     		cmp	r3, #0
 2728 0010 23D0     		beq	.L111
 2729              	.LBB10:
 740:.\PrimeImpl.c ****     {
ARM GAS  C:\Users\RECEPC~1\AppData\Local\Temp\ccQD6Oev.s 			page 62


 741:.\PrimeImpl.c ****         uint8_t index = 0;
 2730              		.loc 1 741 0
 2731 0012 0023     		movs	r3, #0
 2732 0014 FB74     		strb	r3, [r7, #19]
 742:.\PrimeImpl.c ****         memset(ppump->_rxbuffer, 0x00, _PUMP_RX_BUFFER_SIZE_);
 2733              		.loc 1 742 0
 2734 0016 7B69     		ldr	r3, [r7, #20]
 2735 0018 03F5C473 		add	r3, r3, #392
 2736 001c 1846     		mov	r0, r3
 2737 001e 0021     		movs	r1, #0
 2738 0020 4FF4B472 		mov	r2, #360
 2739 0024 FFF7FEFF 		bl	memset
 743:.\PrimeImpl.c ****         PUARTMESSAGEPTR puartdisp = GetUARTMessageSlot(UART_DISPENSER);
 2740              		.loc 1 743 0
 2741 0028 A220     		movs	r0, #162
 2742 002a FFF7FEFF 		bl	GetUARTMessageSlot
 2743 002e F860     		str	r0, [r7, #12]
 744:.\PrimeImpl.c ****         if(puartdisp)
 2744              		.loc 1 744 0
 2745 0030 FB68     		ldr	r3, [r7, #12]
 2746 0032 002B     		cmp	r3, #0
 2747 0034 11D0     		beq	.L111
 745:.\PrimeImpl.c ****         {
 746:.\PrimeImpl.c ****             puartdisp->_messagetx[index++] = PUMP_COMMAND(PUMP_STATE_REQUEST, ppump->_pumpid);
 2748              		.loc 1 746 0
 2749 0036 FB7C     		ldrb	r3, [r7, #19]	@ zero_extendqisi2
 2750 0038 5A1C     		adds	r2, r3, #1
 2751 003a FA74     		strb	r2, [r7, #19]
 2752 003c 1946     		mov	r1, r3
 2753 003e 7B69     		ldr	r3, [r7, #20]
 2754 0040 1B78     		ldrb	r3, [r3]	@ zero_extendqisi2
 2755 0042 03F00F03 		and	r3, r3, #15
 2756 0046 DAB2     		uxtb	r2, r3
 2757 0048 FB68     		ldr	r3, [r7, #12]
 2758 004a 0B44     		add	r3, r3, r1
 2759 004c 1A71     		strb	r2, [r3, #4]
 747:.\PrimeImpl.c ****             puartdisp->_messagelength = 1;//One byte
 2760              		.loc 1 747 0
 2761 004e FB68     		ldr	r3, [r7, #12]
 2762 0050 0122     		movs	r2, #1
 2763 0052 5A80     		strh	r2, [r3, #2]	@ movhi
 748:.\PrimeImpl.c ****             puartdisp->_messagestate = PENDING;
 2764              		.loc 1 748 0
 2765 0054 FB68     		ldr	r3, [r7, #12]
 2766 0056 C222     		movs	r2, #194
 2767 0058 1A70     		strb	r2, [r3]
 2768              	.L111:
 2769              	.LBE10:
 749:.\PrimeImpl.c ****         }
 750:.\PrimeImpl.c ****     }
 751:.\PrimeImpl.c **** }
 2770              		.loc 1 751 0
 2771 005a 1837     		adds	r7, r7, #24
 2772              		.cfi_def_cfa_offset 8
 2773 005c BD46     		mov	sp, r7
 2774              		.cfi_def_cfa_register 13
 2775              		@ sp needed
ARM GAS  C:\Users\RECEPC~1\AppData\Local\Temp\ccQD6Oev.s 			page 63


 2776 005e 80BD     		pop	{r7, pc}
 2777              		.cfi_endproc
 2778              	.LFE77:
 2779              		.size	PumpStateRequest, .-PumpStateRequest
 2780              		.section	.text.PumpRTMoneyRequest,"ax",%progbits
 2781              		.align	2
 2782              		.global	PumpRTMoneyRequest
 2783              		.thumb
 2784              		.thumb_func
 2785              		.type	PumpRTMoneyRequest, %function
 2786              	PumpRTMoneyRequest:
 2787              	.LFB78:
 752:.\PrimeImpl.c **** 
 753:.\PrimeImpl.c **** //@Created By: HIJH
 754:.\PrimeImpl.c **** //@Date: Septembre de 2016
 755:.\PrimeImpl.c **** void PumpRTMoneyRequest(void *pparam)
 756:.\PrimeImpl.c **** {
 2788              		.loc 1 756 0
 2789              		.cfi_startproc
 2790              		@ args = 0, pretend = 0, frame = 24
 2791              		@ frame_needed = 1, uses_anonymous_args = 0
 2792 0000 80B5     		push	{r7, lr}
 2793              		.cfi_def_cfa_offset 8
 2794              		.cfi_offset 7, -8
 2795              		.cfi_offset 14, -4
 2796 0002 86B0     		sub	sp, sp, #24
 2797              		.cfi_def_cfa_offset 32
 2798 0004 00AF     		add	r7, sp, #0
 2799              		.cfi_def_cfa_register 7
 2800 0006 7860     		str	r0, [r7, #4]
 757:.\PrimeImpl.c ****     PNEAR_PUMPPTR ppump = (PNEAR_PUMPPTR)pparam;
 2801              		.loc 1 757 0
 2802 0008 7B68     		ldr	r3, [r7, #4]
 2803 000a 7B61     		str	r3, [r7, #20]
 758:.\PrimeImpl.c ****     if(ppump)
 2804              		.loc 1 758 0
 2805 000c 7B69     		ldr	r3, [r7, #20]
 2806 000e 002B     		cmp	r3, #0
 2807 0010 28D0     		beq	.L113
 2808              	.LBB11:
 759:.\PrimeImpl.c ****     {
 760:.\PrimeImpl.c ****         uint8_t index = 0;
 2809              		.loc 1 760 0
 2810 0012 0023     		movs	r3, #0
 2811 0014 FB74     		strb	r3, [r7, #19]
 761:.\PrimeImpl.c ****         memset(ppump->_rxbuffer, 0x00, _PUMP_RX_BUFFER_SIZE_);
 2812              		.loc 1 761 0
 2813 0016 7B69     		ldr	r3, [r7, #20]
 2814 0018 03F5C473 		add	r3, r3, #392
 2815 001c 1846     		mov	r0, r3
 2816 001e 0021     		movs	r1, #0
 2817 0020 4FF4B472 		mov	r2, #360
 2818 0024 FFF7FEFF 		bl	memset
 762:.\PrimeImpl.c ****         PUARTMESSAGEPTR puartdisp = GetUARTMessageSlot(UART_DISPENSER);
 2819              		.loc 1 762 0
 2820 0028 A220     		movs	r0, #162
 2821 002a FFF7FEFF 		bl	GetUARTMessageSlot
ARM GAS  C:\Users\RECEPC~1\AppData\Local\Temp\ccQD6Oev.s 			page 64


 2822 002e F860     		str	r0, [r7, #12]
 763:.\PrimeImpl.c ****         if(puartdisp)
 2823              		.loc 1 763 0
 2824 0030 FB68     		ldr	r3, [r7, #12]
 2825 0032 002B     		cmp	r3, #0
 2826 0034 16D0     		beq	.L113
 764:.\PrimeImpl.c ****         {
 765:.\PrimeImpl.c ****             puartdisp->_messagetx[index++] = PUMP_COMMAND(PUMP_REAL_TIME_MONEY_REQUEST, ppump->_pum
 2827              		.loc 1 765 0
 2828 0036 FB7C     		ldrb	r3, [r7, #19]	@ zero_extendqisi2
 2829 0038 5A1C     		adds	r2, r3, #1
 2830 003a FA74     		strb	r2, [r7, #19]
 2831 003c 1946     		mov	r1, r3
 2832 003e 7B69     		ldr	r3, [r7, #20]
 2833 0040 1B78     		ldrb	r3, [r3]	@ zero_extendqisi2
 2834 0042 DBB2     		uxtb	r3, r3
 2835 0044 03F00F03 		and	r3, r3, #15
 2836 0048 DBB2     		uxtb	r3, r3
 2837 004a 43F06003 		orr	r3, r3, #96
 2838 004e DBB2     		uxtb	r3, r3
 2839 0050 DAB2     		uxtb	r2, r3
 2840 0052 FB68     		ldr	r3, [r7, #12]
 2841 0054 0B44     		add	r3, r3, r1
 2842 0056 1A71     		strb	r2, [r3, #4]
 766:.\PrimeImpl.c ****             puartdisp->_messagelength = 1;//One byte
 2843              		.loc 1 766 0
 2844 0058 FB68     		ldr	r3, [r7, #12]
 2845 005a 0122     		movs	r2, #1
 2846 005c 5A80     		strh	r2, [r3, #2]	@ movhi
 767:.\PrimeImpl.c ****             puartdisp->_messagestate = PENDING;
 2847              		.loc 1 767 0
 2848 005e FB68     		ldr	r3, [r7, #12]
 2849 0060 C222     		movs	r2, #194
 2850 0062 1A70     		strb	r2, [r3]
 2851              	.L113:
 2852              	.LBE11:
 768:.\PrimeImpl.c ****         }
 769:.\PrimeImpl.c ****     }
 770:.\PrimeImpl.c **** }
 2853              		.loc 1 770 0
 2854 0064 1837     		adds	r7, r7, #24
 2855              		.cfi_def_cfa_offset 8
 2856 0066 BD46     		mov	sp, r7
 2857              		.cfi_def_cfa_register 13
 2858              		@ sp needed
 2859 0068 80BD     		pop	{r7, pc}
 2860              		.cfi_endproc
 2861              	.LFE78:
 2862              		.size	PumpRTMoneyRequest, .-PumpRTMoneyRequest
 2863 006a 00BF     		.section	.text.PumpRTHoseVolumeRequest,"ax",%progbits
 2864              		.align	2
 2865              		.global	PumpRTHoseVolumeRequest
 2866              		.thumb
 2867              		.thumb_func
 2868              		.type	PumpRTHoseVolumeRequest, %function
 2869              	PumpRTHoseVolumeRequest:
 2870              	.LFB79:
ARM GAS  C:\Users\RECEPC~1\AppData\Local\Temp\ccQD6Oev.s 			page 65


 771:.\PrimeImpl.c **** 
 772:.\PrimeImpl.c **** //@Created By: HIJH
 773:.\PrimeImpl.c **** //@Date: Septembre de 2016
 774:.\PrimeImpl.c **** void PumpRTHoseVolumeRequest(void *pparam)
 775:.\PrimeImpl.c **** {
 2871              		.loc 1 775 0
 2872              		.cfi_startproc
 2873              		@ args = 0, pretend = 0, frame = 24
 2874              		@ frame_needed = 1, uses_anonymous_args = 0
 2875 0000 80B5     		push	{r7, lr}
 2876              		.cfi_def_cfa_offset 8
 2877              		.cfi_offset 7, -8
 2878              		.cfi_offset 14, -4
 2879 0002 86B0     		sub	sp, sp, #24
 2880              		.cfi_def_cfa_offset 32
 2881 0004 00AF     		add	r7, sp, #0
 2882              		.cfi_def_cfa_register 7
 2883 0006 7860     		str	r0, [r7, #4]
 776:.\PrimeImpl.c ****     PNEAR_PUMPPTR ppump = (PNEAR_PUMPPTR)pparam;
 2884              		.loc 1 776 0
 2885 0008 7B68     		ldr	r3, [r7, #4]
 2886 000a 7B61     		str	r3, [r7, #20]
 777:.\PrimeImpl.c ****     if(ppump)
 2887              		.loc 1 777 0
 2888 000c 7B69     		ldr	r3, [r7, #20]
 2889 000e 002B     		cmp	r3, #0
 2890 0010 28D0     		beq	.L115
 2891              	.LBB12:
 778:.\PrimeImpl.c ****     {
 779:.\PrimeImpl.c ****         uint8_t index = 0;
 2892              		.loc 1 779 0
 2893 0012 0023     		movs	r3, #0
 2894 0014 FB74     		strb	r3, [r7, #19]
 780:.\PrimeImpl.c ****         memset(ppump->_rxbuffer, 0x00, _PUMP_RX_BUFFER_SIZE_);
 2895              		.loc 1 780 0
 2896 0016 7B69     		ldr	r3, [r7, #20]
 2897 0018 03F5C473 		add	r3, r3, #392
 2898 001c 1846     		mov	r0, r3
 2899 001e 0021     		movs	r1, #0
 2900 0020 4FF4B472 		mov	r2, #360
 2901 0024 FFF7FEFF 		bl	memset
 781:.\PrimeImpl.c ****         PUARTMESSAGEPTR puartdisp = GetUARTMessageSlot(UART_DISPENSER);
 2902              		.loc 1 781 0
 2903 0028 A220     		movs	r0, #162
 2904 002a FFF7FEFF 		bl	GetUARTMessageSlot
 2905 002e F860     		str	r0, [r7, #12]
 782:.\PrimeImpl.c ****         if(puartdisp)
 2906              		.loc 1 782 0
 2907 0030 FB68     		ldr	r3, [r7, #12]
 2908 0032 002B     		cmp	r3, #0
 2909 0034 16D0     		beq	.L115
 783:.\PrimeImpl.c ****         {
 784:.\PrimeImpl.c ****             puartdisp->_messagetx[index++] = PUMP_COMMAND(PUMP_REAL_TIME_HOSE_VOLUME_REQUEST, ppump
 2910              		.loc 1 784 0
 2911 0036 FB7C     		ldrb	r3, [r7, #19]	@ zero_extendqisi2
 2912 0038 5A1C     		adds	r2, r3, #1
 2913 003a FA74     		strb	r2, [r7, #19]
ARM GAS  C:\Users\RECEPC~1\AppData\Local\Temp\ccQD6Oev.s 			page 66


 2914 003c 1946     		mov	r1, r3
 2915 003e 7B69     		ldr	r3, [r7, #20]
 2916 0040 1B78     		ldrb	r3, [r3]	@ zero_extendqisi2
 2917 0042 DBB2     		uxtb	r3, r3
 2918 0044 03F00F03 		and	r3, r3, #15
 2919 0048 DBB2     		uxtb	r3, r3
 2920 004a 43F07003 		orr	r3, r3, #112
 2921 004e DBB2     		uxtb	r3, r3
 2922 0050 DAB2     		uxtb	r2, r3
 2923 0052 FB68     		ldr	r3, [r7, #12]
 2924 0054 0B44     		add	r3, r3, r1
 2925 0056 1A71     		strb	r2, [r3, #4]
 785:.\PrimeImpl.c ****             puartdisp->_messagelength = 1;//One byte
 2926              		.loc 1 785 0
 2927 0058 FB68     		ldr	r3, [r7, #12]
 2928 005a 0122     		movs	r2, #1
 2929 005c 5A80     		strh	r2, [r3, #2]	@ movhi
 786:.\PrimeImpl.c ****             puartdisp->_messagestate = PENDING;
 2930              		.loc 1 786 0
 2931 005e FB68     		ldr	r3, [r7, #12]
 2932 0060 C222     		movs	r2, #194
 2933 0062 1A70     		strb	r2, [r3]
 2934              	.L115:
 2935              	.LBE12:
 787:.\PrimeImpl.c ****         }
 788:.\PrimeImpl.c ****     }
 789:.\PrimeImpl.c **** }
 2936              		.loc 1 789 0
 2937 0064 1837     		adds	r7, r7, #24
 2938              		.cfi_def_cfa_offset 8
 2939 0066 BD46     		mov	sp, r7
 2940              		.cfi_def_cfa_register 13
 2941              		@ sp needed
 2942 0068 80BD     		pop	{r7, pc}
 2943              		.cfi_endproc
 2944              	.LFE79:
 2945              		.size	PumpRTHoseVolumeRequest, .-PumpRTHoseVolumeRequest
 2946 006a 00BF     		.section	.text.PumpTransactionDataRequest,"ax",%progbits
 2947              		.align	2
 2948              		.global	PumpTransactionDataRequest
 2949              		.thumb
 2950              		.thumb_func
 2951              		.type	PumpTransactionDataRequest, %function
 2952              	PumpTransactionDataRequest:
 2953              	.LFB80:
 790:.\PrimeImpl.c **** 
 791:.\PrimeImpl.c **** //@Created By: HIJH
 792:.\PrimeImpl.c **** //@Date: Septembre de 2016
 793:.\PrimeImpl.c **** //Requests the last transaction data to the pump. This is a single byte command with a fixed length
 794:.\PrimeImpl.c **** void PumpTransactionDataRequest(void *pparam)
 795:.\PrimeImpl.c **** {
 2954              		.loc 1 795 0
 2955              		.cfi_startproc
 2956              		@ args = 0, pretend = 0, frame = 24
 2957              		@ frame_needed = 1, uses_anonymous_args = 0
 2958 0000 80B5     		push	{r7, lr}
 2959              		.cfi_def_cfa_offset 8
ARM GAS  C:\Users\RECEPC~1\AppData\Local\Temp\ccQD6Oev.s 			page 67


 2960              		.cfi_offset 7, -8
 2961              		.cfi_offset 14, -4
 2962 0002 86B0     		sub	sp, sp, #24
 2963              		.cfi_def_cfa_offset 32
 2964 0004 00AF     		add	r7, sp, #0
 2965              		.cfi_def_cfa_register 7
 2966 0006 7860     		str	r0, [r7, #4]
 796:.\PrimeImpl.c ****     PNEAR_PUMPPTR ppump = (PNEAR_PUMPPTR)pparam;
 2967              		.loc 1 796 0
 2968 0008 7B68     		ldr	r3, [r7, #4]
 2969 000a 7B61     		str	r3, [r7, #20]
 797:.\PrimeImpl.c ****     if(ppump)
 2970              		.loc 1 797 0
 2971 000c 7B69     		ldr	r3, [r7, #20]
 2972 000e 002B     		cmp	r3, #0
 2973 0010 28D0     		beq	.L117
 2974              	.LBB13:
 798:.\PrimeImpl.c ****     {        
 799:.\PrimeImpl.c ****         uint8_t index = 0;
 2975              		.loc 1 799 0
 2976 0012 0023     		movs	r3, #0
 2977 0014 FB74     		strb	r3, [r7, #19]
 800:.\PrimeImpl.c ****         memset(ppump->_rxbuffer, 0x00, _PUMP_RX_BUFFER_SIZE_);
 2978              		.loc 1 800 0
 2979 0016 7B69     		ldr	r3, [r7, #20]
 2980 0018 03F5C473 		add	r3, r3, #392
 2981 001c 1846     		mov	r0, r3
 2982 001e 0021     		movs	r1, #0
 2983 0020 4FF4B472 		mov	r2, #360
 2984 0024 FFF7FEFF 		bl	memset
 801:.\PrimeImpl.c ****         PUARTMESSAGEPTR puartdisp = GetUARTMessageSlot(UART_DISPENSER);
 2985              		.loc 1 801 0
 2986 0028 A220     		movs	r0, #162
 2987 002a FFF7FEFF 		bl	GetUARTMessageSlot
 2988 002e F860     		str	r0, [r7, #12]
 802:.\PrimeImpl.c ****         if(puartdisp)
 2989              		.loc 1 802 0
 2990 0030 FB68     		ldr	r3, [r7, #12]
 2991 0032 002B     		cmp	r3, #0
 2992 0034 16D0     		beq	.L117
 803:.\PrimeImpl.c ****         {
 804:.\PrimeImpl.c ****             puartdisp->_messagetx[index++] = PUMP_COMMAND(PUMP_TRANSACTION_DATA_REQUEST, ppump->_pu
 2993              		.loc 1 804 0
 2994 0036 FB7C     		ldrb	r3, [r7, #19]	@ zero_extendqisi2
 2995 0038 5A1C     		adds	r2, r3, #1
 2996 003a FA74     		strb	r2, [r7, #19]
 2997 003c 1946     		mov	r1, r3
 2998 003e 7B69     		ldr	r3, [r7, #20]
 2999 0040 1B78     		ldrb	r3, [r3]	@ zero_extendqisi2
 3000 0042 DBB2     		uxtb	r3, r3
 3001 0044 03F00F03 		and	r3, r3, #15
 3002 0048 DBB2     		uxtb	r3, r3
 3003 004a 43F04003 		orr	r3, r3, #64
 3004 004e DBB2     		uxtb	r3, r3
 3005 0050 DAB2     		uxtb	r2, r3
 3006 0052 FB68     		ldr	r3, [r7, #12]
 3007 0054 0B44     		add	r3, r3, r1
ARM GAS  C:\Users\RECEPC~1\AppData\Local\Temp\ccQD6Oev.s 			page 68


 3008 0056 1A71     		strb	r2, [r3, #4]
 805:.\PrimeImpl.c ****             puartdisp->_messagelength = 1;//One byte
 3009              		.loc 1 805 0
 3010 0058 FB68     		ldr	r3, [r7, #12]
 3011 005a 0122     		movs	r2, #1
 3012 005c 5A80     		strh	r2, [r3, #2]	@ movhi
 806:.\PrimeImpl.c ****             puartdisp->_messagestate = PENDING;
 3013              		.loc 1 806 0
 3014 005e FB68     		ldr	r3, [r7, #12]
 3015 0060 C222     		movs	r2, #194
 3016 0062 1A70     		strb	r2, [r3]
 3017              	.L117:
 3018              	.LBE13:
 807:.\PrimeImpl.c ****         }
 808:.\PrimeImpl.c ****     }
 809:.\PrimeImpl.c **** }
 3019              		.loc 1 809 0
 3020 0064 1837     		adds	r7, r7, #24
 3021              		.cfi_def_cfa_offset 8
 3022 0066 BD46     		mov	sp, r7
 3023              		.cfi_def_cfa_register 13
 3024              		@ sp needed
 3025 0068 80BD     		pop	{r7, pc}
 3026              		.cfi_endproc
 3027              	.LFE80:
 3028              		.size	PumpTransactionDataRequest, .-PumpTransactionDataRequest
 3029 006a 00BF     		.section	.text.PumpTotalsDataRequest,"ax",%progbits
 3030              		.align	2
 3031              		.global	PumpTotalsDataRequest
 3032              		.thumb
 3033              		.thumb_func
 3034              		.type	PumpTotalsDataRequest, %function
 3035              	PumpTotalsDataRequest:
 3036              	.LFB81:
 810:.\PrimeImpl.c **** 
 811:.\PrimeImpl.c **** //@Created By: HIJH
 812:.\PrimeImpl.c **** //@Date: Septembre de 2016
 813:.\PrimeImpl.c **** //Requests the report of totals for the current pump. This is a single byte command with a variable
 814:.\PrimeImpl.c **** //that depends on the number of available hoses.
 815:.\PrimeImpl.c **** void PumpTotalsDataRequest(void *pparam)
 816:.\PrimeImpl.c **** {
 3037              		.loc 1 816 0
 3038              		.cfi_startproc
 3039              		@ args = 0, pretend = 0, frame = 24
 3040              		@ frame_needed = 1, uses_anonymous_args = 0
 3041 0000 80B5     		push	{r7, lr}
 3042              		.cfi_def_cfa_offset 8
 3043              		.cfi_offset 7, -8
 3044              		.cfi_offset 14, -4
 3045 0002 86B0     		sub	sp, sp, #24
 3046              		.cfi_def_cfa_offset 32
 3047 0004 00AF     		add	r7, sp, #0
 3048              		.cfi_def_cfa_register 7
 3049 0006 7860     		str	r0, [r7, #4]
 817:.\PrimeImpl.c ****     PNEAR_PUMPPTR ppump = (PNEAR_PUMPPTR)pparam;
 3050              		.loc 1 817 0
 3051 0008 7B68     		ldr	r3, [r7, #4]
ARM GAS  C:\Users\RECEPC~1\AppData\Local\Temp\ccQD6Oev.s 			page 69


 3052 000a 7B61     		str	r3, [r7, #20]
 818:.\PrimeImpl.c ****     if(ppump)
 3053              		.loc 1 818 0
 3054 000c 7B69     		ldr	r3, [r7, #20]
 3055 000e 002B     		cmp	r3, #0
 3056 0010 28D0     		beq	.L119
 3057              	.LBB14:
 819:.\PrimeImpl.c ****     {        
 820:.\PrimeImpl.c ****         uint8_t index = 0;
 3058              		.loc 1 820 0
 3059 0012 0023     		movs	r3, #0
 3060 0014 FB74     		strb	r3, [r7, #19]
 821:.\PrimeImpl.c ****         memset(ppump->_rxbuffer, 0x00, _PUMP_RX_BUFFER_SIZE_);
 3061              		.loc 1 821 0
 3062 0016 7B69     		ldr	r3, [r7, #20]
 3063 0018 03F5C473 		add	r3, r3, #392
 3064 001c 1846     		mov	r0, r3
 3065 001e 0021     		movs	r1, #0
 3066 0020 4FF4B472 		mov	r2, #360
 3067 0024 FFF7FEFF 		bl	memset
 822:.\PrimeImpl.c ****         PUARTMESSAGEPTR puartdisp = GetUARTMessageSlot(UART_DISPENSER);
 3068              		.loc 1 822 0
 3069 0028 A220     		movs	r0, #162
 3070 002a FFF7FEFF 		bl	GetUARTMessageSlot
 3071 002e F860     		str	r0, [r7, #12]
 823:.\PrimeImpl.c ****         if(puartdisp)
 3072              		.loc 1 823 0
 3073 0030 FB68     		ldr	r3, [r7, #12]
 3074 0032 002B     		cmp	r3, #0
 3075 0034 16D0     		beq	.L119
 824:.\PrimeImpl.c ****         {
 825:.\PrimeImpl.c ****             puartdisp->_messagetx[index++] = PUMP_COMMAND(PUMP_TOTALS_DATA_REQUEST, ppump->_pumpid)
 3076              		.loc 1 825 0
 3077 0036 FB7C     		ldrb	r3, [r7, #19]	@ zero_extendqisi2
 3078 0038 5A1C     		adds	r2, r3, #1
 3079 003a FA74     		strb	r2, [r7, #19]
 3080 003c 1946     		mov	r1, r3
 3081 003e 7B69     		ldr	r3, [r7, #20]
 3082 0040 1B78     		ldrb	r3, [r3]	@ zero_extendqisi2
 3083 0042 DBB2     		uxtb	r3, r3
 3084 0044 03F00F03 		and	r3, r3, #15
 3085 0048 DBB2     		uxtb	r3, r3
 3086 004a 43F05003 		orr	r3, r3, #80
 3087 004e DBB2     		uxtb	r3, r3
 3088 0050 DAB2     		uxtb	r2, r3
 3089 0052 FB68     		ldr	r3, [r7, #12]
 3090 0054 0B44     		add	r3, r3, r1
 3091 0056 1A71     		strb	r2, [r3, #4]
 826:.\PrimeImpl.c ****             puartdisp->_messagelength = 1;//One byte
 3092              		.loc 1 826 0
 3093 0058 FB68     		ldr	r3, [r7, #12]
 3094 005a 0122     		movs	r2, #1
 3095 005c 5A80     		strh	r2, [r3, #2]	@ movhi
 827:.\PrimeImpl.c ****             puartdisp->_messagestate = PENDING;
 3096              		.loc 1 827 0
 3097 005e FB68     		ldr	r3, [r7, #12]
 3098 0060 C222     		movs	r2, #194
ARM GAS  C:\Users\RECEPC~1\AppData\Local\Temp\ccQD6Oev.s 			page 70


 3099 0062 1A70     		strb	r2, [r3]
 3100              	.L119:
 3101              	.LBE14:
 828:.\PrimeImpl.c ****         }
 829:.\PrimeImpl.c ****     }
 830:.\PrimeImpl.c **** }
 3102              		.loc 1 830 0
 3103 0064 1837     		adds	r7, r7, #24
 3104              		.cfi_def_cfa_offset 8
 3105 0066 BD46     		mov	sp, r7
 3106              		.cfi_def_cfa_register 13
 3107              		@ sp needed
 3108 0068 80BD     		pop	{r7, pc}
 3109              		.cfi_endproc
 3110              	.LFE81:
 3111              		.size	PumpTotalsDataRequest, .-PumpTotalsDataRequest
 3112 006a 00BF     		.section	.text.PumpDataToPump,"ax",%progbits
 3113              		.align	2
 3114              		.global	PumpDataToPump
 3115              		.thumb
 3116              		.thumb_func
 3117              		.type	PumpDataToPump, %function
 3118              	PumpDataToPump:
 3119              	.LFB82:
 831:.\PrimeImpl.c **** 
 832:.\PrimeImpl.c **** //@Created By: HIJH
 833:.\PrimeImpl.c **** //@Date: Septembre de 2016
 834:.\PrimeImpl.c **** //Requests the pump to enter in "SEND DATA" mode. This is a single byte command with a special one 
 835:.\PrimeImpl.c **** //that indicates that the pump is ready to receive data.
 836:.\PrimeImpl.c **** void PumpDataToPump(void *pparam)
 837:.\PrimeImpl.c **** {
 3120              		.loc 1 837 0
 3121              		.cfi_startproc
 3122              		@ args = 0, pretend = 0, frame = 24
 3123              		@ frame_needed = 1, uses_anonymous_args = 0
 3124 0000 80B5     		push	{r7, lr}
 3125              		.cfi_def_cfa_offset 8
 3126              		.cfi_offset 7, -8
 3127              		.cfi_offset 14, -4
 3128 0002 86B0     		sub	sp, sp, #24
 3129              		.cfi_def_cfa_offset 32
 3130 0004 00AF     		add	r7, sp, #0
 3131              		.cfi_def_cfa_register 7
 3132 0006 7860     		str	r0, [r7, #4]
 838:.\PrimeImpl.c ****     PNEAR_PUMPPTR ppump = (PNEAR_PUMPPTR)pparam;
 3133              		.loc 1 838 0
 3134 0008 7B68     		ldr	r3, [r7, #4]
 3135 000a 7B61     		str	r3, [r7, #20]
 839:.\PrimeImpl.c ****     if(ppump)
 3136              		.loc 1 839 0
 3137 000c 7B69     		ldr	r3, [r7, #20]
 3138 000e 002B     		cmp	r3, #0
 3139 0010 28D0     		beq	.L121
 3140              	.LBB15:
 840:.\PrimeImpl.c ****     {
 841:.\PrimeImpl.c ****         uint8_t index = 0;        
 3141              		.loc 1 841 0
ARM GAS  C:\Users\RECEPC~1\AppData\Local\Temp\ccQD6Oev.s 			page 71


 3142 0012 0023     		movs	r3, #0
 3143 0014 FB74     		strb	r3, [r7, #19]
 842:.\PrimeImpl.c ****         memset(ppump->_rxbuffer, 0x00, _PUMP_RX_BUFFER_SIZE_);
 3144              		.loc 1 842 0
 3145 0016 7B69     		ldr	r3, [r7, #20]
 3146 0018 03F5C473 		add	r3, r3, #392
 3147 001c 1846     		mov	r0, r3
 3148 001e 0021     		movs	r1, #0
 3149 0020 4FF4B472 		mov	r2, #360
 3150 0024 FFF7FEFF 		bl	memset
 843:.\PrimeImpl.c ****         PUARTMESSAGEPTR puartdisp = GetUARTMessageSlot(UART_DISPENSER);
 3151              		.loc 1 843 0
 3152 0028 A220     		movs	r0, #162
 3153 002a FFF7FEFF 		bl	GetUARTMessageSlot
 3154 002e F860     		str	r0, [r7, #12]
 844:.\PrimeImpl.c ****         if(puartdisp)
 3155              		.loc 1 844 0
 3156 0030 FB68     		ldr	r3, [r7, #12]
 3157 0032 002B     		cmp	r3, #0
 3158 0034 16D0     		beq	.L121
 845:.\PrimeImpl.c ****         {
 846:.\PrimeImpl.c ****             puartdisp->_messagetx[index++] = PUMP_COMMAND(PUMP_DATA_TO_PUMP, ppump->_pumpid);
 3159              		.loc 1 846 0
 3160 0036 FB7C     		ldrb	r3, [r7, #19]	@ zero_extendqisi2
 3161 0038 5A1C     		adds	r2, r3, #1
 3162 003a FA74     		strb	r2, [r7, #19]
 3163 003c 1946     		mov	r1, r3
 3164 003e 7B69     		ldr	r3, [r7, #20]
 3165 0040 1B78     		ldrb	r3, [r3]	@ zero_extendqisi2
 3166 0042 DBB2     		uxtb	r3, r3
 3167 0044 03F00F03 		and	r3, r3, #15
 3168 0048 DBB2     		uxtb	r3, r3
 3169 004a 43F02003 		orr	r3, r3, #32
 3170 004e DBB2     		uxtb	r3, r3
 3171 0050 DAB2     		uxtb	r2, r3
 3172 0052 FB68     		ldr	r3, [r7, #12]
 3173 0054 0B44     		add	r3, r3, r1
 3174 0056 1A71     		strb	r2, [r3, #4]
 847:.\PrimeImpl.c ****             puartdisp->_messagelength = 1;//One byte
 3175              		.loc 1 847 0
 3176 0058 FB68     		ldr	r3, [r7, #12]
 3177 005a 0122     		movs	r2, #1
 3178 005c 5A80     		strh	r2, [r3, #2]	@ movhi
 848:.\PrimeImpl.c ****             puartdisp->_messagestate = PENDING;
 3179              		.loc 1 848 0
 3180 005e FB68     		ldr	r3, [r7, #12]
 3181 0060 C222     		movs	r2, #194
 3182 0062 1A70     		strb	r2, [r3]
 3183              	.L121:
 3184              	.LBE15:
 849:.\PrimeImpl.c ****         }
 850:.\PrimeImpl.c ****     }
 851:.\PrimeImpl.c **** }
 3185              		.loc 1 851 0
 3186 0064 1837     		adds	r7, r7, #24
 3187              		.cfi_def_cfa_offset 8
 3188 0066 BD46     		mov	sp, r7
ARM GAS  C:\Users\RECEPC~1\AppData\Local\Temp\ccQD6Oev.s 			page 72


 3189              		.cfi_def_cfa_register 13
 3190              		@ sp needed
 3191 0068 80BD     		pop	{r7, pc}
 3192              		.cfi_endproc
 3193              	.LFE82:
 3194              		.size	PumpDataToPump, .-PumpDataToPump
 3195 006a 00BF     		.section	.text.PumpPresetHose,"ax",%progbits
 3196              		.align	2
 3197              		.global	PumpPresetHose
 3198              		.thumb
 3199              		.thumb_func
 3200              		.type	PumpPresetHose, %function
 3201              	PumpPresetHose:
 3202              	.LFB83:
 852:.\PrimeImpl.c **** 
 853:.\PrimeImpl.c **** //@Created By: HIJH
 854:.\PrimeImpl.c **** //@Septembre de 2016
 855:.\PrimeImpl.c **** ///////////////////////////////////////////////////////////////////////////////////////////////////
 856:.\PrimeImpl.c **** //Preset values will be placed within the SinkMessage's buffer. This is a convention that applies t
 857:.\PrimeImpl.c **** //all of the available transactions. The pump function must deal with this while it is assembling t
 858:.\PrimeImpl.c **** //For this message the data comes as follows:
 859:.\PrimeImpl.c **** // - First byte is the preset type (Volume:1 / Money:2 )
 860:.\PrimeImpl.c **** // - Second byte is the Hose (A:0, B:1, C:2, D:3)
 861:.\PrimeImpl.c **** // - Block of 8 bytes for the preset value
 862:.\PrimeImpl.c **** //This block of data (10 bytes) must be moved to another position within the same buffer (even posi
 863:.\PrimeImpl.c **** void PumpPresetHose(void *pparam)
 864:.\PrimeImpl.c **** {
 3203              		.loc 1 864 0
 3204              		.cfi_startproc
 3205              		@ args = 0, pretend = 0, frame = 32
 3206              		@ frame_needed = 1, uses_anonymous_args = 0
 3207 0000 90B5     		push	{r4, r7, lr}
 3208              		.cfi_def_cfa_offset 12
 3209              		.cfi_offset 4, -12
 3210              		.cfi_offset 7, -8
 3211              		.cfi_offset 14, -4
 3212 0002 89B0     		sub	sp, sp, #36
 3213              		.cfi_def_cfa_offset 48
 3214 0004 00AF     		add	r7, sp, #0
 3215              		.cfi_def_cfa_register 7
 3216 0006 7860     		str	r0, [r7, #4]
 865:.\PrimeImpl.c ****     PNEAR_PUMPPTR ppump = (PNEAR_PUMPPTR)pparam;
 3217              		.loc 1 865 0
 3218 0008 7B68     		ldr	r3, [r7, #4]
 3219 000a BB61     		str	r3, [r7, #24]
 866:.\PrimeImpl.c ****     if(ppump)
 3220              		.loc 1 866 0
 3221 000c BB69     		ldr	r3, [r7, #24]
 3222 000e 002B     		cmp	r3, #0
 3223 0010 00F09880 		beq	.L123
 3224              	.LBB16:
 867:.\PrimeImpl.c ****     {
 868:.\PrimeImpl.c ****         uint8_t index = 0;        
 3225              		.loc 1 868 0
 3226 0014 0023     		movs	r3, #0
 3227 0016 FB77     		strb	r3, [r7, #31]
 869:.\PrimeImpl.c ****         PUARTMESSAGEPTR puartdisp = GetUARTMessageSlot(UART_DISPENSER);
ARM GAS  C:\Users\RECEPC~1\AppData\Local\Temp\ccQD6Oev.s 			page 73


 3228              		.loc 1 869 0
 3229 0018 A220     		movs	r0, #162
 3230 001a FFF7FEFF 		bl	GetUARTMessageSlot
 3231 001e 7861     		str	r0, [r7, #20]
 870:.\PrimeImpl.c ****         memset(ppump->_rxbuffer, 0x00, _PUMP_RX_BUFFER_SIZE_);
 3232              		.loc 1 870 0
 3233 0020 BB69     		ldr	r3, [r7, #24]
 3234 0022 03F5C473 		add	r3, r3, #392
 3235 0026 1846     		mov	r0, r3
 3236 0028 0021     		movs	r1, #0
 3237 002a 4FF4B472 		mov	r2, #360
 3238 002e FFF7FEFF 		bl	memset
 871:.\PrimeImpl.c ****         if(puartdisp)
 3239              		.loc 1 871 0
 3240 0032 7B69     		ldr	r3, [r7, #20]
 3241 0034 002B     		cmp	r3, #0
 3242 0036 00F08580 		beq	.L123
 3243              	.LBB17:
 872:.\PrimeImpl.c ****         {
 873:.\PrimeImpl.c **** ///////////////////////////////////////////////////////////////////////////////////////////////////
 874:.\PrimeImpl.c ****             puartdisp->_messagetx[index++] = SOM;
 3244              		.loc 1 874 0
 3245 003a FB7F     		ldrb	r3, [r7, #31]	@ zero_extendqisi2
 3246 003c 5A1C     		adds	r2, r3, #1
 3247 003e FA77     		strb	r2, [r7, #31]
 3248 0040 1A46     		mov	r2, r3
 3249 0042 7B69     		ldr	r3, [r7, #20]
 3250 0044 1344     		add	r3, r3, r2
 3251 0046 FF22     		movs	r2, #255
 3252 0048 1A71     		strb	r2, [r3, #4]
 875:.\PrimeImpl.c ****             
 876:.\PrimeImpl.c ****             #ifndef PRIME_CASH_SALE_NOHOSE
 877:.\PrimeImpl.c ****             puartdisp->_messagetx[index++] = 0xE1;
 878:.\PrimeImpl.c ****             #endif
 879:.\PrimeImpl.c ****             #ifdef PRIME_CASH_SALE_NOHOSE
 880:.\PrimeImpl.c ****             puartdisp->_messagetx[index++] = 0xE3;
 3253              		.loc 1 880 0
 3254 004a FB7F     		ldrb	r3, [r7, #31]	@ zero_extendqisi2
 3255 004c 5A1C     		adds	r2, r3, #1
 3256 004e FA77     		strb	r2, [r7, #31]
 3257 0050 1A46     		mov	r2, r3
 3258 0052 7B69     		ldr	r3, [r7, #20]
 3259 0054 1344     		add	r3, r3, r2
 3260 0056 E322     		movs	r2, #227
 3261 0058 1A71     		strb	r2, [r3, #4]
 881:.\PrimeImpl.c ****             #endif
 882:.\PrimeImpl.c ****             
 883:.\PrimeImpl.c ****             ///THIS IS AN APPLIED CONVENTION ===>> 0x0004 INDEX POSITION WITHIN THE PUMP'S BUFFER P
 884:.\PrimeImpl.c ****             ///THESE CODES MUST BE MATCHED OTHERWISE THE LOGIC WILL BREAKUP THE CODE!
 885:.\PrimeImpl.c ****             uint8 transtype = (0xF0 | ((ppump->_trasactionbuffer[0x0004] == 0x0F)? 0x02: 0x01));//p
 3262              		.loc 1 885 0
 3263 005a BB69     		ldr	r3, [r7, #24]
 3264 005c 93F82430 		ldrb	r3, [r3, #36]	@ zero_extendqisi2
 3265 0060 0F2B     		cmp	r3, #15
 3266 0062 01D1     		bne	.L125
 3267              		.loc 1 885 0 is_stmt 0 discriminator 1
 3268 0064 F223     		movs	r3, #242
ARM GAS  C:\Users\RECEPC~1\AppData\Local\Temp\ccQD6Oev.s 			page 74


 3269 0066 00E0     		b	.L126
 3270              	.L125:
 3271              		.loc 1 885 0 discriminator 2
 3272 0068 F123     		movs	r3, #241
 3273              	.L126:
 3274              		.loc 1 885 0 discriminator 4
 3275 006a FB74     		strb	r3, [r7, #19]
 886:.\PrimeImpl.c ****             puartdisp->_messagetx[index++] = transtype;
 3276              		.loc 1 886 0 is_stmt 1 discriminator 4
 3277 006c FB7F     		ldrb	r3, [r7, #31]	@ zero_extendqisi2
 3278 006e 5A1C     		adds	r2, r3, #1
 3279 0070 FA77     		strb	r2, [r7, #31]
 3280 0072 1A46     		mov	r2, r3
 3281 0074 7B69     		ldr	r3, [r7, #20]
 3282 0076 1344     		add	r3, r3, r2
 3283 0078 FA7C     		ldrb	r2, [r7, #19]
 3284 007a 1A71     		strb	r2, [r3, #4]
 887:.\PrimeImpl.c ****             
 888:.\PrimeImpl.c ****             #ifndef PRIME_CASH_SALE_NOHOSE
 889:.\PrimeImpl.c ****             puartdisp->_messagetx[index++] = 0xF6; //Hose Data next
 890:.\PrimeImpl.c ****             ///THIS IS AN APPLIED CONVENTION ===>> 0x0006 INDEX POSITION WITHIN THE PUMP'S BUFFER P
 891:.\PrimeImpl.c ****             ///THESE CODES MUST BE MATCHED OTHERWISE THE LOGIC WILL BREAKUP THE CODE!
 892:.\PrimeImpl.c ****             puartdisp->_messagetx[index++] = (0xE0 | (0x0F & ppump->_trasactionbuffer[GetBufferInde
 893:.\PrimeImpl.c ****             #endif
 894:.\PrimeImpl.c ****             
 895:.\PrimeImpl.c ****             puartdisp->_messagetx[index++] = 0xF8; //Preset Data next
 3285              		.loc 1 895 0 discriminator 4
 3286 007c FB7F     		ldrb	r3, [r7, #31]	@ zero_extendqisi2
 3287 007e 5A1C     		adds	r2, r3, #1
 3288 0080 FA77     		strb	r2, [r7, #31]
 3289 0082 1A46     		mov	r2, r3
 3290 0084 7B69     		ldr	r3, [r7, #20]
 3291 0086 1344     		add	r3, r3, r2
 3292 0088 F822     		movs	r2, #248
 3293 008a 1A71     		strb	r2, [r3, #4]
 896:.\PrimeImpl.c ****             //Here we copy the remaining 8 bytes for the preset value
 897:.\PrimeImpl.c ****             ///THIS IS AN APPLIED CONVENTION ===>> 0x0008 INDEX POSITION WITHIN THE PUMP'S BUFFER P
 898:.\PrimeImpl.c ****             ///THESE CODES MUST BE MATCHED OTHERWISE THE LOGIC WILL BREAKUP THE CODE!
 899:.\PrimeImpl.c ****             char8 *ptr = &ppump->_trasactionbuffer[0x0008];
 3294              		.loc 1 899 0 discriminator 4
 3295 008c BB69     		ldr	r3, [r7, #24]
 3296 008e 2833     		adds	r3, r3, #40
 3297 0090 FB60     		str	r3, [r7, #12]
 900:.\PrimeImpl.c ****             if(!ppump->_presetdone)
 3298              		.loc 1 900 0 discriminator 4
 3299 0092 BB69     		ldr	r3, [r7, #24]
 3300 0094 9B7A     		ldrb	r3, [r3, #10]
 3301 0096 DBB2     		uxtb	r3, r3
 3302 0098 83F00103 		eor	r3, r3, #1
 3303 009c DBB2     		uxtb	r3, r3
 3304 009e 002B     		cmp	r3, #0
 3305 00a0 0BD0     		beq	.L127
 901:.\PrimeImpl.c ****             {
 902:.\PrimeImpl.c ****                 if(transtype == 0xF1) //Volume PRESET, then multiply by 1000
 3306              		.loc 1 902 0
 3307 00a2 FB7C     		ldrb	r3, [r7, #19]	@ zero_extendqisi2
 3308 00a4 F12B     		cmp	r3, #241
ARM GAS  C:\Users\RECEPC~1\AppData\Local\Temp\ccQD6Oev.s 			page 75


 3309 00a6 04D1     		bne	.L128
 903:.\PrimeImpl.c ****                     CastVolumeValue(ptr, 0x08);
 3310              		.loc 1 903 0
 3311 00a8 F868     		ldr	r0, [r7, #12]
 3312 00aa 0821     		movs	r1, #8
 3313 00ac FFF7FEFF 		bl	CastVolumeValue
 3314 00b0 03E0     		b	.L127
 3315              	.L128:
 904:.\PrimeImpl.c ****                 else
 905:.\PrimeImpl.c ****                     CastMoneyValue(ptr, 0x08);
 3316              		.loc 1 905 0
 3317 00b2 F868     		ldr	r0, [r7, #12]
 3318 00b4 0821     		movs	r1, #8
 3319 00b6 FFF7FEFF 		bl	CastMoneyValue
 3320              	.L127:
 906:.\PrimeImpl.c ****                     
 907:.\PrimeImpl.c ****             }
 908:.\PrimeImpl.c ****             ppump->_presetdone = true;
 3321              		.loc 1 908 0
 3322 00ba BB69     		ldr	r3, [r7, #24]
 3323 00bc 0122     		movs	r2, #1
 3324 00be 9A72     		strb	r2, [r3, #10]
 909:.\PrimeImpl.c ****                 
 910:.\PrimeImpl.c ****             FOR(uint8 buffndx = 0, buffndx < 0x08, buffndx++)
 3325              		.loc 1 910 0
 3326 00c0 0023     		movs	r3, #0
 3327 00c2 BB77     		strb	r3, [r7, #30]
 3328 00c4 16E0     		b	.L129
 3329              	.L130:
 911:.\PrimeImpl.c ****                 puartdisp->_messagetx[index++] = (0xE0 | (0x0F & ptr[7 - buffndx])); //Translate fr
 3330              		.loc 1 911 0 discriminator 3
 3331 00c6 FB7F     		ldrb	r3, [r7, #31]	@ zero_extendqisi2
 3332 00c8 5A1C     		adds	r2, r3, #1
 3333 00ca FA77     		strb	r2, [r7, #31]
 3334 00cc 1946     		mov	r1, r3
 3335 00ce BB7F     		ldrb	r3, [r7, #30]	@ zero_extendqisi2
 3336 00d0 C3F10703 		rsb	r3, r3, #7
 3337 00d4 1A46     		mov	r2, r3
 3338 00d6 FB68     		ldr	r3, [r7, #12]
 3339 00d8 1344     		add	r3, r3, r2
 3340 00da 1B78     		ldrb	r3, [r3]	@ zero_extendqisi2
 3341 00dc 03F00F03 		and	r3, r3, #15
 3342 00e0 DBB2     		uxtb	r3, r3
 3343 00e2 63F01F03 		orn	r3, r3, #31
 3344 00e6 DAB2     		uxtb	r2, r3
 3345 00e8 7B69     		ldr	r3, [r7, #20]
 3346 00ea 0B44     		add	r3, r3, r1
 3347 00ec 1A71     		strb	r2, [r3, #4]
 910:.\PrimeImpl.c ****                 puartdisp->_messagetx[index++] = (0xE0 | (0x0F & ptr[7 - buffndx])); //Translate fr
 3348              		.loc 1 910 0 discriminator 3
 3349 00ee BB7F     		ldrb	r3, [r7, #30]	@ zero_extendqisi2
 3350 00f0 0133     		adds	r3, r3, #1
 3351 00f2 BB77     		strb	r3, [r7, #30]
 3352              	.L129:
 910:.\PrimeImpl.c ****                 puartdisp->_messagetx[index++] = (0xE0 | (0x0F & ptr[7 - buffndx])); //Translate fr
 3353              		.loc 1 910 0 is_stmt 0 discriminator 1
 3354 00f4 BB7F     		ldrb	r3, [r7, #30]	@ zero_extendqisi2
ARM GAS  C:\Users\RECEPC~1\AppData\Local\Temp\ccQD6Oev.s 			page 76


 3355 00f6 072B     		cmp	r3, #7
 3356 00f8 E5D9     		bls	.L130
 912:.\PrimeImpl.c ****                 
 913:.\PrimeImpl.c ****             puartdisp->_messagetx[index++] = LRCn; //LRC next
 3357              		.loc 1 913 0 is_stmt 1
 3358 00fa FB7F     		ldrb	r3, [r7, #31]	@ zero_extendqisi2
 3359 00fc 5A1C     		adds	r2, r3, #1
 3360 00fe FA77     		strb	r2, [r7, #31]
 3361 0100 1A46     		mov	r2, r3
 3362 0102 7B69     		ldr	r3, [r7, #20]
 3363 0104 1344     		add	r3, r3, r2
 3364 0106 FB22     		movs	r2, #251
 3365 0108 1A71     		strb	r2, [r3, #4]
 914:.\PrimeImpl.c ****             puartdisp->_messagetx[index++] = GetLRC(puartdisp->_messagetx);
 3366              		.loc 1 914 0
 3367 010a FB7F     		ldrb	r3, [r7, #31]	@ zero_extendqisi2
 3368 010c 5A1C     		adds	r2, r3, #1
 3369 010e FA77     		strb	r2, [r7, #31]
 3370 0110 1C46     		mov	r4, r3
 3371 0112 7B69     		ldr	r3, [r7, #20]
 3372 0114 0433     		adds	r3, r3, #4
 3373 0116 1846     		mov	r0, r3
 3374 0118 FFF7FEFF 		bl	GetLRC
 3375 011c 0346     		mov	r3, r0
 3376 011e 1A46     		mov	r2, r3
 3377 0120 7B69     		ldr	r3, [r7, #20]
 3378 0122 2344     		add	r3, r3, r4
 3379 0124 1A71     		strb	r2, [r3, #4]
 915:.\PrimeImpl.c ****             puartdisp->_messagetx[index++] = EOM;
 3380              		.loc 1 915 0
 3381 0126 FB7F     		ldrb	r3, [r7, #31]	@ zero_extendqisi2
 3382 0128 5A1C     		adds	r2, r3, #1
 3383 012a FA77     		strb	r2, [r7, #31]
 3384 012c 1A46     		mov	r2, r3
 3385 012e 7B69     		ldr	r3, [r7, #20]
 3386 0130 1344     		add	r3, r3, r2
 3387 0132 F022     		movs	r2, #240
 3388 0134 1A71     		strb	r2, [r3, #4]
 916:.\PrimeImpl.c **** ///////////////////////////////////////////////////////////////////////////////////////////////////
 917:.\PrimeImpl.c ****             
 918:.\PrimeImpl.c ****             puartdisp->_messagelength = index;
 3389              		.loc 1 918 0
 3390 0136 FB7F     		ldrb	r3, [r7, #31]	@ zero_extendqisi2
 3391 0138 9AB2     		uxth	r2, r3
 3392 013a 7B69     		ldr	r3, [r7, #20]
 3393 013c 5A80     		strh	r2, [r3, #2]	@ movhi
 919:.\PrimeImpl.c ****             puartdisp->_messagestate = PENDING;
 3394              		.loc 1 919 0
 3395 013e 7B69     		ldr	r3, [r7, #20]
 3396 0140 C222     		movs	r2, #194
 3397 0142 1A70     		strb	r2, [r3]
 3398              	.L123:
 3399              	.LBE17:
 3400              	.LBE16:
 920:.\PrimeImpl.c ****         }
 921:.\PrimeImpl.c ****     }
 922:.\PrimeImpl.c ****     
ARM GAS  C:\Users\RECEPC~1\AppData\Local\Temp\ccQD6Oev.s 			page 77


 923:.\PrimeImpl.c **** }
 3401              		.loc 1 923 0
 3402 0144 2437     		adds	r7, r7, #36
 3403              		.cfi_def_cfa_offset 12
 3404 0146 BD46     		mov	sp, r7
 3405              		.cfi_def_cfa_register 13
 3406              		@ sp needed
 3407 0148 90BD     		pop	{r4, r7, pc}
 3408              		.cfi_endproc
 3409              	.LFE83:
 3410              		.size	PumpPresetHose, .-PumpPresetHose
 3411 014a 00BF     		.section	.text.PumpCreditPresetHose,"ax",%progbits
 3412              		.align	2
 3413              		.global	PumpCreditPresetHose
 3414              		.thumb
 3415              		.thumb_func
 3416              		.type	PumpCreditPresetHose, %function
 3417              	PumpCreditPresetHose:
 3418              	.LFB84:
 924:.\PrimeImpl.c **** 
 925:.\PrimeImpl.c **** //@Created By: HIJH
 926:.\PrimeImpl.c **** //@Septembre de 2016
 927:.\PrimeImpl.c **** ///////////////////////////////////////////////////////////////////////////////////////////////////
 928:.\PrimeImpl.c **** //This preset is a convention that applies to "Credit Transactions"
 929:.\PrimeImpl.c **** //The pump will hold all the necessary information for the preset.
 930:.\PrimeImpl.c **** //For this message the data comes as follows:
 931:.\PrimeImpl.c **** void PumpCreditPresetHose(void *pparam)
 932:.\PrimeImpl.c **** {
 3419              		.loc 1 932 0
 3420              		.cfi_startproc
 3421              		@ args = 0, pretend = 0, frame = 32
 3422              		@ frame_needed = 1, uses_anonymous_args = 0
 3423 0000 90B5     		push	{r4, r7, lr}
 3424              		.cfi_def_cfa_offset 12
 3425              		.cfi_offset 4, -12
 3426              		.cfi_offset 7, -8
 3427              		.cfi_offset 14, -4
 3428 0002 89B0     		sub	sp, sp, #36
 3429              		.cfi_def_cfa_offset 48
 3430 0004 00AF     		add	r7, sp, #0
 3431              		.cfi_def_cfa_register 7
 3432 0006 7860     		str	r0, [r7, #4]
 933:.\PrimeImpl.c ****     PNEAR_PUMPPTR ppump = (PNEAR_PUMPPTR)pparam;
 3433              		.loc 1 933 0
 3434 0008 7B68     		ldr	r3, [r7, #4]
 3435 000a BB61     		str	r3, [r7, #24]
 934:.\PrimeImpl.c ****     if(ppump)
 3436              		.loc 1 934 0
 3437 000c BB69     		ldr	r3, [r7, #24]
 3438 000e 002B     		cmp	r3, #0
 3439 0010 00F0A380 		beq	.L131
 3440              	.LBB18:
 935:.\PrimeImpl.c ****     {
 936:.\PrimeImpl.c ****         uint8_t index = 0;        
 3441              		.loc 1 936 0
 3442 0014 0023     		movs	r3, #0
 3443 0016 FB77     		strb	r3, [r7, #31]
ARM GAS  C:\Users\RECEPC~1\AppData\Local\Temp\ccQD6Oev.s 			page 78


 937:.\PrimeImpl.c ****         PUARTMESSAGEPTR puartdisp = GetUARTMessageSlot(UART_DISPENSER);
 3444              		.loc 1 937 0
 3445 0018 A220     		movs	r0, #162
 3446 001a FFF7FEFF 		bl	GetUARTMessageSlot
 3447 001e 7861     		str	r0, [r7, #20]
 938:.\PrimeImpl.c ****         memset(ppump->_rxbuffer, 0x00, _PUMP_RX_BUFFER_SIZE_);
 3448              		.loc 1 938 0
 3449 0020 BB69     		ldr	r3, [r7, #24]
 3450 0022 03F5C473 		add	r3, r3, #392
 3451 0026 1846     		mov	r0, r3
 3452 0028 0021     		movs	r1, #0
 3453 002a 4FF4B472 		mov	r2, #360
 3454 002e FFF7FEFF 		bl	memset
 939:.\PrimeImpl.c ****         if(puartdisp)
 3455              		.loc 1 939 0
 3456 0032 7B69     		ldr	r3, [r7, #20]
 3457 0034 002B     		cmp	r3, #0
 3458 0036 00F09080 		beq	.L131
 3459              	.LBB19:
 940:.\PrimeImpl.c ****         {
 941:.\PrimeImpl.c **** ///////////////////////////////////////////////////////////////////////////////////////////////////
 942:.\PrimeImpl.c ****             puartdisp->_messagetx[index++] = SOM;
 3460              		.loc 1 942 0
 3461 003a FB7F     		ldrb	r3, [r7, #31]	@ zero_extendqisi2
 3462 003c 5A1C     		adds	r2, r3, #1
 3463 003e FA77     		strb	r2, [r7, #31]
 3464 0040 1A46     		mov	r2, r3
 3465 0042 7B69     		ldr	r3, [r7, #20]
 3466 0044 1344     		add	r3, r3, r2
 3467 0046 FF22     		movs	r2, #255
 3468 0048 1A71     		strb	r2, [r3, #4]
 943:.\PrimeImpl.c ****             #ifdef PRIME_CREDIT_SALE_NOHOSE
 944:.\PrimeImpl.c ****             puartdisp->_messagetx[index++] = 0xE3;
 3469              		.loc 1 944 0
 3470 004a FB7F     		ldrb	r3, [r7, #31]	@ zero_extendqisi2
 3471 004c 5A1C     		adds	r2, r3, #1
 3472 004e FA77     		strb	r2, [r7, #31]
 3473 0050 1A46     		mov	r2, r3
 3474 0052 7B69     		ldr	r3, [r7, #20]
 3475 0054 1344     		add	r3, r3, r2
 3476 0056 E322     		movs	r2, #227
 3477 0058 1A71     		strb	r2, [r3, #4]
 945:.\PrimeImpl.c ****             #endif
 946:.\PrimeImpl.c ****             #ifndef PRIME_CREDIT_SALE_NOHOSE
 947:.\PrimeImpl.c ****             puartdisp->_messagetx[index++] = 0xE1; //Data Length (n = 1 if F4/F5 are not included)
 948:.\PrimeImpl.c ****             #endif
 949:.\PrimeImpl.c **** 
 950:.\PrimeImpl.c ****             ///THIS IS AN APPLIED CONVENTION ===>> 0x0004 INDEX POSITION WITHIN THE PUMP'S BUFFER P
 951:.\PrimeImpl.c ****             ///THESE CODES MUST BE MATCHED OTHERWISE THE LOGIC WILL BREAKUP THE CODE!
 952:.\PrimeImpl.c ****             uint8 transtype = 0xF2;//preset type (0xF2 = Money, 0xF1 = Volume)
 3478              		.loc 1 952 0
 3479 005a F223     		movs	r3, #242
 3480 005c FB74     		strb	r3, [r7, #19]
 953:.\PrimeImpl.c ****             puartdisp->_messagetx[index++] = transtype;
 3481              		.loc 1 953 0
 3482 005e FB7F     		ldrb	r3, [r7, #31]	@ zero_extendqisi2
 3483 0060 5A1C     		adds	r2, r3, #1
ARM GAS  C:\Users\RECEPC~1\AppData\Local\Temp\ccQD6Oev.s 			page 79


 3484 0062 FA77     		strb	r2, [r7, #31]
 3485 0064 1A46     		mov	r2, r3
 3486 0066 7B69     		ldr	r3, [r7, #20]
 3487 0068 1344     		add	r3, r3, r2
 3488 006a FA7C     		ldrb	r2, [r7, #19]
 3489 006c 1A71     		strb	r2, [r3, #4]
 954:.\PrimeImpl.c ****             #ifndef PRIME_CREDIT_SALE_NOHOSE
 955:.\PrimeImpl.c ****             puartdisp->_messagetx[index++] = 0xF6; //Hose Data next
 956:.\PrimeImpl.c ****             ///THIS IS AN APPLIED CONVENTION ===>> 0x0006 INDEX POSITION WITHIN THE PUMP'S BUFFER P
 957:.\PrimeImpl.c ****             ///THESE CODES MUST BE MATCHED OTHERWISE THE LOGIC WILL BREAKUP THE CODE!
 958:.\PrimeImpl.c ****             puartdisp->_messagetx[index++] = (0xE0 | ppump->_authorizationinfo._hoseid);
 959:.\PrimeImpl.c ****             #endif
 960:.\PrimeImpl.c ****             
 961:.\PrimeImpl.c ****             puartdisp->_messagetx[index++] = 0xF8; //Preset Data next
 3490              		.loc 1 961 0
 3491 006e FB7F     		ldrb	r3, [r7, #31]	@ zero_extendqisi2
 3492 0070 5A1C     		adds	r2, r3, #1
 3493 0072 FA77     		strb	r2, [r7, #31]
 3494 0074 1A46     		mov	r2, r3
 3495 0076 7B69     		ldr	r3, [r7, #20]
 3496 0078 1344     		add	r3, r3, r2
 3497 007a F822     		movs	r2, #248
 3498 007c 1A71     		strb	r2, [r3, #4]
 962:.\PrimeImpl.c ****             //Here we copy the remaining 8 bytes for the preset value
 963:.\PrimeImpl.c ****             ///THIS IS AN APPLIED CONVENTION ===>> 0x0008 INDEX POSITION WITHIN THE PUMP'S BUFFER P
 964:.\PrimeImpl.c ****             ///THESE CODES MUST BE MATCHED OTHERWISE THE LOGIC WILL BREAKUP THE CODE!
 965:.\PrimeImpl.c ****             memset(PBYTECAST(&ppump->_trasactionbuffer[0x0008]),0x00, 0x0008);
 3499              		.loc 1 965 0
 3500 007e BB69     		ldr	r3, [r7, #24]
 3501 0080 2833     		adds	r3, r3, #40
 3502 0082 1846     		mov	r0, r3
 3503 0084 0021     		movs	r1, #0
 3504 0086 0822     		movs	r2, #8
 3505 0088 FFF7FEFF 		bl	memset
 966:.\PrimeImpl.c ****             B78AD90CF552D9B30A(ppump->_authorizationinfo._presetamount, PBYTECAST(&ppump->_trasacti
 3506              		.loc 1 966 0
 3507 008c BB69     		ldr	r3, [r7, #24]
 3508 008e D3F8803B 		ldr	r3, [r3, #2944]
 3509 0092 1A46     		mov	r2, r3
 3510 0094 4FF00003 		mov	r3, #0
 3511 0098 B969     		ldr	r1, [r7, #24]
 3512 009a 01F12804 		add	r4, r1, #40
 3513 009e 1046     		mov	r0, r2
 3514 00a0 1946     		mov	r1, r3
 3515 00a2 2246     		mov	r2, r4
 3516 00a4 FFF7FEFF 		bl	B78AD90CF552D9B30A
 967:.\PrimeImpl.c ****             
 968:.\PrimeImpl.c ****             char8 *ptr = &ppump->_trasactionbuffer[0x0008];
 3517              		.loc 1 968 0
 3518 00a8 BB69     		ldr	r3, [r7, #24]
 3519 00aa 2833     		adds	r3, r3, #40
 3520 00ac FB60     		str	r3, [r7, #12]
 969:.\PrimeImpl.c ****             PSTRBUFFTOGG(PBYTECAST(ptr), 0x08);
 3521              		.loc 1 969 0
 3522 00ae F868     		ldr	r0, [r7, #12]
 3523 00b0 0821     		movs	r1, #8
 3524 00b2 FFF7FEFF 		bl	PSTRBUFFTOGG
ARM GAS  C:\Users\RECEPC~1\AppData\Local\Temp\ccQD6Oev.s 			page 80


 970:.\PrimeImpl.c ****             if(transtype == 0xF1) //Volume PRESET, then multiply by 1000
 3525              		.loc 1 970 0
 3526 00b6 FB7C     		ldrb	r3, [r7, #19]	@ zero_extendqisi2
 3527 00b8 F12B     		cmp	r3, #241
 3528 00ba 04D1     		bne	.L133
 971:.\PrimeImpl.c ****                 CastVolumeValue(ptr, 0x08);
 3529              		.loc 1 971 0
 3530 00bc F868     		ldr	r0, [r7, #12]
 3531 00be 0821     		movs	r1, #8
 3532 00c0 FFF7FEFF 		bl	CastVolumeValue
 3533 00c4 03E0     		b	.L134
 3534              	.L133:
 972:.\PrimeImpl.c ****             else
 973:.\PrimeImpl.c ****                 CastMoneyValue(ptr, 0x08);
 3535              		.loc 1 973 0
 3536 00c6 F868     		ldr	r0, [r7, #12]
 3537 00c8 0821     		movs	r1, #8
 3538 00ca FFF7FEFF 		bl	CastMoneyValue
 3539              	.L134:
 974:.\PrimeImpl.c ****             
 975:.\PrimeImpl.c ****             PSTRBUFFTOGG(PBYTECAST(ptr), 0x08);
 3540              		.loc 1 975 0
 3541 00ce F868     		ldr	r0, [r7, #12]
 3542 00d0 0821     		movs	r1, #8
 3543 00d2 FFF7FEFF 		bl	PSTRBUFFTOGG
 976:.\PrimeImpl.c ****             FOR(uint8 buffndx = 0, buffndx < 8, buffndx++)
 3544              		.loc 1 976 0
 3545 00d6 0023     		movs	r3, #0
 3546 00d8 BB77     		strb	r3, [r7, #30]
 3547 00da 13E0     		b	.L135
 3548              	.L136:
 977:.\PrimeImpl.c ****                 puartdisp->_messagetx[index++] = (0xE0 | (0x0F & ptr[buffndx])); //Translate from A
 3549              		.loc 1 977 0 discriminator 3
 3550 00dc FB7F     		ldrb	r3, [r7, #31]	@ zero_extendqisi2
 3551 00de 5A1C     		adds	r2, r3, #1
 3552 00e0 FA77     		strb	r2, [r7, #31]
 3553 00e2 1946     		mov	r1, r3
 3554 00e4 BB7F     		ldrb	r3, [r7, #30]	@ zero_extendqisi2
 3555 00e6 FA68     		ldr	r2, [r7, #12]
 3556 00e8 1344     		add	r3, r3, r2
 3557 00ea 1B78     		ldrb	r3, [r3]	@ zero_extendqisi2
 3558 00ec 03F00F03 		and	r3, r3, #15
 3559 00f0 DBB2     		uxtb	r3, r3
 3560 00f2 63F01F03 		orn	r3, r3, #31
 3561 00f6 DAB2     		uxtb	r2, r3
 3562 00f8 7B69     		ldr	r3, [r7, #20]
 3563 00fa 0B44     		add	r3, r3, r1
 3564 00fc 1A71     		strb	r2, [r3, #4]
 976:.\PrimeImpl.c ****             FOR(uint8 buffndx = 0, buffndx < 8, buffndx++)
 3565              		.loc 1 976 0 discriminator 3
 3566 00fe BB7F     		ldrb	r3, [r7, #30]	@ zero_extendqisi2
 3567 0100 0133     		adds	r3, r3, #1
 3568 0102 BB77     		strb	r3, [r7, #30]
 3569              	.L135:
 976:.\PrimeImpl.c ****             FOR(uint8 buffndx = 0, buffndx < 8, buffndx++)
 3570              		.loc 1 976 0 is_stmt 0 discriminator 1
 3571 0104 BB7F     		ldrb	r3, [r7, #30]	@ zero_extendqisi2
ARM GAS  C:\Users\RECEPC~1\AppData\Local\Temp\ccQD6Oev.s 			page 81


 3572 0106 072B     		cmp	r3, #7
 3573 0108 E8D9     		bls	.L136
 978:.\PrimeImpl.c **** 
 979:.\PrimeImpl.c ****             ppump->_presetdone = true;
 3574              		.loc 1 979 0 is_stmt 1
 3575 010a BB69     		ldr	r3, [r7, #24]
 3576 010c 0122     		movs	r2, #1
 3577 010e 9A72     		strb	r2, [r3, #10]
 980:.\PrimeImpl.c **** 
 981:.\PrimeImpl.c ****             puartdisp->_messagetx[index++] = LRCn; //LRC next
 3578              		.loc 1 981 0
 3579 0110 FB7F     		ldrb	r3, [r7, #31]	@ zero_extendqisi2
 3580 0112 5A1C     		adds	r2, r3, #1
 3581 0114 FA77     		strb	r2, [r7, #31]
 3582 0116 1A46     		mov	r2, r3
 3583 0118 7B69     		ldr	r3, [r7, #20]
 3584 011a 1344     		add	r3, r3, r2
 3585 011c FB22     		movs	r2, #251
 3586 011e 1A71     		strb	r2, [r3, #4]
 982:.\PrimeImpl.c ****             puartdisp->_messagetx[index++] = GetLRC(puartdisp->_messagetx);
 3587              		.loc 1 982 0
 3588 0120 FB7F     		ldrb	r3, [r7, #31]	@ zero_extendqisi2
 3589 0122 5A1C     		adds	r2, r3, #1
 3590 0124 FA77     		strb	r2, [r7, #31]
 3591 0126 1C46     		mov	r4, r3
 3592 0128 7B69     		ldr	r3, [r7, #20]
 3593 012a 0433     		adds	r3, r3, #4
 3594 012c 1846     		mov	r0, r3
 3595 012e FFF7FEFF 		bl	GetLRC
 3596 0132 0346     		mov	r3, r0
 3597 0134 1A46     		mov	r2, r3
 3598 0136 7B69     		ldr	r3, [r7, #20]
 3599 0138 2344     		add	r3, r3, r4
 3600 013a 1A71     		strb	r2, [r3, #4]
 983:.\PrimeImpl.c ****             puartdisp->_messagetx[index++] = EOM;
 3601              		.loc 1 983 0
 3602 013c FB7F     		ldrb	r3, [r7, #31]	@ zero_extendqisi2
 3603 013e 5A1C     		adds	r2, r3, #1
 3604 0140 FA77     		strb	r2, [r7, #31]
 3605 0142 1A46     		mov	r2, r3
 3606 0144 7B69     		ldr	r3, [r7, #20]
 3607 0146 1344     		add	r3, r3, r2
 3608 0148 F022     		movs	r2, #240
 3609 014a 1A71     		strb	r2, [r3, #4]
 984:.\PrimeImpl.c **** ///////////////////////////////////////////////////////////////////////////////////////////////////
 985:.\PrimeImpl.c ****             
 986:.\PrimeImpl.c ****             puartdisp->_messagelength = index;
 3610              		.loc 1 986 0
 3611 014c FB7F     		ldrb	r3, [r7, #31]	@ zero_extendqisi2
 3612 014e 9AB2     		uxth	r2, r3
 3613 0150 7B69     		ldr	r3, [r7, #20]
 3614 0152 5A80     		strh	r2, [r3, #2]	@ movhi
 987:.\PrimeImpl.c ****             puartdisp->_messagestate = PENDING;
 3615              		.loc 1 987 0
 3616 0154 7B69     		ldr	r3, [r7, #20]
 3617 0156 C222     		movs	r2, #194
 3618 0158 1A70     		strb	r2, [r3]
ARM GAS  C:\Users\RECEPC~1\AppData\Local\Temp\ccQD6Oev.s 			page 82


 3619              	.L131:
 3620              	.LBE19:
 3621              	.LBE18:
 988:.\PrimeImpl.c ****         }
 989:.\PrimeImpl.c ****     }
 990:.\PrimeImpl.c ****     
 991:.\PrimeImpl.c **** }
 3622              		.loc 1 991 0
 3623 015a 2437     		adds	r7, r7, #36
 3624              		.cfi_def_cfa_offset 12
 3625 015c BD46     		mov	sp, r7
 3626              		.cfi_def_cfa_register 13
 3627              		@ sp needed
 3628 015e 90BD     		pop	{r4, r7, pc}
 3629              		.cfi_endproc
 3630              	.LFE84:
 3631              		.size	PumpCreditPresetHose, .-PumpCreditPresetHose
 3632              		.section	.text.PumpPresetNoHose,"ax",%progbits
 3633              		.align	2
 3634              		.global	PumpPresetNoHose
 3635              		.thumb
 3636              		.thumb_func
 3637              		.type	PumpPresetNoHose, %function
 3638              	PumpPresetNoHose:
 3639              	.LFB85:
 992:.\PrimeImpl.c **** 
 993:.\PrimeImpl.c **** //@Created By: HIJH
 994:.\PrimeImpl.c **** //@Septembre de 2016
 995:.\PrimeImpl.c **** ///////////////////////////////////////////////////////////////////////////////////////////////////
 996:.\PrimeImpl.c **** //Preset values will be placed within the SinkMessage's buffer. This is a convention that applies t
 997:.\PrimeImpl.c **** //all of the available transactions. The pump function must deal with this while it is assembling t
 998:.\PrimeImpl.c **** //For this message the data comes as follows:
 999:.\PrimeImpl.c **** // - First byte is the preset type (Volume:1 / Money:2 )
1000:.\PrimeImpl.c **** // - Block of 8 bytes for the preset value
1001:.\PrimeImpl.c **** //This block of data (10 bytes) must be moved to another position within the same buffer (even posi
1002:.\PrimeImpl.c **** void PumpPresetNoHose(void *pparam)
1003:.\PrimeImpl.c **** {
 3640              		.loc 1 1003 0
 3641              		.cfi_startproc
 3642              		@ args = 0, pretend = 0, frame = 32
 3643              		@ frame_needed = 1, uses_anonymous_args = 0
 3644 0000 90B5     		push	{r4, r7, lr}
 3645              		.cfi_def_cfa_offset 12
 3646              		.cfi_offset 4, -12
 3647              		.cfi_offset 7, -8
 3648              		.cfi_offset 14, -4
 3649 0002 89B0     		sub	sp, sp, #36
 3650              		.cfi_def_cfa_offset 48
 3651 0004 00AF     		add	r7, sp, #0
 3652              		.cfi_def_cfa_register 7
 3653 0006 7860     		str	r0, [r7, #4]
1004:.\PrimeImpl.c ****     PNEAR_PUMPPTR ppump = (PNEAR_PUMPPTR)pparam;
 3654              		.loc 1 1004 0
 3655 0008 7B68     		ldr	r3, [r7, #4]
 3656 000a BB61     		str	r3, [r7, #24]
1005:.\PrimeImpl.c ****     if(ppump)
 3657              		.loc 1 1005 0
ARM GAS  C:\Users\RECEPC~1\AppData\Local\Temp\ccQD6Oev.s 			page 83


 3658 000c BB69     		ldr	r3, [r7, #24]
 3659 000e 002B     		cmp	r3, #0
 3660 0010 00F09A80 		beq	.L137
 3661              	.LBB20:
1006:.\PrimeImpl.c ****     {
1007:.\PrimeImpl.c ****         uint8_t index = 0;
 3662              		.loc 1 1007 0
 3663 0014 0023     		movs	r3, #0
 3664 0016 FB77     		strb	r3, [r7, #31]
1008:.\PrimeImpl.c ****         memset(ppump->_rxbuffer, 0x00, _PUMP_RX_BUFFER_SIZE_);
 3665              		.loc 1 1008 0
 3666 0018 BB69     		ldr	r3, [r7, #24]
 3667 001a 03F5C473 		add	r3, r3, #392
 3668 001e 1846     		mov	r0, r3
 3669 0020 0021     		movs	r1, #0
 3670 0022 4FF4B472 		mov	r2, #360
 3671 0026 FFF7FEFF 		bl	memset
1009:.\PrimeImpl.c ****         PUARTMESSAGEPTR puartdisp = GetUARTMessageSlot(UART_DISPENSER);
 3672              		.loc 1 1009 0
 3673 002a A220     		movs	r0, #162
 3674 002c FFF7FEFF 		bl	GetUARTMessageSlot
 3675 0030 7861     		str	r0, [r7, #20]
1010:.\PrimeImpl.c ****         if(puartdisp)
 3676              		.loc 1 1010 0
 3677 0032 7B69     		ldr	r3, [r7, #20]
 3678 0034 002B     		cmp	r3, #0
 3679 0036 00F08780 		beq	.L137
 3680              	.LBB21:
1011:.\PrimeImpl.c ****         {
1012:.\PrimeImpl.c **** ///////////////////////////////////////////////////////////////////////////////////////////////////
1013:.\PrimeImpl.c ****             puartdisp->_messagetx[index++] = SOM;
 3681              		.loc 1 1013 0
 3682 003a FB7F     		ldrb	r3, [r7, #31]	@ zero_extendqisi2
 3683 003c 5A1C     		adds	r2, r3, #1
 3684 003e FA77     		strb	r2, [r7, #31]
 3685 0040 1A46     		mov	r2, r3
 3686 0042 7B69     		ldr	r3, [r7, #20]
 3687 0044 1344     		add	r3, r3, r2
 3688 0046 FF22     		movs	r2, #255
 3689 0048 1A71     		strb	r2, [r3, #4]
1014:.\PrimeImpl.c ****             puartdisp->_messagetx[index++] = 0xE3;
 3690              		.loc 1 1014 0
 3691 004a FB7F     		ldrb	r3, [r7, #31]	@ zero_extendqisi2
 3692 004c 5A1C     		adds	r2, r3, #1
 3693 004e FA77     		strb	r2, [r7, #31]
 3694 0050 1A46     		mov	r2, r3
 3695 0052 7B69     		ldr	r3, [r7, #20]
 3696 0054 1344     		add	r3, r3, r2
 3697 0056 E322     		movs	r2, #227
 3698 0058 1A71     		strb	r2, [r3, #4]
1015:.\PrimeImpl.c ****             ///THIS IS AN APPLIED CONVENTION ===>> 0x0004 INDEX POSITION WITHIN THE PUMP'S BUFFER P
1016:.\PrimeImpl.c ****             ///THESE CODES MUST BE MATCHED OTHERWISE THE LOGIC WILL BREAKUP THE CODE!
1017:.\PrimeImpl.c ****             uint8 transtype = (0xF0 | ((ppump->_trasactionbuffer[0x0004] == 0x0F)? 0x02: 0x01));//p
 3699              		.loc 1 1017 0
 3700 005a BB69     		ldr	r3, [r7, #24]
 3701 005c 93F82430 		ldrb	r3, [r3, #36]	@ zero_extendqisi2
 3702 0060 0F2B     		cmp	r3, #15
ARM GAS  C:\Users\RECEPC~1\AppData\Local\Temp\ccQD6Oev.s 			page 84


 3703 0062 01D1     		bne	.L139
 3704              		.loc 1 1017 0 is_stmt 0 discriminator 1
 3705 0064 F223     		movs	r3, #242
 3706 0066 00E0     		b	.L140
 3707              	.L139:
 3708              		.loc 1 1017 0 discriminator 2
 3709 0068 F123     		movs	r3, #241
 3710              	.L140:
 3711              		.loc 1 1017 0 discriminator 4
 3712 006a FB74     		strb	r3, [r7, #19]
1018:.\PrimeImpl.c ****             puartdisp->_messagetx[index++] = transtype;
 3713              		.loc 1 1018 0 is_stmt 1 discriminator 4
 3714 006c FB7F     		ldrb	r3, [r7, #31]	@ zero_extendqisi2
 3715 006e 5A1C     		adds	r2, r3, #1
 3716 0070 FA77     		strb	r2, [r7, #31]
 3717 0072 1A46     		mov	r2, r3
 3718 0074 7B69     		ldr	r3, [r7, #20]
 3719 0076 1344     		add	r3, r3, r2
 3720 0078 FA7C     		ldrb	r2, [r7, #19]
 3721 007a 1A71     		strb	r2, [r3, #4]
1019:.\PrimeImpl.c ****                         
1020:.\PrimeImpl.c ****             puartdisp->_messagetx[index++] = 0xF8; //Preset Data next
 3722              		.loc 1 1020 0 discriminator 4
 3723 007c FB7F     		ldrb	r3, [r7, #31]	@ zero_extendqisi2
 3724 007e 5A1C     		adds	r2, r3, #1
 3725 0080 FA77     		strb	r2, [r7, #31]
 3726 0082 1A46     		mov	r2, r3
 3727 0084 7B69     		ldr	r3, [r7, #20]
 3728 0086 1344     		add	r3, r3, r2
 3729 0088 F822     		movs	r2, #248
 3730 008a 1A71     		strb	r2, [r3, #4]
1021:.\PrimeImpl.c ****             //Here we copy the remaining 8 bytes for the preset value
1022:.\PrimeImpl.c ****             ///THIS IS AN APPLIED CONVENTION ===>> 0x0008 INDEX POSITION WITHIN THE PUMP'S BUFFER P
1023:.\PrimeImpl.c ****             ///THESE CODES MUST BE MATCHED OTHERWISE THE LOGIC WILL BREAKUP THE CODE!
1024:.\PrimeImpl.c ****             char8 *ptr = &ppump->_trasactionbuffer[0x0008];
 3731              		.loc 1 1024 0 discriminator 4
 3732 008c BB69     		ldr	r3, [r7, #24]
 3733 008e 2833     		adds	r3, r3, #40
 3734 0090 FB60     		str	r3, [r7, #12]
1025:.\PrimeImpl.c ****             if(!ppump->_presetdone)
 3735              		.loc 1 1025 0 discriminator 4
 3736 0092 BB69     		ldr	r3, [r7, #24]
 3737 0094 9B7A     		ldrb	r3, [r3, #10]
 3738 0096 DBB2     		uxtb	r3, r3
 3739 0098 83F00103 		eor	r3, r3, #1
 3740 009c DBB2     		uxtb	r3, r3
 3741 009e 002B     		cmp	r3, #0
 3742 00a0 0BD0     		beq	.L141
1026:.\PrimeImpl.c ****             {
1027:.\PrimeImpl.c ****                 if(transtype == 0xF1) //Volume PRESET, then multiply by 1000
 3743              		.loc 1 1027 0
 3744 00a2 FB7C     		ldrb	r3, [r7, #19]	@ zero_extendqisi2
 3745 00a4 F12B     		cmp	r3, #241
 3746 00a6 04D1     		bne	.L142
1028:.\PrimeImpl.c ****                     CastVolumeValue(ptr, 0x08);
 3747              		.loc 1 1028 0
 3748 00a8 F868     		ldr	r0, [r7, #12]
ARM GAS  C:\Users\RECEPC~1\AppData\Local\Temp\ccQD6Oev.s 			page 85


 3749 00aa 0821     		movs	r1, #8
 3750 00ac FFF7FEFF 		bl	CastVolumeValue
 3751 00b0 03E0     		b	.L141
 3752              	.L142:
1029:.\PrimeImpl.c ****                 else
1030:.\PrimeImpl.c ****                     CastMoneyValue(ptr, 0x08);
 3753              		.loc 1 1030 0
 3754 00b2 F868     		ldr	r0, [r7, #12]
 3755 00b4 0821     		movs	r1, #8
 3756 00b6 FFF7FEFF 		bl	CastMoneyValue
 3757              	.L141:
1031:.\PrimeImpl.c ****                     
1032:.\PrimeImpl.c ****             }
1033:.\PrimeImpl.c ****             ppump->_presetdone = true;
 3758              		.loc 1 1033 0
 3759 00ba BB69     		ldr	r3, [r7, #24]
 3760 00bc 0122     		movs	r2, #1
 3761 00be 9A72     		strb	r2, [r3, #10]
1034:.\PrimeImpl.c ****                 
1035:.\PrimeImpl.c ****             FOR(uint8 buffndx = 0, buffndx < 0x08, buffndx++)
 3762              		.loc 1 1035 0
 3763 00c0 0023     		movs	r3, #0
 3764 00c2 BB77     		strb	r3, [r7, #30]
 3765 00c4 18E0     		b	.L143
 3766              	.L144:
1036:.\PrimeImpl.c ****                 puartdisp->_messagetx[index++] = (0xE0 | (ptr[7 - buffndx] & 0x0F)); //Translate fr
 3767              		.loc 1 1036 0 discriminator 3
 3768 00c6 FB7F     		ldrb	r3, [r7, #31]	@ zero_extendqisi2
 3769 00c8 5A1C     		adds	r2, r3, #1
 3770 00ca FA77     		strb	r2, [r7, #31]
 3771 00cc 1946     		mov	r1, r3
 3772 00ce BB7F     		ldrb	r3, [r7, #30]	@ zero_extendqisi2
 3773 00d0 C3F10703 		rsb	r3, r3, #7
 3774 00d4 1A46     		mov	r2, r3
 3775 00d6 FB68     		ldr	r3, [r7, #12]
 3776 00d8 1344     		add	r3, r3, r2
 3777 00da 1B78     		ldrb	r3, [r3]	@ zero_extendqisi2
 3778 00dc DBB2     		uxtb	r3, r3
 3779 00de 03F00F03 		and	r3, r3, #15
 3780 00e2 DBB2     		uxtb	r3, r3
 3781 00e4 63F01F03 		orn	r3, r3, #31
 3782 00e8 DBB2     		uxtb	r3, r3
 3783 00ea DAB2     		uxtb	r2, r3
 3784 00ec 7B69     		ldr	r3, [r7, #20]
 3785 00ee 0B44     		add	r3, r3, r1
 3786 00f0 1A71     		strb	r2, [r3, #4]
1035:.\PrimeImpl.c ****                 puartdisp->_messagetx[index++] = (0xE0 | (ptr[7 - buffndx] & 0x0F)); //Translate fr
 3787              		.loc 1 1035 0 discriminator 3
 3788 00f2 BB7F     		ldrb	r3, [r7, #30]	@ zero_extendqisi2
 3789 00f4 0133     		adds	r3, r3, #1
 3790 00f6 BB77     		strb	r3, [r7, #30]
 3791              	.L143:
1035:.\PrimeImpl.c ****                 puartdisp->_messagetx[index++] = (0xE0 | (ptr[7 - buffndx] & 0x0F)); //Translate fr
 3792              		.loc 1 1035 0 is_stmt 0 discriminator 1
 3793 00f8 BB7F     		ldrb	r3, [r7, #30]	@ zero_extendqisi2
 3794 00fa 072B     		cmp	r3, #7
 3795 00fc E3D9     		bls	.L144
ARM GAS  C:\Users\RECEPC~1\AppData\Local\Temp\ccQD6Oev.s 			page 86


1037:.\PrimeImpl.c **** 
1038:.\PrimeImpl.c ****             puartdisp->_messagetx[index++] = LRCn; //LRC next
 3796              		.loc 1 1038 0 is_stmt 1
 3797 00fe FB7F     		ldrb	r3, [r7, #31]	@ zero_extendqisi2
 3798 0100 5A1C     		adds	r2, r3, #1
 3799 0102 FA77     		strb	r2, [r7, #31]
 3800 0104 1A46     		mov	r2, r3
 3801 0106 7B69     		ldr	r3, [r7, #20]
 3802 0108 1344     		add	r3, r3, r2
 3803 010a FB22     		movs	r2, #251
 3804 010c 1A71     		strb	r2, [r3, #4]
1039:.\PrimeImpl.c ****             puartdisp->_messagetx[index++] = GetLRC(puartdisp->_messagetx);
 3805              		.loc 1 1039 0
 3806 010e FB7F     		ldrb	r3, [r7, #31]	@ zero_extendqisi2
 3807 0110 5A1C     		adds	r2, r3, #1
 3808 0112 FA77     		strb	r2, [r7, #31]
 3809 0114 1C46     		mov	r4, r3
 3810 0116 7B69     		ldr	r3, [r7, #20]
 3811 0118 0433     		adds	r3, r3, #4
 3812 011a 1846     		mov	r0, r3
 3813 011c FFF7FEFF 		bl	GetLRC
 3814 0120 0346     		mov	r3, r0
 3815 0122 1A46     		mov	r2, r3
 3816 0124 7B69     		ldr	r3, [r7, #20]
 3817 0126 2344     		add	r3, r3, r4
 3818 0128 1A71     		strb	r2, [r3, #4]
1040:.\PrimeImpl.c ****             puartdisp->_messagetx[index++] = EOM;
 3819              		.loc 1 1040 0
 3820 012a FB7F     		ldrb	r3, [r7, #31]	@ zero_extendqisi2
 3821 012c 5A1C     		adds	r2, r3, #1
 3822 012e FA77     		strb	r2, [r7, #31]
 3823 0130 1A46     		mov	r2, r3
 3824 0132 7B69     		ldr	r3, [r7, #20]
 3825 0134 1344     		add	r3, r3, r2
 3826 0136 F022     		movs	r2, #240
 3827 0138 1A71     		strb	r2, [r3, #4]
1041:.\PrimeImpl.c **** ///////////////////////////////////////////////////////////////////////////////////////////////////
1042:.\PrimeImpl.c ****             
1043:.\PrimeImpl.c ****             puartdisp->_messagelength = index;
 3828              		.loc 1 1043 0
 3829 013a FB7F     		ldrb	r3, [r7, #31]	@ zero_extendqisi2
 3830 013c 9AB2     		uxth	r2, r3
 3831 013e 7B69     		ldr	r3, [r7, #20]
 3832 0140 5A80     		strh	r2, [r3, #2]	@ movhi
1044:.\PrimeImpl.c ****             puartdisp->_messagestate = PENDING;
 3833              		.loc 1 1044 0
 3834 0142 7B69     		ldr	r3, [r7, #20]
 3835 0144 C222     		movs	r2, #194
 3836 0146 1A70     		strb	r2, [r3]
 3837              	.L137:
 3838              	.LBE21:
 3839              	.LBE20:
1045:.\PrimeImpl.c ****         }
1046:.\PrimeImpl.c ****     }
1047:.\PrimeImpl.c ****     
1048:.\PrimeImpl.c **** }
 3840              		.loc 1 1048 0
ARM GAS  C:\Users\RECEPC~1\AppData\Local\Temp\ccQD6Oev.s 			page 87


 3841 0148 2437     		adds	r7, r7, #36
 3842              		.cfi_def_cfa_offset 12
 3843 014a BD46     		mov	sp, r7
 3844              		.cfi_def_cfa_register 13
 3845              		@ sp needed
 3846 014c 90BD     		pop	{r4, r7, pc}
 3847              		.cfi_endproc
 3848              	.LFE85:
 3849              		.size	PumpPresetNoHose, .-PumpPresetNoHose
 3850 014e 00BF     		.section	.text.PumpPresetNotification,"ax",%progbits
 3851              		.align	2
 3852              		.global	PumpPresetNotification
 3853              		.thumb
 3854              		.thumb_func
 3855              		.type	PumpPresetNotification, %function
 3856              	PumpPresetNotification:
 3857              	.LFB86:
1049:.\PrimeImpl.c **** 
1050:.\PrimeImpl.c **** //@Created By: HIJH
1051:.\PrimeImpl.c **** //@Septembre de 2016
1052:.\PrimeImpl.c **** //Message to be notified to the remote peer (NSX)
1053:.\PrimeImpl.c **** void PumpPresetNotification(LPVOID pparam)
1054:.\PrimeImpl.c **** {
 3858              		.loc 1 1054 0
 3859              		.cfi_startproc
 3860              		@ args = 0, pretend = 0, frame = 24
 3861              		@ frame_needed = 1, uses_anonymous_args = 0
 3862 0000 B0B5     		push	{r4, r5, r7, lr}
 3863              		.cfi_def_cfa_offset 16
 3864              		.cfi_offset 4, -16
 3865              		.cfi_offset 5, -12
 3866              		.cfi_offset 7, -8
 3867              		.cfi_offset 14, -4
 3868 0002 86B0     		sub	sp, sp, #24
 3869              		.cfi_def_cfa_offset 40
 3870 0004 00AF     		add	r7, sp, #0
 3871              		.cfi_def_cfa_register 7
 3872 0006 7860     		str	r0, [r7, #4]
1055:.\PrimeImpl.c ****     PPUMPTRANSACTIONJOBCONTEXTPTR pjob = (PPUMPTRANSACTIONJOBCONTEXTPTR)pparam;
 3873              		.loc 1 1055 0
 3874 0008 7B68     		ldr	r3, [r7, #4]
 3875 000a 7B61     		str	r3, [r7, #20]
1056:.\PrimeImpl.c ****     if(pjob)
 3876              		.loc 1 1056 0
 3877 000c 7B69     		ldr	r3, [r7, #20]
 3878 000e 002B     		cmp	r3, #0
 3879 0010 00F0CE80 		beq	.L145
 3880              	.LBB22:
1057:.\PrimeImpl.c ****     {
1058:.\PrimeImpl.c ****         //HERE WE ATTEMPT TO PUSH THE TRANSACTION INTO THE PUMP'S TRANSACTIONAL QUEUE.
1059:.\PrimeImpl.c ****         //THIS IS DONE ONLY IF THERE IS ROOM IN THE QUEUE, OTHERWISE THIS STATE WON'T
1060:.\PrimeImpl.c ****         //BE REPORTED TO THE REMOTE PEER.
1061:.\PrimeImpl.c ****         pjob->_ppump->PumpTransQueueLock(pjob->_ppump);
 3881              		.loc 1 1061 0
 3882 0014 7B69     		ldr	r3, [r7, #20]
 3883 0016 DB69     		ldr	r3, [r3, #28]
 3884 0018 D3F8143B 		ldr	r3, [r3, #2836]
ARM GAS  C:\Users\RECEPC~1\AppData\Local\Temp\ccQD6Oev.s 			page 88


 3885 001c 7A69     		ldr	r2, [r7, #20]
 3886 001e D269     		ldr	r2, [r2, #28]
 3887 0020 1046     		mov	r0, r2
 3888 0022 9847     		blx	r3
1062:.\PrimeImpl.c ****         PNEAR_PUMPTRANSACTIONALSTATEPTR pts = pjob->_ppump->PumpTransQueueAllocate(pjob->_ppump);
 3889              		.loc 1 1062 0
 3890 0024 7B69     		ldr	r3, [r7, #20]
 3891 0026 DB69     		ldr	r3, [r3, #28]
 3892 0028 D3F8283B 		ldr	r3, [r3, #2856]
 3893 002c 7A69     		ldr	r2, [r7, #20]
 3894 002e D269     		ldr	r2, [r2, #28]
 3895 0030 1046     		mov	r0, r2
 3896 0032 9847     		blx	r3
 3897 0034 3861     		str	r0, [r7, #16]
1063:.\PrimeImpl.c ****         pjob->_ppump->PumpTransQueueUnlock(pjob->_ppump);
 3898              		.loc 1 1063 0
 3899 0036 7B69     		ldr	r3, [r7, #20]
 3900 0038 DB69     		ldr	r3, [r3, #28]
 3901 003a D3F8183B 		ldr	r3, [r3, #2840]
 3902 003e 7A69     		ldr	r2, [r7, #20]
 3903 0040 D269     		ldr	r2, [r2, #28]
 3904 0042 1046     		mov	r0, r2
 3905 0044 9847     		blx	r3
1064:.\PrimeImpl.c ****         if(pts)
 3906              		.loc 1 1064 0
 3907 0046 3B69     		ldr	r3, [r7, #16]
 3908 0048 002B     		cmp	r3, #0
 3909 004a 00F0B180 		beq	.L145
 3910              	.LBB23:
1065:.\PrimeImpl.c ****         {
1066:.\PrimeImpl.c ****             uint8 index = 0;
 3911              		.loc 1 1066 0
 3912 004e 0023     		movs	r3, #0
 3913 0050 FB73     		strb	r3, [r7, #15]
1067:.\PrimeImpl.c ****             pts->_transtate = RF_MUX_CASH_SALE_START_REQUEST;
 3914              		.loc 1 1067 0
 3915 0052 3B69     		ldr	r3, [r7, #16]
 3916 0054 AA22     		movs	r2, #170
 3917 0056 5A70     		strb	r2, [r3, #1]
1068:.\PrimeImpl.c ****             //Pump ID always comes in position 0x00
1069:.\PrimeImpl.c ****             pts->_buffer[index++] = pjob->_ppump->_pumpid;
 3918              		.loc 1 1069 0
 3919 0058 FB7B     		ldrb	r3, [r7, #15]	@ zero_extendqisi2
 3920 005a 5A1C     		adds	r2, r3, #1
 3921 005c FA73     		strb	r2, [r7, #15]
 3922 005e 1946     		mov	r1, r3
 3923 0060 7B69     		ldr	r3, [r7, #20]
 3924 0062 DB69     		ldr	r3, [r3, #28]
 3925 0064 1A78     		ldrb	r2, [r3]	@ zero_extendqisi2
 3926 0066 3B69     		ldr	r3, [r7, #16]
 3927 0068 0B44     		add	r3, r3, r1
 3928 006a 9A70     		strb	r2, [r3, #2]
1070:.\PrimeImpl.c ****             //PRESET type
1071:.\PrimeImpl.c ****             pts->_buffer[index++] = (0xF0 | ((pjob->_ppump->_trasactionbuffer[0x0004] == 0x0F)? 0x0
 3929              		.loc 1 1071 0
 3930 006c FB7B     		ldrb	r3, [r7, #15]	@ zero_extendqisi2
 3931 006e 5A1C     		adds	r2, r3, #1
ARM GAS  C:\Users\RECEPC~1\AppData\Local\Temp\ccQD6Oev.s 			page 89


 3932 0070 FA73     		strb	r2, [r7, #15]
 3933 0072 1946     		mov	r1, r3
 3934 0074 7B69     		ldr	r3, [r7, #20]
 3935 0076 DB69     		ldr	r3, [r3, #28]
 3936 0078 93F82430 		ldrb	r3, [r3, #36]	@ zero_extendqisi2
 3937 007c 0F2B     		cmp	r3, #15
 3938 007e 01D1     		bne	.L147
 3939              		.loc 1 1071 0 is_stmt 0 discriminator 1
 3940 0080 F222     		movs	r2, #242
 3941 0082 00E0     		b	.L148
 3942              	.L147:
 3943              		.loc 1 1071 0 discriminator 2
 3944 0084 F122     		movs	r2, #241
 3945              	.L148:
 3946              		.loc 1 1071 0 discriminator 4
 3947 0086 3B69     		ldr	r3, [r7, #16]
 3948 0088 0B44     		add	r3, r3, r1
 3949 008a 9A70     		strb	r2, [r3, #2]
1072:.\PrimeImpl.c ****             
1073:.\PrimeImpl.c ****             //PRESET value (8 bytes)
1074:.\PrimeImpl.c ****             PSTRBUFFTOGG(PBYTECAST(&pjob->_ppump->_trasactionbuffer[0x0008]), 0x08);
 3950              		.loc 1 1074 0 is_stmt 1 discriminator 4
 3951 008c 7B69     		ldr	r3, [r7, #20]
 3952 008e DB69     		ldr	r3, [r3, #28]
 3953 0090 2833     		adds	r3, r3, #40
 3954 0092 1846     		mov	r0, r3
 3955 0094 0821     		movs	r1, #8
 3956 0096 FFF7FEFF 		bl	PSTRBUFFTOGG
1075:.\PrimeImpl.c ****             memcpy(&pts->_buffer[index], &pjob->_ppump->_trasactionbuffer[0x0008], 0x08);
 3957              		.loc 1 1075 0 discriminator 4
 3958 009a FB7B     		ldrb	r3, [r7, #15]	@ zero_extendqisi2
 3959 009c 3A69     		ldr	r2, [r7, #16]
 3960 009e 1344     		add	r3, r3, r2
 3961 00a0 9A1C     		adds	r2, r3, #2
 3962 00a2 7B69     		ldr	r3, [r7, #20]
 3963 00a4 DB69     		ldr	r3, [r3, #28]
 3964 00a6 2833     		adds	r3, r3, #40
 3965 00a8 1046     		mov	r0, r2
 3966 00aa 1946     		mov	r1, r3
 3967 00ac 0822     		movs	r2, #8
 3968 00ae FFF7FEFF 		bl	memcpy
1076:.\PrimeImpl.c ****             index += 0x08;
 3969              		.loc 1 1076 0 discriminator 4
 3970 00b2 FB7B     		ldrb	r3, [r7, #15]
 3971 00b4 0833     		adds	r3, r3, #8
 3972 00b6 FB73     		strb	r3, [r7, #15]
1077:.\PrimeImpl.c ****             //Car's Plate
1078:.\PrimeImpl.c ****             memcpy(&pts->_buffer[index], &pjob->_ppump->_trasactionbuffer[GetBufferIndexFromDisplay
 3973              		.loc 1 1078 0 discriminator 4
 3974 00b8 FB7B     		ldrb	r3, [r7, #15]	@ zero_extendqisi2
 3975 00ba 3A69     		ldr	r2, [r7, #16]
 3976 00bc 1344     		add	r3, r3, r2
 3977 00be 9D1C     		adds	r5, r3, #2
 3978 00c0 7B69     		ldr	r3, [r7, #20]
 3979 00c2 DC69     		ldr	r4, [r3, #28]
 3980 00c4 0A20     		movs	r0, #10
 3981 00c6 FFF7FEFF 		bl	GetBufferIndexFromDisplayID
ARM GAS  C:\Users\RECEPC~1\AppData\Local\Temp\ccQD6Oev.s 			page 90


 3982 00ca 0346     		mov	r3, r0
 3983 00cc 2033     		adds	r3, r3, #32
 3984 00ce 1C44     		add	r4, r4, r3
 3985 00d0 0A20     		movs	r0, #10
 3986 00d2 FFF7FEFF 		bl	GetBufferLengthFromDisplayID
 3987 00d6 0346     		mov	r3, r0
 3988 00d8 2846     		mov	r0, r5
 3989 00da 2146     		mov	r1, r4
 3990 00dc 1A46     		mov	r2, r3
 3991 00de FFF7FEFF 		bl	memcpy
1079:.\PrimeImpl.c ****             index += GetBufferLengthFromDisplayID(DISPLAY_DIGITE_PLACA);
 3992              		.loc 1 1079 0 discriminator 4
 3993 00e2 0A20     		movs	r0, #10
 3994 00e4 FFF7FEFF 		bl	GetBufferLengthFromDisplayID
 3995 00e8 0346     		mov	r3, r0
 3996 00ea 1A46     		mov	r2, r3
 3997 00ec FB7B     		ldrb	r3, [r7, #15]
 3998 00ee 1344     		add	r3, r3, r2
 3999 00f0 FB73     		strb	r3, [r7, #15]
1080:.\PrimeImpl.c ****             pts->_buffer[index] = index;
 4000              		.loc 1 1080 0 discriminator 4
 4001 00f2 FB7B     		ldrb	r3, [r7, #15]	@ zero_extendqisi2
 4002 00f4 3A69     		ldr	r2, [r7, #16]
 4003 00f6 1344     		add	r3, r3, r2
 4004 00f8 FA7B     		ldrb	r2, [r7, #15]
 4005 00fa 9A70     		strb	r2, [r3, #2]
1081:.\PrimeImpl.c ****             //Car's Milleage
1082:.\PrimeImpl.c ****             memcpy(&pts->_buffer[index], &pjob->_ppump->_trasactionbuffer[GetBufferIndexFromDisplay
 4006              		.loc 1 1082 0 discriminator 4
 4007 00fc FB7B     		ldrb	r3, [r7, #15]	@ zero_extendqisi2
 4008 00fe 3A69     		ldr	r2, [r7, #16]
 4009 0100 1344     		add	r3, r3, r2
 4010 0102 9D1C     		adds	r5, r3, #2
 4011 0104 7B69     		ldr	r3, [r7, #20]
 4012 0106 DC69     		ldr	r4, [r3, #28]
 4013 0108 0E20     		movs	r0, #14
 4014 010a FFF7FEFF 		bl	GetBufferIndexFromDisplayID
 4015 010e 0346     		mov	r3, r0
 4016 0110 2033     		adds	r3, r3, #32
 4017 0112 1C44     		add	r4, r4, r3
 4018 0114 0E20     		movs	r0, #14
 4019 0116 FFF7FEFF 		bl	GetBufferLengthFromDisplayID
 4020 011a 0346     		mov	r3, r0
 4021 011c 2846     		mov	r0, r5
 4022 011e 2146     		mov	r1, r4
 4023 0120 1A46     		mov	r2, r3
 4024 0122 FFF7FEFF 		bl	memcpy
1083:.\PrimeImpl.c ****             index += GetBufferLengthFromDisplayID(DISPLAY_INTRODUZCA_KILOMETRAJE);
 4025              		.loc 1 1083 0 discriminator 4
 4026 0126 0E20     		movs	r0, #14
 4027 0128 FFF7FEFF 		bl	GetBufferLengthFromDisplayID
 4028 012c 0346     		mov	r3, r0
 4029 012e 1A46     		mov	r2, r3
 4030 0130 FB7B     		ldrb	r3, [r7, #15]
 4031 0132 1344     		add	r3, r3, r2
 4032 0134 FB73     		strb	r3, [r7, #15]
1084:.\PrimeImpl.c ****             
ARM GAS  C:\Users\RECEPC~1\AppData\Local\Temp\ccQD6Oev.s 			page 91


1085:.\PrimeImpl.c ****             pts->_buffersize = index;
 4033              		.loc 1 1085 0 discriminator 4
 4034 0136 FB7B     		ldrb	r3, [r7, #15]	@ zero_extendqisi2
 4035 0138 9AB2     		uxth	r2, r3
 4036 013a 3B69     		ldr	r3, [r7, #16]
 4037 013c A3F80221 		strh	r2, [r3, #258]	@ movhi
1086:.\PrimeImpl.c ****             
1087:.\PrimeImpl.c ****             PNEAR_PUMPTRANSACTIONALSTATEPTR ptstemp = pjob->_ppump->PumpTransQueueAllocate(pjob->_p
 4038              		.loc 1 1087 0 discriminator 4
 4039 0140 7B69     		ldr	r3, [r7, #20]
 4040 0142 DB69     		ldr	r3, [r3, #28]
 4041 0144 D3F8283B 		ldr	r3, [r3, #2856]
 4042 0148 7A69     		ldr	r2, [r7, #20]
 4043 014a D269     		ldr	r2, [r2, #28]
 4044 014c 1046     		mov	r0, r2
 4045 014e 9847     		blx	r3
 4046 0150 B860     		str	r0, [r7, #8]
1088:.\PrimeImpl.c ****             if(ptstemp)
 4047              		.loc 1 1088 0 discriminator 4
 4048 0152 BB68     		ldr	r3, [r7, #8]
 4049 0154 002B     		cmp	r3, #0
 4050 0156 22D0     		beq	.L149
1089:.\PrimeImpl.c ****             {
1090:.\PrimeImpl.c ****                 pjob->_ppump->PumpTransQueueDeallocate(pjob->_ppump,ptstemp);
 4051              		.loc 1 1090 0
 4052 0158 7B69     		ldr	r3, [r7, #20]
 4053 015a DB69     		ldr	r3, [r3, #28]
 4054 015c D3F8243B 		ldr	r3, [r3, #2852]
 4055 0160 7A69     		ldr	r2, [r7, #20]
 4056 0162 D269     		ldr	r2, [r2, #28]
 4057 0164 1046     		mov	r0, r2
 4058 0166 B968     		ldr	r1, [r7, #8]
 4059 0168 9847     		blx	r3
1091:.\PrimeImpl.c ****                 pjob->_ppump->PumpTransQueueLock(pjob->_ppump);
 4060              		.loc 1 1091 0
 4061 016a 7B69     		ldr	r3, [r7, #20]
 4062 016c DB69     		ldr	r3, [r3, #28]
 4063 016e D3F8143B 		ldr	r3, [r3, #2836]
 4064 0172 7A69     		ldr	r2, [r7, #20]
 4065 0174 D269     		ldr	r2, [r2, #28]
 4066 0176 1046     		mov	r0, r2
 4067 0178 9847     		blx	r3
1092:.\PrimeImpl.c ****                 pjob->_ppump->PumpTransQueueEnqueue(pjob->_ppump, pts);
 4068              		.loc 1 1092 0
 4069 017a 7B69     		ldr	r3, [r7, #20]
 4070 017c DB69     		ldr	r3, [r3, #28]
 4071 017e D3F8203B 		ldr	r3, [r3, #2848]
 4072 0182 7A69     		ldr	r2, [r7, #20]
 4073 0184 D269     		ldr	r2, [r2, #28]
 4074 0186 1046     		mov	r0, r2
 4075 0188 3969     		ldr	r1, [r7, #16]
 4076 018a 9847     		blx	r3
1093:.\PrimeImpl.c ****                 pjob->_ppump->PumpTransQueueUnlock(pjob->_ppump);
 4077              		.loc 1 1093 0
 4078 018c 7B69     		ldr	r3, [r7, #20]
 4079 018e DB69     		ldr	r3, [r3, #28]
 4080 0190 D3F8183B 		ldr	r3, [r3, #2840]
ARM GAS  C:\Users\RECEPC~1\AppData\Local\Temp\ccQD6Oev.s 			page 92


 4081 0194 7A69     		ldr	r2, [r7, #20]
 4082 0196 D269     		ldr	r2, [r2, #28]
 4083 0198 1046     		mov	r0, r2
 4084 019a 9847     		blx	r3
 4085 019c 08E0     		b	.L145
 4086              	.L149:
1094:.\PrimeImpl.c ****             }else
1095:.\PrimeImpl.c ****                 pjob->_ppump->PumpTransQueueDeallocate(pjob->_ppump, pts);
 4087              		.loc 1 1095 0
 4088 019e 7B69     		ldr	r3, [r7, #20]
 4089 01a0 DB69     		ldr	r3, [r3, #28]
 4090 01a2 D3F8243B 		ldr	r3, [r3, #2852]
 4091 01a6 7A69     		ldr	r2, [r7, #20]
 4092 01a8 D269     		ldr	r2, [r2, #28]
 4093 01aa 1046     		mov	r0, r2
 4094 01ac 3969     		ldr	r1, [r7, #16]
 4095 01ae 9847     		blx	r3
 4096              	.L145:
 4097              	.LBE23:
 4098              	.LBE22:
1096:.\PrimeImpl.c ****         }
1097:.\PrimeImpl.c ****     }
1098:.\PrimeImpl.c **** }
 4099              		.loc 1 1098 0
 4100 01b0 1837     		adds	r7, r7, #24
 4101              		.cfi_def_cfa_offset 16
 4102 01b2 BD46     		mov	sp, r7
 4103              		.cfi_def_cfa_register 13
 4104              		@ sp needed
 4105 01b4 B0BD     		pop	{r4, r5, r7, pc}
 4106              		.cfi_endproc
 4107              	.LFE86:
 4108              		.size	PumpPresetNotification, .-PumpPresetNotification
 4109 01b6 00BF     		.section	.text.PumpCreditPresetNotification,"ax",%progbits
 4110              		.align	2
 4111              		.global	PumpCreditPresetNotification
 4112              		.thumb
 4113              		.thumb_func
 4114              		.type	PumpCreditPresetNotification, %function
 4115              	PumpCreditPresetNotification:
 4116              	.LFB87:
1099:.\PrimeImpl.c **** 
1100:.\PrimeImpl.c **** 
1101:.\PrimeImpl.c **** //@Created By: HIJH
1102:.\PrimeImpl.c **** //@Septembre de 2016
1103:.\PrimeImpl.c **** //Message to be notified to the remote peer (NSX)
1104:.\PrimeImpl.c **** void PumpCreditPresetNotification(LPVOID pparam)
1105:.\PrimeImpl.c **** {
 4117              		.loc 1 1105 0
 4118              		.cfi_startproc
 4119              		@ args = 0, pretend = 0, frame = 24
 4120              		@ frame_needed = 1, uses_anonymous_args = 0
 4121 0000 80B5     		push	{r7, lr}
 4122              		.cfi_def_cfa_offset 8
 4123              		.cfi_offset 7, -8
 4124              		.cfi_offset 14, -4
 4125 0002 86B0     		sub	sp, sp, #24
ARM GAS  C:\Users\RECEPC~1\AppData\Local\Temp\ccQD6Oev.s 			page 93


 4126              		.cfi_def_cfa_offset 32
 4127 0004 00AF     		add	r7, sp, #0
 4128              		.cfi_def_cfa_register 7
 4129 0006 7860     		str	r0, [r7, #4]
1106:.\PrimeImpl.c ****     PPUMPTRANSACTIONJOBCONTEXTPTR pjob = (PPUMPTRANSACTIONJOBCONTEXTPTR)pparam;
 4130              		.loc 1 1106 0
 4131 0008 7B68     		ldr	r3, [r7, #4]
 4132 000a 7B61     		str	r3, [r7, #20]
1107:.\PrimeImpl.c ****     if(pjob)
 4133              		.loc 1 1107 0
 4134 000c 7B69     		ldr	r3, [r7, #20]
 4135 000e 002B     		cmp	r3, #0
 4136 0010 67D0     		beq	.L150
 4137              	.LBB24:
1108:.\PrimeImpl.c ****     {
1109:.\PrimeImpl.c ****         //HERE WE ATTEMPT TO PUSH THE TRANSACTION INTO THE PUMP'S TRANSACTIONAL QUEUE.
1110:.\PrimeImpl.c ****         //THIS IS DONE ONLY IF THERE IS ROOM IN THE QUEUE, OTHERWISE THIS STATE WON'T
1111:.\PrimeImpl.c ****         //BE REPORTED TO THE REMOTE PEER.
1112:.\PrimeImpl.c ****         pjob->_ppump->PumpTransQueueLock(pjob->_ppump);
 4138              		.loc 1 1112 0
 4139 0012 7B69     		ldr	r3, [r7, #20]
 4140 0014 DB69     		ldr	r3, [r3, #28]
 4141 0016 D3F8143B 		ldr	r3, [r3, #2836]
 4142 001a 7A69     		ldr	r2, [r7, #20]
 4143 001c D269     		ldr	r2, [r2, #28]
 4144 001e 1046     		mov	r0, r2
 4145 0020 9847     		blx	r3
1113:.\PrimeImpl.c ****         PNEAR_PUMPTRANSACTIONALSTATEPTR pts = pjob->_ppump->PumpTransQueueAllocate(pjob->_ppump);
 4146              		.loc 1 1113 0
 4147 0022 7B69     		ldr	r3, [r7, #20]
 4148 0024 DB69     		ldr	r3, [r3, #28]
 4149 0026 D3F8283B 		ldr	r3, [r3, #2856]
 4150 002a 7A69     		ldr	r2, [r7, #20]
 4151 002c D269     		ldr	r2, [r2, #28]
 4152 002e 1046     		mov	r0, r2
 4153 0030 9847     		blx	r3
 4154 0032 3861     		str	r0, [r7, #16]
1114:.\PrimeImpl.c ****         pjob->_ppump->PumpTransQueueUnlock(pjob->_ppump);
 4155              		.loc 1 1114 0
 4156 0034 7B69     		ldr	r3, [r7, #20]
 4157 0036 DB69     		ldr	r3, [r3, #28]
 4158 0038 D3F8183B 		ldr	r3, [r3, #2840]
 4159 003c 7A69     		ldr	r2, [r7, #20]
 4160 003e D269     		ldr	r2, [r2, #28]
 4161 0040 1046     		mov	r0, r2
 4162 0042 9847     		blx	r3
1115:.\PrimeImpl.c ****         if(pts)
 4163              		.loc 1 1115 0
 4164 0044 3B69     		ldr	r3, [r7, #16]
 4165 0046 002B     		cmp	r3, #0
 4166 0048 4BD0     		beq	.L150
 4167              	.LBB25:
1116:.\PrimeImpl.c ****         {
1117:.\PrimeImpl.c ****             uint8 index = 0;
 4168              		.loc 1 1117 0
 4169 004a 0023     		movs	r3, #0
 4170 004c FB73     		strb	r3, [r7, #15]
ARM GAS  C:\Users\RECEPC~1\AppData\Local\Temp\ccQD6Oev.s 			page 94


1118:.\PrimeImpl.c ****             pts->_transtate = RF_MUX_CREDIT_PRESET_NOTIFICATION_REQUEST;
 4171              		.loc 1 1118 0
 4172 004e 3B69     		ldr	r3, [r7, #16]
 4173 0050 AE22     		movs	r2, #174
 4174 0052 5A70     		strb	r2, [r3, #1]
1119:.\PrimeImpl.c ****             //Pump ID always comes in position 0x00
1120:.\PrimeImpl.c ****             pts->_buffer[index++] = pjob->_ppump->_pumpid;
 4175              		.loc 1 1120 0
 4176 0054 FB7B     		ldrb	r3, [r7, #15]	@ zero_extendqisi2
 4177 0056 5A1C     		adds	r2, r3, #1
 4178 0058 FA73     		strb	r2, [r7, #15]
 4179 005a 1946     		mov	r1, r3
 4180 005c 7B69     		ldr	r3, [r7, #20]
 4181 005e DB69     		ldr	r3, [r3, #28]
 4182 0060 1A78     		ldrb	r2, [r3]	@ zero_extendqisi2
 4183 0062 3B69     		ldr	r3, [r7, #16]
 4184 0064 0B44     		add	r3, r3, r1
 4185 0066 9A70     		strb	r2, [r3, #2]
1121:.\PrimeImpl.c ****             pts->_buffersize = index;
 4186              		.loc 1 1121 0
 4187 0068 FB7B     		ldrb	r3, [r7, #15]	@ zero_extendqisi2
 4188 006a 9AB2     		uxth	r2, r3
 4189 006c 3B69     		ldr	r3, [r7, #16]
 4190 006e A3F80221 		strh	r2, [r3, #258]	@ movhi
1122:.\PrimeImpl.c ****             
1123:.\PrimeImpl.c ****             PNEAR_PUMPTRANSACTIONALSTATEPTR ptstemp = pjob->_ppump->PumpTransQueueAllocate(pjob->_p
 4191              		.loc 1 1123 0
 4192 0072 7B69     		ldr	r3, [r7, #20]
 4193 0074 DB69     		ldr	r3, [r3, #28]
 4194 0076 D3F8283B 		ldr	r3, [r3, #2856]
 4195 007a 7A69     		ldr	r2, [r7, #20]
 4196 007c D269     		ldr	r2, [r2, #28]
 4197 007e 1046     		mov	r0, r2
 4198 0080 9847     		blx	r3
 4199 0082 B860     		str	r0, [r7, #8]
1124:.\PrimeImpl.c ****             if(ptstemp)
 4200              		.loc 1 1124 0
 4201 0084 BB68     		ldr	r3, [r7, #8]
 4202 0086 002B     		cmp	r3, #0
 4203 0088 22D0     		beq	.L152
1125:.\PrimeImpl.c ****             {
1126:.\PrimeImpl.c ****                 pjob->_ppump->PumpTransQueueDeallocate(pjob->_ppump,ptstemp);
 4204              		.loc 1 1126 0
 4205 008a 7B69     		ldr	r3, [r7, #20]
 4206 008c DB69     		ldr	r3, [r3, #28]
 4207 008e D3F8243B 		ldr	r3, [r3, #2852]
 4208 0092 7A69     		ldr	r2, [r7, #20]
 4209 0094 D269     		ldr	r2, [r2, #28]
 4210 0096 1046     		mov	r0, r2
 4211 0098 B968     		ldr	r1, [r7, #8]
 4212 009a 9847     		blx	r3
1127:.\PrimeImpl.c ****                 pjob->_ppump->PumpTransQueueLock(pjob->_ppump);
 4213              		.loc 1 1127 0
 4214 009c 7B69     		ldr	r3, [r7, #20]
 4215 009e DB69     		ldr	r3, [r3, #28]
 4216 00a0 D3F8143B 		ldr	r3, [r3, #2836]
 4217 00a4 7A69     		ldr	r2, [r7, #20]
ARM GAS  C:\Users\RECEPC~1\AppData\Local\Temp\ccQD6Oev.s 			page 95


 4218 00a6 D269     		ldr	r2, [r2, #28]
 4219 00a8 1046     		mov	r0, r2
 4220 00aa 9847     		blx	r3
1128:.\PrimeImpl.c ****                 pjob->_ppump->PumpTransQueueEnqueue(pjob->_ppump, pts);
 4221              		.loc 1 1128 0
 4222 00ac 7B69     		ldr	r3, [r7, #20]
 4223 00ae DB69     		ldr	r3, [r3, #28]
 4224 00b0 D3F8203B 		ldr	r3, [r3, #2848]
 4225 00b4 7A69     		ldr	r2, [r7, #20]
 4226 00b6 D269     		ldr	r2, [r2, #28]
 4227 00b8 1046     		mov	r0, r2
 4228 00ba 3969     		ldr	r1, [r7, #16]
 4229 00bc 9847     		blx	r3
1129:.\PrimeImpl.c ****                 pjob->_ppump->PumpTransQueueUnlock(pjob->_ppump);
 4230              		.loc 1 1129 0
 4231 00be 7B69     		ldr	r3, [r7, #20]
 4232 00c0 DB69     		ldr	r3, [r3, #28]
 4233 00c2 D3F8183B 		ldr	r3, [r3, #2840]
 4234 00c6 7A69     		ldr	r2, [r7, #20]
 4235 00c8 D269     		ldr	r2, [r2, #28]
 4236 00ca 1046     		mov	r0, r2
 4237 00cc 9847     		blx	r3
 4238 00ce 08E0     		b	.L150
 4239              	.L152:
1130:.\PrimeImpl.c ****             }else
1131:.\PrimeImpl.c ****                 pjob->_ppump->PumpTransQueueDeallocate(pjob->_ppump, pts);
 4240              		.loc 1 1131 0
 4241 00d0 7B69     		ldr	r3, [r7, #20]
 4242 00d2 DB69     		ldr	r3, [r3, #28]
 4243 00d4 D3F8243B 		ldr	r3, [r3, #2852]
 4244 00d8 7A69     		ldr	r2, [r7, #20]
 4245 00da D269     		ldr	r2, [r2, #28]
 4246 00dc 1046     		mov	r0, r2
 4247 00de 3969     		ldr	r1, [r7, #16]
 4248 00e0 9847     		blx	r3
 4249              	.L150:
 4250              	.LBE25:
 4251              	.LBE24:
1132:.\PrimeImpl.c ****         }
1133:.\PrimeImpl.c ****     }
1134:.\PrimeImpl.c **** }
 4252              		.loc 1 1134 0
 4253 00e2 1837     		adds	r7, r7, #24
 4254              		.cfi_def_cfa_offset 8
 4255 00e4 BD46     		mov	sp, r7
 4256              		.cfi_def_cfa_register 13
 4257              		@ sp needed
 4258 00e6 80BD     		pop	{r7, pc}
 4259              		.cfi_endproc
 4260              	.LFE87:
 4261              		.size	PumpCreditPresetNotification, .-PumpCreditPresetNotification
 4262              		.section	.text.PumpFullPresetHose,"ax",%progbits
 4263              		.align	2
 4264              		.global	PumpFullPresetHose
 4265              		.thumb
 4266              		.thumb_func
 4267              		.type	PumpFullPresetHose, %function
ARM GAS  C:\Users\RECEPC~1\AppData\Local\Temp\ccQD6Oev.s 			page 96


 4268              	PumpFullPresetHose:
 4269              	.LFB88:
1135:.\PrimeImpl.c **** 
1136:.\PrimeImpl.c **** //@Created By: HIJH
1137:.\PrimeImpl.c **** //@Septembre de 2016
1138:.\PrimeImpl.c **** ///////////////////////////////////////////////////////////////////////////////////////////////////
1139:.\PrimeImpl.c **** //Preset values will be placed within the SinkMessage's buffer. This is a convention that applies t
1140:.\PrimeImpl.c **** //all of the available transactions. The pump function must deal with this while it is assembling t
1141:.\PrimeImpl.c **** //For this message the data comes as follows:
1142:.\PrimeImpl.c **** // - First byte is the preset type (Volume:1 / Money:2 )
1143:.\PrimeImpl.c **** // - Second byte is the Hose (A:0, B:1, C:2, D:3)
1144:.\PrimeImpl.c **** // - Block of 8 bytes for the preset value
1145:.\PrimeImpl.c **** //This block of data (10 bytes) must be moved to another position within the same buffer (even posi
1146:.\PrimeImpl.c **** void PumpFullPresetHose(void *pparam)
1147:.\PrimeImpl.c **** {
 4270              		.loc 1 1147 0
 4271              		.cfi_startproc
 4272              		@ args = 0, pretend = 0, frame = 32
 4273              		@ frame_needed = 1, uses_anonymous_args = 0
 4274 0000 90B5     		push	{r4, r7, lr}
 4275              		.cfi_def_cfa_offset 12
 4276              		.cfi_offset 4, -12
 4277              		.cfi_offset 7, -8
 4278              		.cfi_offset 14, -4
 4279 0002 89B0     		sub	sp, sp, #36
 4280              		.cfi_def_cfa_offset 48
 4281 0004 00AF     		add	r7, sp, #0
 4282              		.cfi_def_cfa_register 7
 4283 0006 7860     		str	r0, [r7, #4]
1148:.\PrimeImpl.c ****     PNEAR_PUMPPTR ppump = (PNEAR_PUMPPTR)pparam;
 4284              		.loc 1 1148 0
 4285 0008 7B68     		ldr	r3, [r7, #4]
 4286 000a BB61     		str	r3, [r7, #24]
1149:.\PrimeImpl.c ****     if(ppump)
 4287              		.loc 1 1149 0
 4288 000c BB69     		ldr	r3, [r7, #24]
 4289 000e 002B     		cmp	r3, #0
 4290 0010 00F0AC80 		beq	.L153
 4291              	.LBB26:
1150:.\PrimeImpl.c ****     {
1151:.\PrimeImpl.c ****         uint8_t index = 0;        
 4292              		.loc 1 1151 0
 4293 0014 0023     		movs	r3, #0
 4294 0016 FB77     		strb	r3, [r7, #31]
1152:.\PrimeImpl.c ****         PUARTMESSAGEPTR puartdisp = GetUARTMessageSlot(UART_DISPENSER);
 4295              		.loc 1 1152 0
 4296 0018 A220     		movs	r0, #162
 4297 001a FFF7FEFF 		bl	GetUARTMessageSlot
 4298 001e 7861     		str	r0, [r7, #20]
1153:.\PrimeImpl.c ****         memset(ppump->_rxbuffer, 0x00, _PUMP_RX_BUFFER_SIZE_);
 4299              		.loc 1 1153 0
 4300 0020 BB69     		ldr	r3, [r7, #24]
 4301 0022 03F5C473 		add	r3, r3, #392
 4302 0026 1846     		mov	r0, r3
 4303 0028 0021     		movs	r1, #0
 4304 002a 4FF4B472 		mov	r2, #360
 4305 002e FFF7FEFF 		bl	memset
ARM GAS  C:\Users\RECEPC~1\AppData\Local\Temp\ccQD6Oev.s 			page 97


1154:.\PrimeImpl.c ****         if(puartdisp)
 4306              		.loc 1 1154 0
 4307 0032 7B69     		ldr	r3, [r7, #20]
 4308 0034 002B     		cmp	r3, #0
 4309 0036 00F09980 		beq	.L153
 4310              	.LBB27:
1155:.\PrimeImpl.c ****         {
1156:.\PrimeImpl.c **** ///////////////////////////////////////////////////////////////////////////////////////////////////
1157:.\PrimeImpl.c ****             puartdisp->_messagetx[index++] = SOM;
 4311              		.loc 1 1157 0
 4312 003a FB7F     		ldrb	r3, [r7, #31]	@ zero_extendqisi2
 4313 003c 5A1C     		adds	r2, r3, #1
 4314 003e FA77     		strb	r2, [r7, #31]
 4315 0040 1A46     		mov	r2, r3
 4316 0042 7B69     		ldr	r3, [r7, #20]
 4317 0044 1344     		add	r3, r3, r2
 4318 0046 FF22     		movs	r2, #255
 4319 0048 1A71     		strb	r2, [r3, #4]
1158:.\PrimeImpl.c ****             
1159:.\PrimeImpl.c ****             #ifndef PRIME_CASH_SALE_NOHOSE
1160:.\PrimeImpl.c ****             puartdisp->_messagetx[index++] = 0xE1;
1161:.\PrimeImpl.c ****             #endif
1162:.\PrimeImpl.c ****             #ifdef PRIME_CASH_SALE_NOHOSE
1163:.\PrimeImpl.c ****             puartdisp->_messagetx[index++] = 0xE3;
 4320              		.loc 1 1163 0
 4321 004a FB7F     		ldrb	r3, [r7, #31]	@ zero_extendqisi2
 4322 004c 5A1C     		adds	r2, r3, #1
 4323 004e FA77     		strb	r2, [r7, #31]
 4324 0050 1A46     		mov	r2, r3
 4325 0052 7B69     		ldr	r3, [r7, #20]
 4326 0054 1344     		add	r3, r3, r2
 4327 0056 E322     		movs	r2, #227
 4328 0058 1A71     		strb	r2, [r3, #4]
1164:.\PrimeImpl.c ****             #endif
1165:.\PrimeImpl.c ****             
1166:.\PrimeImpl.c ****             ///THIS IS AN APPLIED CONVENTION ===>> 0x0004 INDEX POSITION WITHIN THE PUMP'S BUFFER P
1167:.\PrimeImpl.c ****             ///THESE CODES MUST BE MATCHED OTHERWISE THE LOGIC WILL BREAKUP THE CODE!
1168:.\PrimeImpl.c ****             uint8 transtype = 0xF1;
 4329              		.loc 1 1168 0
 4330 005a F123     		movs	r3, #241
 4331 005c FB74     		strb	r3, [r7, #19]
1169:.\PrimeImpl.c ****             puartdisp->_messagetx[index++] = transtype;//preset type (0xF2 = Money, 0xF1 = Volume)
 4332              		.loc 1 1169 0
 4333 005e FB7F     		ldrb	r3, [r7, #31]	@ zero_extendqisi2
 4334 0060 5A1C     		adds	r2, r3, #1
 4335 0062 FA77     		strb	r2, [r7, #31]
 4336 0064 1A46     		mov	r2, r3
 4337 0066 7B69     		ldr	r3, [r7, #20]
 4338 0068 1344     		add	r3, r3, r2
 4339 006a FA7C     		ldrb	r2, [r7, #19]
 4340 006c 1A71     		strb	r2, [r3, #4]
1170:.\PrimeImpl.c **** 
1171:.\PrimeImpl.c ****             #ifndef PRIME_CASH_SALE_NOHOSE
1172:.\PrimeImpl.c ****             puartdisp->_messagetx[index++] = 0xF6; //Hose Data next
1173:.\PrimeImpl.c ****             ///THIS IS AN APPLIED CONVENTION ===>> 0x0006 INDEX POSITION WITHIN THE PUMP'S BUFFER P
1174:.\PrimeImpl.c ****             ///THESE CODES MUST BE MATCHED OTHERWISE THE LOGIC WILL BREAKUP THE CODE!
1175:.\PrimeImpl.c ****             puartdisp->_messagetx[index++] = (0xE0 | (0x0F & ppump->_trasactionbuffer[GetBufferInde
ARM GAS  C:\Users\RECEPC~1\AppData\Local\Temp\ccQD6Oev.s 			page 98


1176:.\PrimeImpl.c ****             #endif
1177:.\PrimeImpl.c ****             
1178:.\PrimeImpl.c ****             puartdisp->_messagetx[index++] = 0xF8; //Preset Data next
 4341              		.loc 1 1178 0
 4342 006e FB7F     		ldrb	r3, [r7, #31]	@ zero_extendqisi2
 4343 0070 5A1C     		adds	r2, r3, #1
 4344 0072 FA77     		strb	r2, [r7, #31]
 4345 0074 1A46     		mov	r2, r3
 4346 0076 7B69     		ldr	r3, [r7, #20]
 4347 0078 1344     		add	r3, r3, r2
 4348 007a F822     		movs	r2, #248
 4349 007c 1A71     		strb	r2, [r3, #4]
1179:.\PrimeImpl.c ****             //Here we copy the remaining 8 bytes for the preset value
1180:.\PrimeImpl.c ****             ///THIS IS AN APPLIED CONVENTION ===>> 0x0008 INDEX POSITION WITHIN THE PUMP'S BUFFER P
1181:.\PrimeImpl.c ****             ///THESE CODES MUST BE MATCHED OTHERWISE THE LOGIC WILL BREAKUP THE CODE!
1182:.\PrimeImpl.c ****             char8 *ptr = &ppump->_trasactionbuffer[0x0008];
 4350              		.loc 1 1182 0
 4351 007e BB69     		ldr	r3, [r7, #24]
 4352 0080 2833     		adds	r3, r3, #40
 4353 0082 FB60     		str	r3, [r7, #12]
1183:.\PrimeImpl.c ****             if(_g_dispenserlayoutinfo._presetdigits & 0x01)
 4354              		.loc 1 1183 0
 4355 0084 3B4B     		ldr	r3, .L161
 4356 0086 5B7C     		ldrb	r3, [r3, #17]	@ zero_extendqisi2
 4357 0088 03F00103 		and	r3, r3, #1
 4358 008c 002B     		cmp	r3, #0
 4359 008e 07D0     		beq	.L155
1184:.\PrimeImpl.c ****                 B78AD90CF552D9B30A(_PUMP_MAXIMUM_PRESET_GALLONS_, (LPRAWPTR)ptr);
 4360              		.loc 1 1184 0
 4361 0090 40F28A20 		movw	r0, #650
 4362 0094 4FF00001 		mov	r1, #0
 4363 0098 FA68     		ldr	r2, [r7, #12]
 4364 009a FFF7FEFF 		bl	B78AD90CF552D9B30A
 4365 009e 06E0     		b	.L156
 4366              	.L155:
1185:.\PrimeImpl.c ****             else
1186:.\PrimeImpl.c ****                 B78AD90CF552D9B30A(_PUMP_MAXIMUM_PRESET_GALLONS_, (LPRAWPTR)ptr);
 4367              		.loc 1 1186 0
 4368 00a0 40F28A20 		movw	r0, #650
 4369 00a4 4FF00001 		mov	r1, #0
 4370 00a8 FA68     		ldr	r2, [r7, #12]
 4371 00aa FFF7FEFF 		bl	B78AD90CF552D9B30A
 4372              	.L156:
1187:.\PrimeImpl.c **** 
1188:.\PrimeImpl.c ****             PSTRBUFFTOGG(PBYTECAST(&ppump->_trasactionbuffer[0x0008]), 0x08);
 4373              		.loc 1 1188 0
 4374 00ae BB69     		ldr	r3, [r7, #24]
 4375 00b0 2833     		adds	r3, r3, #40
 4376 00b2 1846     		mov	r0, r3
 4377 00b4 0821     		movs	r1, #8
 4378 00b6 FFF7FEFF 		bl	PSTRBUFFTOGG
1189:.\PrimeImpl.c ****             //THIS IS ONLY FOR VOLUME PRESETS
1190:.\PrimeImpl.c ****             if(!ppump->_presetdone)
 4379              		.loc 1 1190 0
 4380 00ba BB69     		ldr	r3, [r7, #24]
 4381 00bc 9B7A     		ldrb	r3, [r3, #10]
 4382 00be DBB2     		uxtb	r3, r3
ARM GAS  C:\Users\RECEPC~1\AppData\Local\Temp\ccQD6Oev.s 			page 99


 4383 00c0 83F00103 		eor	r3, r3, #1
 4384 00c4 DBB2     		uxtb	r3, r3
 4385 00c6 002B     		cmp	r3, #0
 4386 00c8 0BD0     		beq	.L157
1191:.\PrimeImpl.c ****             {
1192:.\PrimeImpl.c ****                 if(transtype == 0xF1) //Volume PRESET, then multiply by 1000
 4387              		.loc 1 1192 0
 4388 00ca FB7C     		ldrb	r3, [r7, #19]	@ zero_extendqisi2
 4389 00cc F12B     		cmp	r3, #241
 4390 00ce 04D1     		bne	.L158
1193:.\PrimeImpl.c ****                     CastVolumeValue(ptr, 0x08);
 4391              		.loc 1 1193 0
 4392 00d0 F868     		ldr	r0, [r7, #12]
 4393 00d2 0821     		movs	r1, #8
 4394 00d4 FFF7FEFF 		bl	CastVolumeValue
 4395 00d8 03E0     		b	.L157
 4396              	.L158:
1194:.\PrimeImpl.c ****                 else
1195:.\PrimeImpl.c ****                     CastMoneyValue(ptr, 0x08);
 4397              		.loc 1 1195 0
 4398 00da F868     		ldr	r0, [r7, #12]
 4399 00dc 0821     		movs	r1, #8
 4400 00de FFF7FEFF 		bl	CastMoneyValue
 4401              	.L157:
1196:.\PrimeImpl.c ****                     
1197:.\PrimeImpl.c ****             }
1198:.\PrimeImpl.c ****                 
1199:.\PrimeImpl.c ****             FOR(uint8 buffndx = 0, buffndx < 8, buffndx++)
 4402              		.loc 1 1199 0
 4403 00e2 0023     		movs	r3, #0
 4404 00e4 BB77     		strb	r3, [r7, #30]
 4405 00e6 16E0     		b	.L159
 4406              	.L160:
1200:.\PrimeImpl.c ****                 puartdisp->_messagetx[index++] = (0xE0 | (0x0F & ptr[7 - buffndx])); //Translate fr
 4407              		.loc 1 1200 0 discriminator 3
 4408 00e8 FB7F     		ldrb	r3, [r7, #31]	@ zero_extendqisi2
 4409 00ea 5A1C     		adds	r2, r3, #1
 4410 00ec FA77     		strb	r2, [r7, #31]
 4411 00ee 1946     		mov	r1, r3
 4412 00f0 BB7F     		ldrb	r3, [r7, #30]	@ zero_extendqisi2
 4413 00f2 C3F10703 		rsb	r3, r3, #7
 4414 00f6 1A46     		mov	r2, r3
 4415 00f8 FB68     		ldr	r3, [r7, #12]
 4416 00fa 1344     		add	r3, r3, r2
 4417 00fc 1B78     		ldrb	r3, [r3]	@ zero_extendqisi2
 4418 00fe 03F00F03 		and	r3, r3, #15
 4419 0102 DBB2     		uxtb	r3, r3
 4420 0104 63F01F03 		orn	r3, r3, #31
 4421 0108 DAB2     		uxtb	r2, r3
 4422 010a 7B69     		ldr	r3, [r7, #20]
 4423 010c 0B44     		add	r3, r3, r1
 4424 010e 1A71     		strb	r2, [r3, #4]
1199:.\PrimeImpl.c ****                 puartdisp->_messagetx[index++] = (0xE0 | (0x0F & ptr[7 - buffndx])); //Translate fr
 4425              		.loc 1 1199 0 discriminator 3
 4426 0110 BB7F     		ldrb	r3, [r7, #30]	@ zero_extendqisi2
 4427 0112 0133     		adds	r3, r3, #1
 4428 0114 BB77     		strb	r3, [r7, #30]
ARM GAS  C:\Users\RECEPC~1\AppData\Local\Temp\ccQD6Oev.s 			page 100


 4429              	.L159:
1199:.\PrimeImpl.c ****                 puartdisp->_messagetx[index++] = (0xE0 | (0x0F & ptr[7 - buffndx])); //Translate fr
 4430              		.loc 1 1199 0 is_stmt 0 discriminator 1
 4431 0116 BB7F     		ldrb	r3, [r7, #30]	@ zero_extendqisi2
 4432 0118 072B     		cmp	r3, #7
 4433 011a E5D9     		bls	.L160
1201:.\PrimeImpl.c **** 
1202:.\PrimeImpl.c **** 
1203:.\PrimeImpl.c ****             ppump->_presetdone = true;
 4434              		.loc 1 1203 0 is_stmt 1
 4435 011c BB69     		ldr	r3, [r7, #24]
 4436 011e 0122     		movs	r2, #1
 4437 0120 9A72     		strb	r2, [r3, #10]
1204:.\PrimeImpl.c **** 
1205:.\PrimeImpl.c ****             puartdisp->_messagetx[index++] = LRCn; //LRC next
 4438              		.loc 1 1205 0
 4439 0122 FB7F     		ldrb	r3, [r7, #31]	@ zero_extendqisi2
 4440 0124 5A1C     		adds	r2, r3, #1
 4441 0126 FA77     		strb	r2, [r7, #31]
 4442 0128 1A46     		mov	r2, r3
 4443 012a 7B69     		ldr	r3, [r7, #20]
 4444 012c 1344     		add	r3, r3, r2
 4445 012e FB22     		movs	r2, #251
 4446 0130 1A71     		strb	r2, [r3, #4]
1206:.\PrimeImpl.c ****             puartdisp->_messagetx[index++] = GetLRC(puartdisp->_messagetx);
 4447              		.loc 1 1206 0
 4448 0132 FB7F     		ldrb	r3, [r7, #31]	@ zero_extendqisi2
 4449 0134 5A1C     		adds	r2, r3, #1
 4450 0136 FA77     		strb	r2, [r7, #31]
 4451 0138 1C46     		mov	r4, r3
 4452 013a 7B69     		ldr	r3, [r7, #20]
 4453 013c 0433     		adds	r3, r3, #4
 4454 013e 1846     		mov	r0, r3
 4455 0140 FFF7FEFF 		bl	GetLRC
 4456 0144 0346     		mov	r3, r0
 4457 0146 1A46     		mov	r2, r3
 4458 0148 7B69     		ldr	r3, [r7, #20]
 4459 014a 2344     		add	r3, r3, r4
 4460 014c 1A71     		strb	r2, [r3, #4]
1207:.\PrimeImpl.c ****             puartdisp->_messagetx[index++] = EOM;
 4461              		.loc 1 1207 0
 4462 014e FB7F     		ldrb	r3, [r7, #31]	@ zero_extendqisi2
 4463 0150 5A1C     		adds	r2, r3, #1
 4464 0152 FA77     		strb	r2, [r7, #31]
 4465 0154 1A46     		mov	r2, r3
 4466 0156 7B69     		ldr	r3, [r7, #20]
 4467 0158 1344     		add	r3, r3, r2
 4468 015a F022     		movs	r2, #240
 4469 015c 1A71     		strb	r2, [r3, #4]
1208:.\PrimeImpl.c **** ///////////////////////////////////////////////////////////////////////////////////////////////////
1209:.\PrimeImpl.c ****             
1210:.\PrimeImpl.c ****             puartdisp->_messagelength = index;
 4470              		.loc 1 1210 0
 4471 015e FB7F     		ldrb	r3, [r7, #31]	@ zero_extendqisi2
 4472 0160 9AB2     		uxth	r2, r3
 4473 0162 7B69     		ldr	r3, [r7, #20]
 4474 0164 5A80     		strh	r2, [r3, #2]	@ movhi
ARM GAS  C:\Users\RECEPC~1\AppData\Local\Temp\ccQD6Oev.s 			page 101


1211:.\PrimeImpl.c ****             puartdisp->_messagestate = PENDING;
 4475              		.loc 1 1211 0
 4476 0166 7B69     		ldr	r3, [r7, #20]
 4477 0168 C222     		movs	r2, #194
 4478 016a 1A70     		strb	r2, [r3]
 4479              	.L153:
 4480              	.LBE27:
 4481              	.LBE26:
1212:.\PrimeImpl.c ****         }
1213:.\PrimeImpl.c ****     }
1214:.\PrimeImpl.c ****     
1215:.\PrimeImpl.c **** }
 4482              		.loc 1 1215 0
 4483 016c 2437     		adds	r7, r7, #36
 4484              		.cfi_def_cfa_offset 12
 4485 016e BD46     		mov	sp, r7
 4486              		.cfi_def_cfa_register 13
 4487              		@ sp needed
 4488 0170 90BD     		pop	{r4, r7, pc}
 4489              	.L162:
 4490 0172 00BF     		.align	2
 4491              	.L161:
 4492 0174 00000000 		.word	_g_dispenserlayoutinfo
 4493              		.cfi_endproc
 4494              	.LFE88:
 4495              		.size	PumpFullPresetHose, .-PumpFullPresetHose
 4496              		.section	.text.PumpFullPresetNoHose,"ax",%progbits
 4497              		.align	2
 4498              		.global	PumpFullPresetNoHose
 4499              		.thumb
 4500              		.thumb_func
 4501              		.type	PumpFullPresetNoHose, %function
 4502              	PumpFullPresetNoHose:
 4503              	.LFB89:
1216:.\PrimeImpl.c **** 
1217:.\PrimeImpl.c **** //@Created By: HIJH
1218:.\PrimeImpl.c **** //@Septembre de 2016
1219:.\PrimeImpl.c **** ///////////////////////////////////////////////////////////////////////////////////////////////////
1220:.\PrimeImpl.c **** //Preset values will be placed within the SinkMessage's buffer. This is a convention that applies t
1221:.\PrimeImpl.c **** //all of the available transactions. The pump function must deal with this while it is assembling t
1222:.\PrimeImpl.c **** //For this message the data comes as follows:
1223:.\PrimeImpl.c **** // - First byte is the preset type (Volume:1 / Money:2 )
1224:.\PrimeImpl.c **** // - Second byte is the Hose (A:0, B:1, C:2, D:3)
1225:.\PrimeImpl.c **** // - Block of 8 bytes for the preset value
1226:.\PrimeImpl.c **** //This block of data (10 bytes) must be moved to another position within the same buffer (even posi
1227:.\PrimeImpl.c **** void PumpFullPresetNoHose(void *pparam)
1228:.\PrimeImpl.c **** {
 4504              		.loc 1 1228 0
 4505              		.cfi_startproc
 4506              		@ args = 0, pretend = 0, frame = 32
 4507              		@ frame_needed = 1, uses_anonymous_args = 0
 4508 0000 90B5     		push	{r4, r7, lr}
 4509              		.cfi_def_cfa_offset 12
 4510              		.cfi_offset 4, -12
 4511              		.cfi_offset 7, -8
 4512              		.cfi_offset 14, -4
 4513 0002 89B0     		sub	sp, sp, #36
ARM GAS  C:\Users\RECEPC~1\AppData\Local\Temp\ccQD6Oev.s 			page 102


 4514              		.cfi_def_cfa_offset 48
 4515 0004 00AF     		add	r7, sp, #0
 4516              		.cfi_def_cfa_register 7
 4517 0006 7860     		str	r0, [r7, #4]
1229:.\PrimeImpl.c ****     PNEAR_PUMPPTR ppump = (PNEAR_PUMPPTR)pparam;
 4518              		.loc 1 1229 0
 4519 0008 7B68     		ldr	r3, [r7, #4]
 4520 000a BB61     		str	r3, [r7, #24]
1230:.\PrimeImpl.c ****     if(ppump)
 4521              		.loc 1 1230 0
 4522 000c BB69     		ldr	r3, [r7, #24]
 4523 000e 002B     		cmp	r3, #0
 4524 0010 00F0B580 		beq	.L163
 4525              	.LBB28:
1231:.\PrimeImpl.c ****     {
1232:.\PrimeImpl.c ****         uint8_t index = 0;        
 4526              		.loc 1 1232 0
 4527 0014 0023     		movs	r3, #0
 4528 0016 FB77     		strb	r3, [r7, #31]
1233:.\PrimeImpl.c ****         PUARTMESSAGEPTR puartdisp = GetUARTMessageSlot(UART_DISPENSER);
 4529              		.loc 1 1233 0
 4530 0018 A220     		movs	r0, #162
 4531 001a FFF7FEFF 		bl	GetUARTMessageSlot
 4532 001e 7861     		str	r0, [r7, #20]
1234:.\PrimeImpl.c ****         memset(ppump->_rxbuffer, 0x00, _PUMP_RX_BUFFER_SIZE_);
 4533              		.loc 1 1234 0
 4534 0020 BB69     		ldr	r3, [r7, #24]
 4535 0022 03F5C473 		add	r3, r3, #392
 4536 0026 1846     		mov	r0, r3
 4537 0028 0021     		movs	r1, #0
 4538 002a 4FF4B472 		mov	r2, #360
 4539 002e FFF7FEFF 		bl	memset
1235:.\PrimeImpl.c ****         if(puartdisp)
 4540              		.loc 1 1235 0
 4541 0032 7B69     		ldr	r3, [r7, #20]
 4542 0034 002B     		cmp	r3, #0
 4543 0036 00F0A280 		beq	.L163
 4544              	.LBB29:
1236:.\PrimeImpl.c ****         {
1237:.\PrimeImpl.c ****             //This is required for the "Temination Handler" that will post the preset to the remote
1238:.\PrimeImpl.c ****             ppump->_trasactionbuffer[0x0004] = 0x0F;
 4545              		.loc 1 1238 0
 4546 003a BB69     		ldr	r3, [r7, #24]
 4547 003c 0F22     		movs	r2, #15
 4548 003e 83F82420 		strb	r2, [r3, #36]
1239:.\PrimeImpl.c **** ///////////////////////////////////////////////////////////////////////////////////////////////////
1240:.\PrimeImpl.c ****             puartdisp->_messagetx[index++] = SOM;
 4549              		.loc 1 1240 0
 4550 0042 FB7F     		ldrb	r3, [r7, #31]	@ zero_extendqisi2
 4551 0044 5A1C     		adds	r2, r3, #1
 4552 0046 FA77     		strb	r2, [r7, #31]
 4553 0048 1A46     		mov	r2, r3
 4554 004a 7B69     		ldr	r3, [r7, #20]
 4555 004c 1344     		add	r3, r3, r2
 4556 004e FF22     		movs	r2, #255
 4557 0050 1A71     		strb	r2, [r3, #4]
1241:.\PrimeImpl.c ****             puartdisp->_messagetx[index++] = 0xE3; //Data Length (n = 1 if F4/F5 is not included)
ARM GAS  C:\Users\RECEPC~1\AppData\Local\Temp\ccQD6Oev.s 			page 103


 4558              		.loc 1 1241 0
 4559 0052 FB7F     		ldrb	r3, [r7, #31]	@ zero_extendqisi2
 4560 0054 5A1C     		adds	r2, r3, #1
 4561 0056 FA77     		strb	r2, [r7, #31]
 4562 0058 1A46     		mov	r2, r3
 4563 005a 7B69     		ldr	r3, [r7, #20]
 4564 005c 1344     		add	r3, r3, r2
 4565 005e E322     		movs	r2, #227
 4566 0060 1A71     		strb	r2, [r3, #4]
1242:.\PrimeImpl.c ****             ///THIS IS AN APPLIED CONVENTION ===>> 0x0004 INDEX POSITION WITHIN THE PUMP'S BUFFER P
1243:.\PrimeImpl.c ****             ///THESE CODES MUST BE MATCHED OTHERWISE THE LOGIC WILL BREAKUP THE CODE!
1244:.\PrimeImpl.c ****             uint8 transtype = 0xF1;
 4567              		.loc 1 1244 0
 4568 0062 F123     		movs	r3, #241
 4569 0064 FB74     		strb	r3, [r7, #19]
1245:.\PrimeImpl.c ****             puartdisp->_messagetx[index++] = transtype;//preset type (0xF2 = Money, 0xF1 = Volume)
 4570              		.loc 1 1245 0
 4571 0066 FB7F     		ldrb	r3, [r7, #31]	@ zero_extendqisi2
 4572 0068 5A1C     		adds	r2, r3, #1
 4573 006a FA77     		strb	r2, [r7, #31]
 4574 006c 1A46     		mov	r2, r3
 4575 006e 7B69     		ldr	r3, [r7, #20]
 4576 0070 1344     		add	r3, r3, r2
 4577 0072 FA7C     		ldrb	r2, [r7, #19]
 4578 0074 1A71     		strb	r2, [r3, #4]
1246:.\PrimeImpl.c ****             //puartdisp->_messagetx[index++] = 0xF2;//preset type (0xF2 = Money, 0xF1 = Volume)
1247:.\PrimeImpl.c ****             
1248:.\PrimeImpl.c ****             puartdisp->_messagetx[index++] = 0xF8; //Preset Data next
 4579              		.loc 1 1248 0
 4580 0076 FB7F     		ldrb	r3, [r7, #31]	@ zero_extendqisi2
 4581 0078 5A1C     		adds	r2, r3, #1
 4582 007a FA77     		strb	r2, [r7, #31]
 4583 007c 1A46     		mov	r2, r3
 4584 007e 7B69     		ldr	r3, [r7, #20]
 4585 0080 1344     		add	r3, r3, r2
 4586 0082 F822     		movs	r2, #248
 4587 0084 1A71     		strb	r2, [r3, #4]
1249:.\PrimeImpl.c ****             //Here we copy the remaining 8 bytes for the preset value
1250:.\PrimeImpl.c ****             ///THIS IS AN APPLIED CONVENTION ===>> 0x0008 INDEX POSITION WITHIN THE PUMP'S BUFFER P
1251:.\PrimeImpl.c ****             ///THESE CODES MUST BE MATCHED OTHERWISE THE LOGIC WILL BREAKUP THE CODE!
1252:.\PrimeImpl.c ****             char8 *ptr = &ppump->_trasactionbuffer[0x0008];
 4588              		.loc 1 1252 0
 4589 0086 BB69     		ldr	r3, [r7, #24]
 4590 0088 2833     		adds	r3, r3, #40
 4591 008a FB60     		str	r3, [r7, #12]
1253:.\PrimeImpl.c ****             if(_g_dispenserlayoutinfo._presetdigits & 0x01)
 4592              		.loc 1 1253 0
 4593 008c 3D4B     		ldr	r3, .L171
 4594 008e 5B7C     		ldrb	r3, [r3, #17]	@ zero_extendqisi2
 4595 0090 03F00103 		and	r3, r3, #1
 4596 0094 002B     		cmp	r3, #0
 4597 0096 07D0     		beq	.L165
1254:.\PrimeImpl.c ****                 //B78AD90CF552D9B30A(_PUMP_MAXIMUM_PRESET_7_DIGITS_, (LPRAWPTR)ptr);
1255:.\PrimeImpl.c ****                 B78AD90CF552D9B30A(_PUMP_MAXIMUM_PRESET_GALLONS_, (LPRAWPTR)ptr);
 4598              		.loc 1 1255 0
 4599 0098 40F28A20 		movw	r0, #650
 4600 009c 4FF00001 		mov	r1, #0
ARM GAS  C:\Users\RECEPC~1\AppData\Local\Temp\ccQD6Oev.s 			page 104


 4601 00a0 FA68     		ldr	r2, [r7, #12]
 4602 00a2 FFF7FEFF 		bl	B78AD90CF552D9B30A
 4603 00a6 06E0     		b	.L166
 4604              	.L165:
1256:.\PrimeImpl.c ****             else
1257:.\PrimeImpl.c ****                 //B78AD90CF552D9B30A(_PUMP_MAXIMUM_PRESET_6_DIGITS_, (LPRAWPTR)ptr);
1258:.\PrimeImpl.c ****                 B78AD90CF552D9B30A(_PUMP_MAXIMUM_PRESET_GALLONS_, (LPRAWPTR)ptr);
 4605              		.loc 1 1258 0
 4606 00a8 40F28A20 		movw	r0, #650
 4607 00ac 4FF00001 		mov	r1, #0
 4608 00b0 FA68     		ldr	r2, [r7, #12]
 4609 00b2 FFF7FEFF 		bl	B78AD90CF552D9B30A
 4610              	.L166:
1259:.\PrimeImpl.c **** 
1260:.\PrimeImpl.c ****             PSTRBUFFTOGG(PBYTECAST(&ppump->_trasactionbuffer[0x0008]), 0x08);
 4611              		.loc 1 1260 0
 4612 00b6 BB69     		ldr	r3, [r7, #24]
 4613 00b8 2833     		adds	r3, r3, #40
 4614 00ba 1846     		mov	r0, r3
 4615 00bc 0821     		movs	r1, #8
 4616 00be FFF7FEFF 		bl	PSTRBUFFTOGG
1261:.\PrimeImpl.c ****             //THIS IS ONLY FOR VOLUME PRESETS
1262:.\PrimeImpl.c ****             if(!ppump->_presetdone)
 4617              		.loc 1 1262 0
 4618 00c2 BB69     		ldr	r3, [r7, #24]
 4619 00c4 9B7A     		ldrb	r3, [r3, #10]
 4620 00c6 DBB2     		uxtb	r3, r3
 4621 00c8 83F00103 		eor	r3, r3, #1
 4622 00cc DBB2     		uxtb	r3, r3
 4623 00ce 002B     		cmp	r3, #0
 4624 00d0 0BD0     		beq	.L167
1263:.\PrimeImpl.c ****             {
1264:.\PrimeImpl.c ****                 if(transtype == 0xF1) //Volume PRESET, then multiply by 1000
 4625              		.loc 1 1264 0
 4626 00d2 FB7C     		ldrb	r3, [r7, #19]	@ zero_extendqisi2
 4627 00d4 F12B     		cmp	r3, #241
 4628 00d6 04D1     		bne	.L168
1265:.\PrimeImpl.c ****                     CastVolumeValue(ptr, 0x08);
 4629              		.loc 1 1265 0
 4630 00d8 F868     		ldr	r0, [r7, #12]
 4631 00da 0821     		movs	r1, #8
 4632 00dc FFF7FEFF 		bl	CastVolumeValue
 4633 00e0 03E0     		b	.L167
 4634              	.L168:
1266:.\PrimeImpl.c ****                 else
1267:.\PrimeImpl.c ****                     CastMoneyValue(ptr, 0x08);
 4635              		.loc 1 1267 0
 4636 00e2 F868     		ldr	r0, [r7, #12]
 4637 00e4 0821     		movs	r1, #8
 4638 00e6 FFF7FEFF 		bl	CastMoneyValue
 4639              	.L167:
1268:.\PrimeImpl.c ****                     
1269:.\PrimeImpl.c ****             }
1270:.\PrimeImpl.c ****             ppump->_presetdone = true;
 4640              		.loc 1 1270 0
 4641 00ea BB69     		ldr	r3, [r7, #24]
 4642 00ec 0122     		movs	r2, #1
ARM GAS  C:\Users\RECEPC~1\AppData\Local\Temp\ccQD6Oev.s 			page 105


 4643 00ee 9A72     		strb	r2, [r3, #10]
1271:.\PrimeImpl.c **** 
1272:.\PrimeImpl.c ****             FOR(uint8 buffndx = 0, buffndx < 8, buffndx++)
 4644              		.loc 1 1272 0
 4645 00f0 0023     		movs	r3, #0
 4646 00f2 BB77     		strb	r3, [r7, #30]
 4647 00f4 18E0     		b	.L169
 4648              	.L170:
1273:.\PrimeImpl.c ****                 puartdisp->_messagetx[index++] = (0xE0 | (ptr[7 - buffndx] & 0x0F)); //Translate fr
 4649              		.loc 1 1273 0 discriminator 3
 4650 00f6 FB7F     		ldrb	r3, [r7, #31]	@ zero_extendqisi2
 4651 00f8 5A1C     		adds	r2, r3, #1
 4652 00fa FA77     		strb	r2, [r7, #31]
 4653 00fc 1946     		mov	r1, r3
 4654 00fe BB7F     		ldrb	r3, [r7, #30]	@ zero_extendqisi2
 4655 0100 C3F10703 		rsb	r3, r3, #7
 4656 0104 1A46     		mov	r2, r3
 4657 0106 FB68     		ldr	r3, [r7, #12]
 4658 0108 1344     		add	r3, r3, r2
 4659 010a 1B78     		ldrb	r3, [r3]	@ zero_extendqisi2
 4660 010c DBB2     		uxtb	r3, r3
 4661 010e 03F00F03 		and	r3, r3, #15
 4662 0112 DBB2     		uxtb	r3, r3
 4663 0114 63F01F03 		orn	r3, r3, #31
 4664 0118 DBB2     		uxtb	r3, r3
 4665 011a DAB2     		uxtb	r2, r3
 4666 011c 7B69     		ldr	r3, [r7, #20]
 4667 011e 0B44     		add	r3, r3, r1
 4668 0120 1A71     		strb	r2, [r3, #4]
1272:.\PrimeImpl.c ****                 puartdisp->_messagetx[index++] = (0xE0 | (ptr[7 - buffndx] & 0x0F)); //Translate fr
 4669              		.loc 1 1272 0 discriminator 3
 4670 0122 BB7F     		ldrb	r3, [r7, #30]	@ zero_extendqisi2
 4671 0124 0133     		adds	r3, r3, #1
 4672 0126 BB77     		strb	r3, [r7, #30]
 4673              	.L169:
1272:.\PrimeImpl.c ****                 puartdisp->_messagetx[index++] = (0xE0 | (ptr[7 - buffndx] & 0x0F)); //Translate fr
 4674              		.loc 1 1272 0 is_stmt 0 discriminator 1
 4675 0128 BB7F     		ldrb	r3, [r7, #30]	@ zero_extendqisi2
 4676 012a 072B     		cmp	r3, #7
 4677 012c E3D9     		bls	.L170
1274:.\PrimeImpl.c **** 
1275:.\PrimeImpl.c ****             ppump->_presetdone = true;
 4678              		.loc 1 1275 0 is_stmt 1
 4679 012e BB69     		ldr	r3, [r7, #24]
 4680 0130 0122     		movs	r2, #1
 4681 0132 9A72     		strb	r2, [r3, #10]
1276:.\PrimeImpl.c **** 
1277:.\PrimeImpl.c ****             puartdisp->_messagetx[index++] = 0xFB; //LRC next
 4682              		.loc 1 1277 0
 4683 0134 FB7F     		ldrb	r3, [r7, #31]	@ zero_extendqisi2
 4684 0136 5A1C     		adds	r2, r3, #1
 4685 0138 FA77     		strb	r2, [r7, #31]
 4686 013a 1A46     		mov	r2, r3
 4687 013c 7B69     		ldr	r3, [r7, #20]
 4688 013e 1344     		add	r3, r3, r2
 4689 0140 FB22     		movs	r2, #251
 4690 0142 1A71     		strb	r2, [r3, #4]
ARM GAS  C:\Users\RECEPC~1\AppData\Local\Temp\ccQD6Oev.s 			page 106


1278:.\PrimeImpl.c ****             puartdisp->_messagetx[index++] = GetLRC(puartdisp->_messagetx);
 4691              		.loc 1 1278 0
 4692 0144 FB7F     		ldrb	r3, [r7, #31]	@ zero_extendqisi2
 4693 0146 5A1C     		adds	r2, r3, #1
 4694 0148 FA77     		strb	r2, [r7, #31]
 4695 014a 1C46     		mov	r4, r3
 4696 014c 7B69     		ldr	r3, [r7, #20]
 4697 014e 0433     		adds	r3, r3, #4
 4698 0150 1846     		mov	r0, r3
 4699 0152 FFF7FEFF 		bl	GetLRC
 4700 0156 0346     		mov	r3, r0
 4701 0158 1A46     		mov	r2, r3
 4702 015a 7B69     		ldr	r3, [r7, #20]
 4703 015c 2344     		add	r3, r3, r4
 4704 015e 1A71     		strb	r2, [r3, #4]
1279:.\PrimeImpl.c ****             puartdisp->_messagetx[index++] = EOM;
 4705              		.loc 1 1279 0
 4706 0160 FB7F     		ldrb	r3, [r7, #31]	@ zero_extendqisi2
 4707 0162 5A1C     		adds	r2, r3, #1
 4708 0164 FA77     		strb	r2, [r7, #31]
 4709 0166 1A46     		mov	r2, r3
 4710 0168 7B69     		ldr	r3, [r7, #20]
 4711 016a 1344     		add	r3, r3, r2
 4712 016c F022     		movs	r2, #240
 4713 016e 1A71     		strb	r2, [r3, #4]
1280:.\PrimeImpl.c **** ///////////////////////////////////////////////////////////////////////////////////////////////////
1281:.\PrimeImpl.c ****             
1282:.\PrimeImpl.c ****             puartdisp->_messagelength = index;
 4714              		.loc 1 1282 0
 4715 0170 FB7F     		ldrb	r3, [r7, #31]	@ zero_extendqisi2
 4716 0172 9AB2     		uxth	r2, r3
 4717 0174 7B69     		ldr	r3, [r7, #20]
 4718 0176 5A80     		strh	r2, [r3, #2]	@ movhi
1283:.\PrimeImpl.c ****             puartdisp->_messagestate = PENDING;
 4719              		.loc 1 1283 0
 4720 0178 7B69     		ldr	r3, [r7, #20]
 4721 017a C222     		movs	r2, #194
 4722 017c 1A70     		strb	r2, [r3]
 4723              	.L163:
 4724              	.LBE29:
 4725              	.LBE28:
1284:.\PrimeImpl.c ****         }
1285:.\PrimeImpl.c ****     }
1286:.\PrimeImpl.c ****     
1287:.\PrimeImpl.c **** }
 4726              		.loc 1 1287 0
 4727 017e 2437     		adds	r7, r7, #36
 4728              		.cfi_def_cfa_offset 12
 4729 0180 BD46     		mov	sp, r7
 4730              		.cfi_def_cfa_register 13
 4731              		@ sp needed
 4732 0182 90BD     		pop	{r4, r7, pc}
 4733              	.L172:
 4734              		.align	2
 4735              	.L171:
 4736 0184 00000000 		.word	_g_dispenserlayoutinfo
 4737              		.cfi_endproc
ARM GAS  C:\Users\RECEPC~1\AppData\Local\Temp\ccQD6Oev.s 			page 107


 4738              	.LFE89:
 4739              		.size	PumpFullPresetNoHose, .-PumpFullPresetNoHose
 4740              		.section	.text.PumpPpuChange,"ax",%progbits
 4741              		.align	2
 4742              		.global	PumpPpuChange
 4743              		.thumb
 4744              		.thumb_func
 4745              		.type	PumpPpuChange, %function
 4746              	PumpPpuChange:
 4747              	.LFB90:
1288:.\PrimeImpl.c **** 
1289:.\PrimeImpl.c **** //@Created By: HIJH
1290:.\PrimeImpl.c **** //@Septembre de 2016
1291:.\PrimeImpl.c **** ///////////////////////////////////////////////////////////////////////////////////////////////////
1292:.\PrimeImpl.c **** //PPU value will be placed within the SinkMessage's buffer. This is a convention that applies to 
1293:.\PrimeImpl.c **** //all of the available transactions. The pump function must deal with this while it is assembling t
1294:.\PrimeImpl.c **** //For this message the data comes as follows:
1295:.\PrimeImpl.c **** // - First byte is the Hose (A:0, B:1, C:2, D:3)
1296:.\PrimeImpl.c **** // - Block of 6 bytes for the PPU value
1297:.\PrimeImpl.c **** //This block of data (6 bytes) must be moved to another position within the same buffer (even posit
1298:.\PrimeImpl.c **** void PumpPpuChange(void *pparam)
1299:.\PrimeImpl.c **** {
 4748              		.loc 1 1299 0
 4749              		.cfi_startproc
 4750              		@ args = 0, pretend = 0, frame = 32
 4751              		@ frame_needed = 1, uses_anonymous_args = 0
 4752 0000 B0B5     		push	{r4, r5, r7, lr}
 4753              		.cfi_def_cfa_offset 16
 4754              		.cfi_offset 4, -16
 4755              		.cfi_offset 5, -12
 4756              		.cfi_offset 7, -8
 4757              		.cfi_offset 14, -4
 4758 0002 88B0     		sub	sp, sp, #32
 4759              		.cfi_def_cfa_offset 48
 4760 0004 00AF     		add	r7, sp, #0
 4761              		.cfi_def_cfa_register 7
 4762 0006 7860     		str	r0, [r7, #4]
1300:.\PrimeImpl.c ****     PNEAR_PUMPPTR ppump = (PNEAR_PUMPPTR)pparam;
 4763              		.loc 1 1300 0
 4764 0008 7B68     		ldr	r3, [r7, #4]
 4765 000a BB61     		str	r3, [r7, #24]
1301:.\PrimeImpl.c ****     if(ppump)
 4766              		.loc 1 1301 0
 4767 000c BB69     		ldr	r3, [r7, #24]
 4768 000e 002B     		cmp	r3, #0
 4769 0010 00F02281 		beq	.L173
 4770              	.LBB30:
1302:.\PrimeImpl.c ****     {
1303:.\PrimeImpl.c ****         uint8_t index = 0;  
 4771              		.loc 1 1303 0
 4772 0014 0023     		movs	r3, #0
 4773 0016 FB77     		strb	r3, [r7, #31]
1304:.\PrimeImpl.c ****         memset(ppump->_rxbuffer, 0x00, _PUMP_RX_BUFFER_SIZE_);
 4774              		.loc 1 1304 0
 4775 0018 BB69     		ldr	r3, [r7, #24]
 4776 001a 03F5C473 		add	r3, r3, #392
 4777 001e 1846     		mov	r0, r3
ARM GAS  C:\Users\RECEPC~1\AppData\Local\Temp\ccQD6Oev.s 			page 108


 4778 0020 0021     		movs	r1, #0
 4779 0022 4FF4B472 		mov	r2, #360
 4780 0026 FFF7FEFF 		bl	memset
1305:.\PrimeImpl.c ****         PUARTMESSAGEPTR puartdisp = GetUARTMessageSlot(UART_DISPENSER);
 4781              		.loc 1 1305 0
 4782 002a A220     		movs	r0, #162
 4783 002c FFF7FEFF 		bl	GetUARTMessageSlot
 4784 0030 7861     		str	r0, [r7, #20]
1306:.\PrimeImpl.c ****         if(puartdisp)
 4785              		.loc 1 1306 0
 4786 0032 7B69     		ldr	r3, [r7, #20]
 4787 0034 002B     		cmp	r3, #0
 4788 0036 00F00F81 		beq	.L173
 4789              	.LBB31:
1307:.\PrimeImpl.c ****         {
1308:.\PrimeImpl.c **** ///////////////////////////////////////////////////////////////////////////////////////////////////
1309:.\PrimeImpl.c ****             puartdisp->_messagetx[index++] = SOM;
 4790              		.loc 1 1309 0
 4791 003a FB7F     		ldrb	r3, [r7, #31]	@ zero_extendqisi2
 4792 003c 5A1C     		adds	r2, r3, #1
 4793 003e FA77     		strb	r2, [r7, #31]
 4794 0040 1A46     		mov	r2, r3
 4795 0042 7B69     		ldr	r3, [r7, #20]
 4796 0044 1344     		add	r3, r3, r2
 4797 0046 FF22     		movs	r2, #255
 4798 0048 1A71     		strb	r2, [r3, #4]
1310:.\PrimeImpl.c ****             puartdisp->_messagetx[index++] = 0xE3; //Not used. The Pump will ignore.
 4799              		.loc 1 1310 0
 4800 004a FB7F     		ldrb	r3, [r7, #31]	@ zero_extendqisi2
 4801 004c 5A1C     		adds	r2, r3, #1
 4802 004e FA77     		strb	r2, [r7, #31]
 4803 0050 1A46     		mov	r2, r3
 4804 0052 7B69     		ldr	r3, [r7, #20]
 4805 0054 1344     		add	r3, r3, r2
 4806 0056 E322     		movs	r2, #227
 4807 0058 1A71     		strb	r2, [r3, #4]
1311:.\PrimeImpl.c ****             puartdisp->_messagetx[index++] = 0xF4; //Not used. The Pump will ignore.
 4808              		.loc 1 1311 0
 4809 005a FB7F     		ldrb	r3, [r7, #31]	@ zero_extendqisi2
 4810 005c 5A1C     		adds	r2, r3, #1
 4811 005e FA77     		strb	r2, [r7, #31]
 4812 0060 1A46     		mov	r2, r3
 4813 0062 7B69     		ldr	r3, [r7, #20]
 4814 0064 1344     		add	r3, r3, r2
 4815 0066 F422     		movs	r2, #244
 4816 0068 1A71     		strb	r2, [r3, #4]
1312:.\PrimeImpl.c ****             puartdisp->_messagetx[index++] = 0xF6; //Hose Data next
 4817              		.loc 1 1312 0
 4818 006a FB7F     		ldrb	r3, [r7, #31]	@ zero_extendqisi2
 4819 006c 5A1C     		adds	r2, r3, #1
 4820 006e FA77     		strb	r2, [r7, #31]
 4821 0070 1A46     		mov	r2, r3
 4822 0072 7B69     		ldr	r3, [r7, #20]
 4823 0074 1344     		add	r3, r3, r2
 4824 0076 F622     		movs	r2, #246
 4825 0078 1A71     		strb	r2, [r3, #4]
1313:.\PrimeImpl.c ****             
ARM GAS  C:\Users\RECEPC~1\AppData\Local\Temp\ccQD6Oev.s 			page 109


1314:.\PrimeImpl.c ****             ///THIS IS AN APPLIED CONVENTION ===>> 0x0006 INDEX POSITION WITHIN THE PUMP'S BUFFER P
1315:.\PrimeImpl.c ****             ///THESE CODES MUST BE MATCHED OTHERWISE THE LOGIC WILL BREAKUP THE CODE!
1316:.\PrimeImpl.c ****             puartdisp->_messagetx[index++] = (0xE0 | (0x0F & ppump->_currenthose));
 4826              		.loc 1 1316 0
 4827 007a FB7F     		ldrb	r3, [r7, #31]	@ zero_extendqisi2
 4828 007c 5A1C     		adds	r2, r3, #1
 4829 007e FA77     		strb	r2, [r7, #31]
 4830 0080 1946     		mov	r1, r3
 4831 0082 BB69     		ldr	r3, [r7, #24]
 4832 0084 DB78     		ldrb	r3, [r3, #3]
 4833 0086 DBB2     		uxtb	r3, r3
 4834 0088 03F00F03 		and	r3, r3, #15
 4835 008c DBB2     		uxtb	r3, r3
 4836 008e 63F01F03 		orn	r3, r3, #31
 4837 0092 DAB2     		uxtb	r2, r3
 4838 0094 7B69     		ldr	r3, [r7, #20]
 4839 0096 0B44     		add	r3, r3, r1
 4840 0098 1A71     		strb	r2, [r3, #4]
1317:.\PrimeImpl.c ****             
1318:.\PrimeImpl.c ****             I2CBusLock();
 4841              		.loc 1 1318 0
 4842 009a FFF7FEFF 		bl	I2CBusLock
1319:.\PrimeImpl.c ****             ClearEepromBuffer();
 4843              		.loc 1 1319 0
 4844 009e FFF7FEFF 		bl	ClearEepromBuffer
1320:.\PrimeImpl.c ****             uint16 eeprompage = DispenserGetEepromPPUPageFromPumpID(ppump->_pumpid);
 4845              		.loc 1 1320 0
 4846 00a2 BB69     		ldr	r3, [r7, #24]
 4847 00a4 1B78     		ldrb	r3, [r3]	@ zero_extendqisi2
 4848 00a6 1846     		mov	r0, r3
 4849 00a8 FFF7FEFF 		bl	DispenserGetEepromPPUPageFromPumpID
 4850 00ac 0346     		mov	r3, r0
 4851 00ae 7B82     		strh	r3, [r7, #18]	@ movhi
1321:.\PrimeImpl.c ****             LoadEepromPage(eeprompage);
 4852              		.loc 1 1321 0
 4853 00b0 7B8A     		ldrh	r3, [r7, #18]
 4854 00b2 1846     		mov	r0, r3
 4855 00b4 FFF7FEFF 		bl	LoadEepromPage
1322:.\PrimeImpl.c ****             switch(ppump->_currenthose)
 4856              		.loc 1 1322 0
 4857 00b8 BB69     		ldr	r3, [r7, #24]
 4858 00ba DB78     		ldrb	r3, [r3, #3]
 4859 00bc DBB2     		uxtb	r3, r3
 4860 00be 032B     		cmp	r3, #3
 4861 00c0 60D8     		bhi	.L175
 4862 00c2 01A2     		adr	r2, .L177
 4863 00c4 52F823F0 		ldr	pc, [r2, r3, lsl #2]
 4864              		.p2align 2
 4865              	.L177:
 4866 00c8 D9000000 		.word	.L176+1
 4867 00cc 01010000 		.word	.L178+1
 4868 00d0 2D010000 		.word	.L179+1
 4869 00d4 59010000 		.word	.L180+1
 4870              		.p2align 1
 4871              	.L176:
1323:.\PrimeImpl.c ****             {
1324:.\PrimeImpl.c ****                 case 0x00:
ARM GAS  C:\Users\RECEPC~1\AppData\Local\Temp\ccQD6Oev.s 			page 110


1325:.\PrimeImpl.c ****                 //Six bytes only since the PPU is constrained to this length
1326:.\PrimeImpl.c ****                 memcpy(PBYTECAST(&ppump->_trasactionbuffer[GetBufferIndexFromDisplayID(DISPLAY_PREC
 4872              		.loc 1 1326 0
 4873 00d8 6520     		movs	r0, #101
 4874 00da FFF7FEFF 		bl	GetBufferIndexFromDisplayID
 4875 00de 0346     		mov	r3, r0
 4876 00e0 2033     		adds	r3, r3, #32
 4877 00e2 BA69     		ldr	r2, [r7, #24]
 4878 00e4 D418     		adds	r4, r2, r3
 4879 00e6 FFF7FEFF 		bl	GetEepromBuffer
 4880 00ea 0546     		mov	r5, r0
 4881 00ec 6520     		movs	r0, #101
 4882 00ee FFF7FEFF 		bl	GetBufferLengthFromDisplayID
 4883 00f2 0346     		mov	r3, r0
 4884 00f4 2046     		mov	r0, r4
 4885 00f6 2946     		mov	r1, r5
 4886 00f8 1A46     		mov	r2, r3
 4887 00fa FFF7FEFF 		bl	memcpy
1327:.\PrimeImpl.c ****                 break;
 4888              		.loc 1 1327 0
 4889 00fe 41E0     		b	.L175
 4890              	.L178:
1328:.\PrimeImpl.c ****                 case 0x01:
1329:.\PrimeImpl.c ****                 //Six bytes only since the PPU is constrained to this length
1330:.\PrimeImpl.c ****                 memcpy(PBYTECAST(&ppump->_trasactionbuffer[GetBufferIndexFromDisplayID(DISPLAY_PREC
 4891              		.loc 1 1330 0
 4892 0100 6520     		movs	r0, #101
 4893 0102 FFF7FEFF 		bl	GetBufferIndexFromDisplayID
 4894 0106 0346     		mov	r3, r0
 4895 0108 2033     		adds	r3, r3, #32
 4896 010a BA69     		ldr	r2, [r7, #24]
 4897 010c D518     		adds	r5, r2, r3
 4898 010e FFF7FEFF 		bl	GetEepromBuffer
 4899 0112 0346     		mov	r3, r0
 4900 0114 03F11004 		add	r4, r3, #16
 4901 0118 6520     		movs	r0, #101
 4902 011a FFF7FEFF 		bl	GetBufferLengthFromDisplayID
 4903 011e 0346     		mov	r3, r0
 4904 0120 2846     		mov	r0, r5
 4905 0122 2146     		mov	r1, r4
 4906 0124 1A46     		mov	r2, r3
 4907 0126 FFF7FEFF 		bl	memcpy
1331:.\PrimeImpl.c ****                 break;
 4908              		.loc 1 1331 0
 4909 012a 2BE0     		b	.L175
 4910              	.L179:
1332:.\PrimeImpl.c ****                 case 0x02:
1333:.\PrimeImpl.c ****                 //Six bytes only since the PPU is constrained to this length
1334:.\PrimeImpl.c ****                 memcpy(PBYTECAST(&ppump->_trasactionbuffer[GetBufferIndexFromDisplayID(DISPLAY_PREC
 4911              		.loc 1 1334 0
 4912 012c 6520     		movs	r0, #101
 4913 012e FFF7FEFF 		bl	GetBufferIndexFromDisplayID
 4914 0132 0346     		mov	r3, r0
 4915 0134 2033     		adds	r3, r3, #32
 4916 0136 BA69     		ldr	r2, [r7, #24]
 4917 0138 D518     		adds	r5, r2, r3
 4918 013a FFF7FEFF 		bl	GetEepromBuffer
ARM GAS  C:\Users\RECEPC~1\AppData\Local\Temp\ccQD6Oev.s 			page 111


 4919 013e 0346     		mov	r3, r0
 4920 0140 03F12004 		add	r4, r3, #32
 4921 0144 6520     		movs	r0, #101
 4922 0146 FFF7FEFF 		bl	GetBufferLengthFromDisplayID
 4923 014a 0346     		mov	r3, r0
 4924 014c 2846     		mov	r0, r5
 4925 014e 2146     		mov	r1, r4
 4926 0150 1A46     		mov	r2, r3
 4927 0152 FFF7FEFF 		bl	memcpy
1335:.\PrimeImpl.c ****                 break;
 4928              		.loc 1 1335 0
 4929 0156 15E0     		b	.L175
 4930              	.L180:
1336:.\PrimeImpl.c ****                 case 0x03:
1337:.\PrimeImpl.c ****                 //Six bytes only since the PPU is constrained to this length
1338:.\PrimeImpl.c ****                 memcpy(PBYTECAST(&ppump->_trasactionbuffer[GetBufferIndexFromDisplayID(DISPLAY_PREC
 4931              		.loc 1 1338 0
 4932 0158 6520     		movs	r0, #101
 4933 015a FFF7FEFF 		bl	GetBufferIndexFromDisplayID
 4934 015e 0346     		mov	r3, r0
 4935 0160 2033     		adds	r3, r3, #32
 4936 0162 BA69     		ldr	r2, [r7, #24]
 4937 0164 D518     		adds	r5, r2, r3
 4938 0166 FFF7FEFF 		bl	GetEepromBuffer
 4939 016a 0346     		mov	r3, r0
 4940 016c 03F13004 		add	r4, r3, #48
 4941 0170 6520     		movs	r0, #101
 4942 0172 FFF7FEFF 		bl	GetBufferLengthFromDisplayID
 4943 0176 0346     		mov	r3, r0
 4944 0178 2846     		mov	r0, r5
 4945 017a 2146     		mov	r1, r4
 4946 017c 1A46     		mov	r2, r3
 4947 017e FFF7FEFF 		bl	memcpy
1339:.\PrimeImpl.c ****                 break;
 4948              		.loc 1 1339 0
 4949 0182 00BF     		nop
 4950              	.L175:
1340:.\PrimeImpl.c ****             }
1341:.\PrimeImpl.c ****             I2CBusUnlock();
 4951              		.loc 1 1341 0
 4952 0184 FFF7FEFF 		bl	I2CBusUnlock
1342:.\PrimeImpl.c **** 
1343:.\PrimeImpl.c ****             puartdisp->_messagetx[index++] = 0xF7; //PPU Data next            
 4953              		.loc 1 1343 0
 4954 0188 FB7F     		ldrb	r3, [r7, #31]	@ zero_extendqisi2
 4955 018a 5A1C     		adds	r2, r3, #1
 4956 018c FA77     		strb	r2, [r7, #31]
 4957 018e 1A46     		mov	r2, r3
 4958 0190 7B69     		ldr	r3, [r7, #20]
 4959 0192 1344     		add	r3, r3, r2
 4960 0194 F722     		movs	r2, #247
 4961 0196 1A71     		strb	r2, [r3, #4]
1344:.\PrimeImpl.c ****             //Here we copy the remaining 6 bytes for the preset value
1345:.\PrimeImpl.c ****             ///THIS IS AN APPLIED CONVENTION ===>> 0x0008 INDEX POSITION WITHIN THE PUMP'S BUFFER P
1346:.\PrimeImpl.c ****             ///THESE CODES MUST BE MATCHED OTHERWISE THE LOGIC WILL BREAKUP THE CODE!
1347:.\PrimeImpl.c ****             uint8 bufferlength = GetBufferLengthFromDisplayID(DISPLAY_PRECIO_POR_UNIDAD);
 4962              		.loc 1 1347 0
ARM GAS  C:\Users\RECEPC~1\AppData\Local\Temp\ccQD6Oev.s 			page 112


 4963 0198 6520     		movs	r0, #101
 4964 019a FFF7FEFF 		bl	GetBufferLengthFromDisplayID
 4965 019e 0346     		mov	r3, r0
 4966 01a0 7B74     		strb	r3, [r7, #17]
1348:.\PrimeImpl.c ****             char8 *ptr = &ppump->_trasactionbuffer[GetBufferIndexFromDisplayID(DISPLAY_PRECIO_POR_U
 4967              		.loc 1 1348 0
 4968 01a2 6520     		movs	r0, #101
 4969 01a4 FFF7FEFF 		bl	GetBufferIndexFromDisplayID
 4970 01a8 0346     		mov	r3, r0
 4971 01aa 2033     		adds	r3, r3, #32
 4972 01ac BA69     		ldr	r2, [r7, #24]
 4973 01ae 1344     		add	r3, r3, r2
 4974 01b0 FB60     		str	r3, [r7, #12]
1349:.\PrimeImpl.c ****             uint8 buffndx = 0;
 4975              		.loc 1 1349 0
 4976 01b2 0023     		movs	r3, #0
 4977 01b4 BB77     		strb	r3, [r7, #30]
1350:.\PrimeImpl.c ****             for(; buffndx < 6; buffndx++)
 4978              		.loc 1 1350 0
 4979 01b6 13E0     		b	.L181
 4980              	.L182:
1351:.\PrimeImpl.c ****                 puartdisp->_messagetx[index++] = (0xE0 | (0x0F & ptr[buffndx])); //Translate from A
 4981              		.loc 1 1351 0 discriminator 2
 4982 01b8 FB7F     		ldrb	r3, [r7, #31]	@ zero_extendqisi2
 4983 01ba 5A1C     		adds	r2, r3, #1
 4984 01bc FA77     		strb	r2, [r7, #31]
 4985 01be 1946     		mov	r1, r3
 4986 01c0 BB7F     		ldrb	r3, [r7, #30]	@ zero_extendqisi2
 4987 01c2 FA68     		ldr	r2, [r7, #12]
 4988 01c4 1344     		add	r3, r3, r2
 4989 01c6 1B78     		ldrb	r3, [r3]	@ zero_extendqisi2
 4990 01c8 03F00F03 		and	r3, r3, #15
 4991 01cc DBB2     		uxtb	r3, r3
 4992 01ce 63F01F03 		orn	r3, r3, #31
 4993 01d2 DAB2     		uxtb	r2, r3
 4994 01d4 7B69     		ldr	r3, [r7, #20]
 4995 01d6 0B44     		add	r3, r3, r1
 4996 01d8 1A71     		strb	r2, [r3, #4]
1350:.\PrimeImpl.c ****             for(; buffndx < 6; buffndx++)
 4997              		.loc 1 1350 0 discriminator 2
 4998 01da BB7F     		ldrb	r3, [r7, #30]	@ zero_extendqisi2
 4999 01dc 0133     		adds	r3, r3, #1
 5000 01de BB77     		strb	r3, [r7, #30]
 5001              	.L181:
1350:.\PrimeImpl.c ****             for(; buffndx < 6; buffndx++)
 5002              		.loc 1 1350 0 is_stmt 0 discriminator 1
 5003 01e0 BB7F     		ldrb	r3, [r7, #30]	@ zero_extendqisi2
 5004 01e2 052B     		cmp	r3, #5
 5005 01e4 E8D9     		bls	.L182
1352:.\PrimeImpl.c **** 
1353:.\PrimeImpl.c ****             memset(&ppump->_trasactionbuffer[GetBufferIndexFromDisplayID(DISPLAY_PRECIO_POR_UNIDAD)
 5006              		.loc 1 1353 0 is_stmt 1
 5007 01e6 6520     		movs	r0, #101
 5008 01e8 FFF7FEFF 		bl	GetBufferIndexFromDisplayID
 5009 01ec 0346     		mov	r3, r0
 5010 01ee 2033     		adds	r3, r3, #32
 5011 01f0 BA69     		ldr	r2, [r7, #24]
ARM GAS  C:\Users\RECEPC~1\AppData\Local\Temp\ccQD6Oev.s 			page 113


 5012 01f2 1A44     		add	r2, r2, r3
 5013 01f4 7B7C     		ldrb	r3, [r7, #17]	@ zero_extendqisi2
 5014 01f6 1046     		mov	r0, r2
 5015 01f8 0021     		movs	r1, #0
 5016 01fa 1A46     		mov	r2, r3
 5017 01fc FFF7FEFF 		bl	memset
1354:.\PrimeImpl.c ****             puartdisp->_messagetx[index++] = 0xFB; //LRC next
 5018              		.loc 1 1354 0
 5019 0200 FB7F     		ldrb	r3, [r7, #31]	@ zero_extendqisi2
 5020 0202 5A1C     		adds	r2, r3, #1
 5021 0204 FA77     		strb	r2, [r7, #31]
 5022 0206 1A46     		mov	r2, r3
 5023 0208 7B69     		ldr	r3, [r7, #20]
 5024 020a 1344     		add	r3, r3, r2
 5025 020c FB22     		movs	r2, #251
 5026 020e 1A71     		strb	r2, [r3, #4]
1355:.\PrimeImpl.c ****             puartdisp->_messagetx[index++] = GetLRC(puartdisp->_messagetx);
 5027              		.loc 1 1355 0
 5028 0210 FB7F     		ldrb	r3, [r7, #31]	@ zero_extendqisi2
 5029 0212 5A1C     		adds	r2, r3, #1
 5030 0214 FA77     		strb	r2, [r7, #31]
 5031 0216 1C46     		mov	r4, r3
 5032 0218 7B69     		ldr	r3, [r7, #20]
 5033 021a 0433     		adds	r3, r3, #4
 5034 021c 1846     		mov	r0, r3
 5035 021e FFF7FEFF 		bl	GetLRC
 5036 0222 0346     		mov	r3, r0
 5037 0224 1A46     		mov	r2, r3
 5038 0226 7B69     		ldr	r3, [r7, #20]
 5039 0228 2344     		add	r3, r3, r4
 5040 022a 1A71     		strb	r2, [r3, #4]
1356:.\PrimeImpl.c ****             puartdisp->_messagetx[index++] = EOM;
 5041              		.loc 1 1356 0
 5042 022c FB7F     		ldrb	r3, [r7, #31]	@ zero_extendqisi2
 5043 022e 5A1C     		adds	r2, r3, #1
 5044 0230 FA77     		strb	r2, [r7, #31]
 5045 0232 1A46     		mov	r2, r3
 5046 0234 7B69     		ldr	r3, [r7, #20]
 5047 0236 1344     		add	r3, r3, r2
 5048 0238 F022     		movs	r2, #240
 5049 023a 1A71     		strb	r2, [r3, #4]
1357:.\PrimeImpl.c **** ///////////////////////////////////////////////////////////////////////////////////////////////////
1358:.\PrimeImpl.c ****             
1359:.\PrimeImpl.c ****             puartdisp->_messagelength = index;
 5050              		.loc 1 1359 0
 5051 023c FB7F     		ldrb	r3, [r7, #31]	@ zero_extendqisi2
 5052 023e 9AB2     		uxth	r2, r3
 5053 0240 7B69     		ldr	r3, [r7, #20]
 5054 0242 5A80     		strh	r2, [r3, #2]	@ movhi
1360:.\PrimeImpl.c ****             puartdisp->_messagestate = PENDING;
 5055              		.loc 1 1360 0
 5056 0244 7B69     		ldr	r3, [r7, #20]
 5057 0246 C222     		movs	r2, #194
 5058 0248 1A70     		strb	r2, [r3]
1361:.\PrimeImpl.c ****             
1362:.\PrimeImpl.c ****             ppump->_currenthose++;
 5059              		.loc 1 1362 0
ARM GAS  C:\Users\RECEPC~1\AppData\Local\Temp\ccQD6Oev.s 			page 114


 5060 024a BB69     		ldr	r3, [r7, #24]
 5061 024c DB78     		ldrb	r3, [r3, #3]
 5062 024e DBB2     		uxtb	r3, r3
 5063 0250 0133     		adds	r3, r3, #1
 5064 0252 DAB2     		uxtb	r2, r3
 5065 0254 BB69     		ldr	r3, [r7, #24]
 5066 0256 DA70     		strb	r2, [r3, #3]
 5067              	.L173:
 5068              	.LBE31:
 5069              	.LBE30:
1363:.\PrimeImpl.c ****         }
1364:.\PrimeImpl.c ****     }    
1365:.\PrimeImpl.c **** }
 5070              		.loc 1 1365 0
 5071 0258 2037     		adds	r7, r7, #32
 5072              		.cfi_def_cfa_offset 16
 5073 025a BD46     		mov	sp, r7
 5074              		.cfi_def_cfa_register 13
 5075              		@ sp needed
 5076 025c B0BD     		pop	{r4, r5, r7, pc}
 5077              		.cfi_endproc
 5078              	.LFE90:
 5079              		.size	PumpPpuChange, .-PumpPpuChange
 5080 025e 00BF     		.section	.text.PumpDefault2CreditPpuChange,"ax",%progbits
 5081              		.align	2
 5082              		.global	PumpDefault2CreditPpuChange
 5083              		.thumb
 5084              		.thumb_func
 5085              		.type	PumpDefault2CreditPpuChange, %function
 5086              	PumpDefault2CreditPpuChange:
 5087              	.LFB91:
1366:.\PrimeImpl.c **** 
1367:.\PrimeImpl.c **** void PumpDefault2CreditPpuChange(void *pparam)
1368:.\PrimeImpl.c **** {
 5088              		.loc 1 1368 0
 5089              		.cfi_startproc
 5090              		@ args = 0, pretend = 0, frame = 24
 5091              		@ frame_needed = 1, uses_anonymous_args = 0
 5092 0000 90B5     		push	{r4, r7, lr}
 5093              		.cfi_def_cfa_offset 12
 5094              		.cfi_offset 4, -12
 5095              		.cfi_offset 7, -8
 5096              		.cfi_offset 14, -4
 5097 0002 87B0     		sub	sp, sp, #28
 5098              		.cfi_def_cfa_offset 40
 5099 0004 00AF     		add	r7, sp, #0
 5100              		.cfi_def_cfa_register 7
 5101 0006 7860     		str	r0, [r7, #4]
1369:.\PrimeImpl.c ****     PNEAR_PUMPPTR ppump = (PNEAR_PUMPPTR)pparam;
 5102              		.loc 1 1369 0
 5103 0008 7B68     		ldr	r3, [r7, #4]
 5104 000a 3B61     		str	r3, [r7, #16]
1370:.\PrimeImpl.c ****     if(ppump)
 5105              		.loc 1 1370 0
 5106 000c 3B69     		ldr	r3, [r7, #16]
 5107 000e 002B     		cmp	r3, #0
 5108 0010 00F09D80 		beq	.L183
ARM GAS  C:\Users\RECEPC~1\AppData\Local\Temp\ccQD6Oev.s 			page 115


 5109              	.LBB32:
1371:.\PrimeImpl.c ****     {
1372:.\PrimeImpl.c ****         uint8_t index = 0;  
 5110              		.loc 1 1372 0
 5111 0014 0023     		movs	r3, #0
 5112 0016 FB75     		strb	r3, [r7, #23]
1373:.\PrimeImpl.c ****         memset(ppump->_rxbuffer, 0x00, _PUMP_RX_BUFFER_SIZE_);
 5113              		.loc 1 1373 0
 5114 0018 3B69     		ldr	r3, [r7, #16]
 5115 001a 03F5C473 		add	r3, r3, #392
 5116 001e 1846     		mov	r0, r3
 5117 0020 0021     		movs	r1, #0
 5118 0022 4FF4B472 		mov	r2, #360
 5119 0026 FFF7FEFF 		bl	memset
1374:.\PrimeImpl.c ****         PUARTMESSAGEPTR puartdisp = GetUARTMessageSlot(UART_DISPENSER);
 5120              		.loc 1 1374 0
 5121 002a A220     		movs	r0, #162
 5122 002c FFF7FEFF 		bl	GetUARTMessageSlot
 5123 0030 F860     		str	r0, [r7, #12]
1375:.\PrimeImpl.c ****         if(puartdisp)
 5124              		.loc 1 1375 0
 5125 0032 FB68     		ldr	r3, [r7, #12]
 5126 0034 002B     		cmp	r3, #0
 5127 0036 00F08A80 		beq	.L183
 5128              	.LBB33:
1376:.\PrimeImpl.c ****         {
1377:.\PrimeImpl.c **** ///////////////////////////////////////////////////////////////////////////////////////////////////
1378:.\PrimeImpl.c ****             puartdisp->_messagetx[index++] = SOM;
 5129              		.loc 1 1378 0
 5130 003a FB7D     		ldrb	r3, [r7, #23]	@ zero_extendqisi2
 5131 003c 5A1C     		adds	r2, r3, #1
 5132 003e FA75     		strb	r2, [r7, #23]
 5133 0040 1A46     		mov	r2, r3
 5134 0042 FB68     		ldr	r3, [r7, #12]
 5135 0044 1344     		add	r3, r3, r2
 5136 0046 FF22     		movs	r2, #255
 5137 0048 1A71     		strb	r2, [r3, #4]
1379:.\PrimeImpl.c ****             puartdisp->_messagetx[index++] = 0xE3; //Not used. The Pump will ignore.
 5138              		.loc 1 1379 0
 5139 004a FB7D     		ldrb	r3, [r7, #23]	@ zero_extendqisi2
 5140 004c 5A1C     		adds	r2, r3, #1
 5141 004e FA75     		strb	r2, [r7, #23]
 5142 0050 1A46     		mov	r2, r3
 5143 0052 FB68     		ldr	r3, [r7, #12]
 5144 0054 1344     		add	r3, r3, r2
 5145 0056 E322     		movs	r2, #227
 5146 0058 1A71     		strb	r2, [r3, #4]
1380:.\PrimeImpl.c ****             puartdisp->_messagetx[index++] = 0xF4; //Not used. The Pump will ignore.
 5147              		.loc 1 1380 0
 5148 005a FB7D     		ldrb	r3, [r7, #23]	@ zero_extendqisi2
 5149 005c 5A1C     		adds	r2, r3, #1
 5150 005e FA75     		strb	r2, [r7, #23]
 5151 0060 1A46     		mov	r2, r3
 5152 0062 FB68     		ldr	r3, [r7, #12]
 5153 0064 1344     		add	r3, r3, r2
 5154 0066 F422     		movs	r2, #244
 5155 0068 1A71     		strb	r2, [r3, #4]
ARM GAS  C:\Users\RECEPC~1\AppData\Local\Temp\ccQD6Oev.s 			page 116


1381:.\PrimeImpl.c ****             puartdisp->_messagetx[index++] = 0xF6; //Hose Data next
 5156              		.loc 1 1381 0
 5157 006a FB7D     		ldrb	r3, [r7, #23]	@ zero_extendqisi2
 5158 006c 5A1C     		adds	r2, r3, #1
 5159 006e FA75     		strb	r2, [r7, #23]
 5160 0070 1A46     		mov	r2, r3
 5161 0072 FB68     		ldr	r3, [r7, #12]
 5162 0074 1344     		add	r3, r3, r2
 5163 0076 F622     		movs	r2, #246
 5164 0078 1A71     		strb	r2, [r3, #4]
1382:.\PrimeImpl.c ****             ///THIS IS AN APPLIED CONVENTION ===>> 0x0006 INDEX POSITION WITHIN THE PUMP'S BUFFER P
1383:.\PrimeImpl.c ****             ///THESE CODES MUST BE MATCHED OTHERWISE THE LOGIC WILL BREAKUP THE CODE!
1384:.\PrimeImpl.c ****             puartdisp->_messagetx[index++] = (0xE0 | ppump->_authorizationinfo._hoseid);
 5165              		.loc 1 1384 0
 5166 007a FB7D     		ldrb	r3, [r7, #23]	@ zero_extendqisi2
 5167 007c 5A1C     		adds	r2, r3, #1
 5168 007e FA75     		strb	r2, [r7, #23]
 5169 0080 1946     		mov	r1, r3
 5170 0082 3B69     		ldr	r3, [r7, #16]
 5171 0084 93F87A3B 		ldrb	r3, [r3, #2938]
 5172 0088 DBB2     		uxtb	r3, r3
 5173 008a 63F01F03 		orn	r3, r3, #31
 5174 008e DAB2     		uxtb	r2, r3
 5175 0090 FB68     		ldr	r3, [r7, #12]
 5176 0092 0B44     		add	r3, r3, r1
 5177 0094 1A71     		strb	r2, [r3, #4]
1385:.\PrimeImpl.c ****             
1386:.\PrimeImpl.c ****             puartdisp->_messagetx[index++] = 0xF7; //PPU Data next            
 5178              		.loc 1 1386 0
 5179 0096 FB7D     		ldrb	r3, [r7, #23]	@ zero_extendqisi2
 5180 0098 5A1C     		adds	r2, r3, #1
 5181 009a FA75     		strb	r2, [r7, #23]
 5182 009c 1A46     		mov	r2, r3
 5183 009e FB68     		ldr	r3, [r7, #12]
 5184 00a0 1344     		add	r3, r3, r2
 5185 00a2 F722     		movs	r2, #247
 5186 00a4 1A71     		strb	r2, [r3, #4]
1387:.\PrimeImpl.c ****             //Here we copy the remaining 6 bytes for the preset value
1388:.\PrimeImpl.c ****             ///THIS IS AN APPLIED CONVENTION ===>> 0x0008 INDEX POSITION WITHIN THE PUMP'S BUFFER P
1389:.\PrimeImpl.c ****             ///THESE CODES MUST BE MATCHED OTHERWISE THE LOGIC WILL BREAKUP THE CODE!
1390:.\PrimeImpl.c ****             B78AD90CF552D9B30A(ppump->_authorizationinfo._price, PBYTECAST(&ppump->_trasactionbuffe
 5187              		.loc 1 1390 0
 5188 00a6 3B69     		ldr	r3, [r7, #16]
 5189 00a8 B3F87C3B 		ldrh	r3, [r3, #2940]	@ movhi
 5190 00ac 9BB2     		uxth	r3, r3
 5191 00ae 9AB2     		uxth	r2, r3
 5192 00b0 4FF00003 		mov	r3, #0
 5193 00b4 3969     		ldr	r1, [r7, #16]
 5194 00b6 01F12804 		add	r4, r1, #40
 5195 00ba 1046     		mov	r0, r2
 5196 00bc 1946     		mov	r1, r3
 5197 00be 2246     		mov	r2, r4
 5198 00c0 FFF7FEFF 		bl	B78AD90CF552D9B30A
1391:.\PrimeImpl.c ****             char8 *ptr = &ppump->_trasactionbuffer[0x0008];
 5199              		.loc 1 1391 0
 5200 00c4 3B69     		ldr	r3, [r7, #16]
 5201 00c6 2833     		adds	r3, r3, #40
ARM GAS  C:\Users\RECEPC~1\AppData\Local\Temp\ccQD6Oev.s 			page 117


 5202 00c8 BB60     		str	r3, [r7, #8]
1392:.\PrimeImpl.c ****             FOR(uint8 buffndx = 0, buffndx < 6, buffndx++)
 5203              		.loc 1 1392 0
 5204 00ca 0023     		movs	r3, #0
 5205 00cc BB75     		strb	r3, [r7, #22]
 5206 00ce 13E0     		b	.L185
 5207              	.L186:
1393:.\PrimeImpl.c ****                 puartdisp->_messagetx[index++] = (0xE0 | (0x0F & ptr[buffndx])); //Translate from A
 5208              		.loc 1 1393 0 discriminator 3
 5209 00d0 FB7D     		ldrb	r3, [r7, #23]	@ zero_extendqisi2
 5210 00d2 5A1C     		adds	r2, r3, #1
 5211 00d4 FA75     		strb	r2, [r7, #23]
 5212 00d6 1946     		mov	r1, r3
 5213 00d8 BB7D     		ldrb	r3, [r7, #22]	@ zero_extendqisi2
 5214 00da BA68     		ldr	r2, [r7, #8]
 5215 00dc 1344     		add	r3, r3, r2
 5216 00de 1B78     		ldrb	r3, [r3]	@ zero_extendqisi2
 5217 00e0 03F00F03 		and	r3, r3, #15
 5218 00e4 DBB2     		uxtb	r3, r3
 5219 00e6 63F01F03 		orn	r3, r3, #31
 5220 00ea DAB2     		uxtb	r2, r3
 5221 00ec FB68     		ldr	r3, [r7, #12]
 5222 00ee 0B44     		add	r3, r3, r1
 5223 00f0 1A71     		strb	r2, [r3, #4]
1392:.\PrimeImpl.c ****             FOR(uint8 buffndx = 0, buffndx < 6, buffndx++)
 5224              		.loc 1 1392 0 discriminator 3
 5225 00f2 BB7D     		ldrb	r3, [r7, #22]	@ zero_extendqisi2
 5226 00f4 0133     		adds	r3, r3, #1
 5227 00f6 BB75     		strb	r3, [r7, #22]
 5228              	.L185:
1392:.\PrimeImpl.c ****             FOR(uint8 buffndx = 0, buffndx < 6, buffndx++)
 5229              		.loc 1 1392 0 is_stmt 0 discriminator 1
 5230 00f8 BB7D     		ldrb	r3, [r7, #22]	@ zero_extendqisi2
 5231 00fa 052B     		cmp	r3, #5
 5232 00fc E8D9     		bls	.L186
1394:.\PrimeImpl.c ****             
1395:.\PrimeImpl.c ****             puartdisp->_messagetx[index++] = 0xFB; //LRC next
 5233              		.loc 1 1395 0 is_stmt 1
 5234 00fe FB7D     		ldrb	r3, [r7, #23]	@ zero_extendqisi2
 5235 0100 5A1C     		adds	r2, r3, #1
 5236 0102 FA75     		strb	r2, [r7, #23]
 5237 0104 1A46     		mov	r2, r3
 5238 0106 FB68     		ldr	r3, [r7, #12]
 5239 0108 1344     		add	r3, r3, r2
 5240 010a FB22     		movs	r2, #251
 5241 010c 1A71     		strb	r2, [r3, #4]
1396:.\PrimeImpl.c ****             puartdisp->_messagetx[index++] = GetLRC(puartdisp->_messagetx);
 5242              		.loc 1 1396 0
 5243 010e FB7D     		ldrb	r3, [r7, #23]	@ zero_extendqisi2
 5244 0110 5A1C     		adds	r2, r3, #1
 5245 0112 FA75     		strb	r2, [r7, #23]
 5246 0114 1C46     		mov	r4, r3
 5247 0116 FB68     		ldr	r3, [r7, #12]
 5248 0118 0433     		adds	r3, r3, #4
 5249 011a 1846     		mov	r0, r3
 5250 011c FFF7FEFF 		bl	GetLRC
 5251 0120 0346     		mov	r3, r0
ARM GAS  C:\Users\RECEPC~1\AppData\Local\Temp\ccQD6Oev.s 			page 118


 5252 0122 1A46     		mov	r2, r3
 5253 0124 FB68     		ldr	r3, [r7, #12]
 5254 0126 2344     		add	r3, r3, r4
 5255 0128 1A71     		strb	r2, [r3, #4]
1397:.\PrimeImpl.c ****             puartdisp->_messagetx[index++] = EOM;
 5256              		.loc 1 1397 0
 5257 012a FB7D     		ldrb	r3, [r7, #23]	@ zero_extendqisi2
 5258 012c 5A1C     		adds	r2, r3, #1
 5259 012e FA75     		strb	r2, [r7, #23]
 5260 0130 1A46     		mov	r2, r3
 5261 0132 FB68     		ldr	r3, [r7, #12]
 5262 0134 1344     		add	r3, r3, r2
 5263 0136 F022     		movs	r2, #240
 5264 0138 1A71     		strb	r2, [r3, #4]
1398:.\PrimeImpl.c **** ///////////////////////////////////////////////////////////////////////////////////////////////////
1399:.\PrimeImpl.c ****             
1400:.\PrimeImpl.c ****             puartdisp->_messagelength = index;
 5265              		.loc 1 1400 0
 5266 013a FB7D     		ldrb	r3, [r7, #23]	@ zero_extendqisi2
 5267 013c 9AB2     		uxth	r2, r3
 5268 013e FB68     		ldr	r3, [r7, #12]
 5269 0140 5A80     		strh	r2, [r3, #2]	@ movhi
1401:.\PrimeImpl.c ****             puartdisp->_messagestate = PENDING;
 5270              		.loc 1 1401 0
 5271 0142 FB68     		ldr	r3, [r7, #12]
 5272 0144 C222     		movs	r2, #194
 5273 0146 1A70     		strb	r2, [r3]
1402:.\PrimeImpl.c ****             
1403:.\PrimeImpl.c ****             //This marker flag is set to notify the transactional engine about the price restore re
1404:.\PrimeImpl.c ****             ppump->_restoreprice = true;
 5274              		.loc 1 1404 0
 5275 0148 3B69     		ldr	r3, [r7, #16]
 5276 014a 0122     		movs	r2, #1
 5277 014c 5A72     		strb	r2, [r3, #9]
 5278              	.L183:
 5279              	.LBE33:
 5280              	.LBE32:
1405:.\PrimeImpl.c ****         }
1406:.\PrimeImpl.c ****     }    
1407:.\PrimeImpl.c **** }
 5281              		.loc 1 1407 0
 5282 014e 1C37     		adds	r7, r7, #28
 5283              		.cfi_def_cfa_offset 12
 5284 0150 BD46     		mov	sp, r7
 5285              		.cfi_def_cfa_register 13
 5286              		@ sp needed
 5287 0152 90BD     		pop	{r4, r7, pc}
 5288              		.cfi_endproc
 5289              	.LFE91:
 5290              		.size	PumpDefault2CreditPpuChange, .-PumpDefault2CreditPpuChange
 5291              		.section	.text.PumpCredit2DefaultPpuChange,"ax",%progbits
 5292              		.align	2
 5293              		.global	PumpCredit2DefaultPpuChange
 5294              		.thumb
 5295              		.thumb_func
 5296              		.type	PumpCredit2DefaultPpuChange, %function
 5297              	PumpCredit2DefaultPpuChange:
ARM GAS  C:\Users\RECEPC~1\AppData\Local\Temp\ccQD6Oev.s 			page 119


 5298              	.LFB92:
1408:.\PrimeImpl.c **** 
1409:.\PrimeImpl.c **** void PumpCredit2DefaultPpuChange(void *pparam)
1410:.\PrimeImpl.c **** {
 5299              		.loc 1 1410 0
 5300              		.cfi_startproc
 5301              		@ args = 0, pretend = 0, frame = 32
 5302              		@ frame_needed = 1, uses_anonymous_args = 0
 5303 0000 90B5     		push	{r4, r7, lr}
 5304              		.cfi_def_cfa_offset 12
 5305              		.cfi_offset 4, -12
 5306              		.cfi_offset 7, -8
 5307              		.cfi_offset 14, -4
 5308 0002 89B0     		sub	sp, sp, #36
 5309              		.cfi_def_cfa_offset 48
 5310 0004 00AF     		add	r7, sp, #0
 5311              		.cfi_def_cfa_register 7
 5312 0006 7860     		str	r0, [r7, #4]
1411:.\PrimeImpl.c ****     PNEAR_PUMPPTR ppump = (PNEAR_PUMPPTR)pparam;
 5313              		.loc 1 1411 0
 5314 0008 7B68     		ldr	r3, [r7, #4]
 5315 000a BB61     		str	r3, [r7, #24]
1412:.\PrimeImpl.c ****     if(ppump)
 5316              		.loc 1 1412 0
 5317 000c BB69     		ldr	r3, [r7, #24]
 5318 000e 002B     		cmp	r3, #0
 5319 0010 00F0E480 		beq	.L187
 5320              	.LBB34:
1413:.\PrimeImpl.c ****     {
1414:.\PrimeImpl.c ****         uint8_t index = 0;  
 5321              		.loc 1 1414 0
 5322 0014 0023     		movs	r3, #0
 5323 0016 FB77     		strb	r3, [r7, #31]
1415:.\PrimeImpl.c ****         memset(ppump->_rxbuffer, 0x00, _PUMP_RX_BUFFER_SIZE_);
 5324              		.loc 1 1415 0
 5325 0018 BB69     		ldr	r3, [r7, #24]
 5326 001a 03F5C473 		add	r3, r3, #392
 5327 001e 1846     		mov	r0, r3
 5328 0020 0021     		movs	r1, #0
 5329 0022 4FF4B472 		mov	r2, #360
 5330 0026 FFF7FEFF 		bl	memset
1416:.\PrimeImpl.c ****         PUARTMESSAGEPTR puartdisp = GetUARTMessageSlot(UART_DISPENSER);
 5331              		.loc 1 1416 0
 5332 002a A220     		movs	r0, #162
 5333 002c FFF7FEFF 		bl	GetUARTMessageSlot
 5334 0030 7861     		str	r0, [r7, #20]
1417:.\PrimeImpl.c ****         if(puartdisp)
 5335              		.loc 1 1417 0
 5336 0032 7B69     		ldr	r3, [r7, #20]
 5337 0034 002B     		cmp	r3, #0
 5338 0036 00F0CE80 		beq	.L189
 5339              	.LBB35:
1418:.\PrimeImpl.c ****         {
1419:.\PrimeImpl.c **** ///////////////////////////////////////////////////////////////////////////////////////////////////
1420:.\PrimeImpl.c ****             puartdisp->_messagetx[index++] = SOM;
 5340              		.loc 1 1420 0
 5341 003a FB7F     		ldrb	r3, [r7, #31]	@ zero_extendqisi2
ARM GAS  C:\Users\RECEPC~1\AppData\Local\Temp\ccQD6Oev.s 			page 120


 5342 003c 5A1C     		adds	r2, r3, #1
 5343 003e FA77     		strb	r2, [r7, #31]
 5344 0040 1A46     		mov	r2, r3
 5345 0042 7B69     		ldr	r3, [r7, #20]
 5346 0044 1344     		add	r3, r3, r2
 5347 0046 FF22     		movs	r2, #255
 5348 0048 1A71     		strb	r2, [r3, #4]
1421:.\PrimeImpl.c ****             puartdisp->_messagetx[index++] = 0xE3; //Not used. The Pump will ignore.
 5349              		.loc 1 1421 0
 5350 004a FB7F     		ldrb	r3, [r7, #31]	@ zero_extendqisi2
 5351 004c 5A1C     		adds	r2, r3, #1
 5352 004e FA77     		strb	r2, [r7, #31]
 5353 0050 1A46     		mov	r2, r3
 5354 0052 7B69     		ldr	r3, [r7, #20]
 5355 0054 1344     		add	r3, r3, r2
 5356 0056 E322     		movs	r2, #227
 5357 0058 1A71     		strb	r2, [r3, #4]
1422:.\PrimeImpl.c ****             puartdisp->_messagetx[index++] = 0xF4; //Not used. The Pump will ignore.
 5358              		.loc 1 1422 0
 5359 005a FB7F     		ldrb	r3, [r7, #31]	@ zero_extendqisi2
 5360 005c 5A1C     		adds	r2, r3, #1
 5361 005e FA77     		strb	r2, [r7, #31]
 5362 0060 1A46     		mov	r2, r3
 5363 0062 7B69     		ldr	r3, [r7, #20]
 5364 0064 1344     		add	r3, r3, r2
 5365 0066 F422     		movs	r2, #244
 5366 0068 1A71     		strb	r2, [r3, #4]
1423:.\PrimeImpl.c ****             puartdisp->_messagetx[index++] = 0xF6; //Hose Data next
 5367              		.loc 1 1423 0
 5368 006a FB7F     		ldrb	r3, [r7, #31]	@ zero_extendqisi2
 5369 006c 5A1C     		adds	r2, r3, #1
 5370 006e FA77     		strb	r2, [r7, #31]
 5371 0070 1A46     		mov	r2, r3
 5372 0072 7B69     		ldr	r3, [r7, #20]
 5373 0074 1344     		add	r3, r3, r2
 5374 0076 F622     		movs	r2, #246
 5375 0078 1A71     		strb	r2, [r3, #4]
1424:.\PrimeImpl.c ****             ///THIS IS AN APPLIED CONVENTION ===>> 0x0006 INDEX POSITION WITHIN THE PUMP'S BUFFER P
1425:.\PrimeImpl.c ****             ///THESE CODES MUST BE MATCHED OTHERWISE THE LOGIC WILL BREAKUP THE CODE!
1426:.\PrimeImpl.c ****             puartdisp->_messagetx[index++] = (0xE0 | ppump->_authorizationinfo._hoseid);
 5376              		.loc 1 1426 0
 5377 007a FB7F     		ldrb	r3, [r7, #31]	@ zero_extendqisi2
 5378 007c 5A1C     		adds	r2, r3, #1
 5379 007e FA77     		strb	r2, [r7, #31]
 5380 0080 1946     		mov	r1, r3
 5381 0082 BB69     		ldr	r3, [r7, #24]
 5382 0084 93F87A3B 		ldrb	r3, [r3, #2938]
 5383 0088 DBB2     		uxtb	r3, r3
 5384 008a 63F01F03 		orn	r3, r3, #31
 5385 008e DAB2     		uxtb	r2, r3
 5386 0090 7B69     		ldr	r3, [r7, #20]
 5387 0092 0B44     		add	r3, r3, r1
 5388 0094 1A71     		strb	r2, [r3, #4]
1427:.\PrimeImpl.c **** 
1428:.\PrimeImpl.c ****             puartdisp->_messagetx[index++] = 0xF7; //PPU Data next
 5389              		.loc 1 1428 0
 5390 0096 FB7F     		ldrb	r3, [r7, #31]	@ zero_extendqisi2
ARM GAS  C:\Users\RECEPC~1\AppData\Local\Temp\ccQD6Oev.s 			page 121


 5391 0098 5A1C     		adds	r2, r3, #1
 5392 009a FA77     		strb	r2, [r7, #31]
 5393 009c 1A46     		mov	r2, r3
 5394 009e 7B69     		ldr	r3, [r7, #20]
 5395 00a0 1344     		add	r3, r3, r2
 5396 00a2 F722     		movs	r2, #247
 5397 00a4 1A71     		strb	r2, [r3, #4]
1429:.\PrimeImpl.c ****             
1430:.\PrimeImpl.c ****             I2CBusLock();
 5398              		.loc 1 1430 0
 5399 00a6 FFF7FEFF 		bl	I2CBusLock
1431:.\PrimeImpl.c ****             ClearEepromBuffer();
 5400              		.loc 1 1431 0
 5401 00aa FFF7FEFF 		bl	ClearEepromBuffer
1432:.\PrimeImpl.c ****             uint16 eeprompage = DispenserGetEepromPPUPageFromPumpID(ppump->_pumpid);
 5402              		.loc 1 1432 0
 5403 00ae BB69     		ldr	r3, [r7, #24]
 5404 00b0 1B78     		ldrb	r3, [r3]	@ zero_extendqisi2
 5405 00b2 1846     		mov	r0, r3
 5406 00b4 FFF7FEFF 		bl	DispenserGetEepromPPUPageFromPumpID
 5407 00b8 0346     		mov	r3, r0
 5408 00ba 7B82     		strh	r3, [r7, #18]	@ movhi
1433:.\PrimeImpl.c ****             LoadEepromPage(eeprompage);
 5409              		.loc 1 1433 0
 5410 00bc 7B8A     		ldrh	r3, [r7, #18]
 5411 00be 1846     		mov	r0, r3
 5412 00c0 FFF7FEFF 		bl	LoadEepromPage
1434:.\PrimeImpl.c ****             switch(ppump->_authorizationinfo._hoseid)
 5413              		.loc 1 1434 0
 5414 00c4 BB69     		ldr	r3, [r7, #24]
 5415 00c6 93F87A3B 		ldrb	r3, [r3, #2938]
 5416 00ca DBB2     		uxtb	r3, r3
 5417 00cc 032B     		cmp	r3, #3
 5418 00ce 3ED8     		bhi	.L190
 5419 00d0 01A2     		adr	r2, .L192
 5420 00d2 52F823F0 		ldr	pc, [r2, r3, lsl #2]
 5421 00d6 00BF     		.p2align 2
 5422              	.L192:
 5423 00d8 E9000000 		.word	.L191+1
 5424 00dc 01010000 		.word	.L193+1
 5425 00e0 1B010000 		.word	.L194+1
 5426 00e4 35010000 		.word	.L195+1
 5427              		.p2align 1
 5428              	.L191:
1435:.\PrimeImpl.c ****             {
1436:.\PrimeImpl.c ****                 case 0x00:
1437:.\PrimeImpl.c ****                 //Six bytes only since the PPU is constrained to this length
1438:.\PrimeImpl.c ****                 memcpy(PBYTECAST(&ppump->_trasactionbuffer[0x0008]), &GetEepromBuffer()[_EEPROM_PAG
 5429              		.loc 1 1438 0
 5430 00e8 BB69     		ldr	r3, [r7, #24]
 5431 00ea 03F12804 		add	r4, r3, #40
 5432 00ee FFF7FEFF 		bl	GetEepromBuffer
 5433 00f2 0346     		mov	r3, r0
 5434 00f4 2046     		mov	r0, r4
 5435 00f6 1946     		mov	r1, r3
 5436 00f8 0622     		movs	r2, #6
 5437 00fa FFF7FEFF 		bl	memcpy
ARM GAS  C:\Users\RECEPC~1\AppData\Local\Temp\ccQD6Oev.s 			page 122


1439:.\PrimeImpl.c ****                 break;
 5438              		.loc 1 1439 0
 5439 00fe 26E0     		b	.L190
 5440              	.L193:
1440:.\PrimeImpl.c ****                 case 0x01:
1441:.\PrimeImpl.c ****                 //Six bytes only since the PPU is constrained to this length
1442:.\PrimeImpl.c ****                 memcpy(PBYTECAST(&ppump->_trasactionbuffer[0x0008]), &GetEepromBuffer()[_EEPROM_PAG
 5441              		.loc 1 1442 0
 5442 0100 BB69     		ldr	r3, [r7, #24]
 5443 0102 03F12804 		add	r4, r3, #40
 5444 0106 FFF7FEFF 		bl	GetEepromBuffer
 5445 010a 0346     		mov	r3, r0
 5446 010c 1033     		adds	r3, r3, #16
 5447 010e 2046     		mov	r0, r4
 5448 0110 1946     		mov	r1, r3
 5449 0112 0622     		movs	r2, #6
 5450 0114 FFF7FEFF 		bl	memcpy
1443:.\PrimeImpl.c ****                 break;
 5451              		.loc 1 1443 0
 5452 0118 19E0     		b	.L190
 5453              	.L194:
1444:.\PrimeImpl.c ****                 case 0x02:
1445:.\PrimeImpl.c ****                 //Six bytes only since the PPU is constrained to this length
1446:.\PrimeImpl.c ****                 memcpy(PBYTECAST(&ppump->_trasactionbuffer[0x0008]), &GetEepromBuffer()[_EEPROM_PAG
 5454              		.loc 1 1446 0
 5455 011a BB69     		ldr	r3, [r7, #24]
 5456 011c 03F12804 		add	r4, r3, #40
 5457 0120 FFF7FEFF 		bl	GetEepromBuffer
 5458 0124 0346     		mov	r3, r0
 5459 0126 2033     		adds	r3, r3, #32
 5460 0128 2046     		mov	r0, r4
 5461 012a 1946     		mov	r1, r3
 5462 012c 0622     		movs	r2, #6
 5463 012e FFF7FEFF 		bl	memcpy
1447:.\PrimeImpl.c ****                 break;
 5464              		.loc 1 1447 0
 5465 0132 0CE0     		b	.L190
 5466              	.L195:
1448:.\PrimeImpl.c ****                 case 0x03:
1449:.\PrimeImpl.c ****                 //Six bytes only since the PPU is constrained to this length
1450:.\PrimeImpl.c ****                 memcpy(PBYTECAST(&ppump->_trasactionbuffer[0x0008]), &GetEepromBuffer()[_EEPROM_PAG
 5467              		.loc 1 1450 0
 5468 0134 BB69     		ldr	r3, [r7, #24]
 5469 0136 03F12804 		add	r4, r3, #40
 5470 013a FFF7FEFF 		bl	GetEepromBuffer
 5471 013e 0346     		mov	r3, r0
 5472 0140 3033     		adds	r3, r3, #48
 5473 0142 2046     		mov	r0, r4
 5474 0144 1946     		mov	r1, r3
 5475 0146 0622     		movs	r2, #6
 5476 0148 FFF7FEFF 		bl	memcpy
1451:.\PrimeImpl.c ****                 break;
 5477              		.loc 1 1451 0
 5478 014c 00BF     		nop
 5479              	.L190:
1452:.\PrimeImpl.c ****             }
1453:.\PrimeImpl.c ****             I2CBusUnlock();
ARM GAS  C:\Users\RECEPC~1\AppData\Local\Temp\ccQD6Oev.s 			page 123


 5480              		.loc 1 1453 0
 5481 014e FFF7FEFF 		bl	I2CBusUnlock
1454:.\PrimeImpl.c **** 
1455:.\PrimeImpl.c ****             char8 *ptr = &ppump->_trasactionbuffer[0x0008];
 5482              		.loc 1 1455 0
 5483 0152 BB69     		ldr	r3, [r7, #24]
 5484 0154 2833     		adds	r3, r3, #40
 5485 0156 FB60     		str	r3, [r7, #12]
1456:.\PrimeImpl.c ****             FOR(uint8 buffndx = 0, buffndx < 6, buffndx++)
 5486              		.loc 1 1456 0
 5487 0158 0023     		movs	r3, #0
 5488 015a BB77     		strb	r3, [r7, #30]
 5489 015c 13E0     		b	.L196
 5490              	.L197:
1457:.\PrimeImpl.c ****                 puartdisp->_messagetx[index++] = (0xE0 | (0x0F & ptr[buffndx])); //Translate from A
 5491              		.loc 1 1457 0 discriminator 3
 5492 015e FB7F     		ldrb	r3, [r7, #31]	@ zero_extendqisi2
 5493 0160 5A1C     		adds	r2, r3, #1
 5494 0162 FA77     		strb	r2, [r7, #31]
 5495 0164 1946     		mov	r1, r3
 5496 0166 BB7F     		ldrb	r3, [r7, #30]	@ zero_extendqisi2
 5497 0168 FA68     		ldr	r2, [r7, #12]
 5498 016a 1344     		add	r3, r3, r2
 5499 016c 1B78     		ldrb	r3, [r3]	@ zero_extendqisi2
 5500 016e 03F00F03 		and	r3, r3, #15
 5501 0172 DBB2     		uxtb	r3, r3
 5502 0174 63F01F03 		orn	r3, r3, #31
 5503 0178 DAB2     		uxtb	r2, r3
 5504 017a 7B69     		ldr	r3, [r7, #20]
 5505 017c 0B44     		add	r3, r3, r1
 5506 017e 1A71     		strb	r2, [r3, #4]
1456:.\PrimeImpl.c ****             FOR(uint8 buffndx = 0, buffndx < 6, buffndx++)
 5507              		.loc 1 1456 0 discriminator 3
 5508 0180 BB7F     		ldrb	r3, [r7, #30]	@ zero_extendqisi2
 5509 0182 0133     		adds	r3, r3, #1
 5510 0184 BB77     		strb	r3, [r7, #30]
 5511              	.L196:
1456:.\PrimeImpl.c ****             FOR(uint8 buffndx = 0, buffndx < 6, buffndx++)
 5512              		.loc 1 1456 0 is_stmt 0 discriminator 1
 5513 0186 BB7F     		ldrb	r3, [r7, #30]	@ zero_extendqisi2
 5514 0188 052B     		cmp	r3, #5
 5515 018a E8D9     		bls	.L197
1458:.\PrimeImpl.c ****             
1459:.\PrimeImpl.c ****             puartdisp->_messagetx[index++] = 0xFB; //LRC next
 5516              		.loc 1 1459 0 is_stmt 1
 5517 018c FB7F     		ldrb	r3, [r7, #31]	@ zero_extendqisi2
 5518 018e 5A1C     		adds	r2, r3, #1
 5519 0190 FA77     		strb	r2, [r7, #31]
 5520 0192 1A46     		mov	r2, r3
 5521 0194 7B69     		ldr	r3, [r7, #20]
 5522 0196 1344     		add	r3, r3, r2
 5523 0198 FB22     		movs	r2, #251
 5524 019a 1A71     		strb	r2, [r3, #4]
1460:.\PrimeImpl.c ****             puartdisp->_messagetx[index++] = GetLRC(puartdisp->_messagetx);
 5525              		.loc 1 1460 0
 5526 019c FB7F     		ldrb	r3, [r7, #31]	@ zero_extendqisi2
 5527 019e 5A1C     		adds	r2, r3, #1
ARM GAS  C:\Users\RECEPC~1\AppData\Local\Temp\ccQD6Oev.s 			page 124


 5528 01a0 FA77     		strb	r2, [r7, #31]
 5529 01a2 1C46     		mov	r4, r3
 5530 01a4 7B69     		ldr	r3, [r7, #20]
 5531 01a6 0433     		adds	r3, r3, #4
 5532 01a8 1846     		mov	r0, r3
 5533 01aa FFF7FEFF 		bl	GetLRC
 5534 01ae 0346     		mov	r3, r0
 5535 01b0 1A46     		mov	r2, r3
 5536 01b2 7B69     		ldr	r3, [r7, #20]
 5537 01b4 2344     		add	r3, r3, r4
 5538 01b6 1A71     		strb	r2, [r3, #4]
1461:.\PrimeImpl.c ****             puartdisp->_messagetx[index++] = EOM;
 5539              		.loc 1 1461 0
 5540 01b8 FB7F     		ldrb	r3, [r7, #31]	@ zero_extendqisi2
 5541 01ba 5A1C     		adds	r2, r3, #1
 5542 01bc FA77     		strb	r2, [r7, #31]
 5543 01be 1A46     		mov	r2, r3
 5544 01c0 7B69     		ldr	r3, [r7, #20]
 5545 01c2 1344     		add	r3, r3, r2
 5546 01c4 F022     		movs	r2, #240
 5547 01c6 1A71     		strb	r2, [r3, #4]
1462:.\PrimeImpl.c **** ///////////////////////////////////////////////////////////////////////////////////////////////////
1463:.\PrimeImpl.c ****             
1464:.\PrimeImpl.c ****             puartdisp->_messagelength = index;
 5548              		.loc 1 1464 0
 5549 01c8 FB7F     		ldrb	r3, [r7, #31]	@ zero_extendqisi2
 5550 01ca 9AB2     		uxth	r2, r3
 5551 01cc 7B69     		ldr	r3, [r7, #20]
 5552 01ce 5A80     		strh	r2, [r3, #2]	@ movhi
1465:.\PrimeImpl.c ****             puartdisp->_messagestate = PENDING;
 5553              		.loc 1 1465 0
 5554 01d0 7B69     		ldr	r3, [r7, #20]
 5555 01d2 C222     		movs	r2, #194
 5556 01d4 1A70     		strb	r2, [r3]
 5557              	.L189:
 5558              	.LBE35:
1466:.\PrimeImpl.c ****         }
1467:.\PrimeImpl.c ****         ppump->_restoreprice = false;
 5559              		.loc 1 1467 0
 5560 01d6 BB69     		ldr	r3, [r7, #24]
 5561 01d8 0022     		movs	r2, #0
 5562 01da 5A72     		strb	r2, [r3, #9]
 5563              	.L187:
 5564              	.LBE34:
1468:.\PrimeImpl.c ****         //This lock is to force the operator to activate/deactivate the hose once the credit transa
1469:.\PrimeImpl.c ****         #ifdef CREDIT_SALE_PUMP_LOCK
1470:.\PrimeImpl.c ****         ppump->_pumplocked = true;
1471:.\PrimeImpl.c ****         #endif
1472:.\PrimeImpl.c ****     }    
1473:.\PrimeImpl.c **** }
 5565              		.loc 1 1473 0
 5566 01dc 2437     		adds	r7, r7, #36
 5567              		.cfi_def_cfa_offset 12
 5568 01de BD46     		mov	sp, r7
 5569              		.cfi_def_cfa_register 13
 5570              		@ sp needed
 5571 01e0 90BD     		pop	{r4, r7, pc}
ARM GAS  C:\Users\RECEPC~1\AppData\Local\Temp\ccQD6Oev.s 			page 125


 5572              		.cfi_endproc
 5573              	.LFE92:
 5574              		.size	PumpCredit2DefaultPpuChange, .-PumpCredit2DefaultPpuChange
 5575 01e2 00BF     		.section	.text.PumpStopRequest,"ax",%progbits
 5576              		.align	2
 5577              		.global	PumpStopRequest
 5578              		.thumb
 5579              		.thumb_func
 5580              		.type	PumpStopRequest, %function
 5581              	PumpStopRequest:
 5582              	.LFB93:
1474:.\PrimeImpl.c **** 
1475:.\PrimeImpl.c **** //@Created By: HIJH
1476:.\PrimeImpl.c **** //@Septembre de 2016
1477:.\PrimeImpl.c **** void PumpStopRequest(void *pparam)
1478:.\PrimeImpl.c **** {
 5583              		.loc 1 1478 0
 5584              		.cfi_startproc
 5585              		@ args = 0, pretend = 0, frame = 24
 5586              		@ frame_needed = 1, uses_anonymous_args = 0
 5587 0000 80B5     		push	{r7, lr}
 5588              		.cfi_def_cfa_offset 8
 5589              		.cfi_offset 7, -8
 5590              		.cfi_offset 14, -4
 5591 0002 86B0     		sub	sp, sp, #24
 5592              		.cfi_def_cfa_offset 32
 5593 0004 00AF     		add	r7, sp, #0
 5594              		.cfi_def_cfa_register 7
 5595 0006 7860     		str	r0, [r7, #4]
1479:.\PrimeImpl.c ****     PNEAR_PUMPPTR ppump = (PNEAR_PUMPPTR)pparam;
 5596              		.loc 1 1479 0
 5597 0008 7B68     		ldr	r3, [r7, #4]
 5598 000a 7B61     		str	r3, [r7, #20]
1480:.\PrimeImpl.c ****     if(ppump)
 5599              		.loc 1 1480 0
 5600 000c 7B69     		ldr	r3, [r7, #20]
 5601 000e 002B     		cmp	r3, #0
 5602 0010 28D0     		beq	.L198
 5603              	.LBB36:
1481:.\PrimeImpl.c ****     {                
1482:.\PrimeImpl.c ****         uint8_t index = 0;
 5604              		.loc 1 1482 0
 5605 0012 0023     		movs	r3, #0
 5606 0014 FB74     		strb	r3, [r7, #19]
1483:.\PrimeImpl.c ****         memset(ppump->_rxbuffer, 0x00, _PUMP_RX_BUFFER_SIZE_);
 5607              		.loc 1 1483 0
 5608 0016 7B69     		ldr	r3, [r7, #20]
 5609 0018 03F5C473 		add	r3, r3, #392
 5610 001c 1846     		mov	r0, r3
 5611 001e 0021     		movs	r1, #0
 5612 0020 4FF4B472 		mov	r2, #360
 5613 0024 FFF7FEFF 		bl	memset
1484:.\PrimeImpl.c ****         PUARTMESSAGEPTR puartdisp = GetUARTMessageSlot(UART_DISPENSER);
 5614              		.loc 1 1484 0
 5615 0028 A220     		movs	r0, #162
 5616 002a FFF7FEFF 		bl	GetUARTMessageSlot
 5617 002e F860     		str	r0, [r7, #12]
ARM GAS  C:\Users\RECEPC~1\AppData\Local\Temp\ccQD6Oev.s 			page 126


1485:.\PrimeImpl.c ****         if(puartdisp)
 5618              		.loc 1 1485 0
 5619 0030 FB68     		ldr	r3, [r7, #12]
 5620 0032 002B     		cmp	r3, #0
 5621 0034 16D0     		beq	.L198
1486:.\PrimeImpl.c ****         {
1487:.\PrimeImpl.c ****             //Just one byte for the response
1488:.\PrimeImpl.c ****             puartdisp->_messagetx[index++] = PUMP_COMMAND(PUMP_PUMP_STOP, ppump->_pumpid);
 5622              		.loc 1 1488 0
 5623 0036 FB7C     		ldrb	r3, [r7, #19]	@ zero_extendqisi2
 5624 0038 5A1C     		adds	r2, r3, #1
 5625 003a FA74     		strb	r2, [r7, #19]
 5626 003c 1946     		mov	r1, r3
 5627 003e 7B69     		ldr	r3, [r7, #20]
 5628 0040 1B78     		ldrb	r3, [r3]	@ zero_extendqisi2
 5629 0042 DBB2     		uxtb	r3, r3
 5630 0044 03F00F03 		and	r3, r3, #15
 5631 0048 DBB2     		uxtb	r3, r3
 5632 004a 43F03003 		orr	r3, r3, #48
 5633 004e DBB2     		uxtb	r3, r3
 5634 0050 DAB2     		uxtb	r2, r3
 5635 0052 FB68     		ldr	r3, [r7, #12]
 5636 0054 0B44     		add	r3, r3, r1
 5637 0056 1A71     		strb	r2, [r3, #4]
1489:.\PrimeImpl.c ****             puartdisp->_messagelength = 1;//One byte
 5638              		.loc 1 1489 0
 5639 0058 FB68     		ldr	r3, [r7, #12]
 5640 005a 0122     		movs	r2, #1
 5641 005c 5A80     		strh	r2, [r3, #2]	@ movhi
1490:.\PrimeImpl.c ****             puartdisp->_messagestate = PENDING;
 5642              		.loc 1 1490 0
 5643 005e FB68     		ldr	r3, [r7, #12]
 5644 0060 C222     		movs	r2, #194
 5645 0062 1A70     		strb	r2, [r3]
 5646              	.L198:
 5647              	.LBE36:
1491:.\PrimeImpl.c ****         }        
1492:.\PrimeImpl.c ****     }
1493:.\PrimeImpl.c **** }
 5648              		.loc 1 1493 0
 5649 0064 1837     		adds	r7, r7, #24
 5650              		.cfi_def_cfa_offset 8
 5651 0066 BD46     		mov	sp, r7
 5652              		.cfi_def_cfa_register 13
 5653              		@ sp needed
 5654 0068 80BD     		pop	{r7, pc}
 5655              		.cfi_endproc
 5656              	.LFE93:
 5657              		.size	PumpStopRequest, .-PumpStopRequest
 5658 006a 00BF     		.section	.text.PumpStopAllRequest,"ax",%progbits
 5659              		.align	2
 5660              		.global	PumpStopAllRequest
 5661              		.thumb
 5662              		.thumb_func
 5663              		.type	PumpStopAllRequest, %function
 5664              	PumpStopAllRequest:
 5665              	.LFB94:
ARM GAS  C:\Users\RECEPC~1\AppData\Local\Temp\ccQD6Oev.s 			page 127


1494:.\PrimeImpl.c **** 
1495:.\PrimeImpl.c **** //@Created By: HIJH
1496:.\PrimeImpl.c **** //@Septembre de 2016
1497:.\PrimeImpl.c **** void PumpStopAllRequest(void *pparam)
1498:.\PrimeImpl.c **** {
 5666              		.loc 1 1498 0
 5667              		.cfi_startproc
 5668              		@ args = 0, pretend = 0, frame = 24
 5669              		@ frame_needed = 1, uses_anonymous_args = 0
 5670 0000 80B5     		push	{r7, lr}
 5671              		.cfi_def_cfa_offset 8
 5672              		.cfi_offset 7, -8
 5673              		.cfi_offset 14, -4
 5674 0002 86B0     		sub	sp, sp, #24
 5675              		.cfi_def_cfa_offset 32
 5676 0004 00AF     		add	r7, sp, #0
 5677              		.cfi_def_cfa_register 7
 5678 0006 7860     		str	r0, [r7, #4]
1499:.\PrimeImpl.c ****     PNEAR_PUMPPTR ppump = (PNEAR_PUMPPTR)pparam;
 5679              		.loc 1 1499 0
 5680 0008 7B68     		ldr	r3, [r7, #4]
 5681 000a 7B61     		str	r3, [r7, #20]
1500:.\PrimeImpl.c ****     if(ppump)
 5682              		.loc 1 1500 0
 5683 000c 7B69     		ldr	r3, [r7, #20]
 5684 000e 002B     		cmp	r3, #0
 5685 0010 23D0     		beq	.L200
 5686              	.LBB37:
1501:.\PrimeImpl.c ****     {                
1502:.\PrimeImpl.c ****         uint8_t index = 0;
 5687              		.loc 1 1502 0
 5688 0012 0023     		movs	r3, #0
 5689 0014 FB74     		strb	r3, [r7, #19]
1503:.\PrimeImpl.c ****         memset(ppump->_rxbuffer, 0x00, _PUMP_RX_BUFFER_SIZE_);
 5690              		.loc 1 1503 0
 5691 0016 7B69     		ldr	r3, [r7, #20]
 5692 0018 03F5C473 		add	r3, r3, #392
 5693 001c 1846     		mov	r0, r3
 5694 001e 0021     		movs	r1, #0
 5695 0020 4FF4B472 		mov	r2, #360
 5696 0024 FFF7FEFF 		bl	memset
1504:.\PrimeImpl.c ****         PUARTMESSAGEPTR puartdisp = GetUARTMessageSlot(UART_DISPENSER);
 5697              		.loc 1 1504 0
 5698 0028 A220     		movs	r0, #162
 5699 002a FFF7FEFF 		bl	GetUARTMessageSlot
 5700 002e F860     		str	r0, [r7, #12]
1505:.\PrimeImpl.c ****         if(puartdisp)
 5701              		.loc 1 1505 0
 5702 0030 FB68     		ldr	r3, [r7, #12]
 5703 0032 002B     		cmp	r3, #0
 5704 0034 11D0     		beq	.L200
1506:.\PrimeImpl.c ****         {
1507:.\PrimeImpl.c ****             //Just one byte for the response
1508:.\PrimeImpl.c ****             puartdisp->_messagetx[index++] = PUMP_COMMAND(PUMP_ALL_PUMPS_STOP, ppump->_pumpid);
 5705              		.loc 1 1508 0
 5706 0036 FB7C     		ldrb	r3, [r7, #19]	@ zero_extendqisi2
 5707 0038 5A1C     		adds	r2, r3, #1
ARM GAS  C:\Users\RECEPC~1\AppData\Local\Temp\ccQD6Oev.s 			page 128


 5708 003a FA74     		strb	r2, [r7, #19]
 5709 003c 1946     		mov	r1, r3
 5710 003e 7B69     		ldr	r3, [r7, #20]
 5711 0040 1B78     		ldrb	r3, [r3]	@ zero_extendqisi2
 5712 0042 63F00F03 		orn	r3, r3, #15
 5713 0046 DAB2     		uxtb	r2, r3
 5714 0048 FB68     		ldr	r3, [r7, #12]
 5715 004a 0B44     		add	r3, r3, r1
 5716 004c 1A71     		strb	r2, [r3, #4]
1509:.\PrimeImpl.c ****             puartdisp->_messagelength = 1;//One byte
 5717              		.loc 1 1509 0
 5718 004e FB68     		ldr	r3, [r7, #12]
 5719 0050 0122     		movs	r2, #1
 5720 0052 5A80     		strh	r2, [r3, #2]	@ movhi
1510:.\PrimeImpl.c ****             puartdisp->_messagestate = PENDING;
 5721              		.loc 1 1510 0
 5722 0054 FB68     		ldr	r3, [r7, #12]
 5723 0056 C222     		movs	r2, #194
 5724 0058 1A70     		strb	r2, [r3]
 5725              	.L200:
 5726              	.LBE37:
1511:.\PrimeImpl.c ****         }        
1512:.\PrimeImpl.c ****     }
1513:.\PrimeImpl.c **** }
 5727              		.loc 1 1513 0
 5728 005a 1837     		adds	r7, r7, #24
 5729              		.cfi_def_cfa_offset 8
 5730 005c BD46     		mov	sp, r7
 5731              		.cfi_def_cfa_register 13
 5732              		@ sp needed
 5733 005e 80BD     		pop	{r7, pc}
 5734              		.cfi_endproc
 5735              	.LFE94:
 5736              		.size	PumpStopAllRequest, .-PumpStopAllRequest
 5737              		.section	.text.PumpMiscellaneousConfiguration,"ax",%progbits
 5738              		.align	2
 5739              		.global	PumpMiscellaneousConfiguration
 5740              		.thumb
 5741              		.thumb_func
 5742              		.type	PumpMiscellaneousConfiguration, %function
 5743              	PumpMiscellaneousConfiguration:
 5744              	.LFB95:
1514:.\PrimeImpl.c **** 
1515:.\PrimeImpl.c **** //@Created By: HIJH
1516:.\PrimeImpl.c **** //@Septembre de 2016
1517:.\PrimeImpl.c **** void PumpMiscellaneousConfiguration(LPVOID pparam)
1518:.\PrimeImpl.c **** {
 5745              		.loc 1 1518 0
 5746              		.cfi_startproc
 5747              		@ args = 0, pretend = 0, frame = 24
 5748              		@ frame_needed = 1, uses_anonymous_args = 0
 5749 0000 90B5     		push	{r4, r7, lr}
 5750              		.cfi_def_cfa_offset 12
 5751              		.cfi_offset 4, -12
 5752              		.cfi_offset 7, -8
 5753              		.cfi_offset 14, -4
 5754 0002 87B0     		sub	sp, sp, #28
ARM GAS  C:\Users\RECEPC~1\AppData\Local\Temp\ccQD6Oev.s 			page 129


 5755              		.cfi_def_cfa_offset 40
 5756 0004 00AF     		add	r7, sp, #0
 5757              		.cfi_def_cfa_register 7
 5758 0006 7860     		str	r0, [r7, #4]
1519:.\PrimeImpl.c ****     PNEAR_PUMPPTR ppump = (PNEAR_PUMPPTR)pparam;
 5759              		.loc 1 1519 0
 5760 0008 7B68     		ldr	r3, [r7, #4]
 5761 000a 7B61     		str	r3, [r7, #20]
1520:.\PrimeImpl.c ****     if(ppump)
 5762              		.loc 1 1520 0
 5763 000c 7B69     		ldr	r3, [r7, #20]
 5764 000e 002B     		cmp	r3, #0
 5765 0010 66D0     		beq	.L202
 5766              	.LBB38:
1521:.\PrimeImpl.c ****     {
1522:.\PrimeImpl.c ****         uint8_t index = 0;  
 5767              		.loc 1 1522 0
 5768 0012 0023     		movs	r3, #0
 5769 0014 FB74     		strb	r3, [r7, #19]
1523:.\PrimeImpl.c ****         memset(ppump->_rxbuffer, 0x00, _PUMP_RX_BUFFER_SIZE_);
 5770              		.loc 1 1523 0
 5771 0016 7B69     		ldr	r3, [r7, #20]
 5772 0018 03F5C473 		add	r3, r3, #392
 5773 001c 1846     		mov	r0, r3
 5774 001e 0021     		movs	r1, #0
 5775 0020 4FF4B472 		mov	r2, #360
 5776 0024 FFF7FEFF 		bl	memset
1524:.\PrimeImpl.c ****         PUARTMESSAGEPTR puartdisp = GetUARTMessageSlot(UART_DISPENSER);
 5777              		.loc 1 1524 0
 5778 0028 A220     		movs	r0, #162
 5779 002a FFF7FEFF 		bl	GetUARTMessageSlot
 5780 002e F860     		str	r0, [r7, #12]
1525:.\PrimeImpl.c ****         if(puartdisp)
 5781              		.loc 1 1525 0
 5782 0030 FB68     		ldr	r3, [r7, #12]
 5783 0032 002B     		cmp	r3, #0
 5784 0034 54D0     		beq	.L202
1526:.\PrimeImpl.c ****         {
1527:.\PrimeImpl.c **** ///////////////////////////////////////////////////////////////////////////////////////////////////
1528:.\PrimeImpl.c ****             puartdisp->_messagetx[index++] = SOM;//Start Of Message
 5785              		.loc 1 1528 0
 5786 0036 FB7C     		ldrb	r3, [r7, #19]	@ zero_extendqisi2
 5787 0038 5A1C     		adds	r2, r3, #1
 5788 003a FA74     		strb	r2, [r7, #19]
 5789 003c 1A46     		mov	r2, r3
 5790 003e FB68     		ldr	r3, [r7, #12]
 5791 0040 1344     		add	r3, r3, r2
 5792 0042 FF22     		movs	r2, #255
 5793 0044 1A71     		strb	r2, [r3, #4]
1529:.\PrimeImpl.c ****             puartdisp->_messagetx[index++] = 0xE9;//Data Length
 5794              		.loc 1 1529 0
 5795 0046 FB7C     		ldrb	r3, [r7, #19]	@ zero_extendqisi2
 5796 0048 5A1C     		adds	r2, r3, #1
 5797 004a FA74     		strb	r2, [r7, #19]
 5798 004c 1A46     		mov	r2, r3
 5799 004e FB68     		ldr	r3, [r7, #12]
 5800 0050 1344     		add	r3, r3, r2
ARM GAS  C:\Users\RECEPC~1\AppData\Local\Temp\ccQD6Oev.s 			page 130


 5801 0052 E922     		movs	r2, #233
 5802 0054 1A71     		strb	r2, [r3, #4]
1530:.\PrimeImpl.c ****             puartdisp->_messagetx[index++] = 0xFE;//Special Functions Next (0xB0 0xB0 0xB6)
 5803              		.loc 1 1530 0
 5804 0056 FB7C     		ldrb	r3, [r7, #19]	@ zero_extendqisi2
 5805 0058 5A1C     		adds	r2, r3, #1
 5806 005a FA74     		strb	r2, [r7, #19]
 5807 005c 1A46     		mov	r2, r3
 5808 005e FB68     		ldr	r3, [r7, #12]
 5809 0060 1344     		add	r3, r3, r2
 5810 0062 FE22     		movs	r2, #254
 5811 0064 1A71     		strb	r2, [r3, #4]
1531:.\PrimeImpl.c ****             puartdisp->_messagetx[index++] = 0xEE;//Miscellaneous Pump Configuration Request (sf1)
 5812              		.loc 1 1531 0
 5813 0066 FB7C     		ldrb	r3, [r7, #19]	@ zero_extendqisi2
 5814 0068 5A1C     		adds	r2, r3, #1
 5815 006a FA74     		strb	r2, [r7, #19]
 5816 006c 1A46     		mov	r2, r3
 5817 006e FB68     		ldr	r3, [r7, #12]
 5818 0070 1344     		add	r3, r3, r2
 5819 0072 EE22     		movs	r2, #238
 5820 0074 1A71     		strb	r2, [r3, #4]
1532:.\PrimeImpl.c ****             puartdisp->_messagetx[index++] = 0xE0;//Miscellaneous Pump Configuration Request (sf2)
 5821              		.loc 1 1532 0
 5822 0076 FB7C     		ldrb	r3, [r7, #19]	@ zero_extendqisi2
 5823 0078 5A1C     		adds	r2, r3, #1
 5824 007a FA74     		strb	r2, [r7, #19]
 5825 007c 1A46     		mov	r2, r3
 5826 007e FB68     		ldr	r3, [r7, #12]
 5827 0080 1344     		add	r3, r3, r2
 5828 0082 E022     		movs	r2, #224
 5829 0084 1A71     		strb	r2, [r3, #4]
1533:.\PrimeImpl.c ****             puartdisp->_messagetx[index++] = 0xE0;//Miscellaneous Pump Configuration Request (sf3)
 5830              		.loc 1 1533 0
 5831 0086 FB7C     		ldrb	r3, [r7, #19]	@ zero_extendqisi2
 5832 0088 5A1C     		adds	r2, r3, #1
 5833 008a FA74     		strb	r2, [r7, #19]
 5834 008c 1A46     		mov	r2, r3
 5835 008e FB68     		ldr	r3, [r7, #12]
 5836 0090 1344     		add	r3, r3, r2
 5837 0092 E022     		movs	r2, #224
 5838 0094 1A71     		strb	r2, [r3, #4]
1534:.\PrimeImpl.c ****             puartdisp->_messagetx[index++] = 0xFB;
 5839              		.loc 1 1534 0
 5840 0096 FB7C     		ldrb	r3, [r7, #19]	@ zero_extendqisi2
 5841 0098 5A1C     		adds	r2, r3, #1
 5842 009a FA74     		strb	r2, [r7, #19]
 5843 009c 1A46     		mov	r2, r3
 5844 009e FB68     		ldr	r3, [r7, #12]
 5845 00a0 1344     		add	r3, r3, r2
 5846 00a2 FB22     		movs	r2, #251
 5847 00a4 1A71     		strb	r2, [r3, #4]
1535:.\PrimeImpl.c ****             puartdisp->_messagetx[index++] = GetLRC(puartdisp->_messagetx);
 5848              		.loc 1 1535 0
 5849 00a6 FB7C     		ldrb	r3, [r7, #19]	@ zero_extendqisi2
 5850 00a8 5A1C     		adds	r2, r3, #1
 5851 00aa FA74     		strb	r2, [r7, #19]
ARM GAS  C:\Users\RECEPC~1\AppData\Local\Temp\ccQD6Oev.s 			page 131


 5852 00ac 1C46     		mov	r4, r3
 5853 00ae FB68     		ldr	r3, [r7, #12]
 5854 00b0 0433     		adds	r3, r3, #4
 5855 00b2 1846     		mov	r0, r3
 5856 00b4 FFF7FEFF 		bl	GetLRC
 5857 00b8 0346     		mov	r3, r0
 5858 00ba 1A46     		mov	r2, r3
 5859 00bc FB68     		ldr	r3, [r7, #12]
 5860 00be 2344     		add	r3, r3, r4
 5861 00c0 1A71     		strb	r2, [r3, #4]
1536:.\PrimeImpl.c ****             puartdisp->_messagetx[index++] = EOM;
 5862              		.loc 1 1536 0
 5863 00c2 FB7C     		ldrb	r3, [r7, #19]	@ zero_extendqisi2
 5864 00c4 5A1C     		adds	r2, r3, #1
 5865 00c6 FA74     		strb	r2, [r7, #19]
 5866 00c8 1A46     		mov	r2, r3
 5867 00ca FB68     		ldr	r3, [r7, #12]
 5868 00cc 1344     		add	r3, r3, r2
 5869 00ce F022     		movs	r2, #240
 5870 00d0 1A71     		strb	r2, [r3, #4]
1537:.\PrimeImpl.c **** ///////////////////////////////////////////////////////////////////////////////////////////////////
1538:.\PrimeImpl.c ****             
1539:.\PrimeImpl.c ****             puartdisp->_messagelength = index;
 5871              		.loc 1 1539 0
 5872 00d2 FB7C     		ldrb	r3, [r7, #19]	@ zero_extendqisi2
 5873 00d4 9AB2     		uxth	r2, r3
 5874 00d6 FB68     		ldr	r3, [r7, #12]
 5875 00d8 5A80     		strh	r2, [r3, #2]	@ movhi
1540:.\PrimeImpl.c ****             puartdisp->_messagestate = PENDING;
 5876              		.loc 1 1540 0
 5877 00da FB68     		ldr	r3, [r7, #12]
 5878 00dc C222     		movs	r2, #194
 5879 00de 1A70     		strb	r2, [r3]
 5880              	.L202:
 5881              	.LBE38:
1541:.\PrimeImpl.c ****         }
1542:.\PrimeImpl.c ****     }
1543:.\PrimeImpl.c **** }
 5882              		.loc 1 1543 0
 5883 00e0 1C37     		adds	r7, r7, #28
 5884              		.cfi_def_cfa_offset 12
 5885 00e2 BD46     		mov	sp, r7
 5886              		.cfi_def_cfa_register 13
 5887              		@ sp needed
 5888 00e4 90BD     		pop	{r4, r7, pc}
 5889              		.cfi_endproc
 5890              	.LFE95:
 5891              		.size	PumpMiscellaneousConfiguration, .-PumpMiscellaneousConfiguration
 5892 00e6 00BF     		.section	.text.AcquirePumpMiscellaneousConfiguration,"ax",%progbits
 5893              		.align	2
 5894              		.global	AcquirePumpMiscellaneousConfiguration
 5895              		.thumb
 5896              		.thumb_func
 5897              		.type	AcquirePumpMiscellaneousConfiguration, %function
 5898              	AcquirePumpMiscellaneousConfiguration:
 5899              	.LFB96:
1544:.\PrimeImpl.c **** 
ARM GAS  C:\Users\RECEPC~1\AppData\Local\Temp\ccQD6Oev.s 			page 132


1545:.\PrimeImpl.c **** //@Created By: HIJH
1546:.\PrimeImpl.c **** //@Date: Septembre de 2016
1547:.\PrimeImpl.c **** //Receives the miscellaneous pump configuration information
1548:.\PrimeImpl.c **** void AcquirePumpMiscellaneousConfiguration(void *pparam)
1549:.\PrimeImpl.c **** {
 5900              		.loc 1 1549 0
 5901              		.cfi_startproc
 5902              		@ args = 0, pretend = 0, frame = 16
 5903              		@ frame_needed = 1, uses_anonymous_args = 0
 5904              		@ link register save eliminated.
 5905 0000 80B4     		push	{r7}
 5906              		.cfi_def_cfa_offset 4
 5907              		.cfi_offset 7, -4
 5908 0002 85B0     		sub	sp, sp, #20
 5909              		.cfi_def_cfa_offset 24
 5910 0004 00AF     		add	r7, sp, #0
 5911              		.cfi_def_cfa_register 7
 5912 0006 7860     		str	r0, [r7, #4]
1550:.\PrimeImpl.c ****     PPUMPTRANSACTIONJOBCONTEXTPTR pjob = (PPUMPTRANSACTIONJOBCONTEXTPTR)pparam;
 5913              		.loc 1 1550 0
 5914 0008 7B68     		ldr	r3, [r7, #4]
 5915 000a FB60     		str	r3, [r7, #12]
1551:.\PrimeImpl.c ****     if(pjob)
1552:.\PrimeImpl.c ****     {
1553:.\PrimeImpl.c ****         //HERE WE ACQUIRE THE MISCELLANEOUS PUMP CONFIGURATION INFORMATION AND STORE IT INTO
1554:.\PrimeImpl.c ****         //THE PERSISTENT FILE SYSTEM (EEPROM)
1555:.\PrimeImpl.c ****     }
1556:.\PrimeImpl.c **** }
 5916              		.loc 1 1556 0
 5917 000c 1437     		adds	r7, r7, #20
 5918              		.cfi_def_cfa_offset 4
 5919 000e BD46     		mov	sp, r7
 5920              		.cfi_def_cfa_register 13
 5921              		@ sp needed
 5922 0010 5DF8047B 		ldr	r7, [sp], #4
 5923              		.cfi_restore 7
 5924              		.cfi_def_cfa_offset 0
 5925 0014 7047     		bx	lr
 5926              		.cfi_endproc
 5927              	.LFE96:
 5928              		.size	AcquirePumpMiscellaneousConfiguration, .-AcquirePumpMiscellaneousConfiguration
 5929 0016 00BF     		.section	.text.PumpCompleteConfiguration,"ax",%progbits
 5930              		.align	2
 5931              		.global	PumpCompleteConfiguration
 5932              		.thumb
 5933              		.thumb_func
 5934              		.type	PumpCompleteConfiguration, %function
 5935              	PumpCompleteConfiguration:
 5936              	.LFB97:
1557:.\PrimeImpl.c **** 
1558:.\PrimeImpl.c **** //@Created By: HIJH
1559:.\PrimeImpl.c **** //@Septembre de 2016
1560:.\PrimeImpl.c **** void PumpCompleteConfiguration(LPVOID pparam)
1561:.\PrimeImpl.c **** {
 5937              		.loc 1 1561 0
 5938              		.cfi_startproc
 5939              		@ args = 0, pretend = 0, frame = 24
ARM GAS  C:\Users\RECEPC~1\AppData\Local\Temp\ccQD6Oev.s 			page 133


 5940              		@ frame_needed = 1, uses_anonymous_args = 0
 5941 0000 90B5     		push	{r4, r7, lr}
 5942              		.cfi_def_cfa_offset 12
 5943              		.cfi_offset 4, -12
 5944              		.cfi_offset 7, -8
 5945              		.cfi_offset 14, -4
 5946 0002 87B0     		sub	sp, sp, #28
 5947              		.cfi_def_cfa_offset 40
 5948 0004 00AF     		add	r7, sp, #0
 5949              		.cfi_def_cfa_register 7
 5950 0006 7860     		str	r0, [r7, #4]
1562:.\PrimeImpl.c ****     PNEAR_PUMPPTR ppump = (PNEAR_PUMPPTR)pparam;
 5951              		.loc 1 1562 0
 5952 0008 7B68     		ldr	r3, [r7, #4]
 5953 000a 7B61     		str	r3, [r7, #20]
1563:.\PrimeImpl.c ****     if(ppump)
 5954              		.loc 1 1563 0
 5955 000c 7B69     		ldr	r3, [r7, #20]
 5956 000e 002B     		cmp	r3, #0
 5957 0010 66D0     		beq	.L205
 5958              	.LBB39:
1564:.\PrimeImpl.c ****     {
1565:.\PrimeImpl.c ****         uint8_t index = 0;  
 5959              		.loc 1 1565 0
 5960 0012 0023     		movs	r3, #0
 5961 0014 FB74     		strb	r3, [r7, #19]
1566:.\PrimeImpl.c ****         memset(ppump->_rxbuffer, 0x00, _PUMP_RX_BUFFER_SIZE_);
 5962              		.loc 1 1566 0
 5963 0016 7B69     		ldr	r3, [r7, #20]
 5964 0018 03F5C473 		add	r3, r3, #392
 5965 001c 1846     		mov	r0, r3
 5966 001e 0021     		movs	r1, #0
 5967 0020 4FF4B472 		mov	r2, #360
 5968 0024 FFF7FEFF 		bl	memset
1567:.\PrimeImpl.c ****         PUARTMESSAGEPTR puartdisp = GetUARTMessageSlot(UART_DISPENSER);
 5969              		.loc 1 1567 0
 5970 0028 A220     		movs	r0, #162
 5971 002a FFF7FEFF 		bl	GetUARTMessageSlot
 5972 002e F860     		str	r0, [r7, #12]
1568:.\PrimeImpl.c ****         if(puartdisp)
 5973              		.loc 1 1568 0
 5974 0030 FB68     		ldr	r3, [r7, #12]
 5975 0032 002B     		cmp	r3, #0
 5976 0034 54D0     		beq	.L205
1569:.\PrimeImpl.c ****         {
1570:.\PrimeImpl.c **** ///////////////////////////////////////////////////////////////////////////////////////////////////
1571:.\PrimeImpl.c ****             puartdisp->_messagetx[index++] = SOM;//Start Of Message
 5977              		.loc 1 1571 0
 5978 0036 FB7C     		ldrb	r3, [r7, #19]	@ zero_extendqisi2
 5979 0038 5A1C     		adds	r2, r3, #1
 5980 003a FA74     		strb	r2, [r7, #19]
 5981 003c 1A46     		mov	r2, r3
 5982 003e FB68     		ldr	r3, [r7, #12]
 5983 0040 1344     		add	r3, r3, r2
 5984 0042 FF22     		movs	r2, #255
 5985 0044 1A71     		strb	r2, [r3, #4]
1572:.\PrimeImpl.c ****             puartdisp->_messagetx[index++] = 0xE9;//Data Length
ARM GAS  C:\Users\RECEPC~1\AppData\Local\Temp\ccQD6Oev.s 			page 134


 5986              		.loc 1 1572 0
 5987 0046 FB7C     		ldrb	r3, [r7, #19]	@ zero_extendqisi2
 5988 0048 5A1C     		adds	r2, r3, #1
 5989 004a FA74     		strb	r2, [r7, #19]
 5990 004c 1A46     		mov	r2, r3
 5991 004e FB68     		ldr	r3, [r7, #12]
 5992 0050 1344     		add	r3, r3, r2
 5993 0052 E922     		movs	r2, #233
 5994 0054 1A71     		strb	r2, [r3, #4]
1573:.\PrimeImpl.c ****             puartdisp->_messagetx[index++] = 0xFE;//Special Functions Next (0xB0 0xB0 0xB6)
 5995              		.loc 1 1573 0
 5996 0056 FB7C     		ldrb	r3, [r7, #19]	@ zero_extendqisi2
 5997 0058 5A1C     		adds	r2, r3, #1
 5998 005a FA74     		strb	r2, [r7, #19]
 5999 005c 1A46     		mov	r2, r3
 6000 005e FB68     		ldr	r3, [r7, #12]
 6001 0060 1344     		add	r3, r3, r2
 6002 0062 FE22     		movs	r2, #254
 6003 0064 1A71     		strb	r2, [r3, #4]
1574:.\PrimeImpl.c ****             puartdisp->_messagetx[index++] = 0xE6;//Complete Pump Configuration Request (sf1)
 6004              		.loc 1 1574 0
 6005 0066 FB7C     		ldrb	r3, [r7, #19]	@ zero_extendqisi2
 6006 0068 5A1C     		adds	r2, r3, #1
 6007 006a FA74     		strb	r2, [r7, #19]
 6008 006c 1A46     		mov	r2, r3
 6009 006e FB68     		ldr	r3, [r7, #12]
 6010 0070 1344     		add	r3, r3, r2
 6011 0072 E622     		movs	r2, #230
 6012 0074 1A71     		strb	r2, [r3, #4]
1575:.\PrimeImpl.c ****             puartdisp->_messagetx[index++] = 0xE0;//Complete Pump Configuration Request (sf2)
 6013              		.loc 1 1575 0
 6014 0076 FB7C     		ldrb	r3, [r7, #19]	@ zero_extendqisi2
 6015 0078 5A1C     		adds	r2, r3, #1
 6016 007a FA74     		strb	r2, [r7, #19]
 6017 007c 1A46     		mov	r2, r3
 6018 007e FB68     		ldr	r3, [r7, #12]
 6019 0080 1344     		add	r3, r3, r2
 6020 0082 E022     		movs	r2, #224
 6021 0084 1A71     		strb	r2, [r3, #4]
1576:.\PrimeImpl.c ****             puartdisp->_messagetx[index++] = 0xE0;//Complete Pump Configuration Request (sf3)
 6022              		.loc 1 1576 0
 6023 0086 FB7C     		ldrb	r3, [r7, #19]	@ zero_extendqisi2
 6024 0088 5A1C     		adds	r2, r3, #1
 6025 008a FA74     		strb	r2, [r7, #19]
 6026 008c 1A46     		mov	r2, r3
 6027 008e FB68     		ldr	r3, [r7, #12]
 6028 0090 1344     		add	r3, r3, r2
 6029 0092 E022     		movs	r2, #224
 6030 0094 1A71     		strb	r2, [r3, #4]
1577:.\PrimeImpl.c ****             puartdisp->_messagetx[index++] = 0xFB;
 6031              		.loc 1 1577 0
 6032 0096 FB7C     		ldrb	r3, [r7, #19]	@ zero_extendqisi2
 6033 0098 5A1C     		adds	r2, r3, #1
 6034 009a FA74     		strb	r2, [r7, #19]
 6035 009c 1A46     		mov	r2, r3
 6036 009e FB68     		ldr	r3, [r7, #12]
 6037 00a0 1344     		add	r3, r3, r2
ARM GAS  C:\Users\RECEPC~1\AppData\Local\Temp\ccQD6Oev.s 			page 135


 6038 00a2 FB22     		movs	r2, #251
 6039 00a4 1A71     		strb	r2, [r3, #4]
1578:.\PrimeImpl.c ****             puartdisp->_messagetx[index++] = GetLRC(puartdisp->_messagetx);
 6040              		.loc 1 1578 0
 6041 00a6 FB7C     		ldrb	r3, [r7, #19]	@ zero_extendqisi2
 6042 00a8 5A1C     		adds	r2, r3, #1
 6043 00aa FA74     		strb	r2, [r7, #19]
 6044 00ac 1C46     		mov	r4, r3
 6045 00ae FB68     		ldr	r3, [r7, #12]
 6046 00b0 0433     		adds	r3, r3, #4
 6047 00b2 1846     		mov	r0, r3
 6048 00b4 FFF7FEFF 		bl	GetLRC
 6049 00b8 0346     		mov	r3, r0
 6050 00ba 1A46     		mov	r2, r3
 6051 00bc FB68     		ldr	r3, [r7, #12]
 6052 00be 2344     		add	r3, r3, r4
 6053 00c0 1A71     		strb	r2, [r3, #4]
1579:.\PrimeImpl.c ****             puartdisp->_messagetx[index++] = EOM;
 6054              		.loc 1 1579 0
 6055 00c2 FB7C     		ldrb	r3, [r7, #19]	@ zero_extendqisi2
 6056 00c4 5A1C     		adds	r2, r3, #1
 6057 00c6 FA74     		strb	r2, [r7, #19]
 6058 00c8 1A46     		mov	r2, r3
 6059 00ca FB68     		ldr	r3, [r7, #12]
 6060 00cc 1344     		add	r3, r3, r2
 6061 00ce F022     		movs	r2, #240
 6062 00d0 1A71     		strb	r2, [r3, #4]
1580:.\PrimeImpl.c **** ///////////////////////////////////////////////////////////////////////////////////////////////////
1581:.\PrimeImpl.c ****             
1582:.\PrimeImpl.c ****             puartdisp->_messagelength = index;
 6063              		.loc 1 1582 0
 6064 00d2 FB7C     		ldrb	r3, [r7, #19]	@ zero_extendqisi2
 6065 00d4 9AB2     		uxth	r2, r3
 6066 00d6 FB68     		ldr	r3, [r7, #12]
 6067 00d8 5A80     		strh	r2, [r3, #2]	@ movhi
1583:.\PrimeImpl.c ****             puartdisp->_messagestate = PENDING;
 6068              		.loc 1 1583 0
 6069 00da FB68     		ldr	r3, [r7, #12]
 6070 00dc C222     		movs	r2, #194
 6071 00de 1A70     		strb	r2, [r3]
 6072              	.L205:
 6073              	.LBE39:
1584:.\PrimeImpl.c ****         }
1585:.\PrimeImpl.c ****     }
1586:.\PrimeImpl.c **** }
 6074              		.loc 1 1586 0
 6075 00e0 1C37     		adds	r7, r7, #28
 6076              		.cfi_def_cfa_offset 12
 6077 00e2 BD46     		mov	sp, r7
 6078              		.cfi_def_cfa_register 13
 6079              		@ sp needed
 6080 00e4 90BD     		pop	{r4, r7, pc}
 6081              		.cfi_endproc
 6082              	.LFE97:
 6083              		.size	PumpCompleteConfiguration, .-PumpCompleteConfiguration
 6084 00e6 00BF     		.section	.text.PumpHoseActiveState,"ax",%progbits
 6085              		.align	2
ARM GAS  C:\Users\RECEPC~1\AppData\Local\Temp\ccQD6Oev.s 			page 136


 6086              		.global	PumpHoseActiveState
 6087              		.thumb
 6088              		.thumb_func
 6089              		.type	PumpHoseActiveState, %function
 6090              	PumpHoseActiveState:
 6091              	.LFB98:
1587:.\PrimeImpl.c **** 
1588:.\PrimeImpl.c **** //@Created By: HIJH
1589:.\PrimeImpl.c **** //@Septembre de 2016
1590:.\PrimeImpl.c **** //Hose Selected/Status Request
1591:.\PrimeImpl.c **** void PumpHoseActiveState(LPVOID pparam)
1592:.\PrimeImpl.c **** {
 6092              		.loc 1 1592 0
 6093              		.cfi_startproc
 6094              		@ args = 0, pretend = 0, frame = 24
 6095              		@ frame_needed = 1, uses_anonymous_args = 0
 6096 0000 90B5     		push	{r4, r7, lr}
 6097              		.cfi_def_cfa_offset 12
 6098              		.cfi_offset 4, -12
 6099              		.cfi_offset 7, -8
 6100              		.cfi_offset 14, -4
 6101 0002 87B0     		sub	sp, sp, #28
 6102              		.cfi_def_cfa_offset 40
 6103 0004 00AF     		add	r7, sp, #0
 6104              		.cfi_def_cfa_register 7
 6105 0006 7860     		str	r0, [r7, #4]
1593:.\PrimeImpl.c ****     PNEAR_PUMPPTR ppump = (PNEAR_PUMPPTR)pparam;
 6106              		.loc 1 1593 0
 6107 0008 7B68     		ldr	r3, [r7, #4]
 6108 000a 7B61     		str	r3, [r7, #20]
1594:.\PrimeImpl.c ****     if(ppump)
 6109              		.loc 1 1594 0
 6110 000c 7B69     		ldr	r3, [r7, #20]
 6111 000e 002B     		cmp	r3, #0
 6112 0010 69D0     		beq	.L207
 6113              	.LBB40:
1595:.\PrimeImpl.c ****     {
1596:.\PrimeImpl.c ****         uint8_t index = 0;  
 6114              		.loc 1 1596 0
 6115 0012 0023     		movs	r3, #0
 6116 0014 FB74     		strb	r3, [r7, #19]
1597:.\PrimeImpl.c ****         memset(ppump->_rxbuffer, 0x00, _PUMP_RX_BUFFER_SIZE_);
 6117              		.loc 1 1597 0
 6118 0016 7B69     		ldr	r3, [r7, #20]
 6119 0018 03F5C473 		add	r3, r3, #392
 6120 001c 1846     		mov	r0, r3
 6121 001e 0021     		movs	r1, #0
 6122 0020 4FF4B472 		mov	r2, #360
 6123 0024 FFF7FEFF 		bl	memset
1598:.\PrimeImpl.c ****         PUARTMESSAGEPTR puartdisp = GetUARTMessageSlot(UART_DISPENSER);
 6124              		.loc 1 1598 0
 6125 0028 A220     		movs	r0, #162
 6126 002a FFF7FEFF 		bl	GetUARTMessageSlot
 6127 002e F860     		str	r0, [r7, #12]
1599:.\PrimeImpl.c ****         if(puartdisp)
 6128              		.loc 1 1599 0
 6129 0030 FB68     		ldr	r3, [r7, #12]
ARM GAS  C:\Users\RECEPC~1\AppData\Local\Temp\ccQD6Oev.s 			page 137


 6130 0032 002B     		cmp	r3, #0
 6131 0034 57D0     		beq	.L207
1600:.\PrimeImpl.c ****         {
1601:.\PrimeImpl.c ****             ppump->_hoseactivestate = 0x00;
 6132              		.loc 1 1601 0
 6133 0036 7B69     		ldr	r3, [r7, #20]
 6134 0038 0022     		movs	r2, #0
 6135 003a 1A71     		strb	r2, [r3, #4]
1602:.\PrimeImpl.c **** ///////////////////////////////////////////////////////////////////////////////////////////////////
1603:.\PrimeImpl.c ****             puartdisp->_messagetx[index++] = SOM;//Start Of Message
 6136              		.loc 1 1603 0
 6137 003c FB7C     		ldrb	r3, [r7, #19]	@ zero_extendqisi2
 6138 003e 5A1C     		adds	r2, r3, #1
 6139 0040 FA74     		strb	r2, [r7, #19]
 6140 0042 1A46     		mov	r2, r3
 6141 0044 FB68     		ldr	r3, [r7, #12]
 6142 0046 1344     		add	r3, r3, r2
 6143 0048 FF22     		movs	r2, #255
 6144 004a 1A71     		strb	r2, [r3, #4]
1604:.\PrimeImpl.c ****             puartdisp->_messagetx[index++] = 0xE9;//Data Length
 6145              		.loc 1 1604 0
 6146 004c FB7C     		ldrb	r3, [r7, #19]	@ zero_extendqisi2
 6147 004e 5A1C     		adds	r2, r3, #1
 6148 0050 FA74     		strb	r2, [r7, #19]
 6149 0052 1A46     		mov	r2, r3
 6150 0054 FB68     		ldr	r3, [r7, #12]
 6151 0056 1344     		add	r3, r3, r2
 6152 0058 E922     		movs	r2, #233
 6153 005a 1A71     		strb	r2, [r3, #4]
1605:.\PrimeImpl.c ****             puartdisp->_messagetx[index++] = 0xFE;//Special Functions Next (0xB0 0xB0 0xB6)
 6154              		.loc 1 1605 0
 6155 005c FB7C     		ldrb	r3, [r7, #19]	@ zero_extendqisi2
 6156 005e 5A1C     		adds	r2, r3, #1
 6157 0060 FA74     		strb	r2, [r7, #19]
 6158 0062 1A46     		mov	r2, r3
 6159 0064 FB68     		ldr	r3, [r7, #12]
 6160 0066 1344     		add	r3, r3, r2
 6161 0068 FE22     		movs	r2, #254
 6162 006a 1A71     		strb	r2, [r3, #4]
1606:.\PrimeImpl.c ****             puartdisp->_messagetx[index++] = 0xE0;//Complete Pump Configuration Request (sf1)
 6163              		.loc 1 1606 0
 6164 006c FB7C     		ldrb	r3, [r7, #19]	@ zero_extendqisi2
 6165 006e 5A1C     		adds	r2, r3, #1
 6166 0070 FA74     		strb	r2, [r7, #19]
 6167 0072 1A46     		mov	r2, r3
 6168 0074 FB68     		ldr	r3, [r7, #12]
 6169 0076 1344     		add	r3, r3, r2
 6170 0078 E022     		movs	r2, #224
 6171 007a 1A71     		strb	r2, [r3, #4]
1607:.\PrimeImpl.c ****             puartdisp->_messagetx[index++] = 0xE1;//Complete Pump Configuration Request (sf2)
 6172              		.loc 1 1607 0
 6173 007c FB7C     		ldrb	r3, [r7, #19]	@ zero_extendqisi2
 6174 007e 5A1C     		adds	r2, r3, #1
 6175 0080 FA74     		strb	r2, [r7, #19]
 6176 0082 1A46     		mov	r2, r3
 6177 0084 FB68     		ldr	r3, [r7, #12]
 6178 0086 1344     		add	r3, r3, r2
ARM GAS  C:\Users\RECEPC~1\AppData\Local\Temp\ccQD6Oev.s 			page 138


 6179 0088 E122     		movs	r2, #225
 6180 008a 1A71     		strb	r2, [r3, #4]
1608:.\PrimeImpl.c ****             puartdisp->_messagetx[index++] = 0xE0;//Complete Pump Configuration Request (sf3)
 6181              		.loc 1 1608 0
 6182 008c FB7C     		ldrb	r3, [r7, #19]	@ zero_extendqisi2
 6183 008e 5A1C     		adds	r2, r3, #1
 6184 0090 FA74     		strb	r2, [r7, #19]
 6185 0092 1A46     		mov	r2, r3
 6186 0094 FB68     		ldr	r3, [r7, #12]
 6187 0096 1344     		add	r3, r3, r2
 6188 0098 E022     		movs	r2, #224
 6189 009a 1A71     		strb	r2, [r3, #4]
1609:.\PrimeImpl.c ****             puartdisp->_messagetx[index++] = 0xFB;
 6190              		.loc 1 1609 0
 6191 009c FB7C     		ldrb	r3, [r7, #19]	@ zero_extendqisi2
 6192 009e 5A1C     		adds	r2, r3, #1
 6193 00a0 FA74     		strb	r2, [r7, #19]
 6194 00a2 1A46     		mov	r2, r3
 6195 00a4 FB68     		ldr	r3, [r7, #12]
 6196 00a6 1344     		add	r3, r3, r2
 6197 00a8 FB22     		movs	r2, #251
 6198 00aa 1A71     		strb	r2, [r3, #4]
1610:.\PrimeImpl.c ****             puartdisp->_messagetx[index++] = GetLRC(puartdisp->_messagetx);
 6199              		.loc 1 1610 0
 6200 00ac FB7C     		ldrb	r3, [r7, #19]	@ zero_extendqisi2
 6201 00ae 5A1C     		adds	r2, r3, #1
 6202 00b0 FA74     		strb	r2, [r7, #19]
 6203 00b2 1C46     		mov	r4, r3
 6204 00b4 FB68     		ldr	r3, [r7, #12]
 6205 00b6 0433     		adds	r3, r3, #4
 6206 00b8 1846     		mov	r0, r3
 6207 00ba FFF7FEFF 		bl	GetLRC
 6208 00be 0346     		mov	r3, r0
 6209 00c0 1A46     		mov	r2, r3
 6210 00c2 FB68     		ldr	r3, [r7, #12]
 6211 00c4 2344     		add	r3, r3, r4
 6212 00c6 1A71     		strb	r2, [r3, #4]
1611:.\PrimeImpl.c ****             puartdisp->_messagetx[index++] = EOM;
 6213              		.loc 1 1611 0
 6214 00c8 FB7C     		ldrb	r3, [r7, #19]	@ zero_extendqisi2
 6215 00ca 5A1C     		adds	r2, r3, #1
 6216 00cc FA74     		strb	r2, [r7, #19]
 6217 00ce 1A46     		mov	r2, r3
 6218 00d0 FB68     		ldr	r3, [r7, #12]
 6219 00d2 1344     		add	r3, r3, r2
 6220 00d4 F022     		movs	r2, #240
 6221 00d6 1A71     		strb	r2, [r3, #4]
1612:.\PrimeImpl.c **** ///////////////////////////////////////////////////////////////////////////////////////////////////
1613:.\PrimeImpl.c ****             
1614:.\PrimeImpl.c ****             puartdisp->_messagelength = index;
 6222              		.loc 1 1614 0
 6223 00d8 FB7C     		ldrb	r3, [r7, #19]	@ zero_extendqisi2
 6224 00da 9AB2     		uxth	r2, r3
 6225 00dc FB68     		ldr	r3, [r7, #12]
 6226 00de 5A80     		strh	r2, [r3, #2]	@ movhi
1615:.\PrimeImpl.c ****             puartdisp->_messagestate = PENDING;
 6227              		.loc 1 1615 0
ARM GAS  C:\Users\RECEPC~1\AppData\Local\Temp\ccQD6Oev.s 			page 139


 6228 00e0 FB68     		ldr	r3, [r7, #12]
 6229 00e2 C222     		movs	r2, #194
 6230 00e4 1A70     		strb	r2, [r3]
 6231              	.L207:
 6232              	.LBE40:
1616:.\PrimeImpl.c ****         }
1617:.\PrimeImpl.c ****     }
1618:.\PrimeImpl.c **** }
 6233              		.loc 1 1618 0
 6234 00e6 1C37     		adds	r7, r7, #28
 6235              		.cfi_def_cfa_offset 12
 6236 00e8 BD46     		mov	sp, r7
 6237              		.cfi_def_cfa_register 13
 6238              		@ sp needed
 6239 00ea 90BD     		pop	{r4, r7, pc}
 6240              		.cfi_endproc
 6241              	.LFE98:
 6242              		.size	PumpHoseActiveState, .-PumpHoseActiveState
 6243              		.section	.text.AcquirePumpHoseActiveState,"ax",%progbits
 6244              		.align	2
 6245              		.global	AcquirePumpHoseActiveState
 6246              		.thumb
 6247              		.thumb_func
 6248              		.type	AcquirePumpHoseActiveState, %function
 6249              	AcquirePumpHoseActiveState:
 6250              	.LFB99:
1619:.\PrimeImpl.c **** 
1620:.\PrimeImpl.c **** void AcquirePumpHoseActiveState(void *pparam)
1621:.\PrimeImpl.c **** {
 6251              		.loc 1 1621 0
 6252              		.cfi_startproc
 6253              		@ args = 0, pretend = 0, frame = 24
 6254              		@ frame_needed = 1, uses_anonymous_args = 0
 6255 0000 80B5     		push	{r7, lr}
 6256              		.cfi_def_cfa_offset 8
 6257              		.cfi_offset 7, -8
 6258              		.cfi_offset 14, -4
 6259 0002 86B0     		sub	sp, sp, #24
 6260              		.cfi_def_cfa_offset 32
 6261 0004 00AF     		add	r7, sp, #0
 6262              		.cfi_def_cfa_register 7
 6263 0006 7860     		str	r0, [r7, #4]
1622:.\PrimeImpl.c ****     PPUMPTRANSACTIONJOBCONTEXTPTR pjob = (PPUMPTRANSACTIONJOBCONTEXTPTR)pparam;
 6264              		.loc 1 1622 0
 6265 0008 7B68     		ldr	r3, [r7, #4]
 6266 000a 7B61     		str	r3, [r7, #20]
1623:.\PrimeImpl.c ****     if(pjob)    
 6267              		.loc 1 1623 0
 6268 000c 7B69     		ldr	r3, [r7, #20]
 6269 000e 002B     		cmp	r3, #0
 6270 0010 00F0C280 		beq	.L209
1624:.\PrimeImpl.c ****     {
1625:.\PrimeImpl.c ****         if(pjob->_ppump->_rxbuffer[0x00] == 0xBA)
 6271              		.loc 1 1625 0
 6272 0014 7B69     		ldr	r3, [r7, #20]
 6273 0016 DB69     		ldr	r3, [r3, #28]
 6274 0018 93F88831 		ldrb	r3, [r3, #392]	@ zero_extendqisi2
ARM GAS  C:\Users\RECEPC~1\AppData\Local\Temp\ccQD6Oev.s 			page 140


 6275 001c BA2B     		cmp	r3, #186
 6276 001e 40F0BB80 		bne	.L209
1626:.\PrimeImpl.c ****         {
1627:.\PrimeImpl.c ****             if((pjob->_ppump->_rxbuffer[0x0C] & 0x0F) == 0x01){
 6277              		.loc 1 1627 0
 6278 0022 7B69     		ldr	r3, [r7, #20]
 6279 0024 DB69     		ldr	r3, [r3, #28]
 6280 0026 93F89431 		ldrb	r3, [r3, #404]	@ zero_extendqisi2
 6281 002a 03F00F03 		and	r3, r3, #15
 6282 002e 012B     		cmp	r3, #1
 6283 0030 28D1     		bne	.L211
1628:.\PrimeImpl.c ****                 switch(pjob->_ppump->_rxbuffer[0x0E] & 0x0F)
 6284              		.loc 1 1628 0
 6285 0032 7B69     		ldr	r3, [r7, #20]
 6286 0034 DB69     		ldr	r3, [r3, #28]
 6287 0036 93F89631 		ldrb	r3, [r3, #406]	@ zero_extendqisi2
 6288 003a 03F00F03 		and	r3, r3, #15
 6289 003e 013B     		subs	r3, r3, #1
 6290 0040 032B     		cmp	r3, #3
 6291 0042 1FD8     		bhi	.L211
 6292 0044 01A2     		adr	r2, .L213
 6293 0046 52F823F0 		ldr	pc, [r2, r3, lsl #2]
 6294 004a 00BF     		.p2align 2
 6295              	.L213:
 6296 004c 5D000000 		.word	.L212+1
 6297 0050 67000000 		.word	.L214+1
 6298 0054 71000000 		.word	.L215+1
 6299 0058 7B000000 		.word	.L216+1
 6300              		.p2align 1
 6301              	.L212:
1629:.\PrimeImpl.c ****                 {
1630:.\PrimeImpl.c ****                     case 0x01://Hose A active
1631:.\PrimeImpl.c ****                         //Pump-Handle/Nozzle
1632:.\PrimeImpl.c ****                         pjob->_ppump->_hoseactivestate = 0x01;//ON/OFF state
 6302              		.loc 1 1632 0
 6303 005c 7B69     		ldr	r3, [r7, #20]
 6304 005e DB69     		ldr	r3, [r3, #28]
 6305 0060 0122     		movs	r2, #1
 6306 0062 1A71     		strb	r2, [r3, #4]
1633:.\PrimeImpl.c ****                         break;
 6307              		.loc 1 1633 0
 6308 0064 0EE0     		b	.L211
 6309              	.L214:
1634:.\PrimeImpl.c ****                     case 0x02://Hose B active
1635:.\PrimeImpl.c ****                         //Pump-Handle/Nozzle
1636:.\PrimeImpl.c ****                         pjob->_ppump->_hoseactivestate = 0x11;//ON/OFF state
 6310              		.loc 1 1636 0
 6311 0066 7B69     		ldr	r3, [r7, #20]
 6312 0068 DB69     		ldr	r3, [r3, #28]
 6313 006a 1122     		movs	r2, #17
 6314 006c 1A71     		strb	r2, [r3, #4]
1637:.\PrimeImpl.c ****                         break;
 6315              		.loc 1 1637 0
 6316 006e 09E0     		b	.L211
 6317              	.L215:
1638:.\PrimeImpl.c ****                     case 0x03://Hose C active
1639:.\PrimeImpl.c ****                         //Pump-Handle/Nozzle
ARM GAS  C:\Users\RECEPC~1\AppData\Local\Temp\ccQD6Oev.s 			page 141


1640:.\PrimeImpl.c ****                         pjob->_ppump->_hoseactivestate = 0x21;//ON/OFF state
 6318              		.loc 1 1640 0
 6319 0070 7B69     		ldr	r3, [r7, #20]
 6320 0072 DB69     		ldr	r3, [r3, #28]
 6321 0074 2122     		movs	r2, #33
 6322 0076 1A71     		strb	r2, [r3, #4]
1641:.\PrimeImpl.c ****                         break;
 6323              		.loc 1 1641 0
 6324 0078 04E0     		b	.L211
 6325              	.L216:
1642:.\PrimeImpl.c ****                     case 0x04://Hose D active
1643:.\PrimeImpl.c ****                         //Pump-Handle/Nozzle
1644:.\PrimeImpl.c ****                         pjob->_ppump->_hoseactivestate = 0x31;//ON/OFF state
 6326              		.loc 1 1644 0
 6327 007a 7B69     		ldr	r3, [r7, #20]
 6328 007c DB69     		ldr	r3, [r3, #28]
 6329 007e 3122     		movs	r2, #49
 6330 0080 1A71     		strb	r2, [r3, #4]
1645:.\PrimeImpl.c ****                         break;
 6331              		.loc 1 1645 0
 6332 0082 00BF     		nop
 6333              	.L211:
1646:.\PrimeImpl.c ****                 }
1647:.\PrimeImpl.c ****             }
1648:.\PrimeImpl.c ****             
1649:.\PrimeImpl.c ****             if((pjob->_ppump->_hoseactivestate & 0x0F) == 0x00)
 6334              		.loc 1 1649 0
 6335 0084 7B69     		ldr	r3, [r7, #20]
 6336 0086 DB69     		ldr	r3, [r3, #28]
 6337 0088 1B79     		ldrb	r3, [r3, #4]
 6338 008a DBB2     		uxtb	r3, r3
 6339 008c 03F00F03 		and	r3, r3, #15
 6340 0090 002B     		cmp	r3, #0
 6341 0092 1DD1     		bne	.L217
 6342              	.LBB41:
1650:.\PrimeImpl.c ****             {
1651:.\PrimeImpl.c ****                 _ALLOCATE_SINKMESSAGE_SLOT(psinkmsg);
 6343              		.loc 1 1651 0
 6344 0094 FFF7FEFF 		bl	AllocateMessageSlot
 6345 0098 3861     		str	r0, [r7, #16]
1652:.\PrimeImpl.c ****                 if(psinkmsg)
 6346              		.loc 1 1652 0
 6347 009a 3B69     		ldr	r3, [r7, #16]
 6348 009c 002B     		cmp	r3, #0
 6349 009e 16D0     		beq	.L218
1653:.\PrimeImpl.c ****                 {
1654:.\PrimeImpl.c ****                     psinkmsg->_messageid = DISPENSER_ACQUIRE_PUMP_HOSE;
 6350              		.loc 1 1654 0
 6351 00a0 3B69     		ldr	r3, [r7, #16]
 6352 00a2 0922     		movs	r2, #9
 6353 00a4 5A70     		strb	r2, [r3, #1]
1655:.\PrimeImpl.c ****                     psinkmsg->_messagedelay = _SINK_TIMEOUT_500MS_;
 6354              		.loc 1 1655 0
 6355 00a6 3B69     		ldr	r3, [r7, #16]
 6356 00a8 4FF4FA72 		mov	r2, #500
 6357 00ac 9A80     		strh	r2, [r3, #4]	@ movhi
1656:.\PrimeImpl.c ****                     psinkmsg->_messagetype = DELAYEDALLINTERESTED;
ARM GAS  C:\Users\RECEPC~1\AppData\Local\Temp\ccQD6Oev.s 			page 142


 6358              		.loc 1 1656 0
 6359 00ae 3B69     		ldr	r3, [r7, #16]
 6360 00b0 0522     		movs	r2, #5
 6361 00b2 9A70     		strb	r2, [r3, #2]
1657:.\PrimeImpl.c ****                     psinkmsg->_pdata = pjob->_ppump;
 6362              		.loc 1 1657 0
 6363 00b4 7B69     		ldr	r3, [r7, #20]
 6364 00b6 DA69     		ldr	r2, [r3, #28]
 6365 00b8 3B69     		ldr	r3, [r7, #16]
 6366 00ba C3F89021 		str	r2, [r3, #400]
1658:.\PrimeImpl.c ****                     psinkmsg->_messagestate = SINK_BUSY;
 6367              		.loc 1 1658 0
 6368 00be 3B69     		ldr	r3, [r7, #16]
 6369 00c0 0322     		movs	r2, #3
 6370 00c2 DA70     		strb	r2, [r3, #3]
1659:.\PrimeImpl.c ****                     pjob->_ppump->_pumplocked = true;
 6371              		.loc 1 1659 0
 6372 00c4 7B69     		ldr	r3, [r7, #20]
 6373 00c6 DB69     		ldr	r3, [r3, #28]
 6374 00c8 0122     		movs	r2, #1
 6375 00ca DA72     		strb	r2, [r3, #11]
 6376              	.LBE41:
 6377 00cc 64E0     		b	.L209
 6378              	.L218:
 6379 00ce 63E0     		b	.L209
 6380              	.L217:
1660:.\PrimeImpl.c ****                 }
1661:.\PrimeImpl.c ****                                 
1662:.\PrimeImpl.c ****             }
1663:.\PrimeImpl.c ****             else
1664:.\PrimeImpl.c ****             {
1665:.\PrimeImpl.c ****                 if(((pjob->_ppump->_hoseactivestate & 0xF0) >> 4) != pjob->_ppump->_authorizationin
 6381              		.loc 1 1665 0
 6382 00d0 7B69     		ldr	r3, [r7, #20]
 6383 00d2 DB69     		ldr	r3, [r3, #28]
 6384 00d4 1B79     		ldrb	r3, [r3, #4]
 6385 00d6 DBB2     		uxtb	r3, r3
 6386 00d8 1B09     		lsrs	r3, r3, #4
 6387 00da DAB2     		uxtb	r2, r3
 6388 00dc 7B69     		ldr	r3, [r7, #20]
 6389 00de DB69     		ldr	r3, [r3, #28]
 6390 00e0 93F87A3B 		ldrb	r3, [r3, #2938]
 6391 00e4 DBB2     		uxtb	r3, r3
 6392 00e6 9A42     		cmp	r2, r3
 6393 00e8 31D0     		beq	.L219
 6394              	.LBB42:
1666:.\PrimeImpl.c ****                 {
1667:.\PrimeImpl.c ****                     _ALLOCATE_SINKMESSAGE_SLOT(psinkmsg);
 6395              		.loc 1 1667 0
 6396 00ea FFF7FEFF 		bl	AllocateMessageSlot
 6397 00ee F860     		str	r0, [r7, #12]
1668:.\PrimeImpl.c ****                     if(psinkmsg)
 6398              		.loc 1 1668 0
 6399 00f0 FB68     		ldr	r3, [r7, #12]
 6400 00f2 002B     		cmp	r3, #0
 6401 00f4 15D0     		beq	.L220
1669:.\PrimeImpl.c ****                     {
ARM GAS  C:\Users\RECEPC~1\AppData\Local\Temp\ccQD6Oev.s 			page 143


1670:.\PrimeImpl.c ****                         psinkmsg->_messageid = DISPENSER_ACQUIRE_PUMP_HOSE;
 6402              		.loc 1 1670 0
 6403 00f6 FB68     		ldr	r3, [r7, #12]
 6404 00f8 0922     		movs	r2, #9
 6405 00fa 5A70     		strb	r2, [r3, #1]
1671:.\PrimeImpl.c ****                         psinkmsg->_messagedelay = _SINK_TIMEOUT_500MS_;
 6406              		.loc 1 1671 0
 6407 00fc FB68     		ldr	r3, [r7, #12]
 6408 00fe 4FF4FA72 		mov	r2, #500
 6409 0102 9A80     		strh	r2, [r3, #4]	@ movhi
1672:.\PrimeImpl.c ****                         psinkmsg->_messagetype = DELAYEDALLINTERESTED;
 6410              		.loc 1 1672 0
 6411 0104 FB68     		ldr	r3, [r7, #12]
 6412 0106 0522     		movs	r2, #5
 6413 0108 9A70     		strb	r2, [r3, #2]
1673:.\PrimeImpl.c ****                         psinkmsg->_pdata = pjob->_ppump;
 6414              		.loc 1 1673 0
 6415 010a 7B69     		ldr	r3, [r7, #20]
 6416 010c DA69     		ldr	r2, [r3, #28]
 6417 010e FB68     		ldr	r3, [r7, #12]
 6418 0110 C3F89021 		str	r2, [r3, #400]
1674:.\PrimeImpl.c ****                         psinkmsg->_messagestate = SINK_BUSY;
 6419              		.loc 1 1674 0
 6420 0114 FB68     		ldr	r3, [r7, #12]
 6421 0116 0322     		movs	r2, #3
 6422 0118 DA70     		strb	r2, [r3, #3]
1675:.\PrimeImpl.c ****                         pjob->_ppump->_pumplocked = true;
 6423              		.loc 1 1675 0
 6424 011a 7B69     		ldr	r3, [r7, #20]
 6425 011c DB69     		ldr	r3, [r3, #28]
 6426 011e 0122     		movs	r2, #1
 6427 0120 DA72     		strb	r2, [r3, #11]
 6428              	.L220:
1676:.\PrimeImpl.c ****                     }
1677:.\PrimeImpl.c ****                     
1678:.\PrimeImpl.c ****                     _REALLOCATE_SINKMESSAGE_SLOT(psinkmsg);
 6429              		.loc 1 1678 0
 6430 0122 FFF7FEFF 		bl	AllocateMessageSlot
 6431 0126 F860     		str	r0, [r7, #12]
1679:.\PrimeImpl.c ****                     if(psinkmsg)
 6432              		.loc 1 1679 0
 6433 0128 FB68     		ldr	r3, [r7, #12]
 6434 012a 002B     		cmp	r3, #0
 6435 012c 0ED0     		beq	.L221
1680:.\PrimeImpl.c ****                     {
1681:.\PrimeImpl.c ****                         psinkmsg->_messageid = DISPENSER_PUMP_BEEP_WARNING;
 6436              		.loc 1 1681 0
 6437 012e FB68     		ldr	r3, [r7, #12]
 6438 0130 1522     		movs	r2, #21
 6439 0132 5A70     		strb	r2, [r3, #1]
1682:.\PrimeImpl.c ****                         psinkmsg->_messagetype = FIRSTFOUND;
 6440              		.loc 1 1682 0
 6441 0134 FB68     		ldr	r3, [r7, #12]
 6442 0136 0322     		movs	r2, #3
 6443 0138 9A70     		strb	r2, [r3, #2]
1683:.\PrimeImpl.c ****                         psinkmsg->_pdata = pjob->_ppump;
 6444              		.loc 1 1683 0
ARM GAS  C:\Users\RECEPC~1\AppData\Local\Temp\ccQD6Oev.s 			page 144


 6445 013a 7B69     		ldr	r3, [r7, #20]
 6446 013c DA69     		ldr	r2, [r3, #28]
 6447 013e FB68     		ldr	r3, [r7, #12]
 6448 0140 C3F89021 		str	r2, [r3, #400]
1684:.\PrimeImpl.c ****                         psinkmsg->_messagestate = SINK_BUSY;
 6449              		.loc 1 1684 0
 6450 0144 FB68     		ldr	r3, [r7, #12]
 6451 0146 0322     		movs	r2, #3
 6452 0148 DA70     		strb	r2, [r3, #3]
 6453              	.LBE42:
 6454 014a 25E0     		b	.L209
 6455              	.L221:
 6456 014c 24E0     		b	.L209
 6457              	.L219:
 6458              	.LBB43:
1685:.\PrimeImpl.c ****                     }
1686:.\PrimeImpl.c ****                 }
1687:.\PrimeImpl.c ****                 else
1688:.\PrimeImpl.c ****                 {
1689:.\PrimeImpl.c ****                     pjob->_ppump->_pumplocked = false;
 6459              		.loc 1 1689 0
 6460 014e 7B69     		ldr	r3, [r7, #20]
 6461 0150 DB69     		ldr	r3, [r3, #28]
 6462 0152 0022     		movs	r2, #0
 6463 0154 DA72     		strb	r2, [r3, #11]
1690:.\PrimeImpl.c ****                     _ALLOCATE_SINKMESSAGE_SLOT(psinkmsg);
 6464              		.loc 1 1690 0
 6465 0156 FFF7FEFF 		bl	AllocateMessageSlot
 6466 015a B860     		str	r0, [r7, #8]
1691:.\PrimeImpl.c ****                     if(psinkmsg)
 6467              		.loc 1 1691 0
 6468 015c BB68     		ldr	r3, [r7, #8]
 6469 015e 002B     		cmp	r3, #0
 6470 0160 1AD0     		beq	.L209
1692:.\PrimeImpl.c ****                     {
1693:.\PrimeImpl.c ****                         psinkmsg->_messageid = pjob->_ppump->_sinktransaction;
 6471              		.loc 1 1693 0
 6472 0162 7B69     		ldr	r3, [r7, #20]
 6473 0164 DB69     		ldr	r3, [r3, #28]
 6474 0166 9B79     		ldrb	r3, [r3, #6]
 6475 0168 DAB2     		uxtb	r2, r3
 6476 016a BB68     		ldr	r3, [r7, #8]
 6477 016c 5A70     		strb	r2, [r3, #1]
1694:.\PrimeImpl.c ****                         psinkmsg->_messagedelay = _SINK_TIMEOUT_1S_;
 6478              		.loc 1 1694 0
 6479 016e BB68     		ldr	r3, [r7, #8]
 6480 0170 4FF47A72 		mov	r2, #1000
 6481 0174 9A80     		strh	r2, [r3, #4]	@ movhi
1695:.\PrimeImpl.c ****                         psinkmsg->_messagetype = DELAYEDALLINTERESTED;
 6482              		.loc 1 1695 0
 6483 0176 BB68     		ldr	r3, [r7, #8]
 6484 0178 0522     		movs	r2, #5
 6485 017a 9A70     		strb	r2, [r3, #2]
1696:.\PrimeImpl.c ****                         psinkmsg->_buffer[0x00] = pjob->_ppump->_pendingtransaction;
 6486              		.loc 1 1696 0
 6487 017c 7B69     		ldr	r3, [r7, #20]
 6488 017e DB69     		ldr	r3, [r3, #28]
ARM GAS  C:\Users\RECEPC~1\AppData\Local\Temp\ccQD6Oev.s 			page 145


 6489 0180 DB79     		ldrb	r3, [r3, #7]
 6490 0182 DAB2     		uxtb	r2, r3
 6491 0184 BB68     		ldr	r3, [r7, #8]
 6492 0186 1A73     		strb	r2, [r3, #12]
1697:.\PrimeImpl.c ****                         psinkmsg->_pdata = pjob->_ppump;
 6493              		.loc 1 1697 0
 6494 0188 7B69     		ldr	r3, [r7, #20]
 6495 018a DA69     		ldr	r2, [r3, #28]
 6496 018c BB68     		ldr	r3, [r7, #8]
 6497 018e C3F89021 		str	r2, [r3, #400]
1698:.\PrimeImpl.c ****                         psinkmsg->_messagestate = SINK_BUSY;
 6498              		.loc 1 1698 0
 6499 0192 BB68     		ldr	r3, [r7, #8]
 6500 0194 0322     		movs	r2, #3
 6501 0196 DA70     		strb	r2, [r3, #3]
 6502              	.L209:
 6503              	.LBE43:
1699:.\PrimeImpl.c ****                     }
1700:.\PrimeImpl.c ****                 }
1701:.\PrimeImpl.c ****             }
1702:.\PrimeImpl.c ****         }
1703:.\PrimeImpl.c ****     }
1704:.\PrimeImpl.c **** }
 6504              		.loc 1 1704 0
 6505 0198 1837     		adds	r7, r7, #24
 6506              		.cfi_def_cfa_offset 8
 6507 019a BD46     		mov	sp, r7
 6508              		.cfi_def_cfa_register 13
 6509              		@ sp needed
 6510 019c 80BD     		pop	{r7, pc}
 6511              		.cfi_endproc
 6512              	.LFE99:
 6513              		.size	AcquirePumpHoseActiveState, .-AcquirePumpHoseActiveState
 6514 019e 00BF     		.section	.text.AcquirePumpCompleteConfiguration,"ax",%progbits
 6515              		.align	2
 6516              		.global	AcquirePumpCompleteConfiguration
 6517              		.thumb
 6518              		.thumb_func
 6519              		.type	AcquirePumpCompleteConfiguration, %function
 6520              	AcquirePumpCompleteConfiguration:
 6521              	.LFB100:
1705:.\PrimeImpl.c **** 
1706:.\PrimeImpl.c **** //@Created By: HIJH
1707:.\PrimeImpl.c **** //@Date: Septembre de 2016
1708:.\PrimeImpl.c **** //Receives the complete pump configuration information
1709:.\PrimeImpl.c **** void AcquirePumpCompleteConfiguration(void *pparam)
1710:.\PrimeImpl.c **** {
 6522              		.loc 1 1710 0
 6523              		.cfi_startproc
 6524              		@ args = 0, pretend = 0, frame = 32
 6525              		@ frame_needed = 1, uses_anonymous_args = 0
 6526 0000 90B5     		push	{r4, r7, lr}
 6527              		.cfi_def_cfa_offset 12
 6528              		.cfi_offset 4, -12
 6529              		.cfi_offset 7, -8
 6530              		.cfi_offset 14, -4
 6531 0002 89B0     		sub	sp, sp, #36
ARM GAS  C:\Users\RECEPC~1\AppData\Local\Temp\ccQD6Oev.s 			page 146


 6532              		.cfi_def_cfa_offset 48
 6533 0004 00AF     		add	r7, sp, #0
 6534              		.cfi_def_cfa_register 7
 6535 0006 7860     		str	r0, [r7, #4]
1711:.\PrimeImpl.c ****     PPUMPTRANSACTIONJOBCONTEXTPTR pjob = (PPUMPTRANSACTIONJOBCONTEXTPTR)pparam;
 6536              		.loc 1 1711 0
 6537 0008 7B68     		ldr	r3, [r7, #4]
 6538 000a BB61     		str	r3, [r7, #24]
1712:.\PrimeImpl.c ****     if(pjob)    
 6539              		.loc 1 1712 0
 6540 000c BB69     		ldr	r3, [r7, #24]
 6541 000e 002B     		cmp	r3, #0
 6542 0010 01F00C80 		beq	.L222
 6543              	.LBB44:
1713:.\PrimeImpl.c ****     {
1714:.\PrimeImpl.c ****         uint8 index = 0;
 6544              		.loc 1 1714 0
 6545 0014 0023     		movs	r3, #0
 6546 0016 FB75     		strb	r3, [r7, #23]
1715:.\PrimeImpl.c ****         //NOT USED!! JUST FOR DEBUGGING PURPOSES!
1716:.\PrimeImpl.c ****         //The "index" variable has been kept in some lines of code just for reference.
1717:.\PrimeImpl.c ****         //uint8 remblocks = (TranslateSpecialFuncionDigit(pjob->_ppump->_rxbuffer[7 + 45*index]) <<
1718:.\PrimeImpl.c ****         //HERE WE ACQUIRE THE MISCELLANEOUS PUMP CONFIGURATION INFORMATION AND STORE IT INTO
1719:.\PrimeImpl.c ****         //THE PERSISTENT FILE SYSTEM (EEPROM)        
1720:.\PrimeImpl.c ****         if(pjob->_ppump->_rxbuffer[0 + 45*index] == 0xBA)
 6547              		.loc 1 1720 0
 6548 0018 BB69     		ldr	r3, [r7, #24]
 6549 001a D969     		ldr	r1, [r3, #28]
 6550 001c FA7D     		ldrb	r2, [r7, #23]	@ zero_extendqisi2
 6551 001e 1346     		mov	r3, r2
 6552 0020 5B00     		lsls	r3, r3, #1
 6553 0022 1344     		add	r3, r3, r2
 6554 0024 1A01     		lsls	r2, r3, #4
 6555 0026 D31A     		subs	r3, r2, r3
 6556 0028 0B44     		add	r3, r3, r1
 6557 002a 93F88831 		ldrb	r3, [r3, #392]	@ zero_extendqisi2
 6558 002e BA2B     		cmp	r3, #186
 6559 0030 40F0FC87 		bne	.L222
 6560              	.LBB45:
1721:.\PrimeImpl.c ****         {
1722:.\PrimeImpl.c ****             
1723:.\PrimeImpl.c ****             ClearEepromBuffer();
 6561              		.loc 1 1723 0
 6562 0034 FFF7FEFF 		bl	ClearEepromBuffer
1724:.\PrimeImpl.c ****             bool targetmemoryareafound = false;
 6563              		.loc 1 1724 0
 6564 0038 0023     		movs	r3, #0
 6565 003a FB77     		strb	r3, [r7, #31]
1725:.\PrimeImpl.c ****             uint16 eeprompumpconfigmemorypageid = 0;
 6566              		.loc 1 1725 0
 6567 003c 0023     		movs	r3, #0
 6568 003e BB83     		strh	r3, [r7, #28]	@ movhi
1726:.\PrimeImpl.c ****             //WE ALWAYS READ THE PAGE FROM THE EEPROM BEFORE SINCE AFTER MODIFYING ANY FIELD IT MUS
1727:.\PrimeImpl.c ****             eeprompumpconfigmemorypageid = (uint16)EEPROM_DISPENSER_PUMP1_LAYOUT_PAGE;
 6569              		.loc 1 1727 0
 6570 0040 4FF40073 		mov	r3, #512
 6571 0044 BB83     		strh	r3, [r7, #28]	@ movhi
ARM GAS  C:\Users\RECEPC~1\AppData\Local\Temp\ccQD6Oev.s 			page 147


1728:.\PrimeImpl.c ****             LoadEepromPage(eeprompumpconfigmemorypageid);
 6572              		.loc 1 1728 0
 6573 0046 BB8B     		ldrh	r3, [r7, #28]
 6574 0048 1846     		mov	r0, r3
 6575 004a FFF7FEFF 		bl	LoadEepromPage
1729:.\PrimeImpl.c ****             if(TranslateSpecialFuncionDigit(pjob->_ppump->_rxbuffer[3 + 45*index]) != (GetEepromBuf
 6576              		.loc 1 1729 0
 6577 004e BB69     		ldr	r3, [r7, #24]
 6578 0050 D969     		ldr	r1, [r3, #28]
 6579 0052 FA7D     		ldrb	r2, [r7, #23]	@ zero_extendqisi2
 6580 0054 1346     		mov	r3, r2
 6581 0056 5B00     		lsls	r3, r3, #1
 6582 0058 1344     		add	r3, r3, r2
 6583 005a 1A01     		lsls	r2, r3, #4
 6584 005c D31A     		subs	r3, r2, r3
 6585 005e 0333     		adds	r3, r3, #3
 6586 0060 0B44     		add	r3, r3, r1
 6587 0062 93F88831 		ldrb	r3, [r3, #392]	@ zero_extendqisi2
 6588 0066 1846     		mov	r0, r3
 6589 0068 FFF7FEFF 		bl	TranslateSpecialFuncionDigit
 6590 006c 0346     		mov	r3, r0
 6591 006e 1C46     		mov	r4, r3
 6592 0070 FFF7FEFF 		bl	GetEepromBuffer
 6593 0074 0346     		mov	r3, r0
 6594 0076 1B78     		ldrb	r3, [r3]	@ zero_extendqisi2
 6595 0078 03F00F03 		and	r3, r3, #15
 6596 007c 9C42     		cmp	r4, r3
 6597 007e 68D0     		beq	.L224
1730:.\PrimeImpl.c ****             {
1731:.\PrimeImpl.c ****                 eeprompumpconfigmemorypageid = (uint16)EEPROM_DISPENSER_PUMP2_LAYOUT_PAGE;
 6598              		.loc 1 1731 0
 6599 0080 4FF41073 		mov	r3, #576
 6600 0084 BB83     		strh	r3, [r7, #28]	@ movhi
1732:.\PrimeImpl.c ****                 LoadEepromPage(eeprompumpconfigmemorypageid);
 6601              		.loc 1 1732 0
 6602 0086 BB8B     		ldrh	r3, [r7, #28]
 6603 0088 1846     		mov	r0, r3
 6604 008a FFF7FEFF 		bl	LoadEepromPage
1733:.\PrimeImpl.c ****                 if(TranslateSpecialFuncionDigit(pjob->_ppump->_rxbuffer[3 + 45*index]) != (GetEepro
 6605              		.loc 1 1733 0
 6606 008e BB69     		ldr	r3, [r7, #24]
 6607 0090 D969     		ldr	r1, [r3, #28]
 6608 0092 FA7D     		ldrb	r2, [r7, #23]	@ zero_extendqisi2
 6609 0094 1346     		mov	r3, r2
 6610 0096 5B00     		lsls	r3, r3, #1
 6611 0098 1344     		add	r3, r3, r2
 6612 009a 1A01     		lsls	r2, r3, #4
 6613 009c D31A     		subs	r3, r2, r3
 6614 009e 0333     		adds	r3, r3, #3
 6615 00a0 0B44     		add	r3, r3, r1
 6616 00a2 93F88831 		ldrb	r3, [r3, #392]	@ zero_extendqisi2
 6617 00a6 1846     		mov	r0, r3
 6618 00a8 FFF7FEFF 		bl	TranslateSpecialFuncionDigit
 6619 00ac 0346     		mov	r3, r0
 6620 00ae 1C46     		mov	r4, r3
 6621 00b0 FFF7FEFF 		bl	GetEepromBuffer
 6622 00b4 0346     		mov	r3, r0
ARM GAS  C:\Users\RECEPC~1\AppData\Local\Temp\ccQD6Oev.s 			page 148


 6623 00b6 1B78     		ldrb	r3, [r3]	@ zero_extendqisi2
 6624 00b8 03F00F03 		and	r3, r3, #15
 6625 00bc 9C42     		cmp	r4, r3
 6626 00be 45D0     		beq	.L225
1734:.\PrimeImpl.c ****                 {
1735:.\PrimeImpl.c ****                     eeprompumpconfigmemorypageid = (uint16)EEPROM_DISPENSER_PUMP3_LAYOUT_PAGE;
 6627              		.loc 1 1735 0
 6628 00c0 4FF42073 		mov	r3, #640
 6629 00c4 BB83     		strh	r3, [r7, #28]	@ movhi
1736:.\PrimeImpl.c ****                     LoadEepromPage(eeprompumpconfigmemorypageid);
 6630              		.loc 1 1736 0
 6631 00c6 BB8B     		ldrh	r3, [r7, #28]
 6632 00c8 1846     		mov	r0, r3
 6633 00ca FFF7FEFF 		bl	LoadEepromPage
1737:.\PrimeImpl.c ****                     if(TranslateSpecialFuncionDigit(pjob->_ppump->_rxbuffer[3 + 45*index]) != (GetE
 6634              		.loc 1 1737 0
 6635 00ce BB69     		ldr	r3, [r7, #24]
 6636 00d0 D969     		ldr	r1, [r3, #28]
 6637 00d2 FA7D     		ldrb	r2, [r7, #23]	@ zero_extendqisi2
 6638 00d4 1346     		mov	r3, r2
 6639 00d6 5B00     		lsls	r3, r3, #1
 6640 00d8 1344     		add	r3, r3, r2
 6641 00da 1A01     		lsls	r2, r3, #4
 6642 00dc D31A     		subs	r3, r2, r3
 6643 00de 0333     		adds	r3, r3, #3
 6644 00e0 0B44     		add	r3, r3, r1
 6645 00e2 93F88831 		ldrb	r3, [r3, #392]	@ zero_extendqisi2
 6646 00e6 1846     		mov	r0, r3
 6647 00e8 FFF7FEFF 		bl	TranslateSpecialFuncionDigit
 6648 00ec 0346     		mov	r3, r0
 6649 00ee 1C46     		mov	r4, r3
 6650 00f0 FFF7FEFF 		bl	GetEepromBuffer
 6651 00f4 0346     		mov	r3, r0
 6652 00f6 1B78     		ldrb	r3, [r3]	@ zero_extendqisi2
 6653 00f8 03F00F03 		and	r3, r3, #15
 6654 00fc 9C42     		cmp	r4, r3
 6655 00fe 22D0     		beq	.L226
1738:.\PrimeImpl.c ****                     {
1739:.\PrimeImpl.c ****                         eeprompumpconfigmemorypageid = (uint16)EEPROM_DISPENSER_PUMP4_LAYOUT_PAGE;
 6656              		.loc 1 1739 0
 6657 0100 4FF43073 		mov	r3, #704
 6658 0104 BB83     		strh	r3, [r7, #28]	@ movhi
1740:.\PrimeImpl.c ****                         LoadEepromPage(eeprompumpconfigmemorypageid);
 6659              		.loc 1 1740 0
 6660 0106 BB8B     		ldrh	r3, [r7, #28]
 6661 0108 1846     		mov	r0, r3
 6662 010a FFF7FEFF 		bl	LoadEepromPage
1741:.\PrimeImpl.c ****                         if(TranslateSpecialFuncionDigit(pjob->_ppump->_rxbuffer[3 + 45*index]) == (
 6663              		.loc 1 1741 0
 6664 010e BB69     		ldr	r3, [r7, #24]
 6665 0110 D969     		ldr	r1, [r3, #28]
 6666 0112 FA7D     		ldrb	r2, [r7, #23]	@ zero_extendqisi2
 6667 0114 1346     		mov	r3, r2
 6668 0116 5B00     		lsls	r3, r3, #1
 6669 0118 1344     		add	r3, r3, r2
 6670 011a 1A01     		lsls	r2, r3, #4
 6671 011c D31A     		subs	r3, r2, r3
ARM GAS  C:\Users\RECEPC~1\AppData\Local\Temp\ccQD6Oev.s 			page 149


 6672 011e 0333     		adds	r3, r3, #3
 6673 0120 0B44     		add	r3, r3, r1
 6674 0122 93F88831 		ldrb	r3, [r3, #392]	@ zero_extendqisi2
 6675 0126 1846     		mov	r0, r3
 6676 0128 FFF7FEFF 		bl	TranslateSpecialFuncionDigit
 6677 012c 0346     		mov	r3, r0
 6678 012e 1C46     		mov	r4, r3
 6679 0130 FFF7FEFF 		bl	GetEepromBuffer
 6680 0134 0346     		mov	r3, r0
 6681 0136 1B78     		ldrb	r3, [r3]	@ zero_extendqisi2
 6682 0138 03F00F03 		and	r3, r3, #15
 6683 013c 9C42     		cmp	r4, r3
 6684 013e 0AD1     		bne	.L230
1742:.\PrimeImpl.c ****                             targetmemoryareafound = true;
 6685              		.loc 1 1742 0
 6686 0140 0123     		movs	r3, #1
 6687 0142 FB77     		strb	r3, [r7, #31]
 6688 0144 07E0     		b	.L230
 6689              	.L226:
1743:.\PrimeImpl.c ****                             
1744:.\PrimeImpl.c ****                     }else
1745:.\PrimeImpl.c ****                         targetmemoryareafound = true;
 6690              		.loc 1 1745 0
 6691 0146 0123     		movs	r3, #1
 6692 0148 FB77     		strb	r3, [r7, #31]
 6693 014a 04E0     		b	.L230
 6694              	.L225:
1746:.\PrimeImpl.c ****                 }else
1747:.\PrimeImpl.c ****                     targetmemoryareafound = true;
 6695              		.loc 1 1747 0
 6696 014c 0123     		movs	r3, #1
 6697 014e FB77     		strb	r3, [r7, #31]
 6698 0150 01E0     		b	.L230
 6699              	.L224:
1748:.\PrimeImpl.c ****             }else
1749:.\PrimeImpl.c ****                 targetmemoryareafound = true;
 6700              		.loc 1 1749 0
 6701 0152 0123     		movs	r3, #1
 6702 0154 FB77     		strb	r3, [r7, #31]
 6703              	.L230:
1750:.\PrimeImpl.c ****             
1751:.\PrimeImpl.c ****             ///////////////////////////////////////////////////////////////////////////////////////
1752:.\PrimeImpl.c ****             //JUST RETURN SINCE IT MEANS THAT THE PUMP/POSITION IDENTIFIERS HAVE NOT YET BEEN DEFIN
1753:.\PrimeImpl.c ****             if(!targetmemoryareafound)
 6704              		.loc 1 1753 0
 6705 0156 FB7F     		ldrb	r3, [r7, #31]
 6706 0158 83F00103 		eor	r3, r3, #1
 6707 015c DBB2     		uxtb	r3, r3
 6708 015e 002B     		cmp	r3, #0
 6709 0160 01D0     		beq	.L231
1754:.\PrimeImpl.c ****                 return;
 6710              		.loc 1 1754 0
 6711 0162 00F063BF 		b	.L222
 6712              	.L231:
1755:.\PrimeImpl.c ****                 
1756:.\PrimeImpl.c ****             //THE FIRST 16 BYTES ARE RESERVED FOR LOCAL PUMP CONFIGURATION INFORMATION
1757:.\PrimeImpl.c ****             LPRAWPTR ptreeprom = &(GetEepromBuffer()[16]);
ARM GAS  C:\Users\RECEPC~1\AppData\Local\Temp\ccQD6Oev.s 			page 150


 6713              		.loc 1 1757 0
 6714 0166 FFF7FEFF 		bl	GetEepromBuffer
 6715 016a 0346     		mov	r3, r0
 6716 016c 1033     		adds	r3, r3, #16
 6717 016e 3B61     		str	r3, [r7, #16]
1758:.\PrimeImpl.c ****             
1759:.\PrimeImpl.c ****             uint8 blkindex = 0;
 6718              		.loc 1 1759 0
 6719 0170 0023     		movs	r3, #0
 6720 0172 FB73     		strb	r3, [r7, #15]
1760:.\PrimeImpl.c ****             //NOT YET REQUIRED
1761:.\PrimeImpl.c ****             //uint8 msglength = (TranslateSpecialFuncionDigit(pjob->_ppump->_rxbuffer[1 + 45*index]
1762:.\PrimeImpl.c ****             
1763:.\PrimeImpl.c ****             //0
1764:.\PrimeImpl.c ****             //Pump Type
1765:.\PrimeImpl.c ****             *ptreeprom = ((TranslateSpecialFuncionDigit(pjob->_ppump->_rxbuffer[9 + 45*index + 2*bl
 6721              		.loc 1 1765 0
 6722 0174 BB69     		ldr	r3, [r7, #24]
 6723 0176 D969     		ldr	r1, [r3, #28]
 6724 0178 FA7D     		ldrb	r2, [r7, #23]	@ zero_extendqisi2
 6725 017a 1346     		mov	r3, r2
 6726 017c 5B00     		lsls	r3, r3, #1
 6727 017e 1344     		add	r3, r3, r2
 6728 0180 1A01     		lsls	r2, r3, #4
 6729 0182 D31A     		subs	r3, r2, r3
 6730 0184 03F10902 		add	r2, r3, #9
 6731 0188 FB7B     		ldrb	r3, [r7, #15]	@ zero_extendqisi2
 6732 018a 5B00     		lsls	r3, r3, #1
 6733 018c 1344     		add	r3, r3, r2
 6734 018e 0B44     		add	r3, r3, r1
 6735 0190 93F88831 		ldrb	r3, [r3, #392]	@ zero_extendqisi2
 6736 0194 1846     		mov	r0, r3
 6737 0196 FFF7FEFF 		bl	TranslateSpecialFuncionDigit
 6738 019a 0346     		mov	r3, r0
 6739 019c 1B01     		lsls	r3, r3, #4
 6740 019e DCB2     		uxtb	r4, r3
1766:.\PrimeImpl.c ****                             (TranslateSpecialFuncionDigit(pjob->_ppump->_rxbuffer[9 + 45*index + (2
 6741              		.loc 1 1766 0
 6742 01a0 BB69     		ldr	r3, [r7, #24]
 6743 01a2 D969     		ldr	r1, [r3, #28]
 6744 01a4 FA7D     		ldrb	r2, [r7, #23]	@ zero_extendqisi2
 6745 01a6 1346     		mov	r3, r2
 6746 01a8 5B00     		lsls	r3, r3, #1
 6747 01aa 1344     		add	r3, r3, r2
 6748 01ac 1A01     		lsls	r2, r3, #4
 6749 01ae D31A     		subs	r3, r2, r3
 6750 01b0 03F10902 		add	r2, r3, #9
 6751 01b4 FB7B     		ldrb	r3, [r7, #15]	@ zero_extendqisi2
 6752 01b6 5B00     		lsls	r3, r3, #1
 6753 01b8 0133     		adds	r3, r3, #1
 6754 01ba 1344     		add	r3, r3, r2
 6755 01bc 0B44     		add	r3, r3, r1
 6756 01be 93F88831 		ldrb	r3, [r3, #392]	@ zero_extendqisi2
 6757 01c2 1846     		mov	r0, r3
 6758 01c4 FFF7FEFF 		bl	TranslateSpecialFuncionDigit
 6759 01c8 0346     		mov	r3, r0
1765:.\PrimeImpl.c ****                             (TranslateSpecialFuncionDigit(pjob->_ppump->_rxbuffer[9 + 45*index + (2
ARM GAS  C:\Users\RECEPC~1\AppData\Local\Temp\ccQD6Oev.s 			page 151


 6760              		.loc 1 1765 0
 6761 01ca DBB2     		uxtb	r3, r3
 6762 01cc 03F00F03 		and	r3, r3, #15
 6763 01d0 DBB2     		uxtb	r3, r3
 6764 01d2 2246     		mov	r2, r4
 6765 01d4 1343     		orrs	r3, r3, r2
 6766 01d6 DBB2     		uxtb	r3, r3
 6767 01d8 DAB2     		uxtb	r2, r3
 6768 01da 3B69     		ldr	r3, [r7, #16]
 6769 01dc 1A70     		strb	r2, [r3]
1767:.\PrimeImpl.c **** 
1768:.\PrimeImpl.c ****             //1
1769:.\PrimeImpl.c ****             ptreeprom++;
 6770              		.loc 1 1769 0
 6771 01de 3B69     		ldr	r3, [r7, #16]
 6772 01e0 0133     		adds	r3, r3, #1
 6773 01e2 3B61     		str	r3, [r7, #16]
1770:.\PrimeImpl.c ****             blkindex++;
 6774              		.loc 1 1770 0
 6775 01e4 FB7B     		ldrb	r3, [r7, #15]	@ zero_extendqisi2
 6776 01e6 0133     		adds	r3, r3, #1
 6777 01e8 FB73     		strb	r3, [r7, #15]
1771:.\PrimeImpl.c ****             //Pump Model
1772:.\PrimeImpl.c ****             *ptreeprom = ((TranslateSpecialFuncionDigit(pjob->_ppump->_rxbuffer[9 + 45*index + 2*bl
 6778              		.loc 1 1772 0
 6779 01ea BB69     		ldr	r3, [r7, #24]
 6780 01ec D969     		ldr	r1, [r3, #28]
 6781 01ee FA7D     		ldrb	r2, [r7, #23]	@ zero_extendqisi2
 6782 01f0 1346     		mov	r3, r2
 6783 01f2 5B00     		lsls	r3, r3, #1
 6784 01f4 1344     		add	r3, r3, r2
 6785 01f6 1A01     		lsls	r2, r3, #4
 6786 01f8 D31A     		subs	r3, r2, r3
 6787 01fa 03F10902 		add	r2, r3, #9
 6788 01fe FB7B     		ldrb	r3, [r7, #15]	@ zero_extendqisi2
 6789 0200 5B00     		lsls	r3, r3, #1
 6790 0202 1344     		add	r3, r3, r2
 6791 0204 0B44     		add	r3, r3, r1
 6792 0206 93F88831 		ldrb	r3, [r3, #392]	@ zero_extendqisi2
 6793 020a 1846     		mov	r0, r3
 6794 020c FFF7FEFF 		bl	TranslateSpecialFuncionDigit
 6795 0210 0346     		mov	r3, r0
 6796 0212 1B01     		lsls	r3, r3, #4
 6797 0214 DCB2     		uxtb	r4, r3
1773:.\PrimeImpl.c ****                             (TranslateSpecialFuncionDigit(pjob->_ppump->_rxbuffer[9 + 45*index + (2
 6798              		.loc 1 1773 0
 6799 0216 BB69     		ldr	r3, [r7, #24]
 6800 0218 D969     		ldr	r1, [r3, #28]
 6801 021a FA7D     		ldrb	r2, [r7, #23]	@ zero_extendqisi2
 6802 021c 1346     		mov	r3, r2
 6803 021e 5B00     		lsls	r3, r3, #1
 6804 0220 1344     		add	r3, r3, r2
 6805 0222 1A01     		lsls	r2, r3, #4
 6806 0224 D31A     		subs	r3, r2, r3
 6807 0226 03F10902 		add	r2, r3, #9
 6808 022a FB7B     		ldrb	r3, [r7, #15]	@ zero_extendqisi2
 6809 022c 5B00     		lsls	r3, r3, #1
ARM GAS  C:\Users\RECEPC~1\AppData\Local\Temp\ccQD6Oev.s 			page 152


 6810 022e 0133     		adds	r3, r3, #1
 6811 0230 1344     		add	r3, r3, r2
 6812 0232 0B44     		add	r3, r3, r1
 6813 0234 93F88831 		ldrb	r3, [r3, #392]	@ zero_extendqisi2
 6814 0238 1846     		mov	r0, r3
 6815 023a FFF7FEFF 		bl	TranslateSpecialFuncionDigit
 6816 023e 0346     		mov	r3, r0
1772:.\PrimeImpl.c ****                             (TranslateSpecialFuncionDigit(pjob->_ppump->_rxbuffer[9 + 45*index + (2
 6817              		.loc 1 1772 0
 6818 0240 DBB2     		uxtb	r3, r3
 6819 0242 03F00F03 		and	r3, r3, #15
 6820 0246 DBB2     		uxtb	r3, r3
 6821 0248 2246     		mov	r2, r4
 6822 024a 1343     		orrs	r3, r3, r2
 6823 024c DBB2     		uxtb	r3, r3
 6824 024e DAB2     		uxtb	r2, r3
 6825 0250 3B69     		ldr	r3, [r7, #16]
 6826 0252 1A70     		strb	r2, [r3]
1774:.\PrimeImpl.c **** 
1775:.\PrimeImpl.c ****             //2
1776:.\PrimeImpl.c ****             ptreeprom++;
 6827              		.loc 1 1776 0
 6828 0254 3B69     		ldr	r3, [r7, #16]
 6829 0256 0133     		adds	r3, r3, #1
 6830 0258 3B61     		str	r3, [r7, #16]
1777:.\PrimeImpl.c ****             blkindex++;
 6831              		.loc 1 1777 0
 6832 025a FB7B     		ldrb	r3, [r7, #15]	@ zero_extendqisi2
 6833 025c 0133     		adds	r3, r3, #1
 6834 025e FB73     		strb	r3, [r7, #15]
1778:.\PrimeImpl.c ****             //Volume Units
1779:.\PrimeImpl.c ****             *ptreeprom = ((TranslateSpecialFuncionDigit(pjob->_ppump->_rxbuffer[9 + 45*index + 2*bl
 6835              		.loc 1 1779 0
 6836 0260 BB69     		ldr	r3, [r7, #24]
 6837 0262 D969     		ldr	r1, [r3, #28]
 6838 0264 FA7D     		ldrb	r2, [r7, #23]	@ zero_extendqisi2
 6839 0266 1346     		mov	r3, r2
 6840 0268 5B00     		lsls	r3, r3, #1
 6841 026a 1344     		add	r3, r3, r2
 6842 026c 1A01     		lsls	r2, r3, #4
 6843 026e D31A     		subs	r3, r2, r3
 6844 0270 03F10902 		add	r2, r3, #9
 6845 0274 FB7B     		ldrb	r3, [r7, #15]	@ zero_extendqisi2
 6846 0276 5B00     		lsls	r3, r3, #1
 6847 0278 1344     		add	r3, r3, r2
 6848 027a 0B44     		add	r3, r3, r1
 6849 027c 93F88831 		ldrb	r3, [r3, #392]	@ zero_extendqisi2
 6850 0280 1846     		mov	r0, r3
 6851 0282 FFF7FEFF 		bl	TranslateSpecialFuncionDigit
 6852 0286 0346     		mov	r3, r0
 6853 0288 1B01     		lsls	r3, r3, #4
 6854 028a DCB2     		uxtb	r4, r3
1780:.\PrimeImpl.c ****                             (TranslateSpecialFuncionDigit(pjob->_ppump->_rxbuffer[9 + 45*index + (2
 6855              		.loc 1 1780 0
 6856 028c BB69     		ldr	r3, [r7, #24]
 6857 028e D969     		ldr	r1, [r3, #28]
 6858 0290 FA7D     		ldrb	r2, [r7, #23]	@ zero_extendqisi2
ARM GAS  C:\Users\RECEPC~1\AppData\Local\Temp\ccQD6Oev.s 			page 153


 6859 0292 1346     		mov	r3, r2
 6860 0294 5B00     		lsls	r3, r3, #1
 6861 0296 1344     		add	r3, r3, r2
 6862 0298 1A01     		lsls	r2, r3, #4
 6863 029a D31A     		subs	r3, r2, r3
 6864 029c 03F10902 		add	r2, r3, #9
 6865 02a0 FB7B     		ldrb	r3, [r7, #15]	@ zero_extendqisi2
 6866 02a2 5B00     		lsls	r3, r3, #1
 6867 02a4 0133     		adds	r3, r3, #1
 6868 02a6 1344     		add	r3, r3, r2
 6869 02a8 0B44     		add	r3, r3, r1
 6870 02aa 93F88831 		ldrb	r3, [r3, #392]	@ zero_extendqisi2
 6871 02ae 1846     		mov	r0, r3
 6872 02b0 FFF7FEFF 		bl	TranslateSpecialFuncionDigit
 6873 02b4 0346     		mov	r3, r0
1779:.\PrimeImpl.c ****                             (TranslateSpecialFuncionDigit(pjob->_ppump->_rxbuffer[9 + 45*index + (2
 6874              		.loc 1 1779 0
 6875 02b6 DBB2     		uxtb	r3, r3
 6876 02b8 03F00F03 		and	r3, r3, #15
 6877 02bc DBB2     		uxtb	r3, r3
 6878 02be 2246     		mov	r2, r4
 6879 02c0 1343     		orrs	r3, r3, r2
 6880 02c2 DBB2     		uxtb	r3, r3
 6881 02c4 DAB2     		uxtb	r2, r3
 6882 02c6 3B69     		ldr	r3, [r7, #16]
 6883 02c8 1A70     		strb	r2, [r3]
1781:.\PrimeImpl.c ****                             
1782:.\PrimeImpl.c ****             //3
1783:.\PrimeImpl.c ****             ptreeprom++;
 6884              		.loc 1 1783 0
 6885 02ca 3B69     		ldr	r3, [r7, #16]
 6886 02cc 0133     		adds	r3, r3, #1
 6887 02ce 3B61     		str	r3, [r7, #16]
1784:.\PrimeImpl.c ****             blkindex++;
 6888              		.loc 1 1784 0
 6889 02d0 FB7B     		ldrb	r3, [r7, #15]	@ zero_extendqisi2
 6890 02d2 0133     		adds	r3, r3, #1
 6891 02d4 FB73     		strb	r3, [r7, #15]
1785:.\PrimeImpl.c ****             //Display Type
1786:.\PrimeImpl.c ****             *ptreeprom = ((TranslateSpecialFuncionDigit(pjob->_ppump->_rxbuffer[9 + 45*index + 2*bl
 6892              		.loc 1 1786 0
 6893 02d6 BB69     		ldr	r3, [r7, #24]
 6894 02d8 D969     		ldr	r1, [r3, #28]
 6895 02da FA7D     		ldrb	r2, [r7, #23]	@ zero_extendqisi2
 6896 02dc 1346     		mov	r3, r2
 6897 02de 5B00     		lsls	r3, r3, #1
 6898 02e0 1344     		add	r3, r3, r2
 6899 02e2 1A01     		lsls	r2, r3, #4
 6900 02e4 D31A     		subs	r3, r2, r3
 6901 02e6 03F10902 		add	r2, r3, #9
 6902 02ea FB7B     		ldrb	r3, [r7, #15]	@ zero_extendqisi2
 6903 02ec 5B00     		lsls	r3, r3, #1
 6904 02ee 1344     		add	r3, r3, r2
 6905 02f0 0B44     		add	r3, r3, r1
 6906 02f2 93F88831 		ldrb	r3, [r3, #392]	@ zero_extendqisi2
 6907 02f6 1846     		mov	r0, r3
 6908 02f8 FFF7FEFF 		bl	TranslateSpecialFuncionDigit
ARM GAS  C:\Users\RECEPC~1\AppData\Local\Temp\ccQD6Oev.s 			page 154


 6909 02fc 0346     		mov	r3, r0
 6910 02fe 1B01     		lsls	r3, r3, #4
 6911 0300 DCB2     		uxtb	r4, r3
1787:.\PrimeImpl.c ****                             (TranslateSpecialFuncionDigit(pjob->_ppump->_rxbuffer[9 + 45*index + (2
 6912              		.loc 1 1787 0
 6913 0302 BB69     		ldr	r3, [r7, #24]
 6914 0304 D969     		ldr	r1, [r3, #28]
 6915 0306 FA7D     		ldrb	r2, [r7, #23]	@ zero_extendqisi2
 6916 0308 1346     		mov	r3, r2
 6917 030a 5B00     		lsls	r3, r3, #1
 6918 030c 1344     		add	r3, r3, r2
 6919 030e 1A01     		lsls	r2, r3, #4
 6920 0310 D31A     		subs	r3, r2, r3
 6921 0312 03F10902 		add	r2, r3, #9
 6922 0316 FB7B     		ldrb	r3, [r7, #15]	@ zero_extendqisi2
 6923 0318 5B00     		lsls	r3, r3, #1
 6924 031a 0133     		adds	r3, r3, #1
 6925 031c 1344     		add	r3, r3, r2
 6926 031e 0B44     		add	r3, r3, r1
 6927 0320 93F88831 		ldrb	r3, [r3, #392]	@ zero_extendqisi2
 6928 0324 1846     		mov	r0, r3
 6929 0326 FFF7FEFF 		bl	TranslateSpecialFuncionDigit
 6930 032a 0346     		mov	r3, r0
1786:.\PrimeImpl.c ****                             (TranslateSpecialFuncionDigit(pjob->_ppump->_rxbuffer[9 + 45*index + (2
 6931              		.loc 1 1786 0
 6932 032c DBB2     		uxtb	r3, r3
 6933 032e 03F00F03 		and	r3, r3, #15
 6934 0332 DBB2     		uxtb	r3, r3
 6935 0334 2246     		mov	r2, r4
 6936 0336 1343     		orrs	r3, r3, r2
 6937 0338 DBB2     		uxtb	r3, r3
 6938 033a DAB2     		uxtb	r2, r3
 6939 033c 3B69     		ldr	r3, [r7, #16]
 6940 033e 1A70     		strb	r2, [r3]
1788:.\PrimeImpl.c ****             
1789:.\PrimeImpl.c ****             //4
1790:.\PrimeImpl.c ****             ptreeprom++;
 6941              		.loc 1 1790 0
 6942 0340 3B69     		ldr	r3, [r7, #16]
 6943 0342 0133     		adds	r3, r3, #1
 6944 0344 3B61     		str	r3, [r7, #16]
1791:.\PrimeImpl.c ****             blkindex++;
 6945              		.loc 1 1791 0
 6946 0346 FB7B     		ldrb	r3, [r7, #15]	@ zero_extendqisi2
 6947 0348 0133     		adds	r3, r3, #1
 6948 034a FB73     		strb	r3, [r7, #15]
1792:.\PrimeImpl.c ****             //Money Trucated / Rounded
1793:.\PrimeImpl.c ****             *ptreeprom = ((TranslateSpecialFuncionDigit(pjob->_ppump->_rxbuffer[9 + 45*index + 2*bl
 6949              		.loc 1 1793 0
 6950 034c BB69     		ldr	r3, [r7, #24]
 6951 034e D969     		ldr	r1, [r3, #28]
 6952 0350 FA7D     		ldrb	r2, [r7, #23]	@ zero_extendqisi2
 6953 0352 1346     		mov	r3, r2
 6954 0354 5B00     		lsls	r3, r3, #1
 6955 0356 1344     		add	r3, r3, r2
 6956 0358 1A01     		lsls	r2, r3, #4
 6957 035a D31A     		subs	r3, r2, r3
ARM GAS  C:\Users\RECEPC~1\AppData\Local\Temp\ccQD6Oev.s 			page 155


 6958 035c 03F10902 		add	r2, r3, #9
 6959 0360 FB7B     		ldrb	r3, [r7, #15]	@ zero_extendqisi2
 6960 0362 5B00     		lsls	r3, r3, #1
 6961 0364 1344     		add	r3, r3, r2
 6962 0366 0B44     		add	r3, r3, r1
 6963 0368 93F88831 		ldrb	r3, [r3, #392]	@ zero_extendqisi2
 6964 036c 1846     		mov	r0, r3
 6965 036e FFF7FEFF 		bl	TranslateSpecialFuncionDigit
 6966 0372 0346     		mov	r3, r0
 6967 0374 1B01     		lsls	r3, r3, #4
 6968 0376 DCB2     		uxtb	r4, r3
1794:.\PrimeImpl.c ****                             (TranslateSpecialFuncionDigit(pjob->_ppump->_rxbuffer[9 + 45*index + (2
 6969              		.loc 1 1794 0
 6970 0378 BB69     		ldr	r3, [r7, #24]
 6971 037a D969     		ldr	r1, [r3, #28]
 6972 037c FA7D     		ldrb	r2, [r7, #23]	@ zero_extendqisi2
 6973 037e 1346     		mov	r3, r2
 6974 0380 5B00     		lsls	r3, r3, #1
 6975 0382 1344     		add	r3, r3, r2
 6976 0384 1A01     		lsls	r2, r3, #4
 6977 0386 D31A     		subs	r3, r2, r3
 6978 0388 03F10902 		add	r2, r3, #9
 6979 038c FB7B     		ldrb	r3, [r7, #15]	@ zero_extendqisi2
 6980 038e 5B00     		lsls	r3, r3, #1
 6981 0390 0133     		adds	r3, r3, #1
 6982 0392 1344     		add	r3, r3, r2
 6983 0394 0B44     		add	r3, r3, r1
 6984 0396 93F88831 		ldrb	r3, [r3, #392]	@ zero_extendqisi2
 6985 039a 1846     		mov	r0, r3
 6986 039c FFF7FEFF 		bl	TranslateSpecialFuncionDigit
 6987 03a0 0346     		mov	r3, r0
1793:.\PrimeImpl.c ****                             (TranslateSpecialFuncionDigit(pjob->_ppump->_rxbuffer[9 + 45*index + (2
 6988              		.loc 1 1793 0
 6989 03a2 DBB2     		uxtb	r3, r3
 6990 03a4 03F00F03 		and	r3, r3, #15
 6991 03a8 DBB2     		uxtb	r3, r3
 6992 03aa 2246     		mov	r2, r4
 6993 03ac 1343     		orrs	r3, r3, r2
 6994 03ae DBB2     		uxtb	r3, r3
 6995 03b0 DAB2     		uxtb	r2, r3
 6996 03b2 3B69     		ldr	r3, [r7, #16]
 6997 03b4 1A70     		strb	r2, [r3]
1795:.\PrimeImpl.c **** 
1796:.\PrimeImpl.c ****             //5
1797:.\PrimeImpl.c ****             ptreeprom++;
 6998              		.loc 1 1797 0
 6999 03b6 3B69     		ldr	r3, [r7, #16]
 7000 03b8 0133     		adds	r3, r3, #1
 7001 03ba 3B61     		str	r3, [r7, #16]
1798:.\PrimeImpl.c ****             blkindex++;
 7002              		.loc 1 1798 0
 7003 03bc FB7B     		ldrb	r3, [r7, #15]	@ zero_extendqisi2
 7004 03be 0133     		adds	r3, r3, #1
 7005 03c0 FB73     		strb	r3, [r7, #15]
1799:.\PrimeImpl.c ****             //Money Decimal Point
1800:.\PrimeImpl.c ****             *ptreeprom = ((TranslateSpecialFuncionDigit(pjob->_ppump->_rxbuffer[9 + 45*index + 2*bl
 7006              		.loc 1 1800 0
ARM GAS  C:\Users\RECEPC~1\AppData\Local\Temp\ccQD6Oev.s 			page 156


 7007 03c2 BB69     		ldr	r3, [r7, #24]
 7008 03c4 D969     		ldr	r1, [r3, #28]
 7009 03c6 FA7D     		ldrb	r2, [r7, #23]	@ zero_extendqisi2
 7010 03c8 1346     		mov	r3, r2
 7011 03ca 5B00     		lsls	r3, r3, #1
 7012 03cc 1344     		add	r3, r3, r2
 7013 03ce 1A01     		lsls	r2, r3, #4
 7014 03d0 D31A     		subs	r3, r2, r3
 7015 03d2 03F10902 		add	r2, r3, #9
 7016 03d6 FB7B     		ldrb	r3, [r7, #15]	@ zero_extendqisi2
 7017 03d8 5B00     		lsls	r3, r3, #1
 7018 03da 1344     		add	r3, r3, r2
 7019 03dc 0B44     		add	r3, r3, r1
 7020 03de 93F88831 		ldrb	r3, [r3, #392]	@ zero_extendqisi2
 7021 03e2 1846     		mov	r0, r3
 7022 03e4 FFF7FEFF 		bl	TranslateSpecialFuncionDigit
 7023 03e8 0346     		mov	r3, r0
 7024 03ea 1B01     		lsls	r3, r3, #4
 7025 03ec DCB2     		uxtb	r4, r3
1801:.\PrimeImpl.c ****                             (TranslateSpecialFuncionDigit(pjob->_ppump->_rxbuffer[9 + 45*index + (2
 7026              		.loc 1 1801 0
 7027 03ee BB69     		ldr	r3, [r7, #24]
 7028 03f0 D969     		ldr	r1, [r3, #28]
 7029 03f2 FA7D     		ldrb	r2, [r7, #23]	@ zero_extendqisi2
 7030 03f4 1346     		mov	r3, r2
 7031 03f6 5B00     		lsls	r3, r3, #1
 7032 03f8 1344     		add	r3, r3, r2
 7033 03fa 1A01     		lsls	r2, r3, #4
 7034 03fc D31A     		subs	r3, r2, r3
 7035 03fe 03F10902 		add	r2, r3, #9
 7036 0402 FB7B     		ldrb	r3, [r7, #15]	@ zero_extendqisi2
 7037 0404 5B00     		lsls	r3, r3, #1
 7038 0406 0133     		adds	r3, r3, #1
 7039 0408 1344     		add	r3, r3, r2
 7040 040a 0B44     		add	r3, r3, r1
 7041 040c 93F88831 		ldrb	r3, [r3, #392]	@ zero_extendqisi2
 7042 0410 1846     		mov	r0, r3
 7043 0412 FFF7FEFF 		bl	TranslateSpecialFuncionDigit
 7044 0416 0346     		mov	r3, r0
1800:.\PrimeImpl.c ****                             (TranslateSpecialFuncionDigit(pjob->_ppump->_rxbuffer[9 + 45*index + (2
 7045              		.loc 1 1800 0
 7046 0418 DBB2     		uxtb	r3, r3
 7047 041a 03F00F03 		and	r3, r3, #15
 7048 041e DBB2     		uxtb	r3, r3
 7049 0420 2246     		mov	r2, r4
 7050 0422 1343     		orrs	r3, r3, r2
 7051 0424 DBB2     		uxtb	r3, r3
 7052 0426 DAB2     		uxtb	r2, r3
 7053 0428 3B69     		ldr	r3, [r7, #16]
 7054 042a 1A70     		strb	r2, [r3]
1802:.\PrimeImpl.c **** 
1803:.\PrimeImpl.c ****             //6
1804:.\PrimeImpl.c ****             ptreeprom++;
 7055              		.loc 1 1804 0
 7056 042c 3B69     		ldr	r3, [r7, #16]
 7057 042e 0133     		adds	r3, r3, #1
 7058 0430 3B61     		str	r3, [r7, #16]
ARM GAS  C:\Users\RECEPC~1\AppData\Local\Temp\ccQD6Oev.s 			page 157


1805:.\PrimeImpl.c ****             blkindex++;
 7059              		.loc 1 1805 0
 7060 0432 FB7B     		ldrb	r3, [r7, #15]	@ zero_extendqisi2
 7061 0434 0133     		adds	r3, r3, #1
 7062 0436 FB73     		strb	r3, [r7, #15]
1806:.\PrimeImpl.c ****             //PPU Decimal Point
1807:.\PrimeImpl.c ****             *ptreeprom = ((TranslateSpecialFuncionDigit(pjob->_ppump->_rxbuffer[9 + 45*index + 2*bl
 7063              		.loc 1 1807 0
 7064 0438 BB69     		ldr	r3, [r7, #24]
 7065 043a D969     		ldr	r1, [r3, #28]
 7066 043c FA7D     		ldrb	r2, [r7, #23]	@ zero_extendqisi2
 7067 043e 1346     		mov	r3, r2
 7068 0440 5B00     		lsls	r3, r3, #1
 7069 0442 1344     		add	r3, r3, r2
 7070 0444 1A01     		lsls	r2, r3, #4
 7071 0446 D31A     		subs	r3, r2, r3
 7072 0448 03F10902 		add	r2, r3, #9
 7073 044c FB7B     		ldrb	r3, [r7, #15]	@ zero_extendqisi2
 7074 044e 5B00     		lsls	r3, r3, #1
 7075 0450 1344     		add	r3, r3, r2
 7076 0452 0B44     		add	r3, r3, r1
 7077 0454 93F88831 		ldrb	r3, [r3, #392]	@ zero_extendqisi2
 7078 0458 1846     		mov	r0, r3
 7079 045a FFF7FEFF 		bl	TranslateSpecialFuncionDigit
 7080 045e 0346     		mov	r3, r0
 7081 0460 1B01     		lsls	r3, r3, #4
 7082 0462 DCB2     		uxtb	r4, r3
1808:.\PrimeImpl.c ****                             (TranslateSpecialFuncionDigit(pjob->_ppump->_rxbuffer[9 + 45*index + (2
 7083              		.loc 1 1808 0
 7084 0464 BB69     		ldr	r3, [r7, #24]
 7085 0466 D969     		ldr	r1, [r3, #28]
 7086 0468 FA7D     		ldrb	r2, [r7, #23]	@ zero_extendqisi2
 7087 046a 1346     		mov	r3, r2
 7088 046c 5B00     		lsls	r3, r3, #1
 7089 046e 1344     		add	r3, r3, r2
 7090 0470 1A01     		lsls	r2, r3, #4
 7091 0472 D31A     		subs	r3, r2, r3
 7092 0474 03F10902 		add	r2, r3, #9
 7093 0478 FB7B     		ldrb	r3, [r7, #15]	@ zero_extendqisi2
 7094 047a 5B00     		lsls	r3, r3, #1
 7095 047c 0133     		adds	r3, r3, #1
 7096 047e 1344     		add	r3, r3, r2
 7097 0480 0B44     		add	r3, r3, r1
 7098 0482 93F88831 		ldrb	r3, [r3, #392]	@ zero_extendqisi2
 7099 0486 1846     		mov	r0, r3
 7100 0488 FFF7FEFF 		bl	TranslateSpecialFuncionDigit
 7101 048c 0346     		mov	r3, r0
1807:.\PrimeImpl.c ****                             (TranslateSpecialFuncionDigit(pjob->_ppump->_rxbuffer[9 + 45*index + (2
 7102              		.loc 1 1807 0
 7103 048e DBB2     		uxtb	r3, r3
 7104 0490 03F00F03 		and	r3, r3, #15
 7105 0494 DBB2     		uxtb	r3, r3
 7106 0496 2246     		mov	r2, r4
 7107 0498 1343     		orrs	r3, r3, r2
 7108 049a DBB2     		uxtb	r3, r3
 7109 049c DAB2     		uxtb	r2, r3
 7110 049e 3B69     		ldr	r3, [r7, #16]
ARM GAS  C:\Users\RECEPC~1\AppData\Local\Temp\ccQD6Oev.s 			page 158


 7111 04a0 1A70     		strb	r2, [r3]
1809:.\PrimeImpl.c **** 
1810:.\PrimeImpl.c ****             //7
1811:.\PrimeImpl.c ****             ptreeprom++;
 7112              		.loc 1 1811 0
 7113 04a2 3B69     		ldr	r3, [r7, #16]
 7114 04a4 0133     		adds	r3, r3, #1
 7115 04a6 3B61     		str	r3, [r7, #16]
1812:.\PrimeImpl.c ****             blkindex++;
 7116              		.loc 1 1812 0
 7117 04a8 FB7B     		ldrb	r3, [r7, #15]	@ zero_extendqisi2
 7118 04aa 0133     		adds	r3, r3, #1
 7119 04ac FB73     		strb	r3, [r7, #15]
1813:.\PrimeImpl.c ****             //Volume Decimal Point
1814:.\PrimeImpl.c ****             *ptreeprom = ((TranslateSpecialFuncionDigit(pjob->_ppump->_rxbuffer[9 + 45*index + 2*bl
 7120              		.loc 1 1814 0
 7121 04ae BB69     		ldr	r3, [r7, #24]
 7122 04b0 D969     		ldr	r1, [r3, #28]
 7123 04b2 FA7D     		ldrb	r2, [r7, #23]	@ zero_extendqisi2
 7124 04b4 1346     		mov	r3, r2
 7125 04b6 5B00     		lsls	r3, r3, #1
 7126 04b8 1344     		add	r3, r3, r2
 7127 04ba 1A01     		lsls	r2, r3, #4
 7128 04bc D31A     		subs	r3, r2, r3
 7129 04be 03F10902 		add	r2, r3, #9
 7130 04c2 FB7B     		ldrb	r3, [r7, #15]	@ zero_extendqisi2
 7131 04c4 5B00     		lsls	r3, r3, #1
 7132 04c6 1344     		add	r3, r3, r2
 7133 04c8 0B44     		add	r3, r3, r1
 7134 04ca 93F88831 		ldrb	r3, [r3, #392]	@ zero_extendqisi2
 7135 04ce 1846     		mov	r0, r3
 7136 04d0 FFF7FEFF 		bl	TranslateSpecialFuncionDigit
 7137 04d4 0346     		mov	r3, r0
 7138 04d6 1B01     		lsls	r3, r3, #4
 7139 04d8 DCB2     		uxtb	r4, r3
1815:.\PrimeImpl.c ****                             (TranslateSpecialFuncionDigit(pjob->_ppump->_rxbuffer[9 + 45*index + (2
 7140              		.loc 1 1815 0
 7141 04da BB69     		ldr	r3, [r7, #24]
 7142 04dc D969     		ldr	r1, [r3, #28]
 7143 04de FA7D     		ldrb	r2, [r7, #23]	@ zero_extendqisi2
 7144 04e0 1346     		mov	r3, r2
 7145 04e2 5B00     		lsls	r3, r3, #1
 7146 04e4 1344     		add	r3, r3, r2
 7147 04e6 1A01     		lsls	r2, r3, #4
 7148 04e8 D31A     		subs	r3, r2, r3
 7149 04ea 03F10902 		add	r2, r3, #9
 7150 04ee FB7B     		ldrb	r3, [r7, #15]	@ zero_extendqisi2
 7151 04f0 5B00     		lsls	r3, r3, #1
 7152 04f2 0133     		adds	r3, r3, #1
 7153 04f4 1344     		add	r3, r3, r2
 7154 04f6 0B44     		add	r3, r3, r1
 7155 04f8 93F88831 		ldrb	r3, [r3, #392]	@ zero_extendqisi2
 7156 04fc 1846     		mov	r0, r3
 7157 04fe FFF7FEFF 		bl	TranslateSpecialFuncionDigit
 7158 0502 0346     		mov	r3, r0
1814:.\PrimeImpl.c ****                             (TranslateSpecialFuncionDigit(pjob->_ppump->_rxbuffer[9 + 45*index + (2
 7159              		.loc 1 1814 0
ARM GAS  C:\Users\RECEPC~1\AppData\Local\Temp\ccQD6Oev.s 			page 159


 7160 0504 DBB2     		uxtb	r3, r3
 7161 0506 03F00F03 		and	r3, r3, #15
 7162 050a DBB2     		uxtb	r3, r3
 7163 050c 2246     		mov	r2, r4
 7164 050e 1343     		orrs	r3, r3, r2
 7165 0510 DBB2     		uxtb	r3, r3
 7166 0512 DAB2     		uxtb	r2, r3
 7167 0514 3B69     		ldr	r3, [r7, #16]
 7168 0516 1A70     		strb	r2, [r3]
1816:.\PrimeImpl.c **** 
1817:.\PrimeImpl.c ****             //8
1818:.\PrimeImpl.c ****             ptreeprom++;
 7169              		.loc 1 1818 0
 7170 0518 3B69     		ldr	r3, [r7, #16]
 7171 051a 0133     		adds	r3, r3, #1
 7172 051c 3B61     		str	r3, [r7, #16]
1819:.\PrimeImpl.c ****             blkindex++;
 7173              		.loc 1 1819 0
 7174 051e FB7B     		ldrb	r3, [r7, #15]	@ zero_extendqisi2
 7175 0520 0133     		adds	r3, r3, #1
 7176 0522 FB73     		strb	r3, [r7, #15]
1820:.\PrimeImpl.c ****             //Motor Pre-Start
1821:.\PrimeImpl.c ****             *ptreeprom = ((TranslateSpecialFuncionDigit(pjob->_ppump->_rxbuffer[9 + 45*index + 2*bl
 7177              		.loc 1 1821 0
 7178 0524 BB69     		ldr	r3, [r7, #24]
 7179 0526 D969     		ldr	r1, [r3, #28]
 7180 0528 FA7D     		ldrb	r2, [r7, #23]	@ zero_extendqisi2
 7181 052a 1346     		mov	r3, r2
 7182 052c 5B00     		lsls	r3, r3, #1
 7183 052e 1344     		add	r3, r3, r2
 7184 0530 1A01     		lsls	r2, r3, #4
 7185 0532 D31A     		subs	r3, r2, r3
 7186 0534 03F10902 		add	r2, r3, #9
 7187 0538 FB7B     		ldrb	r3, [r7, #15]	@ zero_extendqisi2
 7188 053a 5B00     		lsls	r3, r3, #1
 7189 053c 1344     		add	r3, r3, r2
 7190 053e 0B44     		add	r3, r3, r1
 7191 0540 93F88831 		ldrb	r3, [r3, #392]	@ zero_extendqisi2
 7192 0544 1846     		mov	r0, r3
 7193 0546 FFF7FEFF 		bl	TranslateSpecialFuncionDigit
 7194 054a 0346     		mov	r3, r0
 7195 054c 1B01     		lsls	r3, r3, #4
 7196 054e DCB2     		uxtb	r4, r3
1822:.\PrimeImpl.c ****                             (TranslateSpecialFuncionDigit(pjob->_ppump->_rxbuffer[9 + 45*index + (2
 7197              		.loc 1 1822 0
 7198 0550 BB69     		ldr	r3, [r7, #24]
 7199 0552 D969     		ldr	r1, [r3, #28]
 7200 0554 FA7D     		ldrb	r2, [r7, #23]	@ zero_extendqisi2
 7201 0556 1346     		mov	r3, r2
 7202 0558 5B00     		lsls	r3, r3, #1
 7203 055a 1344     		add	r3, r3, r2
 7204 055c 1A01     		lsls	r2, r3, #4
 7205 055e D31A     		subs	r3, r2, r3
 7206 0560 03F10902 		add	r2, r3, #9
 7207 0564 FB7B     		ldrb	r3, [r7, #15]	@ zero_extendqisi2
 7208 0566 5B00     		lsls	r3, r3, #1
 7209 0568 0133     		adds	r3, r3, #1
ARM GAS  C:\Users\RECEPC~1\AppData\Local\Temp\ccQD6Oev.s 			page 160


 7210 056a 1344     		add	r3, r3, r2
 7211 056c 0B44     		add	r3, r3, r1
 7212 056e 93F88831 		ldrb	r3, [r3, #392]	@ zero_extendqisi2
 7213 0572 1846     		mov	r0, r3
 7214 0574 FFF7FEFF 		bl	TranslateSpecialFuncionDigit
 7215 0578 0346     		mov	r3, r0
1821:.\PrimeImpl.c ****                             (TranslateSpecialFuncionDigit(pjob->_ppump->_rxbuffer[9 + 45*index + (2
 7216              		.loc 1 1821 0
 7217 057a DBB2     		uxtb	r3, r3
 7218 057c 03F00F03 		and	r3, r3, #15
 7219 0580 DBB2     		uxtb	r3, r3
 7220 0582 2246     		mov	r2, r4
 7221 0584 1343     		orrs	r3, r3, r2
 7222 0586 DBB2     		uxtb	r3, r3
 7223 0588 DAB2     		uxtb	r2, r3
 7224 058a 3B69     		ldr	r3, [r7, #16]
 7225 058c 1A70     		strb	r2, [r3]
1823:.\PrimeImpl.c **** 
1824:.\PrimeImpl.c ****             //9
1825:.\PrimeImpl.c ****             ptreeprom++;
 7226              		.loc 1 1825 0
 7227 058e 3B69     		ldr	r3, [r7, #16]
 7228 0590 0133     		adds	r3, r3, #1
 7229 0592 3B61     		str	r3, [r7, #16]
1826:.\PrimeImpl.c ****             blkindex++;
 7230              		.loc 1 1826 0
 7231 0594 FB7B     		ldrb	r3, [r7, #15]	@ zero_extendqisi2
 7232 0596 0133     		adds	r3, r3, #1
 7233 0598 FB73     		strb	r3, [r7, #15]
1827:.\PrimeImpl.c ****             //Beeper
1828:.\PrimeImpl.c ****             *ptreeprom = ((TranslateSpecialFuncionDigit(pjob->_ppump->_rxbuffer[9 + 45*index + 2*bl
 7234              		.loc 1 1828 0
 7235 059a BB69     		ldr	r3, [r7, #24]
 7236 059c D969     		ldr	r1, [r3, #28]
 7237 059e FA7D     		ldrb	r2, [r7, #23]	@ zero_extendqisi2
 7238 05a0 1346     		mov	r3, r2
 7239 05a2 5B00     		lsls	r3, r3, #1
 7240 05a4 1344     		add	r3, r3, r2
 7241 05a6 1A01     		lsls	r2, r3, #4
 7242 05a8 D31A     		subs	r3, r2, r3
 7243 05aa 03F10902 		add	r2, r3, #9
 7244 05ae FB7B     		ldrb	r3, [r7, #15]	@ zero_extendqisi2
 7245 05b0 5B00     		lsls	r3, r3, #1
 7246 05b2 1344     		add	r3, r3, r2
 7247 05b4 0B44     		add	r3, r3, r1
 7248 05b6 93F88831 		ldrb	r3, [r3, #392]	@ zero_extendqisi2
 7249 05ba 1846     		mov	r0, r3
 7250 05bc FFF7FEFF 		bl	TranslateSpecialFuncionDigit
 7251 05c0 0346     		mov	r3, r0
 7252 05c2 1B01     		lsls	r3, r3, #4
 7253 05c4 DCB2     		uxtb	r4, r3
1829:.\PrimeImpl.c ****                             (TranslateSpecialFuncionDigit(pjob->_ppump->_rxbuffer[9 + 45*index + (2
 7254              		.loc 1 1829 0
 7255 05c6 BB69     		ldr	r3, [r7, #24]
 7256 05c8 D969     		ldr	r1, [r3, #28]
 7257 05ca FA7D     		ldrb	r2, [r7, #23]	@ zero_extendqisi2
 7258 05cc 1346     		mov	r3, r2
ARM GAS  C:\Users\RECEPC~1\AppData\Local\Temp\ccQD6Oev.s 			page 161


 7259 05ce 5B00     		lsls	r3, r3, #1
 7260 05d0 1344     		add	r3, r3, r2
 7261 05d2 1A01     		lsls	r2, r3, #4
 7262 05d4 D31A     		subs	r3, r2, r3
 7263 05d6 03F10902 		add	r2, r3, #9
 7264 05da FB7B     		ldrb	r3, [r7, #15]	@ zero_extendqisi2
 7265 05dc 5B00     		lsls	r3, r3, #1
 7266 05de 0133     		adds	r3, r3, #1
 7267 05e0 1344     		add	r3, r3, r2
 7268 05e2 0B44     		add	r3, r3, r1
 7269 05e4 93F88831 		ldrb	r3, [r3, #392]	@ zero_extendqisi2
 7270 05e8 1846     		mov	r0, r3
 7271 05ea FFF7FEFF 		bl	TranslateSpecialFuncionDigit
 7272 05ee 0346     		mov	r3, r0
1828:.\PrimeImpl.c ****                             (TranslateSpecialFuncionDigit(pjob->_ppump->_rxbuffer[9 + 45*index + (2
 7273              		.loc 1 1828 0
 7274 05f0 DBB2     		uxtb	r3, r3
 7275 05f2 03F00F03 		and	r3, r3, #15
 7276 05f6 DBB2     		uxtb	r3, r3
 7277 05f8 2246     		mov	r2, r4
 7278 05fa 1343     		orrs	r3, r3, r2
 7279 05fc DBB2     		uxtb	r3, r3
 7280 05fe DAB2     		uxtb	r2, r3
 7281 0600 3B69     		ldr	r3, [r7, #16]
 7282 0602 1A70     		strb	r2, [r3]
1830:.\PrimeImpl.c **** 
1831:.\PrimeImpl.c ****             //10
1832:.\PrimeImpl.c ****             ptreeprom++;
 7283              		.loc 1 1832 0
 7284 0604 3B69     		ldr	r3, [r7, #16]
 7285 0606 0133     		adds	r3, r3, #1
 7286 0608 3B61     		str	r3, [r7, #16]
1833:.\PrimeImpl.c ****             blkindex++;
 7287              		.loc 1 1833 0
 7288 060a FB7B     		ldrb	r3, [r7, #15]	@ zero_extendqisi2
 7289 060c 0133     		adds	r3, r3, #1
 7290 060e FB73     		strb	r3, [r7, #15]
1834:.\PrimeImpl.c ****             //Display Digits Mode
1835:.\PrimeImpl.c ****             *ptreeprom = ((TranslateSpecialFuncionDigit(pjob->_ppump->_rxbuffer[9 + 45*index + 2*bl
 7291              		.loc 1 1835 0
 7292 0610 BB69     		ldr	r3, [r7, #24]
 7293 0612 D969     		ldr	r1, [r3, #28]
 7294 0614 FA7D     		ldrb	r2, [r7, #23]	@ zero_extendqisi2
 7295 0616 1346     		mov	r3, r2
 7296 0618 5B00     		lsls	r3, r3, #1
 7297 061a 1344     		add	r3, r3, r2
 7298 061c 1A01     		lsls	r2, r3, #4
 7299 061e D31A     		subs	r3, r2, r3
 7300 0620 03F10902 		add	r2, r3, #9
 7301 0624 FB7B     		ldrb	r3, [r7, #15]	@ zero_extendqisi2
 7302 0626 5B00     		lsls	r3, r3, #1
 7303 0628 1344     		add	r3, r3, r2
 7304 062a 0B44     		add	r3, r3, r1
 7305 062c 93F88831 		ldrb	r3, [r3, #392]	@ zero_extendqisi2
 7306 0630 1846     		mov	r0, r3
 7307 0632 FFF7FEFF 		bl	TranslateSpecialFuncionDigit
 7308 0636 0346     		mov	r3, r0
ARM GAS  C:\Users\RECEPC~1\AppData\Local\Temp\ccQD6Oev.s 			page 162


 7309 0638 1B01     		lsls	r3, r3, #4
 7310 063a DCB2     		uxtb	r4, r3
1836:.\PrimeImpl.c ****                             (TranslateSpecialFuncionDigit(pjob->_ppump->_rxbuffer[9 + 45*index + (2
 7311              		.loc 1 1836 0
 7312 063c BB69     		ldr	r3, [r7, #24]
 7313 063e D969     		ldr	r1, [r3, #28]
 7314 0640 FA7D     		ldrb	r2, [r7, #23]	@ zero_extendqisi2
 7315 0642 1346     		mov	r3, r2
 7316 0644 5B00     		lsls	r3, r3, #1
 7317 0646 1344     		add	r3, r3, r2
 7318 0648 1A01     		lsls	r2, r3, #4
 7319 064a D31A     		subs	r3, r2, r3
 7320 064c 03F10902 		add	r2, r3, #9
 7321 0650 FB7B     		ldrb	r3, [r7, #15]	@ zero_extendqisi2
 7322 0652 5B00     		lsls	r3, r3, #1
 7323 0654 0133     		adds	r3, r3, #1
 7324 0656 1344     		add	r3, r3, r2
 7325 0658 0B44     		add	r3, r3, r1
 7326 065a 93F88831 		ldrb	r3, [r3, #392]	@ zero_extendqisi2
 7327 065e 1846     		mov	r0, r3
 7328 0660 FFF7FEFF 		bl	TranslateSpecialFuncionDigit
 7329 0664 0346     		mov	r3, r0
1835:.\PrimeImpl.c ****                             (TranslateSpecialFuncionDigit(pjob->_ppump->_rxbuffer[9 + 45*index + (2
 7330              		.loc 1 1835 0
 7331 0666 DBB2     		uxtb	r3, r3
 7332 0668 03F00F03 		and	r3, r3, #15
 7333 066c DBB2     		uxtb	r3, r3
 7334 066e 2246     		mov	r2, r4
 7335 0670 1343     		orrs	r3, r3, r2
 7336 0672 DBB2     		uxtb	r3, r3
 7337 0674 DAB2     		uxtb	r2, r3
 7338 0676 3B69     		ldr	r3, [r7, #16]
 7339 0678 1A70     		strb	r2, [r3]
1837:.\PrimeImpl.c **** 
1838:.\PrimeImpl.c ****             _g_dispenserlayoutinfo._presetdigits = *ptreeprom;
 7340              		.loc 1 1838 0
 7341 067a 3B69     		ldr	r3, [r7, #16]
 7342 067c 1A78     		ldrb	r2, [r3]	@ zero_extendqisi2
 7343 067e C54B     		ldr	r3, .L233
 7344 0680 5A74     		strb	r2, [r3, #17]
1839:.\PrimeImpl.c ****             //11
1840:.\PrimeImpl.c ****             ptreeprom++;
 7345              		.loc 1 1840 0
 7346 0682 3B69     		ldr	r3, [r7, #16]
 7347 0684 0133     		adds	r3, r3, #1
 7348 0686 3B61     		str	r3, [r7, #16]
1841:.\PrimeImpl.c ****             blkindex++;
 7349              		.loc 1 1841 0
 7350 0688 FB7B     		ldrb	r3, [r7, #15]	@ zero_extendqisi2
 7351 068a 0133     		adds	r3, r3, #1
 7352 068c FB73     		strb	r3, [r7, #15]
1842:.\PrimeImpl.c ****             //Point / Comma Decimal
1843:.\PrimeImpl.c ****             *ptreeprom = ((TranslateSpecialFuncionDigit(pjob->_ppump->_rxbuffer[9 + 45*index + 2*bl
 7353              		.loc 1 1843 0
 7354 068e BB69     		ldr	r3, [r7, #24]
 7355 0690 D969     		ldr	r1, [r3, #28]
 7356 0692 FA7D     		ldrb	r2, [r7, #23]	@ zero_extendqisi2
ARM GAS  C:\Users\RECEPC~1\AppData\Local\Temp\ccQD6Oev.s 			page 163


 7357 0694 1346     		mov	r3, r2
 7358 0696 5B00     		lsls	r3, r3, #1
 7359 0698 1344     		add	r3, r3, r2
 7360 069a 1A01     		lsls	r2, r3, #4
 7361 069c D31A     		subs	r3, r2, r3
 7362 069e 03F10902 		add	r2, r3, #9
 7363 06a2 FB7B     		ldrb	r3, [r7, #15]	@ zero_extendqisi2
 7364 06a4 5B00     		lsls	r3, r3, #1
 7365 06a6 1344     		add	r3, r3, r2
 7366 06a8 0B44     		add	r3, r3, r1
 7367 06aa 93F88831 		ldrb	r3, [r3, #392]	@ zero_extendqisi2
 7368 06ae 1846     		mov	r0, r3
 7369 06b0 FFF7FEFF 		bl	TranslateSpecialFuncionDigit
 7370 06b4 0346     		mov	r3, r0
 7371 06b6 1B01     		lsls	r3, r3, #4
 7372 06b8 DCB2     		uxtb	r4, r3
1844:.\PrimeImpl.c ****                             (TranslateSpecialFuncionDigit(pjob->_ppump->_rxbuffer[9 + 45*index + (2
 7373              		.loc 1 1844 0
 7374 06ba BB69     		ldr	r3, [r7, #24]
 7375 06bc D969     		ldr	r1, [r3, #28]
 7376 06be FA7D     		ldrb	r2, [r7, #23]	@ zero_extendqisi2
 7377 06c0 1346     		mov	r3, r2
 7378 06c2 5B00     		lsls	r3, r3, #1
 7379 06c4 1344     		add	r3, r3, r2
 7380 06c6 1A01     		lsls	r2, r3, #4
 7381 06c8 D31A     		subs	r3, r2, r3
 7382 06ca 03F10902 		add	r2, r3, #9
 7383 06ce FB7B     		ldrb	r3, [r7, #15]	@ zero_extendqisi2
 7384 06d0 5B00     		lsls	r3, r3, #1
 7385 06d2 0133     		adds	r3, r3, #1
 7386 06d4 1344     		add	r3, r3, r2
 7387 06d6 0B44     		add	r3, r3, r1
 7388 06d8 93F88831 		ldrb	r3, [r3, #392]	@ zero_extendqisi2
 7389 06dc 1846     		mov	r0, r3
 7390 06de FFF7FEFF 		bl	TranslateSpecialFuncionDigit
 7391 06e2 0346     		mov	r3, r0
1843:.\PrimeImpl.c ****                             (TranslateSpecialFuncionDigit(pjob->_ppump->_rxbuffer[9 + 45*index + (2
 7392              		.loc 1 1843 0
 7393 06e4 DBB2     		uxtb	r3, r3
 7394 06e6 03F00F03 		and	r3, r3, #15
 7395 06ea DBB2     		uxtb	r3, r3
 7396 06ec 2246     		mov	r2, r4
 7397 06ee 1343     		orrs	r3, r3, r2
 7398 06f0 DBB2     		uxtb	r3, r3
 7399 06f2 DAB2     		uxtb	r2, r3
 7400 06f4 3B69     		ldr	r3, [r7, #16]
 7401 06f6 1A70     		strb	r2, [r3]
1845:.\PrimeImpl.c **** 
1846:.\PrimeImpl.c ****             //12
1847:.\PrimeImpl.c ****             ptreeprom++;
 7402              		.loc 1 1847 0
 7403 06f8 3B69     		ldr	r3, [r7, #16]
 7404 06fa 0133     		adds	r3, r3, #1
 7405 06fc 3B61     		str	r3, [r7, #16]
1848:.\PrimeImpl.c ****             blkindex++;
 7406              		.loc 1 1848 0
 7407 06fe FB7B     		ldrb	r3, [r7, #15]	@ zero_extendqisi2
ARM GAS  C:\Users\RECEPC~1\AppData\Local\Temp\ccQD6Oev.s 			page 164


 7408 0700 0133     		adds	r3, r3, #1
 7409 0702 FB73     		strb	r3, [r7, #15]
1849:.\PrimeImpl.c ****             //Inactive Preset Timeout
1850:.\PrimeImpl.c ****             *ptreeprom = ((TranslateSpecialFuncionDigit(pjob->_ppump->_rxbuffer[9 + 45*index + 2*bl
 7410              		.loc 1 1850 0
 7411 0704 BB69     		ldr	r3, [r7, #24]
 7412 0706 D969     		ldr	r1, [r3, #28]
 7413 0708 FA7D     		ldrb	r2, [r7, #23]	@ zero_extendqisi2
 7414 070a 1346     		mov	r3, r2
 7415 070c 5B00     		lsls	r3, r3, #1
 7416 070e 1344     		add	r3, r3, r2
 7417 0710 1A01     		lsls	r2, r3, #4
 7418 0712 D31A     		subs	r3, r2, r3
 7419 0714 03F10902 		add	r2, r3, #9
 7420 0718 FB7B     		ldrb	r3, [r7, #15]	@ zero_extendqisi2
 7421 071a 5B00     		lsls	r3, r3, #1
 7422 071c 1344     		add	r3, r3, r2
 7423 071e 0B44     		add	r3, r3, r1
 7424 0720 93F88831 		ldrb	r3, [r3, #392]	@ zero_extendqisi2
 7425 0724 1846     		mov	r0, r3
 7426 0726 FFF7FEFF 		bl	TranslateSpecialFuncionDigit
 7427 072a 0346     		mov	r3, r0
 7428 072c 1B01     		lsls	r3, r3, #4
 7429 072e DCB2     		uxtb	r4, r3
1851:.\PrimeImpl.c ****                             (TranslateSpecialFuncionDigit(pjob->_ppump->_rxbuffer[9 + 45*index + (2
 7430              		.loc 1 1851 0
 7431 0730 BB69     		ldr	r3, [r7, #24]
 7432 0732 D969     		ldr	r1, [r3, #28]
 7433 0734 FA7D     		ldrb	r2, [r7, #23]	@ zero_extendqisi2
 7434 0736 1346     		mov	r3, r2
 7435 0738 5B00     		lsls	r3, r3, #1
 7436 073a 1344     		add	r3, r3, r2
 7437 073c 1A01     		lsls	r2, r3, #4
 7438 073e D31A     		subs	r3, r2, r3
 7439 0740 03F10902 		add	r2, r3, #9
 7440 0744 FB7B     		ldrb	r3, [r7, #15]	@ zero_extendqisi2
 7441 0746 5B00     		lsls	r3, r3, #1
 7442 0748 0133     		adds	r3, r3, #1
 7443 074a 1344     		add	r3, r3, r2
 7444 074c 0B44     		add	r3, r3, r1
 7445 074e 93F88831 		ldrb	r3, [r3, #392]	@ zero_extendqisi2
 7446 0752 1846     		mov	r0, r3
 7447 0754 FFF7FEFF 		bl	TranslateSpecialFuncionDigit
 7448 0758 0346     		mov	r3, r0
1850:.\PrimeImpl.c ****                             (TranslateSpecialFuncionDigit(pjob->_ppump->_rxbuffer[9 + 45*index + (2
 7449              		.loc 1 1850 0
 7450 075a DBB2     		uxtb	r3, r3
 7451 075c 03F00F03 		and	r3, r3, #15
 7452 0760 DBB2     		uxtb	r3, r3
 7453 0762 2246     		mov	r2, r4
 7454 0764 1343     		orrs	r3, r3, r2
 7455 0766 DBB2     		uxtb	r3, r3
 7456 0768 DAB2     		uxtb	r2, r3
 7457 076a 3B69     		ldr	r3, [r7, #16]
 7458 076c 1A70     		strb	r2, [r3]
1852:.\PrimeImpl.c **** 
1853:.\PrimeImpl.c ****             //13
ARM GAS  C:\Users\RECEPC~1\AppData\Local\Temp\ccQD6Oev.s 			page 165


1854:.\PrimeImpl.c ****             ptreeprom++;
 7459              		.loc 1 1854 0
 7460 076e 3B69     		ldr	r3, [r7, #16]
 7461 0770 0133     		adds	r3, r3, #1
 7462 0772 3B61     		str	r3, [r7, #16]
1855:.\PrimeImpl.c ****             blkindex++;
 7463              		.loc 1 1855 0
 7464 0774 FB7B     		ldrb	r3, [r7, #15]	@ zero_extendqisi2
 7465 0776 0133     		adds	r3, r3, #1
 7466 0778 FB73     		strb	r3, [r7, #15]
1856:.\PrimeImpl.c ****             //Inactive Delivery Timeout
1857:.\PrimeImpl.c ****             *ptreeprom = ((TranslateSpecialFuncionDigit(pjob->_ppump->_rxbuffer[9 + 45*index + 2*bl
 7467              		.loc 1 1857 0
 7468 077a BB69     		ldr	r3, [r7, #24]
 7469 077c D969     		ldr	r1, [r3, #28]
 7470 077e FA7D     		ldrb	r2, [r7, #23]	@ zero_extendqisi2
 7471 0780 1346     		mov	r3, r2
 7472 0782 5B00     		lsls	r3, r3, #1
 7473 0784 1344     		add	r3, r3, r2
 7474 0786 1A01     		lsls	r2, r3, #4
 7475 0788 D31A     		subs	r3, r2, r3
 7476 078a 03F10902 		add	r2, r3, #9
 7477 078e FB7B     		ldrb	r3, [r7, #15]	@ zero_extendqisi2
 7478 0790 5B00     		lsls	r3, r3, #1
 7479 0792 1344     		add	r3, r3, r2
 7480 0794 0B44     		add	r3, r3, r1
 7481 0796 93F88831 		ldrb	r3, [r3, #392]	@ zero_extendqisi2
 7482 079a 1846     		mov	r0, r3
 7483 079c FFF7FEFF 		bl	TranslateSpecialFuncionDigit
 7484 07a0 0346     		mov	r3, r0
 7485 07a2 1B01     		lsls	r3, r3, #4
 7486 07a4 DCB2     		uxtb	r4, r3
1858:.\PrimeImpl.c ****                             (TranslateSpecialFuncionDigit(pjob->_ppump->_rxbuffer[9 + 45*index + (2
 7487              		.loc 1 1858 0
 7488 07a6 BB69     		ldr	r3, [r7, #24]
 7489 07a8 D969     		ldr	r1, [r3, #28]
 7490 07aa FA7D     		ldrb	r2, [r7, #23]	@ zero_extendqisi2
 7491 07ac 1346     		mov	r3, r2
 7492 07ae 5B00     		lsls	r3, r3, #1
 7493 07b0 1344     		add	r3, r3, r2
 7494 07b2 1A01     		lsls	r2, r3, #4
 7495 07b4 D31A     		subs	r3, r2, r3
 7496 07b6 03F10902 		add	r2, r3, #9
 7497 07ba FB7B     		ldrb	r3, [r7, #15]	@ zero_extendqisi2
 7498 07bc 5B00     		lsls	r3, r3, #1
 7499 07be 0133     		adds	r3, r3, #1
 7500 07c0 1344     		add	r3, r3, r2
 7501 07c2 0B44     		add	r3, r3, r1
 7502 07c4 93F88831 		ldrb	r3, [r3, #392]	@ zero_extendqisi2
 7503 07c8 1846     		mov	r0, r3
 7504 07ca FFF7FEFF 		bl	TranslateSpecialFuncionDigit
 7505 07ce 0346     		mov	r3, r0
1857:.\PrimeImpl.c ****                             (TranslateSpecialFuncionDigit(pjob->_ppump->_rxbuffer[9 + 45*index + (2
 7506              		.loc 1 1857 0
 7507 07d0 DBB2     		uxtb	r3, r3
 7508 07d2 03F00F03 		and	r3, r3, #15
 7509 07d6 DBB2     		uxtb	r3, r3
ARM GAS  C:\Users\RECEPC~1\AppData\Local\Temp\ccQD6Oev.s 			page 166


 7510 07d8 2246     		mov	r2, r4
 7511 07da 1343     		orrs	r3, r3, r2
 7512 07dc DBB2     		uxtb	r3, r3
 7513 07de DAB2     		uxtb	r2, r3
 7514 07e0 3B69     		ldr	r3, [r7, #16]
 7515 07e2 1A70     		strb	r2, [r3]
1859:.\PrimeImpl.c **** 
1860:.\PrimeImpl.c ****             //14
1861:.\PrimeImpl.c ****             ptreeprom++;
 7516              		.loc 1 1861 0
 7517 07e4 3B69     		ldr	r3, [r7, #16]
 7518 07e6 0133     		adds	r3, r3, #1
 7519 07e8 3B61     		str	r3, [r7, #16]
1862:.\PrimeImpl.c ****             blkindex++;
 7520              		.loc 1 1862 0
 7521 07ea FB7B     		ldrb	r3, [r7, #15]	@ zero_extendqisi2
 7522 07ec 0133     		adds	r3, r3, #1
 7523 07ee FB73     		strb	r3, [r7, #15]
1863:.\PrimeImpl.c ****             //Beeper Inactive Delivery Timeout
1864:.\PrimeImpl.c ****             *ptreeprom = ((TranslateSpecialFuncionDigit(pjob->_ppump->_rxbuffer[9 + 45*index + 2*bl
 7524              		.loc 1 1864 0
 7525 07f0 BB69     		ldr	r3, [r7, #24]
 7526 07f2 D969     		ldr	r1, [r3, #28]
 7527 07f4 FA7D     		ldrb	r2, [r7, #23]	@ zero_extendqisi2
 7528 07f6 1346     		mov	r3, r2
 7529 07f8 5B00     		lsls	r3, r3, #1
 7530 07fa 1344     		add	r3, r3, r2
 7531 07fc 1A01     		lsls	r2, r3, #4
 7532 07fe D31A     		subs	r3, r2, r3
 7533 0800 03F10902 		add	r2, r3, #9
 7534 0804 FB7B     		ldrb	r3, [r7, #15]	@ zero_extendqisi2
 7535 0806 5B00     		lsls	r3, r3, #1
 7536 0808 1344     		add	r3, r3, r2
 7537 080a 0B44     		add	r3, r3, r1
 7538 080c 93F88831 		ldrb	r3, [r3, #392]	@ zero_extendqisi2
 7539 0810 1846     		mov	r0, r3
 7540 0812 FFF7FEFF 		bl	TranslateSpecialFuncionDigit
 7541 0816 0346     		mov	r3, r0
 7542 0818 1B01     		lsls	r3, r3, #4
 7543 081a DCB2     		uxtb	r4, r3
1865:.\PrimeImpl.c ****                             (TranslateSpecialFuncionDigit(pjob->_ppump->_rxbuffer[9 + 45*index + (2
 7544              		.loc 1 1865 0
 7545 081c BB69     		ldr	r3, [r7, #24]
 7546 081e D969     		ldr	r1, [r3, #28]
 7547 0820 FA7D     		ldrb	r2, [r7, #23]	@ zero_extendqisi2
 7548 0822 1346     		mov	r3, r2
 7549 0824 5B00     		lsls	r3, r3, #1
 7550 0826 1344     		add	r3, r3, r2
 7551 0828 1A01     		lsls	r2, r3, #4
 7552 082a D31A     		subs	r3, r2, r3
 7553 082c 03F10902 		add	r2, r3, #9
 7554 0830 FB7B     		ldrb	r3, [r7, #15]	@ zero_extendqisi2
 7555 0832 5B00     		lsls	r3, r3, #1
 7556 0834 0133     		adds	r3, r3, #1
 7557 0836 1344     		add	r3, r3, r2
 7558 0838 0B44     		add	r3, r3, r1
 7559 083a 93F88831 		ldrb	r3, [r3, #392]	@ zero_extendqisi2
ARM GAS  C:\Users\RECEPC~1\AppData\Local\Temp\ccQD6Oev.s 			page 167


 7560 083e 1846     		mov	r0, r3
 7561 0840 FFF7FEFF 		bl	TranslateSpecialFuncionDigit
 7562 0844 0346     		mov	r3, r0
1864:.\PrimeImpl.c ****                             (TranslateSpecialFuncionDigit(pjob->_ppump->_rxbuffer[9 + 45*index + (2
 7563              		.loc 1 1864 0
 7564 0846 DBB2     		uxtb	r3, r3
 7565 0848 03F00F03 		and	r3, r3, #15
 7566 084c DBB2     		uxtb	r3, r3
 7567 084e 2246     		mov	r2, r4
 7568 0850 1343     		orrs	r3, r3, r2
 7569 0852 DBB2     		uxtb	r3, r3
 7570 0854 DAB2     		uxtb	r2, r3
 7571 0856 3B69     		ldr	r3, [r7, #16]
 7572 0858 1A70     		strb	r2, [r3]
1866:.\PrimeImpl.c **** 
1867:.\PrimeImpl.c ****             //15
1868:.\PrimeImpl.c ****             ptreeprom++;
 7573              		.loc 1 1868 0
 7574 085a 3B69     		ldr	r3, [r7, #16]
 7575 085c 0133     		adds	r3, r3, #1
 7576 085e 3B61     		str	r3, [r7, #16]
1869:.\PrimeImpl.c ****             blkindex++;
 7577              		.loc 1 1869 0
 7578 0860 FB7B     		ldrb	r3, [r7, #15]	@ zero_extendqisi2
 7579 0862 0133     		adds	r3, r3, #1
 7580 0864 FB73     		strb	r3, [r7, #15]
1870:.\PrimeImpl.c ****             //Slow-Flow Rate Valves Entry
1871:.\PrimeImpl.c ****             *ptreeprom = ((TranslateSpecialFuncionDigit(pjob->_ppump->_rxbuffer[9 + 45*index + 2*bl
 7581              		.loc 1 1871 0
 7582 0866 BB69     		ldr	r3, [r7, #24]
 7583 0868 D969     		ldr	r1, [r3, #28]
 7584 086a FA7D     		ldrb	r2, [r7, #23]	@ zero_extendqisi2
 7585 086c 1346     		mov	r3, r2
 7586 086e 5B00     		lsls	r3, r3, #1
 7587 0870 1344     		add	r3, r3, r2
 7588 0872 1A01     		lsls	r2, r3, #4
 7589 0874 D31A     		subs	r3, r2, r3
 7590 0876 03F10902 		add	r2, r3, #9
 7591 087a FB7B     		ldrb	r3, [r7, #15]	@ zero_extendqisi2
 7592 087c 5B00     		lsls	r3, r3, #1
 7593 087e 1344     		add	r3, r3, r2
 7594 0880 0B44     		add	r3, r3, r1
 7595 0882 93F88831 		ldrb	r3, [r3, #392]	@ zero_extendqisi2
 7596 0886 1846     		mov	r0, r3
 7597 0888 FFF7FEFF 		bl	TranslateSpecialFuncionDigit
 7598 088c 0346     		mov	r3, r0
 7599 088e 1B01     		lsls	r3, r3, #4
 7600 0890 DCB2     		uxtb	r4, r3
1872:.\PrimeImpl.c ****                             (TranslateSpecialFuncionDigit(pjob->_ppump->_rxbuffer[9 + 45*index + (2
 7601              		.loc 1 1872 0
 7602 0892 BB69     		ldr	r3, [r7, #24]
 7603 0894 D969     		ldr	r1, [r3, #28]
 7604 0896 FA7D     		ldrb	r2, [r7, #23]	@ zero_extendqisi2
 7605 0898 1346     		mov	r3, r2
 7606 089a 5B00     		lsls	r3, r3, #1
 7607 089c 1344     		add	r3, r3, r2
 7608 089e 1A01     		lsls	r2, r3, #4
ARM GAS  C:\Users\RECEPC~1\AppData\Local\Temp\ccQD6Oev.s 			page 168


 7609 08a0 D31A     		subs	r3, r2, r3
 7610 08a2 03F10902 		add	r2, r3, #9
 7611 08a6 FB7B     		ldrb	r3, [r7, #15]	@ zero_extendqisi2
 7612 08a8 5B00     		lsls	r3, r3, #1
 7613 08aa 0133     		adds	r3, r3, #1
 7614 08ac 1344     		add	r3, r3, r2
 7615 08ae 0B44     		add	r3, r3, r1
 7616 08b0 93F88831 		ldrb	r3, [r3, #392]	@ zero_extendqisi2
 7617 08b4 1846     		mov	r0, r3
 7618 08b6 FFF7FEFF 		bl	TranslateSpecialFuncionDigit
 7619 08ba 0346     		mov	r3, r0
1871:.\PrimeImpl.c ****                             (TranslateSpecialFuncionDigit(pjob->_ppump->_rxbuffer[9 + 45*index + (2
 7620              		.loc 1 1871 0
 7621 08bc DBB2     		uxtb	r3, r3
 7622 08be 03F00F03 		and	r3, r3, #15
 7623 08c2 DBB2     		uxtb	r3, r3
 7624 08c4 2246     		mov	r2, r4
 7625 08c6 1343     		orrs	r3, r3, r2
 7626 08c8 DBB2     		uxtb	r3, r3
 7627 08ca DAB2     		uxtb	r2, r3
 7628 08cc 3B69     		ldr	r3, [r7, #16]
 7629 08ce 1A70     		strb	r2, [r3]
1873:.\PrimeImpl.c **** 
1874:.\PrimeImpl.c ****             //HERE WE START THE NEXT 16 WORDS SINCE THE BLOCK INDEX HAS REACHED THE CURRENT BLOCK L
1875:.\PrimeImpl.c ****             //0
1876:.\PrimeImpl.c ****             index++;
 7630              		.loc 1 1876 0
 7631 08d0 FB7D     		ldrb	r3, [r7, #23]	@ zero_extendqisi2
 7632 08d2 0133     		adds	r3, r3, #1
 7633 08d4 FB75     		strb	r3, [r7, #23]
1877:.\PrimeImpl.c ****             ptreeprom++;
 7634              		.loc 1 1877 0
 7635 08d6 3B69     		ldr	r3, [r7, #16]
 7636 08d8 0133     		adds	r3, r3, #1
 7637 08da 3B61     		str	r3, [r7, #16]
1878:.\PrimeImpl.c ****             blkindex = 0;
 7638              		.loc 1 1878 0
 7639 08dc 0023     		movs	r3, #0
 7640 08de FB73     		strb	r3, [r7, #15]
1879:.\PrimeImpl.c ****             //Deliveries With Zero PPU
1880:.\PrimeImpl.c ****             *ptreeprom = ((TranslateSpecialFuncionDigit(pjob->_ppump->_rxbuffer[9 + 45*index + 2*bl
 7641              		.loc 1 1880 0
 7642 08e0 BB69     		ldr	r3, [r7, #24]
 7643 08e2 D969     		ldr	r1, [r3, #28]
 7644 08e4 FA7D     		ldrb	r2, [r7, #23]	@ zero_extendqisi2
 7645 08e6 1346     		mov	r3, r2
 7646 08e8 5B00     		lsls	r3, r3, #1
 7647 08ea 1344     		add	r3, r3, r2
 7648 08ec 1A01     		lsls	r2, r3, #4
 7649 08ee D31A     		subs	r3, r2, r3
 7650 08f0 03F10902 		add	r2, r3, #9
 7651 08f4 FB7B     		ldrb	r3, [r7, #15]	@ zero_extendqisi2
 7652 08f6 5B00     		lsls	r3, r3, #1
 7653 08f8 1344     		add	r3, r3, r2
 7654 08fa 0B44     		add	r3, r3, r1
 7655 08fc 93F88831 		ldrb	r3, [r3, #392]	@ zero_extendqisi2
 7656 0900 1846     		mov	r0, r3
ARM GAS  C:\Users\RECEPC~1\AppData\Local\Temp\ccQD6Oev.s 			page 169


 7657 0902 FFF7FEFF 		bl	TranslateSpecialFuncionDigit
 7658 0906 0346     		mov	r3, r0
 7659 0908 1B01     		lsls	r3, r3, #4
 7660 090a DCB2     		uxtb	r4, r3
1881:.\PrimeImpl.c ****                             (TranslateSpecialFuncionDigit(pjob->_ppump->_rxbuffer[9 + 45*index + (2
 7661              		.loc 1 1881 0
 7662 090c BB69     		ldr	r3, [r7, #24]
 7663 090e D969     		ldr	r1, [r3, #28]
 7664 0910 FA7D     		ldrb	r2, [r7, #23]	@ zero_extendqisi2
 7665 0912 1346     		mov	r3, r2
 7666 0914 5B00     		lsls	r3, r3, #1
 7667 0916 1344     		add	r3, r3, r2
 7668 0918 1A01     		lsls	r2, r3, #4
 7669 091a D31A     		subs	r3, r2, r3
 7670 091c 03F10902 		add	r2, r3, #9
 7671 0920 FB7B     		ldrb	r3, [r7, #15]	@ zero_extendqisi2
 7672 0922 5B00     		lsls	r3, r3, #1
 7673 0924 0133     		adds	r3, r3, #1
 7674 0926 1344     		add	r3, r3, r2
 7675 0928 0B44     		add	r3, r3, r1
 7676 092a 93F88831 		ldrb	r3, [r3, #392]	@ zero_extendqisi2
 7677 092e 1846     		mov	r0, r3
 7678 0930 FFF7FEFF 		bl	TranslateSpecialFuncionDigit
 7679 0934 0346     		mov	r3, r0
1880:.\PrimeImpl.c ****                             (TranslateSpecialFuncionDigit(pjob->_ppump->_rxbuffer[9 + 45*index + (2
 7680              		.loc 1 1880 0
 7681 0936 DBB2     		uxtb	r3, r3
 7682 0938 03F00F03 		and	r3, r3, #15
 7683 093c DBB2     		uxtb	r3, r3
 7684 093e 2246     		mov	r2, r4
 7685 0940 1343     		orrs	r3, r3, r2
 7686 0942 DBB2     		uxtb	r3, r3
 7687 0944 DAB2     		uxtb	r2, r3
 7688 0946 3B69     		ldr	r3, [r7, #16]
 7689 0948 1A70     		strb	r2, [r3]
1882:.\PrimeImpl.c **** 
1883:.\PrimeImpl.c ****             //1
1884:.\PrimeImpl.c ****             ptreeprom++;
 7690              		.loc 1 1884 0
 7691 094a 3B69     		ldr	r3, [r7, #16]
 7692 094c 0133     		adds	r3, r3, #1
 7693 094e 3B61     		str	r3, [r7, #16]
1885:.\PrimeImpl.c ****             blkindex++;
 7694              		.loc 1 1885 0
 7695 0950 FB7B     		ldrb	r3, [r7, #15]	@ zero_extendqisi2
 7696 0952 0133     		adds	r3, r3, #1
 7697 0954 FB73     		strb	r3, [r7, #15]
1886:.\PrimeImpl.c ****             //Zero Previous Sales Bef/Aft
1887:.\PrimeImpl.c ****             *ptreeprom = ((TranslateSpecialFuncionDigit(pjob->_ppump->_rxbuffer[9 + 45*index + 2*bl
 7698              		.loc 1 1887 0
 7699 0956 BB69     		ldr	r3, [r7, #24]
 7700 0958 D969     		ldr	r1, [r3, #28]
 7701 095a FA7D     		ldrb	r2, [r7, #23]	@ zero_extendqisi2
 7702 095c 1346     		mov	r3, r2
 7703 095e 5B00     		lsls	r3, r3, #1
 7704 0960 1344     		add	r3, r3, r2
 7705 0962 1A01     		lsls	r2, r3, #4
ARM GAS  C:\Users\RECEPC~1\AppData\Local\Temp\ccQD6Oev.s 			page 170


 7706 0964 D31A     		subs	r3, r2, r3
 7707 0966 03F10902 		add	r2, r3, #9
 7708 096a FB7B     		ldrb	r3, [r7, #15]	@ zero_extendqisi2
 7709 096c 5B00     		lsls	r3, r3, #1
 7710 096e 1344     		add	r3, r3, r2
 7711 0970 0B44     		add	r3, r3, r1
 7712 0972 93F88831 		ldrb	r3, [r3, #392]	@ zero_extendqisi2
 7713 0976 1846     		mov	r0, r3
 7714 0978 FFF7FEFF 		bl	TranslateSpecialFuncionDigit
 7715 097c 0346     		mov	r3, r0
 7716 097e 1B01     		lsls	r3, r3, #4
 7717 0980 DCB2     		uxtb	r4, r3
1888:.\PrimeImpl.c ****                             (TranslateSpecialFuncionDigit(pjob->_ppump->_rxbuffer[9 + 45*index + (2
 7718              		.loc 1 1888 0
 7719 0982 BB69     		ldr	r3, [r7, #24]
 7720 0984 D969     		ldr	r1, [r3, #28]
 7721 0986 FA7D     		ldrb	r2, [r7, #23]	@ zero_extendqisi2
 7722 0988 1346     		mov	r3, r2
 7723 098a 5B00     		lsls	r3, r3, #1
 7724 098c 1344     		add	r3, r3, r2
 7725 098e 1A01     		lsls	r2, r3, #4
 7726 0990 D31A     		subs	r3, r2, r3
 7727 0992 01E0     		b	.L234
 7728              	.L235:
 7729              		.align	2
 7730              	.L233:
 7731 0994 00000000 		.word	_g_dispenserlayoutinfo
 7732              	.L234:
 7733 0998 03F10902 		add	r2, r3, #9
 7734 099c FB7B     		ldrb	r3, [r7, #15]	@ zero_extendqisi2
 7735 099e 5B00     		lsls	r3, r3, #1
 7736 09a0 0133     		adds	r3, r3, #1
 7737 09a2 1344     		add	r3, r3, r2
 7738 09a4 0B44     		add	r3, r3, r1
 7739 09a6 93F88831 		ldrb	r3, [r3, #392]	@ zero_extendqisi2
 7740 09aa 1846     		mov	r0, r3
 7741 09ac FFF7FEFF 		bl	TranslateSpecialFuncionDigit
 7742 09b0 0346     		mov	r3, r0
1887:.\PrimeImpl.c ****                             (TranslateSpecialFuncionDigit(pjob->_ppump->_rxbuffer[9 + 45*index + (2
 7743              		.loc 1 1887 0
 7744 09b2 DBB2     		uxtb	r3, r3
 7745 09b4 03F00F03 		and	r3, r3, #15
 7746 09b8 DBB2     		uxtb	r3, r3
 7747 09ba 2246     		mov	r2, r4
 7748 09bc 1343     		orrs	r3, r3, r2
 7749 09be DBB2     		uxtb	r3, r3
 7750 09c0 DAB2     		uxtb	r2, r3
 7751 09c2 3B69     		ldr	r3, [r7, #16]
 7752 09c4 1A70     		strb	r2, [r3]
1889:.\PrimeImpl.c **** 
1890:.\PrimeImpl.c ****             //2
1891:.\PrimeImpl.c ****             ptreeprom++;
 7753              		.loc 1 1891 0
 7754 09c6 3B69     		ldr	r3, [r7, #16]
 7755 09c8 0133     		adds	r3, r3, #1
 7756 09ca 3B61     		str	r3, [r7, #16]
1892:.\PrimeImpl.c ****             blkindex++;
ARM GAS  C:\Users\RECEPC~1\AppData\Local\Temp\ccQD6Oev.s 			page 171


 7757              		.loc 1 1892 0
 7758 09cc FB7B     		ldrb	r3, [r7, #15]	@ zero_extendqisi2
 7759 09ce 0133     		adds	r3, r3, #1
 7760 09d0 FB73     		strb	r3, [r7, #15]
1893:.\PrimeImpl.c ****             //Lamp Test Timer
1894:.\PrimeImpl.c ****             *ptreeprom = ((TranslateSpecialFuncionDigit(pjob->_ppump->_rxbuffer[9 + 45*index + 2*bl
 7761              		.loc 1 1894 0
 7762 09d2 BB69     		ldr	r3, [r7, #24]
 7763 09d4 D969     		ldr	r1, [r3, #28]
 7764 09d6 FA7D     		ldrb	r2, [r7, #23]	@ zero_extendqisi2
 7765 09d8 1346     		mov	r3, r2
 7766 09da 5B00     		lsls	r3, r3, #1
 7767 09dc 1344     		add	r3, r3, r2
 7768 09de 1A01     		lsls	r2, r3, #4
 7769 09e0 D31A     		subs	r3, r2, r3
 7770 09e2 03F10902 		add	r2, r3, #9
 7771 09e6 FB7B     		ldrb	r3, [r7, #15]	@ zero_extendqisi2
 7772 09e8 5B00     		lsls	r3, r3, #1
 7773 09ea 1344     		add	r3, r3, r2
 7774 09ec 0B44     		add	r3, r3, r1
 7775 09ee 93F88831 		ldrb	r3, [r3, #392]	@ zero_extendqisi2
 7776 09f2 1846     		mov	r0, r3
 7777 09f4 FFF7FEFF 		bl	TranslateSpecialFuncionDigit
 7778 09f8 0346     		mov	r3, r0
 7779 09fa 1B01     		lsls	r3, r3, #4
 7780 09fc DCB2     		uxtb	r4, r3
1895:.\PrimeImpl.c ****                             (TranslateSpecialFuncionDigit(pjob->_ppump->_rxbuffer[9 + 45*index + (2
 7781              		.loc 1 1895 0
 7782 09fe BB69     		ldr	r3, [r7, #24]
 7783 0a00 D969     		ldr	r1, [r3, #28]
 7784 0a02 FA7D     		ldrb	r2, [r7, #23]	@ zero_extendqisi2
 7785 0a04 1346     		mov	r3, r2
 7786 0a06 5B00     		lsls	r3, r3, #1
 7787 0a08 1344     		add	r3, r3, r2
 7788 0a0a 1A01     		lsls	r2, r3, #4
 7789 0a0c D31A     		subs	r3, r2, r3
 7790 0a0e 03F10902 		add	r2, r3, #9
 7791 0a12 FB7B     		ldrb	r3, [r7, #15]	@ zero_extendqisi2
 7792 0a14 5B00     		lsls	r3, r3, #1
 7793 0a16 0133     		adds	r3, r3, #1
 7794 0a18 1344     		add	r3, r3, r2
 7795 0a1a 0B44     		add	r3, r3, r1
 7796 0a1c 93F88831 		ldrb	r3, [r3, #392]	@ zero_extendqisi2
 7797 0a20 1846     		mov	r0, r3
 7798 0a22 FFF7FEFF 		bl	TranslateSpecialFuncionDigit
 7799 0a26 0346     		mov	r3, r0
1894:.\PrimeImpl.c ****                             (TranslateSpecialFuncionDigit(pjob->_ppump->_rxbuffer[9 + 45*index + (2
 7800              		.loc 1 1894 0
 7801 0a28 DBB2     		uxtb	r3, r3
 7802 0a2a 03F00F03 		and	r3, r3, #15
 7803 0a2e DBB2     		uxtb	r3, r3
 7804 0a30 2246     		mov	r2, r4
 7805 0a32 1343     		orrs	r3, r3, r2
 7806 0a34 DBB2     		uxtb	r3, r3
 7807 0a36 DAB2     		uxtb	r2, r3
 7808 0a38 3B69     		ldr	r3, [r7, #16]
 7809 0a3a 1A70     		strb	r2, [r3]
ARM GAS  C:\Users\RECEPC~1\AppData\Local\Temp\ccQD6Oev.s 			page 172


1896:.\PrimeImpl.c **** 
1897:.\PrimeImpl.c ****             //3
1898:.\PrimeImpl.c ****             ptreeprom++;
 7810              		.loc 1 1898 0
 7811 0a3c 3B69     		ldr	r3, [r7, #16]
 7812 0a3e 0133     		adds	r3, r3, #1
 7813 0a40 3B61     		str	r3, [r7, #16]
1899:.\PrimeImpl.c ****             blkindex++;
 7814              		.loc 1 1899 0
 7815 0a42 FB7B     		ldrb	r3, [r7, #15]	@ zero_extendqisi2
 7816 0a44 0133     		adds	r3, r3, #1
 7817 0a46 FB73     		strb	r3, [r7, #15]
1900:.\PrimeImpl.c ****             //Decimal/Integers Preset Value
1901:.\PrimeImpl.c ****             *ptreeprom = ((TranslateSpecialFuncionDigit(pjob->_ppump->_rxbuffer[9 + 45*index + 2*bl
 7818              		.loc 1 1901 0
 7819 0a48 BB69     		ldr	r3, [r7, #24]
 7820 0a4a D969     		ldr	r1, [r3, #28]
 7821 0a4c FA7D     		ldrb	r2, [r7, #23]	@ zero_extendqisi2
 7822 0a4e 1346     		mov	r3, r2
 7823 0a50 5B00     		lsls	r3, r3, #1
 7824 0a52 1344     		add	r3, r3, r2
 7825 0a54 1A01     		lsls	r2, r3, #4
 7826 0a56 D31A     		subs	r3, r2, r3
 7827 0a58 03F10902 		add	r2, r3, #9
 7828 0a5c FB7B     		ldrb	r3, [r7, #15]	@ zero_extendqisi2
 7829 0a5e 5B00     		lsls	r3, r3, #1
 7830 0a60 1344     		add	r3, r3, r2
 7831 0a62 0B44     		add	r3, r3, r1
 7832 0a64 93F88831 		ldrb	r3, [r3, #392]	@ zero_extendqisi2
 7833 0a68 1846     		mov	r0, r3
 7834 0a6a FFF7FEFF 		bl	TranslateSpecialFuncionDigit
 7835 0a6e 0346     		mov	r3, r0
 7836 0a70 1B01     		lsls	r3, r3, #4
 7837 0a72 DCB2     		uxtb	r4, r3
1902:.\PrimeImpl.c ****                             (TranslateSpecialFuncionDigit(pjob->_ppump->_rxbuffer[9 + 45*index + (2
 7838              		.loc 1 1902 0
 7839 0a74 BB69     		ldr	r3, [r7, #24]
 7840 0a76 D969     		ldr	r1, [r3, #28]
 7841 0a78 FA7D     		ldrb	r2, [r7, #23]	@ zero_extendqisi2
 7842 0a7a 1346     		mov	r3, r2
 7843 0a7c 5B00     		lsls	r3, r3, #1
 7844 0a7e 1344     		add	r3, r3, r2
 7845 0a80 1A01     		lsls	r2, r3, #4
 7846 0a82 D31A     		subs	r3, r2, r3
 7847 0a84 03F10902 		add	r2, r3, #9
 7848 0a88 FB7B     		ldrb	r3, [r7, #15]	@ zero_extendqisi2
 7849 0a8a 5B00     		lsls	r3, r3, #1
 7850 0a8c 0133     		adds	r3, r3, #1
 7851 0a8e 1344     		add	r3, r3, r2
 7852 0a90 0B44     		add	r3, r3, r1
 7853 0a92 93F88831 		ldrb	r3, [r3, #392]	@ zero_extendqisi2
 7854 0a96 1846     		mov	r0, r3
 7855 0a98 FFF7FEFF 		bl	TranslateSpecialFuncionDigit
 7856 0a9c 0346     		mov	r3, r0
1901:.\PrimeImpl.c ****                             (TranslateSpecialFuncionDigit(pjob->_ppump->_rxbuffer[9 + 45*index + (2
 7857              		.loc 1 1901 0
 7858 0a9e DBB2     		uxtb	r3, r3
ARM GAS  C:\Users\RECEPC~1\AppData\Local\Temp\ccQD6Oev.s 			page 173


 7859 0aa0 03F00F03 		and	r3, r3, #15
 7860 0aa4 DBB2     		uxtb	r3, r3
 7861 0aa6 2246     		mov	r2, r4
 7862 0aa8 1343     		orrs	r3, r3, r2
 7863 0aaa DBB2     		uxtb	r3, r3
 7864 0aac DAB2     		uxtb	r2, r3
 7865 0aae 3B69     		ldr	r3, [r7, #16]
 7866 0ab0 1A70     		strb	r2, [r3]
1903:.\PrimeImpl.c **** 
1904:.\PrimeImpl.c ****             //4
1905:.\PrimeImpl.c ****             ptreeprom++;
 7867              		.loc 1 1905 0
 7868 0ab2 3B69     		ldr	r3, [r7, #16]
 7869 0ab4 0133     		adds	r3, r3, #1
 7870 0ab6 3B61     		str	r3, [r7, #16]
1906:.\PrimeImpl.c ****             blkindex++;
 7871              		.loc 1 1906 0
 7872 0ab8 FB7B     		ldrb	r3, [r7, #15]	@ zero_extendqisi2
 7873 0aba 0133     		adds	r3, r3, #1
 7874 0abc FB73     		strb	r3, [r7, #15]
1907:.\PrimeImpl.c ****             //Flow Rate Meter Mode
1908:.\PrimeImpl.c ****             *ptreeprom = ((TranslateSpecialFuncionDigit(pjob->_ppump->_rxbuffer[9 + 45*index + 2*bl
 7875              		.loc 1 1908 0
 7876 0abe BB69     		ldr	r3, [r7, #24]
 7877 0ac0 D969     		ldr	r1, [r3, #28]
 7878 0ac2 FA7D     		ldrb	r2, [r7, #23]	@ zero_extendqisi2
 7879 0ac4 1346     		mov	r3, r2
 7880 0ac6 5B00     		lsls	r3, r3, #1
 7881 0ac8 1344     		add	r3, r3, r2
 7882 0aca 1A01     		lsls	r2, r3, #4
 7883 0acc D31A     		subs	r3, r2, r3
 7884 0ace 03F10902 		add	r2, r3, #9
 7885 0ad2 FB7B     		ldrb	r3, [r7, #15]	@ zero_extendqisi2
 7886 0ad4 5B00     		lsls	r3, r3, #1
 7887 0ad6 1344     		add	r3, r3, r2
 7888 0ad8 0B44     		add	r3, r3, r1
 7889 0ada 93F88831 		ldrb	r3, [r3, #392]	@ zero_extendqisi2
 7890 0ade 1846     		mov	r0, r3
 7891 0ae0 FFF7FEFF 		bl	TranslateSpecialFuncionDigit
 7892 0ae4 0346     		mov	r3, r0
 7893 0ae6 1B01     		lsls	r3, r3, #4
 7894 0ae8 DCB2     		uxtb	r4, r3
1909:.\PrimeImpl.c ****                             (TranslateSpecialFuncionDigit(pjob->_ppump->_rxbuffer[9 + 45*index + (2
 7895              		.loc 1 1909 0
 7896 0aea BB69     		ldr	r3, [r7, #24]
 7897 0aec D969     		ldr	r1, [r3, #28]
 7898 0aee FA7D     		ldrb	r2, [r7, #23]	@ zero_extendqisi2
 7899 0af0 1346     		mov	r3, r2
 7900 0af2 5B00     		lsls	r3, r3, #1
 7901 0af4 1344     		add	r3, r3, r2
 7902 0af6 1A01     		lsls	r2, r3, #4
 7903 0af8 D31A     		subs	r3, r2, r3
 7904 0afa 03F10902 		add	r2, r3, #9
 7905 0afe FB7B     		ldrb	r3, [r7, #15]	@ zero_extendqisi2
 7906 0b00 5B00     		lsls	r3, r3, #1
 7907 0b02 0133     		adds	r3, r3, #1
 7908 0b04 1344     		add	r3, r3, r2
ARM GAS  C:\Users\RECEPC~1\AppData\Local\Temp\ccQD6Oev.s 			page 174


 7909 0b06 0B44     		add	r3, r3, r1
 7910 0b08 93F88831 		ldrb	r3, [r3, #392]	@ zero_extendqisi2
 7911 0b0c 1846     		mov	r0, r3
 7912 0b0e FFF7FEFF 		bl	TranslateSpecialFuncionDigit
 7913 0b12 0346     		mov	r3, r0
1908:.\PrimeImpl.c ****                             (TranslateSpecialFuncionDigit(pjob->_ppump->_rxbuffer[9 + 45*index + (2
 7914              		.loc 1 1908 0
 7915 0b14 DBB2     		uxtb	r3, r3
 7916 0b16 03F00F03 		and	r3, r3, #15
 7917 0b1a DBB2     		uxtb	r3, r3
 7918 0b1c 2246     		mov	r2, r4
 7919 0b1e 1343     		orrs	r3, r3, r2
 7920 0b20 DBB2     		uxtb	r3, r3
 7921 0b22 DAB2     		uxtb	r2, r3
 7922 0b24 3B69     		ldr	r3, [r7, #16]
 7923 0b26 1A70     		strb	r2, [r3]
1910:.\PrimeImpl.c **** 
1911:.\PrimeImpl.c ****             //5
1912:.\PrimeImpl.c ****             ptreeprom++;
 7924              		.loc 1 1912 0
 7925 0b28 3B69     		ldr	r3, [r7, #16]
 7926 0b2a 0133     		adds	r3, r3, #1
 7927 0b2c 3B61     		str	r3, [r7, #16]
1913:.\PrimeImpl.c ****             blkindex++;
 7928              		.loc 1 1913 0
 7929 0b2e FB7B     		ldrb	r3, [r7, #15]	@ zero_extendqisi2
 7930 0b30 0133     		adds	r3, r3, #1
 7931 0b32 FB73     		strb	r3, [r7, #15]
1914:.\PrimeImpl.c ****             //Display Check Mode
1915:.\PrimeImpl.c ****             *ptreeprom = ((TranslateSpecialFuncionDigit(pjob->_ppump->_rxbuffer[9 + 45*index + 2*bl
 7932              		.loc 1 1915 0
 7933 0b34 BB69     		ldr	r3, [r7, #24]
 7934 0b36 D969     		ldr	r1, [r3, #28]
 7935 0b38 FA7D     		ldrb	r2, [r7, #23]	@ zero_extendqisi2
 7936 0b3a 1346     		mov	r3, r2
 7937 0b3c 5B00     		lsls	r3, r3, #1
 7938 0b3e 1344     		add	r3, r3, r2
 7939 0b40 1A01     		lsls	r2, r3, #4
 7940 0b42 D31A     		subs	r3, r2, r3
 7941 0b44 03F10902 		add	r2, r3, #9
 7942 0b48 FB7B     		ldrb	r3, [r7, #15]	@ zero_extendqisi2
 7943 0b4a 5B00     		lsls	r3, r3, #1
 7944 0b4c 1344     		add	r3, r3, r2
 7945 0b4e 0B44     		add	r3, r3, r1
 7946 0b50 93F88831 		ldrb	r3, [r3, #392]	@ zero_extendqisi2
 7947 0b54 1846     		mov	r0, r3
 7948 0b56 FFF7FEFF 		bl	TranslateSpecialFuncionDigit
 7949 0b5a 0346     		mov	r3, r0
 7950 0b5c 1B01     		lsls	r3, r3, #4
 7951 0b5e DCB2     		uxtb	r4, r3
1916:.\PrimeImpl.c ****                             (TranslateSpecialFuncionDigit(pjob->_ppump->_rxbuffer[9 + 45*index + (2
 7952              		.loc 1 1916 0
 7953 0b60 BB69     		ldr	r3, [r7, #24]
 7954 0b62 D969     		ldr	r1, [r3, #28]
 7955 0b64 FA7D     		ldrb	r2, [r7, #23]	@ zero_extendqisi2
 7956 0b66 1346     		mov	r3, r2
 7957 0b68 5B00     		lsls	r3, r3, #1
ARM GAS  C:\Users\RECEPC~1\AppData\Local\Temp\ccQD6Oev.s 			page 175


 7958 0b6a 1344     		add	r3, r3, r2
 7959 0b6c 1A01     		lsls	r2, r3, #4
 7960 0b6e D31A     		subs	r3, r2, r3
 7961 0b70 03F10902 		add	r2, r3, #9
 7962 0b74 FB7B     		ldrb	r3, [r7, #15]	@ zero_extendqisi2
 7963 0b76 5B00     		lsls	r3, r3, #1
 7964 0b78 0133     		adds	r3, r3, #1
 7965 0b7a 1344     		add	r3, r3, r2
 7966 0b7c 0B44     		add	r3, r3, r1
 7967 0b7e 93F88831 		ldrb	r3, [r3, #392]	@ zero_extendqisi2
 7968 0b82 1846     		mov	r0, r3
 7969 0b84 FFF7FEFF 		bl	TranslateSpecialFuncionDigit
 7970 0b88 0346     		mov	r3, r0
1915:.\PrimeImpl.c ****                             (TranslateSpecialFuncionDigit(pjob->_ppump->_rxbuffer[9 + 45*index + (2
 7971              		.loc 1 1915 0
 7972 0b8a DBB2     		uxtb	r3, r3
 7973 0b8c 03F00F03 		and	r3, r3, #15
 7974 0b90 DBB2     		uxtb	r3, r3
 7975 0b92 2246     		mov	r2, r4
 7976 0b94 1343     		orrs	r3, r3, r2
 7977 0b96 DBB2     		uxtb	r3, r3
 7978 0b98 DAB2     		uxtb	r2, r3
 7979 0b9a 3B69     		ldr	r3, [r7, #16]
 7980 0b9c 1A70     		strb	r2, [r3]
1917:.\PrimeImpl.c **** 
1918:.\PrimeImpl.c ****             //6
1919:.\PrimeImpl.c ****             ptreeprom++;
 7981              		.loc 1 1919 0
 7982 0b9e 3B69     		ldr	r3, [r7, #16]
 7983 0ba0 0133     		adds	r3, r3, #1
 7984 0ba2 3B61     		str	r3, [r7, #16]
1920:.\PrimeImpl.c ****             blkindex++;
 7985              		.loc 1 1920 0
 7986 0ba4 FB7B     		ldrb	r3, [r7, #15]	@ zero_extendqisi2
 7987 0ba6 0133     		adds	r3, r3, #1
 7988 0ba8 FB73     		strb	r3, [r7, #15]
1921:.\PrimeImpl.c ****             //Electro-Mech Totalizer Mode
1922:.\PrimeImpl.c ****             *ptreeprom = ((TranslateSpecialFuncionDigit(pjob->_ppump->_rxbuffer[9 + 45*index + 2*bl
 7989              		.loc 1 1922 0
 7990 0baa BB69     		ldr	r3, [r7, #24]
 7991 0bac D969     		ldr	r1, [r3, #28]
 7992 0bae FA7D     		ldrb	r2, [r7, #23]	@ zero_extendqisi2
 7993 0bb0 1346     		mov	r3, r2
 7994 0bb2 5B00     		lsls	r3, r3, #1
 7995 0bb4 1344     		add	r3, r3, r2
 7996 0bb6 1A01     		lsls	r2, r3, #4
 7997 0bb8 D31A     		subs	r3, r2, r3
 7998 0bba 03F10902 		add	r2, r3, #9
 7999 0bbe FB7B     		ldrb	r3, [r7, #15]	@ zero_extendqisi2
 8000 0bc0 5B00     		lsls	r3, r3, #1
 8001 0bc2 1344     		add	r3, r3, r2
 8002 0bc4 0B44     		add	r3, r3, r1
 8003 0bc6 93F88831 		ldrb	r3, [r3, #392]	@ zero_extendqisi2
 8004 0bca 1846     		mov	r0, r3
 8005 0bcc FFF7FEFF 		bl	TranslateSpecialFuncionDigit
 8006 0bd0 0346     		mov	r3, r0
 8007 0bd2 1B01     		lsls	r3, r3, #4
ARM GAS  C:\Users\RECEPC~1\AppData\Local\Temp\ccQD6Oev.s 			page 176


 8008 0bd4 DCB2     		uxtb	r4, r3
1923:.\PrimeImpl.c ****                             (TranslateSpecialFuncionDigit(pjob->_ppump->_rxbuffer[9 + 45*index + (2
 8009              		.loc 1 1923 0
 8010 0bd6 BB69     		ldr	r3, [r7, #24]
 8011 0bd8 D969     		ldr	r1, [r3, #28]
 8012 0bda FA7D     		ldrb	r2, [r7, #23]	@ zero_extendqisi2
 8013 0bdc 1346     		mov	r3, r2
 8014 0bde 5B00     		lsls	r3, r3, #1
 8015 0be0 1344     		add	r3, r3, r2
 8016 0be2 1A01     		lsls	r2, r3, #4
 8017 0be4 D31A     		subs	r3, r2, r3
 8018 0be6 03F10902 		add	r2, r3, #9
 8019 0bea FB7B     		ldrb	r3, [r7, #15]	@ zero_extendqisi2
 8020 0bec 5B00     		lsls	r3, r3, #1
 8021 0bee 0133     		adds	r3, r3, #1
 8022 0bf0 1344     		add	r3, r3, r2
 8023 0bf2 0B44     		add	r3, r3, r1
 8024 0bf4 93F88831 		ldrb	r3, [r3, #392]	@ zero_extendqisi2
 8025 0bf8 1846     		mov	r0, r3
 8026 0bfa FFF7FEFF 		bl	TranslateSpecialFuncionDigit
 8027 0bfe 0346     		mov	r3, r0
1922:.\PrimeImpl.c ****                             (TranslateSpecialFuncionDigit(pjob->_ppump->_rxbuffer[9 + 45*index + (2
 8028              		.loc 1 1922 0
 8029 0c00 DBB2     		uxtb	r3, r3
 8030 0c02 03F00F03 		and	r3, r3, #15
 8031 0c06 DBB2     		uxtb	r3, r3
 8032 0c08 2246     		mov	r2, r4
 8033 0c0a 1343     		orrs	r3, r3, r2
 8034 0c0c DBB2     		uxtb	r3, r3
 8035 0c0e DAB2     		uxtb	r2, r3
 8036 0c10 3B69     		ldr	r3, [r7, #16]
 8037 0c12 1A70     		strb	r2, [r3]
1924:.\PrimeImpl.c **** 
1925:.\PrimeImpl.c ****             //7
1926:.\PrimeImpl.c ****             ptreeprom++;
 8038              		.loc 1 1926 0
 8039 0c14 3B69     		ldr	r3, [r7, #16]
 8040 0c16 0133     		adds	r3, r3, #1
 8041 0c18 3B61     		str	r3, [r7, #16]
1927:.\PrimeImpl.c ****             blkindex++;
 8042              		.loc 1 1927 0
 8043 0c1a FB7B     		ldrb	r3, [r7, #15]	@ zero_extendqisi2
 8044 0c1c 0133     		adds	r3, r3, #1
 8045 0c1e FB73     		strb	r3, [r7, #15]
1928:.\PrimeImpl.c ****             //Calibration Mode
1929:.\PrimeImpl.c ****             *ptreeprom = ((TranslateSpecialFuncionDigit(pjob->_ppump->_rxbuffer[9 + 45*index + 2*bl
 8046              		.loc 1 1929 0
 8047 0c20 BB69     		ldr	r3, [r7, #24]
 8048 0c22 D969     		ldr	r1, [r3, #28]
 8049 0c24 FA7D     		ldrb	r2, [r7, #23]	@ zero_extendqisi2
 8050 0c26 1346     		mov	r3, r2
 8051 0c28 5B00     		lsls	r3, r3, #1
 8052 0c2a 1344     		add	r3, r3, r2
 8053 0c2c 1A01     		lsls	r2, r3, #4
 8054 0c2e D31A     		subs	r3, r2, r3
 8055 0c30 03F10902 		add	r2, r3, #9
 8056 0c34 FB7B     		ldrb	r3, [r7, #15]	@ zero_extendqisi2
ARM GAS  C:\Users\RECEPC~1\AppData\Local\Temp\ccQD6Oev.s 			page 177


 8057 0c36 5B00     		lsls	r3, r3, #1
 8058 0c38 1344     		add	r3, r3, r2
 8059 0c3a 0B44     		add	r3, r3, r1
 8060 0c3c 93F88831 		ldrb	r3, [r3, #392]	@ zero_extendqisi2
 8061 0c40 1846     		mov	r0, r3
 8062 0c42 FFF7FEFF 		bl	TranslateSpecialFuncionDigit
 8063 0c46 0346     		mov	r3, r0
 8064 0c48 1B01     		lsls	r3, r3, #4
 8065 0c4a DCB2     		uxtb	r4, r3
1930:.\PrimeImpl.c ****                             (TranslateSpecialFuncionDigit(pjob->_ppump->_rxbuffer[9 + 45*index + (2
 8066              		.loc 1 1930 0
 8067 0c4c BB69     		ldr	r3, [r7, #24]
 8068 0c4e D969     		ldr	r1, [r3, #28]
 8069 0c50 FA7D     		ldrb	r2, [r7, #23]	@ zero_extendqisi2
 8070 0c52 1346     		mov	r3, r2
 8071 0c54 5B00     		lsls	r3, r3, #1
 8072 0c56 1344     		add	r3, r3, r2
 8073 0c58 1A01     		lsls	r2, r3, #4
 8074 0c5a D31A     		subs	r3, r2, r3
 8075 0c5c 03F10902 		add	r2, r3, #9
 8076 0c60 FB7B     		ldrb	r3, [r7, #15]	@ zero_extendqisi2
 8077 0c62 5B00     		lsls	r3, r3, #1
 8078 0c64 0133     		adds	r3, r3, #1
 8079 0c66 1344     		add	r3, r3, r2
 8080 0c68 0B44     		add	r3, r3, r1
 8081 0c6a 93F88831 		ldrb	r3, [r3, #392]	@ zero_extendqisi2
 8082 0c6e 1846     		mov	r0, r3
 8083 0c70 FFF7FEFF 		bl	TranslateSpecialFuncionDigit
 8084 0c74 0346     		mov	r3, r0
1929:.\PrimeImpl.c ****                             (TranslateSpecialFuncionDigit(pjob->_ppump->_rxbuffer[9 + 45*index + (2
 8085              		.loc 1 1929 0
 8086 0c76 DBB2     		uxtb	r3, r3
 8087 0c78 03F00F03 		and	r3, r3, #15
 8088 0c7c DBB2     		uxtb	r3, r3
 8089 0c7e 2246     		mov	r2, r4
 8090 0c80 1343     		orrs	r3, r3, r2
 8091 0c82 DBB2     		uxtb	r3, r3
 8092 0c84 DAB2     		uxtb	r2, r3
 8093 0c86 3B69     		ldr	r3, [r7, #16]
 8094 0c88 1A70     		strb	r2, [r3]
1931:.\PrimeImpl.c **** 
1932:.\PrimeImpl.c ****             //8
1933:.\PrimeImpl.c ****             ptreeprom++;
 8095              		.loc 1 1933 0
 8096 0c8a 3B69     		ldr	r3, [r7, #16]
 8097 0c8c 0133     		adds	r3, r3, #1
 8098 0c8e 3B61     		str	r3, [r7, #16]
1934:.\PrimeImpl.c ****             blkindex++;
 8099              		.loc 1 1934 0
 8100 0c90 FB7B     		ldrb	r3, [r7, #15]	@ zero_extendqisi2
 8101 0c92 0133     		adds	r3, r3, #1
 8102 0c94 FB73     		strb	r3, [r7, #15]
1935:.\PrimeImpl.c ****             //Preset Mode
1936:.\PrimeImpl.c ****             *ptreeprom = ((TranslateSpecialFuncionDigit(pjob->_ppump->_rxbuffer[9 + 45*index + 2*bl
 8103              		.loc 1 1936 0
 8104 0c96 BB69     		ldr	r3, [r7, #24]
 8105 0c98 D969     		ldr	r1, [r3, #28]
ARM GAS  C:\Users\RECEPC~1\AppData\Local\Temp\ccQD6Oev.s 			page 178


 8106 0c9a FA7D     		ldrb	r2, [r7, #23]	@ zero_extendqisi2
 8107 0c9c 1346     		mov	r3, r2
 8108 0c9e 5B00     		lsls	r3, r3, #1
 8109 0ca0 1344     		add	r3, r3, r2
 8110 0ca2 1A01     		lsls	r2, r3, #4
 8111 0ca4 D31A     		subs	r3, r2, r3
 8112 0ca6 03F10902 		add	r2, r3, #9
 8113 0caa FB7B     		ldrb	r3, [r7, #15]	@ zero_extendqisi2
 8114 0cac 5B00     		lsls	r3, r3, #1
 8115 0cae 1344     		add	r3, r3, r2
 8116 0cb0 0B44     		add	r3, r3, r1
 8117 0cb2 93F88831 		ldrb	r3, [r3, #392]	@ zero_extendqisi2
 8118 0cb6 1846     		mov	r0, r3
 8119 0cb8 FFF7FEFF 		bl	TranslateSpecialFuncionDigit
 8120 0cbc 0346     		mov	r3, r0
 8121 0cbe 1B01     		lsls	r3, r3, #4
 8122 0cc0 DCB2     		uxtb	r4, r3
1937:.\PrimeImpl.c ****                             (TranslateSpecialFuncionDigit(pjob->_ppump->_rxbuffer[9 + 45*index + (2
 8123              		.loc 1 1937 0
 8124 0cc2 BB69     		ldr	r3, [r7, #24]
 8125 0cc4 D969     		ldr	r1, [r3, #28]
 8126 0cc6 FA7D     		ldrb	r2, [r7, #23]	@ zero_extendqisi2
 8127 0cc8 1346     		mov	r3, r2
 8128 0cca 5B00     		lsls	r3, r3, #1
 8129 0ccc 1344     		add	r3, r3, r2
 8130 0cce 1A01     		lsls	r2, r3, #4
 8131 0cd0 D31A     		subs	r3, r2, r3
 8132 0cd2 03F10902 		add	r2, r3, #9
 8133 0cd6 FB7B     		ldrb	r3, [r7, #15]	@ zero_extendqisi2
 8134 0cd8 5B00     		lsls	r3, r3, #1
 8135 0cda 0133     		adds	r3, r3, #1
 8136 0cdc 1344     		add	r3, r3, r2
 8137 0cde 0B44     		add	r3, r3, r1
 8138 0ce0 93F88831 		ldrb	r3, [r3, #392]	@ zero_extendqisi2
 8139 0ce4 1846     		mov	r0, r3
 8140 0ce6 FFF7FEFF 		bl	TranslateSpecialFuncionDigit
 8141 0cea 0346     		mov	r3, r0
1936:.\PrimeImpl.c ****                             (TranslateSpecialFuncionDigit(pjob->_ppump->_rxbuffer[9 + 45*index + (2
 8142              		.loc 1 1936 0
 8143 0cec DBB2     		uxtb	r3, r3
 8144 0cee 03F00F03 		and	r3, r3, #15
 8145 0cf2 DBB2     		uxtb	r3, r3
 8146 0cf4 2246     		mov	r2, r4
 8147 0cf6 1343     		orrs	r3, r3, r2
 8148 0cf8 DBB2     		uxtb	r3, r3
 8149 0cfa DAB2     		uxtb	r2, r3
 8150 0cfc 3B69     		ldr	r3, [r7, #16]
 8151 0cfe 1A70     		strb	r2, [r3]
1938:.\PrimeImpl.c **** 
1939:.\PrimeImpl.c ****             //9
1940:.\PrimeImpl.c ****             ptreeprom++;
 8152              		.loc 1 1940 0
 8153 0d00 3B69     		ldr	r3, [r7, #16]
 8154 0d02 0133     		adds	r3, r3, #1
 8155 0d04 3B61     		str	r3, [r7, #16]
1941:.\PrimeImpl.c ****             blkindex++;
 8156              		.loc 1 1941 0
ARM GAS  C:\Users\RECEPC~1\AppData\Local\Temp\ccQD6Oev.s 			page 179


 8157 0d06 FB7B     		ldrb	r3, [r7, #15]	@ zero_extendqisi2
 8158 0d08 0133     		adds	r3, r3, #1
 8159 0d0a FB73     		strb	r3, [r7, #15]
1942:.\PrimeImpl.c ****             //30 Seconds to Allow Key Pad Preset
1943:.\PrimeImpl.c ****             *ptreeprom = ((TranslateSpecialFuncionDigit(pjob->_ppump->_rxbuffer[9 + 45*index + 2*bl
 8160              		.loc 1 1943 0
 8161 0d0c BB69     		ldr	r3, [r7, #24]
 8162 0d0e D969     		ldr	r1, [r3, #28]
 8163 0d10 FA7D     		ldrb	r2, [r7, #23]	@ zero_extendqisi2
 8164 0d12 1346     		mov	r3, r2
 8165 0d14 5B00     		lsls	r3, r3, #1
 8166 0d16 1344     		add	r3, r3, r2
 8167 0d18 1A01     		lsls	r2, r3, #4
 8168 0d1a D31A     		subs	r3, r2, r3
 8169 0d1c 03F10902 		add	r2, r3, #9
 8170 0d20 FB7B     		ldrb	r3, [r7, #15]	@ zero_extendqisi2
 8171 0d22 5B00     		lsls	r3, r3, #1
 8172 0d24 1344     		add	r3, r3, r2
 8173 0d26 0B44     		add	r3, r3, r1
 8174 0d28 93F88831 		ldrb	r3, [r3, #392]	@ zero_extendqisi2
 8175 0d2c 1846     		mov	r0, r3
 8176 0d2e FFF7FEFF 		bl	TranslateSpecialFuncionDigit
 8177 0d32 0346     		mov	r3, r0
 8178 0d34 1B01     		lsls	r3, r3, #4
 8179 0d36 DCB2     		uxtb	r4, r3
1944:.\PrimeImpl.c ****                             (TranslateSpecialFuncionDigit(pjob->_ppump->_rxbuffer[9 + 45*index + (2
 8180              		.loc 1 1944 0
 8181 0d38 BB69     		ldr	r3, [r7, #24]
 8182 0d3a D969     		ldr	r1, [r3, #28]
 8183 0d3c FA7D     		ldrb	r2, [r7, #23]	@ zero_extendqisi2
 8184 0d3e 1346     		mov	r3, r2
 8185 0d40 5B00     		lsls	r3, r3, #1
 8186 0d42 1344     		add	r3, r3, r2
 8187 0d44 1A01     		lsls	r2, r3, #4
 8188 0d46 D31A     		subs	r3, r2, r3
 8189 0d48 03F10902 		add	r2, r3, #9
 8190 0d4c FB7B     		ldrb	r3, [r7, #15]	@ zero_extendqisi2
 8191 0d4e 5B00     		lsls	r3, r3, #1
 8192 0d50 0133     		adds	r3, r3, #1
 8193 0d52 1344     		add	r3, r3, r2
 8194 0d54 0B44     		add	r3, r3, r1
 8195 0d56 93F88831 		ldrb	r3, [r3, #392]	@ zero_extendqisi2
 8196 0d5a 1846     		mov	r0, r3
 8197 0d5c FFF7FEFF 		bl	TranslateSpecialFuncionDigit
 8198 0d60 0346     		mov	r3, r0
1943:.\PrimeImpl.c ****                             (TranslateSpecialFuncionDigit(pjob->_ppump->_rxbuffer[9 + 45*index + (2
 8199              		.loc 1 1943 0
 8200 0d62 DBB2     		uxtb	r3, r3
 8201 0d64 03F00F03 		and	r3, r3, #15
 8202 0d68 DBB2     		uxtb	r3, r3
 8203 0d6a 2246     		mov	r2, r4
 8204 0d6c 1343     		orrs	r3, r3, r2
 8205 0d6e DBB2     		uxtb	r3, r3
 8206 0d70 DAB2     		uxtb	r2, r3
 8207 0d72 3B69     		ldr	r3, [r7, #16]
 8208 0d74 1A70     		strb	r2, [r3]
1945:.\PrimeImpl.c **** 
ARM GAS  C:\Users\RECEPC~1\AppData\Local\Temp\ccQD6Oev.s 			page 180


1946:.\PrimeImpl.c ****             //10
1947:.\PrimeImpl.c ****             ptreeprom++;
 8209              		.loc 1 1947 0
 8210 0d76 3B69     		ldr	r3, [r7, #16]
 8211 0d78 0133     		adds	r3, r3, #1
 8212 0d7a 3B61     		str	r3, [r7, #16]
1948:.\PrimeImpl.c ****             blkindex++;
 8213              		.loc 1 1948 0
 8214 0d7c FB7B     		ldrb	r3, [r7, #15]	@ zero_extendqisi2
 8215 0d7e 0133     		adds	r3, r3, #1
 8216 0d80 FB73     		strb	r3, [r7, #15]
1949:.\PrimeImpl.c ****             //Manager Password Mode
1950:.\PrimeImpl.c ****             *ptreeprom = ((TranslateSpecialFuncionDigit(pjob->_ppump->_rxbuffer[9 + 45*index + 2*bl
 8217              		.loc 1 1950 0
 8218 0d82 BB69     		ldr	r3, [r7, #24]
 8219 0d84 D969     		ldr	r1, [r3, #28]
 8220 0d86 FA7D     		ldrb	r2, [r7, #23]	@ zero_extendqisi2
 8221 0d88 1346     		mov	r3, r2
 8222 0d8a 5B00     		lsls	r3, r3, #1
 8223 0d8c 1344     		add	r3, r3, r2
 8224 0d8e 1A01     		lsls	r2, r3, #4
 8225 0d90 D31A     		subs	r3, r2, r3
 8226 0d92 03F10902 		add	r2, r3, #9
 8227 0d96 FB7B     		ldrb	r3, [r7, #15]	@ zero_extendqisi2
 8228 0d98 5B00     		lsls	r3, r3, #1
 8229 0d9a 1344     		add	r3, r3, r2
 8230 0d9c 0B44     		add	r3, r3, r1
 8231 0d9e 93F88831 		ldrb	r3, [r3, #392]	@ zero_extendqisi2
 8232 0da2 1846     		mov	r0, r3
 8233 0da4 FFF7FEFF 		bl	TranslateSpecialFuncionDigit
 8234 0da8 0346     		mov	r3, r0
 8235 0daa 1B01     		lsls	r3, r3, #4
 8236 0dac DCB2     		uxtb	r4, r3
1951:.\PrimeImpl.c ****                             (TranslateSpecialFuncionDigit(pjob->_ppump->_rxbuffer[9 + 45*index + (2
 8237              		.loc 1 1951 0
 8238 0dae BB69     		ldr	r3, [r7, #24]
 8239 0db0 D969     		ldr	r1, [r3, #28]
 8240 0db2 FA7D     		ldrb	r2, [r7, #23]	@ zero_extendqisi2
 8241 0db4 1346     		mov	r3, r2
 8242 0db6 5B00     		lsls	r3, r3, #1
 8243 0db8 1344     		add	r3, r3, r2
 8244 0dba 1A01     		lsls	r2, r3, #4
 8245 0dbc D31A     		subs	r3, r2, r3
 8246 0dbe 03F10902 		add	r2, r3, #9
 8247 0dc2 FB7B     		ldrb	r3, [r7, #15]	@ zero_extendqisi2
 8248 0dc4 5B00     		lsls	r3, r3, #1
 8249 0dc6 0133     		adds	r3, r3, #1
 8250 0dc8 1344     		add	r3, r3, r2
 8251 0dca 0B44     		add	r3, r3, r1
 8252 0dcc 93F88831 		ldrb	r3, [r3, #392]	@ zero_extendqisi2
 8253 0dd0 1846     		mov	r0, r3
 8254 0dd2 FFF7FEFF 		bl	TranslateSpecialFuncionDigit
 8255 0dd6 0346     		mov	r3, r0
1950:.\PrimeImpl.c ****                             (TranslateSpecialFuncionDigit(pjob->_ppump->_rxbuffer[9 + 45*index + (2
 8256              		.loc 1 1950 0
 8257 0dd8 DBB2     		uxtb	r3, r3
 8258 0dda 03F00F03 		and	r3, r3, #15
ARM GAS  C:\Users\RECEPC~1\AppData\Local\Temp\ccQD6Oev.s 			page 181


 8259 0dde DBB2     		uxtb	r3, r3
 8260 0de0 2246     		mov	r2, r4
 8261 0de2 1343     		orrs	r3, r3, r2
 8262 0de4 DBB2     		uxtb	r3, r3
 8263 0de6 DAB2     		uxtb	r2, r3
 8264 0de8 3B69     		ldr	r3, [r7, #16]
 8265 0dea 1A70     		strb	r2, [r3]
1952:.\PrimeImpl.c **** 
1953:.\PrimeImpl.c ****             //11
1954:.\PrimeImpl.c ****             ptreeprom++;
 8266              		.loc 1 1954 0
 8267 0dec 3B69     		ldr	r3, [r7, #16]
 8268 0dee 0133     		adds	r3, r3, #1
 8269 0df0 3B61     		str	r3, [r7, #16]
1955:.\PrimeImpl.c ****             blkindex++;
 8270              		.loc 1 1955 0
 8271 0df2 FB7B     		ldrb	r3, [r7, #15]	@ zero_extendqisi2
 8272 0df4 0133     		adds	r3, r3, #1
 8273 0df6 FB73     		strb	r3, [r7, #15]
1956:.\PrimeImpl.c ****             //Initial Pulses
1957:.\PrimeImpl.c ****             *ptreeprom = ((TranslateSpecialFuncionDigit(pjob->_ppump->_rxbuffer[9 + 45*index + 2*bl
 8274              		.loc 1 1957 0
 8275 0df8 BB69     		ldr	r3, [r7, #24]
 8276 0dfa D969     		ldr	r1, [r3, #28]
 8277 0dfc FA7D     		ldrb	r2, [r7, #23]	@ zero_extendqisi2
 8278 0dfe 1346     		mov	r3, r2
 8279 0e00 5B00     		lsls	r3, r3, #1
 8280 0e02 1344     		add	r3, r3, r2
 8281 0e04 1A01     		lsls	r2, r3, #4
 8282 0e06 D31A     		subs	r3, r2, r3
 8283 0e08 03F10902 		add	r2, r3, #9
 8284 0e0c FB7B     		ldrb	r3, [r7, #15]	@ zero_extendqisi2
 8285 0e0e 5B00     		lsls	r3, r3, #1
 8286 0e10 1344     		add	r3, r3, r2
 8287 0e12 0B44     		add	r3, r3, r1
 8288 0e14 93F88831 		ldrb	r3, [r3, #392]	@ zero_extendqisi2
 8289 0e18 1846     		mov	r0, r3
 8290 0e1a FFF7FEFF 		bl	TranslateSpecialFuncionDigit
 8291 0e1e 0346     		mov	r3, r0
 8292 0e20 1B01     		lsls	r3, r3, #4
 8293 0e22 DCB2     		uxtb	r4, r3
1958:.\PrimeImpl.c ****                             (TranslateSpecialFuncionDigit(pjob->_ppump->_rxbuffer[9 + 45*index + (2
 8294              		.loc 1 1958 0
 8295 0e24 BB69     		ldr	r3, [r7, #24]
 8296 0e26 D969     		ldr	r1, [r3, #28]
 8297 0e28 FA7D     		ldrb	r2, [r7, #23]	@ zero_extendqisi2
 8298 0e2a 1346     		mov	r3, r2
 8299 0e2c 5B00     		lsls	r3, r3, #1
 8300 0e2e 1344     		add	r3, r3, r2
 8301 0e30 1A01     		lsls	r2, r3, #4
 8302 0e32 D31A     		subs	r3, r2, r3
 8303 0e34 03F10902 		add	r2, r3, #9
 8304 0e38 FB7B     		ldrb	r3, [r7, #15]	@ zero_extendqisi2
 8305 0e3a 5B00     		lsls	r3, r3, #1
 8306 0e3c 0133     		adds	r3, r3, #1
 8307 0e3e 1344     		add	r3, r3, r2
 8308 0e40 0B44     		add	r3, r3, r1
ARM GAS  C:\Users\RECEPC~1\AppData\Local\Temp\ccQD6Oev.s 			page 182


 8309 0e42 93F88831 		ldrb	r3, [r3, #392]	@ zero_extendqisi2
 8310 0e46 1846     		mov	r0, r3
 8311 0e48 FFF7FEFF 		bl	TranslateSpecialFuncionDigit
 8312 0e4c 0346     		mov	r3, r0
1957:.\PrimeImpl.c ****                             (TranslateSpecialFuncionDigit(pjob->_ppump->_rxbuffer[9 + 45*index + (2
 8313              		.loc 1 1957 0
 8314 0e4e DBB2     		uxtb	r3, r3
 8315 0e50 03F00F03 		and	r3, r3, #15
 8316 0e54 DBB2     		uxtb	r3, r3
 8317 0e56 2246     		mov	r2, r4
 8318 0e58 1343     		orrs	r3, r3, r2
 8319 0e5a DBB2     		uxtb	r3, r3
 8320 0e5c DAB2     		uxtb	r2, r3
 8321 0e5e 3B69     		ldr	r3, [r7, #16]
 8322 0e60 1A70     		strb	r2, [r3]
1959:.\PrimeImpl.c **** 
1960:.\PrimeImpl.c ****             //12
1961:.\PrimeImpl.c ****             ptreeprom++;
 8323              		.loc 1 1961 0
 8324 0e62 3B69     		ldr	r3, [r7, #16]
 8325 0e64 0133     		adds	r3, r3, #1
 8326 0e66 3B61     		str	r3, [r7, #16]
1962:.\PrimeImpl.c ****             blkindex++;
 8327              		.loc 1 1962 0
 8328 0e68 FB7B     		ldrb	r3, [r7, #15]	@ zero_extendqisi2
 8329 0e6a 0133     		adds	r3, r3, #1
 8330 0e6c FB73     		strb	r3, [r7, #15]
1963:.\PrimeImpl.c ****             //Prevent Fraud On Initial Pulses
1964:.\PrimeImpl.c ****             *ptreeprom = ((TranslateSpecialFuncionDigit(pjob->_ppump->_rxbuffer[9 + 45*index + 2*bl
 8331              		.loc 1 1964 0
 8332 0e6e BB69     		ldr	r3, [r7, #24]
 8333 0e70 D969     		ldr	r1, [r3, #28]
 8334 0e72 FA7D     		ldrb	r2, [r7, #23]	@ zero_extendqisi2
 8335 0e74 1346     		mov	r3, r2
 8336 0e76 5B00     		lsls	r3, r3, #1
 8337 0e78 1344     		add	r3, r3, r2
 8338 0e7a 1A01     		lsls	r2, r3, #4
 8339 0e7c D31A     		subs	r3, r2, r3
 8340 0e7e 03F10902 		add	r2, r3, #9
 8341 0e82 FB7B     		ldrb	r3, [r7, #15]	@ zero_extendqisi2
 8342 0e84 5B00     		lsls	r3, r3, #1
 8343 0e86 1344     		add	r3, r3, r2
 8344 0e88 0B44     		add	r3, r3, r1
 8345 0e8a 93F88831 		ldrb	r3, [r3, #392]	@ zero_extendqisi2
 8346 0e8e 1846     		mov	r0, r3
 8347 0e90 FFF7FEFF 		bl	TranslateSpecialFuncionDigit
 8348 0e94 0346     		mov	r3, r0
 8349 0e96 1B01     		lsls	r3, r3, #4
 8350 0e98 DCB2     		uxtb	r4, r3
1965:.\PrimeImpl.c ****                             (TranslateSpecialFuncionDigit(pjob->_ppump->_rxbuffer[9 + 45*index + (2
 8351              		.loc 1 1965 0
 8352 0e9a BB69     		ldr	r3, [r7, #24]
 8353 0e9c D969     		ldr	r1, [r3, #28]
 8354 0e9e FA7D     		ldrb	r2, [r7, #23]	@ zero_extendqisi2
 8355 0ea0 1346     		mov	r3, r2
 8356 0ea2 5B00     		lsls	r3, r3, #1
 8357 0ea4 1344     		add	r3, r3, r2
ARM GAS  C:\Users\RECEPC~1\AppData\Local\Temp\ccQD6Oev.s 			page 183


 8358 0ea6 1A01     		lsls	r2, r3, #4
 8359 0ea8 D31A     		subs	r3, r2, r3
 8360 0eaa 03F10902 		add	r2, r3, #9
 8361 0eae FB7B     		ldrb	r3, [r7, #15]	@ zero_extendqisi2
 8362 0eb0 5B00     		lsls	r3, r3, #1
 8363 0eb2 0133     		adds	r3, r3, #1
 8364 0eb4 1344     		add	r3, r3, r2
 8365 0eb6 0B44     		add	r3, r3, r1
 8366 0eb8 93F88831 		ldrb	r3, [r3, #392]	@ zero_extendqisi2
 8367 0ebc 1846     		mov	r0, r3
 8368 0ebe FFF7FEFF 		bl	TranslateSpecialFuncionDigit
 8369 0ec2 0346     		mov	r3, r0
1964:.\PrimeImpl.c ****                             (TranslateSpecialFuncionDigit(pjob->_ppump->_rxbuffer[9 + 45*index + (2
 8370              		.loc 1 1964 0
 8371 0ec4 DBB2     		uxtb	r3, r3
 8372 0ec6 03F00F03 		and	r3, r3, #15
 8373 0eca DBB2     		uxtb	r3, r3
 8374 0ecc 2246     		mov	r2, r4
 8375 0ece 1343     		orrs	r3, r3, r2
 8376 0ed0 DBB2     		uxtb	r3, r3
 8377 0ed2 DAB2     		uxtb	r2, r3
 8378 0ed4 3B69     		ldr	r3, [r7, #16]
 8379 0ed6 1A70     		strb	r2, [r3]
1966:.\PrimeImpl.c **** 
1967:.\PrimeImpl.c ****             //13
1968:.\PrimeImpl.c ****             ptreeprom++;
 8380              		.loc 1 1968 0
 8381 0ed8 3B69     		ldr	r3, [r7, #16]
 8382 0eda 0133     		adds	r3, r3, #1
 8383 0edc 3B61     		str	r3, [r7, #16]
1969:.\PrimeImpl.c ****             blkindex++;
 8384              		.loc 1 1969 0
 8385 0ede FB7B     		ldrb	r3, [r7, #15]	@ zero_extendqisi2
 8386 0ee0 0133     		adds	r3, r3, #1
 8387 0ee2 FB73     		strb	r3, [r7, #15]
1970:.\PrimeImpl.c ****             //Prevent Fraud on Hose Timeout
1971:.\PrimeImpl.c ****             *ptreeprom = ((TranslateSpecialFuncionDigit(pjob->_ppump->_rxbuffer[9 + 45*index + 2*bl
 8388              		.loc 1 1971 0
 8389 0ee4 BB69     		ldr	r3, [r7, #24]
 8390 0ee6 D969     		ldr	r1, [r3, #28]
 8391 0ee8 FA7D     		ldrb	r2, [r7, #23]	@ zero_extendqisi2
 8392 0eea 1346     		mov	r3, r2
 8393 0eec 5B00     		lsls	r3, r3, #1
 8394 0eee 1344     		add	r3, r3, r2
 8395 0ef0 1A01     		lsls	r2, r3, #4
 8396 0ef2 D31A     		subs	r3, r2, r3
 8397 0ef4 03F10902 		add	r2, r3, #9
 8398 0ef8 FB7B     		ldrb	r3, [r7, #15]	@ zero_extendqisi2
 8399 0efa 5B00     		lsls	r3, r3, #1
 8400 0efc 1344     		add	r3, r3, r2
 8401 0efe 0B44     		add	r3, r3, r1
 8402 0f00 93F88831 		ldrb	r3, [r3, #392]	@ zero_extendqisi2
 8403 0f04 1846     		mov	r0, r3
 8404 0f06 FFF7FEFF 		bl	TranslateSpecialFuncionDigit
 8405 0f0a 0346     		mov	r3, r0
 8406 0f0c 1B01     		lsls	r3, r3, #4
 8407 0f0e DCB2     		uxtb	r4, r3
ARM GAS  C:\Users\RECEPC~1\AppData\Local\Temp\ccQD6Oev.s 			page 184


1972:.\PrimeImpl.c ****                             (TranslateSpecialFuncionDigit(pjob->_ppump->_rxbuffer[9 + 45*index + (2
 8408              		.loc 1 1972 0
 8409 0f10 BB69     		ldr	r3, [r7, #24]
 8410 0f12 D969     		ldr	r1, [r3, #28]
 8411 0f14 FA7D     		ldrb	r2, [r7, #23]	@ zero_extendqisi2
 8412 0f16 1346     		mov	r3, r2
 8413 0f18 5B00     		lsls	r3, r3, #1
 8414 0f1a 1344     		add	r3, r3, r2
 8415 0f1c 1A01     		lsls	r2, r3, #4
 8416 0f1e D31A     		subs	r3, r2, r3
 8417 0f20 03F10902 		add	r2, r3, #9
 8418 0f24 FB7B     		ldrb	r3, [r7, #15]	@ zero_extendqisi2
 8419 0f26 5B00     		lsls	r3, r3, #1
 8420 0f28 0133     		adds	r3, r3, #1
 8421 0f2a 1344     		add	r3, r3, r2
 8422 0f2c 0B44     		add	r3, r3, r1
 8423 0f2e 93F88831 		ldrb	r3, [r3, #392]	@ zero_extendqisi2
 8424 0f32 1846     		mov	r0, r3
 8425 0f34 FFF7FEFF 		bl	TranslateSpecialFuncionDigit
 8426 0f38 0346     		mov	r3, r0
1971:.\PrimeImpl.c ****                             (TranslateSpecialFuncionDigit(pjob->_ppump->_rxbuffer[9 + 45*index + (2
 8427              		.loc 1 1971 0
 8428 0f3a DBB2     		uxtb	r3, r3
 8429 0f3c 03F00F03 		and	r3, r3, #15
 8430 0f40 DBB2     		uxtb	r3, r3
 8431 0f42 2246     		mov	r2, r4
 8432 0f44 1343     		orrs	r3, r3, r2
 8433 0f46 DBB2     		uxtb	r3, r3
 8434 0f48 DAB2     		uxtb	r2, r3
 8435 0f4a 3B69     		ldr	r3, [r7, #16]
 8436 0f4c 1A70     		strb	r2, [r3]
1973:.\PrimeImpl.c **** 
1974:.\PrimeImpl.c ****             //14
1975:.\PrimeImpl.c ****             ptreeprom++;
 8437              		.loc 1 1975 0
 8438 0f4e 3B69     		ldr	r3, [r7, #16]
 8439 0f50 0133     		adds	r3, r3, #1
 8440 0f52 3B61     		str	r3, [r7, #16]
1976:.\PrimeImpl.c ****             blkindex++;
 8441              		.loc 1 1976 0
 8442 0f54 FB7B     		ldrb	r3, [r7, #15]	@ zero_extendqisi2
 8443 0f56 0133     		adds	r3, r3, #1
 8444 0f58 FB73     		strb	r3, [r7, #15]
1977:.\PrimeImpl.c ****             //Transmit Volumen Totals Rounded / Truncated
1978:.\PrimeImpl.c ****             *ptreeprom = ((TranslateSpecialFuncionDigit(pjob->_ppump->_rxbuffer[9 + 45*index + 2*bl
 8445              		.loc 1 1978 0
 8446 0f5a BB69     		ldr	r3, [r7, #24]
 8447 0f5c D969     		ldr	r1, [r3, #28]
 8448 0f5e FA7D     		ldrb	r2, [r7, #23]	@ zero_extendqisi2
 8449 0f60 1346     		mov	r3, r2
 8450 0f62 5B00     		lsls	r3, r3, #1
 8451 0f64 1344     		add	r3, r3, r2
 8452 0f66 1A01     		lsls	r2, r3, #4
 8453 0f68 D31A     		subs	r3, r2, r3
 8454 0f6a 03F10902 		add	r2, r3, #9
 8455 0f6e FB7B     		ldrb	r3, [r7, #15]	@ zero_extendqisi2
 8456 0f70 5B00     		lsls	r3, r3, #1
ARM GAS  C:\Users\RECEPC~1\AppData\Local\Temp\ccQD6Oev.s 			page 185


 8457 0f72 1344     		add	r3, r3, r2
 8458 0f74 0B44     		add	r3, r3, r1
 8459 0f76 93F88831 		ldrb	r3, [r3, #392]	@ zero_extendqisi2
 8460 0f7a 1846     		mov	r0, r3
 8461 0f7c FFF7FEFF 		bl	TranslateSpecialFuncionDigit
 8462 0f80 0346     		mov	r3, r0
 8463 0f82 1B01     		lsls	r3, r3, #4
 8464 0f84 DCB2     		uxtb	r4, r3
1979:.\PrimeImpl.c ****                             (TranslateSpecialFuncionDigit(pjob->_ppump->_rxbuffer[9 + 45*index + (2
 8465              		.loc 1 1979 0
 8466 0f86 BB69     		ldr	r3, [r7, #24]
 8467 0f88 D969     		ldr	r1, [r3, #28]
 8468 0f8a FA7D     		ldrb	r2, [r7, #23]	@ zero_extendqisi2
 8469 0f8c 1346     		mov	r3, r2
 8470 0f8e 5B00     		lsls	r3, r3, #1
 8471 0f90 1344     		add	r3, r3, r2
 8472 0f92 1A01     		lsls	r2, r3, #4
 8473 0f94 D31A     		subs	r3, r2, r3
 8474 0f96 03F10902 		add	r2, r3, #9
 8475 0f9a FB7B     		ldrb	r3, [r7, #15]	@ zero_extendqisi2
 8476 0f9c 5B00     		lsls	r3, r3, #1
 8477 0f9e 0133     		adds	r3, r3, #1
 8478 0fa0 1344     		add	r3, r3, r2
 8479 0fa2 0B44     		add	r3, r3, r1
 8480 0fa4 93F88831 		ldrb	r3, [r3, #392]	@ zero_extendqisi2
 8481 0fa8 1846     		mov	r0, r3
 8482 0faa FFF7FEFF 		bl	TranslateSpecialFuncionDigit
 8483 0fae 0346     		mov	r3, r0
1978:.\PrimeImpl.c ****                             (TranslateSpecialFuncionDigit(pjob->_ppump->_rxbuffer[9 + 45*index + (2
 8484              		.loc 1 1978 0
 8485 0fb0 DBB2     		uxtb	r3, r3
 8486 0fb2 03F00F03 		and	r3, r3, #15
 8487 0fb6 DBB2     		uxtb	r3, r3
 8488 0fb8 2246     		mov	r2, r4
 8489 0fba 1343     		orrs	r3, r3, r2
 8490 0fbc DBB2     		uxtb	r3, r3
 8491 0fbe DAB2     		uxtb	r2, r3
 8492 0fc0 3B69     		ldr	r3, [r7, #16]
 8493 0fc2 1A70     		strb	r2, [r3]
1980:.\PrimeImpl.c **** 
1981:.\PrimeImpl.c ****             //STORING BACK THE EEPROM PAGE
1982:.\PrimeImpl.c ****             StoreEepromPage(eeprompumpconfigmemorypageid);
 8494              		.loc 1 1982 0
 8495 0fc4 BB8B     		ldrh	r3, [r7, #28]
 8496 0fc6 1846     		mov	r0, r3
 8497 0fc8 FFF7FEFF 		bl	StoreEepromPage
1983:.\PrimeImpl.c ****             AcquireDispenserLayoutInformation(&GetEepromBuffer()[16]);
 8498              		.loc 1 1983 0
 8499 0fcc FFF7FEFF 		bl	GetEepromBuffer
 8500 0fd0 0346     		mov	r3, r0
 8501 0fd2 1033     		adds	r3, r3, #16
 8502 0fd4 1846     		mov	r0, r3
 8503 0fd6 FFF7FEFF 		bl	AcquireDispenserLayoutInformation
1984:.\PrimeImpl.c ****          
1985:.\PrimeImpl.c ****             _g_dispenserlayoutinfo._inconfiguration = false;
 8504              		.loc 1 1985 0
 8505 0fda 164B     		ldr	r3, .L236
ARM GAS  C:\Users\RECEPC~1\AppData\Local\Temp\ccQD6Oev.s 			page 186


 8506 0fdc 0022     		movs	r2, #0
 8507 0fde 1A70     		strb	r2, [r3]
1986:.\PrimeImpl.c ****             _ALLOCATE_SINKMESSAGE_SLOT(psinkmsg);
 8508              		.loc 1 1986 0
 8509 0fe0 FFF7FEFF 		bl	AllocateMessageSlot
 8510 0fe4 B860     		str	r0, [r7, #8]
1987:.\PrimeImpl.c ****             if(psinkmsg)
 8511              		.loc 1 1987 0
 8512 0fe6 BB68     		ldr	r3, [r7, #8]
 8513 0fe8 002B     		cmp	r3, #0
 8514 0fea 0CD0     		beq	.L232
1988:.\PrimeImpl.c ****             {
1989:.\PrimeImpl.c ****                 psinkmsg->_messageid = DISPENSER_LOAD_EEPROM_SETTINGS;
 8515              		.loc 1 1989 0
 8516 0fec BB68     		ldr	r3, [r7, #8]
 8517 0fee 0D22     		movs	r2, #13
 8518 0ff0 5A70     		strb	r2, [r3, #1]
1990:.\PrimeImpl.c ****                 psinkmsg->_messagedelay = _SINK_TIMEOUT_1S_;
 8519              		.loc 1 1990 0
 8520 0ff2 BB68     		ldr	r3, [r7, #8]
 8521 0ff4 4FF47A72 		mov	r2, #1000
 8522 0ff8 9A80     		strh	r2, [r3, #4]	@ movhi
1991:.\PrimeImpl.c ****                 psinkmsg->_messagetype = FIRSTFOUND;
 8523              		.loc 1 1991 0
 8524 0ffa BB68     		ldr	r3, [r7, #8]
 8525 0ffc 0322     		movs	r2, #3
 8526 0ffe 9A70     		strb	r2, [r3, #2]
1992:.\PrimeImpl.c ****                 psinkmsg->_messagestate = SINK_BUSY;
 8527              		.loc 1 1992 0
 8528 1000 BB68     		ldr	r3, [r7, #8]
 8529 1002 0322     		movs	r2, #3
 8530 1004 DA70     		strb	r2, [r3, #3]
 8531              	.L232:
1993:.\PrimeImpl.c ****             }
1994:.\PrimeImpl.c ****             
1995:.\PrimeImpl.c ****             _REALLOCATE_SINKMESSAGE_SLOT(psinkmsg);
 8532              		.loc 1 1995 0
 8533 1006 FFF7FEFF 		bl	AllocateMessageSlot
 8534 100a B860     		str	r0, [r7, #8]
1996:.\PrimeImpl.c ****             if(psinkmsg)
 8535              		.loc 1 1996 0
 8536 100c BB68     		ldr	r3, [r7, #8]
 8537 100e 002B     		cmp	r3, #0
 8538 1010 0CD0     		beq	.L222
1997:.\PrimeImpl.c ****             {
1998:.\PrimeImpl.c ****                 psinkmsg->_messageid = DISPENSER_CONFIGURE_PRICES;
 8539              		.loc 1 1998 0
 8540 1012 BB68     		ldr	r3, [r7, #8]
 8541 1014 1022     		movs	r2, #16
 8542 1016 5A70     		strb	r2, [r3, #1]
1999:.\PrimeImpl.c ****                 psinkmsg->_messagedelay = _SINK_TIMEOUT_2S_;
 8543              		.loc 1 1999 0
 8544 1018 BB68     		ldr	r3, [r7, #8]
 8545 101a 4FF4FA62 		mov	r2, #2000
 8546 101e 9A80     		strh	r2, [r3, #4]	@ movhi
2000:.\PrimeImpl.c ****                 psinkmsg->_messagetype = FIRSTFOUND;
 8547              		.loc 1 2000 0
ARM GAS  C:\Users\RECEPC~1\AppData\Local\Temp\ccQD6Oev.s 			page 187


 8548 1020 BB68     		ldr	r3, [r7, #8]
 8549 1022 0322     		movs	r2, #3
 8550 1024 9A70     		strb	r2, [r3, #2]
2001:.\PrimeImpl.c ****                 psinkmsg->_messagestate = SINK_BUSY;
 8551              		.loc 1 2001 0
 8552 1026 BB68     		ldr	r3, [r7, #8]
 8553 1028 0322     		movs	r2, #3
 8554 102a DA70     		strb	r2, [r3, #3]
 8555              	.L222:
 8556              	.LBE45:
 8557              	.LBE44:
2002:.\PrimeImpl.c ****             }
2003:.\PrimeImpl.c ****         }
2004:.\PrimeImpl.c ****     }
2005:.\PrimeImpl.c **** }
 8558              		.loc 1 2005 0
 8559 102c 2437     		adds	r7, r7, #36
 8560              		.cfi_def_cfa_offset 12
 8561 102e BD46     		mov	sp, r7
 8562              		.cfi_def_cfa_register 13
 8563              		@ sp needed
 8564 1030 90BD     		pop	{r4, r7, pc}
 8565              	.L237:
 8566 1032 00BF     		.align	2
 8567              	.L236:
 8568 1034 00000000 		.word	_g_dispenserlayoutinfo
 8569              		.cfi_endproc
 8570              	.LFE100:
 8571              		.size	AcquirePumpCompleteConfiguration, .-AcquirePumpCompleteConfiguration
 8572              		.section	.text.AcquireDispenserLayoutInformation,"ax",%progbits
 8573              		.align	2
 8574              		.global	AcquireDispenserLayoutInformation
 8575              		.thumb
 8576              		.thumb_func
 8577              		.type	AcquireDispenserLayoutInformation, %function
 8578              	AcquireDispenserLayoutInformation:
 8579              	.LFB101:
2006:.\PrimeImpl.c **** 
2007:.\PrimeImpl.c **** //@Created By: HIJH
2008:.\PrimeImpl.c **** //@Septembre de 2016
2009:.\PrimeImpl.c **** void AcquireDispenserLayoutInformation(LPVOID pparam)
2010:.\PrimeImpl.c **** {
 8580              		.loc 1 2010 0
 8581              		.cfi_startproc
 8582              		@ args = 0, pretend = 0, frame = 16
 8583              		@ frame_needed = 1, uses_anonymous_args = 0
 8584              		@ link register save eliminated.
 8585 0000 80B4     		push	{r7}
 8586              		.cfi_def_cfa_offset 4
 8587              		.cfi_offset 7, -4
 8588 0002 85B0     		sub	sp, sp, #20
 8589              		.cfi_def_cfa_offset 24
 8590 0004 00AF     		add	r7, sp, #0
 8591              		.cfi_def_cfa_register 7
 8592 0006 7860     		str	r0, [r7, #4]
2011:.\PrimeImpl.c ****     LPRAWPTR ptrbuff = (LPRAWPTR)pparam;
 8593              		.loc 1 2011 0
ARM GAS  C:\Users\RECEPC~1\AppData\Local\Temp\ccQD6Oev.s 			page 188


 8594 0008 7B68     		ldr	r3, [r7, #4]
 8595 000a FB60     		str	r3, [r7, #12]
2012:.\PrimeImpl.c ****     //PLEASE CHECK THE DOCUMENTATION TO UNDERSTAND THE COMPARISON VALUES
2013:.\PrimeImpl.c ****     if((ptrbuff[0x01] == 0x02) || (ptrbuff[0x01] == 0x03))//QUATTRO PUMPS
 8596              		.loc 1 2013 0
 8597 000c FB68     		ldr	r3, [r7, #12]
 8598 000e 0133     		adds	r3, r3, #1
 8599 0010 1B78     		ldrb	r3, [r3]	@ zero_extendqisi2
 8600 0012 022B     		cmp	r3, #2
 8601 0014 04D0     		beq	.L239
 8602              		.loc 1 2013 0 is_stmt 0 discriminator 1
 8603 0016 FB68     		ldr	r3, [r7, #12]
 8604 0018 0133     		adds	r3, r3, #1
 8605 001a 1B78     		ldrb	r3, [r3]	@ zero_extendqisi2
 8606 001c 032B     		cmp	r3, #3
 8607 001e 33D1     		bne	.L240
 8608              	.L239:
2014:.\PrimeImpl.c ****     {
2015:.\PrimeImpl.c ****         //FOUR SIMULTANEOUS DELIVERIES
2016:.\PrimeImpl.c ****         _g_dispenserlayoutinfo._numpositions = 0x04;
 8609              		.loc 1 2016 0 is_stmt 1
 8610 0020 6F4B     		ldr	r3, .L270
 8611 0022 0422     		movs	r2, #4
 8612 0024 9A70     		strb	r2, [r3, #2]
2017:.\PrimeImpl.c ****         switch(ptrbuff[0x00])
 8613              		.loc 1 2017 0
 8614 0026 FB68     		ldr	r3, [r7, #12]
 8615 0028 1B78     		ldrb	r3, [r3]	@ zero_extendqisi2
 8616 002a 042B     		cmp	r3, #4
 8617 002c 11D0     		beq	.L242
 8618 002e 052B     		cmp	r3, #5
 8619 0030 1CD0     		beq	.L243
 8620 0032 032B     		cmp	r3, #3
 8621 0034 00D0     		beq	.L244
2018:.\PrimeImpl.c ****         {
2019:.\PrimeImpl.c ****             case 0x03://Qudrupla
2020:.\PrimeImpl.c ****             {
2021:.\PrimeImpl.c ****                 _g_dispenserlayoutinfo._hosesposition1 = 0x01;
2022:.\PrimeImpl.c ****                 _g_dispenserlayoutinfo._hosesposition2 = 0x01;
2023:.\PrimeImpl.c ****                 _g_dispenserlayoutinfo._hosesposition3 = 0x01;
2024:.\PrimeImpl.c ****                 _g_dispenserlayoutinfo._hosesposition4 = 0x01;
2025:.\PrimeImpl.c ****                 break;
2026:.\PrimeImpl.c ****             }
2027:.\PrimeImpl.c ****             case 0x04://Sxtupla
2028:.\PrimeImpl.c ****             {
2029:.\PrimeImpl.c ****                 _g_dispenserlayoutinfo._hosesposition1 = 0x02;
2030:.\PrimeImpl.c ****                 _g_dispenserlayoutinfo._hosesposition2 = 0x02;
2031:.\PrimeImpl.c ****                 _g_dispenserlayoutinfo._hosesposition3 = 0x01;
2032:.\PrimeImpl.c ****                 _g_dispenserlayoutinfo._hosesposition4 = 0x01;
2033:.\PrimeImpl.c ****                 break;
2034:.\PrimeImpl.c ****             }
2035:.\PrimeImpl.c ****             case 0x05://ctupla
2036:.\PrimeImpl.c ****             {
2037:.\PrimeImpl.c ****                 _g_dispenserlayoutinfo._hosesposition1 = 0x02;
2038:.\PrimeImpl.c ****                 _g_dispenserlayoutinfo._hosesposition2 = 0x02;
2039:.\PrimeImpl.c ****                 _g_dispenserlayoutinfo._hosesposition3 = 0x02;
2040:.\PrimeImpl.c ****                 _g_dispenserlayoutinfo._hosesposition4 = 0x02;
ARM GAS  C:\Users\RECEPC~1\AppData\Local\Temp\ccQD6Oev.s 			page 189


2041:.\PrimeImpl.c ****                 break;
2042:.\PrimeImpl.c ****             }
2043:.\PrimeImpl.c ****         }
2044:.\PrimeImpl.c ****     }
 8622              		.loc 1 2044 0
 8623 0036 59E0     		b	.L245
 8624              	.L244:
2021:.\PrimeImpl.c ****                 _g_dispenserlayoutinfo._hosesposition2 = 0x01;
 8625              		.loc 1 2021 0
 8626 0038 694B     		ldr	r3, .L270
 8627 003a 0122     		movs	r2, #1
 8628 003c DA70     		strb	r2, [r3, #3]
2022:.\PrimeImpl.c ****                 _g_dispenserlayoutinfo._hosesposition3 = 0x01;
 8629              		.loc 1 2022 0
 8630 003e 684B     		ldr	r3, .L270
 8631 0040 0122     		movs	r2, #1
 8632 0042 1A71     		strb	r2, [r3, #4]
2023:.\PrimeImpl.c ****                 _g_dispenserlayoutinfo._hosesposition4 = 0x01;
 8633              		.loc 1 2023 0
 8634 0044 664B     		ldr	r3, .L270
 8635 0046 0122     		movs	r2, #1
 8636 0048 5A71     		strb	r2, [r3, #5]
2024:.\PrimeImpl.c ****                 break;
 8637              		.loc 1 2024 0
 8638 004a 654B     		ldr	r3, .L270
 8639 004c 0122     		movs	r2, #1
 8640 004e 9A71     		strb	r2, [r3, #6]
2025:.\PrimeImpl.c ****             }
 8641              		.loc 1 2025 0
 8642 0050 19E0     		b	.L241
 8643              	.L242:
2029:.\PrimeImpl.c ****                 _g_dispenserlayoutinfo._hosesposition2 = 0x02;
 8644              		.loc 1 2029 0
 8645 0052 634B     		ldr	r3, .L270
 8646 0054 0222     		movs	r2, #2
 8647 0056 DA70     		strb	r2, [r3, #3]
2030:.\PrimeImpl.c ****                 _g_dispenserlayoutinfo._hosesposition3 = 0x01;
 8648              		.loc 1 2030 0
 8649 0058 614B     		ldr	r3, .L270
 8650 005a 0222     		movs	r2, #2
 8651 005c 1A71     		strb	r2, [r3, #4]
2031:.\PrimeImpl.c ****                 _g_dispenserlayoutinfo._hosesposition4 = 0x01;
 8652              		.loc 1 2031 0
 8653 005e 604B     		ldr	r3, .L270
 8654 0060 0122     		movs	r2, #1
 8655 0062 5A71     		strb	r2, [r3, #5]
2032:.\PrimeImpl.c ****                 break;
 8656              		.loc 1 2032 0
 8657 0064 5E4B     		ldr	r3, .L270
 8658 0066 0122     		movs	r2, #1
 8659 0068 9A71     		strb	r2, [r3, #6]
2033:.\PrimeImpl.c ****             }
 8660              		.loc 1 2033 0
 8661 006a 0CE0     		b	.L241
 8662              	.L243:
2037:.\PrimeImpl.c ****                 _g_dispenserlayoutinfo._hosesposition2 = 0x02;
 8663              		.loc 1 2037 0
ARM GAS  C:\Users\RECEPC~1\AppData\Local\Temp\ccQD6Oev.s 			page 190


 8664 006c 5C4B     		ldr	r3, .L270
 8665 006e 0222     		movs	r2, #2
 8666 0070 DA70     		strb	r2, [r3, #3]
2038:.\PrimeImpl.c ****                 _g_dispenserlayoutinfo._hosesposition3 = 0x02;
 8667              		.loc 1 2038 0
 8668 0072 5B4B     		ldr	r3, .L270
 8669 0074 0222     		movs	r2, #2
 8670 0076 1A71     		strb	r2, [r3, #4]
2039:.\PrimeImpl.c ****                 _g_dispenserlayoutinfo._hosesposition4 = 0x02;
 8671              		.loc 1 2039 0
 8672 0078 594B     		ldr	r3, .L270
 8673 007a 0222     		movs	r2, #2
 8674 007c 5A71     		strb	r2, [r3, #5]
2040:.\PrimeImpl.c ****                 break;
 8675              		.loc 1 2040 0
 8676 007e 584B     		ldr	r3, .L270
 8677 0080 0222     		movs	r2, #2
 8678 0082 9A71     		strb	r2, [r3, #6]
2041:.\PrimeImpl.c ****             }
 8679              		.loc 1 2041 0
 8680 0084 00BF     		nop
 8681              	.L241:
 8682              		.loc 1 2044 0
 8683 0086 31E0     		b	.L245
 8684              	.L240:
2045:.\PrimeImpl.c ****     else//NORMAL PUMPS
2046:.\PrimeImpl.c ****     {
2047:.\PrimeImpl.c ****         //TWO SIMULTANEOUS DELIVERIES
2048:.\PrimeImpl.c ****         _g_dispenserlayoutinfo._numpositions = 0x02;
 8685              		.loc 1 2048 0
 8686 0088 554B     		ldr	r3, .L270
 8687 008a 0222     		movs	r2, #2
 8688 008c 9A70     		strb	r2, [r3, #2]
2049:.\PrimeImpl.c ****         switch(ptrbuff[0x00])
 8689              		.loc 1 2049 0
 8690 008e FB68     		ldr	r3, [r7, #12]
 8691 0090 1B78     		ldrb	r3, [r3]	@ zero_extendqisi2
 8692 0092 013B     		subs	r3, r3, #1
 8693 0094 042B     		cmp	r3, #4
 8694 0096 29D8     		bhi	.L245
 8695 0098 01A2     		adr	r2, .L247
 8696 009a 52F823F0 		ldr	pc, [r2, r3, lsl #2]
 8697 009e 00BF     		.p2align 2
 8698              	.L247:
 8699 00a0 B5000000 		.word	.L246+1
 8700 00a4 B5000000 		.word	.L246+1
 8701 00a8 C3000000 		.word	.L248+1
 8702 00ac D1000000 		.word	.L249+1
 8703 00b0 DF000000 		.word	.L250+1
 8704              		.p2align 1
 8705              	.L246:
2050:.\PrimeImpl.c ****         {
2051:.\PrimeImpl.c ****             case 0x01://Dual (2 Hoses  1 motor)
2052:.\PrimeImpl.c ****             case 0x02://Dupla(2 Hoses  2 motors)
2053:.\PrimeImpl.c ****             {
2054:.\PrimeImpl.c ****                 _g_dispenserlayoutinfo._hosesposition1 = 0x01;
 8706              		.loc 1 2054 0
ARM GAS  C:\Users\RECEPC~1\AppData\Local\Temp\ccQD6Oev.s 			page 191


 8707 00b4 4A4B     		ldr	r3, .L270
 8708 00b6 0122     		movs	r2, #1
 8709 00b8 DA70     		strb	r2, [r3, #3]
2055:.\PrimeImpl.c ****                 _g_dispenserlayoutinfo._hosesposition2 = 0x01;
 8710              		.loc 1 2055 0
 8711 00ba 494B     		ldr	r3, .L270
 8712 00bc 0122     		movs	r2, #1
 8713 00be 1A71     		strb	r2, [r3, #4]
2056:.\PrimeImpl.c ****                 break;
 8714              		.loc 1 2056 0
 8715 00c0 14E0     		b	.L245
 8716              	.L248:
2057:.\PrimeImpl.c ****             }
2058:.\PrimeImpl.c ****             case 0x03://Qudrupla
2059:.\PrimeImpl.c ****             {
2060:.\PrimeImpl.c ****                 _g_dispenserlayoutinfo._hosesposition1 = 0x02;
 8717              		.loc 1 2060 0
 8718 00c2 474B     		ldr	r3, .L270
 8719 00c4 0222     		movs	r2, #2
 8720 00c6 DA70     		strb	r2, [r3, #3]
2061:.\PrimeImpl.c ****                 _g_dispenserlayoutinfo._hosesposition2 = 0x02;
 8721              		.loc 1 2061 0
 8722 00c8 454B     		ldr	r3, .L270
 8723 00ca 0222     		movs	r2, #2
 8724 00cc 1A71     		strb	r2, [r3, #4]
2062:.\PrimeImpl.c ****                 break;
 8725              		.loc 1 2062 0
 8726 00ce 0DE0     		b	.L245
 8727              	.L249:
2063:.\PrimeImpl.c ****             }
2064:.\PrimeImpl.c ****             case 0x04://Sxtupla
2065:.\PrimeImpl.c ****             {
2066:.\PrimeImpl.c ****                 _g_dispenserlayoutinfo._hosesposition1 = 0x03;
 8728              		.loc 1 2066 0
 8729 00d0 434B     		ldr	r3, .L270
 8730 00d2 0322     		movs	r2, #3
 8731 00d4 DA70     		strb	r2, [r3, #3]
2067:.\PrimeImpl.c ****                 _g_dispenserlayoutinfo._hosesposition2 = 0x03;
 8732              		.loc 1 2067 0
 8733 00d6 424B     		ldr	r3, .L270
 8734 00d8 0322     		movs	r2, #3
 8735 00da 1A71     		strb	r2, [r3, #4]
2068:.\PrimeImpl.c ****                 break;
 8736              		.loc 1 2068 0
 8737 00dc 06E0     		b	.L245
 8738              	.L250:
2069:.\PrimeImpl.c ****             }
2070:.\PrimeImpl.c ****             case 0x05://ctupla
2071:.\PrimeImpl.c ****             {
2072:.\PrimeImpl.c ****                 _g_dispenserlayoutinfo._hosesposition1 = 0x04;
 8739              		.loc 1 2072 0
 8740 00de 404B     		ldr	r3, .L270
 8741 00e0 0422     		movs	r2, #4
 8742 00e2 DA70     		strb	r2, [r3, #3]
2073:.\PrimeImpl.c ****                 _g_dispenserlayoutinfo._hosesposition2 = 0x04;
 8743              		.loc 1 2073 0
 8744 00e4 3E4B     		ldr	r3, .L270
ARM GAS  C:\Users\RECEPC~1\AppData\Local\Temp\ccQD6Oev.s 			page 192


 8745 00e6 0422     		movs	r2, #4
 8746 00e8 1A71     		strb	r2, [r3, #4]
2074:.\PrimeImpl.c ****                 break;
 8747              		.loc 1 2074 0
 8748 00ea 00BF     		nop
 8749              	.L245:
2075:.\PrimeImpl.c ****             }
2076:.\PrimeImpl.c ****         }
2077:.\PrimeImpl.c ****     }
2078:.\PrimeImpl.c **** 
2079:.\PrimeImpl.c ****     _g_dispenserlayoutinfo._volumeunit = ptrbuff[0x02];
 8750              		.loc 1 2079 0
 8751 00ec FB68     		ldr	r3, [r7, #12]
 8752 00ee 9A78     		ldrb	r2, [r3, #2]	@ zero_extendqisi2
 8753 00f0 3B4B     		ldr	r3, .L270
 8754 00f2 9A72     		strb	r2, [r3, #10]
2080:.\PrimeImpl.c ****     
2081:.\PrimeImpl.c ****     //Money Decimal Points
2082:.\PrimeImpl.c ****     switch(ptrbuff[0x05])
 8755              		.loc 1 2082 0
 8756 00f4 FB68     		ldr	r3, [r7, #12]
 8757 00f6 0533     		adds	r3, r3, #5
 8758 00f8 1B78     		ldrb	r3, [r3]	@ zero_extendqisi2
 8759 00fa 013B     		subs	r3, r3, #1
 8760 00fc 032B     		cmp	r3, #3
 8761 00fe 1BD8     		bhi	.L251
 8762 0100 01A2     		adr	r2, .L253
 8763 0102 52F823F0 		ldr	pc, [r2, r3, lsl #2]
 8764 0106 00BF     		.p2align 2
 8765              	.L253:
 8766 0108 19010000 		.word	.L252+1
 8767 010c 21010000 		.word	.L254+1
 8768 0110 29010000 		.word	.L255+1
 8769 0114 31010000 		.word	.L256+1
 8770              		.p2align 1
 8771              	.L252:
2083:.\PrimeImpl.c ****     {
2084:.\PrimeImpl.c ****         case 0x01:
2085:.\PrimeImpl.c ****         _g_dispenserlayoutinfo._moneydecimals = 0;
 8772              		.loc 1 2085 0
 8773 0118 314B     		ldr	r3, .L270
 8774 011a 0022     		movs	r2, #0
 8775 011c DA71     		strb	r2, [r3, #7]
2086:.\PrimeImpl.c ****         break;
 8776              		.loc 1 2086 0
 8777 011e 0BE0     		b	.L251
 8778              	.L254:
2087:.\PrimeImpl.c ****         case 0x02:
2088:.\PrimeImpl.c ****         _g_dispenserlayoutinfo._moneydecimals = 1;
 8779              		.loc 1 2088 0
 8780 0120 2F4B     		ldr	r3, .L270
 8781 0122 0122     		movs	r2, #1
 8782 0124 DA71     		strb	r2, [r3, #7]
2089:.\PrimeImpl.c ****         break;
 8783              		.loc 1 2089 0
 8784 0126 07E0     		b	.L251
 8785              	.L255:
ARM GAS  C:\Users\RECEPC~1\AppData\Local\Temp\ccQD6Oev.s 			page 193


2090:.\PrimeImpl.c ****         case 0x03:
2091:.\PrimeImpl.c ****         _g_dispenserlayoutinfo._moneydecimals = 2;
 8786              		.loc 1 2091 0
 8787 0128 2D4B     		ldr	r3, .L270
 8788 012a 0222     		movs	r2, #2
 8789 012c DA71     		strb	r2, [r3, #7]
2092:.\PrimeImpl.c ****         break;
 8790              		.loc 1 2092 0
 8791 012e 03E0     		b	.L251
 8792              	.L256:
2093:.\PrimeImpl.c ****         case 0x04:
2094:.\PrimeImpl.c ****         _g_dispenserlayoutinfo._moneydecimals = 3;
 8793              		.loc 1 2094 0
 8794 0130 2B4B     		ldr	r3, .L270
 8795 0132 0322     		movs	r2, #3
 8796 0134 DA71     		strb	r2, [r3, #7]
2095:.\PrimeImpl.c ****         break;
 8797              		.loc 1 2095 0
 8798 0136 00BF     		nop
 8799              	.L251:
2096:.\PrimeImpl.c ****     }
2097:.\PrimeImpl.c ****     //PPU Decimal Points
2098:.\PrimeImpl.c ****     switch(ptrbuff[0x06])
 8800              		.loc 1 2098 0
 8801 0138 FB68     		ldr	r3, [r7, #12]
 8802 013a 0633     		adds	r3, r3, #6
 8803 013c 1B78     		ldrb	r3, [r3]	@ zero_extendqisi2
 8804 013e 013B     		subs	r3, r3, #1
 8805 0140 032B     		cmp	r3, #3
 8806 0142 1BD8     		bhi	.L257
 8807 0144 01A2     		adr	r2, .L259
 8808 0146 52F823F0 		ldr	pc, [r2, r3, lsl #2]
 8809 014a 00BF     		.p2align 2
 8810              	.L259:
 8811 014c 5D010000 		.word	.L258+1
 8812 0150 65010000 		.word	.L260+1
 8813 0154 6D010000 		.word	.L261+1
 8814 0158 75010000 		.word	.L262+1
 8815              		.p2align 1
 8816              	.L258:
2099:.\PrimeImpl.c ****     {
2100:.\PrimeImpl.c ****         case 0x01:
2101:.\PrimeImpl.c ****         _g_dispenserlayoutinfo._ppudecimals = 0;
 8817              		.loc 1 2101 0
 8818 015c 204B     		ldr	r3, .L270
 8819 015e 0022     		movs	r2, #0
 8820 0160 1A72     		strb	r2, [r3, #8]
2102:.\PrimeImpl.c ****         break;
 8821              		.loc 1 2102 0
 8822 0162 0BE0     		b	.L257
 8823              	.L260:
2103:.\PrimeImpl.c ****         case 0x02:
2104:.\PrimeImpl.c ****         _g_dispenserlayoutinfo._ppudecimals = 1;
 8824              		.loc 1 2104 0
 8825 0164 1E4B     		ldr	r3, .L270
 8826 0166 0122     		movs	r2, #1
 8827 0168 1A72     		strb	r2, [r3, #8]
ARM GAS  C:\Users\RECEPC~1\AppData\Local\Temp\ccQD6Oev.s 			page 194


2105:.\PrimeImpl.c ****         break;
 8828              		.loc 1 2105 0
 8829 016a 07E0     		b	.L257
 8830              	.L261:
2106:.\PrimeImpl.c ****         case 0x03:
2107:.\PrimeImpl.c ****         _g_dispenserlayoutinfo._ppudecimals = 2;
 8831              		.loc 1 2107 0
 8832 016c 1C4B     		ldr	r3, .L270
 8833 016e 0222     		movs	r2, #2
 8834 0170 1A72     		strb	r2, [r3, #8]
2108:.\PrimeImpl.c ****         break;
 8835              		.loc 1 2108 0
 8836 0172 03E0     		b	.L257
 8837              	.L262:
2109:.\PrimeImpl.c ****         case 0x04:
2110:.\PrimeImpl.c ****         _g_dispenserlayoutinfo._ppudecimals = 3;
 8838              		.loc 1 2110 0
 8839 0174 1A4B     		ldr	r3, .L270
 8840 0176 0322     		movs	r2, #3
 8841 0178 1A72     		strb	r2, [r3, #8]
2111:.\PrimeImpl.c ****         break;
 8842              		.loc 1 2111 0
 8843 017a 00BF     		nop
 8844              	.L257:
2112:.\PrimeImpl.c ****     }
2113:.\PrimeImpl.c ****     //Volume Decimal Points
2114:.\PrimeImpl.c ****     switch(ptrbuff[0x07])
 8845              		.loc 1 2114 0
 8846 017c FB68     		ldr	r3, [r7, #12]
 8847 017e 0733     		adds	r3, r3, #7
 8848 0180 1B78     		ldrb	r3, [r3]	@ zero_extendqisi2
 8849 0182 032B     		cmp	r3, #3
 8850 0184 02D0     		beq	.L264
 8851 0186 042B     		cmp	r3, #4
 8852 0188 04D0     		beq	.L265
 8853 018a 07E0     		b	.L263
 8854              	.L264:
2115:.\PrimeImpl.c ****     {
2116:.\PrimeImpl.c ****         case 0x03:
2117:.\PrimeImpl.c ****         _g_dispenserlayoutinfo._volumedecimals = 2;
 8855              		.loc 1 2117 0
 8856 018c 144B     		ldr	r3, .L270
 8857 018e 0222     		movs	r2, #2
 8858 0190 5A72     		strb	r2, [r3, #9]
2118:.\PrimeImpl.c ****         break;
 8859              		.loc 1 2118 0
 8860 0192 03E0     		b	.L263
 8861              	.L265:
2119:.\PrimeImpl.c ****         case 0x04:
2120:.\PrimeImpl.c ****         _g_dispenserlayoutinfo._volumedecimals = 3;
 8862              		.loc 1 2120 0
 8863 0194 124B     		ldr	r3, .L270
 8864 0196 0322     		movs	r2, #3
 8865 0198 5A72     		strb	r2, [r3, #9]
2121:.\PrimeImpl.c ****         break;
 8866              		.loc 1 2121 0
 8867 019a 00BF     		nop
ARM GAS  C:\Users\RECEPC~1\AppData\Local\Temp\ccQD6Oev.s 			page 195


 8868              	.L263:
2122:.\PrimeImpl.c ****     }
2123:.\PrimeImpl.c ****     
2124:.\PrimeImpl.c ****     if(ptrbuff[0x0A] == 0x00)
 8869              		.loc 1 2124 0
 8870 019c FB68     		ldr	r3, [r7, #12]
 8871 019e 0A33     		adds	r3, r3, #10
 8872 01a0 1B78     		ldrb	r3, [r3]	@ zero_extendqisi2
 8873 01a2 002B     		cmp	r3, #0
 8874 01a4 03D1     		bne	.L266
2125:.\PrimeImpl.c ****         _g_dispenserlayoutinfo._displaydigitsmode = 0x06; //6-6-4 digits (Money-Volume-PPU)
 8875              		.loc 1 2125 0
 8876 01a6 0E4B     		ldr	r3, .L270
 8877 01a8 0622     		movs	r2, #6
 8878 01aa 1A74     		strb	r2, [r3, #16]
 8879 01ac 02E0     		b	.L267
 8880              	.L266:
2126:.\PrimeImpl.c ****     else
2127:.\PrimeImpl.c ****         _g_dispenserlayoutinfo._displaydigitsmode = 0x07; //7-7-5 digits (Money-Volume-PPU)
 8881              		.loc 1 2127 0
 8882 01ae 0C4B     		ldr	r3, .L270
 8883 01b0 0722     		movs	r2, #7
 8884 01b2 1A74     		strb	r2, [r3, #16]
 8885              	.L267:
2128:.\PrimeImpl.c ****     
2129:.\PrimeImpl.c ****     
2130:.\PrimeImpl.c ****     if(ptrbuff[0x0B] == 0x00)
 8886              		.loc 1 2130 0
 8887 01b4 FB68     		ldr	r3, [r7, #12]
 8888 01b6 0B33     		adds	r3, r3, #11
 8889 01b8 1B78     		ldrb	r3, [r3]	@ zero_extendqisi2
 8890 01ba 002B     		cmp	r3, #0
 8891 01bc 05D1     		bne	.L268
2131:.\PrimeImpl.c ****         _g_dispenserlayoutinfo._pointcommadecimalmode = _POINT_AS_DECIMAL_SEPARATOR_;
 8892              		.loc 1 2131 0
 8893 01be 084A     		ldr	r2, .L270
 8894 01c0 D37C     		ldrb	r3, [r2, #19]
 8895 01c2 6FF30003 		bfc	r3, #0, #1
 8896 01c6 D374     		strb	r3, [r2, #19]
 8897 01c8 04E0     		b	.L238
 8898              	.L268:
2132:.\PrimeImpl.c ****     else
2133:.\PrimeImpl.c ****         _g_dispenserlayoutinfo._pointcommadecimalmode = _COMMA_AS_DECIMAL_SEPARATOR_;
 8899              		.loc 1 2133 0
 8900 01ca 054A     		ldr	r2, .L270
 8901 01cc D37C     		ldrb	r3, [r2, #19]
 8902 01ce 43F00103 		orr	r3, r3, #1
 8903 01d2 D374     		strb	r3, [r2, #19]
 8904              	.L238:
2134:.\PrimeImpl.c **** }
 8905              		.loc 1 2134 0
 8906 01d4 1437     		adds	r7, r7, #20
 8907              		.cfi_def_cfa_offset 4
 8908 01d6 BD46     		mov	sp, r7
 8909              		.cfi_def_cfa_register 13
 8910              		@ sp needed
 8911 01d8 5DF8047B 		ldr	r7, [sp], #4
ARM GAS  C:\Users\RECEPC~1\AppData\Local\Temp\ccQD6Oev.s 			page 196


 8912              		.cfi_restore 7
 8913              		.cfi_def_cfa_offset 0
 8914 01dc 7047     		bx	lr
 8915              	.L271:
 8916 01de 00BF     		.align	2
 8917              	.L270:
 8918 01e0 00000000 		.word	_g_dispenserlayoutinfo
 8919              		.cfi_endproc
 8920              	.LFE101:
 8921              		.size	AcquireDispenserLayoutInformation, .-AcquireDispenserLayoutInformation
 8922              		.section	.text.AcquirePumpSpecialFunctionResponseResolver,"ax",%progbits
 8923              		.align	2
 8924              		.global	AcquirePumpSpecialFunctionResponseResolver
 8925              		.thumb
 8926              		.thumb_func
 8927              		.type	AcquirePumpSpecialFunctionResponseResolver, %function
 8928              	AcquirePumpSpecialFunctionResponseResolver:
 8929              	.LFB102:
2135:.\PrimeImpl.c **** 
2136:.\PrimeImpl.c **** //@Created By: HIJH
2137:.\PrimeImpl.c **** //@Date: Septembre de 2016
2138:.\PrimeImpl.c **** //Resolves the completeness for the arriving data after the SFs invocation
2139:.\PrimeImpl.c **** bool AcquirePumpSpecialFunctionResponseResolver(void *pparam, void *pbuffer, uint16 buffersize)
2140:.\PrimeImpl.c **** {
 8930              		.loc 1 2140 0
 8931              		.cfi_startproc
 8932              		@ args = 0, pretend = 0, frame = 24
 8933              		@ frame_needed = 1, uses_anonymous_args = 0
 8934 0000 90B5     		push	{r4, r7, lr}
 8935              		.cfi_def_cfa_offset 12
 8936              		.cfi_offset 4, -12
 8937              		.cfi_offset 7, -8
 8938              		.cfi_offset 14, -4
 8939 0002 87B0     		sub	sp, sp, #28
 8940              		.cfi_def_cfa_offset 40
 8941 0004 00AF     		add	r7, sp, #0
 8942              		.cfi_def_cfa_register 7
 8943 0006 F860     		str	r0, [r7, #12]
 8944 0008 B960     		str	r1, [r7, #8]
 8945 000a 1346     		mov	r3, r2
 8946 000c FB80     		strh	r3, [r7, #6]	@ movhi
2141:.\PrimeImpl.c ****     bool retval = false;
 8947              		.loc 1 2141 0
 8948 000e 0023     		movs	r3, #0
 8949 0010 FB75     		strb	r3, [r7, #23]
2142:.\PrimeImpl.c ****     static uint8 index = 0;
2143:.\PrimeImpl.c ****     //PNEAR_PUMPPTR ppump = (PNEAR_PUMPPTR)pparam;
2144:.\PrimeImpl.c ****     //Since after the third byte we can start inquiry for the message length in words (this is acco
2145:.\PrimeImpl.c ****     //that is  the reason for the number "3"
2146:.\PrimeImpl.c ****     if((PSTRCAST(pbuffer)[0 + 45*index] == 0xBA) && buffersize >= 3)
 8950              		.loc 1 2146 0
 8951 0012 434B     		ldr	r3, .L276
 8952 0014 1B78     		ldrb	r3, [r3]	@ zero_extendqisi2
 8953 0016 1A46     		mov	r2, r3
 8954 0018 1346     		mov	r3, r2
 8955 001a 5B00     		lsls	r3, r3, #1
 8956 001c 1344     		add	r3, r3, r2
ARM GAS  C:\Users\RECEPC~1\AppData\Local\Temp\ccQD6Oev.s 			page 197


 8957 001e 1A01     		lsls	r2, r3, #4
 8958 0020 D31A     		subs	r3, r2, r3
 8959 0022 1A46     		mov	r2, r3
 8960 0024 BB68     		ldr	r3, [r7, #8]
 8961 0026 1344     		add	r3, r3, r2
 8962 0028 1B78     		ldrb	r3, [r3]	@ zero_extendqisi2
 8963 002a BA2B     		cmp	r3, #186
 8964 002c 73D1     		bne	.L273
 8965              		.loc 1 2146 0 is_stmt 0 discriminator 1
 8966 002e FB88     		ldrh	r3, [r7, #6]
 8967 0030 022B     		cmp	r3, #2
 8968 0032 70D9     		bls	.L273
 8969              	.LBB46:
2147:.\PrimeImpl.c ****     {
2148:.\PrimeImpl.c ****         //char8 buff[24];
2149:.\PrimeImpl.c ****         //memcpy(buff, PSTRCAST(pbuffer), buffersize);
2150:.\PrimeImpl.c ****         uint8 msglength = (TranslateSpecialFuncionDigit(PSTRCAST(pbuffer)[1 + 45*index]) << 0x04) |
 8970              		.loc 1 2150 0 is_stmt 1
 8971 0034 3A4B     		ldr	r3, .L276
 8972 0036 1B78     		ldrb	r3, [r3]	@ zero_extendqisi2
 8973 0038 1A46     		mov	r2, r3
 8974 003a 1346     		mov	r3, r2
 8975 003c 5B00     		lsls	r3, r3, #1
 8976 003e 1344     		add	r3, r3, r2
 8977 0040 1A01     		lsls	r2, r3, #4
 8978 0042 D31A     		subs	r3, r2, r3
 8979 0044 0133     		adds	r3, r3, #1
 8980 0046 1A46     		mov	r2, r3
 8981 0048 BB68     		ldr	r3, [r7, #8]
 8982 004a 1344     		add	r3, r3, r2
 8983 004c 1B78     		ldrb	r3, [r3]	@ zero_extendqisi2
 8984 004e 1846     		mov	r0, r3
 8985 0050 FFF7FEFF 		bl	TranslateSpecialFuncionDigit
 8986 0054 0346     		mov	r3, r0
 8987 0056 1B01     		lsls	r3, r3, #4
 8988 0058 DCB2     		uxtb	r4, r3
 8989 005a 314B     		ldr	r3, .L276
 8990 005c 1B78     		ldrb	r3, [r3]	@ zero_extendqisi2
 8991 005e 1A46     		mov	r2, r3
 8992 0060 1346     		mov	r3, r2
 8993 0062 5B00     		lsls	r3, r3, #1
 8994 0064 1344     		add	r3, r3, r2
 8995 0066 1A01     		lsls	r2, r3, #4
 8996 0068 D31A     		subs	r3, r2, r3
 8997 006a 0233     		adds	r3, r3, #2
 8998 006c 1A46     		mov	r2, r3
 8999 006e BB68     		ldr	r3, [r7, #8]
 9000 0070 1344     		add	r3, r3, r2
 9001 0072 1B78     		ldrb	r3, [r3]	@ zero_extendqisi2
 9002 0074 1846     		mov	r0, r3
 9003 0076 FFF7FEFF 		bl	TranslateSpecialFuncionDigit
 9004 007a 0346     		mov	r3, r0
 9005 007c DBB2     		uxtb	r3, r3
 9006 007e 2246     		mov	r2, r4
 9007 0080 1343     		orrs	r3, r3, r2
 9008 0082 DBB2     		uxtb	r3, r3
 9009 0084 BB75     		strb	r3, [r7, #22]
ARM GAS  C:\Users\RECEPC~1\AppData\Local\Temp\ccQD6Oev.s 			page 198


2151:.\PrimeImpl.c ****         //plus 13 since there are some fixed bytes in the frame that sum that value
2152:.\PrimeImpl.c ****         //msglength must be multiplied by 2 since this length is in words instead
2153:.\PrimeImpl.c ****         //If more than 1 block is coming then the first blocks come full which means that they carr
2154:.\PrimeImpl.c ****         //the maximum frame size which is 45 bytes (13 fixed bytes + 32 bytes for the message)
2155:.\PrimeImpl.c ****         if(buffersize >= ((2*msglength + 13) + 45*index))
 9010              		.loc 1 2155 0
 9011 0086 FA88     		ldrh	r2, [r7, #6]
 9012 0088 BB7D     		ldrb	r3, [r7, #22]	@ zero_extendqisi2
 9013 008a 5B00     		lsls	r3, r3, #1
 9014 008c 03F10D01 		add	r1, r3, #13
 9015 0090 234B     		ldr	r3, .L276
 9016 0092 1B78     		ldrb	r3, [r3]	@ zero_extendqisi2
 9017 0094 1846     		mov	r0, r3
 9018 0096 0346     		mov	r3, r0
 9019 0098 5B00     		lsls	r3, r3, #1
 9020 009a 0344     		add	r3, r3, r0
 9021 009c 1801     		lsls	r0, r3, #4
 9022 009e C31A     		subs	r3, r0, r3
 9023 00a0 0B44     		add	r3, r3, r1
 9024 00a2 9A42     		cmp	r2, r3
 9025 00a4 37DB     		blt	.L273
 9026              	.LBB47:
2156:.\PrimeImpl.c ****         {
2157:.\PrimeImpl.c ****             uint8 remblocks = (TranslateSpecialFuncionDigit(PSTRCAST(pbuffer)[7 + 45*index]) << 0x0
 9027              		.loc 1 2157 0
 9028 00a6 1E4B     		ldr	r3, .L276
 9029 00a8 1B78     		ldrb	r3, [r3]	@ zero_extendqisi2
 9030 00aa 1A46     		mov	r2, r3
 9031 00ac 1346     		mov	r3, r2
 9032 00ae 5B00     		lsls	r3, r3, #1
 9033 00b0 1344     		add	r3, r3, r2
 9034 00b2 1A01     		lsls	r2, r3, #4
 9035 00b4 D31A     		subs	r3, r2, r3
 9036 00b6 0733     		adds	r3, r3, #7
 9037 00b8 1A46     		mov	r2, r3
 9038 00ba BB68     		ldr	r3, [r7, #8]
 9039 00bc 1344     		add	r3, r3, r2
 9040 00be 1B78     		ldrb	r3, [r3]	@ zero_extendqisi2
 9041 00c0 1846     		mov	r0, r3
 9042 00c2 FFF7FEFF 		bl	TranslateSpecialFuncionDigit
 9043 00c6 0346     		mov	r3, r0
 9044 00c8 1B01     		lsls	r3, r3, #4
 9045 00ca DCB2     		uxtb	r4, r3
 9046 00cc 144B     		ldr	r3, .L276
 9047 00ce 1B78     		ldrb	r3, [r3]	@ zero_extendqisi2
 9048 00d0 1A46     		mov	r2, r3
 9049 00d2 1346     		mov	r3, r2
 9050 00d4 5B00     		lsls	r3, r3, #1
 9051 00d6 1344     		add	r3, r3, r2
 9052 00d8 1A01     		lsls	r2, r3, #4
 9053 00da D31A     		subs	r3, r2, r3
 9054 00dc 0833     		adds	r3, r3, #8
 9055 00de 1A46     		mov	r2, r3
 9056 00e0 BB68     		ldr	r3, [r7, #8]
 9057 00e2 1344     		add	r3, r3, r2
 9058 00e4 1B78     		ldrb	r3, [r3]	@ zero_extendqisi2
 9059 00e6 1846     		mov	r0, r3
ARM GAS  C:\Users\RECEPC~1\AppData\Local\Temp\ccQD6Oev.s 			page 199


 9060 00e8 FFF7FEFF 		bl	TranslateSpecialFuncionDigit
 9061 00ec 0346     		mov	r3, r0
 9062 00ee DBB2     		uxtb	r3, r3
 9063 00f0 2246     		mov	r2, r4
 9064 00f2 1343     		orrs	r3, r3, r2
 9065 00f4 DBB2     		uxtb	r3, r3
 9066 00f6 7B75     		strb	r3, [r7, #21]
2158:.\PrimeImpl.c ****             if(remblocks == 0)
 9067              		.loc 1 2158 0
 9068 00f8 7B7D     		ldrb	r3, [r7, #21]	@ zero_extendqisi2
 9069 00fa 002B     		cmp	r3, #0
 9070 00fc 05D1     		bne	.L274
2159:.\PrimeImpl.c ****             {
2160:.\PrimeImpl.c ****                 index = 0;
 9071              		.loc 1 2160 0
 9072 00fe 084B     		ldr	r3, .L276
 9073 0100 0022     		movs	r2, #0
 9074 0102 1A70     		strb	r2, [r3]
2161:.\PrimeImpl.c ****                 retval = true;
 9075              		.loc 1 2161 0
 9076 0104 0123     		movs	r3, #1
 9077 0106 FB75     		strb	r3, [r7, #23]
 9078 0108 05E0     		b	.L273
 9079              	.L274:
2162:.\PrimeImpl.c ****             }else{
2163:.\PrimeImpl.c ****                 index++;
 9080              		.loc 1 2163 0
 9081 010a 054B     		ldr	r3, .L276
 9082 010c 1B78     		ldrb	r3, [r3]	@ zero_extendqisi2
 9083 010e 0133     		adds	r3, r3, #1
 9084 0110 DAB2     		uxtb	r2, r3
 9085 0112 034B     		ldr	r3, .L276
 9086 0114 1A70     		strb	r2, [r3]
 9087              	.L273:
 9088              	.LBE47:
 9089              	.LBE46:
2164:.\PrimeImpl.c ****             }
2165:.\PrimeImpl.c ****         }
2166:.\PrimeImpl.c ****     }
2167:.\PrimeImpl.c ****     return retval;
 9090              		.loc 1 2167 0
 9091 0116 FB7D     		ldrb	r3, [r7, #23]	@ zero_extendqisi2
2168:.\PrimeImpl.c **** }
 9092              		.loc 1 2168 0
 9093 0118 1846     		mov	r0, r3
 9094 011a 1C37     		adds	r7, r7, #28
 9095              		.cfi_def_cfa_offset 12
 9096 011c BD46     		mov	sp, r7
 9097              		.cfi_def_cfa_register 13
 9098              		@ sp needed
 9099 011e 90BD     		pop	{r4, r7, pc}
 9100              	.L277:
 9101              		.align	2
 9102              	.L276:
 9103 0120 00000000 		.word	index.9626
 9104              		.cfi_endproc
 9105              	.LFE102:
ARM GAS  C:\Users\RECEPC~1\AppData\Local\Temp\ccQD6Oev.s 			page 200


 9106              		.size	AcquirePumpSpecialFunctionResponseResolver, .-AcquirePumpSpecialFunctionResponseResolver
 9107              		.section	.text.PumpEnumeratorRequest,"ax",%progbits
 9108              		.align	2
 9109              		.global	PumpEnumeratorRequest
 9110              		.thumb
 9111              		.thumb_func
 9112              		.type	PumpEnumeratorRequest, %function
 9113              	PumpEnumeratorRequest:
 9114              	.LFB103:
2169:.\PrimeImpl.c **** 
2170:.\PrimeImpl.c **** //@Created By: HIJH
2171:.\PrimeImpl.c **** //@Septembre de 2016
2172:.\PrimeImpl.c **** void PumpEnumeratorRequest(LPVOID pparam)
2173:.\PrimeImpl.c **** {
 9115              		.loc 1 2173 0
 9116              		.cfi_startproc
 9117              		@ args = 0, pretend = 0, frame = 24
 9118              		@ frame_needed = 1, uses_anonymous_args = 0
 9119 0000 80B5     		push	{r7, lr}
 9120              		.cfi_def_cfa_offset 8
 9121              		.cfi_offset 7, -8
 9122              		.cfi_offset 14, -4
 9123 0002 86B0     		sub	sp, sp, #24
 9124              		.cfi_def_cfa_offset 32
 9125 0004 00AF     		add	r7, sp, #0
 9126              		.cfi_def_cfa_register 7
 9127 0006 7860     		str	r0, [r7, #4]
2174:.\PrimeImpl.c ****     PNEAR_PUMPPTR ppump = (PNEAR_PUMPPTR)pparam;
 9128              		.loc 1 2174 0
 9129 0008 7B68     		ldr	r3, [r7, #4]
 9130 000a 7B61     		str	r3, [r7, #20]
2175:.\PrimeImpl.c ****     if(ppump)
 9131              		.loc 1 2175 0
 9132 000c 7B69     		ldr	r3, [r7, #20]
 9133 000e 002B     		cmp	r3, #0
 9134 0010 23D0     		beq	.L278
 9135              	.LBB48:
2176:.\PrimeImpl.c ****     {
2177:.\PrimeImpl.c ****         uint8_t index = 0;
 9136              		.loc 1 2177 0
 9137 0012 0023     		movs	r3, #0
 9138 0014 FB74     		strb	r3, [r7, #19]
2178:.\PrimeImpl.c ****         memset(ppump->_rxbuffer, 0x00, _PUMP_RX_BUFFER_SIZE_);
 9139              		.loc 1 2178 0
 9140 0016 7B69     		ldr	r3, [r7, #20]
 9141 0018 03F5C473 		add	r3, r3, #392
 9142 001c 1846     		mov	r0, r3
 9143 001e 0021     		movs	r1, #0
 9144 0020 4FF4B472 		mov	r2, #360
 9145 0024 FFF7FEFF 		bl	memset
2179:.\PrimeImpl.c ****         PUARTMESSAGEPTR puartdisp = GetUARTMessageSlot(UART_DISPENSER);
 9146              		.loc 1 2179 0
 9147 0028 A220     		movs	r0, #162
 9148 002a FFF7FEFF 		bl	GetUARTMessageSlot
 9149 002e F860     		str	r0, [r7, #12]
2180:.\PrimeImpl.c ****         if(puartdisp)
 9150              		.loc 1 2180 0
ARM GAS  C:\Users\RECEPC~1\AppData\Local\Temp\ccQD6Oev.s 			page 201


 9151 0030 FB68     		ldr	r3, [r7, #12]
 9152 0032 002B     		cmp	r3, #0
 9153 0034 11D0     		beq	.L278
2181:.\PrimeImpl.c ****         {
2182:.\PrimeImpl.c ****             puartdisp->_messagetx[index++] = PUMP_COMMAND(PUMP_STATE_REQUEST, ppump->_pumpid);
 9154              		.loc 1 2182 0
 9155 0036 FB7C     		ldrb	r3, [r7, #19]	@ zero_extendqisi2
 9156 0038 5A1C     		adds	r2, r3, #1
 9157 003a FA74     		strb	r2, [r7, #19]
 9158 003c 1946     		mov	r1, r3
 9159 003e 7B69     		ldr	r3, [r7, #20]
 9160 0040 1B78     		ldrb	r3, [r3]	@ zero_extendqisi2
 9161 0042 03F00F03 		and	r3, r3, #15
 9162 0046 DAB2     		uxtb	r2, r3
 9163 0048 FB68     		ldr	r3, [r7, #12]
 9164 004a 0B44     		add	r3, r3, r1
 9165 004c 1A71     		strb	r2, [r3, #4]
2183:.\PrimeImpl.c ****             puartdisp->_messagelength = 1;//One byte
 9166              		.loc 1 2183 0
 9167 004e FB68     		ldr	r3, [r7, #12]
 9168 0050 0122     		movs	r2, #1
 9169 0052 5A80     		strh	r2, [r3, #2]	@ movhi
2184:.\PrimeImpl.c ****             puartdisp->_messagestate = PENDING;
 9170              		.loc 1 2184 0
 9171 0054 FB68     		ldr	r3, [r7, #12]
 9172 0056 C222     		movs	r2, #194
 9173 0058 1A70     		strb	r2, [r3]
 9174              	.L278:
 9175              	.LBE48:
2185:.\PrimeImpl.c ****         }
2186:.\PrimeImpl.c ****     }
2187:.\PrimeImpl.c **** }
 9176              		.loc 1 2187 0
 9177 005a 1837     		adds	r7, r7, #24
 9178              		.cfi_def_cfa_offset 8
 9179 005c BD46     		mov	sp, r7
 9180              		.cfi_def_cfa_register 13
 9181              		@ sp needed
 9182 005e 80BD     		pop	{r7, pc}
 9183              		.cfi_endproc
 9184              	.LFE103:
 9185              		.size	PumpEnumeratorRequest, .-PumpEnumeratorRequest
 9186              		.section	.text.AcquirePumpEnumeratorResponse,"ax",%progbits
 9187              		.align	2
 9188              		.global	AcquirePumpEnumeratorResponse
 9189              		.thumb
 9190              		.thumb_func
 9191              		.type	AcquirePumpEnumeratorResponse, %function
 9192              	AcquirePumpEnumeratorResponse:
 9193              	.LFB104:
2188:.\PrimeImpl.c **** 
2189:.\PrimeImpl.c **** //@Created By: HIJH
2190:.\PrimeImpl.c **** //@Septembre de 2016
2191:.\PrimeImpl.c **** void AcquirePumpEnumeratorResponse(LPVOID pparam)
2192:.\PrimeImpl.c **** {
 9194              		.loc 1 2192 0
 9195              		.cfi_startproc
ARM GAS  C:\Users\RECEPC~1\AppData\Local\Temp\ccQD6Oev.s 			page 202


 9196              		@ args = 0, pretend = 0, frame = 24
 9197              		@ frame_needed = 1, uses_anonymous_args = 0
 9198 0000 80B5     		push	{r7, lr}
 9199              		.cfi_def_cfa_offset 8
 9200              		.cfi_offset 7, -8
 9201              		.cfi_offset 14, -4
 9202 0002 86B0     		sub	sp, sp, #24
 9203              		.cfi_def_cfa_offset 32
 9204 0004 00AF     		add	r7, sp, #0
 9205              		.cfi_def_cfa_register 7
 9206 0006 7860     		str	r0, [r7, #4]
2193:.\PrimeImpl.c ****     AcquirePumpStateResponse(pparam);
 9207              		.loc 1 2193 0
 9208 0008 7868     		ldr	r0, [r7, #4]
 9209 000a FFF7FEFF 		bl	AcquirePumpStateResponse
2194:.\PrimeImpl.c ****     PPUMPTRANSACTIONJOBCONTEXTPTR pjob = (PPUMPTRANSACTIONJOBCONTEXTPTR)pparam;
 9210              		.loc 1 2194 0
 9211 000e 7B68     		ldr	r3, [r7, #4]
 9212 0010 7B61     		str	r3, [r7, #20]
2195:.\PrimeImpl.c ****     if(pjob->_ppump->_datacontainer._var0 < 0xF)
 9213              		.loc 1 2195 0
 9214 0012 7B69     		ldr	r3, [r7, #20]
 9215 0014 DB69     		ldr	r3, [r3, #28]
 9216 0016 93F8383B 		ldrb	r3, [r3, #2872]
 9217 001a DBB2     		uxtb	r3, r3
 9218 001c 0E2B     		cmp	r3, #14
 9219 001e 00F2FA80 		bhi	.L281
2196:.\PrimeImpl.c ****     {
2197:.\PrimeImpl.c ****         switch(pjob->_ppump->_datacontainer._var1)
 9220              		.loc 1 2197 0
 9221 0022 7B69     		ldr	r3, [r7, #20]
 9222 0024 DB69     		ldr	r3, [r3, #28]
 9223 0026 93F8393B 		ldrb	r3, [r3, #2873]
 9224 002a DBB2     		uxtb	r3, r3
 9225 002c 032B     		cmp	r3, #3
 9226 002e 00F2C580 		bhi	.L282
 9227 0032 01A2     		adr	r2, .L284
 9228 0034 52F823F0 		ldr	pc, [r2, r3, lsl #2]
 9229              		.p2align 2
 9230              	.L284:
 9231 0038 49000000 		.word	.L283+1
 9232 003c B5000000 		.word	.L285+1
 9233 0040 21010000 		.word	.L286+1
 9234 0044 8D010000 		.word	.L287+1
 9235              		.p2align 1
 9236              	.L283:
 9237              	.LBB49:
2198:.\PrimeImpl.c ****         {
2199:.\PrimeImpl.c ****             case 0:
2200:.\PrimeImpl.c ****             {
2201:.\PrimeImpl.c ****                 
2202:.\PrimeImpl.c ****                 ClearEepromBuffer();
 9238              		.loc 1 2202 0
 9239 0048 FFF7FEFF 		bl	ClearEepromBuffer
2203:.\PrimeImpl.c ****                 //Cleanup of the pump identifier in order to start the enumeration procedure
2204:.\PrimeImpl.c ****                 LoadEepromPage(EEPROM_DISPENSER_PUMP1_LAYOUT_PAGE);
 9240              		.loc 1 2204 0
ARM GAS  C:\Users\RECEPC~1\AppData\Local\Temp\ccQD6Oev.s 			page 203


 9241 004c 4FF40070 		mov	r0, #512
 9242 0050 FFF7FEFF 		bl	LoadEepromPage
2205:.\PrimeImpl.c ****                 GetEepromBuffer()[0] = pjob->_ppump->_pumpid;
 9243              		.loc 1 2205 0
 9244 0054 FFF7FEFF 		bl	GetEepromBuffer
 9245 0058 0246     		mov	r2, r0
 9246 005a 7B69     		ldr	r3, [r7, #20]
 9247 005c DB69     		ldr	r3, [r3, #28]
 9248 005e 1B78     		ldrb	r3, [r3]	@ zero_extendqisi2
 9249 0060 1370     		strb	r3, [r2]
2206:.\PrimeImpl.c ****                 StoreEepromPage(EEPROM_DISPENSER_PUMP1_LAYOUT_PAGE);
 9250              		.loc 1 2206 0
 9251 0062 4FF40070 		mov	r0, #512
 9252 0066 FFF7FEFF 		bl	StoreEepromPage
2207:.\PrimeImpl.c **** 
2208:.\PrimeImpl.c ****                 uint8 var0 = pjob->_ppump->_datacontainer._var0;
 9253              		.loc 1 2208 0
 9254 006a 7B69     		ldr	r3, [r7, #20]
 9255 006c DB69     		ldr	r3, [r3, #28]
 9256 006e 93F8383B 		ldrb	r3, [r3, #2872]
 9257 0072 FB74     		strb	r3, [r7, #19]
2209:.\PrimeImpl.c ****                 uint8 var1 = pjob->_ppump->_datacontainer._var1;
 9258              		.loc 1 2209 0
 9259 0074 7B69     		ldr	r3, [r7, #20]
 9260 0076 DB69     		ldr	r3, [r3, #28]
 9261 0078 93F8393B 		ldrb	r3, [r3, #2873]
 9262 007c BB74     		strb	r3, [r7, #18]
2210:.\PrimeImpl.c ****                 pjob->_ppump = &_g_pumps[var1 + 1];
 9263              		.loc 1 2210 0
 9264 007e BB7C     		ldrb	r3, [r7, #18]	@ zero_extendqisi2
 9265 0080 0133     		adds	r3, r3, #1
 9266 0082 40F69832 		movw	r2, #2968
 9267 0086 02FB03F3 		mul	r3, r2, r3
 9268 008a 694A     		ldr	r2, .L291
 9269 008c 1A44     		add	r2, r2, r3
 9270 008e 7B69     		ldr	r3, [r7, #20]
 9271 0090 DA61     		str	r2, [r3, #28]
2211:.\PrimeImpl.c ****                 pjob->_ppump->_datacontainer._var1 = var1;
 9272              		.loc 1 2211 0
 9273 0092 7B69     		ldr	r3, [r7, #20]
 9274 0094 DB69     		ldr	r3, [r3, #28]
 9275 0096 BA7C     		ldrb	r2, [r7, #18]
 9276 0098 83F8392B 		strb	r2, [r3, #2873]
2212:.\PrimeImpl.c ****                 pjob->_ppump->_datacontainer._var0 = var0;
 9277              		.loc 1 2212 0
 9278 009c 7B69     		ldr	r3, [r7, #20]
 9279 009e DB69     		ldr	r3, [r3, #28]
 9280 00a0 FA7C     		ldrb	r2, [r7, #19]
 9281 00a2 83F8382B 		strb	r2, [r3, #2872]
2213:.\PrimeImpl.c ****                 _g_dispenserlayoutinfo._numpositions++;
 9282              		.loc 1 2213 0
 9283 00a6 634B     		ldr	r3, .L291+4
 9284 00a8 9B78     		ldrb	r3, [r3, #2]	@ zero_extendqisi2
 9285 00aa 0133     		adds	r3, r3, #1
 9286 00ac DAB2     		uxtb	r2, r3
 9287 00ae 614B     		ldr	r3, .L291+4
 9288 00b0 9A70     		strb	r2, [r3, #2]
ARM GAS  C:\Users\RECEPC~1\AppData\Local\Temp\ccQD6Oev.s 			page 204


2214:.\PrimeImpl.c ****                 
2215:.\PrimeImpl.c ****                 break;
 9289              		.loc 1 2215 0
 9290 00b2 83E0     		b	.L282
 9291              	.L285:
 9292              	.LBE49:
 9293              	.LBB50:
2216:.\PrimeImpl.c ****             }
2217:.\PrimeImpl.c ****             case 1:
2218:.\PrimeImpl.c ****             {
2219:.\PrimeImpl.c ****                 
2220:.\PrimeImpl.c ****                 ClearEepromBuffer();
 9294              		.loc 1 2220 0
 9295 00b4 FFF7FEFF 		bl	ClearEepromBuffer
2221:.\PrimeImpl.c ****                 //Cleanup of the pump identifier in order to start the enumeration procedure
2222:.\PrimeImpl.c ****                 LoadEepromPage(EEPROM_DISPENSER_PUMP2_LAYOUT_PAGE);
 9296              		.loc 1 2222 0
 9297 00b8 4FF41070 		mov	r0, #576
 9298 00bc FFF7FEFF 		bl	LoadEepromPage
2223:.\PrimeImpl.c ****                 GetEepromBuffer()[0] = pjob->_ppump->_pumpid;
 9299              		.loc 1 2223 0
 9300 00c0 FFF7FEFF 		bl	GetEepromBuffer
 9301 00c4 0246     		mov	r2, r0
 9302 00c6 7B69     		ldr	r3, [r7, #20]
 9303 00c8 DB69     		ldr	r3, [r3, #28]
 9304 00ca 1B78     		ldrb	r3, [r3]	@ zero_extendqisi2
 9305 00cc 1370     		strb	r3, [r2]
2224:.\PrimeImpl.c ****                 StoreEepromPage(EEPROM_DISPENSER_PUMP2_LAYOUT_PAGE);
 9306              		.loc 1 2224 0
 9307 00ce 4FF41070 		mov	r0, #576
 9308 00d2 FFF7FEFF 		bl	StoreEepromPage
2225:.\PrimeImpl.c ****                 
2226:.\PrimeImpl.c ****                 uint8 var0 = pjob->_ppump->_datacontainer._var0;
 9309              		.loc 1 2226 0
 9310 00d6 7B69     		ldr	r3, [r7, #20]
 9311 00d8 DB69     		ldr	r3, [r3, #28]
 9312 00da 93F8383B 		ldrb	r3, [r3, #2872]
 9313 00de 7B74     		strb	r3, [r7, #17]
2227:.\PrimeImpl.c ****                 uint8 var1 = pjob->_ppump->_datacontainer._var1;
 9314              		.loc 1 2227 0
 9315 00e0 7B69     		ldr	r3, [r7, #20]
 9316 00e2 DB69     		ldr	r3, [r3, #28]
 9317 00e4 93F8393B 		ldrb	r3, [r3, #2873]
 9318 00e8 3B74     		strb	r3, [r7, #16]
2228:.\PrimeImpl.c ****                 pjob->_ppump = &_g_pumps[var1 + 1];
 9319              		.loc 1 2228 0
 9320 00ea 3B7C     		ldrb	r3, [r7, #16]	@ zero_extendqisi2
 9321 00ec 0133     		adds	r3, r3, #1
 9322 00ee 40F69832 		movw	r2, #2968
 9323 00f2 02FB03F3 		mul	r3, r2, r3
 9324 00f6 4E4A     		ldr	r2, .L291
 9325 00f8 1A44     		add	r2, r2, r3
 9326 00fa 7B69     		ldr	r3, [r7, #20]
 9327 00fc DA61     		str	r2, [r3, #28]
2229:.\PrimeImpl.c ****                 pjob->_ppump->_datacontainer._var1 = var1;
 9328              		.loc 1 2229 0
 9329 00fe 7B69     		ldr	r3, [r7, #20]
ARM GAS  C:\Users\RECEPC~1\AppData\Local\Temp\ccQD6Oev.s 			page 205


 9330 0100 DB69     		ldr	r3, [r3, #28]
 9331 0102 3A7C     		ldrb	r2, [r7, #16]
 9332 0104 83F8392B 		strb	r2, [r3, #2873]
2230:.\PrimeImpl.c ****                 pjob->_ppump->_datacontainer._var0 = var0;
 9333              		.loc 1 2230 0
 9334 0108 7B69     		ldr	r3, [r7, #20]
 9335 010a DB69     		ldr	r3, [r3, #28]
 9336 010c 7A7C     		ldrb	r2, [r7, #17]
 9337 010e 83F8382B 		strb	r2, [r3, #2872]
2231:.\PrimeImpl.c ****                 _g_dispenserlayoutinfo._numpositions++;
 9338              		.loc 1 2231 0
 9339 0112 484B     		ldr	r3, .L291+4
 9340 0114 9B78     		ldrb	r3, [r3, #2]	@ zero_extendqisi2
 9341 0116 0133     		adds	r3, r3, #1
 9342 0118 DAB2     		uxtb	r2, r3
 9343 011a 464B     		ldr	r3, .L291+4
 9344 011c 9A70     		strb	r2, [r3, #2]
2232:.\PrimeImpl.c ****                 
2233:.\PrimeImpl.c ****                 break;
 9345              		.loc 1 2233 0
 9346 011e 4DE0     		b	.L282
 9347              	.L286:
 9348              	.LBE50:
 9349              	.LBB51:
2234:.\PrimeImpl.c ****             }
2235:.\PrimeImpl.c ****             case 2:
2236:.\PrimeImpl.c ****             {
2237:.\PrimeImpl.c ****                 
2238:.\PrimeImpl.c ****                 ClearEepromBuffer();
 9350              		.loc 1 2238 0
 9351 0120 FFF7FEFF 		bl	ClearEepromBuffer
2239:.\PrimeImpl.c ****                 //Cleanup of the pump identifier in order to start the enumeration procedure
2240:.\PrimeImpl.c ****                 LoadEepromPage(EEPROM_DISPENSER_PUMP3_LAYOUT_PAGE);
 9352              		.loc 1 2240 0
 9353 0124 4FF42070 		mov	r0, #640
 9354 0128 FFF7FEFF 		bl	LoadEepromPage
2241:.\PrimeImpl.c ****                 GetEepromBuffer()[0] = pjob->_ppump->_pumpid;
 9355              		.loc 1 2241 0
 9356 012c FFF7FEFF 		bl	GetEepromBuffer
 9357 0130 0246     		mov	r2, r0
 9358 0132 7B69     		ldr	r3, [r7, #20]
 9359 0134 DB69     		ldr	r3, [r3, #28]
 9360 0136 1B78     		ldrb	r3, [r3]	@ zero_extendqisi2
 9361 0138 1370     		strb	r3, [r2]
2242:.\PrimeImpl.c ****                 StoreEepromPage(EEPROM_DISPENSER_PUMP3_LAYOUT_PAGE);
 9362              		.loc 1 2242 0
 9363 013a 4FF42070 		mov	r0, #640
 9364 013e FFF7FEFF 		bl	StoreEepromPage
2243:.\PrimeImpl.c ****                 
2244:.\PrimeImpl.c ****                 uint8 var0 = pjob->_ppump->_datacontainer._var0;
 9365              		.loc 1 2244 0
 9366 0142 7B69     		ldr	r3, [r7, #20]
 9367 0144 DB69     		ldr	r3, [r3, #28]
 9368 0146 93F8383B 		ldrb	r3, [r3, #2872]
 9369 014a FB73     		strb	r3, [r7, #15]
2245:.\PrimeImpl.c ****                 uint8 var1 = pjob->_ppump->_datacontainer._var1;
 9370              		.loc 1 2245 0
ARM GAS  C:\Users\RECEPC~1\AppData\Local\Temp\ccQD6Oev.s 			page 206


 9371 014c 7B69     		ldr	r3, [r7, #20]
 9372 014e DB69     		ldr	r3, [r3, #28]
 9373 0150 93F8393B 		ldrb	r3, [r3, #2873]
 9374 0154 BB73     		strb	r3, [r7, #14]
2246:.\PrimeImpl.c ****                 pjob->_ppump = &_g_pumps[var1 + 1];
 9375              		.loc 1 2246 0
 9376 0156 BB7B     		ldrb	r3, [r7, #14]	@ zero_extendqisi2
 9377 0158 0133     		adds	r3, r3, #1
 9378 015a 40F69832 		movw	r2, #2968
 9379 015e 02FB03F3 		mul	r3, r2, r3
 9380 0162 334A     		ldr	r2, .L291
 9381 0164 1A44     		add	r2, r2, r3
 9382 0166 7B69     		ldr	r3, [r7, #20]
 9383 0168 DA61     		str	r2, [r3, #28]
2247:.\PrimeImpl.c ****                 pjob->_ppump->_datacontainer._var1 = var1;
 9384              		.loc 1 2247 0
 9385 016a 7B69     		ldr	r3, [r7, #20]
 9386 016c DB69     		ldr	r3, [r3, #28]
 9387 016e BA7B     		ldrb	r2, [r7, #14]
 9388 0170 83F8392B 		strb	r2, [r3, #2873]
2248:.\PrimeImpl.c ****                 pjob->_ppump->_datacontainer._var0 = var0;
 9389              		.loc 1 2248 0
 9390 0174 7B69     		ldr	r3, [r7, #20]
 9391 0176 DB69     		ldr	r3, [r3, #28]
 9392 0178 FA7B     		ldrb	r2, [r7, #15]
 9393 017a 83F8382B 		strb	r2, [r3, #2872]
2249:.\PrimeImpl.c ****                 _g_dispenserlayoutinfo._numpositions++;
 9394              		.loc 1 2249 0
 9395 017e 2D4B     		ldr	r3, .L291+4
 9396 0180 9B78     		ldrb	r3, [r3, #2]	@ zero_extendqisi2
 9397 0182 0133     		adds	r3, r3, #1
 9398 0184 DAB2     		uxtb	r2, r3
 9399 0186 2B4B     		ldr	r3, .L291+4
 9400 0188 9A70     		strb	r2, [r3, #2]
2250:.\PrimeImpl.c ****                 
2251:.\PrimeImpl.c ****                 break;
 9401              		.loc 1 2251 0
 9402 018a 17E0     		b	.L282
 9403              	.L287:
 9404              	.LBE51:
2252:.\PrimeImpl.c ****             }
2253:.\PrimeImpl.c ****             case 3:
2254:.\PrimeImpl.c ****             {
2255:.\PrimeImpl.c ****                 
2256:.\PrimeImpl.c ****                 ClearEepromBuffer();
 9405              		.loc 1 2256 0
 9406 018c FFF7FEFF 		bl	ClearEepromBuffer
2257:.\PrimeImpl.c ****                 //Cleanup of the pump identifier in order to start the enumeration procedure
2258:.\PrimeImpl.c ****                 LoadEepromPage(EEPROM_DISPENSER_PUMP4_LAYOUT_PAGE);
 9407              		.loc 1 2258 0
 9408 0190 4FF43070 		mov	r0, #704
 9409 0194 FFF7FEFF 		bl	LoadEepromPage
2259:.\PrimeImpl.c ****                 GetEepromBuffer()[0] = pjob->_ppump->_pumpid;                
 9410              		.loc 1 2259 0
 9411 0198 FFF7FEFF 		bl	GetEepromBuffer
 9412 019c 0246     		mov	r2, r0
 9413 019e 7B69     		ldr	r3, [r7, #20]
ARM GAS  C:\Users\RECEPC~1\AppData\Local\Temp\ccQD6Oev.s 			page 207


 9414 01a0 DB69     		ldr	r3, [r3, #28]
 9415 01a2 1B78     		ldrb	r3, [r3]	@ zero_extendqisi2
 9416 01a4 1370     		strb	r3, [r2]
2260:.\PrimeImpl.c ****                 StoreEepromPage(EEPROM_DISPENSER_PUMP4_LAYOUT_PAGE);
 9417              		.loc 1 2260 0
 9418 01a6 4FF43070 		mov	r0, #704
 9419 01aa FFF7FEFF 		bl	StoreEepromPage
2261:.\PrimeImpl.c ****                 _g_dispenserlayoutinfo._numpositions++;
 9420              		.loc 1 2261 0
 9421 01ae 214B     		ldr	r3, .L291+4
 9422 01b0 9B78     		ldrb	r3, [r3, #2]	@ zero_extendqisi2
 9423 01b2 0133     		adds	r3, r3, #1
 9424 01b4 DAB2     		uxtb	r2, r3
 9425 01b6 1F4B     		ldr	r3, .L291+4
 9426 01b8 9A70     		strb	r2, [r3, #2]
2262:.\PrimeImpl.c ****                 
2263:.\PrimeImpl.c ****                 break;
 9427              		.loc 1 2263 0
 9428 01ba 00BF     		nop
 9429              	.L282:
2264:.\PrimeImpl.c ****             }
2265:.\PrimeImpl.c ****         }
2266:.\PrimeImpl.c ****         pjob->_ppump->_datacontainer._var1++;
 9430              		.loc 1 2266 0
 9431 01bc 7B69     		ldr	r3, [r7, #20]
 9432 01be DB69     		ldr	r3, [r3, #28]
 9433 01c0 93F8392B 		ldrb	r2, [r3, #2873]
 9434 01c4 D2B2     		uxtb	r2, r2
 9435 01c6 0132     		adds	r2, r2, #1
 9436 01c8 D2B2     		uxtb	r2, r2
 9437 01ca 83F8392B 		strb	r2, [r3, #2873]
2267:.\PrimeImpl.c ****         if(pjob->_ppump->_datacontainer._var1 < _MAX_NUMBER_OF_PUMPS_)
 9438              		.loc 1 2267 0
 9439 01ce 7B69     		ldr	r3, [r7, #20]
 9440 01d0 DB69     		ldr	r3, [r3, #28]
 9441 01d2 93F8393B 		ldrb	r3, [r3, #2873]
 9442 01d6 DBB2     		uxtb	r3, r3
 9443 01d8 032B     		cmp	r3, #3
 9444 01da 11D8     		bhi	.L288
2268:.\PrimeImpl.c ****         {
2269:.\PrimeImpl.c ****             pjob->_ppump->_datacontainer._var0++;
 9445              		.loc 1 2269 0
 9446 01dc 7B69     		ldr	r3, [r7, #20]
 9447 01de DB69     		ldr	r3, [r3, #28]
 9448 01e0 93F8382B 		ldrb	r2, [r3, #2872]
 9449 01e4 D2B2     		uxtb	r2, r2
 9450 01e6 0132     		adds	r2, r2, #1
 9451 01e8 D2B2     		uxtb	r2, r2
 9452 01ea 83F8382B 		strb	r2, [r3, #2872]
2270:.\PrimeImpl.c ****             pjob->_ppump->_pumpid = pjob->_ppump->_datacontainer._var0;
 9453              		.loc 1 2270 0
 9454 01ee 7B69     		ldr	r3, [r7, #20]
 9455 01f0 DB69     		ldr	r3, [r3, #28]
 9456 01f2 7A69     		ldr	r2, [r7, #20]
 9457 01f4 D269     		ldr	r2, [r2, #28]
 9458 01f6 92F8382B 		ldrb	r2, [r2, #2872]
 9459 01fa D2B2     		uxtb	r2, r2
ARM GAS  C:\Users\RECEPC~1\AppData\Local\Temp\ccQD6Oev.s 			page 208


 9460 01fc 1A70     		strb	r2, [r3]
 9461 01fe 14E0     		b	.L280
 9462              	.L288:
2271:.\PrimeImpl.c ****         }else{
2272:.\PrimeImpl.c ****             pjob->_reenqueue = false;
 9463              		.loc 1 2272 0
 9464 0200 7B69     		ldr	r3, [r7, #20]
 9465 0202 0022     		movs	r2, #0
 9466 0204 1A70     		strb	r2, [r3]
2273:.\PrimeImpl.c ****             
2274:.\PrimeImpl.c ****             //Chance for any extra initialization
2275:.\PrimeImpl.c ****             if(_g_ptractprogramming == PNEAR_NULLPTR)
 9467              		.loc 1 2275 0
 9468 0206 0C4B     		ldr	r3, .L291+8
 9469 0208 1B68     		ldr	r3, [r3]
 9470 020a 002B     		cmp	r3, #0
 9471 020c 0DD1     		bne	.L280
2276:.\PrimeImpl.c ****                 _g_ptractprogramming = PrimeActivateProgramming;
 9472              		.loc 1 2276 0
 9473 020e 0A4B     		ldr	r3, .L291+8
 9474 0210 0A4A     		ldr	r2, .L291+12
 9475 0212 1A60     		str	r2, [r3]
 9476 0214 09E0     		b	.L280
 9477              	.L281:
2277:.\PrimeImpl.c ****         }
2278:.\PrimeImpl.c ****         
2279:.\PrimeImpl.c ****     }else{
2280:.\PrimeImpl.c ****         pjob->_reenqueue = false;
 9478              		.loc 1 2280 0
 9479 0216 7B69     		ldr	r3, [r7, #20]
 9480 0218 0022     		movs	r2, #0
 9481 021a 1A70     		strb	r2, [r3]
2281:.\PrimeImpl.c ****         
2282:.\PrimeImpl.c ****         //Chance for any extra initialization
2283:.\PrimeImpl.c ****         if(_g_ptractprogramming == PNEAR_NULLPTR)
 9482              		.loc 1 2283 0
 9483 021c 064B     		ldr	r3, .L291+8
 9484 021e 1B68     		ldr	r3, [r3]
 9485 0220 002B     		cmp	r3, #0
 9486 0222 02D1     		bne	.L280
2284:.\PrimeImpl.c ****             _g_ptractprogramming = PrimeActivateProgramming;
 9487              		.loc 1 2284 0
 9488 0224 044B     		ldr	r3, .L291+8
 9489 0226 054A     		ldr	r2, .L291+12
 9490 0228 1A60     		str	r2, [r3]
 9491              	.L280:
2285:.\PrimeImpl.c ****     }
2286:.\PrimeImpl.c **** }
 9492              		.loc 1 2286 0
 9493 022a 1837     		adds	r7, r7, #24
 9494              		.cfi_def_cfa_offset 8
 9495 022c BD46     		mov	sp, r7
 9496              		.cfi_def_cfa_register 13
 9497              		@ sp needed
 9498 022e 80BD     		pop	{r7, pc}
 9499              	.L292:
 9500              		.align	2
ARM GAS  C:\Users\RECEPC~1\AppData\Local\Temp\ccQD6Oev.s 			page 209


 9501              	.L291:
 9502 0230 00000000 		.word	_g_pumps
 9503 0234 00000000 		.word	_g_dispenserlayoutinfo
 9504 0238 00000000 		.word	_g_ptractprogramming
 9505 023c 00000000 		.word	PrimeActivateProgramming
 9506              		.cfi_endproc
 9507              	.LFE104:
 9508              		.size	AcquirePumpEnumeratorResponse, .-AcquirePumpEnumeratorResponse
 9509              		.section	.text.PumpEnumeratorTimeout,"ax",%progbits
 9510              		.align	2
 9511              		.global	PumpEnumeratorTimeout
 9512              		.thumb
 9513              		.thumb_func
 9514              		.type	PumpEnumeratorTimeout, %function
 9515              	PumpEnumeratorTimeout:
 9516              	.LFB105:
2287:.\PrimeImpl.c **** 
2288:.\PrimeImpl.c **** //@Created By: HIJH
2289:.\PrimeImpl.c **** //@Septembre de 2016
2290:.\PrimeImpl.c **** void PumpEnumeratorTimeout(void *pparam)
2291:.\PrimeImpl.c **** {
 9517              		.loc 1 2291 0
 9518              		.cfi_startproc
 9519              		@ args = 0, pretend = 0, frame = 16
 9520              		@ frame_needed = 1, uses_anonymous_args = 0
 9521              		@ link register save eliminated.
 9522 0000 80B4     		push	{r7}
 9523              		.cfi_def_cfa_offset 4
 9524              		.cfi_offset 7, -4
 9525 0002 85B0     		sub	sp, sp, #20
 9526              		.cfi_def_cfa_offset 24
 9527 0004 00AF     		add	r7, sp, #0
 9528              		.cfi_def_cfa_register 7
 9529 0006 7860     		str	r0, [r7, #4]
2292:.\PrimeImpl.c ****     PPUMPTRANSACTIONJOBCONTEXTPTR pjob = (PPUMPTRANSACTIONJOBCONTEXTPTR)pparam;
 9530              		.loc 1 2292 0
 9531 0008 7B68     		ldr	r3, [r7, #4]
 9532 000a FB60     		str	r3, [r7, #12]
2293:.\PrimeImpl.c ****     //_var0 holds the iterator index that goes from 0x0:pump16 to 0xF:pump15
2294:.\PrimeImpl.c ****     if(pjob->_ppump->_datacontainer._var0 < 0x10)
 9533              		.loc 1 2294 0
 9534 000c FB68     		ldr	r3, [r7, #12]
 9535 000e DB69     		ldr	r3, [r3, #28]
 9536 0010 93F8383B 		ldrb	r3, [r3, #2872]
 9537 0014 DBB2     		uxtb	r3, r3
 9538 0016 0F2B     		cmp	r3, #15
 9539 0018 14D8     		bhi	.L294
2295:.\PrimeImpl.c ****     {
2296:.\PrimeImpl.c ****         pjob->_retriescounter = 0;
 9540              		.loc 1 2296 0
 9541 001a FB68     		ldr	r3, [r7, #12]
 9542 001c 0022     		movs	r2, #0
 9543 001e DA81     		strh	r2, [r3, #14]	@ movhi
2297:.\PrimeImpl.c ****         pjob->_ppump->_datacontainer._var0++;
 9544              		.loc 1 2297 0
 9545 0020 FB68     		ldr	r3, [r7, #12]
 9546 0022 DB69     		ldr	r3, [r3, #28]
ARM GAS  C:\Users\RECEPC~1\AppData\Local\Temp\ccQD6Oev.s 			page 210


 9547 0024 93F8382B 		ldrb	r2, [r3, #2872]
 9548 0028 D2B2     		uxtb	r2, r2
 9549 002a 0132     		adds	r2, r2, #1
 9550 002c D2B2     		uxtb	r2, r2
 9551 002e 83F8382B 		strb	r2, [r3, #2872]
2298:.\PrimeImpl.c ****         pjob->_ppump->_pumpid = pjob->_ppump->_datacontainer._var0;
 9552              		.loc 1 2298 0
 9553 0032 FB68     		ldr	r3, [r7, #12]
 9554 0034 DB69     		ldr	r3, [r3, #28]
 9555 0036 FA68     		ldr	r2, [r7, #12]
 9556 0038 D269     		ldr	r2, [r2, #28]
 9557 003a 92F8382B 		ldrb	r2, [r2, #2872]
 9558 003e D2B2     		uxtb	r2, r2
 9559 0040 1A70     		strb	r2, [r3]
 9560 0042 09E0     		b	.L293
 9561              	.L294:
2299:.\PrimeImpl.c ****     }else{
2300:.\PrimeImpl.c ****         pjob->_reenqueue = false;
 9562              		.loc 1 2300 0
 9563 0044 FB68     		ldr	r3, [r7, #12]
 9564 0046 0022     		movs	r2, #0
 9565 0048 1A70     		strb	r2, [r3]
2301:.\PrimeImpl.c ****         
2302:.\PrimeImpl.c ****         //Chance for any extra initialization
2303:.\PrimeImpl.c ****         if(_g_ptractprogramming == PNEAR_NULLPTR)
 9566              		.loc 1 2303 0
 9567 004a 064B     		ldr	r3, .L296
 9568 004c 1B68     		ldr	r3, [r3]
 9569 004e 002B     		cmp	r3, #0
 9570 0050 02D1     		bne	.L293
2304:.\PrimeImpl.c ****             _g_ptractprogramming = PrimeActivateProgramming;
 9571              		.loc 1 2304 0
 9572 0052 044B     		ldr	r3, .L296
 9573 0054 044A     		ldr	r2, .L296+4
 9574 0056 1A60     		str	r2, [r3]
 9575              	.L293:
2305:.\PrimeImpl.c ****     }
2306:.\PrimeImpl.c **** }
 9576              		.loc 1 2306 0
 9577 0058 1437     		adds	r7, r7, #20
 9578              		.cfi_def_cfa_offset 4
 9579 005a BD46     		mov	sp, r7
 9580              		.cfi_def_cfa_register 13
 9581              		@ sp needed
 9582 005c 5DF8047B 		ldr	r7, [sp], #4
 9583              		.cfi_restore 7
 9584              		.cfi_def_cfa_offset 0
 9585 0060 7047     		bx	lr
 9586              	.L297:
 9587 0062 00BF     		.align	2
 9588              	.L296:
 9589 0064 00000000 		.word	_g_ptractprogramming
 9590 0068 00000000 		.word	PrimeActivateProgramming
 9591              		.cfi_endproc
 9592              	.LFE105:
 9593              		.size	PumpEnumeratorTimeout, .-PumpEnumeratorTimeout
 9594              		.section	.text.AcquirePumpTotalsResponseResolver,"ax",%progbits
ARM GAS  C:\Users\RECEPC~1\AppData\Local\Temp\ccQD6Oev.s 			page 211


 9595              		.align	2
 9596              		.global	AcquirePumpTotalsResponseResolver
 9597              		.thumb
 9598              		.thumb_func
 9599              		.type	AcquirePumpTotalsResponseResolver, %function
 9600              	AcquirePumpTotalsResponseResolver:
 9601              	.LFB106:
2307:.\PrimeImpl.c **** 
2308:.\PrimeImpl.c **** //@Created By: HIJH
2309:.\PrimeImpl.c **** //@Septembre de 2016
2310:.\PrimeImpl.c **** bool AcquirePumpTotalsResponseResolver(void *pparam, void *pbuffer, uint16 buffersize)
2311:.\PrimeImpl.c **** {
 9602              		.loc 1 2311 0
 9603              		.cfi_startproc
 9604              		@ args = 0, pretend = 0, frame = 24
 9605              		@ frame_needed = 1, uses_anonymous_args = 0
 9606              		@ link register save eliminated.
 9607 0000 80B4     		push	{r7}
 9608              		.cfi_def_cfa_offset 4
 9609              		.cfi_offset 7, -4
 9610 0002 87B0     		sub	sp, sp, #28
 9611              		.cfi_def_cfa_offset 32
 9612 0004 00AF     		add	r7, sp, #0
 9613              		.cfi_def_cfa_register 7
 9614 0006 F860     		str	r0, [r7, #12]
 9615 0008 B960     		str	r1, [r7, #8]
 9616 000a 1346     		mov	r3, r2
 9617 000c FB80     		strh	r3, [r7, #6]	@ movhi
2312:.\PrimeImpl.c ****     bool retval = false;
 9618              		.loc 1 2312 0
 9619 000e 0023     		movs	r3, #0
 9620 0010 FB75     		strb	r3, [r7, #23]
2313:.\PrimeImpl.c ****     PNEAR_PUMPPTR ppump = (PNEAR_PUMPPTR)pparam;
 9621              		.loc 1 2313 0
 9622 0012 FB68     		ldr	r3, [r7, #12]
 9623 0014 3B61     		str	r3, [r7, #16]
2314:.\PrimeImpl.c ****     switch(ppump->_pumpindex)
 9624              		.loc 1 2314 0
 9625 0016 3B69     		ldr	r3, [r7, #16]
 9626 0018 5B78     		ldrb	r3, [r3, #1]	@ zero_extendqisi2
 9627 001a 032B     		cmp	r3, #3
 9628 001c 42D8     		bhi	.L299
 9629 001e 01A2     		adr	r2, .L301
 9630 0020 52F823F0 		ldr	pc, [r2, r3, lsl #2]
 9631              		.p2align 2
 9632              	.L301:
 9633 0024 35000000 		.word	.L300+1
 9634 0028 51000000 		.word	.L302+1
 9635 002c 6D000000 		.word	.L303+1
 9636 0030 89000000 		.word	.L304+1
 9637              		.p2align 1
 9638              	.L300:
2315:.\PrimeImpl.c ****     {
2316:.\PrimeImpl.c ****         case 0x00:
2317:.\PrimeImpl.c ****             retval = (buffersize >= (_g_dispenserlayoutinfo._hosesposition1*_PUMP_TOTALS_BUFFER_SHI
 9639              		.loc 1 2317 0
 9640 0034 FA88     		ldrh	r2, [r7, #6]
ARM GAS  C:\Users\RECEPC~1\AppData\Local\Temp\ccQD6Oev.s 			page 212


 9641 0036 1F4B     		ldr	r3, .L306
 9642 0038 DB78     		ldrb	r3, [r3, #3]	@ zero_extendqisi2
 9643 003a 1946     		mov	r1, r3
 9644 003c 2A23     		movs	r3, #42
 9645 003e 03FB01F3 		mul	r3, r3, r1
 9646 0042 0433     		adds	r3, r3, #4
 9647 0044 9A42     		cmp	r2, r3
 9648 0046 ACBF     		ite	ge
 9649 0048 0123     		movge	r3, #1
 9650 004a 0023     		movlt	r3, #0
 9651 004c FB75     		strb	r3, [r7, #23]
2318:.\PrimeImpl.c ****         break;
 9652              		.loc 1 2318 0
 9653 004e 29E0     		b	.L299
 9654              	.L302:
2319:.\PrimeImpl.c ****         case 0x01:
2320:.\PrimeImpl.c ****             retval = (buffersize >= (_g_dispenserlayoutinfo._hosesposition2*_PUMP_TOTALS_BUFFER_SHI
 9655              		.loc 1 2320 0
 9656 0050 FA88     		ldrh	r2, [r7, #6]
 9657 0052 184B     		ldr	r3, .L306
 9658 0054 1B79     		ldrb	r3, [r3, #4]	@ zero_extendqisi2
 9659 0056 1946     		mov	r1, r3
 9660 0058 2A23     		movs	r3, #42
 9661 005a 03FB01F3 		mul	r3, r3, r1
 9662 005e 0433     		adds	r3, r3, #4
 9663 0060 9A42     		cmp	r2, r3
 9664 0062 ACBF     		ite	ge
 9665 0064 0123     		movge	r3, #1
 9666 0066 0023     		movlt	r3, #0
 9667 0068 FB75     		strb	r3, [r7, #23]
2321:.\PrimeImpl.c ****         break;
 9668              		.loc 1 2321 0
 9669 006a 1BE0     		b	.L299
 9670              	.L303:
2322:.\PrimeImpl.c ****         case 0x02:
2323:.\PrimeImpl.c ****             retval = (buffersize >= (_g_dispenserlayoutinfo._hosesposition3*_PUMP_TOTALS_BUFFER_SHI
 9671              		.loc 1 2323 0
 9672 006c FA88     		ldrh	r2, [r7, #6]
 9673 006e 114B     		ldr	r3, .L306
 9674 0070 5B79     		ldrb	r3, [r3, #5]	@ zero_extendqisi2
 9675 0072 1946     		mov	r1, r3
 9676 0074 2A23     		movs	r3, #42
 9677 0076 03FB01F3 		mul	r3, r3, r1
 9678 007a 0433     		adds	r3, r3, #4
 9679 007c 9A42     		cmp	r2, r3
 9680 007e ACBF     		ite	ge
 9681 0080 0123     		movge	r3, #1
 9682 0082 0023     		movlt	r3, #0
 9683 0084 FB75     		strb	r3, [r7, #23]
2324:.\PrimeImpl.c ****         break;
 9684              		.loc 1 2324 0
 9685 0086 0DE0     		b	.L299
 9686              	.L304:
2325:.\PrimeImpl.c ****         case 0x03:
2326:.\PrimeImpl.c ****             retval = (buffersize >= (_g_dispenserlayoutinfo._hosesposition4*_PUMP_TOTALS_BUFFER_SHI
 9687              		.loc 1 2326 0
 9688 0088 FA88     		ldrh	r2, [r7, #6]
ARM GAS  C:\Users\RECEPC~1\AppData\Local\Temp\ccQD6Oev.s 			page 213


 9689 008a 0A4B     		ldr	r3, .L306
 9690 008c 9B79     		ldrb	r3, [r3, #6]	@ zero_extendqisi2
 9691 008e 1946     		mov	r1, r3
 9692 0090 2A23     		movs	r3, #42
 9693 0092 03FB01F3 		mul	r3, r3, r1
 9694 0096 0433     		adds	r3, r3, #4
 9695 0098 9A42     		cmp	r2, r3
 9696 009a ACBF     		ite	ge
 9697 009c 0123     		movge	r3, #1
 9698 009e 0023     		movlt	r3, #0
 9699 00a0 FB75     		strb	r3, [r7, #23]
2327:.\PrimeImpl.c ****         break;
 9700              		.loc 1 2327 0
 9701 00a2 00BF     		nop
 9702              	.L299:
2328:.\PrimeImpl.c ****     }
2329:.\PrimeImpl.c ****     return retval;
 9703              		.loc 1 2329 0
 9704 00a4 FB7D     		ldrb	r3, [r7, #23]	@ zero_extendqisi2
2330:.\PrimeImpl.c **** }
 9705              		.loc 1 2330 0
 9706 00a6 1846     		mov	r0, r3
 9707 00a8 1C37     		adds	r7, r7, #28
 9708              		.cfi_def_cfa_offset 4
 9709 00aa BD46     		mov	sp, r7
 9710              		.cfi_def_cfa_register 13
 9711              		@ sp needed
 9712 00ac 5DF8047B 		ldr	r7, [sp], #4
 9713              		.cfi_restore 7
 9714              		.cfi_def_cfa_offset 0
 9715 00b0 7047     		bx	lr
 9716              	.L307:
 9717 00b2 00BF     		.align	2
 9718              	.L306:
 9719 00b4 00000000 		.word	_g_dispenserlayoutinfo
 9720              		.cfi_endproc
 9721              	.LFE106:
 9722              		.size	AcquirePumpTotalsResponseResolver, .-AcquirePumpTotalsResponseResolver
 9723              		.section	.text.AcquirePpuChangeResponse,"ax",%progbits
 9724              		.align	2
 9725              		.global	AcquirePpuChangeResponse
 9726              		.thumb
 9727              		.thumb_func
 9728              		.type	AcquirePpuChangeResponse, %function
 9729              	AcquirePpuChangeResponse:
 9730              	.LFB107:
2331:.\PrimeImpl.c **** 
2332:.\PrimeImpl.c **** void AcquirePpuChangeResponse(void *pparam)
2333:.\PrimeImpl.c **** {
 9731              		.loc 1 2333 0
 9732              		.cfi_startproc
 9733              		@ args = 0, pretend = 0, frame = 16
 9734              		@ frame_needed = 1, uses_anonymous_args = 0
 9735              		@ link register save eliminated.
 9736 0000 80B4     		push	{r7}
 9737              		.cfi_def_cfa_offset 4
 9738              		.cfi_offset 7, -4
ARM GAS  C:\Users\RECEPC~1\AppData\Local\Temp\ccQD6Oev.s 			page 214


 9739 0002 85B0     		sub	sp, sp, #20
 9740              		.cfi_def_cfa_offset 24
 9741 0004 00AF     		add	r7, sp, #0
 9742              		.cfi_def_cfa_register 7
 9743 0006 7860     		str	r0, [r7, #4]
2334:.\PrimeImpl.c ****     PPUMPTRANSACTIONJOBCONTEXTPTR pjob = (PPUMPTRANSACTIONJOBCONTEXTPTR)pparam;
 9744              		.loc 1 2334 0
 9745 0008 7B68     		ldr	r3, [r7, #4]
 9746 000a FB60     		str	r3, [r7, #12]
2335:.\PrimeImpl.c ****     if(pjob)
 9747              		.loc 1 2335 0
 9748 000c FB68     		ldr	r3, [r7, #12]
 9749 000e 002B     		cmp	r3, #0
 9750 0010 3AD0     		beq	.L308
2336:.\PrimeImpl.c ****     {
2337:.\PrimeImpl.c ****         pjob->_ppump->_pumpstate = ((pjob->_ppump->_rxbuffer[0x00] & 0xF0) >> 4);
 9751              		.loc 1 2337 0
 9752 0012 FB68     		ldr	r3, [r7, #12]
 9753 0014 DB69     		ldr	r3, [r3, #28]
 9754 0016 FA68     		ldr	r2, [r7, #12]
 9755 0018 D269     		ldr	r2, [r2, #28]
 9756 001a 92F88821 		ldrb	r2, [r2, #392]	@ zero_extendqisi2
 9757 001e 1209     		lsrs	r2, r2, #4
 9758 0020 D2B2     		uxtb	r2, r2
 9759 0022 9A70     		strb	r2, [r3, #2]
2338:.\PrimeImpl.c ****         
2339:.\PrimeImpl.c ****         switch(_g_dispenserlayoutinfo._numpositions)
 9760              		.loc 1 2339 0
 9761 0024 1B4B     		ldr	r3, .L314
 9762 0026 9B78     		ldrb	r3, [r3, #2]	@ zero_extendqisi2
 9763 0028 022B     		cmp	r3, #2
 9764 002a 02D0     		beq	.L310
 9765 002c 042B     		cmp	r3, #4
 9766 002e 16D0     		beq	.L311
 9767 0030 2AE0     		b	.L308
 9768              	.L310:
2340:.\PrimeImpl.c ****         {
2341:.\PrimeImpl.c ****             case 0x02:
2342:.\PrimeImpl.c ****             {
2343:.\PrimeImpl.c ****                 if(pjob->_ppump->_pumpindex == (_g_dispenserlayoutinfo._numpositions - 1) && (pjob-
 9769              		.loc 1 2343 0
 9770 0032 FB68     		ldr	r3, [r7, #12]
 9771 0034 DB69     		ldr	r3, [r3, #28]
 9772 0036 5B78     		ldrb	r3, [r3, #1]	@ zero_extendqisi2
 9773 0038 1A46     		mov	r2, r3
 9774 003a 164B     		ldr	r3, .L314
 9775 003c 9B78     		ldrb	r3, [r3, #2]	@ zero_extendqisi2
 9776 003e 013B     		subs	r3, r3, #1
 9777 0040 9A42     		cmp	r2, r3
 9778 0042 0BD1     		bne	.L312
 9779              		.loc 1 2343 0 is_stmt 0 discriminator 1
 9780 0044 FB68     		ldr	r3, [r7, #12]
 9781 0046 DB69     		ldr	r3, [r3, #28]
 9782 0048 DB78     		ldrb	r3, [r3, #3]
 9783 004a DAB2     		uxtb	r2, r3
 9784 004c 114B     		ldr	r3, .L314
 9785 004e 1B79     		ldrb	r3, [r3, #4]	@ zero_extendqisi2
ARM GAS  C:\Users\RECEPC~1\AppData\Local\Temp\ccQD6Oev.s 			page 215


 9786 0050 9A42     		cmp	r2, r3
 9787 0052 03D1     		bne	.L312
2344:.\PrimeImpl.c ****                     _g_dispenserlayoutinfo._inconfiguration = false;
 9788              		.loc 1 2344 0 is_stmt 1
 9789 0054 0F4B     		ldr	r3, .L314
 9790 0056 0022     		movs	r2, #0
 9791 0058 1A70     		strb	r2, [r3]
2345:.\PrimeImpl.c ****                 
2346:.\PrimeImpl.c ****                 break;
 9792              		.loc 1 2346 0
 9793 005a 15E0     		b	.L308
 9794              	.L312:
 9795 005c 14E0     		b	.L308
 9796              	.L311:
2347:.\PrimeImpl.c ****             }
2348:.\PrimeImpl.c ****             case 0x04:
2349:.\PrimeImpl.c ****             {
2350:.\PrimeImpl.c ****                 if(pjob->_ppump->_pumpindex == (_g_dispenserlayoutinfo._numpositions - 1) && (pjob-
 9797              		.loc 1 2350 0
 9798 005e FB68     		ldr	r3, [r7, #12]
 9799 0060 DB69     		ldr	r3, [r3, #28]
 9800 0062 5B78     		ldrb	r3, [r3, #1]	@ zero_extendqisi2
 9801 0064 1A46     		mov	r2, r3
 9802 0066 0B4B     		ldr	r3, .L314
 9803 0068 9B78     		ldrb	r3, [r3, #2]	@ zero_extendqisi2
 9804 006a 013B     		subs	r3, r3, #1
 9805 006c 9A42     		cmp	r2, r3
 9806 006e 0AD1     		bne	.L313
 9807              		.loc 1 2350 0 is_stmt 0 discriminator 1
 9808 0070 FB68     		ldr	r3, [r7, #12]
 9809 0072 DB69     		ldr	r3, [r3, #28]
 9810 0074 DB78     		ldrb	r3, [r3, #3]
 9811 0076 DAB2     		uxtb	r2, r3
 9812 0078 064B     		ldr	r3, .L314
 9813 007a 9B79     		ldrb	r3, [r3, #6]	@ zero_extendqisi2
 9814 007c 9A42     		cmp	r2, r3
 9815 007e 02D1     		bne	.L313
2351:.\PrimeImpl.c ****                     _g_dispenserlayoutinfo._inconfiguration = false;
 9816              		.loc 1 2351 0 is_stmt 1
 9817 0080 044B     		ldr	r3, .L314
 9818 0082 0022     		movs	r2, #0
 9819 0084 1A70     		strb	r2, [r3]
 9820              	.L313:
2352:.\PrimeImpl.c ****                 
2353:.\PrimeImpl.c ****                 break;
 9821              		.loc 1 2353 0
 9822 0086 00BF     		nop
 9823              	.L308:
2354:.\PrimeImpl.c ****             }
2355:.\PrimeImpl.c ****         }
2356:.\PrimeImpl.c ****     }
2357:.\PrimeImpl.c **** }
 9824              		.loc 1 2357 0
 9825 0088 1437     		adds	r7, r7, #20
 9826              		.cfi_def_cfa_offset 4
 9827 008a BD46     		mov	sp, r7
 9828              		.cfi_def_cfa_register 13
ARM GAS  C:\Users\RECEPC~1\AppData\Local\Temp\ccQD6Oev.s 			page 216


 9829              		@ sp needed
 9830 008c 5DF8047B 		ldr	r7, [sp], #4
 9831              		.cfi_restore 7
 9832              		.cfi_def_cfa_offset 0
 9833 0090 7047     		bx	lr
 9834              	.L315:
 9835 0092 00BF     		.align	2
 9836              	.L314:
 9837 0094 00000000 		.word	_g_dispenserlayoutinfo
 9838              		.cfi_endproc
 9839              	.LFE107:
 9840              		.size	AcquirePpuChangeResponse, .-AcquirePpuChangeResponse
 9841              		.section	.text.PrimeActivateProgramming,"ax",%progbits
 9842              		.align	2
 9843              		.global	PrimeActivateProgramming
 9844              		.thumb
 9845              		.thumb_func
 9846              		.type	PrimeActivateProgramming, %function
 9847              	PrimeActivateProgramming:
 9848              	.LFB108:
2358:.\PrimeImpl.c **** 
2359:.\PrimeImpl.c **** //@Created By: HIJH
2360:.\PrimeImpl.c **** //@Novembre de 2016
2361:.\PrimeImpl.c **** void PrimeActivateProgramming(LPVOID pparam)
2362:.\PrimeImpl.c **** {
 9849              		.loc 1 2362 0
 9850              		.cfi_startproc
 9851              		@ args = 0, pretend = 0, frame = 24
 9852              		@ frame_needed = 1, uses_anonymous_args = 0
 9853 0000 80B5     		push	{r7, lr}
 9854              		.cfi_def_cfa_offset 8
 9855              		.cfi_offset 7, -8
 9856              		.cfi_offset 14, -4
 9857 0002 86B0     		sub	sp, sp, #24
 9858              		.cfi_def_cfa_offset 32
 9859 0004 00AF     		add	r7, sp, #0
 9860              		.cfi_def_cfa_register 7
 9861 0006 7860     		str	r0, [r7, #4]
2363:.\PrimeImpl.c ****     PNEAR_PUMPPTR ppump = &_g_pumps[0x00];
 9862              		.loc 1 2363 0
 9863 0008 264B     		ldr	r3, .L321
 9864 000a 3B61     		str	r3, [r7, #16]
2364:.\PrimeImpl.c ****     PSINKMESSAGEPTR pmsg = (PSINKMESSAGEPTR)pparam;
 9865              		.loc 1 2364 0
 9866 000c 7B68     		ldr	r3, [r7, #4]
 9867 000e FB60     		str	r3, [r7, #12]
2365:.\PrimeImpl.c ****     if(ppump)
 9868              		.loc 1 2365 0
 9869 0010 3B69     		ldr	r3, [r7, #16]
 9870 0012 002B     		cmp	r3, #0
 9871 0014 42D0     		beq	.L316
 9872              	.LBB52:
2366:.\PrimeImpl.c ****     {
2367:.\PrimeImpl.c ****         ppump->_acquiringstate = true;
 9873              		.loc 1 2367 0
 9874 0016 3B69     		ldr	r3, [r7, #16]
 9875 0018 0122     		movs	r2, #1
ARM GAS  C:\Users\RECEPC~1\AppData\Local\Temp\ccQD6Oev.s 			page 217


 9876 001a 5A71     		strb	r2, [r3, #5]
2368:.\PrimeImpl.c ****         ppump->_pcurrtransaction = GetTransactionByName(_PUMP_PROGRAM_MODE_);
 9877              		.loc 1 2368 0
 9878 001c 4E20     		movs	r0, #78
 9879 001e FFF7FEFF 		bl	GetTransactionByName
 9880 0022 0246     		mov	r2, r0
 9881 0024 3B69     		ldr	r3, [r7, #16]
 9882 0026 DA61     		str	r2, [r3, #28]
2369:.\PrimeImpl.c ****         PumpTransactionJob *ptrjob = &((PumpTransaction*)ppump->_pcurrtransaction)->_jobs[0];
 9883              		.loc 1 2369 0
 9884 0028 3B69     		ldr	r3, [r7, #16]
 9885 002a DB69     		ldr	r3, [r3, #28]
 9886 002c 0433     		adds	r3, r3, #4
 9887 002e 7B61     		str	r3, [r7, #20]
2370:.\PrimeImpl.c ****         if(ptrjob)
 9888              		.loc 1 2370 0
 9889 0030 7B69     		ldr	r3, [r7, #20]
 9890 0032 002B     		cmp	r3, #0
 9891 0034 32D0     		beq	.L316
2371:.\PrimeImpl.c ****         {
2372:.\PrimeImpl.c ****             while(ptrjob->Request != NULL)
 9892              		.loc 1 2372 0
 9893 0036 2DE0     		b	.L318
 9894              	.L320:
 9895              	.LBB53:
2373:.\PrimeImpl.c ****             {
2374:.\PrimeImpl.c ****                 PPUMPTRANSACTIONJOBCONTEXTPTR pjobcntr = _g_pumpjobqueue.Allocate(&_g_pumpjobqueue)
 9896              		.loc 1 2374 0
 9897 0038 1B4B     		ldr	r3, .L321+4
 9898 003a D3F84037 		ldr	r3, [r3, #1856]
 9899 003e 1A48     		ldr	r0, .L321+4
 9900 0040 9847     		blx	r3
 9901 0042 B860     		str	r0, [r7, #8]
2375:.\PrimeImpl.c ****                 if(pjobcntr)
 9902              		.loc 1 2375 0
 9903 0044 BB68     		ldr	r3, [r7, #8]
 9904 0046 002B     		cmp	r3, #0
 9905 0048 21D0     		beq	.L319
2376:.\PrimeImpl.c ****                 {
2377:.\PrimeImpl.c ****                     pjobcntr->_reenqueue = false;
 9906              		.loc 1 2377 0
 9907 004a BB68     		ldr	r3, [r7, #8]
 9908 004c 0022     		movs	r2, #0
 9909 004e 1A70     		strb	r2, [r3]
2378:.\PrimeImpl.c ****                     pjobcntr->_prequest = ptrjob;
 9910              		.loc 1 2378 0
 9911 0050 BB68     		ldr	r3, [r7, #8]
 9912 0052 7A69     		ldr	r2, [r7, #20]
 9913 0054 5A61     		str	r2, [r3, #20]
2379:.\PrimeImpl.c ****                     pjobcntr->_presponse = NULL;
 9914              		.loc 1 2379 0
 9915 0056 BB68     		ldr	r3, [r7, #8]
 9916 0058 0022     		movs	r2, #0
 9917 005a 9A61     		str	r2, [r3, #24]
2380:.\PrimeImpl.c ****                     pjobcntr->_ppump = ppump;
 9918              		.loc 1 2380 0
 9919 005c BB68     		ldr	r3, [r7, #8]
ARM GAS  C:\Users\RECEPC~1\AppData\Local\Temp\ccQD6Oev.s 			page 218


 9920 005e 3A69     		ldr	r2, [r7, #16]
 9921 0060 DA61     		str	r2, [r3, #28]
2381:.\PrimeImpl.c ****                     pjobcntr->_ppump->CleanUp(pjobcntr->_ppump);
 9922              		.loc 1 2381 0
 9923 0062 BB68     		ldr	r3, [r7, #8]
 9924 0064 DB69     		ldr	r3, [r3, #28]
 9925 0066 D3F8903B 		ldr	r3, [r3, #2960]
 9926 006a BA68     		ldr	r2, [r7, #8]
 9927 006c D269     		ldr	r2, [r2, #28]
 9928 006e 1046     		mov	r0, r2
 9929 0070 9847     		blx	r3
2382:.\PrimeImpl.c ****                     //This callback will be invoked upon response (if exists)
2383:.\PrimeImpl.c ****                     pjobcntr->Callback = pmsg->Callback;
 9930              		.loc 1 2383 0
 9931 0072 FB68     		ldr	r3, [r7, #12]
 9932 0074 D3F89421 		ldr	r2, [r3, #404]
 9933 0078 BB68     		ldr	r3, [r7, #8]
 9934 007a 1A62     		str	r2, [r3, #32]
2384:.\PrimeImpl.c ****                     pjobcntr->_pdata = pmsg;
 9935              		.loc 1 2384 0
 9936 007c BB68     		ldr	r3, [r7, #8]
 9937 007e FA68     		ldr	r2, [r7, #12]
 9938 0080 5A62     		str	r2, [r3, #36]
2385:.\PrimeImpl.c ****                     
2386:.\PrimeImpl.c ****                     _g_pumpjobqueue.Enqueue(&_g_pumpjobqueue, pjobcntr);
 9939              		.loc 1 2386 0
 9940 0082 094B     		ldr	r3, .L321+4
 9941 0084 D3F84437 		ldr	r3, [r3, #1860]
 9942 0088 0748     		ldr	r0, .L321+4
 9943 008a B968     		ldr	r1, [r7, #8]
 9944 008c 9847     		blx	r3
 9945              	.L319:
2387:.\PrimeImpl.c ****                 }
2388:.\PrimeImpl.c ****                 ptrjob++;
 9946              		.loc 1 2388 0
 9947 008e 7B69     		ldr	r3, [r7, #20]
 9948 0090 3433     		adds	r3, r3, #52
 9949 0092 7B61     		str	r3, [r7, #20]
 9950              	.L318:
 9951              	.LBE53:
2372:.\PrimeImpl.c ****             {
 9952              		.loc 1 2372 0
 9953 0094 7B69     		ldr	r3, [r7, #20]
 9954 0096 1B68     		ldr	r3, [r3]
 9955 0098 002B     		cmp	r3, #0
 9956 009a CDD1     		bne	.L320
 9957              	.L316:
 9958              	.LBE52:
2389:.\PrimeImpl.c ****             }
2390:.\PrimeImpl.c ****         }
2391:.\PrimeImpl.c ****     }
2392:.\PrimeImpl.c **** }
 9959              		.loc 1 2392 0
 9960 009c 1837     		adds	r7, r7, #24
 9961              		.cfi_def_cfa_offset 8
 9962 009e BD46     		mov	sp, r7
 9963              		.cfi_def_cfa_register 13
ARM GAS  C:\Users\RECEPC~1\AppData\Local\Temp\ccQD6Oev.s 			page 219


 9964              		@ sp needed
 9965 00a0 80BD     		pop	{r7, pc}
 9966              	.L322:
 9967 00a2 00BF     		.align	2
 9968              	.L321:
 9969 00a4 00000000 		.word	_g_pumps
 9970 00a8 00000000 		.word	_g_pumpjobqueue
 9971              		.cfi_endproc
 9972              	.LFE108:
 9973              		.size	PrimeActivateProgramming, .-PrimeActivateProgramming
 9974              		.section	.text.ComplementaryCreditTransactionOnHose,"ax",%progbits
 9975              		.align	2
 9976              		.global	ComplementaryCreditTransactionOnHose
 9977              		.thumb
 9978              		.thumb_func
 9979              		.type	ComplementaryCreditTransactionOnHose, %function
 9980              	ComplementaryCreditTransactionOnHose:
 9981              	.LFB109:
2393:.\PrimeImpl.c **** 
2394:.\PrimeImpl.c **** void ComplementaryCreditTransactionOnHose(LPVOID pparam)
2395:.\PrimeImpl.c **** {
 9982              		.loc 1 2395 0
 9983              		.cfi_startproc
 9984              		@ args = 0, pretend = 0, frame = 24
 9985              		@ frame_needed = 1, uses_anonymous_args = 0
 9986 0000 80B5     		push	{r7, lr}
 9987              		.cfi_def_cfa_offset 8
 9988              		.cfi_offset 7, -8
 9989              		.cfi_offset 14, -4
 9990 0002 86B0     		sub	sp, sp, #24
 9991              		.cfi_def_cfa_offset 32
 9992 0004 00AF     		add	r7, sp, #0
 9993              		.cfi_def_cfa_register 7
 9994 0006 7860     		str	r0, [r7, #4]
2396:.\PrimeImpl.c ****     PNEAR_PUMPPTR ppump = (PNEAR_PUMPPTR)pparam;
 9995              		.loc 1 2396 0
 9996 0008 7B68     		ldr	r3, [r7, #4]
 9997 000a 3B61     		str	r3, [r7, #16]
2397:.\PrimeImpl.c ****     ppump->_pcurrtransaction = GetTransactionByName(_PUMP_FILL_CREDIT_COMPLEMENTARY_);
 9998              		.loc 1 2397 0
 9999 000c 4520     		movs	r0, #69
 10000 000e FFF7FEFF 		bl	GetTransactionByName
 10001 0012 0246     		mov	r2, r0
 10002 0014 3B69     		ldr	r3, [r7, #16]
 10003 0016 DA61     		str	r2, [r3, #28]
2398:.\PrimeImpl.c ****     PumpTransactionJob *ptrjob = &((PumpTransaction*)ppump->_pcurrtransaction)->_jobs[0];
 10004              		.loc 1 2398 0
 10005 0018 3B69     		ldr	r3, [r7, #16]
 10006 001a DB69     		ldr	r3, [r3, #28]
 10007 001c 0433     		adds	r3, r3, #4
 10008 001e 7B61     		str	r3, [r7, #20]
2399:.\PrimeImpl.c ****     if(ptrjob)
 10009              		.loc 1 2399 0
 10010 0020 7B69     		ldr	r3, [r7, #20]
 10011 0022 002B     		cmp	r3, #0
 10012 0024 2AD0     		beq	.L323
2400:.\PrimeImpl.c ****     {
ARM GAS  C:\Users\RECEPC~1\AppData\Local\Temp\ccQD6Oev.s 			page 220


2401:.\PrimeImpl.c ****         while(ptrjob->Request != NULL)
 10013              		.loc 1 2401 0
 10014 0026 25E0     		b	.L325
 10015              	.L327:
 10016              	.LBB54:
2402:.\PrimeImpl.c ****         {
2403:.\PrimeImpl.c ****             PPUMPTRANSACTIONJOBCONTEXTPTR pjobcntr = _g_pumpjobqueue.Allocate(&_g_pumpjobqueue);
 10017              		.loc 1 2403 0
 10018 0028 164B     		ldr	r3, .L328
 10019 002a D3F84037 		ldr	r3, [r3, #1856]
 10020 002e 1548     		ldr	r0, .L328
 10021 0030 9847     		blx	r3
 10022 0032 F860     		str	r0, [r7, #12]
2404:.\PrimeImpl.c ****             if(pjobcntr)
 10023              		.loc 1 2404 0
 10024 0034 FB68     		ldr	r3, [r7, #12]
 10025 0036 002B     		cmp	r3, #0
 10026 0038 19D0     		beq	.L326
2405:.\PrimeImpl.c ****             {
2406:.\PrimeImpl.c ****                 pjobcntr->_reenqueue = false;
 10027              		.loc 1 2406 0
 10028 003a FB68     		ldr	r3, [r7, #12]
 10029 003c 0022     		movs	r2, #0
 10030 003e 1A70     		strb	r2, [r3]
2407:.\PrimeImpl.c ****                 pjobcntr->_prequest = ptrjob;
 10031              		.loc 1 2407 0
 10032 0040 FB68     		ldr	r3, [r7, #12]
 10033 0042 7A69     		ldr	r2, [r7, #20]
 10034 0044 5A61     		str	r2, [r3, #20]
2408:.\PrimeImpl.c ****                 pjobcntr->_presponse = NULL;
 10035              		.loc 1 2408 0
 10036 0046 FB68     		ldr	r3, [r7, #12]
 10037 0048 0022     		movs	r2, #0
 10038 004a 9A61     		str	r2, [r3, #24]
2409:.\PrimeImpl.c ****                 pjobcntr->_ppump = ppump;
 10039              		.loc 1 2409 0
 10040 004c FB68     		ldr	r3, [r7, #12]
 10041 004e 3A69     		ldr	r2, [r7, #16]
 10042 0050 DA61     		str	r2, [r3, #28]
2410:.\PrimeImpl.c ****                 pjobcntr->_ppump->CleanUp(pjobcntr->_ppump);
 10043              		.loc 1 2410 0
 10044 0052 FB68     		ldr	r3, [r7, #12]
 10045 0054 DB69     		ldr	r3, [r3, #28]
 10046 0056 D3F8903B 		ldr	r3, [r3, #2960]
 10047 005a FA68     		ldr	r2, [r7, #12]
 10048 005c D269     		ldr	r2, [r2, #28]
 10049 005e 1046     		mov	r0, r2
 10050 0060 9847     		blx	r3
2411:.\PrimeImpl.c ****                 //This callback will be invoked upon response (if exists)
2412:.\PrimeImpl.c ****                 //pjobcntr->Callback = pmsg->Callback;
2413:.\PrimeImpl.c ****                 //pjobcntr->_pdata = pmsg;
2414:.\PrimeImpl.c ****                 
2415:.\PrimeImpl.c ****                 _g_pumpjobqueue.Enqueue(&_g_pumpjobqueue, pjobcntr);
 10051              		.loc 1 2415 0
 10052 0062 084B     		ldr	r3, .L328
 10053 0064 D3F84437 		ldr	r3, [r3, #1860]
 10054 0068 0648     		ldr	r0, .L328
ARM GAS  C:\Users\RECEPC~1\AppData\Local\Temp\ccQD6Oev.s 			page 221


 10055 006a F968     		ldr	r1, [r7, #12]
 10056 006c 9847     		blx	r3
 10057              	.L326:
2416:.\PrimeImpl.c ****             }
2417:.\PrimeImpl.c ****             ptrjob++;
 10058              		.loc 1 2417 0
 10059 006e 7B69     		ldr	r3, [r7, #20]
 10060 0070 3433     		adds	r3, r3, #52
 10061 0072 7B61     		str	r3, [r7, #20]
 10062              	.L325:
 10063              	.LBE54:
2401:.\PrimeImpl.c ****         {
 10064              		.loc 1 2401 0
 10065 0074 7B69     		ldr	r3, [r7, #20]
 10066 0076 1B68     		ldr	r3, [r3]
 10067 0078 002B     		cmp	r3, #0
 10068 007a D5D1     		bne	.L327
 10069              	.L323:
2418:.\PrimeImpl.c ****         }
2419:.\PrimeImpl.c ****     }
2420:.\PrimeImpl.c **** }
 10070              		.loc 1 2420 0
 10071 007c 1837     		adds	r7, r7, #24
 10072              		.cfi_def_cfa_offset 8
 10073 007e BD46     		mov	sp, r7
 10074              		.cfi_def_cfa_register 13
 10075              		@ sp needed
 10076 0080 80BD     		pop	{r7, pc}
 10077              	.L329:
 10078 0082 00BF     		.align	2
 10079              	.L328:
 10080 0084 00000000 		.word	_g_pumpjobqueue
 10081              		.cfi_endproc
 10082              	.LFE109:
 10083              		.size	ComplementaryCreditTransactionOnHose, .-ComplementaryCreditTransactionOnHose
 10084              		.section	.text.GetLRC,"ax",%progbits
 10085              		.align	2
 10086              		.global	GetLRC
 10087              		.thumb
 10088              		.thumb_func
 10089              		.type	GetLRC, %function
 10090              	GetLRC:
 10091              	.LFB110:
2421:.\PrimeImpl.c **** 
2422:.\PrimeImpl.c **** 
2423:.\PrimeImpl.c **** //@Created By: HIJH
2424:.\PrimeImpl.c **** //@Septembre de 2016
2425:.\PrimeImpl.c **** ///////////////////////////////////////////////////////////////////////////////////////////////////
2426:.\PrimeImpl.c **** //THESE ARE SUPPORT METHODS THAT WILL BE USED IN THE TRANSACTIONAL MACHINE
2427:.\PrimeImpl.c **** ///////////////////////////////////////////////////////////////////////////////////////////////////
2428:.\PrimeImpl.c **** //Calculation of the LRC according to the documentation
2429:.\PrimeImpl.c **** uint8_t GetLRC(char8 *_pbuffer)
2430:.\PrimeImpl.c **** {
 10092              		.loc 1 2430 0
 10093              		.cfi_startproc
 10094              		@ args = 0, pretend = 0, frame = 16
 10095              		@ frame_needed = 1, uses_anonymous_args = 0
ARM GAS  C:\Users\RECEPC~1\AppData\Local\Temp\ccQD6Oev.s 			page 222


 10096              		@ link register save eliminated.
 10097 0000 80B4     		push	{r7}
 10098              		.cfi_def_cfa_offset 4
 10099              		.cfi_offset 7, -4
 10100 0002 85B0     		sub	sp, sp, #20
 10101              		.cfi_def_cfa_offset 24
 10102 0004 00AF     		add	r7, sp, #0
 10103              		.cfi_def_cfa_register 7
 10104 0006 7860     		str	r0, [r7, #4]
2431:.\PrimeImpl.c ****     uint8_t lrc = 0;
 10105              		.loc 1 2431 0
 10106 0008 0023     		movs	r3, #0
 10107 000a FB73     		strb	r3, [r7, #15]
2432:.\PrimeImpl.c ****     while(*_pbuffer != 0xFB)
 10108              		.loc 1 2432 0
 10109 000c 0AE0     		b	.L331
 10110              	.L332:
2433:.\PrimeImpl.c ****     {
2434:.\PrimeImpl.c ****         lrc += (*_pbuffer & 0x0F);
 10111              		.loc 1 2434 0
 10112 000e 7B68     		ldr	r3, [r7, #4]
 10113 0010 1B78     		ldrb	r3, [r3]	@ zero_extendqisi2
 10114 0012 03F00F03 		and	r3, r3, #15
 10115 0016 DAB2     		uxtb	r2, r3
 10116 0018 FB7B     		ldrb	r3, [r7, #15]
 10117 001a 1344     		add	r3, r3, r2
 10118 001c FB73     		strb	r3, [r7, #15]
2435:.\PrimeImpl.c ****         _pbuffer++;
 10119              		.loc 1 2435 0
 10120 001e 7B68     		ldr	r3, [r7, #4]
 10121 0020 0133     		adds	r3, r3, #1
 10122 0022 7B60     		str	r3, [r7, #4]
 10123              	.L331:
2432:.\PrimeImpl.c ****     while(*_pbuffer != 0xFB)
 10124              		.loc 1 2432 0
 10125 0024 7B68     		ldr	r3, [r7, #4]
 10126 0026 1B78     		ldrb	r3, [r3]	@ zero_extendqisi2
 10127 0028 FB2B     		cmp	r3, #251
 10128 002a F0D1     		bne	.L332
2436:.\PrimeImpl.c ****     }
2437:.\PrimeImpl.c ****     lrc += (*_pbuffer & 0x0F);
 10129              		.loc 1 2437 0
 10130 002c 7B68     		ldr	r3, [r7, #4]
 10131 002e 1B78     		ldrb	r3, [r3]	@ zero_extendqisi2
 10132 0030 03F00F03 		and	r3, r3, #15
 10133 0034 DAB2     		uxtb	r2, r3
 10134 0036 FB7B     		ldrb	r3, [r7, #15]
 10135 0038 1344     		add	r3, r3, r2
 10136 003a FB73     		strb	r3, [r7, #15]
2438:.\PrimeImpl.c ****     return (((~lrc + 1) & 0x0F) | 0xE0);
 10137              		.loc 1 2438 0
 10138 003c FB7B     		ldrb	r3, [r7, #15]
 10139 003e 5B42     		negs	r3, r3
 10140 0040 DBB2     		uxtb	r3, r3
 10141 0042 DBB2     		uxtb	r3, r3
 10142 0044 03F00F03 		and	r3, r3, #15
 10143 0048 DBB2     		uxtb	r3, r3
ARM GAS  C:\Users\RECEPC~1\AppData\Local\Temp\ccQD6Oev.s 			page 223


 10144 004a 63F01F03 		orn	r3, r3, #31
 10145 004e DBB2     		uxtb	r3, r3
 10146 0050 DBB2     		uxtb	r3, r3
2439:.\PrimeImpl.c **** }
 10147              		.loc 1 2439 0
 10148 0052 1846     		mov	r0, r3
 10149 0054 1437     		adds	r7, r7, #20
 10150              		.cfi_def_cfa_offset 4
 10151 0056 BD46     		mov	sp, r7
 10152              		.cfi_def_cfa_register 13
 10153              		@ sp needed
 10154 0058 5DF8047B 		ldr	r7, [sp], #4
 10155              		.cfi_restore 7
 10156              		.cfi_def_cfa_offset 0
 10157 005c 7047     		bx	lr
 10158              		.cfi_endproc
 10159              	.LFE110:
 10160              		.size	GetLRC, .-GetLRC
 10161 005e 00BF     		.section	.text.FindLRC,"ax",%progbits
 10162              		.align	2
 10163              		.global	FindLRC
 10164              		.thumb
 10165              		.thumb_func
 10166              		.type	FindLRC, %function
 10167              	FindLRC:
 10168              	.LFB111:
2440:.\PrimeImpl.c **** 
2441:.\PrimeImpl.c **** uint8_t FindLRC(char8 *_pbuffer)
2442:.\PrimeImpl.c **** {
 10169              		.loc 1 2442 0
 10170              		.cfi_startproc
 10171              		@ args = 0, pretend = 0, frame = 8
 10172              		@ frame_needed = 1, uses_anonymous_args = 0
 10173              		@ link register save eliminated.
 10174 0000 80B4     		push	{r7}
 10175              		.cfi_def_cfa_offset 4
 10176              		.cfi_offset 7, -4
 10177 0002 83B0     		sub	sp, sp, #12
 10178              		.cfi_def_cfa_offset 16
 10179 0004 00AF     		add	r7, sp, #0
 10180              		.cfi_def_cfa_register 7
 10181 0006 7860     		str	r0, [r7, #4]
2443:.\PrimeImpl.c ****     while(*_pbuffer != 0xFB)
 10182              		.loc 1 2443 0
 10183 0008 02E0     		b	.L335
 10184              	.L336:
2444:.\PrimeImpl.c ****     {
2445:.\PrimeImpl.c ****         _pbuffer++;
 10185              		.loc 1 2445 0
 10186 000a 7B68     		ldr	r3, [r7, #4]
 10187 000c 0133     		adds	r3, r3, #1
 10188 000e 7B60     		str	r3, [r7, #4]
 10189              	.L335:
2443:.\PrimeImpl.c ****     while(*_pbuffer != 0xFB)
 10190              		.loc 1 2443 0
 10191 0010 7B68     		ldr	r3, [r7, #4]
 10192 0012 1B78     		ldrb	r3, [r3]	@ zero_extendqisi2
ARM GAS  C:\Users\RECEPC~1\AppData\Local\Temp\ccQD6Oev.s 			page 224


 10193 0014 FB2B     		cmp	r3, #251
 10194 0016 F8D1     		bne	.L336
2446:.\PrimeImpl.c ****     }
2447:.\PrimeImpl.c ****     return *(++_pbuffer);
 10195              		.loc 1 2447 0
 10196 0018 7B68     		ldr	r3, [r7, #4]
 10197 001a 0133     		adds	r3, r3, #1
 10198 001c 7B60     		str	r3, [r7, #4]
 10199 001e 7B68     		ldr	r3, [r7, #4]
 10200 0020 1B78     		ldrb	r3, [r3]	@ zero_extendqisi2
2448:.\PrimeImpl.c **** }
 10201              		.loc 1 2448 0
 10202 0022 1846     		mov	r0, r3
 10203 0024 0C37     		adds	r7, r7, #12
 10204              		.cfi_def_cfa_offset 4
 10205 0026 BD46     		mov	sp, r7
 10206              		.cfi_def_cfa_register 13
 10207              		@ sp needed
 10208 0028 5DF8047B 		ldr	r7, [sp], #4
 10209              		.cfi_restore 7
 10210              		.cfi_def_cfa_offset 0
 10211 002c 7047     		bx	lr
 10212              		.cfi_endproc
 10213              	.LFE111:
 10214              		.size	FindLRC, .-FindLRC
 10215 002e 00BF     		.section	.text.InitiateTransaction,"ax",%progbits
 10216              		.align	2
 10217              		.global	InitiateTransaction
 10218              		.thumb
 10219              		.thumb_func
 10220              		.type	InitiateTransaction, %function
 10221              	InitiateTransaction:
 10222              	.LFB112:
2449:.\PrimeImpl.c **** 
2450:.\PrimeImpl.c **** //@Created By: HIJH
2451:.\PrimeImpl.c **** //@Septembre de 2016
2452:.\PrimeImpl.c **** void InitiateTransaction(void *pparam)
2453:.\PrimeImpl.c **** {
 10223              		.loc 1 2453 0
 10224              		.cfi_startproc
 10225              		@ args = 0, pretend = 0, frame = 16
 10226              		@ frame_needed = 1, uses_anonymous_args = 0
 10227              		@ link register save eliminated.
 10228 0000 80B4     		push	{r7}
 10229              		.cfi_def_cfa_offset 4
 10230              		.cfi_offset 7, -4
 10231 0002 85B0     		sub	sp, sp, #20
 10232              		.cfi_def_cfa_offset 24
 10233 0004 00AF     		add	r7, sp, #0
 10234              		.cfi_def_cfa_register 7
 10235 0006 7860     		str	r0, [r7, #4]
2454:.\PrimeImpl.c ****     PumpTransactionJobContext *pjob = (PumpTransactionJobContext*)pparam;
 10236              		.loc 1 2454 0
 10237 0008 7B68     		ldr	r3, [r7, #4]
 10238 000a FB60     		str	r3, [r7, #12]
2455:.\PrimeImpl.c ****     if(pjob)
 10239              		.loc 1 2455 0
ARM GAS  C:\Users\RECEPC~1\AppData\Local\Temp\ccQD6Oev.s 			page 225


 10240 000c FB68     		ldr	r3, [r7, #12]
 10241 000e 002B     		cmp	r3, #0
 10242 0010 07D0     		beq	.L338
2456:.\PrimeImpl.c ****     {
2457:.\PrimeImpl.c ****         pjob->_ppump->_transhealth = _PUMP_OK_;
 10243              		.loc 1 2457 0
 10244 0012 FB68     		ldr	r3, [r7, #12]
 10245 0014 DB69     		ldr	r3, [r3, #28]
 10246 0016 0122     		movs	r2, #1
 10247 0018 1A76     		strb	r2, [r3, #24]
2458:.\PrimeImpl.c ****         pjob->_ppump->_transtate = _PUMP_BUSY_;
 10248              		.loc 1 2458 0
 10249 001a FB68     		ldr	r3, [r7, #12]
 10250 001c DB69     		ldr	r3, [r3, #28]
 10251 001e 0122     		movs	r2, #1
 10252 0020 5A76     		strb	r2, [r3, #25]
 10253              	.L338:
2459:.\PrimeImpl.c ****     }
2460:.\PrimeImpl.c **** }
 10254              		.loc 1 2460 0
 10255 0022 1437     		adds	r7, r7, #20
 10256              		.cfi_def_cfa_offset 4
 10257 0024 BD46     		mov	sp, r7
 10258              		.cfi_def_cfa_register 13
 10259              		@ sp needed
 10260 0026 5DF8047B 		ldr	r7, [sp], #4
 10261              		.cfi_restore 7
 10262              		.cfi_def_cfa_offset 0
 10263 002a 7047     		bx	lr
 10264              		.cfi_endproc
 10265              	.LFE112:
 10266              		.size	InitiateTransaction, .-InitiateTransaction
 10267              		.section	.text.TerminateTransaction,"ax",%progbits
 10268              		.align	2
 10269              		.global	TerminateTransaction
 10270              		.thumb
 10271              		.thumb_func
 10272              		.type	TerminateTransaction, %function
 10273              	TerminateTransaction:
 10274              	.LFB113:
2461:.\PrimeImpl.c **** 
2462:.\PrimeImpl.c **** //@Created By: HIJH
2463:.\PrimeImpl.c **** //@Septembre de 2016
2464:.\PrimeImpl.c **** void TerminateTransaction(void *pparam)
2465:.\PrimeImpl.c **** {
 10275              		.loc 1 2465 0
 10276              		.cfi_startproc
 10277              		@ args = 0, pretend = 0, frame = 16
 10278              		@ frame_needed = 1, uses_anonymous_args = 0
 10279              		@ link register save eliminated.
 10280 0000 80B4     		push	{r7}
 10281              		.cfi_def_cfa_offset 4
 10282              		.cfi_offset 7, -4
 10283 0002 85B0     		sub	sp, sp, #20
 10284              		.cfi_def_cfa_offset 24
 10285 0004 00AF     		add	r7, sp, #0
 10286              		.cfi_def_cfa_register 7
ARM GAS  C:\Users\RECEPC~1\AppData\Local\Temp\ccQD6Oev.s 			page 226


 10287 0006 7860     		str	r0, [r7, #4]
2466:.\PrimeImpl.c ****     PPUMPTRANSACTIONJOBCONTEXTPTR pjob = (PPUMPTRANSACTIONJOBCONTEXTPTR)pparam;
 10288              		.loc 1 2466 0
 10289 0008 7B68     		ldr	r3, [r7, #4]
 10290 000a FB60     		str	r3, [r7, #12]
2467:.\PrimeImpl.c ****     if(pjob)
 10291              		.loc 1 2467 0
 10292 000c FB68     		ldr	r3, [r7, #12]
 10293 000e 002B     		cmp	r3, #0
 10294 0010 07D0     		beq	.L340
2468:.\PrimeImpl.c ****     {
2469:.\PrimeImpl.c ****         pjob->_ppump->_transhealth = _PUMP_OK_;
 10295              		.loc 1 2469 0
 10296 0012 FB68     		ldr	r3, [r7, #12]
 10297 0014 DB69     		ldr	r3, [r3, #28]
 10298 0016 0122     		movs	r2, #1
 10299 0018 1A76     		strb	r2, [r3, #24]
2470:.\PrimeImpl.c ****         pjob->_ppump->_transtate = _PUMP_IDLE_;
 10300              		.loc 1 2470 0
 10301 001a FB68     		ldr	r3, [r7, #12]
 10302 001c DB69     		ldr	r3, [r3, #28]
 10303 001e 0222     		movs	r2, #2
 10304 0020 5A76     		strb	r2, [r3, #25]
 10305              	.L340:
2471:.\PrimeImpl.c ****         
2472:.\PrimeImpl.c ****     }
2473:.\PrimeImpl.c **** }
 10306              		.loc 1 2473 0
 10307 0022 1437     		adds	r7, r7, #20
 10308              		.cfi_def_cfa_offset 4
 10309 0024 BD46     		mov	sp, r7
 10310              		.cfi_def_cfa_register 13
 10311              		@ sp needed
 10312 0026 5DF8047B 		ldr	r7, [sp], #4
 10313              		.cfi_restore 7
 10314              		.cfi_def_cfa_offset 0
 10315 002a 7047     		bx	lr
 10316              		.cfi_endproc
 10317              	.LFE113:
 10318              		.size	TerminateTransaction, .-TerminateTransaction
 10319              		.section	.text.TerminateTransactionAndPrint,"ax",%progbits
 10320              		.align	2
 10321              		.global	TerminateTransactionAndPrint
 10322              		.thumb
 10323              		.thumb_func
 10324              		.type	TerminateTransactionAndPrint, %function
 10325              	TerminateTransactionAndPrint:
 10326              	.LFB114:
2474:.\PrimeImpl.c **** 
2475:.\PrimeImpl.c **** void TerminateTransactionAndPrint(void *pparam)
2476:.\PrimeImpl.c **** {
 10327              		.loc 1 2476 0
 10328              		.cfi_startproc
 10329              		@ args = 0, pretend = 0, frame = 16
 10330              		@ frame_needed = 1, uses_anonymous_args = 0
 10331 0000 90B5     		push	{r4, r7, lr}
 10332              		.cfi_def_cfa_offset 12
ARM GAS  C:\Users\RECEPC~1\AppData\Local\Temp\ccQD6Oev.s 			page 227


 10333              		.cfi_offset 4, -12
 10334              		.cfi_offset 7, -8
 10335              		.cfi_offset 14, -4
 10336 0002 85B0     		sub	sp, sp, #20
 10337              		.cfi_def_cfa_offset 32
 10338 0004 00AF     		add	r7, sp, #0
 10339              		.cfi_def_cfa_register 7
 10340 0006 7860     		str	r0, [r7, #4]
2477:.\PrimeImpl.c ****     PPUMPTRANSACTIONJOBCONTEXTPTR pjob = (PPUMPTRANSACTIONJOBCONTEXTPTR)pparam;
 10341              		.loc 1 2477 0
 10342 0008 7B68     		ldr	r3, [r7, #4]
 10343 000a FB60     		str	r3, [r7, #12]
2478:.\PrimeImpl.c ****     if(pjob)
 10344              		.loc 1 2478 0
 10345 000c FB68     		ldr	r3, [r7, #12]
 10346 000e 002B     		cmp	r3, #0
 10347 0010 00F0F380 		beq	.L342
2479:.\PrimeImpl.c ****     {
2480:.\PrimeImpl.c ****         pjob->_ppump->_transhealth = _PUMP_OK_;
 10348              		.loc 1 2480 0
 10349 0014 FB68     		ldr	r3, [r7, #12]
 10350 0016 DB69     		ldr	r3, [r3, #28]
 10351 0018 0122     		movs	r2, #1
 10352 001a 1A76     		strb	r2, [r3, #24]
2481:.\PrimeImpl.c ****         pjob->_ppump->_transtate = _PUMP_IDLE_;
 10353              		.loc 1 2481 0
 10354 001c FB68     		ldr	r3, [r7, #12]
 10355 001e DB69     		ldr	r3, [r3, #28]
 10356 0020 0222     		movs	r2, #2
 10357 0022 5A76     		strb	r2, [r3, #25]
2482:.\PrimeImpl.c ****         
2483:.\PrimeImpl.c ****         //If printing has been selected then post the print job
2484:.\PrimeImpl.c ****         if(pjob->_ppump->_trasactionbuffer[GetBufferIndexFromDisplayID(DISPLAY_DESEA_IMPRIMIR_RECIB
 10358              		.loc 1 2484 0
 10359 0024 FB68     		ldr	r3, [r7, #12]
 10360 0026 DC69     		ldr	r4, [r3, #28]
 10361 0028 0B20     		movs	r0, #11
 10362 002a FFF7FEFF 		bl	GetBufferIndexFromDisplayID
 10363 002e 0346     		mov	r3, r0
 10364 0030 2344     		add	r3, r3, r4
 10365 0032 93F82030 		ldrb	r3, [r3, #32]	@ zero_extendqisi2
 10366 0036 392B     		cmp	r3, #57
 10367 0038 40F0DF80 		bne	.L342
 10368              	.LBB55:
2485:.\PrimeImpl.c ****         {
2486:.\PrimeImpl.c ****             _ALLOCATE_SINKMESSAGE_SLOT(psinkmsg);
 10369              		.loc 1 2486 0
 10370 003c FFF7FEFF 		bl	AllocateMessageSlot
 10371 0040 B860     		str	r0, [r7, #8]
2487:.\PrimeImpl.c ****             if(psinkmsg)
 10372              		.loc 1 2487 0
 10373 0042 BB68     		ldr	r3, [r7, #8]
 10374 0044 002B     		cmp	r3, #0
 10375 0046 00F0D880 		beq	.L342
2488:.\PrimeImpl.c ****             {
2489:.\PrimeImpl.c ****                 switch(pjob->_ppump->_trasactionbuffer[GetBufferIndexFromDisplayID(DISPLAY_SIDE_DUM
 10376              		.loc 1 2489 0
ARM GAS  C:\Users\RECEPC~1\AppData\Local\Temp\ccQD6Oev.s 			page 228


 10377 004a FB68     		ldr	r3, [r7, #12]
 10378 004c DC69     		ldr	r4, [r3, #28]
 10379 004e FA20     		movs	r0, #250
 10380 0050 FFF7FEFF 		bl	GetBufferIndexFromDisplayID
 10381 0054 0346     		mov	r3, r0
 10382 0056 2344     		add	r3, r3, r4
 10383 0058 93F82030 		ldrb	r3, [r3, #32]	@ zero_extendqisi2
 10384 005c 002B     		cmp	r3, #0
 10385 005e 02D0     		beq	.L345
 10386 0060 012B     		cmp	r3, #1
 10387 0062 05D0     		beq	.L346
 10388 0064 09E0     		b	.L344
 10389              	.L345:
2490:.\PrimeImpl.c ****                 {
2491:.\PrimeImpl.c ****                     case DISPLAY1:
2492:.\PrimeImpl.c ****                     psinkmsg->_messageid = _g_printerlayout._printerportside1;
 10390              		.loc 1 2492 0
 10391 0066 664B     		ldr	r3, .L349
 10392 0068 1A78     		ldrb	r2, [r3]	@ zero_extendqisi2
 10393 006a BB68     		ldr	r3, [r7, #8]
 10394 006c 5A70     		strb	r2, [r3, #1]
2493:.\PrimeImpl.c ****                     break;
 10395              		.loc 1 2493 0
 10396 006e 04E0     		b	.L344
 10397              	.L346:
2494:.\PrimeImpl.c ****                     case DISPLAY2:
2495:.\PrimeImpl.c ****                     psinkmsg->_messageid = _g_printerlayout._printerportside2;
 10398              		.loc 1 2495 0
 10399 0070 634B     		ldr	r3, .L349
 10400 0072 5A78     		ldrb	r2, [r3, #1]	@ zero_extendqisi2
 10401 0074 BB68     		ldr	r3, [r7, #8]
 10402 0076 5A70     		strb	r2, [r3, #1]
2496:.\PrimeImpl.c ****                     break;
 10403              		.loc 1 2496 0
 10404 0078 00BF     		nop
 10405              	.L344:
2497:.\PrimeImpl.c ****                 }
2498:.\PrimeImpl.c ****                 psinkmsg->_messagetype = DELAYEDALLINTERESTED;
 10406              		.loc 1 2498 0
 10407 007a BB68     		ldr	r3, [r7, #8]
 10408 007c 0522     		movs	r2, #5
 10409 007e 9A70     		strb	r2, [r3, #2]
2499:.\PrimeImpl.c ****                 //Wait for 20 seconds before sending the command to the printer!
2500:.\PrimeImpl.c ****                 //This will give some time to allow the remote peer (NSX) to respond with the appro
2501:.\PrimeImpl.c ****                 if(_g_rfautorun._state == RF_AUTONOMOUS)
 10410              		.loc 1 2501 0
 10411 0080 604B     		ldr	r3, .L349+4
 10412 0082 1B78     		ldrb	r3, [r3]
 10413 0084 DBB2     		uxtb	r3, r3
 10414 0086 012B     		cmp	r3, #1
 10415 0088 04D1     		bne	.L347
2502:.\PrimeImpl.c ****                     psinkmsg->_messagedelay = _SINK_TIMEOUT_1S_;
 10416              		.loc 1 2502 0
 10417 008a BB68     		ldr	r3, [r7, #8]
 10418 008c 4FF47A72 		mov	r2, #1000
 10419 0090 9A80     		strh	r2, [r3, #4]	@ movhi
 10420 0092 03E0     		b	.L348
ARM GAS  C:\Users\RECEPC~1\AppData\Local\Temp\ccQD6Oev.s 			page 229


 10421              	.L347:
2503:.\PrimeImpl.c ****                 else
2504:.\PrimeImpl.c ****                     psinkmsg->_messagedelay = _SINK_TIMEOUT_30S_;
 10422              		.loc 1 2504 0
 10423 0094 BB68     		ldr	r3, [r7, #8]
 10424 0096 47F23052 		movw	r2, #30000
 10425 009a 9A80     		strh	r2, [r3, #4]	@ movhi
 10426              	.L348:
2505:.\PrimeImpl.c ****                 
2506:.\PrimeImpl.c ****                 //PUMP POSITION GOES IN THE ARRAY INDEX 0X00 (SEE THE FILE "PRINTERBLL.C")
2507:.\PrimeImpl.c ****                 psinkmsg->_buffer[0x00] = pjob->_ppump->_pumpid;
 10427              		.loc 1 2507 0
 10428 009c FB68     		ldr	r3, [r7, #12]
 10429 009e DB69     		ldr	r3, [r3, #28]
 10430 00a0 1A78     		ldrb	r2, [r3]	@ zero_extendqisi2
 10431 00a2 BB68     		ldr	r3, [r7, #8]
 10432 00a4 1A73     		strb	r2, [r3, #12]
2508:.\PrimeImpl.c ****                 //PUMP HOSE TO SELECT THE PRODUCT NAME
2509:.\PrimeImpl.c ****                 psinkmsg->_buffer[0x01] = pjob->_ppump->_authorizationinfo._hoseid;
 10433              		.loc 1 2509 0
 10434 00a6 FB68     		ldr	r3, [r7, #12]
 10435 00a8 DB69     		ldr	r3, [r3, #28]
 10436 00aa 93F87A3B 		ldrb	r3, [r3, #2938]
 10437 00ae DAB2     		uxtb	r2, r3
 10438 00b0 BB68     		ldr	r3, [r7, #8]
 10439 00b2 5A73     		strb	r2, [r3, #13]
2510:.\PrimeImpl.c ****                 psinkmsg->_buffer[0x02] = 0x06;//Six bytes for the price (PPU)
 10440              		.loc 1 2510 0
 10441 00b4 BB68     		ldr	r3, [r7, #8]
 10442 00b6 0622     		movs	r2, #6
 10443 00b8 9A73     		strb	r2, [r3, #14]
2511:.\PrimeImpl.c ****                 memset(&psinkmsg->_buffer[0x03], 0x00, 0x08);
 10444              		.loc 1 2511 0
 10445 00ba BB68     		ldr	r3, [r7, #8]
 10446 00bc 0F33     		adds	r3, r3, #15
 10447 00be 1846     		mov	r0, r3
 10448 00c0 0021     		movs	r1, #0
 10449 00c2 0822     		movs	r2, #8
 10450 00c4 FFF7FEFF 		bl	memset
2512:.\PrimeImpl.c ****                 B78AD90CF552D9B30A(pjob->_ppump->_authorizationinfo._price, PBYTECAST(&psinkmsg->_b
 10451              		.loc 1 2512 0
 10452 00c8 FB68     		ldr	r3, [r7, #12]
 10453 00ca DB69     		ldr	r3, [r3, #28]
 10454 00cc B3F87C3B 		ldrh	r3, [r3, #2940]	@ movhi
 10455 00d0 9BB2     		uxth	r3, r3
 10456 00d2 9AB2     		uxth	r2, r3
 10457 00d4 4FF00003 		mov	r3, #0
 10458 00d8 B968     		ldr	r1, [r7, #8]
 10459 00da 01F10F04 		add	r4, r1, #15
 10460 00de 1046     		mov	r0, r2
 10461 00e0 1946     		mov	r1, r3
 10462 00e2 2246     		mov	r2, r4
 10463 00e4 FFF7FEFF 		bl	B78AD90CF552D9B30A
2513:.\PrimeImpl.c ****                 psinkmsg->_buffer[0x09] = 0x08;//Eight bytes for the Volume
 10464              		.loc 1 2513 0
 10465 00e8 BB68     		ldr	r3, [r7, #8]
 10466 00ea 0822     		movs	r2, #8
ARM GAS  C:\Users\RECEPC~1\AppData\Local\Temp\ccQD6Oev.s 			page 230


 10467 00ec 5A75     		strb	r2, [r3, #21]
2514:.\PrimeImpl.c ****                 memset(&psinkmsg->_buffer[0x0A], 0x00, 0x08);
 10468              		.loc 1 2514 0
 10469 00ee BB68     		ldr	r3, [r7, #8]
 10470 00f0 1633     		adds	r3, r3, #22
 10471 00f2 1846     		mov	r0, r3
 10472 00f4 0021     		movs	r1, #0
 10473 00f6 0822     		movs	r2, #8
 10474 00f8 FFF7FEFF 		bl	memset
2515:.\PrimeImpl.c ****                 B78AD90CF552D9B30A(pjob->_ppump->_authorizationinfo._volumeamount, PBYTECAST(&psink
 10475              		.loc 1 2515 0
 10476 00fc FB68     		ldr	r3, [r7, #12]
 10477 00fe DB69     		ldr	r3, [r3, #28]
 10478 0100 D3F8843B 		ldr	r3, [r3, #2948]
 10479 0104 1A46     		mov	r2, r3
 10480 0106 4FF00003 		mov	r3, #0
 10481 010a B968     		ldr	r1, [r7, #8]
 10482 010c 01F11604 		add	r4, r1, #22
 10483 0110 1046     		mov	r0, r2
 10484 0112 1946     		mov	r1, r3
 10485 0114 2246     		mov	r2, r4
 10486 0116 FFF7FEFF 		bl	B78AD90CF552D9B30A
2516:.\PrimeImpl.c ****                 psinkmsg->_buffer[0x12] = 0x08;//Eight bytes for the Preset
 10487              		.loc 1 2516 0
 10488 011a BB68     		ldr	r3, [r7, #8]
 10489 011c 0822     		movs	r2, #8
 10490 011e 9A77     		strb	r2, [r3, #30]
2517:.\PrimeImpl.c ****                 memset(&psinkmsg->_buffer[0x13], 0x00, 0x08);
 10491              		.loc 1 2517 0
 10492 0120 BB68     		ldr	r3, [r7, #8]
 10493 0122 1F33     		adds	r3, r3, #31
 10494 0124 1846     		mov	r0, r3
 10495 0126 0021     		movs	r1, #0
 10496 0128 0822     		movs	r2, #8
 10497 012a FFF7FEFF 		bl	memset
2518:.\PrimeImpl.c ****                 B78AD90CF552D9B30A(pjob->_ppump->_authorizationinfo._presetamount, PBYTECAST(&psink
 10498              		.loc 1 2518 0
 10499 012e FB68     		ldr	r3, [r7, #12]
 10500 0130 DB69     		ldr	r3, [r3, #28]
 10501 0132 D3F8803B 		ldr	r3, [r3, #2944]
 10502 0136 1A46     		mov	r2, r3
 10503 0138 4FF00003 		mov	r3, #0
 10504 013c B968     		ldr	r1, [r7, #8]
 10505 013e 01F11F04 		add	r4, r1, #31
 10506 0142 1046     		mov	r0, r2
 10507 0144 1946     		mov	r1, r3
 10508 0146 2246     		mov	r2, r4
 10509 0148 FFF7FEFF 		bl	B78AD90CF552D9B30A
2519:.\PrimeImpl.c ****                 
2520:.\PrimeImpl.c ****                 //This is the transaction type (Cash: 0x0D / Credit: 0x0E). See the documentation t
2521:.\PrimeImpl.c ****                 psinkmsg->_buffer[0x1B] = pjob->_ppump->_trasactionbuffer[GetBufferIndexFromDisplay
 10510              		.loc 1 2521 0
 10511 014c FB68     		ldr	r3, [r7, #12]
 10512 014e DC69     		ldr	r4, [r3, #28]
 10513 0150 0420     		movs	r0, #4
 10514 0152 FFF7FEFF 		bl	GetBufferIndexFromDisplayID
 10515 0156 0346     		mov	r3, r0
ARM GAS  C:\Users\RECEPC~1\AppData\Local\Temp\ccQD6Oev.s 			page 231


 10516 0158 2344     		add	r3, r3, r4
 10517 015a 93F82020 		ldrb	r2, [r3, #32]	@ zero_extendqisi2
 10518 015e BB68     		ldr	r3, [r7, #8]
 10519 0160 83F82720 		strb	r2, [r3, #39]
2522:.\PrimeImpl.c ****                 
2523:.\PrimeImpl.c ****                 //This means "N/A". This will be printed once the timeout has expired and no invoic
2524:.\PrimeImpl.c ****                 //has been received
2525:.\PrimeImpl.c ****                 psinkmsg->_buffer[0x20] = 0x4E;
 10520              		.loc 1 2525 0
 10521 0164 BB68     		ldr	r3, [r7, #8]
 10522 0166 4E22     		movs	r2, #78
 10523 0168 83F82C20 		strb	r2, [r3, #44]
2526:.\PrimeImpl.c ****                 psinkmsg->_buffer[0x21] = 0x2F;
 10524              		.loc 1 2526 0
 10525 016c BB68     		ldr	r3, [r7, #8]
 10526 016e 2F22     		movs	r2, #47
 10527 0170 83F82D20 		strb	r2, [r3, #45]
2527:.\PrimeImpl.c ****                 psinkmsg->_buffer[0x22] = 0x41;
 10528              		.loc 1 2527 0
 10529 0174 BB68     		ldr	r3, [r7, #8]
 10530 0176 4122     		movs	r2, #65
 10531 0178 83F82E20 		strb	r2, [r3, #46]
2528:.\PrimeImpl.c ****                 //Car's plate
2529:.\PrimeImpl.c ****                 psinkmsg->_buffer[0x2A] = 0x4E;
 10532              		.loc 1 2529 0
 10533 017c BB68     		ldr	r3, [r7, #8]
 10534 017e 4E22     		movs	r2, #78
 10535 0180 83F83620 		strb	r2, [r3, #54]
2530:.\PrimeImpl.c ****                 psinkmsg->_buffer[0x2B] = 0x2F;
 10536              		.loc 1 2530 0
 10537 0184 BB68     		ldr	r3, [r7, #8]
 10538 0186 2F22     		movs	r2, #47
 10539 0188 83F83720 		strb	r2, [r3, #55]
2531:.\PrimeImpl.c ****                 psinkmsg->_buffer[0x2C] = 0x41;
 10540              		.loc 1 2531 0
 10541 018c BB68     		ldr	r3, [r7, #8]
 10542 018e 4122     		movs	r2, #65
 10543 0190 83F83820 		strb	r2, [r3, #56]
2532:.\PrimeImpl.c ****                 //Balance
2533:.\PrimeImpl.c ****                 psinkmsg->_buffer[0x32] = 0x4E;
 10544              		.loc 1 2533 0
 10545 0194 BB68     		ldr	r3, [r7, #8]
 10546 0196 4E22     		movs	r2, #78
 10547 0198 83F83E20 		strb	r2, [r3, #62]
2534:.\PrimeImpl.c ****                 psinkmsg->_buffer[0x33] = 0x2F;
 10548              		.loc 1 2534 0
 10549 019c BB68     		ldr	r3, [r7, #8]
 10550 019e 2F22     		movs	r2, #47
 10551 01a0 83F83F20 		strb	r2, [r3, #63]
2535:.\PrimeImpl.c ****                 psinkmsg->_buffer[0x34] = 0x41;
 10552              		.loc 1 2535 0
 10553 01a4 BB68     		ldr	r3, [r7, #8]
 10554 01a6 4122     		movs	r2, #65
 10555 01a8 83F84020 		strb	r2, [r3, #64]
2536:.\PrimeImpl.c ****                 //Company
2537:.\PrimeImpl.c ****                 psinkmsg->_buffer[0x3C] = 0x4E;
 10556              		.loc 1 2537 0
ARM GAS  C:\Users\RECEPC~1\AppData\Local\Temp\ccQD6Oev.s 			page 232


 10557 01ac BB68     		ldr	r3, [r7, #8]
 10558 01ae 4E22     		movs	r2, #78
 10559 01b0 83F84820 		strb	r2, [r3, #72]
2538:.\PrimeImpl.c ****                 psinkmsg->_buffer[0x3D] = 0x2F;
 10560              		.loc 1 2538 0
 10561 01b4 BB68     		ldr	r3, [r7, #8]
 10562 01b6 2F22     		movs	r2, #47
 10563 01b8 83F84920 		strb	r2, [r3, #73]
2539:.\PrimeImpl.c ****                 psinkmsg->_buffer[0x3E] = 0x41;
 10564              		.loc 1 2539 0
 10565 01bc BB68     		ldr	r3, [r7, #8]
 10566 01be 4122     		movs	r2, #65
 10567 01c0 83F84A20 		strb	r2, [r3, #74]
2540:.\PrimeImpl.c ****                 //Account Name
2541:.\PrimeImpl.c ****                 psinkmsg->_buffer[0x50] = 0x4E;
 10568              		.loc 1 2541 0
 10569 01c4 BB68     		ldr	r3, [r7, #8]
 10570 01c6 4E22     		movs	r2, #78
 10571 01c8 83F85C20 		strb	r2, [r3, #92]
2542:.\PrimeImpl.c ****                 psinkmsg->_buffer[0x51] = 0x2F;
 10572              		.loc 1 2542 0
 10573 01cc BB68     		ldr	r3, [r7, #8]
 10574 01ce 2F22     		movs	r2, #47
 10575 01d0 83F85D20 		strb	r2, [r3, #93]
2543:.\PrimeImpl.c ****                 psinkmsg->_buffer[0x52] = 0x41;
 10576              		.loc 1 2543 0
 10577 01d4 BB68     		ldr	r3, [r7, #8]
 10578 01d6 4122     		movs	r2, #65
 10579 01d8 83F85E20 		strb	r2, [r3, #94]
2544:.\PrimeImpl.c ****                 //Daily Visits
2545:.\PrimeImpl.c ****                 psinkmsg->_buffer[0x64] = 0x00;
 10580              		.loc 1 2545 0
 10581 01dc BB68     		ldr	r3, [r7, #8]
 10582 01de 0022     		movs	r2, #0
 10583 01e0 83F87020 		strb	r2, [r3, #112]
2546:.\PrimeImpl.c ****                 //Weekly Visits
2547:.\PrimeImpl.c ****                 psinkmsg->_buffer[0x65] = 0x00;
 10584              		.loc 1 2547 0
 10585 01e4 BB68     		ldr	r3, [r7, #8]
 10586 01e6 0022     		movs	r2, #0
 10587 01e8 83F87120 		strb	r2, [r3, #113]
2548:.\PrimeImpl.c ****                 //Monthly Visits
2549:.\PrimeImpl.c ****                 psinkmsg->_buffer[0x66] = 0x00;
 10588              		.loc 1 2549 0
 10589 01ec BB68     		ldr	r3, [r7, #8]
 10590 01ee 0022     		movs	r2, #0
 10591 01f0 83F87220 		strb	r2, [r3, #114]
2550:.\PrimeImpl.c **** 
2551:.\PrimeImpl.c ****                 psinkmsg->_messagestate = SINK_BUSY;
 10592              		.loc 1 2551 0
 10593 01f4 BB68     		ldr	r3, [r7, #8]
 10594 01f6 0322     		movs	r2, #3
 10595 01f8 DA70     		strb	r2, [r3, #3]
 10596              	.L342:
 10597              	.LBE55:
2552:.\PrimeImpl.c ****             }    
2553:.\PrimeImpl.c ****         }
ARM GAS  C:\Users\RECEPC~1\AppData\Local\Temp\ccQD6Oev.s 			page 233


2554:.\PrimeImpl.c ****     }
2555:.\PrimeImpl.c **** }
 10598              		.loc 1 2555 0
 10599 01fa 1437     		adds	r7, r7, #20
 10600              		.cfi_def_cfa_offset 12
 10601 01fc BD46     		mov	sp, r7
 10602              		.cfi_def_cfa_register 13
 10603              		@ sp needed
 10604 01fe 90BD     		pop	{r4, r7, pc}
 10605              	.L350:
 10606              		.align	2
 10607              	.L349:
 10608 0200 00000000 		.word	_g_printerlayout
 10609 0204 00000000 		.word	_g_rfautorun
 10610              		.cfi_endproc
 10611              	.LFE114:
 10612              		.size	TerminateTransactionAndPrint, .-TerminateTransactionAndPrint
 10613              		.section	.text.CastVolumeValue,"ax",%progbits
 10614              		.align	2
 10615              		.global	CastVolumeValue
 10616              		.thumb
 10617              		.thumb_func
 10618              		.type	CastVolumeValue, %function
 10619              	CastVolumeValue:
 10620              	.LFB115:
2556:.\PrimeImpl.c **** 
2557:.\PrimeImpl.c **** //@Created by: HIJH
2558:.\PrimeImpl.c **** //@Date: Septembre de 2016
2559:.\PrimeImpl.c **** //This method arranges the PRESET buffer when this is a "Volume PRESET".
2560:.\PrimeImpl.c **** //Volume PRESETS must be multiplied by 1000
2561:.\PrimeImpl.c **** void CastVolumeValue(char8 *pbuffer, uint8 buffersize)
2562:.\PrimeImpl.c **** {
 10621              		.loc 1 2562 0
 10622              		.cfi_startproc
 10623              		@ args = 0, pretend = 0, frame = 16
 10624              		@ frame_needed = 1, uses_anonymous_args = 0
 10625              		@ link register save eliminated.
 10626 0000 80B4     		push	{r7}
 10627              		.cfi_def_cfa_offset 4
 10628              		.cfi_offset 7, -4
 10629 0002 85B0     		sub	sp, sp, #20
 10630              		.cfi_def_cfa_offset 24
 10631 0004 00AF     		add	r7, sp, #0
 10632              		.cfi_def_cfa_register 7
 10633 0006 7860     		str	r0, [r7, #4]
 10634 0008 0B46     		mov	r3, r1
 10635 000a FB70     		strb	r3, [r7, #3]
2563:.\PrimeImpl.c ****     uint8 delimiterindex = 0x00;
 10636              		.loc 1 2563 0
 10637 000c 0023     		movs	r3, #0
 10638 000e FB73     		strb	r3, [r7, #15]
2564:.\PrimeImpl.c ****     bool shiftbydelimiter = false;
 10639              		.loc 1 2564 0
 10640 0010 0023     		movs	r3, #0
 10641 0012 BB73     		strb	r3, [r7, #14]
2565:.\PrimeImpl.c ****     //If there is a "Comma" inside of the buffer, then just remove it before and count this for the
2566:.\PrimeImpl.c ****     FOR(int8 index = (buffersize - 1), index > 0, index--)
ARM GAS  C:\Users\RECEPC~1\AppData\Local\Temp\ccQD6Oev.s 			page 234


 10642              		.loc 1 2566 0
 10643 0014 FB78     		ldrb	r3, [r7, #3]
 10644 0016 013B     		subs	r3, r3, #1
 10645 0018 DBB2     		uxtb	r3, r3
 10646 001a 7B73     		strb	r3, [r7, #13]
 10647 001c 2CE0     		b	.L352
 10648              	.L356:
2567:.\PrimeImpl.c ****     {
2568:.\PrimeImpl.c ****         if(pbuffer[index] == 0x2C && !shiftbydelimiter)
 10649              		.loc 1 2568 0
 10650 001e 97F90D30 		ldrsb	r3, [r7, #13]
 10651 0022 7A68     		ldr	r2, [r7, #4]
 10652 0024 1344     		add	r3, r3, r2
 10653 0026 1B78     		ldrb	r3, [r3]	@ zero_extendqisi2
 10654 0028 2C2B     		cmp	r3, #44
 10655 002a 07D1     		bne	.L353
 10656              		.loc 1 2568 0 is_stmt 0 discriminator 1
 10657 002c BB7B     		ldrb	r3, [r7, #14]
 10658 002e 83F00103 		eor	r3, r3, #1
 10659 0032 DBB2     		uxtb	r3, r3
 10660 0034 002B     		cmp	r3, #0
 10661 0036 01D0     		beq	.L353
2569:.\PrimeImpl.c ****             shiftbydelimiter = true;
 10662              		.loc 1 2569 0 is_stmt 1
 10663 0038 0123     		movs	r3, #1
 10664 003a BB73     		strb	r3, [r7, #14]
 10665              	.L353:
2570:.\PrimeImpl.c **** 
2571:.\PrimeImpl.c ****         if(shiftbydelimiter)
 10666              		.loc 1 2571 0
 10667 003c BB7B     		ldrb	r3, [r7, #14]	@ zero_extendqisi2
 10668 003e 002B     		cmp	r3, #0
 10669 0040 12D0     		beq	.L354
2572:.\PrimeImpl.c ****         {
2573:.\PrimeImpl.c ****             pbuffer[index] = pbuffer[index - 1];
 10670              		.loc 1 2573 0
 10671 0042 97F90D30 		ldrsb	r3, [r7, #13]
 10672 0046 7A68     		ldr	r2, [r7, #4]
 10673 0048 1344     		add	r3, r3, r2
 10674 004a 97F90D20 		ldrsb	r2, [r7, #13]
 10675 004e 013A     		subs	r2, r2, #1
 10676 0050 7968     		ldr	r1, [r7, #4]
 10677 0052 0A44     		add	r2, r2, r1
 10678 0054 1278     		ldrb	r2, [r2]	@ zero_extendqisi2
 10679 0056 1A70     		strb	r2, [r3]
2574:.\PrimeImpl.c ****             pbuffer[index - 1] = 0x00;
 10680              		.loc 1 2574 0
 10681 0058 97F90D30 		ldrsb	r3, [r7, #13]
 10682 005c 013B     		subs	r3, r3, #1
 10683 005e 7A68     		ldr	r2, [r7, #4]
 10684 0060 1344     		add	r3, r3, r2
 10685 0062 0022     		movs	r2, #0
 10686 0064 1A70     		strb	r2, [r3]
 10687 0066 02E0     		b	.L355
 10688              	.L354:
2575:.\PrimeImpl.c ****         }else
2576:.\PrimeImpl.c ****             delimiterindex++;
ARM GAS  C:\Users\RECEPC~1\AppData\Local\Temp\ccQD6Oev.s 			page 235


 10689              		.loc 1 2576 0
 10690 0068 FB7B     		ldrb	r3, [r7, #15]	@ zero_extendqisi2
 10691 006a 0133     		adds	r3, r3, #1
 10692 006c FB73     		strb	r3, [r7, #15]
 10693              	.L355:
2566:.\PrimeImpl.c ****     {
 10694              		.loc 1 2566 0 discriminator 2
 10695 006e 7B7B     		ldrb	r3, [r7, #13]	@ zero_extendqisi2
 10696 0070 DBB2     		uxtb	r3, r3
 10697 0072 013B     		subs	r3, r3, #1
 10698 0074 DBB2     		uxtb	r3, r3
 10699 0076 7B73     		strb	r3, [r7, #13]
 10700              	.L352:
2566:.\PrimeImpl.c ****     {
 10701              		.loc 1 2566 0 is_stmt 0 discriminator 1
 10702 0078 97F90D30 		ldrsb	r3, [r7, #13]
 10703 007c 002B     		cmp	r3, #0
 10704 007e CEDC     		bgt	.L356
2577:.\PrimeImpl.c ****         
2578:.\PrimeImpl.c ****     }
2579:.\PrimeImpl.c ****     if(!shiftbydelimiter)
 10705              		.loc 1 2579 0 is_stmt 1
 10706 0080 BB7B     		ldrb	r3, [r7, #14]
 10707 0082 83F00103 		eor	r3, r3, #1
 10708 0086 DBB2     		uxtb	r3, r3
 10709 0088 002B     		cmp	r3, #0
 10710 008a 01D0     		beq	.L357
2580:.\PrimeImpl.c ****         delimiterindex = 0x00;
 10711              		.loc 1 2580 0
 10712 008c 0023     		movs	r3, #0
 10713 008e FB73     		strb	r3, [r7, #15]
 10714              	.L357:
2581:.\PrimeImpl.c ****     
2582:.\PrimeImpl.c ****     int8 shiftcount = (delimiterindex - _g_dispenserlayoutinfo._volumedecimals);
 10715              		.loc 1 2582 0
 10716 0090 334B     		ldr	r3, .L368
 10717 0092 5B7A     		ldrb	r3, [r3, #9]	@ zero_extendqisi2
 10718 0094 FA7B     		ldrb	r2, [r7, #15]
 10719 0096 D31A     		subs	r3, r2, r3
 10720 0098 DBB2     		uxtb	r3, r3
 10721 009a 3B73     		strb	r3, [r7, #12]
2583:.\PrimeImpl.c ****     //8 is the size of the allocated buffer space for the preset values according to the protocol.
2584:.\PrimeImpl.c ****     //The real buffer size allocated from the display side is 16 bytes. The buffer will be cast fro
2585:.\PrimeImpl.c ****     //the end to the beginning, so the startup index has been calculated "explicitly", this is (8 -
2586:.\PrimeImpl.c ****     //To multiply by 1000 we need to shift the entire buffer three bytes to shift the comma, so we
2587:.\PrimeImpl.c ****     //will subtract 3 bytes to the starting position in order to make the shifting.
2588:.\PrimeImpl.c ****     if(shiftcount > 0)
 10722              		.loc 1 2588 0
 10723 009c 97F90C30 		ldrsb	r3, [r7, #12]
 10724 00a0 002B     		cmp	r3, #0
 10725 00a2 29DD     		ble	.L358
2589:.\PrimeImpl.c ****     {
2590:.\PrimeImpl.c ****         while(shiftcount > 0)
 10726              		.loc 1 2590 0
 10727 00a4 23E0     		b	.L359
 10728              	.L362:
2591:.\PrimeImpl.c ****         {
ARM GAS  C:\Users\RECEPC~1\AppData\Local\Temp\ccQD6Oev.s 			page 236


2592:.\PrimeImpl.c ****             FOR(index = (buffersize - 1), index > 0, index--)
 10729              		.loc 1 2592 0
 10730 00a6 FB78     		ldrb	r3, [r7, #3]
 10731 00a8 013B     		subs	r3, r3, #1
 10732 00aa DBB2     		uxtb	r3, r3
 10733 00ac 7B73     		strb	r3, [r7, #13]
 10734 00ae 15E0     		b	.L360
 10735              	.L361:
2593:.\PrimeImpl.c ****             {
2594:.\PrimeImpl.c ****                 pbuffer[index] = pbuffer[index - 1];
 10736              		.loc 1 2594 0 discriminator 3
 10737 00b0 97F90D30 		ldrsb	r3, [r7, #13]
 10738 00b4 7A68     		ldr	r2, [r7, #4]
 10739 00b6 1344     		add	r3, r3, r2
 10740 00b8 97F90D20 		ldrsb	r2, [r7, #13]
 10741 00bc 013A     		subs	r2, r2, #1
 10742 00be 7968     		ldr	r1, [r7, #4]
 10743 00c0 0A44     		add	r2, r2, r1
 10744 00c2 1278     		ldrb	r2, [r2]	@ zero_extendqisi2
 10745 00c4 1A70     		strb	r2, [r3]
2595:.\PrimeImpl.c ****                 pbuffer[index] = 0x00;
 10746              		.loc 1 2595 0 discriminator 3
 10747 00c6 97F90D30 		ldrsb	r3, [r7, #13]
 10748 00ca 7A68     		ldr	r2, [r7, #4]
 10749 00cc 1344     		add	r3, r3, r2
 10750 00ce 0022     		movs	r2, #0
 10751 00d0 1A70     		strb	r2, [r3]
2592:.\PrimeImpl.c ****             {
 10752              		.loc 1 2592 0 discriminator 3
 10753 00d2 7B7B     		ldrb	r3, [r7, #13]	@ zero_extendqisi2
 10754 00d4 DBB2     		uxtb	r3, r3
 10755 00d6 013B     		subs	r3, r3, #1
 10756 00d8 DBB2     		uxtb	r3, r3
 10757 00da 7B73     		strb	r3, [r7, #13]
 10758              	.L360:
2592:.\PrimeImpl.c ****             {
 10759              		.loc 1 2592 0 is_stmt 0 discriminator 1
 10760 00dc 97F90D30 		ldrsb	r3, [r7, #13]
 10761 00e0 002B     		cmp	r3, #0
 10762 00e2 E5DC     		bgt	.L361
2596:.\PrimeImpl.c ****             }
2597:.\PrimeImpl.c ****             shiftcount--;
 10763              		.loc 1 2597 0 is_stmt 1
 10764 00e4 3B7B     		ldrb	r3, [r7, #12]	@ zero_extendqisi2
 10765 00e6 DBB2     		uxtb	r3, r3
 10766 00e8 013B     		subs	r3, r3, #1
 10767 00ea DBB2     		uxtb	r3, r3
 10768 00ec 3B73     		strb	r3, [r7, #12]
 10769              	.L359:
2590:.\PrimeImpl.c ****         {
 10770              		.loc 1 2590 0
 10771 00ee 97F90C30 		ldrsb	r3, [r7, #12]
 10772 00f2 002B     		cmp	r3, #0
 10773 00f4 D7DC     		bgt	.L362
 10774 00f6 2DE0     		b	.L351
 10775              	.L358:
2598:.\PrimeImpl.c ****         }
ARM GAS  C:\Users\RECEPC~1\AppData\Local\Temp\ccQD6Oev.s 			page 237


2599:.\PrimeImpl.c ****     }
2600:.\PrimeImpl.c ****     else if(shiftcount < 0)
 10776              		.loc 1 2600 0
 10777 00f8 97F90C30 		ldrsb	r3, [r7, #12]
 10778 00fc 002B     		cmp	r3, #0
 10779 00fe 29DA     		bge	.L351
2601:.\PrimeImpl.c ****     {
2602:.\PrimeImpl.c ****         while(shiftcount < 0)
 10780              		.loc 1 2602 0
 10781 0100 24E0     		b	.L364
 10782              	.L367:
2603:.\PrimeImpl.c ****         {
2604:.\PrimeImpl.c ****             FOR(index = 0, index < (buffersize  - 1), index++)
 10783              		.loc 1 2604 0
 10784 0102 0023     		movs	r3, #0
 10785 0104 7B73     		strb	r3, [r7, #13]
 10786 0106 16E0     		b	.L365
 10787              	.L366:
2605:.\PrimeImpl.c ****             {
2606:.\PrimeImpl.c ****                 pbuffer[index] = pbuffer[index + 1];
 10788              		.loc 1 2606 0 discriminator 3
 10789 0108 97F90D30 		ldrsb	r3, [r7, #13]
 10790 010c 7A68     		ldr	r2, [r7, #4]
 10791 010e 1344     		add	r3, r3, r2
 10792 0110 97F90D20 		ldrsb	r2, [r7, #13]
 10793 0114 0132     		adds	r2, r2, #1
 10794 0116 7968     		ldr	r1, [r7, #4]
 10795 0118 0A44     		add	r2, r2, r1
 10796 011a 1278     		ldrb	r2, [r2]	@ zero_extendqisi2
 10797 011c 1A70     		strb	r2, [r3]
2607:.\PrimeImpl.c ****                 pbuffer[index + 1] = 0x30;
 10798              		.loc 1 2607 0 discriminator 3
 10799 011e 97F90D30 		ldrsb	r3, [r7, #13]
 10800 0122 0133     		adds	r3, r3, #1
 10801 0124 7A68     		ldr	r2, [r7, #4]
 10802 0126 1344     		add	r3, r3, r2
 10803 0128 3022     		movs	r2, #48
 10804 012a 1A70     		strb	r2, [r3]
2604:.\PrimeImpl.c ****             {
 10805              		.loc 1 2604 0 discriminator 3
 10806 012c 7B7B     		ldrb	r3, [r7, #13]	@ zero_extendqisi2
 10807 012e DBB2     		uxtb	r3, r3
 10808 0130 0133     		adds	r3, r3, #1
 10809 0132 DBB2     		uxtb	r3, r3
 10810 0134 7B73     		strb	r3, [r7, #13]
 10811              	.L365:
2604:.\PrimeImpl.c ****             {
 10812              		.loc 1 2604 0 is_stmt 0 discriminator 1
 10813 0136 97F90D20 		ldrsb	r2, [r7, #13]
 10814 013a FB78     		ldrb	r3, [r7, #3]	@ zero_extendqisi2
 10815 013c 013B     		subs	r3, r3, #1
 10816 013e 9A42     		cmp	r2, r3
 10817 0140 E2DB     		blt	.L366
2608:.\PrimeImpl.c ****             }
2609:.\PrimeImpl.c ****             shiftcount++;
 10818              		.loc 1 2609 0 is_stmt 1
 10819 0142 3B7B     		ldrb	r3, [r7, #12]	@ zero_extendqisi2
ARM GAS  C:\Users\RECEPC~1\AppData\Local\Temp\ccQD6Oev.s 			page 238


 10820 0144 DBB2     		uxtb	r3, r3
 10821 0146 0133     		adds	r3, r3, #1
 10822 0148 DBB2     		uxtb	r3, r3
 10823 014a 3B73     		strb	r3, [r7, #12]
 10824              	.L364:
2602:.\PrimeImpl.c ****         {
 10825              		.loc 1 2602 0
 10826 014c 97F90C30 		ldrsb	r3, [r7, #12]
 10827 0150 002B     		cmp	r3, #0
 10828 0152 D6DB     		blt	.L367
 10829              	.L351:
2610:.\PrimeImpl.c ****         }
2611:.\PrimeImpl.c ****     }
2612:.\PrimeImpl.c **** }
 10830              		.loc 1 2612 0
 10831 0154 1437     		adds	r7, r7, #20
 10832              		.cfi_def_cfa_offset 4
 10833 0156 BD46     		mov	sp, r7
 10834              		.cfi_def_cfa_register 13
 10835              		@ sp needed
 10836 0158 5DF8047B 		ldr	r7, [sp], #4
 10837              		.cfi_restore 7
 10838              		.cfi_def_cfa_offset 0
 10839 015c 7047     		bx	lr
 10840              	.L369:
 10841 015e 00BF     		.align	2
 10842              	.L368:
 10843 0160 00000000 		.word	_g_dispenserlayoutinfo
 10844              		.cfi_endproc
 10845              	.LFE115:
 10846              		.size	CastVolumeValue, .-CastVolumeValue
 10847              		.section	.text.CastMoneyValue,"ax",%progbits
 10848              		.align	2
 10849              		.global	CastMoneyValue
 10850              		.thumb
 10851              		.thumb_func
 10852              		.type	CastMoneyValue, %function
 10853              	CastMoneyValue:
 10854              	.LFB116:
2613:.\PrimeImpl.c **** 
2614:.\PrimeImpl.c **** //@Created by: HIJH
2615:.\PrimeImpl.c **** //@Date: Septembre de 2016
2616:.\PrimeImpl.c **** //This method arranges the PRESET buffer when this is a "Money PRESET".
2617:.\PrimeImpl.c **** void CastMoneyValue(char8 *pbuffer, uint8 buffersize)
2618:.\PrimeImpl.c **** {
 10855              		.loc 1 2618 0
 10856              		.cfi_startproc
 10857              		@ args = 0, pretend = 0, frame = 16
 10858              		@ frame_needed = 1, uses_anonymous_args = 0
 10859              		@ link register save eliminated.
 10860 0000 80B4     		push	{r7}
 10861              		.cfi_def_cfa_offset 4
 10862              		.cfi_offset 7, -4
 10863 0002 85B0     		sub	sp, sp, #20
 10864              		.cfi_def_cfa_offset 24
 10865 0004 00AF     		add	r7, sp, #0
 10866              		.cfi_def_cfa_register 7
ARM GAS  C:\Users\RECEPC~1\AppData\Local\Temp\ccQD6Oev.s 			page 239


 10867 0006 7860     		str	r0, [r7, #4]
 10868 0008 0B46     		mov	r3, r1
 10869 000a FB70     		strb	r3, [r7, #3]
2619:.\PrimeImpl.c ****     uint8 delimiterindex = 0x00;
 10870              		.loc 1 2619 0
 10871 000c 0023     		movs	r3, #0
 10872 000e FB73     		strb	r3, [r7, #15]
2620:.\PrimeImpl.c ****     bool shiftbydelimiter = false;
 10873              		.loc 1 2620 0
 10874 0010 0023     		movs	r3, #0
 10875 0012 BB73     		strb	r3, [r7, #14]
2621:.\PrimeImpl.c ****     //If there is a "Comma" inside of the buffer, then just remove it before and count this for the
2622:.\PrimeImpl.c ****     FOR(int8 index = (buffersize - 1), index > 0, index--)
 10876              		.loc 1 2622 0
 10877 0014 FB78     		ldrb	r3, [r7, #3]
 10878 0016 013B     		subs	r3, r3, #1
 10879 0018 DBB2     		uxtb	r3, r3
 10880 001a 7B73     		strb	r3, [r7, #13]
 10881 001c 2CE0     		b	.L371
 10882              	.L375:
2623:.\PrimeImpl.c ****     {
2624:.\PrimeImpl.c ****         if(pbuffer[index] == 0x2C && !shiftbydelimiter)
 10883              		.loc 1 2624 0
 10884 001e 97F90D30 		ldrsb	r3, [r7, #13]
 10885 0022 7A68     		ldr	r2, [r7, #4]
 10886 0024 1344     		add	r3, r3, r2
 10887 0026 1B78     		ldrb	r3, [r3]	@ zero_extendqisi2
 10888 0028 2C2B     		cmp	r3, #44
 10889 002a 07D1     		bne	.L372
 10890              		.loc 1 2624 0 is_stmt 0 discriminator 1
 10891 002c BB7B     		ldrb	r3, [r7, #14]
 10892 002e 83F00103 		eor	r3, r3, #1
 10893 0032 DBB2     		uxtb	r3, r3
 10894 0034 002B     		cmp	r3, #0
 10895 0036 01D0     		beq	.L372
2625:.\PrimeImpl.c ****             shiftbydelimiter = true;
 10896              		.loc 1 2625 0 is_stmt 1
 10897 0038 0123     		movs	r3, #1
 10898 003a BB73     		strb	r3, [r7, #14]
 10899              	.L372:
2626:.\PrimeImpl.c **** 
2627:.\PrimeImpl.c ****         if(shiftbydelimiter)
 10900              		.loc 1 2627 0
 10901 003c BB7B     		ldrb	r3, [r7, #14]	@ zero_extendqisi2
 10902 003e 002B     		cmp	r3, #0
 10903 0040 12D0     		beq	.L373
2628:.\PrimeImpl.c ****         {
2629:.\PrimeImpl.c ****             pbuffer[index] = pbuffer[index - 1];
 10904              		.loc 1 2629 0
 10905 0042 97F90D30 		ldrsb	r3, [r7, #13]
 10906 0046 7A68     		ldr	r2, [r7, #4]
 10907 0048 1344     		add	r3, r3, r2
 10908 004a 97F90D20 		ldrsb	r2, [r7, #13]
 10909 004e 013A     		subs	r2, r2, #1
 10910 0050 7968     		ldr	r1, [r7, #4]
 10911 0052 0A44     		add	r2, r2, r1
 10912 0054 1278     		ldrb	r2, [r2]	@ zero_extendqisi2
ARM GAS  C:\Users\RECEPC~1\AppData\Local\Temp\ccQD6Oev.s 			page 240


 10913 0056 1A70     		strb	r2, [r3]
2630:.\PrimeImpl.c ****             pbuffer[index - 1] = 0x00;
 10914              		.loc 1 2630 0
 10915 0058 97F90D30 		ldrsb	r3, [r7, #13]
 10916 005c 013B     		subs	r3, r3, #1
 10917 005e 7A68     		ldr	r2, [r7, #4]
 10918 0060 1344     		add	r3, r3, r2
 10919 0062 0022     		movs	r2, #0
 10920 0064 1A70     		strb	r2, [r3]
 10921 0066 02E0     		b	.L374
 10922              	.L373:
2631:.\PrimeImpl.c ****         }else
2632:.\PrimeImpl.c ****             delimiterindex++;
 10923              		.loc 1 2632 0
 10924 0068 FB7B     		ldrb	r3, [r7, #15]	@ zero_extendqisi2
 10925 006a 0133     		adds	r3, r3, #1
 10926 006c FB73     		strb	r3, [r7, #15]
 10927              	.L374:
2622:.\PrimeImpl.c ****     {
 10928              		.loc 1 2622 0 discriminator 2
 10929 006e 7B7B     		ldrb	r3, [r7, #13]	@ zero_extendqisi2
 10930 0070 DBB2     		uxtb	r3, r3
 10931 0072 013B     		subs	r3, r3, #1
 10932 0074 DBB2     		uxtb	r3, r3
 10933 0076 7B73     		strb	r3, [r7, #13]
 10934              	.L371:
2622:.\PrimeImpl.c ****     {
 10935              		.loc 1 2622 0 is_stmt 0 discriminator 1
 10936 0078 97F90D30 		ldrsb	r3, [r7, #13]
 10937 007c 002B     		cmp	r3, #0
 10938 007e CEDC     		bgt	.L375
2633:.\PrimeImpl.c ****         
2634:.\PrimeImpl.c ****     }
2635:.\PrimeImpl.c ****     if(!shiftbydelimiter)
 10939              		.loc 1 2635 0 is_stmt 1
 10940 0080 BB7B     		ldrb	r3, [r7, #14]
 10941 0082 83F00103 		eor	r3, r3, #1
 10942 0086 DBB2     		uxtb	r3, r3
 10943 0088 002B     		cmp	r3, #0
 10944 008a 01D0     		beq	.L376
2636:.\PrimeImpl.c ****         delimiterindex = 0x00;
 10945              		.loc 1 2636 0
 10946 008c 0023     		movs	r3, #0
 10947 008e FB73     		strb	r3, [r7, #15]
 10948              	.L376:
2637:.\PrimeImpl.c ****     
2638:.\PrimeImpl.c ****     int8 shiftcount = (delimiterindex - _g_dispenserlayoutinfo._moneydecimals);
 10949              		.loc 1 2638 0
 10950 0090 334B     		ldr	r3, .L387
 10951 0092 DB79     		ldrb	r3, [r3, #7]	@ zero_extendqisi2
 10952 0094 FA7B     		ldrb	r2, [r7, #15]
 10953 0096 D31A     		subs	r3, r2, r3
 10954 0098 DBB2     		uxtb	r3, r3
 10955 009a 3B73     		strb	r3, [r7, #12]
2639:.\PrimeImpl.c ****     //8 is the size of the allocated buffer space for the preset values according to the protocol.
2640:.\PrimeImpl.c ****     //The real buffer size allocated from the display side is 16 bytes. The buffer will be cast fro
2641:.\PrimeImpl.c ****     //the end to the beginning, so the startup index has been calculated "explicitly", this is (8 -
ARM GAS  C:\Users\RECEPC~1\AppData\Local\Temp\ccQD6Oev.s 			page 241


2642:.\PrimeImpl.c ****     //To multiply by 1000 we need to shift the entire buffer three bytes to shift the comma, so we
2643:.\PrimeImpl.c ****     //will subtract 3 bytes to the starting position in order to make the shifting.
2644:.\PrimeImpl.c ****     if(shiftcount > 0)
 10956              		.loc 1 2644 0
 10957 009c 97F90C30 		ldrsb	r3, [r7, #12]
 10958 00a0 002B     		cmp	r3, #0
 10959 00a2 29DD     		ble	.L377
2645:.\PrimeImpl.c ****     {
2646:.\PrimeImpl.c ****         while(shiftcount > 0)
 10960              		.loc 1 2646 0
 10961 00a4 23E0     		b	.L378
 10962              	.L381:
2647:.\PrimeImpl.c ****         {
2648:.\PrimeImpl.c ****             FOR(index = (buffersize - 1), index > 0, index--)
 10963              		.loc 1 2648 0
 10964 00a6 FB78     		ldrb	r3, [r7, #3]
 10965 00a8 013B     		subs	r3, r3, #1
 10966 00aa DBB2     		uxtb	r3, r3
 10967 00ac 7B73     		strb	r3, [r7, #13]
 10968 00ae 15E0     		b	.L379
 10969              	.L380:
2649:.\PrimeImpl.c ****             {
2650:.\PrimeImpl.c ****                 pbuffer[index] = pbuffer[index - 1];
 10970              		.loc 1 2650 0 discriminator 3
 10971 00b0 97F90D30 		ldrsb	r3, [r7, #13]
 10972 00b4 7A68     		ldr	r2, [r7, #4]
 10973 00b6 1344     		add	r3, r3, r2
 10974 00b8 97F90D20 		ldrsb	r2, [r7, #13]
 10975 00bc 013A     		subs	r2, r2, #1
 10976 00be 7968     		ldr	r1, [r7, #4]
 10977 00c0 0A44     		add	r2, r2, r1
 10978 00c2 1278     		ldrb	r2, [r2]	@ zero_extendqisi2
 10979 00c4 1A70     		strb	r2, [r3]
2651:.\PrimeImpl.c ****                 pbuffer[index] = 0x00;
 10980              		.loc 1 2651 0 discriminator 3
 10981 00c6 97F90D30 		ldrsb	r3, [r7, #13]
 10982 00ca 7A68     		ldr	r2, [r7, #4]
 10983 00cc 1344     		add	r3, r3, r2
 10984 00ce 0022     		movs	r2, #0
 10985 00d0 1A70     		strb	r2, [r3]
2648:.\PrimeImpl.c ****             {
 10986              		.loc 1 2648 0 discriminator 3
 10987 00d2 7B7B     		ldrb	r3, [r7, #13]	@ zero_extendqisi2
 10988 00d4 DBB2     		uxtb	r3, r3
 10989 00d6 013B     		subs	r3, r3, #1
 10990 00d8 DBB2     		uxtb	r3, r3
 10991 00da 7B73     		strb	r3, [r7, #13]
 10992              	.L379:
2648:.\PrimeImpl.c ****             {
 10993              		.loc 1 2648 0 is_stmt 0 discriminator 1
 10994 00dc 97F90D30 		ldrsb	r3, [r7, #13]
 10995 00e0 002B     		cmp	r3, #0
 10996 00e2 E5DC     		bgt	.L380
2652:.\PrimeImpl.c ****             }
2653:.\PrimeImpl.c ****             shiftcount--;
 10997              		.loc 1 2653 0 is_stmt 1
 10998 00e4 3B7B     		ldrb	r3, [r7, #12]	@ zero_extendqisi2
ARM GAS  C:\Users\RECEPC~1\AppData\Local\Temp\ccQD6Oev.s 			page 242


 10999 00e6 DBB2     		uxtb	r3, r3
 11000 00e8 013B     		subs	r3, r3, #1
 11001 00ea DBB2     		uxtb	r3, r3
 11002 00ec 3B73     		strb	r3, [r7, #12]
 11003              	.L378:
2646:.\PrimeImpl.c ****         {
 11004              		.loc 1 2646 0
 11005 00ee 97F90C30 		ldrsb	r3, [r7, #12]
 11006 00f2 002B     		cmp	r3, #0
 11007 00f4 D7DC     		bgt	.L381
 11008 00f6 2DE0     		b	.L370
 11009              	.L377:
2654:.\PrimeImpl.c ****         }
2655:.\PrimeImpl.c ****     }
2656:.\PrimeImpl.c ****     else if(shiftcount < 0)
 11010              		.loc 1 2656 0
 11011 00f8 97F90C30 		ldrsb	r3, [r7, #12]
 11012 00fc 002B     		cmp	r3, #0
 11013 00fe 29DA     		bge	.L370
2657:.\PrimeImpl.c ****     {
2658:.\PrimeImpl.c ****         while(shiftcount < 0)
 11014              		.loc 1 2658 0
 11015 0100 24E0     		b	.L383
 11016              	.L386:
2659:.\PrimeImpl.c ****         {
2660:.\PrimeImpl.c ****             FOR(index = 0, index < (buffersize  - 1), index++)
 11017              		.loc 1 2660 0
 11018 0102 0023     		movs	r3, #0
 11019 0104 7B73     		strb	r3, [r7, #13]
 11020 0106 16E0     		b	.L384
 11021              	.L385:
2661:.\PrimeImpl.c ****             {
2662:.\PrimeImpl.c ****                 pbuffer[index] = pbuffer[index + 1];
 11022              		.loc 1 2662 0 discriminator 3
 11023 0108 97F90D30 		ldrsb	r3, [r7, #13]
 11024 010c 7A68     		ldr	r2, [r7, #4]
 11025 010e 1344     		add	r3, r3, r2
 11026 0110 97F90D20 		ldrsb	r2, [r7, #13]
 11027 0114 0132     		adds	r2, r2, #1
 11028 0116 7968     		ldr	r1, [r7, #4]
 11029 0118 0A44     		add	r2, r2, r1
 11030 011a 1278     		ldrb	r2, [r2]	@ zero_extendqisi2
 11031 011c 1A70     		strb	r2, [r3]
2663:.\PrimeImpl.c ****                 pbuffer[index + 1] = 0x30;
 11032              		.loc 1 2663 0 discriminator 3
 11033 011e 97F90D30 		ldrsb	r3, [r7, #13]
 11034 0122 0133     		adds	r3, r3, #1
 11035 0124 7A68     		ldr	r2, [r7, #4]
 11036 0126 1344     		add	r3, r3, r2
 11037 0128 3022     		movs	r2, #48
 11038 012a 1A70     		strb	r2, [r3]
2660:.\PrimeImpl.c ****             {
 11039              		.loc 1 2660 0 discriminator 3
 11040 012c 7B7B     		ldrb	r3, [r7, #13]	@ zero_extendqisi2
 11041 012e DBB2     		uxtb	r3, r3
 11042 0130 0133     		adds	r3, r3, #1
 11043 0132 DBB2     		uxtb	r3, r3
ARM GAS  C:\Users\RECEPC~1\AppData\Local\Temp\ccQD6Oev.s 			page 243


 11044 0134 7B73     		strb	r3, [r7, #13]
 11045              	.L384:
2660:.\PrimeImpl.c ****             {
 11046              		.loc 1 2660 0 is_stmt 0 discriminator 1
 11047 0136 97F90D20 		ldrsb	r2, [r7, #13]
 11048 013a FB78     		ldrb	r3, [r7, #3]	@ zero_extendqisi2
 11049 013c 013B     		subs	r3, r3, #1
 11050 013e 9A42     		cmp	r2, r3
 11051 0140 E2DB     		blt	.L385
2664:.\PrimeImpl.c ****             }
2665:.\PrimeImpl.c ****             shiftcount++;
 11052              		.loc 1 2665 0 is_stmt 1
 11053 0142 3B7B     		ldrb	r3, [r7, #12]	@ zero_extendqisi2
 11054 0144 DBB2     		uxtb	r3, r3
 11055 0146 0133     		adds	r3, r3, #1
 11056 0148 DBB2     		uxtb	r3, r3
 11057 014a 3B73     		strb	r3, [r7, #12]
 11058              	.L383:
2658:.\PrimeImpl.c ****         {
 11059              		.loc 1 2658 0
 11060 014c 97F90C30 		ldrsb	r3, [r7, #12]
 11061 0150 002B     		cmp	r3, #0
 11062 0152 D6DB     		blt	.L386
 11063              	.L370:
2666:.\PrimeImpl.c ****         }
2667:.\PrimeImpl.c ****     }
2668:.\PrimeImpl.c **** }
 11064              		.loc 1 2668 0
 11065 0154 1437     		adds	r7, r7, #20
 11066              		.cfi_def_cfa_offset 4
 11067 0156 BD46     		mov	sp, r7
 11068              		.cfi_def_cfa_register 13
 11069              		@ sp needed
 11070 0158 5DF8047B 		ldr	r7, [sp], #4
 11071              		.cfi_restore 7
 11072              		.cfi_def_cfa_offset 0
 11073 015c 7047     		bx	lr
 11074              	.L388:
 11075 015e 00BF     		.align	2
 11076              	.L387:
 11077 0160 00000000 		.word	_g_dispenserlayoutinfo
 11078              		.cfi_endproc
 11079              	.LFE116:
 11080              		.size	CastMoneyValue, .-CastMoneyValue
 11081              		.global	_g_sfcharmap
 11082              		.data
 11083              		.align	2
 11084              		.type	_g_sfcharmap, %object
 11085              		.size	_g_sfcharmap, 32
 11086              	_g_sfcharmap:
 11087 0000 B1       		.byte	-79
 11088 0001 01       		.byte	1
 11089 0002 B2       		.byte	-78
 11090 0003 02       		.byte	2
 11091 0004 B3       		.byte	-77
 11092 0005 03       		.byte	3
 11093 0006 B4       		.byte	-76
ARM GAS  C:\Users\RECEPC~1\AppData\Local\Temp\ccQD6Oev.s 			page 244


 11094 0007 04       		.byte	4
 11095 0008 B5       		.byte	-75
 11096 0009 05       		.byte	5
 11097 000a B6       		.byte	-74
 11098 000b 06       		.byte	6
 11099 000c B7       		.byte	-73
 11100 000d 07       		.byte	7
 11101 000e B8       		.byte	-72
 11102 000f 08       		.byte	8
 11103 0010 B9       		.byte	-71
 11104 0011 09       		.byte	9
 11105 0012 C1       		.byte	-63
 11106 0013 0A       		.byte	10
 11107 0014 C2       		.byte	-62
 11108 0015 0B       		.byte	11
 11109 0016 C3       		.byte	-61
 11110 0017 0C       		.byte	12
 11111 0018 C4       		.byte	-60
 11112 0019 0D       		.byte	13
 11113 001a C5       		.byte	-59
 11114 001b 0E       		.byte	14
 11115 001c C6       		.byte	-58
 11116 001d 0F       		.byte	15
 11117 001e 00       		.byte	0
 11118 001f 00       		.byte	0
 11119              		.section	.text.TranslateSpecialFuncionDigit,"ax",%progbits
 11120              		.align	2
 11121              		.global	TranslateSpecialFuncionDigit
 11122              		.thumb
 11123              		.thumb_func
 11124              		.type	TranslateSpecialFuncionDigit, %function
 11125              	TranslateSpecialFuncionDigit:
 11126              	.LFB117:
2669:.\PrimeImpl.c **** 
2670:.\PrimeImpl.c **** //This is a char map to translate from the special functions word domain to the normal byte domain
2671:.\PrimeImpl.c **** char8 _g_sfcharmap[][2] = 
2672:.\PrimeImpl.c **** {
2673:.\PrimeImpl.c ****     { 0xB1, 0x01 }, { 0xB2, 0x02 }, { 0xB3, 0x03 }, { 0xB4, 0x04 }, { 0xB5, 0x05 }, { 0xB6, 0x06 },
2674:.\PrimeImpl.c ****     { 0xC1, 0x0A }, { 0xC2, 0x0B }, { 0xC3, 0x0C }, { 0xC4, 0x0D }, { 0xC5, 0x0E }, { 0xC6, 0x0F },
2675:.\PrimeImpl.c **** };
2676:.\PrimeImpl.c **** 
2677:.\PrimeImpl.c **** //@Created By: HIJH
2678:.\PrimeImpl.c **** //@Septembre de 2016
2679:.\PrimeImpl.c **** char8 TranslateSpecialFuncionDigit(char8 refval)
2680:.\PrimeImpl.c **** {
 11127              		.loc 1 2680 0
 11128              		.cfi_startproc
 11129              		@ args = 0, pretend = 0, frame = 16
 11130              		@ frame_needed = 1, uses_anonymous_args = 0
 11131              		@ link register save eliminated.
 11132 0000 80B4     		push	{r7}
 11133              		.cfi_def_cfa_offset 4
 11134              		.cfi_offset 7, -4
 11135 0002 85B0     		sub	sp, sp, #20
 11136              		.cfi_def_cfa_offset 24
 11137 0004 00AF     		add	r7, sp, #0
 11138              		.cfi_def_cfa_register 7
ARM GAS  C:\Users\RECEPC~1\AppData\Local\Temp\ccQD6Oev.s 			page 245


 11139 0006 0346     		mov	r3, r0
 11140 0008 FB71     		strb	r3, [r7, #7]
2681:.\PrimeImpl.c ****     char8 retval = 0x00;
 11141              		.loc 1 2681 0
 11142 000a 0023     		movs	r3, #0
 11143 000c FB73     		strb	r3, [r7, #15]
2682:.\PrimeImpl.c ****     PSTR ptrstr = (PSTR)&_g_sfcharmap[0];
 11144              		.loc 1 2682 0
 11145 000e 0D4B     		ldr	r3, .L395
 11146 0010 BB60     		str	r3, [r7, #8]
2683:.\PrimeImpl.c ****     while(*ptrstr != 0x00)
 11147              		.loc 1 2683 0
 11148 0012 0BE0     		b	.L390
 11149              	.L393:
2684:.\PrimeImpl.c ****     {
2685:.\PrimeImpl.c ****         if(ptrstr[0] == refval)
 11150              		.loc 1 2685 0
 11151 0014 BB68     		ldr	r3, [r7, #8]
 11152 0016 1B78     		ldrb	r3, [r3]	@ zero_extendqisi2
 11153 0018 FA79     		ldrb	r2, [r7, #7]	@ zero_extendqisi2
 11154 001a 9A42     		cmp	r2, r3
 11155 001c 03D1     		bne	.L391
2686:.\PrimeImpl.c ****         {
2687:.\PrimeImpl.c ****             retval = ptrstr[1];
 11156              		.loc 1 2687 0
 11157 001e BB68     		ldr	r3, [r7, #8]
 11158 0020 5B78     		ldrb	r3, [r3, #1]
 11159 0022 FB73     		strb	r3, [r7, #15]
2688:.\PrimeImpl.c ****             break;
 11160              		.loc 1 2688 0
 11161 0024 06E0     		b	.L392
 11162              	.L391:
2689:.\PrimeImpl.c ****         }
2690:.\PrimeImpl.c ****         ptrstr++;
 11163              		.loc 1 2690 0
 11164 0026 BB68     		ldr	r3, [r7, #8]
 11165 0028 0133     		adds	r3, r3, #1
 11166 002a BB60     		str	r3, [r7, #8]
 11167              	.L390:
2683:.\PrimeImpl.c ****     {
 11168              		.loc 1 2683 0
 11169 002c BB68     		ldr	r3, [r7, #8]
 11170 002e 1B78     		ldrb	r3, [r3]	@ zero_extendqisi2
 11171 0030 002B     		cmp	r3, #0
 11172 0032 EFD1     		bne	.L393
 11173              	.L392:
2691:.\PrimeImpl.c ****     }    
2692:.\PrimeImpl.c ****     return retval;
 11174              		.loc 1 2692 0
 11175 0034 FB7B     		ldrb	r3, [r7, #15]	@ zero_extendqisi2
2693:.\PrimeImpl.c **** }
 11176              		.loc 1 2693 0
 11177 0036 1846     		mov	r0, r3
 11178 0038 1437     		adds	r7, r7, #20
 11179              		.cfi_def_cfa_offset 4
 11180 003a BD46     		mov	sp, r7
 11181              		.cfi_def_cfa_register 13
ARM GAS  C:\Users\RECEPC~1\AppData\Local\Temp\ccQD6Oev.s 			page 246


 11182              		@ sp needed
 11183 003c 5DF8047B 		ldr	r7, [sp], #4
 11184              		.cfi_restore 7
 11185              		.cfi_def_cfa_offset 0
 11186 0040 7047     		bx	lr
 11187              	.L396:
 11188 0042 00BF     		.align	2
 11189              	.L395:
 11190 0044 00000000 		.word	_g_sfcharmap
 11191              		.cfi_endproc
 11192              	.LFE117:
 11193              		.size	TranslateSpecialFuncionDigit, .-TranslateSpecialFuncionDigit
 11194              		.bss
 11195              	index.9626:
 11196 0000 00       		.space	1
 11197              		.text
 11198              	.Letext0:
 11199              		.file 2 "c:\\program files (x86)\\cypress\\psoc creator\\3.3\\psoc creator\\import\\gnu\\arm\\4.9.
 11200              		.file 3 "c:\\program files (x86)\\cypress\\psoc creator\\3.3\\psoc creator\\import\\gnu\\arm\\4.9.
 11201              		.file 4 "Generated_Source\\PSoC5/cytypes.h"
 11202              		.file 5 ".\\GlobalDefinitions.h"
 11203              		.file 6 ".\\SinkManager.h"
 11204              		.file 7 ".\\SinkObservables.h"
 11205              		.file 8 ".\\UARTManager.h"
 11206              		.file 9 ".\\Display.h"
 11207              		.file 10 ".\\Prime.h"
 11208              		.file 11 ".\\Dispenser.h"
 11209              		.file 12 ".\\Eeprom.h"
 11210              		.file 13 ".\\RFLink.h"
 11211              		.file 14 ".\\Printer.h"
 11212              		.file 15 "Generated_Source\\PSoC5/core_cm3.h"
 11213              		.section	.debug_info,"",%progbits
 11214              	.Ldebug_info0:
 11215 0000 502A0000 		.4byte	0x2a50
 11216 0004 0400     		.2byte	0x4
 11217 0006 00000000 		.4byte	.Ldebug_abbrev0
 11218 000a 04       		.byte	0x4
 11219 000b 01       		.uleb128 0x1
 11220 000c A9250000 		.4byte	.LASF581
 11221 0010 01       		.byte	0x1
 11222 0011 40190000 		.4byte	.LASF582
 11223 0015 93180000 		.4byte	.LASF583
 11224 0019 00000000 		.4byte	.Ldebug_ranges0+0
 11225 001d 00000000 		.4byte	0
 11226 0021 00000000 		.4byte	.Ldebug_line0
 11227 0025 02       		.uleb128 0x2
 11228 0026 01       		.byte	0x1
 11229 0027 06       		.byte	0x6
 11230 0028 400B0000 		.4byte	.LASF0
 11231 002c 03       		.uleb128 0x3
 11232 002d 57070000 		.4byte	.LASF4
 11233 0031 02       		.byte	0x2
 11234 0032 1D       		.byte	0x1d
 11235 0033 37000000 		.4byte	0x37
 11236 0037 02       		.uleb128 0x2
 11237 0038 01       		.byte	0x1
 11238 0039 08       		.byte	0x8
ARM GAS  C:\Users\RECEPC~1\AppData\Local\Temp\ccQD6Oev.s 			page 247


 11239 003a A90C0000 		.4byte	.LASF1
 11240 003e 02       		.uleb128 0x2
 11241 003f 02       		.byte	0x2
 11242 0040 05       		.byte	0x5
 11243 0041 59240000 		.4byte	.LASF2
 11244 0045 02       		.uleb128 0x2
 11245 0046 02       		.byte	0x2
 11246 0047 07       		.byte	0x7
 11247 0048 94290000 		.4byte	.LASF3
 11248 004c 03       		.uleb128 0x3
 11249 004d 592A0000 		.4byte	.LASF5
 11250 0051 02       		.byte	0x2
 11251 0052 3F       		.byte	0x3f
 11252 0053 57000000 		.4byte	0x57
 11253 0057 02       		.uleb128 0x2
 11254 0058 04       		.byte	0x4
 11255 0059 05       		.byte	0x5
 11256 005a 84080000 		.4byte	.LASF6
 11257 005e 02       		.uleb128 0x2
 11258 005f 04       		.byte	0x4
 11259 0060 07       		.byte	0x7
 11260 0061 86140000 		.4byte	.LASF7
 11261 0065 02       		.uleb128 0x2
 11262 0066 08       		.byte	0x8
 11263 0067 05       		.byte	0x5
 11264 0068 64170000 		.4byte	.LASF8
 11265 006c 02       		.uleb128 0x2
 11266 006d 08       		.byte	0x8
 11267 006e 07       		.byte	0x7
 11268 006f D41F0000 		.4byte	.LASF9
 11269 0073 04       		.uleb128 0x4
 11270 0074 04       		.byte	0x4
 11271 0075 05       		.byte	0x5
 11272 0076 696E7400 		.ascii	"int\000"
 11273 007a 02       		.uleb128 0x2
 11274 007b 04       		.byte	0x4
 11275 007c 07       		.byte	0x7
 11276 007d 631A0000 		.4byte	.LASF10
 11277 0081 03       		.uleb128 0x3
 11278 0082 5B0B0000 		.4byte	.LASF11
 11279 0086 03       		.byte	0x3
 11280 0087 15       		.byte	0x15
 11281 0088 2C000000 		.4byte	0x2c
 11282 008c 03       		.uleb128 0x3
 11283 008d 6C020000 		.4byte	.LASF12
 11284 0091 03       		.byte	0x3
 11285 0092 2C       		.byte	0x2c
 11286 0093 4C000000 		.4byte	0x4c
 11287 0097 05       		.uleb128 0x5
 11288 0098 10240000 		.4byte	.LASF13
 11289 009c 04       		.byte	0x4
 11290 009d 3801     		.2byte	0x138
 11291 009f 37000000 		.4byte	0x37
 11292 00a3 05       		.uleb128 0x5
 11293 00a4 BC2B0000 		.4byte	.LASF14
 11294 00a8 04       		.byte	0x4
 11295 00a9 3901     		.2byte	0x139
ARM GAS  C:\Users\RECEPC~1\AppData\Local\Temp\ccQD6Oev.s 			page 248


 11296 00ab 45000000 		.4byte	0x45
 11297 00af 05       		.uleb128 0x5
 11298 00b0 31030000 		.4byte	.LASF15
 11299 00b4 04       		.byte	0x4
 11300 00b5 3A01     		.2byte	0x13a
 11301 00b7 5E000000 		.4byte	0x5e
 11302 00bb 05       		.uleb128 0x5
 11303 00bc 5A060000 		.4byte	.LASF16
 11304 00c0 04       		.byte	0x4
 11305 00c1 3B01     		.2byte	0x13b
 11306 00c3 25000000 		.4byte	0x25
 11307 00c7 02       		.uleb128 0x2
 11308 00c8 04       		.byte	0x4
 11309 00c9 04       		.byte	0x4
 11310 00ca 8E190000 		.4byte	.LASF17
 11311 00ce 02       		.uleb128 0x2
 11312 00cf 08       		.byte	0x8
 11313 00d0 04       		.byte	0x4
 11314 00d1 4B180000 		.4byte	.LASF18
 11315 00d5 05       		.uleb128 0x5
 11316 00d6 7D080000 		.4byte	.LASF19
 11317 00da 04       		.byte	0x4
 11318 00db 4401     		.2byte	0x144
 11319 00dd 6C000000 		.4byte	0x6c
 11320 00e1 05       		.uleb128 0x5
 11321 00e2 33050000 		.4byte	.LASF20
 11322 00e6 04       		.byte	0x4
 11323 00e7 4901     		.2byte	0x149
 11324 00e9 ED000000 		.4byte	0xed
 11325 00ed 02       		.uleb128 0x2
 11326 00ee 01       		.byte	0x1
 11327 00ef 08       		.byte	0x8
 11328 00f0 3B0E0000 		.4byte	.LASF21
 11329 00f4 06       		.uleb128 0x6
 11330 00f5 97000000 		.4byte	0x97
 11331 00f9 06       		.uleb128 0x6
 11332 00fa A3000000 		.4byte	0xa3
 11333 00fe 06       		.uleb128 0x6
 11334 00ff AF000000 		.4byte	0xaf
 11335 0103 07       		.uleb128 0x7
 11336 0104 04       		.byte	0x4
 11337 0105 09010000 		.4byte	0x109
 11338 0109 08       		.uleb128 0x8
 11339 010a 02       		.uleb128 0x2
 11340 010b 04       		.byte	0x4
 11341 010c 07       		.byte	0x7
 11342 010d D8000000 		.4byte	.LASF22
 11343 0111 09       		.uleb128 0x9
 11344 0112 04       		.byte	0x4
 11345 0113 07       		.uleb128 0x7
 11346 0114 04       		.byte	0x4
 11347 0115 ED000000 		.4byte	0xed
 11348 0119 0A       		.uleb128 0xa
 11349 011a 97000000 		.4byte	0x97
 11350 011e 29010000 		.4byte	0x129
 11351 0122 0B       		.uleb128 0xb
 11352 0123 0A010000 		.4byte	0x10a
ARM GAS  C:\Users\RECEPC~1\AppData\Local\Temp\ccQD6Oev.s 			page 249


 11353 0127 03       		.byte	0x3
 11354 0128 00       		.byte	0
 11355 0129 02       		.uleb128 0x2
 11356 012a 08       		.byte	0x8
 11357 012b 04       		.byte	0x4
 11358 012c EF1D0000 		.4byte	.LASF23
 11359 0130 03       		.uleb128 0x3
 11360 0131 BF1C0000 		.4byte	.LASF24
 11361 0135 05       		.byte	0x5
 11362 0136 29       		.byte	0x29
 11363 0137 11010000 		.4byte	0x111
 11364 013b 07       		.uleb128 0x7
 11365 013c 04       		.byte	0x4
 11366 013d E1000000 		.4byte	0xe1
 11367 0141 03       		.uleb128 0x3
 11368 0142 4C0B0000 		.4byte	.LASF25
 11369 0146 05       		.byte	0x5
 11370 0147 50       		.byte	0x50
 11371 0148 4C010000 		.4byte	0x14c
 11372 014c 07       		.uleb128 0x7
 11373 014d 04       		.byte	0x4
 11374 014e 97000000 		.4byte	0x97
 11375 0152 0C       		.uleb128 0xc
 11376 0153 AF280000 		.4byte	.LASF34
 11377 0157 01       		.byte	0x1
 11378 0158 06       		.byte	0x6
 11379 0159 3F       		.byte	0x3f
 11380 015a 8F010000 		.4byte	0x18f
 11381 015e 0D       		.uleb128 0xd
 11382 015f 5E2B0000 		.4byte	.LASF26
 11383 0163 01       		.sleb128 1
 11384 0164 0D       		.uleb128 0xd
 11385 0165 151B0000 		.4byte	.LASF27
 11386 0169 02       		.sleb128 2
 11387 016a 0D       		.uleb128 0xd
 11388 016b AB1C0000 		.4byte	.LASF28
 11389 016f 03       		.sleb128 3
 11390 0170 0D       		.uleb128 0xd
 11391 0171 73230000 		.4byte	.LASF29
 11392 0175 04       		.sleb128 4
 11393 0176 0D       		.uleb128 0xd
 11394 0177 E0110000 		.4byte	.LASF30
 11395 017b 05       		.sleb128 5
 11396 017c 0D       		.uleb128 0xd
 11397 017d AD260000 		.4byte	.LASF31
 11398 0181 06       		.sleb128 6
 11399 0182 0D       		.uleb128 0xd
 11400 0183 A50E0000 		.4byte	.LASF32
 11401 0187 07       		.sleb128 7
 11402 0188 0D       		.uleb128 0xd
 11403 0189 14140000 		.4byte	.LASF33
 11404 018d 08       		.sleb128 8
 11405 018e 00       		.byte	0
 11406 018f 0C       		.uleb128 0xc
 11407 0190 442B0000 		.4byte	.LASF35
 11408 0194 01       		.byte	0x1
 11409 0195 06       		.byte	0x6
ARM GAS  C:\Users\RECEPC~1\AppData\Local\Temp\ccQD6Oev.s 			page 250


 11410 0196 4C       		.byte	0x4c
 11411 0197 AE010000 		.4byte	0x1ae
 11412 019b 0D       		.uleb128 0xd
 11413 019c 542B0000 		.4byte	.LASF36
 11414 01a0 01       		.sleb128 1
 11415 01a1 0D       		.uleb128 0xd
 11416 01a2 110E0000 		.4byte	.LASF37
 11417 01a6 02       		.sleb128 2
 11418 01a7 0D       		.uleb128 0xd
 11419 01a8 A5010000 		.4byte	.LASF38
 11420 01ac 03       		.sleb128 3
 11421 01ad 00       		.byte	0
 11422 01ae 0E       		.uleb128 0xe
 11423 01af 58000000 		.4byte	.LASF97
 11424 01b3 9801     		.2byte	0x198
 11425 01b5 06       		.byte	0x6
 11426 01b6 53       		.byte	0x53
 11427 01b7 4F020000 		.4byte	0x24f
 11428 01bb 0F       		.uleb128 0xf
 11429 01bc 84190000 		.4byte	.LASF39
 11430 01c0 06       		.byte	0x6
 11431 01c1 55       		.byte	0x55
 11432 01c2 4F020000 		.4byte	0x24f
 11433 01c6 00       		.byte	0
 11434 01c7 0F       		.uleb128 0xf
 11435 01c8 E6230000 		.4byte	.LASF40
 11436 01cc 06       		.byte	0x6
 11437 01cd 56       		.byte	0x56
 11438 01ce F4000000 		.4byte	0xf4
 11439 01d2 01       		.byte	0x1
 11440 01d3 0F       		.uleb128 0xf
 11441 01d4 85260000 		.4byte	.LASF41
 11442 01d8 06       		.byte	0x6
 11443 01d9 57       		.byte	0x57
 11444 01da F4000000 		.4byte	0xf4
 11445 01de 02       		.byte	0x2
 11446 01df 0F       		.uleb128 0xf
 11447 01e0 17280000 		.4byte	.LASF42
 11448 01e4 06       		.byte	0x6
 11449 01e5 58       		.byte	0x58
 11450 01e6 F4000000 		.4byte	0xf4
 11451 01ea 03       		.byte	0x3
 11452 01eb 0F       		.uleb128 0xf
 11453 01ec B30D0000 		.4byte	.LASF43
 11454 01f0 06       		.byte	0x6
 11455 01f1 5A       		.byte	0x5a
 11456 01f2 F9000000 		.4byte	0xf9
 11457 01f6 04       		.byte	0x4
 11458 01f7 0F       		.uleb128 0xf
 11459 01f8 8C100000 		.4byte	.LASF44
 11460 01fc 06       		.byte	0x6
 11461 01fd 5B       		.byte	0x5b
 11462 01fe F9000000 		.4byte	0xf9
 11463 0202 06       		.byte	0x6
 11464 0203 0F       		.uleb128 0xf
 11465 0204 E1080000 		.4byte	.LASF45
 11466 0208 06       		.byte	0x6
ARM GAS  C:\Users\RECEPC~1\AppData\Local\Temp\ccQD6Oev.s 			page 251


 11467 0209 5C       		.byte	0x5c
 11468 020a F9000000 		.4byte	0xf9
 11469 020e 08       		.byte	0x8
 11470 020f 0F       		.uleb128 0xf
 11471 0210 7A250000 		.4byte	.LASF46
 11472 0214 06       		.byte	0x6
 11473 0215 5D       		.byte	0x5d
 11474 0216 F9000000 		.4byte	0xf9
 11475 021a 0A       		.byte	0xa
 11476 021b 0F       		.uleb128 0xf
 11477 021c E7070000 		.4byte	.LASF47
 11478 0220 06       		.byte	0x6
 11479 0221 5E       		.byte	0x5e
 11480 0222 5B020000 		.4byte	0x25b
 11481 0226 0C       		.byte	0xc
 11482 0227 10       		.uleb128 0x10
 11483 0228 482C0000 		.4byte	.LASF48
 11484 022c 06       		.byte	0x6
 11485 022d 5F       		.byte	0x5f
 11486 022e F9000000 		.4byte	0xf9
 11487 0232 8C01     		.2byte	0x18c
 11488 0234 10       		.uleb128 0x10
 11489 0235 79150000 		.4byte	.LASF49
 11490 0239 06       		.byte	0x6
 11491 023a 62       		.byte	0x62
 11492 023b 11010000 		.4byte	0x111
 11493 023f 9001     		.2byte	0x190
 11494 0241 10       		.uleb128 0x10
 11495 0242 CD150000 		.4byte	.LASF50
 11496 0246 06       		.byte	0x6
 11497 0247 63       		.byte	0x63
 11498 0248 77020000 		.4byte	0x277
 11499 024c 9401     		.2byte	0x194
 11500 024e 00       		.byte	0
 11501 024f 06       		.uleb128 0x6
 11502 0250 54020000 		.4byte	0x254
 11503 0254 02       		.uleb128 0x2
 11504 0255 01       		.byte	0x1
 11505 0256 02       		.byte	0x2
 11506 0257 D10D0000 		.4byte	.LASF51
 11507 025b 0A       		.uleb128 0xa
 11508 025c E1000000 		.4byte	0xe1
 11509 0260 6C020000 		.4byte	0x26c
 11510 0264 11       		.uleb128 0x11
 11511 0265 0A010000 		.4byte	0x10a
 11512 0269 7F01     		.2byte	0x17f
 11513 026b 00       		.byte	0
 11514 026c 12       		.uleb128 0x12
 11515 026d 77020000 		.4byte	0x277
 11516 0271 13       		.uleb128 0x13
 11517 0272 11010000 		.4byte	0x111
 11518 0276 00       		.byte	0
 11519 0277 07       		.uleb128 0x7
 11520 0278 04       		.byte	0x4
 11521 0279 6C020000 		.4byte	0x26c
 11522 027d 03       		.uleb128 0x3
 11523 027e D61A0000 		.4byte	.LASF52
ARM GAS  C:\Users\RECEPC~1\AppData\Local\Temp\ccQD6Oev.s 			page 252


 11524 0282 06       		.byte	0x6
 11525 0283 64       		.byte	0x64
 11526 0284 88020000 		.4byte	0x288
 11527 0288 07       		.uleb128 0x7
 11528 0289 04       		.byte	0x4
 11529 028a AE010000 		.4byte	0x1ae
 11530 028e 0C       		.uleb128 0xc
 11531 028f 35080000 		.4byte	.LASF53
 11532 0293 01       		.byte	0x1
 11533 0294 07       		.byte	0x7
 11534 0295 0F       		.byte	0xf
 11535 0296 9D030000 		.4byte	0x39d
 11536 029a 0D       		.uleb128 0xd
 11537 029b A61D0000 		.4byte	.LASF54
 11538 029f 01       		.sleb128 1
 11539 02a0 0D       		.uleb128 0xd
 11540 02a1 02220000 		.4byte	.LASF55
 11541 02a5 02       		.sleb128 2
 11542 02a6 0D       		.uleb128 0xd
 11543 02a7 DD020000 		.4byte	.LASF56
 11544 02ab 03       		.sleb128 3
 11545 02ac 0D       		.uleb128 0xd
 11546 02ad 6D200000 		.4byte	.LASF57
 11547 02b1 04       		.sleb128 4
 11548 02b2 0D       		.uleb128 0xd
 11549 02b3 51020000 		.4byte	.LASF58
 11550 02b7 05       		.sleb128 5
 11551 02b8 0D       		.uleb128 0xd
 11552 02b9 6F050000 		.4byte	.LASF59
 11553 02bd 06       		.sleb128 6
 11554 02be 0D       		.uleb128 0xd
 11555 02bf EB170000 		.4byte	.LASF60
 11556 02c3 07       		.sleb128 7
 11557 02c4 0D       		.uleb128 0xd
 11558 02c5 FF000000 		.4byte	.LASF61
 11559 02c9 08       		.sleb128 8
 11560 02ca 0D       		.uleb128 0xd
 11561 02cb D6150000 		.4byte	.LASF62
 11562 02cf 09       		.sleb128 9
 11563 02d0 0D       		.uleb128 0xd
 11564 02d1 BE080000 		.4byte	.LASF63
 11565 02d5 0A       		.sleb128 10
 11566 02d6 0D       		.uleb128 0xd
 11567 02d7 6D0A0000 		.4byte	.LASF64
 11568 02db 0B       		.sleb128 11
 11569 02dc 0D       		.uleb128 0xd
 11570 02dd FA030000 		.4byte	.LASF65
 11571 02e1 0C       		.sleb128 12
 11572 02e2 0D       		.uleb128 0xd
 11573 02e3 D2200000 		.4byte	.LASF66
 11574 02e7 0D       		.sleb128 13
 11575 02e8 0D       		.uleb128 0xd
 11576 02e9 30250000 		.4byte	.LASF67
 11577 02ed 0E       		.sleb128 14
 11578 02ee 0D       		.uleb128 0xd
 11579 02ef 870D0000 		.4byte	.LASF68
 11580 02f3 0F       		.sleb128 15
ARM GAS  C:\Users\RECEPC~1\AppData\Local\Temp\ccQD6Oev.s 			page 253


 11581 02f4 0D       		.uleb128 0xd
 11582 02f5 3C090000 		.4byte	.LASF69
 11583 02f9 10       		.sleb128 16
 11584 02fa 0D       		.uleb128 0xd
 11585 02fb BE280000 		.4byte	.LASF70
 11586 02ff 11       		.sleb128 17
 11587 0300 0D       		.uleb128 0xd
 11588 0301 B4240000 		.4byte	.LASF71
 11589 0305 12       		.sleb128 18
 11590 0306 0D       		.uleb128 0xd
 11591 0307 56050000 		.4byte	.LASF72
 11592 030b 13       		.sleb128 19
 11593 030c 0D       		.uleb128 0xd
 11594 030d C61C0000 		.4byte	.LASF73
 11595 0311 14       		.sleb128 20
 11596 0312 0D       		.uleb128 0xd
 11597 0313 FB080000 		.4byte	.LASF74
 11598 0317 15       		.sleb128 21
 11599 0318 0D       		.uleb128 0xd
 11600 0319 1F170000 		.4byte	.LASF75
 11601 031d 16       		.sleb128 22
 11602 031e 0D       		.uleb128 0xd
 11603 031f 47100000 		.4byte	.LASF76
 11604 0323 17       		.sleb128 23
 11605 0324 0D       		.uleb128 0xd
 11606 0325 39060000 		.4byte	.LASF77
 11607 0329 18       		.sleb128 24
 11608 032a 0D       		.uleb128 0xd
 11609 032b 112A0000 		.4byte	.LASF78
 11610 032f 19       		.sleb128 25
 11611 0330 0D       		.uleb128 0xd
 11612 0331 D8220000 		.4byte	.LASF79
 11613 0335 1A       		.sleb128 26
 11614 0336 0D       		.uleb128 0xd
 11615 0337 920A0000 		.4byte	.LASF80
 11616 033b 1B       		.sleb128 27
 11617 033c 0D       		.uleb128 0xd
 11618 033d 8B120000 		.4byte	.LASF81
 11619 0341 1C       		.sleb128 28
 11620 0342 0D       		.uleb128 0xd
 11621 0343 2E2C0000 		.4byte	.LASF82
 11622 0347 1D       		.sleb128 29
 11623 0348 0D       		.uleb128 0xd
 11624 0349 95280000 		.4byte	.LASF83
 11625 034d 1E       		.sleb128 30
 11626 034e 0D       		.uleb128 0xd
 11627 034f F1240000 		.4byte	.LASF84
 11628 0353 1F       		.sleb128 31
 11629 0354 0D       		.uleb128 0xd
 11630 0355 BD030000 		.4byte	.LASF85
 11631 0359 20       		.sleb128 32
 11632 035a 0D       		.uleb128 0xd
 11633 035b 7D0C0000 		.4byte	.LASF86
 11634 035f 21       		.sleb128 33
 11635 0360 0D       		.uleb128 0xd
 11636 0361 D1070000 		.4byte	.LASF87
 11637 0365 22       		.sleb128 34
ARM GAS  C:\Users\RECEPC~1\AppData\Local\Temp\ccQD6Oev.s 			page 254


 11638 0366 0D       		.uleb128 0xd
 11639 0367 1E240000 		.4byte	.LASF88
 11640 036b 23       		.sleb128 35
 11641 036c 0D       		.uleb128 0xd
 11642 036d B60E0000 		.4byte	.LASF89
 11643 0371 24       		.sleb128 36
 11644 0372 0D       		.uleb128 0xd
 11645 0373 480A0000 		.4byte	.LASF90
 11646 0377 25       		.sleb128 37
 11647 0378 0D       		.uleb128 0xd
 11648 0379 6B280000 		.4byte	.LASF91
 11649 037d 26       		.sleb128 38
 11650 037e 0D       		.uleb128 0xd
 11651 037f BF020000 		.4byte	.LASF92
 11652 0383 27       		.sleb128 39
 11653 0384 0D       		.uleb128 0xd
 11654 0385 772B0000 		.4byte	.LASF93
 11655 0389 28       		.sleb128 40
 11656 038a 0D       		.uleb128 0xd
 11657 038b 851C0000 		.4byte	.LASF94
 11658 038f 29       		.sleb128 41
 11659 0390 0D       		.uleb128 0xd
 11660 0391 39050000 		.4byte	.LASF95
 11661 0395 2A       		.sleb128 42
 11662 0396 0D       		.uleb128 0xd
 11663 0397 ED160000 		.4byte	.LASF96
 11664 039b 2B       		.sleb128 43
 11665 039c 00       		.byte	0
 11666 039d 14       		.uleb128 0x14
 11667 039e 1F1B0000 		.4byte	.LASF98
 11668 03a2 4C       		.byte	0x4c
 11669 03a3 08       		.byte	0x8
 11670 03a4 2C       		.byte	0x2c
 11671 03a5 8E040000 		.4byte	0x48e
 11672 03a9 0F       		.uleb128 0xf
 11673 03aa FF200000 		.4byte	.LASF99
 11674 03ae 08       		.byte	0x8
 11675 03af 2E       		.byte	0x2e
 11676 03b0 97000000 		.4byte	0x97
 11677 03b4 00       		.byte	0
 11678 03b5 0F       		.uleb128 0xf
 11679 03b6 3B110000 		.4byte	.LASF100
 11680 03ba 08       		.byte	0x8
 11681 03bb 31       		.byte	0x31
 11682 03bc 77020000 		.4byte	0x277
 11683 03c0 04       		.byte	0x4
 11684 03c1 0F       		.uleb128 0xf
 11685 03c2 5F1E0000 		.4byte	.LASF101
 11686 03c6 08       		.byte	0x8
 11687 03c7 34       		.byte	0x34
 11688 03c8 03010000 		.4byte	0x103
 11689 03cc 08       		.byte	0x8
 11690 03cd 0F       		.uleb128 0xf
 11691 03ce 15040000 		.4byte	.LASF102
 11692 03d2 08       		.byte	0x8
 11693 03d3 35       		.byte	0x35
 11694 03d4 03010000 		.4byte	0x103
ARM GAS  C:\Users\RECEPC~1\AppData\Local\Temp\ccQD6Oev.s 			page 255


 11695 03d8 0C       		.byte	0xc
 11696 03d9 0F       		.uleb128 0xf
 11697 03da 82200000 		.4byte	.LASF103
 11698 03de 08       		.byte	0x8
 11699 03df 36       		.byte	0x36
 11700 03e0 93040000 		.4byte	0x493
 11701 03e4 10       		.byte	0x10
 11702 03e5 0F       		.uleb128 0xf
 11703 03e6 701C0000 		.4byte	.LASF104
 11704 03ea 08       		.byte	0x8
 11705 03eb 37       		.byte	0x37
 11706 03ec A4040000 		.4byte	0x4a4
 11707 03f0 14       		.byte	0x14
 11708 03f1 0F       		.uleb128 0xf
 11709 03f2 52250000 		.4byte	.LASF105
 11710 03f6 08       		.byte	0x8
 11711 03f7 39       		.byte	0x39
 11712 03f8 93040000 		.4byte	0x493
 11713 03fc 18       		.byte	0x18
 11714 03fd 0F       		.uleb128 0xf
 11715 03fe 370F0000 		.4byte	.LASF106
 11716 0402 08       		.byte	0x8
 11717 0403 3A       		.byte	0x3a
 11718 0404 93040000 		.4byte	0x493
 11719 0408 1C       		.byte	0x1c
 11720 0409 0F       		.uleb128 0xf
 11721 040a BE0B0000 		.4byte	.LASF107
 11722 040e 08       		.byte	0x8
 11723 040f 3B       		.byte	0x3b
 11724 0410 93040000 		.4byte	0x493
 11725 0414 20       		.byte	0x20
 11726 0415 0F       		.uleb128 0xf
 11727 0416 B2210000 		.4byte	.LASF108
 11728 041a 08       		.byte	0x8
 11729 041b 3C       		.byte	0x3c
 11730 041c AF040000 		.4byte	0x4af
 11731 0420 24       		.byte	0x24
 11732 0421 0F       		.uleb128 0xf
 11733 0422 ED1C0000 		.4byte	.LASF109
 11734 0426 08       		.byte	0x8
 11735 0427 3D       		.byte	0x3d
 11736 0428 AF040000 		.4byte	0x4af
 11737 042c 28       		.byte	0x28
 11738 042d 0F       		.uleb128 0xf
 11739 042e B00B0000 		.4byte	.LASF110
 11740 0432 08       		.byte	0x8
 11741 0433 3E       		.byte	0x3e
 11742 0434 03010000 		.4byte	0x103
 11743 0438 2C       		.byte	0x2c
 11744 0439 0F       		.uleb128 0xf
 11745 043a 050E0000 		.4byte	.LASF111
 11746 043e 08       		.byte	0x8
 11747 043f 40       		.byte	0x40
 11748 0440 A4040000 		.4byte	0x4a4
 11749 0444 30       		.byte	0x30
 11750 0445 0F       		.uleb128 0xf
 11751 0446 701A0000 		.4byte	.LASF112
ARM GAS  C:\Users\RECEPC~1\AppData\Local\Temp\ccQD6Oev.s 			page 256


 11752 044a 08       		.byte	0x8
 11753 044b 41       		.byte	0x41
 11754 044c 93040000 		.4byte	0x493
 11755 0450 34       		.byte	0x34
 11756 0451 0F       		.uleb128 0xf
 11757 0452 16240000 		.4byte	.LASF113
 11758 0456 08       		.byte	0x8
 11759 0457 42       		.byte	0x42
 11760 0458 A4040000 		.4byte	0x4a4
 11761 045c 38       		.byte	0x38
 11762 045d 0F       		.uleb128 0xf
 11763 045e FC100000 		.4byte	.LASF114
 11764 0462 08       		.byte	0x8
 11765 0463 43       		.byte	0x43
 11766 0464 CB040000 		.4byte	0x4cb
 11767 0468 3C       		.byte	0x3c
 11768 0469 0F       		.uleb128 0xf
 11769 046a FD1F0000 		.4byte	.LASF115
 11770 046e 08       		.byte	0x8
 11771 046f 44       		.byte	0x44
 11772 0470 EC040000 		.4byte	0x4ec
 11773 0474 40       		.byte	0x40
 11774 0475 0F       		.uleb128 0xf
 11775 0476 B50F0000 		.4byte	.LASF116
 11776 047a 08       		.byte	0x8
 11777 047b 45       		.byte	0x45
 11778 047c A4040000 		.4byte	0x4a4
 11779 0480 44       		.byte	0x44
 11780 0481 0F       		.uleb128 0xf
 11781 0482 3D180000 		.4byte	.LASF117
 11782 0486 08       		.byte	0x8
 11783 0487 46       		.byte	0x46
 11784 0488 03010000 		.4byte	0x103
 11785 048c 48       		.byte	0x48
 11786 048d 00       		.byte	0
 11787 048e 15       		.uleb128 0x15
 11788 048f 97000000 		.4byte	0x97
 11789 0493 07       		.uleb128 0x7
 11790 0494 04       		.byte	0x4
 11791 0495 8E040000 		.4byte	0x48e
 11792 0499 12       		.uleb128 0x12
 11793 049a A4040000 		.4byte	0x4a4
 11794 049e 13       		.uleb128 0x13
 11795 049f 97000000 		.4byte	0x97
 11796 04a3 00       		.byte	0
 11797 04a4 07       		.uleb128 0x7
 11798 04a5 04       		.byte	0x4
 11799 04a6 99040000 		.4byte	0x499
 11800 04aa 15       		.uleb128 0x15
 11801 04ab A3000000 		.4byte	0xa3
 11802 04af 07       		.uleb128 0x7
 11803 04b0 04       		.byte	0x4
 11804 04b1 AA040000 		.4byte	0x4aa
 11805 04b5 12       		.uleb128 0x12
 11806 04b6 C0040000 		.4byte	0x4c0
 11807 04ba 13       		.uleb128 0x13
 11808 04bb C0040000 		.4byte	0x4c0
ARM GAS  C:\Users\RECEPC~1\AppData\Local\Temp\ccQD6Oev.s 			page 257


 11809 04bf 00       		.byte	0
 11810 04c0 07       		.uleb128 0x7
 11811 04c1 04       		.byte	0x4
 11812 04c2 C6040000 		.4byte	0x4c6
 11813 04c6 16       		.uleb128 0x16
 11814 04c7 E1000000 		.4byte	0xe1
 11815 04cb 07       		.uleb128 0x7
 11816 04cc 04       		.byte	0x4
 11817 04cd B5040000 		.4byte	0x4b5
 11818 04d1 12       		.uleb128 0x12
 11819 04d2 E1040000 		.4byte	0x4e1
 11820 04d6 13       		.uleb128 0x13
 11821 04d7 E1040000 		.4byte	0x4e1
 11822 04db 13       		.uleb128 0x13
 11823 04dc 97000000 		.4byte	0x97
 11824 04e0 00       		.byte	0
 11825 04e1 07       		.uleb128 0x7
 11826 04e2 04       		.byte	0x4
 11827 04e3 E7040000 		.4byte	0x4e7
 11828 04e7 16       		.uleb128 0x16
 11829 04e8 97000000 		.4byte	0x97
 11830 04ec 07       		.uleb128 0x7
 11831 04ed 04       		.byte	0x4
 11832 04ee D1040000 		.4byte	0x4d1
 11833 04f2 03       		.uleb128 0x3
 11834 04f3 1A040000 		.4byte	.LASF118
 11835 04f7 08       		.byte	0x8
 11836 04f8 48       		.byte	0x48
 11837 04f9 9D030000 		.4byte	0x39d
 11838 04fd 0C       		.uleb128 0xc
 11839 04fe 25070000 		.4byte	.LASF119
 11840 0502 01       		.byte	0x1
 11841 0503 08       		.byte	0x8
 11842 0504 51       		.byte	0x51
 11843 0505 1F050000 		.4byte	0x51f
 11844 0509 0D       		.uleb128 0xd
 11845 050a 570D0000 		.4byte	.LASF120
 11846 050e C001     		.sleb128 192
 11847 0510 0D       		.uleb128 0xd
 11848 0511 06240000 		.4byte	.LASF121
 11849 0515 C101     		.sleb128 193
 11850 0517 0D       		.uleb128 0xd
 11851 0518 750C0000 		.4byte	.LASF122
 11852 051c C201     		.sleb128 194
 11853 051e 00       		.byte	0
 11854 051f 0E       		.uleb128 0xe
 11855 0520 651E0000 		.4byte	.LASF123
 11856 0524 0C01     		.2byte	0x10c
 11857 0526 08       		.byte	0x8
 11858 0527 59       		.byte	0x59
 11859 0528 6B050000 		.4byte	0x56b
 11860 052c 0F       		.uleb128 0xf
 11861 052d 17280000 		.4byte	.LASF42
 11862 0531 08       		.byte	0x8
 11863 0532 5B       		.byte	0x5b
 11864 0533 F4000000 		.4byte	0xf4
 11865 0537 00       		.byte	0
ARM GAS  C:\Users\RECEPC~1\AppData\Local\Temp\ccQD6Oev.s 			page 258


 11866 0538 0F       		.uleb128 0xf
 11867 0539 1C010000 		.4byte	.LASF124
 11868 053d 08       		.byte	0x8
 11869 053e 5C       		.byte	0x5c
 11870 053f F9000000 		.4byte	0xf9
 11871 0543 02       		.byte	0x2
 11872 0544 0F       		.uleb128 0xf
 11873 0545 E8040000 		.4byte	.LASF125
 11874 0549 08       		.byte	0x8
 11875 054a 5D       		.byte	0x5d
 11876 054b 6B050000 		.4byte	0x56b
 11877 054f 04       		.byte	0x4
 11878 0550 10       		.uleb128 0x10
 11879 0551 D0290000 		.4byte	.LASF126
 11880 0555 08       		.byte	0x8
 11881 0556 5E       		.byte	0x5e
 11882 0557 8B050000 		.4byte	0x58b
 11883 055b 0401     		.2byte	0x104
 11884 055d 10       		.uleb128 0x10
 11885 055e F82B0000 		.4byte	.LASF127
 11886 0562 08       		.byte	0x8
 11887 0563 60       		.byte	0x60
 11888 0564 91050000 		.4byte	0x591
 11889 0568 0801     		.2byte	0x108
 11890 056a 00       		.byte	0
 11891 056b 0A       		.uleb128 0xa
 11892 056c E1000000 		.4byte	0xe1
 11893 0570 7B050000 		.4byte	0x57b
 11894 0574 0B       		.uleb128 0xb
 11895 0575 0A010000 		.4byte	0x10a
 11896 0579 FF       		.byte	0xff
 11897 057a 00       		.byte	0
 11898 057b 12       		.uleb128 0x12
 11899 057c 8B050000 		.4byte	0x58b
 11900 0580 13       		.uleb128 0x13
 11901 0581 97000000 		.4byte	0x97
 11902 0585 13       		.uleb128 0x13
 11903 0586 3B010000 		.4byte	0x13b
 11904 058a 00       		.byte	0
 11905 058b 07       		.uleb128 0x7
 11906 058c 04       		.byte	0x4
 11907 058d 7B050000 		.4byte	0x57b
 11908 0591 07       		.uleb128 0x7
 11909 0592 04       		.byte	0x4
 11910 0593 F2040000 		.4byte	0x4f2
 11911 0597 03       		.uleb128 0x3
 11912 0598 CB1E0000 		.4byte	.LASF128
 11913 059c 08       		.byte	0x8
 11914 059d 61       		.byte	0x61
 11915 059e A2050000 		.4byte	0x5a2
 11916 05a2 07       		.uleb128 0x7
 11917 05a3 04       		.byte	0x4
 11918 05a4 1F050000 		.4byte	0x51f
 11919 05a8 0C       		.uleb128 0xc
 11920 05a9 8F250000 		.4byte	.LASF129
 11921 05ad 01       		.byte	0x1
 11922 05ae 08       		.byte	0x8
ARM GAS  C:\Users\RECEPC~1\AppData\Local\Temp\ccQD6Oev.s 			page 259


 11923 05af 6D       		.byte	0x6d
 11924 05b0 DF050000 		.4byte	0x5df
 11925 05b4 0D       		.uleb128 0xd
 11926 05b5 64020000 		.4byte	.LASF130
 11927 05b9 A001     		.sleb128 160
 11928 05bb 0D       		.uleb128 0xd
 11929 05bc F10E0000 		.4byte	.LASF131
 11930 05c0 A101     		.sleb128 161
 11931 05c2 0D       		.uleb128 0xd
 11932 05c3 5C160000 		.4byte	.LASF132
 11933 05c7 A201     		.sleb128 162
 11934 05c9 0D       		.uleb128 0xd
 11935 05ca B4090000 		.4byte	.LASF133
 11936 05ce A301     		.sleb128 163
 11937 05d0 0D       		.uleb128 0xd
 11938 05d1 C2090000 		.4byte	.LASF134
 11939 05d5 A401     		.sleb128 164
 11940 05d7 0D       		.uleb128 0xd
 11941 05d8 A91B0000 		.4byte	.LASF135
 11942 05dc A501     		.sleb128 165
 11943 05de 00       		.byte	0
 11944 05df 0C       		.uleb128 0xc
 11945 05e0 A9080000 		.4byte	.LASF136
 11946 05e4 01       		.byte	0x1
 11947 05e5 09       		.byte	0x9
 11948 05e6 21       		.byte	0x21
 11949 05e7 52070000 		.4byte	0x752
 11950 05eb 0D       		.uleb128 0xd
 11951 05ec B0110000 		.4byte	.LASF137
 11952 05f0 01       		.sleb128 1
 11953 05f1 0D       		.uleb128 0xd
 11954 05f2 C0110000 		.4byte	.LASF138
 11955 05f6 02       		.sleb128 2
 11956 05f7 0D       		.uleb128 0xd
 11957 05f8 D0110000 		.4byte	.LASF139
 11958 05fc 03       		.sleb128 3
 11959 05fd 0D       		.uleb128 0xd
 11960 05fe B41F0000 		.4byte	.LASF140
 11961 0602 04       		.sleb128 4
 11962 0603 0D       		.uleb128 0xd
 11963 0604 E1100000 		.4byte	.LASF141
 11964 0608 05       		.sleb128 5
 11965 0609 0D       		.uleb128 0xd
 11966 060a CF0C0000 		.4byte	.LASF142
 11967 060e 06       		.sleb128 6
 11968 060f 0D       		.uleb128 0xd
 11969 0610 98070000 		.4byte	.LASF143
 11970 0614 0F       		.sleb128 15
 11971 0615 0D       		.uleb128 0xd
 11972 0616 F2180000 		.4byte	.LASF144
 11973 061a FE00     		.sleb128 126
 11974 061c 0D       		.uleb128 0xd
 11975 061d 0F190000 		.4byte	.LASF145
 11976 0621 8601     		.sleb128 134
 11977 0623 0D       		.uleb128 0xd
 11978 0624 76010000 		.4byte	.LASF146
 11979 0628 07       		.sleb128 7
ARM GAS  C:\Users\RECEPC~1\AppData\Local\Temp\ccQD6Oev.s 			page 260


 11980 0629 0D       		.uleb128 0xd
 11981 062a 96220000 		.4byte	.LASF147
 11982 062e 08       		.sleb128 8
 11983 062f 0D       		.uleb128 0xd
 11984 0630 19100000 		.4byte	.LASF148
 11985 0634 09       		.sleb128 9
 11986 0635 0D       		.uleb128 0xd
 11987 0636 001B0000 		.4byte	.LASF149
 11988 063a 0A       		.sleb128 10
 11989 063b 0D       		.uleb128 0xd
 11990 063c A1170000 		.4byte	.LASF150
 11991 0640 0B       		.sleb128 11
 11992 0641 0D       		.uleb128 0xd
 11993 0642 34170000 		.4byte	.LASF151
 11994 0646 25       		.sleb128 37
 11995 0647 0D       		.uleb128 0xd
 11996 0648 7B180000 		.4byte	.LASF152
 11997 064c 26       		.sleb128 38
 11998 064d 0D       		.uleb128 0xd
 11999 064e 4E190000 		.4byte	.LASF153
 12000 0652 27       		.sleb128 39
 12001 0653 0D       		.uleb128 0xd
 12002 0654 1C1F0000 		.4byte	.LASF154
 12003 0658 2F       		.sleb128 47
 12004 0659 0D       		.uleb128 0xd
 12005 065a 8F0B0000 		.4byte	.LASF155
 12006 065e 2C       		.sleb128 44
 12007 065f 0D       		.uleb128 0xd
 12008 0660 BF170000 		.4byte	.LASF156
 12009 0664 0C       		.sleb128 12
 12010 0665 0D       		.uleb128 0xd
 12011 0666 7C0B0000 		.4byte	.LASF157
 12012 066a 8501     		.sleb128 133
 12013 066c 0D       		.uleb128 0xd
 12014 066d BD1A0000 		.4byte	.LASF158
 12015 0671 1C       		.sleb128 28
 12016 0672 0D       		.uleb128 0xd
 12017 0673 5B1F0000 		.4byte	.LASF159
 12018 0677 12       		.sleb128 18
 12019 0678 0D       		.uleb128 0xd
 12020 0679 6B160000 		.4byte	.LASF160
 12021 067d 13       		.sleb128 19
 12022 067e 0D       		.uleb128 0xd
 12023 067f 50260000 		.4byte	.LASF161
 12024 0683 24       		.sleb128 36
 12025 0684 0D       		.uleb128 0xd
 12026 0685 58230000 		.4byte	.LASF162
 12027 0689 0D       		.sleb128 13
 12028 068a 0D       		.uleb128 0xd
 12029 068b FE090000 		.4byte	.LASF163
 12030 068f 0E       		.sleb128 14
 12031 0690 0D       		.uleb128 0xd
 12032 0691 901E0000 		.4byte	.LASF164
 12033 0695 8301     		.sleb128 131
 12034 0697 0D       		.uleb128 0xd
 12035 0698 D0040000 		.4byte	.LASF165
 12036 069c DA00     		.sleb128 90
ARM GAS  C:\Users\RECEPC~1\AppData\Local\Temp\ccQD6Oev.s 			page 261


 12037 069e 0D       		.uleb128 0xd
 12038 069f 3F030000 		.4byte	.LASF166
 12039 06a3 31       		.sleb128 49
 12040 06a4 0D       		.uleb128 0xd
 12041 06a5 0A150000 		.4byte	.LASF167
 12042 06a9 35       		.sleb128 53
 12043 06aa 0D       		.uleb128 0xd
 12044 06ab 590C0000 		.4byte	.LASF168
 12045 06af 2E       		.sleb128 46
 12046 06b0 0D       		.uleb128 0xd
 12047 06b1 741E0000 		.4byte	.LASF169
 12048 06b5 8C01     		.sleb128 140
 12049 06b7 0D       		.uleb128 0xd
 12050 06b8 180D0000 		.4byte	.LASF170
 12051 06bc 9601     		.sleb128 150
 12052 06be 0D       		.uleb128 0xd
 12053 06bf A70A0000 		.4byte	.LASF171
 12054 06c3 39       		.sleb128 57
 12055 06c4 0D       		.uleb128 0xd
 12056 06c5 83170000 		.4byte	.LASF172
 12057 06c9 9701     		.sleb128 151
 12058 06cb 0D       		.uleb128 0xd
 12059 06cc 7D2C0000 		.4byte	.LASF173
 12060 06d0 9801     		.sleb128 152
 12061 06d2 0D       		.uleb128 0xd
 12062 06d3 6A1D0000 		.4byte	.LASF174
 12063 06d7 3E       		.sleb128 62
 12064 06d8 0D       		.uleb128 0xd
 12065 06d9 CB220000 		.4byte	.LASF175
 12066 06dd 3F       		.sleb128 63
 12067 06de 0D       		.uleb128 0xd
 12068 06df FF0A0000 		.4byte	.LASF176
 12069 06e3 C000     		.sleb128 64
 12070 06e5 0D       		.uleb128 0xd
 12071 06e6 9B270000 		.4byte	.LASF177
 12072 06ea 8D01     		.sleb128 141
 12073 06ec 0D       		.uleb128 0xd
 12074 06ed 88040000 		.4byte	.LASF178
 12075 06f1 23       		.sleb128 35
 12076 06f2 0D       		.uleb128 0xd
 12077 06f3 250C0000 		.4byte	.LASF179
 12078 06f7 2A       		.sleb128 42
 12079 06f8 0D       		.uleb128 0xd
 12080 06f9 95230000 		.4byte	.LASF180
 12081 06fd 2B       		.sleb128 43
 12082 06fe 0D       		.uleb128 0xd
 12083 06ff 0E0C0000 		.4byte	.LASF181
 12084 0703 3C       		.sleb128 60
 12085 0704 0D       		.uleb128 0xd
 12086 0705 34120000 		.4byte	.LASF182
 12087 0709 C100     		.sleb128 65
 12088 070b 0D       		.uleb128 0xd
 12089 070c 800E0000 		.4byte	.LASF183
 12090 0710 EB00     		.sleb128 107
 12091 0712 0D       		.uleb128 0xd
 12092 0713 FE160000 		.4byte	.LASF184
 12093 0717 E700     		.sleb128 103
ARM GAS  C:\Users\RECEPC~1\AppData\Local\Temp\ccQD6Oev.s 			page 262


 12094 0719 0D       		.uleb128 0xd
 12095 071a B2070000 		.4byte	.LASF185
 12096 071e E400     		.sleb128 100
 12097 0720 0D       		.uleb128 0xd
 12098 0721 63240000 		.4byte	.LASF186
 12099 0725 E500     		.sleb128 101
 12100 0727 0D       		.uleb128 0xd
 12101 0728 AC140000 		.4byte	.LASF187
 12102 072c 9901     		.sleb128 153
 12103 072e 0D       		.uleb128 0xd
 12104 072f BB140000 		.4byte	.LASF188
 12105 0733 9A01     		.sleb128 154
 12106 0735 0D       		.uleb128 0xd
 12107 0736 CA140000 		.4byte	.LASF189
 12108 073a 9B01     		.sleb128 155
 12109 073c 0D       		.uleb128 0xd
 12110 073d D9140000 		.4byte	.LASF190
 12111 0741 9C01     		.sleb128 156
 12112 0743 0D       		.uleb128 0xd
 12113 0744 4F1D0000 		.4byte	.LASF191
 12114 0748 FA01     		.sleb128 250
 12115 074a 0D       		.uleb128 0xd
 12116 074b 90240000 		.4byte	.LASF192
 12117 074f FF01     		.sleb128 255
 12118 0751 00       		.byte	0
 12119 0752 17       		.uleb128 0x17
 12120 0753 01       		.byte	0x1
 12121 0754 09       		.byte	0x9
 12122 0755 82       		.byte	0x82
 12123 0756 67070000 		.4byte	0x767
 12124 075a 0D       		.uleb128 0xd
 12125 075b 46000000 		.4byte	.LASF193
 12126 075f 00       		.sleb128 0
 12127 0760 0D       		.uleb128 0xd
 12128 0761 4F000000 		.4byte	.LASF194
 12129 0765 01       		.sleb128 1
 12130 0766 00       		.byte	0
 12131 0767 07       		.uleb128 0x7
 12132 0768 04       		.byte	0x4
 12133 0769 6D070000 		.4byte	0x76d
 12134 076d 18       		.uleb128 0x18
 12135 076e 54020000 		.4byte	0x254
 12136 0772 7C070000 		.4byte	0x77c
 12137 0776 13       		.uleb128 0x13
 12138 0777 11010000 		.4byte	0x111
 12139 077b 00       		.byte	0
 12140 077c 03       		.uleb128 0x3
 12141 077d 440F0000 		.4byte	.LASF195
 12142 0781 0A       		.byte	0xa
 12143 0782 23       		.byte	0x23
 12144 0783 13010000 		.4byte	0x113
 12145 0787 03       		.uleb128 0x3
 12146 0788 81280000 		.4byte	.LASF196
 12147 078c 0A       		.byte	0xa
 12148 078d 24       		.byte	0x24
 12149 078e 4C010000 		.4byte	0x14c
 12150 0792 0C       		.uleb128 0xc
ARM GAS  C:\Users\RECEPC~1\AppData\Local\Temp\ccQD6Oev.s 			page 263


 12151 0793 CF1D0000 		.4byte	.LASF197
 12152 0797 01       		.byte	0x1
 12153 0798 0A       		.byte	0xa
 12154 0799 60       		.byte	0x60
 12155 079a AB070000 		.4byte	0x7ab
 12156 079e 0D       		.uleb128 0xd
 12157 079f 95150000 		.4byte	.LASF198
 12158 07a3 00       		.sleb128 0
 12159 07a4 0D       		.uleb128 0xd
 12160 07a5 64210000 		.4byte	.LASF199
 12161 07a9 01       		.sleb128 1
 12162 07aa 00       		.byte	0
 12163 07ab 0C       		.uleb128 0xc
 12164 07ac 69040000 		.4byte	.LASF200
 12165 07b0 01       		.byte	0x1
 12166 07b1 0A       		.byte	0xa
 12167 07b2 78       		.byte	0x78
 12168 07b3 F3070000 		.4byte	0x7f3
 12169 07b7 0D       		.uleb128 0xd
 12170 07b8 041E0000 		.4byte	.LASF201
 12171 07bc 00       		.sleb128 0
 12172 07bd 0D       		.uleb128 0xd
 12173 07be 3E010000 		.4byte	.LASF202
 12174 07c2 10       		.sleb128 16
 12175 07c3 0D       		.uleb128 0xd
 12176 07c4 D7280000 		.4byte	.LASF203
 12177 07c8 20       		.sleb128 32
 12178 07c9 0D       		.uleb128 0xd
 12179 07ca 4A240000 		.4byte	.LASF204
 12180 07ce 30       		.sleb128 48
 12181 07cf 0D       		.uleb128 0xd
 12182 07d0 2E270000 		.4byte	.LASF205
 12183 07d4 C000     		.sleb128 64
 12184 07d6 0D       		.uleb128 0xd
 12185 07d7 F60F0000 		.4byte	.LASF206
 12186 07db D000     		.sleb128 80
 12187 07dd 0D       		.uleb128 0xd
 12188 07de E6060000 		.4byte	.LASF207
 12189 07e2 E000     		.sleb128 96
 12190 07e4 0D       		.uleb128 0xd
 12191 07e5 9A030000 		.4byte	.LASF208
 12192 07e9 F000     		.sleb128 112
 12193 07eb 0D       		.uleb128 0xd
 12194 07ec 2C190000 		.4byte	.LASF209
 12195 07f0 FC01     		.sleb128 252
 12196 07f2 00       		.byte	0
 12197 07f3 0C       		.uleb128 0xc
 12198 07f4 47210000 		.4byte	.LASF210
 12199 07f8 01       		.byte	0x1
 12200 07f9 0A       		.byte	0xa
 12201 07fa 87       		.byte	0x87
 12202 07fb 4D080000 		.4byte	0x84d
 12203 07ff 19       		.uleb128 0x19
 12204 0800 534F4D00 		.ascii	"SOM\000"
 12205 0804 FF01     		.sleb128 255
 12206 0806 19       		.uleb128 0x19
 12207 0807 56505400 		.ascii	"VPT\000"
ARM GAS  C:\Users\RECEPC~1\AppData\Local\Temp\ccQD6Oev.s 			page 264


 12208 080b F101     		.sleb128 241
 12209 080d 19       		.uleb128 0x19
 12210 080e 4D505400 		.ascii	"MPT\000"
 12211 0812 F201     		.sleb128 242
 12212 0814 19       		.uleb128 0x19
 12213 0815 48446E00 		.ascii	"HDn\000"
 12214 0819 F601     		.sleb128 246
 12215 081b 0D       		.uleb128 0xd
 12216 081c 5B270000 		.4byte	.LASF211
 12217 0820 F701     		.sleb128 247
 12218 0822 0D       		.uleb128 0xd
 12219 0823 C70E0000 		.4byte	.LASF212
 12220 0827 F801     		.sleb128 248
 12221 0829 19       		.uleb128 0x19
 12222 082a 56446E00 		.ascii	"VDn\000"
 12223 082e F901     		.sleb128 249
 12224 0830 19       		.uleb128 0x19
 12225 0831 4D446E00 		.ascii	"MDn\000"
 12226 0835 FA01     		.sleb128 250
 12227 0837 0D       		.uleb128 0xd
 12228 0838 A40C0000 		.4byte	.LASF213
 12229 083c FB01     		.sleb128 251
 12230 083e 19       		.uleb128 0x19
 12231 083f 53466E00 		.ascii	"SFn\000"
 12232 0843 FE01     		.sleb128 254
 12233 0845 19       		.uleb128 0x19
 12234 0846 454F4D00 		.ascii	"EOM\000"
 12235 084a F001     		.sleb128 240
 12236 084c 00       		.byte	0
 12237 084d 0C       		.uleb128 0xc
 12238 084e 4B2A0000 		.4byte	.LASF214
 12239 0852 01       		.byte	0x1
 12240 0853 0A       		.byte	0xa
 12241 0854 96       		.byte	0x96
 12242 0855 97080000 		.4byte	0x897
 12243 0859 0D       		.uleb128 0xd
 12244 085a 551E0000 		.4byte	.LASF215
 12245 085e 00       		.sleb128 0
 12246 085f 0D       		.uleb128 0xd
 12247 0860 E1260000 		.4byte	.LASF216
 12248 0864 06       		.sleb128 6
 12249 0865 0D       		.uleb128 0xd
 12250 0866 9E1C0000 		.4byte	.LASF217
 12251 086a 07       		.sleb128 7
 12252 086b 0D       		.uleb128 0xd
 12253 086c CD020000 		.4byte	.LASF218
 12254 0870 08       		.sleb128 8
 12255 0871 0D       		.uleb128 0xd
 12256 0872 0F100000 		.4byte	.LASF219
 12257 0876 09       		.sleb128 9
 12258 0877 0D       		.uleb128 0xd
 12259 0878 63200000 		.4byte	.LASF220
 12260 087c 0A       		.sleb128 10
 12261 087d 0D       		.uleb128 0xd
 12262 087e A41E0000 		.4byte	.LASF221
 12263 0882 0B       		.sleb128 11
 12264 0883 0D       		.uleb128 0xd
ARM GAS  C:\Users\RECEPC~1\AppData\Local\Temp\ccQD6Oev.s 			page 265


 12265 0884 372B0000 		.4byte	.LASF222
 12266 0888 0C       		.sleb128 12
 12267 0889 0D       		.uleb128 0xd
 12268 088a AA220000 		.4byte	.LASF223
 12269 088e 0D       		.sleb128 13
 12270 088f 0D       		.uleb128 0xd
 12271 0890 8D030000 		.4byte	.LASF224
 12272 0894 FF01     		.sleb128 255
 12273 0896 00       		.byte	0
 12274 0897 0C       		.uleb128 0xc
 12275 0898 78100000 		.4byte	.LASF225
 12276 089c 01       		.byte	0x1
 12277 089d 0A       		.byte	0xa
 12278 089e EB       		.byte	0xeb
 12279 089f 19090000 		.4byte	0x919
 12280 08a3 0D       		.uleb128 0xd
 12281 08a4 F1230000 		.4byte	.LASF226
 12282 08a8 0F       		.sleb128 15
 12283 08a9 0D       		.uleb128 0xd
 12284 08aa 171E0000 		.4byte	.LASF227
 12285 08ae 10       		.sleb128 16
 12286 08af 0D       		.uleb128 0xd
 12287 08b0 5A280000 		.4byte	.LASF228
 12288 08b4 C300     		.sleb128 67
 12289 08b6 0D       		.uleb128 0xd
 12290 08b7 47060000 		.4byte	.LASF229
 12291 08bb C400     		.sleb128 68
 12292 08bd 0D       		.uleb128 0xd
 12293 08be C3270000 		.4byte	.LASF230
 12294 08c2 C500     		.sleb128 69
 12295 08c4 0D       		.uleb128 0xd
 12296 08c5 EB1F0000 		.4byte	.LASF231
 12297 08c9 C600     		.sleb128 70
 12298 08cb 0D       		.uleb128 0xd
 12299 08cc 27230000 		.4byte	.LASF232
 12300 08d0 C700     		.sleb128 71
 12301 08d2 0D       		.uleb128 0xd
 12302 08d3 5B080000 		.4byte	.LASF233
 12303 08d7 C800     		.sleb128 72
 12304 08d9 0D       		.uleb128 0xd
 12305 08da 65140000 		.4byte	.LASF234
 12306 08de C900     		.sleb128 73
 12307 08e0 0D       		.uleb128 0xd
 12308 08e1 D71B0000 		.4byte	.LASF235
 12309 08e5 CA00     		.sleb128 74
 12310 08e7 0D       		.uleb128 0xd
 12311 08e8 8A280000 		.4byte	.LASF236
 12312 08ec CB00     		.sleb128 75
 12313 08ee 0D       		.uleb128 0xd
 12314 08ef 97060000 		.4byte	.LASF237
 12315 08f3 CC00     		.sleb128 76
 12316 08f5 0D       		.uleb128 0xd
 12317 08f6 D0090000 		.4byte	.LASF238
 12318 08fa CD00     		.sleb128 77
 12319 08fc 0D       		.uleb128 0xd
 12320 08fd 98140000 		.4byte	.LASF239
 12321 0901 CE00     		.sleb128 78
ARM GAS  C:\Users\RECEPC~1\AppData\Local\Temp\ccQD6Oev.s 			page 266


 12322 0903 0D       		.uleb128 0xd
 12323 0904 A81F0000 		.4byte	.LASF240
 12324 0908 CF00     		.sleb128 79
 12325 090a 0D       		.uleb128 0xd
 12326 090b 82270000 		.4byte	.LASF241
 12327 090f D000     		.sleb128 80
 12328 0911 0D       		.uleb128 0xd
 12329 0912 06110000 		.4byte	.LASF242
 12330 0916 D100     		.sleb128 81
 12331 0918 00       		.byte	0
 12332 0919 1A       		.uleb128 0x1a
 12333 091a 740F0000 		.4byte	.LASF243
 12334 091e 01       		.byte	0x1
 12335 091f 0A       		.byte	0xa
 12336 0920 0001     		.2byte	0x100
 12337 0922 39090000 		.4byte	0x939
 12338 0926 0D       		.uleb128 0xd
 12339 0927 48290000 		.4byte	.LASF244
 12340 092b 01       		.sleb128 1
 12341 092c 0D       		.uleb128 0xd
 12342 092d 610A0000 		.4byte	.LASF245
 12343 0931 02       		.sleb128 2
 12344 0932 0D       		.uleb128 0xd
 12345 0933 E8140000 		.4byte	.LASF246
 12346 0937 03       		.sleb128 3
 12347 0938 00       		.byte	0
 12348 0939 1A       		.uleb128 0x1a
 12349 093a 55040000 		.4byte	.LASF247
 12350 093e 01       		.byte	0x1
 12351 093f 0A       		.byte	0xa
 12352 0940 0D01     		.2byte	0x10d
 12353 0942 53090000 		.4byte	0x953
 12354 0946 0D       		.uleb128 0xd
 12355 0947 C7190000 		.4byte	.LASF248
 12356 094b 01       		.sleb128 1
 12357 094c 0D       		.uleb128 0xd
 12358 094d 5B220000 		.4byte	.LASF249
 12359 0951 02       		.sleb128 2
 12360 0952 00       		.byte	0
 12361 0953 1B       		.uleb128 0x1b
 12362 0954 0401     		.2byte	0x104
 12363 0956 0A       		.byte	0xa
 12364 0957 1A01     		.2byte	0x11a
 12365 0959 93090000 		.4byte	0x993
 12366 095d 1C       		.uleb128 0x1c
 12367 095e 38030000 		.4byte	.LASF250
 12368 0962 0A       		.byte	0xa
 12369 0963 1C01     		.2byte	0x11c
 12370 0965 97000000 		.4byte	0x97
 12371 0969 00       		.byte	0
 12372 096a 1C       		.uleb128 0x1c
 12373 096b 4A1E0000 		.4byte	.LASF251
 12374 096f 0A       		.byte	0xa
 12375 0970 1D01     		.2byte	0x11d
 12376 0972 97000000 		.4byte	0x97
 12377 0976 01       		.byte	0x1
 12378 0977 1C       		.uleb128 0x1c
ARM GAS  C:\Users\RECEPC~1\AppData\Local\Temp\ccQD6Oev.s 			page 267


 12379 0978 E7070000 		.4byte	.LASF47
 12380 097c 0A       		.byte	0xa
 12381 097d 1E01     		.2byte	0x11e
 12382 097f 93090000 		.4byte	0x993
 12383 0983 02       		.byte	0x2
 12384 0984 1D       		.uleb128 0x1d
 12385 0985 482C0000 		.4byte	.LASF48
 12386 0989 0A       		.byte	0xa
 12387 098a 1F01     		.2byte	0x11f
 12388 098c A3000000 		.4byte	0xa3
 12389 0990 0201     		.2byte	0x102
 12390 0992 00       		.byte	0
 12391 0993 0A       		.uleb128 0xa
 12392 0994 ED000000 		.4byte	0xed
 12393 0998 A3090000 		.4byte	0x9a3
 12394 099c 0B       		.uleb128 0xb
 12395 099d 0A010000 		.4byte	0x10a
 12396 09a1 FF       		.byte	0xff
 12397 09a2 00       		.byte	0
 12398 09a3 05       		.uleb128 0x5
 12399 09a4 FF2A0000 		.4byte	.LASF252
 12400 09a8 0A       		.byte	0xa
 12401 09a9 2101     		.2byte	0x121
 12402 09ab 53090000 		.4byte	0x953
 12403 09af 05       		.uleb128 0x5
 12404 09b0 14120000 		.4byte	.LASF253
 12405 09b4 0A       		.byte	0xa
 12406 09b5 2101     		.2byte	0x121
 12407 09b7 BB090000 		.4byte	0x9bb
 12408 09bb 07       		.uleb128 0x7
 12409 09bc 04       		.byte	0x4
 12410 09bd 53090000 		.4byte	0x953
 12411 09c1 1E       		.uleb128 0x1e
 12412 09c2 40       		.byte	0x40
 12413 09c3 0A       		.byte	0xa
 12414 09c4 2301     		.2byte	0x123
 12415 09c6 670A0000 		.4byte	0xa67
 12416 09ca 1C       		.uleb128 0x1c
 12417 09cb B9220000 		.4byte	.LASF254
 12418 09cf 0A       		.byte	0xa
 12419 09d0 2501     		.2byte	0x125
 12420 09d2 F4000000 		.4byte	0xf4
 12421 09d6 00       		.byte	0
 12422 09d7 1C       		.uleb128 0x1c
 12423 09d8 BF220000 		.4byte	.LASF255
 12424 09dc 0A       		.byte	0xa
 12425 09dd 2601     		.2byte	0x126
 12426 09df F4000000 		.4byte	0xf4
 12427 09e3 01       		.byte	0x1
 12428 09e4 1C       		.uleb128 0x1c
 12429 09e5 C5220000 		.4byte	.LASF256
 12430 09e9 0A       		.byte	0xa
 12431 09ea 2801     		.2byte	0x128
 12432 09ec F9000000 		.4byte	0xf9
 12433 09f0 02       		.byte	0x2
 12434 09f1 1C       		.uleb128 0x1c
 12435 09f2 B2200000 		.4byte	.LASF257
ARM GAS  C:\Users\RECEPC~1\AppData\Local\Temp\ccQD6Oev.s 			page 268


 12436 09f6 0A       		.byte	0xa
 12437 09f7 2901     		.2byte	0x129
 12438 09f9 F9000000 		.4byte	0xf9
 12439 09fd 04       		.byte	0x4
 12440 09fe 1C       		.uleb128 0x1c
 12441 09ff B8200000 		.4byte	.LASF258
 12442 0a03 0A       		.byte	0xa
 12443 0a04 2B01     		.2byte	0x12b
 12444 0a06 FE000000 		.4byte	0xfe
 12445 0a0a 08       		.byte	0x8
 12446 0a0b 1C       		.uleb128 0x1c
 12447 0a0c ED220000 		.4byte	.LASF259
 12448 0a10 0A       		.byte	0xa
 12449 0a11 2C01     		.2byte	0x12c
 12450 0a13 FE000000 		.4byte	0xfe
 12451 0a17 0C       		.byte	0xc
 12452 0a18 1C       		.uleb128 0x1c
 12453 0a19 F3220000 		.4byte	.LASF260
 12454 0a1d 0A       		.byte	0xa
 12455 0a1e 3101     		.2byte	0x131
 12456 0a20 670A0000 		.4byte	0xa67
 12457 0a24 10       		.byte	0x10
 12458 0a25 1C       		.uleb128 0x1c
 12459 0a26 F9220000 		.4byte	.LASF261
 12460 0a2a 0A       		.byte	0xa
 12461 0a2b 3201     		.2byte	0x132
 12462 0a2d 670A0000 		.4byte	0xa67
 12463 0a31 18       		.byte	0x18
 12464 0a32 1C       		.uleb128 0x1c
 12465 0a33 FF220000 		.4byte	.LASF262
 12466 0a37 0A       		.byte	0xa
 12467 0a38 3301     		.2byte	0x133
 12468 0a3a 670A0000 		.4byte	0xa67
 12469 0a3e 20       		.byte	0x20
 12470 0a3f 1C       		.uleb128 0x1c
 12471 0a40 05230000 		.4byte	.LASF263
 12472 0a44 0A       		.byte	0xa
 12473 0a45 3401     		.2byte	0x134
 12474 0a47 670A0000 		.4byte	0xa67
 12475 0a4b 28       		.byte	0x28
 12476 0a4c 1C       		.uleb128 0x1c
 12477 0a4d 3C230000 		.4byte	.LASF264
 12478 0a51 0A       		.byte	0xa
 12479 0a52 3601     		.2byte	0x136
 12480 0a54 6C0A0000 		.4byte	0xa6c
 12481 0a58 30       		.byte	0x30
 12482 0a59 1C       		.uleb128 0x1c
 12483 0a5a 42230000 		.4byte	.LASF265
 12484 0a5e 0A       		.byte	0xa
 12485 0a5f 3701     		.2byte	0x137
 12486 0a61 6C0A0000 		.4byte	0xa6c
 12487 0a65 38       		.byte	0x38
 12488 0a66 00       		.byte	0
 12489 0a67 06       		.uleb128 0x6
 12490 0a68 D5000000 		.4byte	0xd5
 12491 0a6c 06       		.uleb128 0x6
 12492 0a6d CE000000 		.4byte	0xce
ARM GAS  C:\Users\RECEPC~1\AppData\Local\Temp\ccQD6Oev.s 			page 269


 12493 0a71 05       		.uleb128 0x5
 12494 0a72 2C1A0000 		.4byte	.LASF266
 12495 0a76 0A       		.byte	0xa
 12496 0a77 3901     		.2byte	0x139
 12497 0a79 C1090000 		.4byte	0x9c1
 12498 0a7d 1E       		.uleb128 0x1e
 12499 0a7e 18       		.byte	0x18
 12500 0a7f 0A       		.byte	0xa
 12501 0a80 4101     		.2byte	0x141
 12502 0a82 E20A0000 		.4byte	0xae2
 12503 0a86 1C       		.uleb128 0x1c
 12504 0a87 E31D0000 		.4byte	.LASF267
 12505 0a8b 0A       		.byte	0xa
 12506 0a8c 4401     		.2byte	0x144
 12507 0a8e 4F020000 		.4byte	0x24f
 12508 0a92 00       		.byte	0
 12509 0a93 1C       		.uleb128 0x1c
 12510 0a94 F4050000 		.4byte	.LASF268
 12511 0a98 0A       		.byte	0xa
 12512 0a99 4501     		.2byte	0x145
 12513 0a9b F4000000 		.4byte	0xf4
 12514 0a9f 01       		.byte	0x1
 12515 0aa0 1C       		.uleb128 0x1c
 12516 0aa1 EE0F0000 		.4byte	.LASF269
 12517 0aa5 0A       		.byte	0xa
 12518 0aa6 4601     		.2byte	0x146
 12519 0aa8 F4000000 		.4byte	0xf4
 12520 0aac 02       		.byte	0x2
 12521 0aad 1C       		.uleb128 0x1c
 12522 0aae 5C1A0000 		.4byte	.LASF270
 12523 0ab2 0A       		.byte	0xa
 12524 0ab3 4701     		.2byte	0x147
 12525 0ab5 F9000000 		.4byte	0xf9
 12526 0ab9 04       		.byte	0x4
 12527 0aba 1C       		.uleb128 0x1c
 12528 0abb F1200000 		.4byte	.LASF271
 12529 0abf 0A       		.byte	0xa
 12530 0ac0 4801     		.2byte	0x148
 12531 0ac2 FE000000 		.4byte	0xfe
 12532 0ac6 08       		.byte	0x8
 12533 0ac7 1C       		.uleb128 0x1c
 12534 0ac8 E70D0000 		.4byte	.LASF272
 12535 0acc 0A       		.byte	0xa
 12536 0acd 4901     		.2byte	0x149
 12537 0acf FE000000 		.4byte	0xfe
 12538 0ad3 0C       		.byte	0xc
 12539 0ad4 1C       		.uleb128 0x1c
 12540 0ad5 100D0000 		.4byte	.LASF273
 12541 0ad9 0A       		.byte	0xa
 12542 0ada 4A01     		.2byte	0x14a
 12543 0adc E20A0000 		.4byte	0xae2
 12544 0ae0 10       		.byte	0x10
 12545 0ae1 00       		.byte	0
 12546 0ae2 0A       		.uleb128 0xa
 12547 0ae3 E1000000 		.4byte	0xe1
 12548 0ae7 F20A0000 		.4byte	0xaf2
 12549 0aeb 0B       		.uleb128 0xb
ARM GAS  C:\Users\RECEPC~1\AppData\Local\Temp\ccQD6Oev.s 			page 270


 12550 0aec 0A010000 		.4byte	0x10a
 12551 0af0 07       		.byte	0x7
 12552 0af1 00       		.byte	0
 12553 0af2 05       		.uleb128 0x5
 12554 0af3 17130000 		.4byte	.LASF274
 12555 0af7 0A       		.byte	0xa
 12556 0af8 4C01     		.2byte	0x14c
 12557 0afa 7D0A0000 		.4byte	0xa7d
 12558 0afe 1F       		.uleb128 0x1f
 12559 0aff BE160000 		.4byte	.LASF275
 12560 0b03 980B     		.2byte	0xb98
 12561 0b05 0A       		.byte	0xa
 12562 0b06 4F01     		.2byte	0x14f
 12563 0b08 FD0C0000 		.4byte	0xcfd
 12564 0b0c 1C       		.uleb128 0x1c
 12565 0b0d 86110000 		.4byte	.LASF276
 12566 0b11 0A       		.byte	0xa
 12567 0b12 5101     		.2byte	0x151
 12568 0b14 97000000 		.4byte	0x97
 12569 0b18 00       		.byte	0
 12570 0b19 1C       		.uleb128 0x1c
 12571 0b1a AC230000 		.4byte	.LASF277
 12572 0b1e 0A       		.byte	0xa
 12573 0b1f 5201     		.2byte	0x152
 12574 0b21 97000000 		.4byte	0x97
 12575 0b25 01       		.byte	0x1
 12576 0b26 1C       		.uleb128 0x1c
 12577 0b27 9E080000 		.4byte	.LASF278
 12578 0b2b 0A       		.byte	0xa
 12579 0b2c 5401     		.2byte	0x154
 12580 0b2e F4000000 		.4byte	0xf4
 12581 0b32 02       		.byte	0x2
 12582 0b33 1C       		.uleb128 0x1c
 12583 0b34 29210000 		.4byte	.LASF279
 12584 0b38 0A       		.byte	0xa
 12585 0b39 5501     		.2byte	0x155
 12586 0b3b F4000000 		.4byte	0xf4
 12587 0b3f 03       		.byte	0x3
 12588 0b40 1C       		.uleb128 0x1c
 12589 0b41 EB1E0000 		.4byte	.LASF280
 12590 0b45 0A       		.byte	0xa
 12591 0b46 5601     		.2byte	0x156
 12592 0b48 F4000000 		.4byte	0xf4
 12593 0b4c 04       		.byte	0x4
 12594 0b4d 1C       		.uleb128 0x1c
 12595 0b4e 67220000 		.4byte	.LASF281
 12596 0b52 0A       		.byte	0xa
 12597 0b53 5701     		.2byte	0x157
 12598 0b55 4F020000 		.4byte	0x24f
 12599 0b59 05       		.byte	0x5
 12600 0b5a 1C       		.uleb128 0x1c
 12601 0b5b 51010000 		.4byte	.LASF282
 12602 0b5f 0A       		.byte	0xa
 12603 0b60 5901     		.2byte	0x159
 12604 0b62 F4000000 		.4byte	0xf4
 12605 0b66 06       		.byte	0x6
 12606 0b67 1C       		.uleb128 0x1c
ARM GAS  C:\Users\RECEPC~1\AppData\Local\Temp\ccQD6Oev.s 			page 271


 12607 0b68 81230000 		.4byte	.LASF283
 12608 0b6c 0A       		.byte	0xa
 12609 0b6d 5A01     		.2byte	0x15a
 12610 0b6f F4000000 		.4byte	0xf4
 12611 0b73 07       		.byte	0x7
 12612 0b74 1C       		.uleb128 0x1c
 12613 0b75 E31D0000 		.4byte	.LASF267
 12614 0b79 0A       		.byte	0xa
 12615 0b7a 5C01     		.2byte	0x15c
 12616 0b7c 4F020000 		.4byte	0x24f
 12617 0b80 08       		.byte	0x8
 12618 0b81 1C       		.uleb128 0x1c
 12619 0b82 B2150000 		.4byte	.LASF284
 12620 0b86 0A       		.byte	0xa
 12621 0b87 5D01     		.2byte	0x15d
 12622 0b89 4F020000 		.4byte	0x24f
 12623 0b8d 09       		.byte	0x9
 12624 0b8e 1C       		.uleb128 0x1c
 12625 0b8f 81210000 		.4byte	.LASF285
 12626 0b93 0A       		.byte	0xa
 12627 0b94 5E01     		.2byte	0x15e
 12628 0b96 4F020000 		.4byte	0x24f
 12629 0b9a 0A       		.byte	0xa
 12630 0b9b 1C       		.uleb128 0x1c
 12631 0b9c DA230000 		.4byte	.LASF286
 12632 0ba0 0A       		.byte	0xa
 12633 0ba1 5F01     		.2byte	0x15f
 12634 0ba3 4F020000 		.4byte	0x24f
 12635 0ba7 0B       		.byte	0xb
 12636 0ba8 1C       		.uleb128 0x1c
 12637 0ba9 8D080000 		.4byte	.LASF287
 12638 0bad 0A       		.byte	0xa
 12639 0bae 6001     		.2byte	0x160
 12640 0bb0 F4000000 		.4byte	0xf4
 12641 0bb4 0C       		.byte	0xc
 12642 0bb5 1C       		.uleb128 0x1c
 12643 0bb6 5D0F0000 		.4byte	.LASF288
 12644 0bba 0A       		.byte	0xa
 12645 0bbb 6101     		.2byte	0x161
 12646 0bbd 4F020000 		.4byte	0x24f
 12647 0bc1 0D       		.byte	0xd
 12648 0bc2 1C       		.uleb128 0x1c
 12649 0bc3 22000000 		.4byte	.LASF289
 12650 0bc7 0A       		.byte	0xa
 12651 0bc8 6201     		.2byte	0x162
 12652 0bca F4000000 		.4byte	0xf4
 12653 0bce 0E       		.byte	0xe
 12654 0bcf 1C       		.uleb128 0x1c
 12655 0bd0 41290000 		.4byte	.LASF290
 12656 0bd4 0A       		.byte	0xa
 12657 0bd5 6401     		.2byte	0x164
 12658 0bd7 4F020000 		.4byte	0x24f
 12659 0bdb 0F       		.byte	0xf
 12660 0bdc 1C       		.uleb128 0x1c
 12661 0bdd 68190000 		.4byte	.LASF291
 12662 0be1 0A       		.byte	0xa
 12663 0be2 6601     		.2byte	0x166
ARM GAS  C:\Users\RECEPC~1\AppData\Local\Temp\ccQD6Oev.s 			page 272


 12664 0be4 FE000000 		.4byte	0xfe
 12665 0be8 10       		.byte	0x10
 12666 0be9 1C       		.uleb128 0x1c
 12667 0bea A5130000 		.4byte	.LASF292
 12668 0bee 0A       		.byte	0xa
 12669 0bef 6701     		.2byte	0x167
 12670 0bf1 FE000000 		.4byte	0xfe
 12671 0bf5 14       		.byte	0x14
 12672 0bf6 1C       		.uleb128 0x1c
 12673 0bf7 FD1C0000 		.4byte	.LASF293
 12674 0bfb 0A       		.byte	0xa
 12675 0bfc 6A01     		.2byte	0x16a
 12676 0bfe F4000000 		.4byte	0xf4
 12677 0c02 18       		.byte	0x18
 12678 0c03 1C       		.uleb128 0x1c
 12679 0c04 4A1E0000 		.4byte	.LASF251
 12680 0c08 0A       		.byte	0xa
 12681 0c09 6B01     		.2byte	0x16b
 12682 0c0b F4000000 		.4byte	0xf4
 12683 0c0f 19       		.byte	0x19
 12684 0c10 1C       		.uleb128 0x1c
 12685 0c11 06200000 		.4byte	.LASF294
 12686 0c15 0A       		.byte	0xa
 12687 0c16 6D01     		.2byte	0x16d
 12688 0c18 11010000 		.4byte	0x111
 12689 0c1c 1C       		.byte	0x1c
 12690 0c1d 1C       		.uleb128 0x1c
 12691 0c1e A5120000 		.4byte	.LASF295
 12692 0c22 0A       		.byte	0xa
 12693 0c23 6E01     		.2byte	0x16e
 12694 0c25 FD0C0000 		.4byte	0xcfd
 12695 0c29 20       		.byte	0x20
 12696 0c2a 1D       		.uleb128 0x1d
 12697 0c2b F5110000 		.4byte	.LASF296
 12698 0c2f 0A       		.byte	0xa
 12699 0c30 7001     		.2byte	0x170
 12700 0c32 FD0C0000 		.4byte	0xcfd
 12701 0c36 8801     		.2byte	0x188
 12702 0c38 1D       		.uleb128 0x1d
 12703 0c39 B1020000 		.4byte	.LASF297
 12704 0c3d 0A       		.byte	0xa
 12705 0c3e 7101     		.2byte	0x171
 12706 0c40 A3000000 		.4byte	0xa3
 12707 0c44 F002     		.2byte	0x2f0
 12708 0c46 1D       		.uleb128 0x1d
 12709 0c47 83050000 		.4byte	.LASF298
 12710 0c4b 0A       		.byte	0xa
 12711 0c4c 7501     		.2byte	0x175
 12712 0c4e 0E0D0000 		.4byte	0xd0e
 12713 0c52 F202     		.2byte	0x2f2
 12714 0c54 1D       		.uleb128 0x1d
 12715 0c55 DC0F0000 		.4byte	.LASF299
 12716 0c59 0A       		.byte	0xa
 12717 0c5a 7701     		.2byte	0x177
 12718 0c5c 4F020000 		.4byte	0x24f
 12719 0c60 120B     		.2byte	0xb12
 12720 0c62 1D       		.uleb128 0x1d
ARM GAS  C:\Users\RECEPC~1\AppData\Local\Temp\ccQD6Oev.s 			page 273


 12721 0c63 7D240000 		.4byte	.LASF300
 12722 0c67 0A       		.byte	0xa
 12723 0c68 7901     		.2byte	0x179
 12724 0c6a 77020000 		.4byte	0x277
 12725 0c6e 140B     		.2byte	0xb14
 12726 0c70 1D       		.uleb128 0x1d
 12727 0c71 E32B0000 		.4byte	.LASF301
 12728 0c75 0A       		.byte	0xa
 12729 0c76 7A01     		.2byte	0x17a
 12730 0c78 77020000 		.4byte	0x277
 12731 0c7c 180B     		.2byte	0xb18
 12732 0c7e 1D       		.uleb128 0x1d
 12733 0c7f BD290000 		.4byte	.LASF302
 12734 0c83 0A       		.byte	0xa
 12735 0c84 7B01     		.2byte	0x17b
 12736 0c86 320D0000 		.4byte	0xd32
 12737 0c8a 1C0B     		.2byte	0xb1c
 12738 0c8c 1D       		.uleb128 0x1d
 12739 0c8d 04250000 		.4byte	.LASF303
 12740 0c91 0A       		.byte	0xa
 12741 0c92 7C01     		.2byte	0x17c
 12742 0c94 480D0000 		.4byte	0xd48
 12743 0c98 200B     		.2byte	0xb20
 12744 0c9a 1D       		.uleb128 0x1d
 12745 0c9b CD060000 		.4byte	.LASF304
 12746 0c9f 0A       		.byte	0xa
 12747 0ca0 7D01     		.2byte	0x17d
 12748 0ca2 480D0000 		.4byte	0xd48
 12749 0ca6 240B     		.2byte	0xb24
 12750 0ca8 1D       		.uleb128 0x1d
 12751 0ca9 9D240000 		.4byte	.LASF305
 12752 0cad 0A       		.byte	0xa
 12753 0cae 7E01     		.2byte	0x17e
 12754 0cb0 5D0D0000 		.4byte	0xd5d
 12755 0cb4 280B     		.2byte	0xb28
 12756 0cb6 1D       		.uleb128 0x1d
 12757 0cb7 250E0000 		.4byte	.LASF306
 12758 0cbb 0A       		.byte	0xa
 12759 0cbc 7F01     		.2byte	0x17f
 12760 0cbe 5D0D0000 		.4byte	0xd5d
 12761 0cc2 2C0B     		.2byte	0xb2c
 12762 0cc4 1D       		.uleb128 0x1d
 12763 0cc5 60270000 		.4byte	.LASF307
 12764 0cc9 0A       		.byte	0xa
 12765 0cca 8101     		.2byte	0x181
 12766 0ccc 67070000 		.4byte	0x767
 12767 0cd0 300B     		.2byte	0xb30
 12768 0cd2 1D       		.uleb128 0x1d
 12769 0cd3 162B0000 		.4byte	.LASF308
 12770 0cd7 0A       		.byte	0xa
 12771 0cd8 8301     		.2byte	0x183
 12772 0cda 710A0000 		.4byte	0xa71
 12773 0cde 380B     		.2byte	0xb38
 12774 0ce0 1D       		.uleb128 0x1d
 12775 0ce1 6F270000 		.4byte	.LASF309
 12776 0ce5 0A       		.byte	0xa
 12777 0ce6 8401     		.2byte	0x184
ARM GAS  C:\Users\RECEPC~1\AppData\Local\Temp\ccQD6Oev.s 			page 274


 12778 0ce8 F20A0000 		.4byte	0xaf2
 12779 0cec 780B     		.2byte	0xb78
 12780 0cee 1D       		.uleb128 0x1d
 12781 0cef 531F0000 		.4byte	.LASF310
 12782 0cf3 0A       		.byte	0xa
 12783 0cf4 8601     		.2byte	0x186
 12784 0cf6 77020000 		.4byte	0x277
 12785 0cfa 900B     		.2byte	0xb90
 12786 0cfc 00       		.byte	0
 12787 0cfd 0A       		.uleb128 0xa
 12788 0cfe E1000000 		.4byte	0xe1
 12789 0d02 0E0D0000 		.4byte	0xd0e
 12790 0d06 11       		.uleb128 0x11
 12791 0d07 0A010000 		.4byte	0x10a
 12792 0d0b 6701     		.2byte	0x167
 12793 0d0d 00       		.byte	0
 12794 0d0e 0A       		.uleb128 0xa
 12795 0d0f A3090000 		.4byte	0x9a3
 12796 0d13 1E0D0000 		.4byte	0xd1e
 12797 0d17 0B       		.uleb128 0xb
 12798 0d18 0A010000 		.4byte	0x10a
 12799 0d1c 07       		.byte	0x7
 12800 0d1d 00       		.byte	0
 12801 0d1e 18       		.uleb128 0x18
 12802 0d1f 54020000 		.4byte	0x254
 12803 0d23 320D0000 		.4byte	0xd32
 12804 0d27 13       		.uleb128 0x13
 12805 0d28 11010000 		.4byte	0x111
 12806 0d2c 13       		.uleb128 0x13
 12807 0d2d 97000000 		.4byte	0x97
 12808 0d31 00       		.byte	0
 12809 0d32 07       		.uleb128 0x7
 12810 0d33 04       		.byte	0x4
 12811 0d34 1E0D0000 		.4byte	0xd1e
 12812 0d38 12       		.uleb128 0x12
 12813 0d39 480D0000 		.4byte	0xd48
 12814 0d3d 13       		.uleb128 0x13
 12815 0d3e 11010000 		.4byte	0x111
 12816 0d42 13       		.uleb128 0x13
 12817 0d43 AF090000 		.4byte	0x9af
 12818 0d47 00       		.byte	0
 12819 0d48 07       		.uleb128 0x7
 12820 0d49 04       		.byte	0x4
 12821 0d4a 380D0000 		.4byte	0xd38
 12822 0d4e 18       		.uleb128 0x18
 12823 0d4f AF090000 		.4byte	0x9af
 12824 0d53 5D0D0000 		.4byte	0xd5d
 12825 0d57 13       		.uleb128 0x13
 12826 0d58 11010000 		.4byte	0x111
 12827 0d5c 00       		.byte	0
 12828 0d5d 07       		.uleb128 0x7
 12829 0d5e 04       		.byte	0x4
 12830 0d5f 4E0D0000 		.4byte	0xd4e
 12831 0d63 05       		.uleb128 0x5
 12832 0d64 A31F0000 		.4byte	.LASF311
 12833 0d68 0A       		.byte	0xa
 12834 0d69 8801     		.2byte	0x188
ARM GAS  C:\Users\RECEPC~1\AppData\Local\Temp\ccQD6Oev.s 			page 275


 12835 0d6b FE0A0000 		.4byte	0xafe
 12836 0d6f 05       		.uleb128 0x5
 12837 0d70 BD1E0000 		.4byte	.LASF312
 12838 0d74 0A       		.byte	0xa
 12839 0d75 8801     		.2byte	0x188
 12840 0d77 7B0D0000 		.4byte	0xd7b
 12841 0d7b 07       		.uleb128 0x7
 12842 0d7c 04       		.byte	0x4
 12843 0d7d FE0A0000 		.4byte	0xafe
 12844 0d81 20       		.uleb128 0x20
 12845 0d82 B81D0000 		.4byte	.LASF313
 12846 0d86 34       		.byte	0x34
 12847 0d87 0A       		.byte	0xa
 12848 0d88 8D01     		.2byte	0x18d
 12849 0d8a 450E0000 		.4byte	0xe45
 12850 0d8e 1C       		.uleb128 0x1c
 12851 0d8f B7230000 		.4byte	.LASF314
 12852 0d93 0A       		.byte	0xa
 12853 0d94 8F01     		.2byte	0x18f
 12854 0d96 77020000 		.4byte	0x277
 12855 0d9a 00       		.byte	0
 12856 0d9b 1C       		.uleb128 0x1c
 12857 0d9c DC0B0000 		.4byte	.LASF315
 12858 0da0 0A       		.byte	0xa
 12859 0da1 9001     		.2byte	0x190
 12860 0da3 77020000 		.4byte	0x277
 12861 0da7 04       		.byte	0x4
 12862 0da8 1C       		.uleb128 0x1c
 12863 0da9 431F0000 		.4byte	.LASF316
 12864 0dad 0A       		.byte	0xa
 12865 0dae 9101     		.2byte	0x191
 12866 0db0 77020000 		.4byte	0x277
 12867 0db4 08       		.byte	0x8
 12868 0db5 1C       		.uleb128 0x1c
 12869 0db6 89000000 		.4byte	.LASF317
 12870 0dba 0A       		.byte	0xa
 12871 0dbb 9201     		.2byte	0x192
 12872 0dbd 5E0E0000 		.4byte	0xe5e
 12873 0dc1 0C       		.byte	0xc
 12874 0dc2 1C       		.uleb128 0x1c
 12875 0dc3 09290000 		.4byte	.LASF318
 12876 0dc7 0A       		.byte	0xa
 12877 0dc8 9301     		.2byte	0x193
 12878 0dca A3000000 		.4byte	0xa3
 12879 0dce 10       		.byte	0x10
 12880 0dcf 1C       		.uleb128 0x1c
 12881 0dd0 BE200000 		.4byte	.LASF319
 12882 0dd4 0A       		.byte	0xa
 12883 0dd5 9401     		.2byte	0x194
 12884 0dd7 AF000000 		.4byte	0xaf
 12885 0ddb 14       		.byte	0x14
 12886 0ddc 1C       		.uleb128 0x1c
 12887 0ddd FF110000 		.4byte	.LASF320
 12888 0de1 0A       		.byte	0xa
 12889 0de2 9501     		.2byte	0x195
 12890 0de4 97000000 		.4byte	0x97
 12891 0de8 18       		.byte	0x18
ARM GAS  C:\Users\RECEPC~1\AppData\Local\Temp\ccQD6Oev.s 			page 276


 12892 0de9 1C       		.uleb128 0x1c
 12893 0dea 44280000 		.4byte	.LASF321
 12894 0dee 0A       		.byte	0xa
 12895 0def 9701     		.2byte	0x197
 12896 0df1 54020000 		.4byte	0x254
 12897 0df5 19       		.byte	0x19
 12898 0df6 1C       		.uleb128 0x1c
 12899 0df7 DB0E0000 		.4byte	.LASF322
 12900 0dfb 0A       		.byte	0xa
 12901 0dfc 9B01     		.2byte	0x19b
 12902 0dfe 640E0000 		.4byte	0xe64
 12903 0e02 1A       		.byte	0x1a
 12904 0e03 1C       		.uleb128 0x1c
 12905 0e04 AE1E0000 		.4byte	.LASF323
 12906 0e08 0A       		.byte	0xa
 12907 0e09 9D01     		.2byte	0x19d
 12908 0e0b 19010000 		.4byte	0x119
 12909 0e0f 1E       		.byte	0x1e
 12910 0e10 1C       		.uleb128 0x1c
 12911 0e11 991A0000 		.4byte	.LASF324
 12912 0e15 0A       		.byte	0xa
 12913 0e16 A101     		.2byte	0x1a1
 12914 0e18 640E0000 		.4byte	0xe64
 12915 0e1c 22       		.byte	0x22
 12916 0e1d 1C       		.uleb128 0x1c
 12917 0e1e F3040000 		.4byte	.LASF325
 12918 0e22 0A       		.byte	0xa
 12919 0e23 A301     		.2byte	0x1a3
 12920 0e25 19010000 		.4byte	0x119
 12921 0e29 26       		.byte	0x26
 12922 0e2a 1C       		.uleb128 0x1c
 12923 0e2b D1050000 		.4byte	.LASF326
 12924 0e2f 0A       		.byte	0xa
 12925 0e30 A501     		.2byte	0x1a5
 12926 0e32 77020000 		.4byte	0x277
 12927 0e36 2C       		.byte	0x2c
 12928 0e37 1C       		.uleb128 0x1c
 12929 0e38 C0150000 		.4byte	.LASF327
 12930 0e3c 0A       		.byte	0xa
 12931 0e3d A601     		.2byte	0x1a6
 12932 0e3f 77020000 		.4byte	0x277
 12933 0e43 30       		.byte	0x30
 12934 0e44 00       		.byte	0
 12935 0e45 18       		.uleb128 0x18
 12936 0e46 54020000 		.4byte	0x254
 12937 0e4a 5E0E0000 		.4byte	0xe5e
 12938 0e4e 13       		.uleb128 0x13
 12939 0e4f 11010000 		.4byte	0x111
 12940 0e53 13       		.uleb128 0x13
 12941 0e54 11010000 		.4byte	0x111
 12942 0e58 13       		.uleb128 0x13
 12943 0e59 A3000000 		.4byte	0xa3
 12944 0e5d 00       		.byte	0
 12945 0e5e 07       		.uleb128 0x7
 12946 0e5f 04       		.byte	0x4
 12947 0e60 450E0000 		.4byte	0xe45
 12948 0e64 0A       		.uleb128 0xa
ARM GAS  C:\Users\RECEPC~1\AppData\Local\Temp\ccQD6Oev.s 			page 277


 12949 0e65 54020000 		.4byte	0x254
 12950 0e69 740E0000 		.4byte	0xe74
 12951 0e6d 0B       		.uleb128 0xb
 12952 0e6e 0A010000 		.4byte	0x10a
 12953 0e72 03       		.byte	0x3
 12954 0e73 00       		.byte	0
 12955 0e74 05       		.uleb128 0x5
 12956 0e75 2D0B0000 		.4byte	.LASF328
 12957 0e79 0A       		.byte	0xa
 12958 0e7a A701     		.2byte	0x1a7
 12959 0e7c 810D0000 		.4byte	0xd81
 12960 0e80 1F       		.uleb128 0x1f
 12961 0e81 2B010000 		.4byte	.LASF329
 12962 0e85 AC03     		.2byte	0x3ac
 12963 0e87 0A       		.byte	0xa
 12964 0e88 A901     		.2byte	0x1a9
 12965 0e8a A90E0000 		.4byte	0xea9
 12966 0e8e 1C       		.uleb128 0x1c
 12967 0e8f 72170000 		.4byte	.LASF330
 12968 0e93 0A       		.byte	0xa
 12969 0e94 AB01     		.2byte	0x1ab
 12970 0e96 81000000 		.4byte	0x81
 12971 0e9a 00       		.byte	0
 12972 0e9b 1C       		.uleb128 0x1c
 12973 0e9c 85020000 		.4byte	.LASF331
 12974 0ea0 0A       		.byte	0xa
 12975 0ea1 AC01     		.2byte	0x1ac
 12976 0ea3 A90E0000 		.4byte	0xea9
 12977 0ea7 04       		.byte	0x4
 12978 0ea8 00       		.byte	0
 12979 0ea9 0A       		.uleb128 0xa
 12980 0eaa 740E0000 		.4byte	0xe74
 12981 0eae B90E0000 		.4byte	0xeb9
 12982 0eb2 0B       		.uleb128 0xb
 12983 0eb3 0A010000 		.4byte	0x10a
 12984 0eb7 11       		.byte	0x11
 12985 0eb8 00       		.byte	0
 12986 0eb9 05       		.uleb128 0x5
 12987 0eba 6C0D0000 		.4byte	.LASF332
 12988 0ebe 0A       		.byte	0xa
 12989 0ebf AD01     		.2byte	0x1ad
 12990 0ec1 800E0000 		.4byte	0xe80
 12991 0ec5 1E       		.uleb128 0x1e
 12992 0ec6 28       		.byte	0x28
 12993 0ec7 0A       		.byte	0xa
 12994 0ec8 B601     		.2byte	0x1b6
 12995 0eca 9F0F0000 		.4byte	0xf9f
 12996 0ece 1C       		.uleb128 0x1c
 12997 0ecf 0D0B0000 		.4byte	.LASF333
 12998 0ed3 0A       		.byte	0xa
 12999 0ed4 B801     		.2byte	0x1b8
 13000 0ed6 4F020000 		.4byte	0x24f
 13001 0eda 00       		.byte	0
 13002 0edb 1C       		.uleb128 0x1c
 13003 0edc 252B0000 		.4byte	.LASF334
 13004 0ee0 0A       		.byte	0xa
 13005 0ee1 B901     		.2byte	0x1b9
ARM GAS  C:\Users\RECEPC~1\AppData\Local\Temp\ccQD6Oev.s 			page 278


 13006 0ee3 F4000000 		.4byte	0xf4
 13007 0ee7 01       		.byte	0x1
 13008 0ee8 1C       		.uleb128 0x1c
 13009 0ee9 38030000 		.4byte	.LASF250
 13010 0eed 0A       		.byte	0xa
 13011 0eee BC01     		.2byte	0x1bc
 13012 0ef0 F4000000 		.4byte	0xf4
 13013 0ef4 02       		.byte	0x2
 13014 0ef5 1C       		.uleb128 0x1c
 13015 0ef6 B5130000 		.4byte	.LASF335
 13016 0efa 0A       		.byte	0xa
 13017 0efb BE01     		.2byte	0x1be
 13018 0efd F9000000 		.4byte	0xf9
 13019 0f01 04       		.byte	0x4
 13020 0f02 1C       		.uleb128 0x1c
 13021 0f03 3E1A0000 		.4byte	.LASF336
 13022 0f07 0A       		.byte	0xa
 13023 0f08 BF01     		.2byte	0x1bf
 13024 0f0a F9000000 		.4byte	0xf9
 13025 0f0e 06       		.byte	0x6
 13026 0f0f 1C       		.uleb128 0x1c
 13027 0f10 6A260000 		.4byte	.LASF337
 13028 0f14 0A       		.byte	0xa
 13029 0f15 C101     		.2byte	0x1c1
 13030 0f17 F9000000 		.4byte	0xf9
 13031 0f1b 08       		.byte	0x8
 13032 0f1c 1C       		.uleb128 0x1c
 13033 0f1d B0270000 		.4byte	.LASF338
 13034 0f21 0A       		.byte	0xa
 13035 0f22 C201     		.2byte	0x1c2
 13036 0f24 F9000000 		.4byte	0xf9
 13037 0f28 0A       		.byte	0xa
 13038 0f29 1C       		.uleb128 0x1c
 13039 0f2a BF000000 		.4byte	.LASF339
 13040 0f2e 0A       		.byte	0xa
 13041 0f2f C301     		.2byte	0x1c3
 13042 0f31 F9000000 		.4byte	0xf9
 13043 0f35 0C       		.byte	0xc
 13044 0f36 1C       		.uleb128 0x1c
 13045 0f37 DD1C0000 		.4byte	.LASF340
 13046 0f3b 0A       		.byte	0xa
 13047 0f3c C501     		.2byte	0x1c5
 13048 0f3e F9000000 		.4byte	0xf9
 13049 0f42 0E       		.byte	0xe
 13050 0f43 1C       		.uleb128 0x1c
 13051 0f44 81160000 		.4byte	.LASF341
 13052 0f48 0A       		.byte	0xa
 13053 0f49 C601     		.2byte	0x1c6
 13054 0f4b F9000000 		.4byte	0xf9
 13055 0f4f 10       		.byte	0x10
 13056 0f50 1C       		.uleb128 0x1c
 13057 0f51 48080000 		.4byte	.LASF342
 13058 0f55 0A       		.byte	0xa
 13059 0f56 C701     		.2byte	0x1c7
 13060 0f58 F9000000 		.4byte	0xf9
 13061 0f5c 12       		.byte	0x12
 13062 0f5d 1C       		.uleb128 0x1c
ARM GAS  C:\Users\RECEPC~1\AppData\Local\Temp\ccQD6Oev.s 			page 279


 13063 0f5e 18160000 		.4byte	.LASF343
 13064 0f62 0A       		.byte	0xa
 13065 0f63 C901     		.2byte	0x1c9
 13066 0f65 9F0F0000 		.4byte	0xf9f
 13067 0f69 14       		.byte	0x14
 13068 0f6a 1C       		.uleb128 0x1c
 13069 0f6b 3A0C0000 		.4byte	.LASF344
 13070 0f6f 0A       		.byte	0xa
 13071 0f70 CA01     		.2byte	0x1ca
 13072 0f72 9F0F0000 		.4byte	0xf9f
 13073 0f76 18       		.byte	0x18
 13074 0f77 1C       		.uleb128 0x1c
 13075 0f78 6D0F0000 		.4byte	.LASF345
 13076 0f7c 0A       		.byte	0xa
 13077 0f7d CB01     		.2byte	0x1cb
 13078 0f7f A50F0000 		.4byte	0xfa5
 13079 0f83 1C       		.byte	0x1c
 13080 0f84 1C       		.uleb128 0x1c
 13081 0f85 CD150000 		.4byte	.LASF50
 13082 0f89 0A       		.byte	0xa
 13083 0f8a CD01     		.2byte	0x1cd
 13084 0f8c 77020000 		.4byte	0x277
 13085 0f90 20       		.byte	0x20
 13086 0f91 1C       		.uleb128 0x1c
 13087 0f92 79150000 		.4byte	.LASF49
 13088 0f96 0A       		.byte	0xa
 13089 0f97 CE01     		.2byte	0x1ce
 13090 0f99 11010000 		.4byte	0x111
 13091 0f9d 24       		.byte	0x24
 13092 0f9e 00       		.byte	0
 13093 0f9f 07       		.uleb128 0x7
 13094 0fa0 04       		.byte	0x4
 13095 0fa1 740E0000 		.4byte	0xe74
 13096 0fa5 07       		.uleb128 0x7
 13097 0fa6 04       		.byte	0x4
 13098 0fa7 630D0000 		.4byte	0xd63
 13099 0fab 05       		.uleb128 0x5
 13100 0fac 38200000 		.4byte	.LASF346
 13101 0fb0 0A       		.byte	0xa
 13102 0fb1 D001     		.2byte	0x1d0
 13103 0fb3 C50E0000 		.4byte	0xec5
 13104 0fb7 05       		.uleb128 0x5
 13105 0fb8 201C0000 		.4byte	.LASF347
 13106 0fbc 0A       		.byte	0xa
 13107 0fbd D001     		.2byte	0x1d0
 13108 0fbf C30F0000 		.4byte	0xfc3
 13109 0fc3 07       		.uleb128 0x7
 13110 0fc4 04       		.byte	0x4
 13111 0fc5 C50E0000 		.4byte	0xec5
 13112 0fc9 1F       		.uleb128 0x1f
 13113 0fca 74020000 		.4byte	.LASF348
 13114 0fce 5407     		.2byte	0x754
 13115 0fd0 0A       		.byte	0xa
 13116 0fd1 D201     		.2byte	0x1d2
 13117 0fd3 54100000 		.4byte	0x1054
 13118 0fd7 1C       		.uleb128 0x1c
 13119 0fd8 531B0000 		.4byte	.LASF349
ARM GAS  C:\Users\RECEPC~1\AppData\Local\Temp\ccQD6Oev.s 			page 280


 13120 0fdc 0A       		.byte	0xa
 13121 0fdd D401     		.2byte	0x1d4
 13122 0fdf F9000000 		.4byte	0xf9
 13123 0fe3 00       		.byte	0
 13124 0fe4 1C       		.uleb128 0x1c
 13125 0fe5 701F0000 		.4byte	.LASF350
 13126 0fe9 0A       		.byte	0xa
 13127 0fea D601     		.2byte	0x1d6
 13128 0fec 54100000 		.4byte	0x1054
 13129 0ff0 04       		.byte	0x4
 13130 0ff1 1D       		.uleb128 0x1d
 13131 0ff2 EA090000 		.4byte	.LASF351
 13132 0ff6 0A       		.byte	0xa
 13133 0ff7 D701     		.2byte	0x1d7
 13134 0ff9 64100000 		.4byte	0x1064
 13135 0ffd 9406     		.2byte	0x694
 13136 0fff 1D       		.uleb128 0x1d
 13137 1000 0D120000 		.4byte	.LASF352
 13138 1004 0A       		.byte	0xa
 13139 1005 D901     		.2byte	0x1d9
 13140 1007 77020000 		.4byte	0x277
 13141 100b 3C07     		.2byte	0x73c
 13142 100d 1D       		.uleb128 0x1d
 13143 100e FB1D0000 		.4byte	.LASF353
 13144 1012 0A       		.byte	0xa
 13145 1013 DA01     		.2byte	0x1da
 13146 1015 89100000 		.4byte	0x1089
 13147 1019 4007     		.2byte	0x740
 13148 101b 1D       		.uleb128 0x1d
 13149 101c ED120000 		.4byte	.LASF354
 13150 1020 0A       		.byte	0xa
 13151 1021 DB01     		.2byte	0x1db
 13152 1023 9F100000 		.4byte	0x109f
 13153 1027 4407     		.2byte	0x744
 13154 1029 1D       		.uleb128 0x1d
 13155 102a 200E0000 		.4byte	.LASF355
 13156 102e 0A       		.byte	0xa
 13157 102f DC01     		.2byte	0x1dc
 13158 1031 89100000 		.4byte	0x1089
 13159 1035 4807     		.2byte	0x748
 13160 1037 1D       		.uleb128 0x1d
 13161 1038 28250000 		.4byte	.LASF356
 13162 103c 0A       		.byte	0xa
 13163 103d DD01     		.2byte	0x1dd
 13164 103f 77020000 		.4byte	0x277
 13165 1043 4C07     		.2byte	0x74c
 13166 1045 1D       		.uleb128 0x1d
 13167 1046 24110000 		.4byte	.LASF357
 13168 104a 0A       		.byte	0xa
 13169 104b DE01     		.2byte	0x1de
 13170 104d 77020000 		.4byte	0x277
 13171 1051 5007     		.2byte	0x750
 13172 1053 00       		.byte	0
 13173 1054 0A       		.uleb128 0xa
 13174 1055 AB0F0000 		.4byte	0xfab
 13175 1059 64100000 		.4byte	0x1064
 13176 105d 0B       		.uleb128 0xb
ARM GAS  C:\Users\RECEPC~1\AppData\Local\Temp\ccQD6Oev.s 			page 281


 13177 105e 0A010000 		.4byte	0x10a
 13178 1062 29       		.byte	0x29
 13179 1063 00       		.byte	0
 13180 1064 0A       		.uleb128 0xa
 13181 1065 74100000 		.4byte	0x1074
 13182 1069 74100000 		.4byte	0x1074
 13183 106d 0B       		.uleb128 0xb
 13184 106e 0A010000 		.4byte	0x10a
 13185 1072 29       		.byte	0x29
 13186 1073 00       		.byte	0
 13187 1074 07       		.uleb128 0x7
 13188 1075 04       		.byte	0x4
 13189 1076 AB0F0000 		.4byte	0xfab
 13190 107a 18       		.uleb128 0x18
 13191 107b 74100000 		.4byte	0x1074
 13192 107f 89100000 		.4byte	0x1089
 13193 1083 13       		.uleb128 0x13
 13194 1084 11010000 		.4byte	0x111
 13195 1088 00       		.byte	0
 13196 1089 07       		.uleb128 0x7
 13197 108a 04       		.byte	0x4
 13198 108b 7A100000 		.4byte	0x107a
 13199 108f 12       		.uleb128 0x12
 13200 1090 9F100000 		.4byte	0x109f
 13201 1094 13       		.uleb128 0x13
 13202 1095 11010000 		.4byte	0x111
 13203 1099 13       		.uleb128 0x13
 13204 109a 74100000 		.4byte	0x1074
 13205 109e 00       		.byte	0
 13206 109f 07       		.uleb128 0x7
 13207 10a0 04       		.byte	0x4
 13208 10a1 8F100000 		.4byte	0x108f
 13209 10a5 05       		.uleb128 0x5
 13210 10a6 48040000 		.4byte	.LASF358
 13211 10aa 0A       		.byte	0xa
 13212 10ab E001     		.2byte	0x1e0
 13213 10ad C90F0000 		.4byte	0xfc9
 13214 10b1 1E       		.uleb128 0x1e
 13215 10b2 14       		.byte	0x14
 13216 10b3 0A       		.byte	0xa
 13217 10b4 EC01     		.2byte	0x1ec
 13218 10b6 9B110000 		.4byte	0x119b
 13219 10ba 1C       		.uleb128 0x1c
 13220 10bb 54140000 		.4byte	.LASF359
 13221 10bf 0A       		.byte	0xa
 13222 10c0 EE01     		.2byte	0x1ee
 13223 10c2 4F020000 		.4byte	0x24f
 13224 10c6 00       		.byte	0
 13225 10c7 1C       		.uleb128 0x1c
 13226 10c8 52200000 		.4byte	.LASF360
 13227 10cc 0A       		.byte	0xa
 13228 10cd EF01     		.2byte	0x1ef
 13229 10cf 4F020000 		.4byte	0x24f
 13230 10d3 01       		.byte	0x1
 13231 10d4 1C       		.uleb128 0x1c
 13232 10d5 B70C0000 		.4byte	.LASF361
 13233 10d9 0A       		.byte	0xa
ARM GAS  C:\Users\RECEPC~1\AppData\Local\Temp\ccQD6Oev.s 			page 282


 13234 10da F301     		.2byte	0x1f3
 13235 10dc 97000000 		.4byte	0x97
 13236 10e0 02       		.byte	0x2
 13237 10e1 1C       		.uleb128 0x1c
 13238 10e2 DB1E0000 		.4byte	.LASF362
 13239 10e6 0A       		.byte	0xa
 13240 10e7 0102     		.2byte	0x201
 13241 10e9 97000000 		.4byte	0x97
 13242 10ed 03       		.byte	0x3
 13243 10ee 1C       		.uleb128 0x1c
 13244 10ef D70D0000 		.4byte	.LASF363
 13245 10f3 0A       		.byte	0xa
 13246 10f4 0202     		.2byte	0x202
 13247 10f6 97000000 		.4byte	0x97
 13248 10fa 04       		.byte	0x4
 13249 10fb 1C       		.uleb128 0x1c
 13250 10fc FC1E0000 		.4byte	.LASF364
 13251 1100 0A       		.byte	0xa
 13252 1101 0302     		.2byte	0x203
 13253 1103 97000000 		.4byte	0x97
 13254 1107 05       		.byte	0x5
 13255 1108 1C       		.uleb128 0x1c
 13256 1109 0C1F0000 		.4byte	.LASF365
 13257 110d 0A       		.byte	0xa
 13258 110e 0402     		.2byte	0x204
 13259 1110 97000000 		.4byte	0x97
 13260 1114 06       		.byte	0x6
 13261 1115 1C       		.uleb128 0x1c
 13262 1116 280F0000 		.4byte	.LASF366
 13263 111a 0A       		.byte	0xa
 13264 111b 0602     		.2byte	0x206
 13265 111d 97000000 		.4byte	0x97
 13266 1121 07       		.byte	0x7
 13267 1122 1C       		.uleb128 0x1c
 13268 1123 79110000 		.4byte	.LASF367
 13269 1127 0A       		.byte	0xa
 13270 1128 0702     		.2byte	0x207
 13271 112a 97000000 		.4byte	0x97
 13272 112e 08       		.byte	0x8
 13273 112f 1C       		.uleb128 0x1c
 13274 1130 C10D0000 		.4byte	.LASF368
 13275 1134 0A       		.byte	0xa
 13276 1135 0802     		.2byte	0x208
 13277 1137 97000000 		.4byte	0x97
 13278 113b 09       		.byte	0x9
 13279 113c 1C       		.uleb128 0x1c
 13280 113d 3A000000 		.4byte	.LASF369
 13281 1141 0A       		.byte	0xa
 13282 1142 0A02     		.2byte	0x20a
 13283 1144 97000000 		.4byte	0x97
 13284 1148 0A       		.byte	0xa
 13285 1149 1C       		.uleb128 0x1c
 13286 114a 490F0000 		.4byte	.LASF370
 13287 114e 0A       		.byte	0xa
 13288 114f 0C02     		.2byte	0x20c
 13289 1151 A3000000 		.4byte	0xa3
 13290 1155 0C       		.byte	0xc
ARM GAS  C:\Users\RECEPC~1\AppData\Local\Temp\ccQD6Oev.s 			page 283


 13291 1156 1C       		.uleb128 0x1c
 13292 1157 331F0000 		.4byte	.LASF371
 13293 115b 0A       		.byte	0xa
 13294 115c 0D02     		.2byte	0x20d
 13295 115e A3000000 		.4byte	0xa3
 13296 1162 0E       		.byte	0xe
 13297 1163 1C       		.uleb128 0x1c
 13298 1164 A92B0000 		.4byte	.LASF372
 13299 1168 0A       		.byte	0xa
 13300 1169 0F02     		.2byte	0x20f
 13301 116b 97000000 		.4byte	0x97
 13302 116f 10       		.byte	0x10
 13303 1170 1C       		.uleb128 0x1c
 13304 1171 960C0000 		.4byte	.LASF373
 13305 1175 0A       		.byte	0xa
 13306 1176 1102     		.2byte	0x211
 13307 1178 97000000 		.4byte	0x97
 13308 117c 11       		.byte	0x11
 13309 117d 1C       		.uleb128 0x1c
 13310 117e 12000000 		.4byte	.LASF374
 13311 1182 0A       		.byte	0xa
 13312 1183 1302     		.2byte	0x213
 13313 1185 97000000 		.4byte	0x97
 13314 1189 12       		.byte	0x12
 13315 118a 21       		.uleb128 0x21
 13316 118b 691B0000 		.4byte	.LASF584
 13317 118f 0A       		.byte	0xa
 13318 1190 1502     		.2byte	0x215
 13319 1192 97000000 		.4byte	0x97
 13320 1196 01       		.byte	0x1
 13321 1197 01       		.byte	0x1
 13322 1198 07       		.byte	0x7
 13323 1199 13       		.byte	0x13
 13324 119a 00       		.byte	0
 13325 119b 05       		.uleb128 0x5
 13326 119c BA210000 		.4byte	.LASF375
 13327 11a0 0A       		.byte	0xa
 13328 11a1 1602     		.2byte	0x216
 13329 11a3 B1100000 		.4byte	0x10b1
 13330 11a7 03       		.uleb128 0x3
 13331 11a8 67000000 		.4byte	.LASF376
 13332 11ac 0B       		.byte	0xb
 13333 11ad 97       		.byte	0x97
 13334 11ae 77020000 		.4byte	0x277
 13335 11b2 0C       		.uleb128 0xc
 13336 11b3 69080000 		.4byte	.LASF377
 13337 11b7 02       		.byte	0x2
 13338 11b8 0C       		.byte	0xc
 13339 11b9 2A       		.byte	0x2a
 13340 11ba D6120000 		.4byte	0x12d6
 13341 11be 0D       		.uleb128 0xd
 13342 11bf 8A010000 		.4byte	.LASF378
 13343 11c3 00       		.sleb128 0
 13344 11c4 0D       		.uleb128 0xd
 13345 11c5 9C040000 		.4byte	.LASF379
 13346 11c9 C000     		.sleb128 64
 13347 11cb 0D       		.uleb128 0xd
ARM GAS  C:\Users\RECEPC~1\AppData\Local\Temp\ccQD6Oev.s 			page 284


 13348 11cc AF010000 		.4byte	.LASF380
 13349 11d0 8001     		.sleb128 128
 13350 11d2 0D       		.uleb128 0xd
 13351 11d3 CA010000 		.4byte	.LASF381
 13352 11d7 C001     		.sleb128 192
 13353 11d9 0D       		.uleb128 0xd
 13354 11da E5010000 		.4byte	.LASF382
 13355 11de 8002     		.sleb128 256
 13356 11e0 0D       		.uleb128 0xd
 13357 11e1 00020000 		.4byte	.LASF383
 13358 11e5 C002     		.sleb128 320
 13359 11e7 0D       		.uleb128 0xd
 13360 11e8 1B020000 		.4byte	.LASF384
 13361 11ec 8003     		.sleb128 384
 13362 11ee 0D       		.uleb128 0xd
 13363 11ef 36020000 		.4byte	.LASF385
 13364 11f3 C003     		.sleb128 448
 13365 11f5 0D       		.uleb128 0xd
 13366 11f6 AA060000 		.4byte	.LASF386
 13367 11fa 8004     		.sleb128 512
 13368 11fc 0D       		.uleb128 0xd
 13369 11fd 57090000 		.4byte	.LASF387
 13370 1201 C004     		.sleb128 576
 13371 1203 0D       		.uleb128 0xd
 13372 1204 54290000 		.4byte	.LASF388
 13373 1208 8005     		.sleb128 640
 13374 120a 0D       		.uleb128 0xd
 13375 120b 55100000 		.4byte	.LASF389
 13376 120f C005     		.sleb128 704
 13377 1211 0D       		.uleb128 0xd
 13378 1212 99050000 		.4byte	.LASF390
 13379 1216 8006     		.sleb128 768
 13380 1218 0D       		.uleb128 0xd
 13381 1219 FE0E0000 		.4byte	.LASF391
 13382 121d C006     		.sleb128 832
 13383 121f 0D       		.uleb128 0xd
 13384 1220 D52A0000 		.4byte	.LASF392
 13385 1224 8007     		.sleb128 896
 13386 1226 0D       		.uleb128 0xd
 13387 1227 BC130000 		.4byte	.LASF393
 13388 122b C007     		.sleb128 960
 13389 122d 0D       		.uleb128 0xd
 13390 122e 7A090000 		.4byte	.LASF394
 13391 1232 8008     		.sleb128 1024
 13392 1234 0D       		.uleb128 0xd
 13393 1235 7E1F0000 		.4byte	.LASF395
 13394 1239 C008     		.sleb128 1088
 13395 123b 0D       		.uleb128 0xd
 13396 123c EB260000 		.4byte	.LASF396
 13397 1240 8009     		.sleb128 1152
 13398 1242 0D       		.uleb128 0xd
 13399 1243 66120000 		.4byte	.LASF397
 13400 1247 C009     		.sleb128 1216
 13401 1249 0D       		.uleb128 0xd
 13402 124a 2D130000 		.4byte	.LASF398
 13403 124e 800A     		.sleb128 1280
 13404 1250 0D       		.uleb128 0xd
ARM GAS  C:\Users\RECEPC~1\AppData\Local\Temp\ccQD6Oev.s 			page 285


 13405 1251 4B130000 		.4byte	.LASF399
 13406 1255 C00A     		.sleb128 1344
 13407 1257 0D       		.uleb128 0xd
 13408 1258 69130000 		.4byte	.LASF400
 13409 125c 800B     		.sleb128 1408
 13410 125e 0D       		.uleb128 0xd
 13411 125f 87130000 		.4byte	.LASF401
 13412 1263 C00B     		.sleb128 1472
 13413 1265 0D       		.uleb128 0xd
 13414 1266 D1190000 		.4byte	.LASF402
 13415 126a 800C     		.sleb128 1536
 13416 126c 0D       		.uleb128 0xd
 13417 126d 3E1C0000 		.4byte	.LASF403
 13418 1271 C00C     		.sleb128 1600
 13419 1273 0D       		.uleb128 0xd
 13420 1274 E50B0000 		.4byte	.LASF404
 13421 1278 800D     		.sleb128 1664
 13422 127a 0D       		.uleb128 0xd
 13423 127b 0C080000 		.4byte	.LASF405
 13424 127f C00D     		.sleb128 1728
 13425 1281 0D       		.uleb128 0xd
 13426 1282 261D0000 		.4byte	.LASF406
 13427 1286 800E     		.sleb128 1792
 13428 1288 0D       		.uleb128 0xd
 13429 1289 542C0000 		.4byte	.LASF407
 13430 128d C00E     		.sleb128 1856
 13431 128f 0D       		.uleb128 0xd
 13432 1290 870F0000 		.4byte	.LASF408
 13433 1294 800F     		.sleb128 1920
 13434 1296 0D       		.uleb128 0xd
 13435 1297 10060000 		.4byte	.LASF409
 13436 129b C00F     		.sleb128 1984
 13437 129d 0D       		.uleb128 0xd
 13438 129e 801B0000 		.4byte	.LASF410
 13439 12a2 8010     		.sleb128 2048
 13440 12a4 0D       		.uleb128 0xd
 13441 12a5 52180000 		.4byte	.LASF411
 13442 12a9 C010     		.sleb128 2112
 13443 12ab 0D       		.uleb128 0xd
 13444 12ac 61070000 		.4byte	.LASF412
 13445 12b0 8011     		.sleb128 2176
 13446 12b2 0D       		.uleb128 0xd
 13447 12b3 64030000 		.4byte	.LASF413
 13448 12b7 C011     		.sleb128 2240
 13449 12b9 0D       		.uleb128 0xd
 13450 12ba 9E190000 		.4byte	.LASF414
 13451 12be 8012     		.sleb128 2304
 13452 12c0 0D       		.uleb128 0xd
 13453 12c1 95160000 		.4byte	.LASF415
 13454 12c5 C012     		.sleb128 2368
 13455 12c7 0D       		.uleb128 0xd
 13456 12c8 0A050000 		.4byte	.LASF416
 13457 12cc 8013     		.sleb128 2432
 13458 12ce 0D       		.uleb128 0xd
 13459 12cf 32220000 		.4byte	.LASF417
 13460 12d3 C013     		.sleb128 2496
 13461 12d5 00       		.byte	0
ARM GAS  C:\Users\RECEPC~1\AppData\Local\Temp\ccQD6Oev.s 			page 286


 13462 12d6 17       		.uleb128 0x17
 13463 12d7 01       		.byte	0x1
 13464 12d8 0D       		.byte	0xd
 13465 12d9 26       		.byte	0x26
 13466 12da F0130000 		.4byte	0x13f0
 13467 12de 0D       		.uleb128 0xd
 13468 12df C00A0000 		.4byte	.LASF418
 13469 12e3 A101     		.sleb128 161
 13470 12e5 0D       		.uleb128 0xd
 13471 12e6 C60B0000 		.4byte	.LASF419
 13472 12ea A101     		.sleb128 161
 13473 12ec 0D       		.uleb128 0xd
 13474 12ed F8020000 		.4byte	.LASF420
 13475 12f1 A201     		.sleb128 162
 13476 12f3 0D       		.uleb128 0xd
 13477 12f4 0F220000 		.4byte	.LASF421
 13478 12f8 A201     		.sleb128 162
 13479 12fa 0D       		.uleb128 0xd
 13480 12fb 9C100000 		.4byte	.LASF422
 13481 12ff A301     		.sleb128 163
 13482 1301 0D       		.uleb128 0xd
 13483 1302 EB270000 		.4byte	.LASF423
 13484 1306 A301     		.sleb128 163
 13485 1308 0D       		.uleb128 0xd
 13486 1309 D50A0000 		.4byte	.LASF424
 13487 130d AE01     		.sleb128 174
 13488 130f 0D       		.uleb128 0xd
 13489 1310 1D0A0000 		.4byte	.LASF425
 13490 1314 AE01     		.sleb128 174
 13491 1316 0D       		.uleb128 0xd
 13492 1317 E80C0000 		.4byte	.LASF426
 13493 131b AA01     		.sleb128 170
 13494 131d 0D       		.uleb128 0xd
 13495 131e E9280000 		.4byte	.LASF427
 13496 1322 AA01     		.sleb128 170
 13497 1324 0D       		.uleb128 0xd
 13498 1325 B31B0000 		.4byte	.LASF428
 13499 1329 A401     		.sleb128 164
 13500 132b 0D       		.uleb128 0xd
 13501 132c 3E150000 		.4byte	.LASF429
 13502 1330 A401     		.sleb128 164
 13503 1332 0D       		.uleb128 0xd
 13504 1333 63150000 		.4byte	.LASF430
 13505 1337 A501     		.sleb128 165
 13506 1339 0D       		.uleb128 0xd
 13507 133a 4D170000 		.4byte	.LASF431
 13508 133e A501     		.sleb128 165
 13509 1340 0D       		.uleb128 0xd
 13510 1341 5C110000 		.4byte	.LASF432
 13511 1345 E801     		.sleb128 232
 13512 1347 0D       		.uleb128 0xd
 13513 1348 881D0000 		.4byte	.LASF433
 13514 134c E801     		.sleb128 232
 13515 134e 0D       		.uleb128 0xd
 13516 134f 0B230000 		.4byte	.LASF434
 13517 1353 A601     		.sleb128 166
 13518 1355 0D       		.uleb128 0xd
ARM GAS  C:\Users\RECEPC~1\AppData\Local\Temp\ccQD6Oev.s 			page 287


 13519 1356 77290000 		.4byte	.LASF435
 13520 135a A601     		.sleb128 166
 13521 135c 0D       		.uleb128 0xd
 13522 135d B82A0000 		.4byte	.LASF436
 13523 1361 A701     		.sleb128 167
 13524 1363 0D       		.uleb128 0xd
 13525 1364 062C0000 		.4byte	.LASF437
 13526 1368 A701     		.sleb128 167
 13527 136a 0D       		.uleb128 0xd
 13528 136b 5F0E0000 		.4byte	.LASF438
 13529 136f A801     		.sleb128 168
 13530 1371 0D       		.uleb128 0xd
 13531 1372 03070000 		.4byte	.LASF439
 13532 1376 A801     		.sleb128 168
 13533 1378 0D       		.uleb128 0xd
 13534 1379 16180000 		.4byte	.LASF440
 13535 137d A901     		.sleb128 169
 13536 137f 0D       		.uleb128 0xd
 13537 1380 18200000 		.4byte	.LASF441
 13538 1384 A901     		.sleb128 169
 13539 1386 0D       		.uleb128 0xd
 13540 1387 E6130000 		.4byte	.LASF442
 13541 138b AC01     		.sleb128 172
 13542 138d 0D       		.uleb128 0xd
 13543 138e 852B0000 		.4byte	.LASF443
 13544 1392 AC01     		.sleb128 172
 13545 1394 0D       		.uleb128 0xd
 13546 1395 0B210000 		.4byte	.LASF444
 13547 1399 AD01     		.sleb128 173
 13548 139b 0D       		.uleb128 0xd
 13549 139c 400E0000 		.4byte	.LASF445
 13550 13a0 AD01     		.sleb128 173
 13551 13a2 0D       		.uleb128 0xd
 13552 13a3 1F2A0000 		.4byte	.LASF446
 13553 13a7 E101     		.sleb128 225
 13554 13a9 0D       		.uleb128 0xd
 13555 13aa 10270000 		.4byte	.LASF447
 13556 13ae E101     		.sleb128 225
 13557 13b0 0D       		.uleb128 0xd
 13558 13b1 D5240000 		.4byte	.LASF448
 13559 13b5 E201     		.sleb128 226
 13560 13b7 0D       		.uleb128 0xd
 13561 13b8 3A070000 		.4byte	.LASF449
 13562 13bc E201     		.sleb128 226
 13563 13be 0D       		.uleb128 0xd
 13564 13bf C32B0000 		.4byte	.LASF450
 13565 13c3 E301     		.sleb128 227
 13566 13c5 0D       		.uleb128 0xd
 13567 13c6 5F060000 		.4byte	.LASF451
 13568 13ca E301     		.sleb128 227
 13569 13cc 0D       		.uleb128 0xd
 13570 13cd 96200000 		.4byte	.LASF452
 13571 13d1 E401     		.sleb128 228
 13572 13d3 0D       		.uleb128 0xd
 13573 13d4 EF070000 		.4byte	.LASF453
 13574 13d8 E401     		.sleb128 228
 13575 13da 0D       		.uleb128 0xd
ARM GAS  C:\Users\RECEPC~1\AppData\Local\Temp\ccQD6Oev.s 			page 288


 13576 13db E0050000 		.4byte	.LASF454
 13577 13df E601     		.sleb128 230
 13578 13e1 0D       		.uleb128 0xd
 13579 13e2 632A0000 		.4byte	.LASF455
 13580 13e6 E601     		.sleb128 230
 13581 13e8 0D       		.uleb128 0xd
 13582 13e9 50160000 		.4byte	.LASF456
 13583 13ed FF01     		.sleb128 255
 13584 13ef 00       		.byte	0
 13585 13f0 0C       		.uleb128 0xc
 13586 13f1 26040000 		.4byte	.LASF457
 13587 13f5 01       		.byte	0x1
 13588 13f6 0D       		.byte	0xd
 13589 13f7 8A       		.byte	0x8a
 13590 13f8 2D140000 		.4byte	0x142d
 13591 13fc 0D       		.uleb128 0xd
 13592 13fd B7040000 		.4byte	.LASF458
 13593 1401 08       		.sleb128 8
 13594 1402 0D       		.uleb128 0xd
 13595 1403 DD170000 		.4byte	.LASF459
 13596 1407 01       		.sleb128 1
 13597 1408 0D       		.uleb128 0xd
 13598 1409 0A1D0000 		.4byte	.LASF460
 13599 140d 02       		.sleb128 2
 13600 140e 0D       		.uleb128 0xd
 13601 140f 38240000 		.4byte	.LASF461
 13602 1413 03       		.sleb128 3
 13603 1414 0D       		.uleb128 0xd
 13604 1415 5C0D0000 		.4byte	.LASF462
 13605 1419 05       		.sleb128 5
 13606 141a 0D       		.uleb128 0xd
 13607 141b 62010000 		.4byte	.LASF463
 13608 141f 06       		.sleb128 6
 13609 1420 0D       		.uleb128 0xd
 13610 1421 B61C0000 		.4byte	.LASF464
 13611 1425 04       		.sleb128 4
 13612 1426 0D       		.uleb128 0xd
 13613 1427 48230000 		.4byte	.LASF465
 13614 142b 0B       		.sleb128 11
 13615 142c 00       		.byte	0
 13616 142d 0C       		.uleb128 0xc
 13617 142e 9F090000 		.4byte	.LASF466
 13618 1432 01       		.byte	0x1
 13619 1433 0D       		.byte	0xd
 13620 1434 AB       		.byte	0xab
 13621 1435 46140000 		.4byte	0x1446
 13622 1439 0D       		.uleb128 0xd
 13623 143a C3050000 		.4byte	.LASF467
 13624 143e 01       		.sleb128 1
 13625 143f 0D       		.uleb128 0xd
 13626 1440 4D120000 		.4byte	.LASF468
 13627 1444 02       		.sleb128 2
 13628 1445 00       		.byte	0
 13629 1446 22       		.uleb128 0x22
 13630 1447 0A       		.byte	0xa
 13631 1448 0D       		.byte	0xd
 13632 1449 B1       		.byte	0xb1
ARM GAS  C:\Users\RECEPC~1\AppData\Local\Temp\ccQD6Oev.s 			page 289


 13633 144a 8B140000 		.4byte	0x148b
 13634 144e 0F       		.uleb128 0xf
 13635 144f 38030000 		.4byte	.LASF250
 13636 1453 0D       		.byte	0xd
 13637 1454 B3       		.byte	0xb3
 13638 1455 F4000000 		.4byte	0xf4
 13639 1459 00       		.byte	0
 13640 145a 0F       		.uleb128 0xf
 13641 145b 80060000 		.4byte	.LASF469
 13642 145f 0D       		.byte	0xd
 13643 1460 B4       		.byte	0xb4
 13644 1461 F9000000 		.4byte	0xf9
 13645 1465 02       		.byte	0x2
 13646 1466 0F       		.uleb128 0xf
 13647 1467 22160000 		.4byte	.LASF470
 13648 146b 0D       		.byte	0xd
 13649 146c B5       		.byte	0xb5
 13650 146d F4000000 		.4byte	0xf4
 13651 1471 04       		.byte	0x4
 13652 1472 0F       		.uleb128 0xf
 13653 1473 76040000 		.4byte	.LASF471
 13654 1477 0D       		.byte	0xd
 13655 1478 B7       		.byte	0xb7
 13656 1479 F9000000 		.4byte	0xf9
 13657 147d 06       		.byte	0x6
 13658 147e 0F       		.uleb128 0xf
 13659 147f DD290000 		.4byte	.LASF472
 13660 1483 0D       		.byte	0xd
 13661 1484 B8       		.byte	0xb8
 13662 1485 F9000000 		.4byte	0xf9
 13663 1489 08       		.byte	0x8
 13664 148a 00       		.byte	0
 13665 148b 03       		.uleb128 0x3
 13666 148c 242C0000 		.4byte	.LASF473
 13667 1490 0D       		.byte	0xd
 13668 1491 B9       		.byte	0xb9
 13669 1492 46140000 		.4byte	0x1446
 13670 1496 22       		.uleb128 0x22
 13671 1497 02       		.byte	0x2
 13672 1498 0E       		.byte	0xe
 13673 1499 72       		.byte	0x72
 13674 149a B7140000 		.4byte	0x14b7
 13675 149e 0F       		.uleb128 0xf
 13676 149f 9C2C0000 		.4byte	.LASF474
 13677 14a3 0E       		.byte	0xe
 13678 14a4 74       		.byte	0x74
 13679 14a5 97000000 		.4byte	0x97
 13680 14a9 00       		.byte	0
 13681 14aa 0F       		.uleb128 0xf
 13682 14ab 00000000 		.4byte	.LASF475
 13683 14af 0E       		.byte	0xe
 13684 14b0 75       		.byte	0x75
 13685 14b1 97000000 		.4byte	0x97
 13686 14b5 01       		.byte	0x1
 13687 14b6 00       		.byte	0
 13688 14b7 03       		.uleb128 0x3
 13689 14b8 1A250000 		.4byte	.LASF476
ARM GAS  C:\Users\RECEPC~1\AppData\Local\Temp\ccQD6Oev.s 			page 290


 13690 14bc 0E       		.byte	0xe
 13691 14bd 77       		.byte	0x77
 13692 14be 96140000 		.4byte	0x1496
 13693 14c2 23       		.uleb128 0x23
 13694 14c3 25150000 		.4byte	.LASF479
 13695 14c7 01       		.byte	0x1
 13696 14c8 2B       		.byte	0x2b
 13697 14c9 00000000 		.4byte	.LFB63
 13698 14cd AA000000 		.4byte	.LFE63-.LFB63
 13699 14d1 01       		.uleb128 0x1
 13700 14d2 9C       		.byte	0x9c
 13701 14d3 0C150000 		.4byte	0x150c
 13702 14d7 24       		.uleb128 0x24
 13703 14d8 31240000 		.4byte	.LASF481
 13704 14dc 01       		.byte	0x1
 13705 14dd 2B       		.byte	0x2b
 13706 14de 11010000 		.4byte	0x111
 13707 14e2 02       		.uleb128 0x2
 13708 14e3 91       		.byte	0x91
 13709 14e4 6C       		.sleb128 -20
 13710 14e5 25       		.uleb128 0x25
 13711 14e6 CF1F0000 		.4byte	.LASF477
 13712 14ea 01       		.byte	0x1
 13713 14eb 2D       		.byte	0x2d
 13714 14ec B70F0000 		.4byte	0xfb7
 13715 14f0 02       		.uleb128 0x2
 13716 14f1 91       		.byte	0x91
 13717 14f2 74       		.sleb128 -12
 13718 14f3 26       		.uleb128 0x26
 13719 14f4 12000000 		.4byte	.LBB2
 13720 14f8 92000000 		.4byte	.LBE2-.LBB2
 13721 14fc 25       		.uleb128 0x25
 13722 14fd 8F050000 		.4byte	.LASF478
 13723 1501 01       		.byte	0x1
 13724 1502 30       		.byte	0x30
 13725 1503 97000000 		.4byte	0x97
 13726 1507 02       		.uleb128 0x2
 13727 1508 91       		.byte	0x91
 13728 1509 73       		.sleb128 -13
 13729 150a 00       		.byte	0
 13730 150b 00       		.byte	0
 13731 150c 27       		.uleb128 0x27
 13732 150d C7100000 		.4byte	.LASF480
 13733 1511 01       		.byte	0x1
 13734 1512 4B       		.byte	0x4b
 13735 1513 00000000 		.4byte	.LFB64
 13736 1517 48000000 		.4byte	.LFE64-.LFB64
 13737 151b 01       		.uleb128 0x1
 13738 151c 9C       		.byte	0x9c
 13739 151d 3E150000 		.4byte	0x153e
 13740 1521 24       		.uleb128 0x24
 13741 1522 31240000 		.4byte	.LASF481
 13742 1526 01       		.byte	0x1
 13743 1527 4B       		.byte	0x4b
 13744 1528 11010000 		.4byte	0x111
 13745 152c 02       		.uleb128 0x2
 13746 152d 91       		.byte	0x91
ARM GAS  C:\Users\RECEPC~1\AppData\Local\Temp\ccQD6Oev.s 			page 291


 13747 152e 6C       		.sleb128 -20
 13748 152f 25       		.uleb128 0x25
 13749 1530 CF1F0000 		.4byte	.LASF477
 13750 1534 01       		.byte	0x1
 13751 1535 4D       		.byte	0x4d
 13752 1536 B70F0000 		.4byte	0xfb7
 13753 153a 02       		.uleb128 0x2
 13754 153b 91       		.byte	0x91
 13755 153c 74       		.sleb128 -12
 13756 153d 00       		.byte	0
 13757 153e 23       		.uleb128 0x23
 13758 153f 2D100000 		.4byte	.LASF482
 13759 1543 01       		.byte	0x1
 13760 1544 55       		.byte	0x55
 13761 1545 00000000 		.4byte	.LFB65
 13762 1549 E0000000 		.4byte	.LFE65-.LFB65
 13763 154d 01       		.uleb128 0x1
 13764 154e 9C       		.byte	0x9c
 13765 154f 70150000 		.4byte	0x1570
 13766 1553 24       		.uleb128 0x24
 13767 1554 31240000 		.4byte	.LASF481
 13768 1558 01       		.byte	0x1
 13769 1559 55       		.byte	0x55
 13770 155a 11010000 		.4byte	0x111
 13771 155e 02       		.uleb128 0x2
 13772 155f 91       		.byte	0x91
 13773 1560 64       		.sleb128 -28
 13774 1561 25       		.uleb128 0x25
 13775 1562 CF1F0000 		.4byte	.LASF477
 13776 1566 01       		.byte	0x1
 13777 1567 57       		.byte	0x57
 13778 1568 B70F0000 		.4byte	0xfb7
 13779 156c 02       		.uleb128 0x2
 13780 156d 91       		.byte	0x91
 13781 156e 6C       		.sleb128 -20
 13782 156f 00       		.byte	0
 13783 1570 23       		.uleb128 0x23
 13784 1571 77220000 		.4byte	.LASF483
 13785 1575 01       		.byte	0x1
 13786 1576 67       		.byte	0x67
 13787 1577 00000000 		.4byte	.LFB66
 13788 157b F4000000 		.4byte	.LFE66-.LFB66
 13789 157f 01       		.uleb128 0x1
 13790 1580 9C       		.byte	0x9c
 13791 1581 A2150000 		.4byte	0x15a2
 13792 1585 24       		.uleb128 0x24
 13793 1586 31240000 		.4byte	.LASF481
 13794 158a 01       		.byte	0x1
 13795 158b 67       		.byte	0x67
 13796 158c 11010000 		.4byte	0x111
 13797 1590 02       		.uleb128 0x2
 13798 1591 91       		.byte	0x91
 13799 1592 64       		.sleb128 -28
 13800 1593 25       		.uleb128 0x25
 13801 1594 CF1F0000 		.4byte	.LASF477
 13802 1598 01       		.byte	0x1
 13803 1599 69       		.byte	0x69
ARM GAS  C:\Users\RECEPC~1\AppData\Local\Temp\ccQD6Oev.s 			page 292


 13804 159a B70F0000 		.4byte	0xfb7
 13805 159e 02       		.uleb128 0x2
 13806 159f 91       		.byte	0x91
 13807 15a0 6C       		.sleb128 -20
 13808 15a1 00       		.byte	0
 13809 15a2 23       		.uleb128 0x23
 13810 15a3 BF120000 		.4byte	.LASF484
 13811 15a7 01       		.byte	0x1
 13812 15a8 7B       		.byte	0x7b
 13813 15a9 00000000 		.4byte	.LFB67
 13814 15ad 5A000000 		.4byte	.LFE67-.LFB67
 13815 15b1 01       		.uleb128 0x1
 13816 15b2 9C       		.byte	0x9c
 13817 15b3 D4150000 		.4byte	0x15d4
 13818 15b7 24       		.uleb128 0x24
 13819 15b8 31240000 		.4byte	.LASF481
 13820 15bc 01       		.byte	0x1
 13821 15bd 7B       		.byte	0x7b
 13822 15be 11010000 		.4byte	0x111
 13823 15c2 02       		.uleb128 0x2
 13824 15c3 91       		.byte	0x91
 13825 15c4 6C       		.sleb128 -20
 13826 15c5 25       		.uleb128 0x25
 13827 15c6 CF1F0000 		.4byte	.LASF477
 13828 15ca 01       		.byte	0x1
 13829 15cb 7D       		.byte	0x7d
 13830 15cc B70F0000 		.4byte	0xfb7
 13831 15d0 02       		.uleb128 0x2
 13832 15d1 91       		.byte	0x91
 13833 15d2 74       		.sleb128 -12
 13834 15d3 00       		.byte	0
 13835 15d4 23       		.uleb128 0x23
 13836 15d5 BF230000 		.4byte	.LASF485
 13837 15d9 01       		.byte	0x1
 13838 15da 8B       		.byte	0x8b
 13839 15db 00000000 		.4byte	.LFB68
 13840 15df F4080000 		.4byte	.LFE68-.LFB68
 13841 15e3 01       		.uleb128 0x1
 13842 15e4 9C       		.byte	0x9c
 13843 15e5 37160000 		.4byte	0x1637
 13844 15e9 24       		.uleb128 0x24
 13845 15ea 31240000 		.4byte	.LASF481
 13846 15ee 01       		.byte	0x1
 13847 15ef 8B       		.byte	0x8b
 13848 15f0 11010000 		.4byte	0x111
 13849 15f4 02       		.uleb128 0x2
 13850 15f5 91       		.byte	0x91
 13851 15f6 5C       		.sleb128 -36
 13852 15f7 25       		.uleb128 0x25
 13853 15f8 CF1F0000 		.4byte	.LASF477
 13854 15fc 01       		.byte	0x1
 13855 15fd 8D       		.byte	0x8d
 13856 15fe B70F0000 		.4byte	0xfb7
 13857 1602 02       		.uleb128 0x2
 13858 1603 91       		.byte	0x91
 13859 1604 6C       		.sleb128 -20
 13860 1605 26       		.uleb128 0x26
ARM GAS  C:\Users\RECEPC~1\AppData\Local\Temp\ccQD6Oev.s 			page 293


 13861 1606 14000000 		.4byte	.LBB3
 13862 160a DA080000 		.4byte	.LBE3-.LBB3
 13863 160e 28       		.uleb128 0x28
 13864 160f 70747300 		.ascii	"pts\000"
 13865 1613 01       		.byte	0x1
 13866 1614 6C01     		.2byte	0x16c
 13867 1616 AF090000 		.4byte	0x9af
 13868 161a 02       		.uleb128 0x2
 13869 161b 91       		.byte	0x91
 13870 161c 64       		.sleb128 -28
 13871 161d 26       		.uleb128 0x26
 13872 161e 48000000 		.4byte	.LBB4
 13873 1622 BE010000 		.4byte	.LBE4-.LBB4
 13874 1626 25       		.uleb128 0x25
 13875 1627 7C0D0000 		.4byte	.LASF486
 13876 162b 01       		.byte	0x1
 13877 162c 99       		.byte	0x99
 13878 162d A3000000 		.4byte	0xa3
 13879 1631 02       		.uleb128 0x2
 13880 1632 91       		.byte	0x91
 13881 1633 6A       		.sleb128 -22
 13882 1634 00       		.byte	0
 13883 1635 00       		.byte	0
 13884 1636 00       		.byte	0
 13885 1637 29       		.uleb128 0x29
 13886 1638 CE030000 		.4byte	.LASF487
 13887 163c 01       		.byte	0x1
 13888 163d 8201     		.2byte	0x182
 13889 163f 00000000 		.4byte	.LFB69
 13890 1643 8C010000 		.4byte	.LFE69-.LFB69
 13891 1647 01       		.uleb128 0x1
 13892 1648 9C       		.byte	0x9c
 13893 1649 94160000 		.4byte	0x1694
 13894 164d 2A       		.uleb128 0x2a
 13895 164e 31240000 		.4byte	.LASF481
 13896 1652 01       		.byte	0x1
 13897 1653 8201     		.2byte	0x182
 13898 1655 11010000 		.4byte	0x111
 13899 1659 02       		.uleb128 0x2
 13900 165a 91       		.byte	0x91
 13901 165b 64       		.sleb128 -28
 13902 165c 2B       		.uleb128 0x2b
 13903 165d CF1F0000 		.4byte	.LASF477
 13904 1661 01       		.byte	0x1
 13905 1662 8401     		.2byte	0x184
 13906 1664 B70F0000 		.4byte	0xfb7
 13907 1668 02       		.uleb128 0x2
 13908 1669 91       		.byte	0x91
 13909 166a 68       		.sleb128 -24
 13910 166b 26       		.uleb128 0x26
 13911 166c 14000000 		.4byte	.LBB5
 13912 1670 6A010000 		.4byte	.LBE5-.LBB5
 13913 1674 2B       		.uleb128 0x2b
 13914 1675 C50C0000 		.4byte	.LASF488
 13915 1679 01       		.byte	0x1
 13916 167a 8701     		.2byte	0x187
 13917 167c 97000000 		.4byte	0x97
ARM GAS  C:\Users\RECEPC~1\AppData\Local\Temp\ccQD6Oev.s 			page 294


 13918 1680 02       		.uleb128 0x2
 13919 1681 91       		.byte	0x91
 13920 1682 6F       		.sleb128 -17
 13921 1683 2B       		.uleb128 0x2b
 13922 1684 4A260000 		.4byte	.LASF489
 13923 1688 01       		.byte	0x1
 13924 1689 8801     		.2byte	0x188
 13925 168b 97000000 		.4byte	0x97
 13926 168f 02       		.uleb128 0x2
 13927 1690 91       		.byte	0x91
 13928 1691 6E       		.sleb128 -18
 13929 1692 00       		.byte	0
 13930 1693 00       		.byte	0
 13931 1694 29       		.uleb128 0x29
 13932 1695 FE120000 		.4byte	.LASF490
 13933 1699 01       		.byte	0x1
 13934 169a B601     		.2byte	0x1b6
 13935 169c 00000000 		.4byte	.LFB70
 13936 16a0 04020000 		.4byte	.LFE70-.LFB70
 13937 16a4 01       		.uleb128 0x1
 13938 16a5 9C       		.byte	0x9c
 13939 16a6 2D170000 		.4byte	0x172d
 13940 16aa 2A       		.uleb128 0x2a
 13941 16ab 31240000 		.4byte	.LASF481
 13942 16af 01       		.byte	0x1
 13943 16b0 B601     		.2byte	0x1b6
 13944 16b2 11010000 		.4byte	0x111
 13945 16b6 02       		.uleb128 0x2
 13946 16b7 91       		.byte	0x91
 13947 16b8 44       		.sleb128 -60
 13948 16b9 2B       		.uleb128 0x2b
 13949 16ba CF1F0000 		.4byte	.LASF477
 13950 16be 01       		.byte	0x1
 13951 16bf B801     		.2byte	0x1b8
 13952 16c1 B70F0000 		.4byte	0xfb7
 13953 16c5 02       		.uleb128 0x2
 13954 16c6 91       		.byte	0x91
 13955 16c7 5C       		.sleb128 -36
 13956 16c8 26       		.uleb128 0x26
 13957 16c9 14000000 		.4byte	.LBB6
 13958 16cd E2010000 		.4byte	.LBE6-.LBB6
 13959 16d1 2B       		.uleb128 0x2b
 13960 16d2 C50C0000 		.4byte	.LASF488
 13961 16d6 01       		.byte	0x1
 13962 16d7 BB01     		.2byte	0x1bb
 13963 16d9 97000000 		.4byte	0x97
 13964 16dd 02       		.uleb128 0x2
 13965 16de 91       		.byte	0x91
 13966 16df 77       		.sleb128 -9
 13967 16e0 2B       		.uleb128 0x2b
 13968 16e1 4A260000 		.4byte	.LASF489
 13969 16e5 01       		.byte	0x1
 13970 16e6 BC01     		.2byte	0x1bc
 13971 16e8 97000000 		.4byte	0x97
 13972 16ec 02       		.uleb128 0x2
 13973 16ed 91       		.byte	0x91
 13974 16ee 76       		.sleb128 -10
ARM GAS  C:\Users\RECEPC~1\AppData\Local\Temp\ccQD6Oev.s 			page 295


 13975 16ef 2B       		.uleb128 0x2b
 13976 16f0 EA210000 		.4byte	.LASF491
 13977 16f4 01       		.byte	0x1
 13978 16f5 D301     		.2byte	0x1d3
 13979 16f7 D5000000 		.4byte	0xd5
 13980 16fb 02       		.uleb128 0x2
 13981 16fc 91       		.byte	0x91
 13982 16fd 68       		.sleb128 -24
 13983 16fe 2B       		.uleb128 0x2b
 13984 16ff F0210000 		.4byte	.LASF492
 13985 1703 01       		.byte	0x1
 13986 1704 D301     		.2byte	0x1d3
 13987 1706 D5000000 		.4byte	0xd5
 13988 170a 02       		.uleb128 0x2
 13989 170b 91       		.byte	0x91
 13990 170c 50       		.sleb128 -48
 13991 170d 2B       		.uleb128 0x2b
 13992 170e F6210000 		.4byte	.LASF493
 13993 1712 01       		.byte	0x1
 13994 1713 D301     		.2byte	0x1d3
 13995 1715 D5000000 		.4byte	0xd5
 13996 1719 02       		.uleb128 0x2
 13997 171a 91       		.byte	0x91
 13998 171b 60       		.sleb128 -32
 13999 171c 2B       		.uleb128 0x2b
 14000 171d FC210000 		.4byte	.LASF494
 14001 1721 01       		.byte	0x1
 14002 1722 D301     		.2byte	0x1d3
 14003 1724 D5000000 		.4byte	0xd5
 14004 1728 02       		.uleb128 0x2
 14005 1729 91       		.byte	0x91
 14006 172a 48       		.sleb128 -56
 14007 172b 00       		.byte	0
 14008 172c 00       		.byte	0
 14009 172d 29       		.uleb128 0x29
 14010 172e 371B0000 		.4byte	.LASF495
 14011 1732 01       		.byte	0x1
 14012 1733 0702     		.2byte	0x207
 14013 1735 00000000 		.4byte	.LFB71
 14014 1739 A0010000 		.4byte	.LFE71-.LFB71
 14015 173d 01       		.uleb128 0x1
 14016 173e 9C       		.byte	0x9c
 14017 173f B7170000 		.4byte	0x17b7
 14018 1743 2A       		.uleb128 0x2a
 14019 1744 31240000 		.4byte	.LASF481
 14020 1748 01       		.byte	0x1
 14021 1749 0702     		.2byte	0x207
 14022 174b 11010000 		.4byte	0x111
 14023 174f 02       		.uleb128 0x2
 14024 1750 91       		.byte	0x91
 14025 1751 64       		.sleb128 -28
 14026 1752 2B       		.uleb128 0x2b
 14027 1753 CF1F0000 		.4byte	.LASF477
 14028 1757 01       		.byte	0x1
 14029 1758 0902     		.2byte	0x209
 14030 175a B70F0000 		.4byte	0xfb7
 14031 175e 02       		.uleb128 0x2
ARM GAS  C:\Users\RECEPC~1\AppData\Local\Temp\ccQD6Oev.s 			page 296


 14032 175f 91       		.byte	0x91
 14033 1760 74       		.sleb128 -12
 14034 1761 26       		.uleb128 0x26
 14035 1762 14000000 		.4byte	.LBB7
 14036 1766 82010000 		.4byte	.LBE7-.LBB7
 14037 176a 2B       		.uleb128 0x2b
 14038 176b 03050000 		.4byte	.LASF496
 14039 176f 01       		.byte	0x1
 14040 1770 0C02     		.2byte	0x20c
 14041 1772 54020000 		.4byte	0x254
 14042 1776 02       		.uleb128 0x2
 14043 1777 91       		.byte	0x91
 14044 1778 73       		.sleb128 -13
 14045 1779 2B       		.uleb128 0x2b
 14046 177a 2E1B0000 		.4byte	.LASF497
 14047 177e 01       		.byte	0x1
 14048 177f 0D02     		.2byte	0x20d
 14049 1781 97000000 		.4byte	0x97
 14050 1785 02       		.uleb128 0x2
 14051 1786 91       		.byte	0x91
 14052 1787 72       		.sleb128 -14
 14053 1788 2B       		.uleb128 0x2b
 14054 1789 D2260000 		.4byte	.LASF498
 14055 178d 01       		.byte	0x1
 14056 178e 1F02     		.2byte	0x21f
 14057 1790 54020000 		.4byte	0x254
 14058 1794 02       		.uleb128 0x2
 14059 1795 91       		.byte	0x91
 14060 1796 71       		.sleb128 -15
 14061 1797 28       		.uleb128 0x28
 14062 1798 70747300 		.ascii	"pts\000"
 14063 179c 01       		.byte	0x1
 14064 179d 2002     		.2byte	0x220
 14065 179f AF090000 		.4byte	0x9af
 14066 17a3 02       		.uleb128 0x2
 14067 17a4 91       		.byte	0x91
 14068 17a5 6C       		.sleb128 -20
 14069 17a6 2B       		.uleb128 0x2b
 14070 17a7 F2150000 		.4byte	.LASF499
 14071 17ab 01       		.byte	0x1
 14072 17ac 2102     		.2byte	0x221
 14073 17ae AF090000 		.4byte	0x9af
 14074 17b2 02       		.uleb128 0x2
 14075 17b3 91       		.byte	0x91
 14076 17b4 68       		.sleb128 -24
 14077 17b5 00       		.byte	0
 14078 17b6 00       		.byte	0
 14079 17b7 29       		.uleb128 0x29
 14080 17b8 E1000000 		.4byte	.LASF500
 14081 17bc 01       		.byte	0x1
 14082 17bd 4202     		.2byte	0x242
 14083 17bf 00000000 		.4byte	.LFB72
 14084 17c3 2C000000 		.4byte	.LFE72-.LFB72
 14085 17c7 01       		.uleb128 0x1
 14086 17c8 9C       		.byte	0x9c
 14087 17c9 EC170000 		.4byte	0x17ec
 14088 17cd 2A       		.uleb128 0x2a
ARM GAS  C:\Users\RECEPC~1\AppData\Local\Temp\ccQD6Oev.s 			page 297


 14089 17ce 31240000 		.4byte	.LASF481
 14090 17d2 01       		.byte	0x1
 14091 17d3 4202     		.2byte	0x242
 14092 17d5 11010000 		.4byte	0x111
 14093 17d9 02       		.uleb128 0x2
 14094 17da 91       		.byte	0x91
 14095 17db 6C       		.sleb128 -20
 14096 17dc 2B       		.uleb128 0x2b
 14097 17dd CF1F0000 		.4byte	.LASF477
 14098 17e1 01       		.byte	0x1
 14099 17e2 4402     		.2byte	0x244
 14100 17e4 B70F0000 		.4byte	0xfb7
 14101 17e8 02       		.uleb128 0x2
 14102 17e9 91       		.byte	0x91
 14103 17ea 74       		.sleb128 -12
 14104 17eb 00       		.byte	0
 14105 17ec 2C       		.uleb128 0x2c
 14106 17ed 3C2A0000 		.4byte	.LASF501
 14107 17f1 01       		.byte	0x1
 14108 17f2 8802     		.2byte	0x288
 14109 17f4 00000000 		.4byte	.LFB73
 14110 17f8 36000000 		.4byte	.LFE73-.LFB73
 14111 17fc 01       		.uleb128 0x1
 14112 17fd 9C       		.byte	0x9c
 14113 17fe 21180000 		.4byte	0x1821
 14114 1802 2A       		.uleb128 0x2a
 14115 1803 31240000 		.4byte	.LASF481
 14116 1807 01       		.byte	0x1
 14117 1808 8802     		.2byte	0x288
 14118 180a 11010000 		.4byte	0x111
 14119 180e 02       		.uleb128 0x2
 14120 180f 91       		.byte	0x91
 14121 1810 6C       		.sleb128 -20
 14122 1811 2B       		.uleb128 0x2b
 14123 1812 CF1F0000 		.4byte	.LASF477
 14124 1816 01       		.byte	0x1
 14125 1817 8A02     		.2byte	0x28a
 14126 1819 B70F0000 		.4byte	0xfb7
 14127 181d 02       		.uleb128 0x2
 14128 181e 91       		.byte	0x91
 14129 181f 74       		.sleb128 -12
 14130 1820 00       		.byte	0
 14131 1821 2C       		.uleb128 0x2c
 14132 1822 632B0000 		.4byte	.LASF502
 14133 1826 01       		.byte	0x1
 14134 1827 9902     		.2byte	0x299
 14135 1829 00000000 		.4byte	.LFB74
 14136 182d 36000000 		.4byte	.LFE74-.LFB74
 14137 1831 01       		.uleb128 0x1
 14138 1832 9C       		.byte	0x9c
 14139 1833 56180000 		.4byte	0x1856
 14140 1837 2A       		.uleb128 0x2a
 14141 1838 31240000 		.4byte	.LASF481
 14142 183c 01       		.byte	0x1
 14143 183d 9902     		.2byte	0x299
 14144 183f 11010000 		.4byte	0x111
 14145 1843 02       		.uleb128 0x2
ARM GAS  C:\Users\RECEPC~1\AppData\Local\Temp\ccQD6Oev.s 			page 298


 14146 1844 91       		.byte	0x91
 14147 1845 6C       		.sleb128 -20
 14148 1846 2B       		.uleb128 0x2b
 14149 1847 CF1F0000 		.4byte	.LASF477
 14150 184b 01       		.byte	0x1
 14151 184c 9B02     		.2byte	0x29b
 14152 184e B70F0000 		.4byte	0xfb7
 14153 1852 02       		.uleb128 0x2
 14154 1853 91       		.byte	0x91
 14155 1854 74       		.sleb128 -12
 14156 1855 00       		.byte	0
 14157 1856 29       		.uleb128 0x29
 14158 1857 4A110000 		.4byte	.LASF503
 14159 185b 01       		.byte	0x1
 14160 185c AE02     		.2byte	0x2ae
 14161 185e 00000000 		.4byte	.LFB75
 14162 1862 82000000 		.4byte	.LFE75-.LFB75
 14163 1866 01       		.uleb128 0x1
 14164 1867 9C       		.byte	0x9c
 14165 1868 B3180000 		.4byte	0x18b3
 14166 186c 2A       		.uleb128 0x2a
 14167 186d 31240000 		.4byte	.LASF481
 14168 1871 01       		.byte	0x1
 14169 1872 AE02     		.2byte	0x2ae
 14170 1874 11010000 		.4byte	0x111
 14171 1878 02       		.uleb128 0x2
 14172 1879 91       		.byte	0x91
 14173 187a 64       		.sleb128 -28
 14174 187b 2B       		.uleb128 0x2b
 14175 187c 34000000 		.4byte	.LASF504
 14176 1880 01       		.byte	0x1
 14177 1881 B002     		.2byte	0x2b0
 14178 1883 6F0D0000 		.4byte	0xd6f
 14179 1887 02       		.uleb128 0x2
 14180 1888 91       		.byte	0x91
 14181 1889 74       		.sleb128 -12
 14182 188a 26       		.uleb128 0x26
 14183 188b 12000000 		.4byte	.LBB8
 14184 188f 6A000000 		.4byte	.LBE8-.LBB8
 14185 1893 2B       		.uleb128 0x2b
 14186 1894 4A260000 		.4byte	.LASF489
 14187 1898 01       		.byte	0x1
 14188 1899 B702     		.2byte	0x2b7
 14189 189b 81000000 		.4byte	0x81
 14190 189f 02       		.uleb128 0x2
 14191 18a0 91       		.byte	0x91
 14192 18a1 73       		.sleb128 -13
 14193 18a2 2B       		.uleb128 0x2b
 14194 18a3 4D0D0000 		.4byte	.LASF505
 14195 18a7 01       		.byte	0x1
 14196 18a8 B902     		.2byte	0x2b9
 14197 18aa 97050000 		.4byte	0x597
 14198 18ae 02       		.uleb128 0x2
 14199 18af 91       		.byte	0x91
 14200 18b0 6C       		.sleb128 -20
 14201 18b1 00       		.byte	0
 14202 18b2 00       		.byte	0
ARM GAS  C:\Users\RECEPC~1\AppData\Local\Temp\ccQD6Oev.s 			page 299


 14203 18b3 29       		.uleb128 0x29
 14204 18b4 630B0000 		.4byte	.LASF506
 14205 18b8 01       		.byte	0x1
 14206 18b9 C902     		.2byte	0x2c9
 14207 18bb 00000000 		.4byte	.LFB76
 14208 18bf 70000000 		.4byte	.LFE76-.LFB76
 14209 18c3 01       		.uleb128 0x1
 14210 18c4 9C       		.byte	0x9c
 14211 18c5 10190000 		.4byte	0x1910
 14212 18c9 2A       		.uleb128 0x2a
 14213 18ca 31240000 		.4byte	.LASF481
 14214 18ce 01       		.byte	0x1
 14215 18cf C902     		.2byte	0x2c9
 14216 18d1 11010000 		.4byte	0x111
 14217 18d5 02       		.uleb128 0x2
 14218 18d6 91       		.byte	0x91
 14219 18d7 64       		.sleb128 -28
 14220 18d8 2B       		.uleb128 0x2b
 14221 18d9 34000000 		.4byte	.LASF504
 14222 18dd 01       		.byte	0x1
 14223 18de CB02     		.2byte	0x2cb
 14224 18e0 6F0D0000 		.4byte	0xd6f
 14225 18e4 02       		.uleb128 0x2
 14226 18e5 91       		.byte	0x91
 14227 18e6 74       		.sleb128 -12
 14228 18e7 26       		.uleb128 0x26
 14229 18e8 12000000 		.4byte	.LBB9
 14230 18ec 58000000 		.4byte	.LBE9-.LBB9
 14231 18f0 2B       		.uleb128 0x2b
 14232 18f1 4A260000 		.4byte	.LASF489
 14233 18f5 01       		.byte	0x1
 14234 18f6 CE02     		.2byte	0x2ce
 14235 18f8 81000000 		.4byte	0x81
 14236 18fc 02       		.uleb128 0x2
 14237 18fd 91       		.byte	0x91
 14238 18fe 73       		.sleb128 -13
 14239 18ff 2B       		.uleb128 0x2b
 14240 1900 4D0D0000 		.4byte	.LASF505
 14241 1904 01       		.byte	0x1
 14242 1905 D002     		.2byte	0x2d0
 14243 1907 97050000 		.4byte	0x597
 14244 190b 02       		.uleb128 0x2
 14245 190c 91       		.byte	0x91
 14246 190d 6C       		.sleb128 -20
 14247 190e 00       		.byte	0
 14248 190f 00       		.byte	0
 14249 1910 29       		.uleb128 0x29
 14250 1911 BF040000 		.4byte	.LASF507
 14251 1915 01       		.byte	0x1
 14252 1916 E002     		.2byte	0x2e0
 14253 1918 00000000 		.4byte	.LFB77
 14254 191c 60000000 		.4byte	.LFE77-.LFB77
 14255 1920 01       		.uleb128 0x1
 14256 1921 9C       		.byte	0x9c
 14257 1922 6D190000 		.4byte	0x196d
 14258 1926 2A       		.uleb128 0x2a
 14259 1927 31240000 		.4byte	.LASF481
ARM GAS  C:\Users\RECEPC~1\AppData\Local\Temp\ccQD6Oev.s 			page 300


 14260 192b 01       		.byte	0x1
 14261 192c E002     		.2byte	0x2e0
 14262 192e 11010000 		.4byte	0x111
 14263 1932 02       		.uleb128 0x2
 14264 1933 91       		.byte	0x91
 14265 1934 64       		.sleb128 -28
 14266 1935 2B       		.uleb128 0x2b
 14267 1936 34000000 		.4byte	.LASF504
 14268 193a 01       		.byte	0x1
 14269 193b E202     		.2byte	0x2e2
 14270 193d 6F0D0000 		.4byte	0xd6f
 14271 1941 02       		.uleb128 0x2
 14272 1942 91       		.byte	0x91
 14273 1943 74       		.sleb128 -12
 14274 1944 26       		.uleb128 0x26
 14275 1945 12000000 		.4byte	.LBB10
 14276 1949 48000000 		.4byte	.LBE10-.LBB10
 14277 194d 2B       		.uleb128 0x2b
 14278 194e 4A260000 		.4byte	.LASF489
 14279 1952 01       		.byte	0x1
 14280 1953 E502     		.2byte	0x2e5
 14281 1955 81000000 		.4byte	0x81
 14282 1959 02       		.uleb128 0x2
 14283 195a 91       		.byte	0x91
 14284 195b 73       		.sleb128 -13
 14285 195c 2B       		.uleb128 0x2b
 14286 195d 4D0D0000 		.4byte	.LASF505
 14287 1961 01       		.byte	0x1
 14288 1962 E702     		.2byte	0x2e7
 14289 1964 97050000 		.4byte	0x597
 14290 1968 02       		.uleb128 0x2
 14291 1969 91       		.byte	0x91
 14292 196a 6C       		.sleb128 -20
 14293 196b 00       		.byte	0
 14294 196c 00       		.byte	0
 14295 196d 29       		.uleb128 0x29
 14296 196e 37260000 		.4byte	.LASF508
 14297 1972 01       		.byte	0x1
 14298 1973 F302     		.2byte	0x2f3
 14299 1975 00000000 		.4byte	.LFB78
 14300 1979 6A000000 		.4byte	.LFE78-.LFB78
 14301 197d 01       		.uleb128 0x1
 14302 197e 9C       		.byte	0x9c
 14303 197f CA190000 		.4byte	0x19ca
 14304 1983 2A       		.uleb128 0x2a
 14305 1984 31240000 		.4byte	.LASF481
 14306 1988 01       		.byte	0x1
 14307 1989 F302     		.2byte	0x2f3
 14308 198b 11010000 		.4byte	0x111
 14309 198f 02       		.uleb128 0x2
 14310 1990 91       		.byte	0x91
 14311 1991 64       		.sleb128 -28
 14312 1992 2B       		.uleb128 0x2b
 14313 1993 34000000 		.4byte	.LASF504
 14314 1997 01       		.byte	0x1
 14315 1998 F502     		.2byte	0x2f5
 14316 199a 6F0D0000 		.4byte	0xd6f
ARM GAS  C:\Users\RECEPC~1\AppData\Local\Temp\ccQD6Oev.s 			page 301


 14317 199e 02       		.uleb128 0x2
 14318 199f 91       		.byte	0x91
 14319 19a0 74       		.sleb128 -12
 14320 19a1 26       		.uleb128 0x26
 14321 19a2 12000000 		.4byte	.LBB11
 14322 19a6 52000000 		.4byte	.LBE11-.LBB11
 14323 19aa 2B       		.uleb128 0x2b
 14324 19ab 4A260000 		.4byte	.LASF489
 14325 19af 01       		.byte	0x1
 14326 19b0 F802     		.2byte	0x2f8
 14327 19b2 81000000 		.4byte	0x81
 14328 19b6 02       		.uleb128 0x2
 14329 19b7 91       		.byte	0x91
 14330 19b8 73       		.sleb128 -13
 14331 19b9 2B       		.uleb128 0x2b
 14332 19ba 4D0D0000 		.4byte	.LASF505
 14333 19be 01       		.byte	0x1
 14334 19bf FA02     		.2byte	0x2fa
 14335 19c1 97050000 		.4byte	0x597
 14336 19c5 02       		.uleb128 0x2
 14337 19c6 91       		.byte	0x91
 14338 19c7 6C       		.sleb128 -20
 14339 19c8 00       		.byte	0
 14340 19c9 00       		.byte	0
 14341 19ca 29       		.uleb128 0x29
 14342 19cb F9290000 		.4byte	.LASF509
 14343 19cf 01       		.byte	0x1
 14344 19d0 0603     		.2byte	0x306
 14345 19d2 00000000 		.4byte	.LFB79
 14346 19d6 6A000000 		.4byte	.LFE79-.LFB79
 14347 19da 01       		.uleb128 0x1
 14348 19db 9C       		.byte	0x9c
 14349 19dc 271A0000 		.4byte	0x1a27
 14350 19e0 2A       		.uleb128 0x2a
 14351 19e1 31240000 		.4byte	.LASF481
 14352 19e5 01       		.byte	0x1
 14353 19e6 0603     		.2byte	0x306
 14354 19e8 11010000 		.4byte	0x111
 14355 19ec 02       		.uleb128 0x2
 14356 19ed 91       		.byte	0x91
 14357 19ee 64       		.sleb128 -28
 14358 19ef 2B       		.uleb128 0x2b
 14359 19f0 34000000 		.4byte	.LASF504
 14360 19f4 01       		.byte	0x1
 14361 19f5 0803     		.2byte	0x308
 14362 19f7 6F0D0000 		.4byte	0xd6f
 14363 19fb 02       		.uleb128 0x2
 14364 19fc 91       		.byte	0x91
 14365 19fd 74       		.sleb128 -12
 14366 19fe 26       		.uleb128 0x26
 14367 19ff 12000000 		.4byte	.LBB12
 14368 1a03 52000000 		.4byte	.LBE12-.LBB12
 14369 1a07 2B       		.uleb128 0x2b
 14370 1a08 4A260000 		.4byte	.LASF489
 14371 1a0c 01       		.byte	0x1
 14372 1a0d 0B03     		.2byte	0x30b
 14373 1a0f 81000000 		.4byte	0x81
ARM GAS  C:\Users\RECEPC~1\AppData\Local\Temp\ccQD6Oev.s 			page 302


 14374 1a13 02       		.uleb128 0x2
 14375 1a14 91       		.byte	0x91
 14376 1a15 73       		.sleb128 -13
 14377 1a16 2B       		.uleb128 0x2b
 14378 1a17 4D0D0000 		.4byte	.LASF505
 14379 1a1b 01       		.byte	0x1
 14380 1a1c 0D03     		.2byte	0x30d
 14381 1a1e 97050000 		.4byte	0x597
 14382 1a22 02       		.uleb128 0x2
 14383 1a23 91       		.byte	0x91
 14384 1a24 6C       		.sleb128 -20
 14385 1a25 00       		.byte	0
 14386 1a26 00       		.byte	0
 14387 1a27 29       		.uleb128 0x29
 14388 1a28 92260000 		.4byte	.LASF510
 14389 1a2c 01       		.byte	0x1
 14390 1a2d 1A03     		.2byte	0x31a
 14391 1a2f 00000000 		.4byte	.LFB80
 14392 1a33 6A000000 		.4byte	.LFE80-.LFB80
 14393 1a37 01       		.uleb128 0x1
 14394 1a38 9C       		.byte	0x9c
 14395 1a39 841A0000 		.4byte	0x1a84
 14396 1a3d 2A       		.uleb128 0x2a
 14397 1a3e 31240000 		.4byte	.LASF481
 14398 1a42 01       		.byte	0x1
 14399 1a43 1A03     		.2byte	0x31a
 14400 1a45 11010000 		.4byte	0x111
 14401 1a49 02       		.uleb128 0x2
 14402 1a4a 91       		.byte	0x91
 14403 1a4b 64       		.sleb128 -28
 14404 1a4c 2B       		.uleb128 0x2b
 14405 1a4d 34000000 		.4byte	.LASF504
 14406 1a51 01       		.byte	0x1
 14407 1a52 1C03     		.2byte	0x31c
 14408 1a54 6F0D0000 		.4byte	0xd6f
 14409 1a58 02       		.uleb128 0x2
 14410 1a59 91       		.byte	0x91
 14411 1a5a 74       		.sleb128 -12
 14412 1a5b 26       		.uleb128 0x26
 14413 1a5c 12000000 		.4byte	.LBB13
 14414 1a60 52000000 		.4byte	.LBE13-.LBB13
 14415 1a64 2B       		.uleb128 0x2b
 14416 1a65 4A260000 		.4byte	.LASF489
 14417 1a69 01       		.byte	0x1
 14418 1a6a 1F03     		.2byte	0x31f
 14419 1a6c 81000000 		.4byte	0x81
 14420 1a70 02       		.uleb128 0x2
 14421 1a71 91       		.byte	0x91
 14422 1a72 73       		.sleb128 -13
 14423 1a73 2B       		.uleb128 0x2b
 14424 1a74 4D0D0000 		.4byte	.LASF505
 14425 1a78 01       		.byte	0x1
 14426 1a79 2103     		.2byte	0x321
 14427 1a7b 97050000 		.4byte	0x597
 14428 1a7f 02       		.uleb128 0x2
 14429 1a80 91       		.byte	0x91
 14430 1a81 6C       		.sleb128 -20
ARM GAS  C:\Users\RECEPC~1\AppData\Local\Temp\ccQD6Oev.s 			page 303


 14431 1a82 00       		.byte	0
 14432 1a83 00       		.byte	0
 14433 1a84 29       		.uleb128 0x29
 14434 1a85 32040000 		.4byte	.LASF511
 14435 1a89 01       		.byte	0x1
 14436 1a8a 2F03     		.2byte	0x32f
 14437 1a8c 00000000 		.4byte	.LFB81
 14438 1a90 6A000000 		.4byte	.LFE81-.LFB81
 14439 1a94 01       		.uleb128 0x1
 14440 1a95 9C       		.byte	0x9c
 14441 1a96 E11A0000 		.4byte	0x1ae1
 14442 1a9a 2A       		.uleb128 0x2a
 14443 1a9b 31240000 		.4byte	.LASF481
 14444 1a9f 01       		.byte	0x1
 14445 1aa0 2F03     		.2byte	0x32f
 14446 1aa2 11010000 		.4byte	0x111
 14447 1aa6 02       		.uleb128 0x2
 14448 1aa7 91       		.byte	0x91
 14449 1aa8 64       		.sleb128 -28
 14450 1aa9 2B       		.uleb128 0x2b
 14451 1aaa 34000000 		.4byte	.LASF504
 14452 1aae 01       		.byte	0x1
 14453 1aaf 3103     		.2byte	0x331
 14454 1ab1 6F0D0000 		.4byte	0xd6f
 14455 1ab5 02       		.uleb128 0x2
 14456 1ab6 91       		.byte	0x91
 14457 1ab7 74       		.sleb128 -12
 14458 1ab8 26       		.uleb128 0x26
 14459 1ab9 12000000 		.4byte	.LBB14
 14460 1abd 52000000 		.4byte	.LBE14-.LBB14
 14461 1ac1 2B       		.uleb128 0x2b
 14462 1ac2 4A260000 		.4byte	.LASF489
 14463 1ac6 01       		.byte	0x1
 14464 1ac7 3403     		.2byte	0x334
 14465 1ac9 81000000 		.4byte	0x81
 14466 1acd 02       		.uleb128 0x2
 14467 1ace 91       		.byte	0x91
 14468 1acf 73       		.sleb128 -13
 14469 1ad0 2B       		.uleb128 0x2b
 14470 1ad1 4D0D0000 		.4byte	.LASF505
 14471 1ad5 01       		.byte	0x1
 14472 1ad6 3603     		.2byte	0x336
 14473 1ad8 97050000 		.4byte	0x597
 14474 1adc 02       		.uleb128 0x2
 14475 1add 91       		.byte	0x91
 14476 1ade 6C       		.sleb128 -20
 14477 1adf 00       		.byte	0
 14478 1ae0 00       		.byte	0
 14479 1ae1 29       		.uleb128 0x29
 14480 1ae2 CC0E0000 		.4byte	.LASF512
 14481 1ae6 01       		.byte	0x1
 14482 1ae7 4403     		.2byte	0x344
 14483 1ae9 00000000 		.4byte	.LFB82
 14484 1aed 6A000000 		.4byte	.LFE82-.LFB82
 14485 1af1 01       		.uleb128 0x1
 14486 1af2 9C       		.byte	0x9c
 14487 1af3 3E1B0000 		.4byte	0x1b3e
ARM GAS  C:\Users\RECEPC~1\AppData\Local\Temp\ccQD6Oev.s 			page 304


 14488 1af7 2A       		.uleb128 0x2a
 14489 1af8 31240000 		.4byte	.LASF481
 14490 1afc 01       		.byte	0x1
 14491 1afd 4403     		.2byte	0x344
 14492 1aff 11010000 		.4byte	0x111
 14493 1b03 02       		.uleb128 0x2
 14494 1b04 91       		.byte	0x91
 14495 1b05 64       		.sleb128 -28
 14496 1b06 2B       		.uleb128 0x2b
 14497 1b07 34000000 		.4byte	.LASF504
 14498 1b0b 01       		.byte	0x1
 14499 1b0c 4603     		.2byte	0x346
 14500 1b0e 6F0D0000 		.4byte	0xd6f
 14501 1b12 02       		.uleb128 0x2
 14502 1b13 91       		.byte	0x91
 14503 1b14 74       		.sleb128 -12
 14504 1b15 26       		.uleb128 0x26
 14505 1b16 12000000 		.4byte	.LBB15
 14506 1b1a 52000000 		.4byte	.LBE15-.LBB15
 14507 1b1e 2B       		.uleb128 0x2b
 14508 1b1f 4A260000 		.4byte	.LASF489
 14509 1b23 01       		.byte	0x1
 14510 1b24 4903     		.2byte	0x349
 14511 1b26 81000000 		.4byte	0x81
 14512 1b2a 02       		.uleb128 0x2
 14513 1b2b 91       		.byte	0x91
 14514 1b2c 73       		.sleb128 -13
 14515 1b2d 2B       		.uleb128 0x2b
 14516 1b2e 4D0D0000 		.4byte	.LASF505
 14517 1b32 01       		.byte	0x1
 14518 1b33 4B03     		.2byte	0x34b
 14519 1b35 97050000 		.4byte	0x597
 14520 1b39 02       		.uleb128 0x2
 14521 1b3a 91       		.byte	0x91
 14522 1b3b 6C       		.sleb128 -20
 14523 1b3c 00       		.byte	0
 14524 1b3d 00       		.byte	0
 14525 1b3e 29       		.uleb128 0x29
 14526 1b3f 17090000 		.4byte	.LASF513
 14527 1b43 01       		.byte	0x1
 14528 1b44 5F03     		.2byte	0x35f
 14529 1b46 00000000 		.4byte	.LFB83
 14530 1b4a 4A010000 		.4byte	.LFE83-.LFB83
 14531 1b4e 01       		.uleb128 0x1
 14532 1b4f 9C       		.byte	0x9c
 14533 1b50 D21B0000 		.4byte	0x1bd2
 14534 1b54 2A       		.uleb128 0x2a
 14535 1b55 31240000 		.4byte	.LASF481
 14536 1b59 01       		.byte	0x1
 14537 1b5a 5F03     		.2byte	0x35f
 14538 1b5c 11010000 		.4byte	0x111
 14539 1b60 02       		.uleb128 0x2
 14540 1b61 91       		.byte	0x91
 14541 1b62 54       		.sleb128 -44
 14542 1b63 2B       		.uleb128 0x2b
 14543 1b64 34000000 		.4byte	.LASF504
 14544 1b68 01       		.byte	0x1
ARM GAS  C:\Users\RECEPC~1\AppData\Local\Temp\ccQD6Oev.s 			page 305


 14545 1b69 6103     		.2byte	0x361
 14546 1b6b 6F0D0000 		.4byte	0xd6f
 14547 1b6f 02       		.uleb128 0x2
 14548 1b70 91       		.byte	0x91
 14549 1b71 68       		.sleb128 -24
 14550 1b72 26       		.uleb128 0x26
 14551 1b73 14000000 		.4byte	.LBB16
 14552 1b77 30010000 		.4byte	.LBE16-.LBB16
 14553 1b7b 2B       		.uleb128 0x2b
 14554 1b7c 4A260000 		.4byte	.LASF489
 14555 1b80 01       		.byte	0x1
 14556 1b81 6403     		.2byte	0x364
 14557 1b83 81000000 		.4byte	0x81
 14558 1b87 02       		.uleb128 0x2
 14559 1b88 91       		.byte	0x91
 14560 1b89 6F       		.sleb128 -17
 14561 1b8a 2B       		.uleb128 0x2b
 14562 1b8b 4D0D0000 		.4byte	.LASF505
 14563 1b8f 01       		.byte	0x1
 14564 1b90 6503     		.2byte	0x365
 14565 1b92 97050000 		.4byte	0x597
 14566 1b96 02       		.uleb128 0x2
 14567 1b97 91       		.byte	0x91
 14568 1b98 64       		.sleb128 -28
 14569 1b99 26       		.uleb128 0x26
 14570 1b9a 3A000000 		.4byte	.LBB17
 14571 1b9e 0A010000 		.4byte	.LBE17-.LBB17
 14572 1ba2 2B       		.uleb128 0x2b
 14573 1ba3 91270000 		.4byte	.LASF514
 14574 1ba7 01       		.byte	0x1
 14575 1ba8 7503     		.2byte	0x375
 14576 1baa 97000000 		.4byte	0x97
 14577 1bae 02       		.uleb128 0x2
 14578 1baf 91       		.byte	0x91
 14579 1bb0 63       		.sleb128 -29
 14580 1bb1 28       		.uleb128 0x28
 14581 1bb2 70747200 		.ascii	"ptr\000"
 14582 1bb6 01       		.byte	0x1
 14583 1bb7 8303     		.2byte	0x383
 14584 1bb9 3B010000 		.4byte	0x13b
 14585 1bbd 02       		.uleb128 0x2
 14586 1bbe 91       		.byte	0x91
 14587 1bbf 5C       		.sleb128 -36
 14588 1bc0 2B       		.uleb128 0x2b
 14589 1bc1 E5160000 		.4byte	.LASF515
 14590 1bc5 01       		.byte	0x1
 14591 1bc6 8E03     		.2byte	0x38e
 14592 1bc8 97000000 		.4byte	0x97
 14593 1bcc 02       		.uleb128 0x2
 14594 1bcd 91       		.byte	0x91
 14595 1bce 6E       		.sleb128 -18
 14596 1bcf 00       		.byte	0
 14597 1bd0 00       		.byte	0
 14598 1bd1 00       		.byte	0
 14599 1bd2 29       		.uleb128 0x29
 14600 1bd3 041C0000 		.4byte	.LASF516
 14601 1bd7 01       		.byte	0x1
ARM GAS  C:\Users\RECEPC~1\AppData\Local\Temp\ccQD6Oev.s 			page 306


 14602 1bd8 A303     		.2byte	0x3a3
 14603 1bda 00000000 		.4byte	.LFB84
 14604 1bde 60010000 		.4byte	.LFE84-.LFB84
 14605 1be2 01       		.uleb128 0x1
 14606 1be3 9C       		.byte	0x9c
 14607 1be4 661C0000 		.4byte	0x1c66
 14608 1be8 2A       		.uleb128 0x2a
 14609 1be9 31240000 		.4byte	.LASF481
 14610 1bed 01       		.byte	0x1
 14611 1bee A303     		.2byte	0x3a3
 14612 1bf0 11010000 		.4byte	0x111
 14613 1bf4 02       		.uleb128 0x2
 14614 1bf5 91       		.byte	0x91
 14615 1bf6 54       		.sleb128 -44
 14616 1bf7 2B       		.uleb128 0x2b
 14617 1bf8 34000000 		.4byte	.LASF504
 14618 1bfc 01       		.byte	0x1
 14619 1bfd A503     		.2byte	0x3a5
 14620 1bff 6F0D0000 		.4byte	0xd6f
 14621 1c03 02       		.uleb128 0x2
 14622 1c04 91       		.byte	0x91
 14623 1c05 68       		.sleb128 -24
 14624 1c06 26       		.uleb128 0x26
 14625 1c07 14000000 		.4byte	.LBB18
 14626 1c0b 46010000 		.4byte	.LBE18-.LBB18
 14627 1c0f 2B       		.uleb128 0x2b
 14628 1c10 4A260000 		.4byte	.LASF489
 14629 1c14 01       		.byte	0x1
 14630 1c15 A803     		.2byte	0x3a8
 14631 1c17 81000000 		.4byte	0x81
 14632 1c1b 02       		.uleb128 0x2
 14633 1c1c 91       		.byte	0x91
 14634 1c1d 6F       		.sleb128 -17
 14635 1c1e 2B       		.uleb128 0x2b
 14636 1c1f 4D0D0000 		.4byte	.LASF505
 14637 1c23 01       		.byte	0x1
 14638 1c24 A903     		.2byte	0x3a9
 14639 1c26 97050000 		.4byte	0x597
 14640 1c2a 02       		.uleb128 0x2
 14641 1c2b 91       		.byte	0x91
 14642 1c2c 64       		.sleb128 -28
 14643 1c2d 26       		.uleb128 0x26
 14644 1c2e 3A000000 		.4byte	.LBB19
 14645 1c32 20010000 		.4byte	.LBE19-.LBB19
 14646 1c36 2B       		.uleb128 0x2b
 14647 1c37 91270000 		.4byte	.LASF514
 14648 1c3b 01       		.byte	0x1
 14649 1c3c B803     		.2byte	0x3b8
 14650 1c3e 97000000 		.4byte	0x97
 14651 1c42 02       		.uleb128 0x2
 14652 1c43 91       		.byte	0x91
 14653 1c44 63       		.sleb128 -29
 14654 1c45 28       		.uleb128 0x28
 14655 1c46 70747200 		.ascii	"ptr\000"
 14656 1c4a 01       		.byte	0x1
 14657 1c4b C803     		.2byte	0x3c8
 14658 1c4d 3B010000 		.4byte	0x13b
ARM GAS  C:\Users\RECEPC~1\AppData\Local\Temp\ccQD6Oev.s 			page 307


 14659 1c51 02       		.uleb128 0x2
 14660 1c52 91       		.byte	0x91
 14661 1c53 5C       		.sleb128 -36
 14662 1c54 2B       		.uleb128 0x2b
 14663 1c55 E5160000 		.4byte	.LASF515
 14664 1c59 01       		.byte	0x1
 14665 1c5a D003     		.2byte	0x3d0
 14666 1c5c 97000000 		.4byte	0x97
 14667 1c60 02       		.uleb128 0x2
 14668 1c61 91       		.byte	0x91
 14669 1c62 6E       		.sleb128 -18
 14670 1c63 00       		.byte	0
 14671 1c64 00       		.byte	0
 14672 1c65 00       		.byte	0
 14673 1c66 29       		.uleb128 0x29
 14674 1c67 E9030000 		.4byte	.LASF517
 14675 1c6b 01       		.byte	0x1
 14676 1c6c EA03     		.2byte	0x3ea
 14677 1c6e 00000000 		.4byte	.LFB85
 14678 1c72 4E010000 		.4byte	.LFE85-.LFB85
 14679 1c76 01       		.uleb128 0x1
 14680 1c77 9C       		.byte	0x9c
 14681 1c78 FA1C0000 		.4byte	0x1cfa
 14682 1c7c 2A       		.uleb128 0x2a
 14683 1c7d 31240000 		.4byte	.LASF481
 14684 1c81 01       		.byte	0x1
 14685 1c82 EA03     		.2byte	0x3ea
 14686 1c84 11010000 		.4byte	0x111
 14687 1c88 02       		.uleb128 0x2
 14688 1c89 91       		.byte	0x91
 14689 1c8a 54       		.sleb128 -44
 14690 1c8b 2B       		.uleb128 0x2b
 14691 1c8c 34000000 		.4byte	.LASF504
 14692 1c90 01       		.byte	0x1
 14693 1c91 EC03     		.2byte	0x3ec
 14694 1c93 6F0D0000 		.4byte	0xd6f
 14695 1c97 02       		.uleb128 0x2
 14696 1c98 91       		.byte	0x91
 14697 1c99 68       		.sleb128 -24
 14698 1c9a 26       		.uleb128 0x26
 14699 1c9b 14000000 		.4byte	.LBB20
 14700 1c9f 34010000 		.4byte	.LBE20-.LBB20
 14701 1ca3 2B       		.uleb128 0x2b
 14702 1ca4 4A260000 		.4byte	.LASF489
 14703 1ca8 01       		.byte	0x1
 14704 1ca9 EF03     		.2byte	0x3ef
 14705 1cab 81000000 		.4byte	0x81
 14706 1caf 02       		.uleb128 0x2
 14707 1cb0 91       		.byte	0x91
 14708 1cb1 6F       		.sleb128 -17
 14709 1cb2 2B       		.uleb128 0x2b
 14710 1cb3 4D0D0000 		.4byte	.LASF505
 14711 1cb7 01       		.byte	0x1
 14712 1cb8 F103     		.2byte	0x3f1
 14713 1cba 97050000 		.4byte	0x597
 14714 1cbe 02       		.uleb128 0x2
 14715 1cbf 91       		.byte	0x91
ARM GAS  C:\Users\RECEPC~1\AppData\Local\Temp\ccQD6Oev.s 			page 308


 14716 1cc0 64       		.sleb128 -28
 14717 1cc1 26       		.uleb128 0x26
 14718 1cc2 3A000000 		.4byte	.LBB21
 14719 1cc6 0E010000 		.4byte	.LBE21-.LBB21
 14720 1cca 2B       		.uleb128 0x2b
 14721 1ccb 91270000 		.4byte	.LASF514
 14722 1ccf 01       		.byte	0x1
 14723 1cd0 F903     		.2byte	0x3f9
 14724 1cd2 97000000 		.4byte	0x97
 14725 1cd6 02       		.uleb128 0x2
 14726 1cd7 91       		.byte	0x91
 14727 1cd8 63       		.sleb128 -29
 14728 1cd9 28       		.uleb128 0x28
 14729 1cda 70747200 		.ascii	"ptr\000"
 14730 1cde 01       		.byte	0x1
 14731 1cdf 0004     		.2byte	0x400
 14732 1ce1 3B010000 		.4byte	0x13b
 14733 1ce5 02       		.uleb128 0x2
 14734 1ce6 91       		.byte	0x91
 14735 1ce7 5C       		.sleb128 -36
 14736 1ce8 2B       		.uleb128 0x2b
 14737 1ce9 E5160000 		.4byte	.LASF515
 14738 1ced 01       		.byte	0x1
 14739 1cee 0B04     		.2byte	0x40b
 14740 1cf0 97000000 		.4byte	0x97
 14741 1cf4 02       		.uleb128 0x2
 14742 1cf5 91       		.byte	0x91
 14743 1cf6 6E       		.sleb128 -18
 14744 1cf7 00       		.byte	0
 14745 1cf8 00       		.byte	0
 14746 1cf9 00       		.byte	0
 14747 1cfa 29       		.uleb128 0x29
 14748 1cfb C50F0000 		.4byte	.LASF518
 14749 1cff 01       		.byte	0x1
 14750 1d00 1D04     		.2byte	0x41d
 14751 1d02 00000000 		.4byte	.LFB86
 14752 1d06 B6010000 		.4byte	.LFE86-.LFB86
 14753 1d0a 01       		.uleb128 0x1
 14754 1d0b 9C       		.byte	0x9c
 14755 1d0c 701D0000 		.4byte	0x1d70
 14756 1d10 2A       		.uleb128 0x2a
 14757 1d11 31240000 		.4byte	.LASF481
 14758 1d15 01       		.byte	0x1
 14759 1d16 1D04     		.2byte	0x41d
 14760 1d18 30010000 		.4byte	0x130
 14761 1d1c 02       		.uleb128 0x2
 14762 1d1d 91       		.byte	0x91
 14763 1d1e 5C       		.sleb128 -36
 14764 1d1f 2B       		.uleb128 0x2b
 14765 1d20 CF1F0000 		.4byte	.LASF477
 14766 1d24 01       		.byte	0x1
 14767 1d25 1F04     		.2byte	0x41f
 14768 1d27 B70F0000 		.4byte	0xfb7
 14769 1d2b 02       		.uleb128 0x2
 14770 1d2c 91       		.byte	0x91
 14771 1d2d 6C       		.sleb128 -20
 14772 1d2e 26       		.uleb128 0x26
ARM GAS  C:\Users\RECEPC~1\AppData\Local\Temp\ccQD6Oev.s 			page 309


 14773 1d2f 14000000 		.4byte	.LBB22
 14774 1d33 9C010000 		.4byte	.LBE22-.LBB22
 14775 1d37 28       		.uleb128 0x28
 14776 1d38 70747300 		.ascii	"pts\000"
 14777 1d3c 01       		.byte	0x1
 14778 1d3d 2604     		.2byte	0x426
 14779 1d3f AF090000 		.4byte	0x9af
 14780 1d43 02       		.uleb128 0x2
 14781 1d44 91       		.byte	0x91
 14782 1d45 68       		.sleb128 -24
 14783 1d46 26       		.uleb128 0x26
 14784 1d47 4E000000 		.4byte	.LBB23
 14785 1d4b 62010000 		.4byte	.LBE23-.LBB23
 14786 1d4f 2B       		.uleb128 0x2b
 14787 1d50 4A260000 		.4byte	.LASF489
 14788 1d54 01       		.byte	0x1
 14789 1d55 2A04     		.2byte	0x42a
 14790 1d57 97000000 		.4byte	0x97
 14791 1d5b 02       		.uleb128 0x2
 14792 1d5c 91       		.byte	0x91
 14793 1d5d 67       		.sleb128 -25
 14794 1d5e 2B       		.uleb128 0x2b
 14795 1d5f F2150000 		.4byte	.LASF499
 14796 1d63 01       		.byte	0x1
 14797 1d64 3F04     		.2byte	0x43f
 14798 1d66 AF090000 		.4byte	0x9af
 14799 1d6a 02       		.uleb128 0x2
 14800 1d6b 91       		.byte	0x91
 14801 1d6c 60       		.sleb128 -32
 14802 1d6d 00       		.byte	0
 14803 1d6e 00       		.byte	0
 14804 1d6f 00       		.byte	0
 14805 1d70 29       		.uleb128 0x29
 14806 1d71 2D1E0000 		.4byte	.LASF519
 14807 1d75 01       		.byte	0x1
 14808 1d76 5004     		.2byte	0x450
 14809 1d78 00000000 		.4byte	.LFB87
 14810 1d7c E8000000 		.4byte	.LFE87-.LFB87
 14811 1d80 01       		.uleb128 0x1
 14812 1d81 9C       		.byte	0x9c
 14813 1d82 E61D0000 		.4byte	0x1de6
 14814 1d86 2A       		.uleb128 0x2a
 14815 1d87 31240000 		.4byte	.LASF481
 14816 1d8b 01       		.byte	0x1
 14817 1d8c 5004     		.2byte	0x450
 14818 1d8e 30010000 		.4byte	0x130
 14819 1d92 02       		.uleb128 0x2
 14820 1d93 91       		.byte	0x91
 14821 1d94 64       		.sleb128 -28
 14822 1d95 2B       		.uleb128 0x2b
 14823 1d96 CF1F0000 		.4byte	.LASF477
 14824 1d9a 01       		.byte	0x1
 14825 1d9b 5204     		.2byte	0x452
 14826 1d9d B70F0000 		.4byte	0xfb7
 14827 1da1 02       		.uleb128 0x2
 14828 1da2 91       		.byte	0x91
 14829 1da3 74       		.sleb128 -12
ARM GAS  C:\Users\RECEPC~1\AppData\Local\Temp\ccQD6Oev.s 			page 310


 14830 1da4 26       		.uleb128 0x26
 14831 1da5 12000000 		.4byte	.LBB24
 14832 1da9 D0000000 		.4byte	.LBE24-.LBB24
 14833 1dad 28       		.uleb128 0x28
 14834 1dae 70747300 		.ascii	"pts\000"
 14835 1db2 01       		.byte	0x1
 14836 1db3 5904     		.2byte	0x459
 14837 1db5 AF090000 		.4byte	0x9af
 14838 1db9 02       		.uleb128 0x2
 14839 1dba 91       		.byte	0x91
 14840 1dbb 70       		.sleb128 -16
 14841 1dbc 26       		.uleb128 0x26
 14842 1dbd 4A000000 		.4byte	.LBB25
 14843 1dc1 98000000 		.4byte	.LBE25-.LBB25
 14844 1dc5 2B       		.uleb128 0x2b
 14845 1dc6 4A260000 		.4byte	.LASF489
 14846 1dca 01       		.byte	0x1
 14847 1dcb 5D04     		.2byte	0x45d
 14848 1dcd 97000000 		.4byte	0x97
 14849 1dd1 02       		.uleb128 0x2
 14850 1dd2 91       		.byte	0x91
 14851 1dd3 6F       		.sleb128 -17
 14852 1dd4 2B       		.uleb128 0x2b
 14853 1dd5 F2150000 		.4byte	.LASF499
 14854 1dd9 01       		.byte	0x1
 14855 1dda 6304     		.2byte	0x463
 14856 1ddc AF090000 		.4byte	0x9af
 14857 1de0 02       		.uleb128 0x2
 14858 1de1 91       		.byte	0x91
 14859 1de2 68       		.sleb128 -24
 14860 1de3 00       		.byte	0
 14861 1de4 00       		.byte	0
 14862 1de5 00       		.byte	0
 14863 1de6 29       		.uleb128 0x29
 14864 1de7 BF260000 		.4byte	.LASF520
 14865 1deb 01       		.byte	0x1
 14866 1dec 7A04     		.2byte	0x47a
 14867 1dee 00000000 		.4byte	.LFB88
 14868 1df2 78010000 		.4byte	.LFE88-.LFB88
 14869 1df6 01       		.uleb128 0x1
 14870 1df7 9C       		.byte	0x9c
 14871 1df8 7A1E0000 		.4byte	0x1e7a
 14872 1dfc 2A       		.uleb128 0x2a
 14873 1dfd 31240000 		.4byte	.LASF481
 14874 1e01 01       		.byte	0x1
 14875 1e02 7A04     		.2byte	0x47a
 14876 1e04 11010000 		.4byte	0x111
 14877 1e08 02       		.uleb128 0x2
 14878 1e09 91       		.byte	0x91
 14879 1e0a 54       		.sleb128 -44
 14880 1e0b 2B       		.uleb128 0x2b
 14881 1e0c 34000000 		.4byte	.LASF504
 14882 1e10 01       		.byte	0x1
 14883 1e11 7C04     		.2byte	0x47c
 14884 1e13 6F0D0000 		.4byte	0xd6f
 14885 1e17 02       		.uleb128 0x2
 14886 1e18 91       		.byte	0x91
ARM GAS  C:\Users\RECEPC~1\AppData\Local\Temp\ccQD6Oev.s 			page 311


 14887 1e19 68       		.sleb128 -24
 14888 1e1a 26       		.uleb128 0x26
 14889 1e1b 14000000 		.4byte	.LBB26
 14890 1e1f 58010000 		.4byte	.LBE26-.LBB26
 14891 1e23 2B       		.uleb128 0x2b
 14892 1e24 4A260000 		.4byte	.LASF489
 14893 1e28 01       		.byte	0x1
 14894 1e29 7F04     		.2byte	0x47f
 14895 1e2b 81000000 		.4byte	0x81
 14896 1e2f 02       		.uleb128 0x2
 14897 1e30 91       		.byte	0x91
 14898 1e31 6F       		.sleb128 -17
 14899 1e32 2B       		.uleb128 0x2b
 14900 1e33 4D0D0000 		.4byte	.LASF505
 14901 1e37 01       		.byte	0x1
 14902 1e38 8004     		.2byte	0x480
 14903 1e3a 97050000 		.4byte	0x597
 14904 1e3e 02       		.uleb128 0x2
 14905 1e3f 91       		.byte	0x91
 14906 1e40 64       		.sleb128 -28
 14907 1e41 26       		.uleb128 0x26
 14908 1e42 3A000000 		.4byte	.LBB27
 14909 1e46 32010000 		.4byte	.LBE27-.LBB27
 14910 1e4a 2B       		.uleb128 0x2b
 14911 1e4b 91270000 		.4byte	.LASF514
 14912 1e4f 01       		.byte	0x1
 14913 1e50 9004     		.2byte	0x490
 14914 1e52 97000000 		.4byte	0x97
 14915 1e56 02       		.uleb128 0x2
 14916 1e57 91       		.byte	0x91
 14917 1e58 63       		.sleb128 -29
 14918 1e59 28       		.uleb128 0x28
 14919 1e5a 70747200 		.ascii	"ptr\000"
 14920 1e5e 01       		.byte	0x1
 14921 1e5f 9E04     		.2byte	0x49e
 14922 1e61 3B010000 		.4byte	0x13b
 14923 1e65 02       		.uleb128 0x2
 14924 1e66 91       		.byte	0x91
 14925 1e67 5C       		.sleb128 -36
 14926 1e68 2B       		.uleb128 0x2b
 14927 1e69 E5160000 		.4byte	.LASF515
 14928 1e6d 01       		.byte	0x1
 14929 1e6e AF04     		.2byte	0x4af
 14930 1e70 97000000 		.4byte	0x97
 14931 1e74 02       		.uleb128 0x2
 14932 1e75 91       		.byte	0x91
 14933 1e76 6E       		.sleb128 -18
 14934 1e77 00       		.byte	0
 14935 1e78 00       		.byte	0
 14936 1e79 00       		.byte	0
 14937 1e7a 29       		.uleb128 0x29
 14938 1e7b 180B0000 		.4byte	.LASF521
 14939 1e7f 01       		.byte	0x1
 14940 1e80 CB04     		.2byte	0x4cb
 14941 1e82 00000000 		.4byte	.LFB89
 14942 1e86 88010000 		.4byte	.LFE89-.LFB89
 14943 1e8a 01       		.uleb128 0x1
ARM GAS  C:\Users\RECEPC~1\AppData\Local\Temp\ccQD6Oev.s 			page 312


 14944 1e8b 9C       		.byte	0x9c
 14945 1e8c 0E1F0000 		.4byte	0x1f0e
 14946 1e90 2A       		.uleb128 0x2a
 14947 1e91 31240000 		.4byte	.LASF481
 14948 1e95 01       		.byte	0x1
 14949 1e96 CB04     		.2byte	0x4cb
 14950 1e98 11010000 		.4byte	0x111
 14951 1e9c 02       		.uleb128 0x2
 14952 1e9d 91       		.byte	0x91
 14953 1e9e 54       		.sleb128 -44
 14954 1e9f 2B       		.uleb128 0x2b
 14955 1ea0 34000000 		.4byte	.LASF504
 14956 1ea4 01       		.byte	0x1
 14957 1ea5 CD04     		.2byte	0x4cd
 14958 1ea7 6F0D0000 		.4byte	0xd6f
 14959 1eab 02       		.uleb128 0x2
 14960 1eac 91       		.byte	0x91
 14961 1ead 68       		.sleb128 -24
 14962 1eae 26       		.uleb128 0x26
 14963 1eaf 14000000 		.4byte	.LBB28
 14964 1eb3 6A010000 		.4byte	.LBE28-.LBB28
 14965 1eb7 2B       		.uleb128 0x2b
 14966 1eb8 4A260000 		.4byte	.LASF489
 14967 1ebc 01       		.byte	0x1
 14968 1ebd D004     		.2byte	0x4d0
 14969 1ebf 81000000 		.4byte	0x81
 14970 1ec3 02       		.uleb128 0x2
 14971 1ec4 91       		.byte	0x91
 14972 1ec5 6F       		.sleb128 -17
 14973 1ec6 2B       		.uleb128 0x2b
 14974 1ec7 4D0D0000 		.4byte	.LASF505
 14975 1ecb 01       		.byte	0x1
 14976 1ecc D104     		.2byte	0x4d1
 14977 1ece 97050000 		.4byte	0x597
 14978 1ed2 02       		.uleb128 0x2
 14979 1ed3 91       		.byte	0x91
 14980 1ed4 64       		.sleb128 -28
 14981 1ed5 26       		.uleb128 0x26
 14982 1ed6 3A000000 		.4byte	.LBB29
 14983 1eda 44010000 		.4byte	.LBE29-.LBB29
 14984 1ede 2B       		.uleb128 0x2b
 14985 1edf 91270000 		.4byte	.LASF514
 14986 1ee3 01       		.byte	0x1
 14987 1ee4 DC04     		.2byte	0x4dc
 14988 1ee6 97000000 		.4byte	0x97
 14989 1eea 02       		.uleb128 0x2
 14990 1eeb 91       		.byte	0x91
 14991 1eec 63       		.sleb128 -29
 14992 1eed 28       		.uleb128 0x28
 14993 1eee 70747200 		.ascii	"ptr\000"
 14994 1ef2 01       		.byte	0x1
 14995 1ef3 E404     		.2byte	0x4e4
 14996 1ef5 3B010000 		.4byte	0x13b
 14997 1ef9 02       		.uleb128 0x2
 14998 1efa 91       		.byte	0x91
 14999 1efb 5C       		.sleb128 -36
 15000 1efc 2B       		.uleb128 0x2b
ARM GAS  C:\Users\RECEPC~1\AppData\Local\Temp\ccQD6Oev.s 			page 313


 15001 1efd E5160000 		.4byte	.LASF515
 15002 1f01 01       		.byte	0x1
 15003 1f02 F804     		.2byte	0x4f8
 15004 1f04 97000000 		.4byte	0x97
 15005 1f08 02       		.uleb128 0x2
 15006 1f09 91       		.byte	0x91
 15007 1f0a 6E       		.sleb128 -18
 15008 1f0b 00       		.byte	0
 15009 1f0c 00       		.byte	0
 15010 1f0d 00       		.byte	0
 15011 1f0e 29       		.uleb128 0x29
 15012 1f0f 8A070000 		.4byte	.LASF522
 15013 1f13 01       		.byte	0x1
 15014 1f14 1205     		.2byte	0x512
 15015 1f16 00000000 		.4byte	.LFB90
 15016 1f1a 5E020000 		.4byte	.LFE90-.LFB90
 15017 1f1e 01       		.uleb128 0x1
 15018 1f1f 9C       		.byte	0x9c
 15019 1f20 B11F0000 		.4byte	0x1fb1
 15020 1f24 2A       		.uleb128 0x2a
 15021 1f25 31240000 		.4byte	.LASF481
 15022 1f29 01       		.byte	0x1
 15023 1f2a 1205     		.2byte	0x512
 15024 1f2c 11010000 		.4byte	0x111
 15025 1f30 02       		.uleb128 0x2
 15026 1f31 91       		.byte	0x91
 15027 1f32 54       		.sleb128 -44
 15028 1f33 2B       		.uleb128 0x2b
 15029 1f34 34000000 		.4byte	.LASF504
 15030 1f38 01       		.byte	0x1
 15031 1f39 1405     		.2byte	0x514
 15032 1f3b 6F0D0000 		.4byte	0xd6f
 15033 1f3f 02       		.uleb128 0x2
 15034 1f40 91       		.byte	0x91
 15035 1f41 68       		.sleb128 -24
 15036 1f42 26       		.uleb128 0x26
 15037 1f43 14000000 		.4byte	.LBB30
 15038 1f47 44020000 		.4byte	.LBE30-.LBB30
 15039 1f4b 2B       		.uleb128 0x2b
 15040 1f4c 4A260000 		.4byte	.LASF489
 15041 1f50 01       		.byte	0x1
 15042 1f51 1705     		.2byte	0x517
 15043 1f53 81000000 		.4byte	0x81
 15044 1f57 02       		.uleb128 0x2
 15045 1f58 91       		.byte	0x91
 15046 1f59 6F       		.sleb128 -17
 15047 1f5a 2B       		.uleb128 0x2b
 15048 1f5b 4D0D0000 		.4byte	.LASF505
 15049 1f5f 01       		.byte	0x1
 15050 1f60 1905     		.2byte	0x519
 15051 1f62 97050000 		.4byte	0x597
 15052 1f66 02       		.uleb128 0x2
 15053 1f67 91       		.byte	0x91
 15054 1f68 64       		.sleb128 -28
 15055 1f69 26       		.uleb128 0x26
 15056 1f6a 3A000000 		.4byte	.LBB31
 15057 1f6e 1E020000 		.4byte	.LBE31-.LBB31
ARM GAS  C:\Users\RECEPC~1\AppData\Local\Temp\ccQD6Oev.s 			page 314


 15058 1f72 2B       		.uleb128 0x2b
 15059 1f73 7C0D0000 		.4byte	.LASF486
 15060 1f77 01       		.byte	0x1
 15061 1f78 2805     		.2byte	0x528
 15062 1f7a A3000000 		.4byte	0xa3
 15063 1f7e 02       		.uleb128 0x2
 15064 1f7f 91       		.byte	0x91
 15065 1f80 62       		.sleb128 -30
 15066 1f81 2B       		.uleb128 0x2b
 15067 1f82 B01A0000 		.4byte	.LASF523
 15068 1f86 01       		.byte	0x1
 15069 1f87 4305     		.2byte	0x543
 15070 1f89 97000000 		.4byte	0x97
 15071 1f8d 02       		.uleb128 0x2
 15072 1f8e 91       		.byte	0x91
 15073 1f8f 61       		.sleb128 -31
 15074 1f90 28       		.uleb128 0x28
 15075 1f91 70747200 		.ascii	"ptr\000"
 15076 1f95 01       		.byte	0x1
 15077 1f96 4405     		.2byte	0x544
 15078 1f98 3B010000 		.4byte	0x13b
 15079 1f9c 02       		.uleb128 0x2
 15080 1f9d 91       		.byte	0x91
 15081 1f9e 5C       		.sleb128 -36
 15082 1f9f 2B       		.uleb128 0x2b
 15083 1fa0 E5160000 		.4byte	.LASF515
 15084 1fa4 01       		.byte	0x1
 15085 1fa5 4505     		.2byte	0x545
 15086 1fa7 97000000 		.4byte	0x97
 15087 1fab 02       		.uleb128 0x2
 15088 1fac 91       		.byte	0x91
 15089 1fad 6E       		.sleb128 -18
 15090 1fae 00       		.byte	0
 15091 1faf 00       		.byte	0
 15092 1fb0 00       		.byte	0
 15093 1fb1 29       		.uleb128 0x29
 15094 1fb2 7D1A0000 		.4byte	.LASF524
 15095 1fb6 01       		.byte	0x1
 15096 1fb7 5705     		.2byte	0x557
 15097 1fb9 00000000 		.4byte	.LFB91
 15098 1fbd 54010000 		.4byte	.LFE91-.LFB91
 15099 1fc1 01       		.uleb128 0x1
 15100 1fc2 9C       		.byte	0x9c
 15101 1fc3 36200000 		.4byte	0x2036
 15102 1fc7 2A       		.uleb128 0x2a
 15103 1fc8 31240000 		.4byte	.LASF481
 15104 1fcc 01       		.byte	0x1
 15105 1fcd 5705     		.2byte	0x557
 15106 1fcf 11010000 		.4byte	0x111
 15107 1fd3 02       		.uleb128 0x2
 15108 1fd4 91       		.byte	0x91
 15109 1fd5 5C       		.sleb128 -36
 15110 1fd6 2B       		.uleb128 0x2b
 15111 1fd7 34000000 		.4byte	.LASF504
 15112 1fdb 01       		.byte	0x1
 15113 1fdc 5905     		.2byte	0x559
 15114 1fde 6F0D0000 		.4byte	0xd6f
ARM GAS  C:\Users\RECEPC~1\AppData\Local\Temp\ccQD6Oev.s 			page 315


 15115 1fe2 02       		.uleb128 0x2
 15116 1fe3 91       		.byte	0x91
 15117 1fe4 68       		.sleb128 -24
 15118 1fe5 26       		.uleb128 0x26
 15119 1fe6 14000000 		.4byte	.LBB32
 15120 1fea 3A010000 		.4byte	.LBE32-.LBB32
 15121 1fee 2B       		.uleb128 0x2b
 15122 1fef 4A260000 		.4byte	.LASF489
 15123 1ff3 01       		.byte	0x1
 15124 1ff4 5C05     		.2byte	0x55c
 15125 1ff6 81000000 		.4byte	0x81
 15126 1ffa 02       		.uleb128 0x2
 15127 1ffb 91       		.byte	0x91
 15128 1ffc 6F       		.sleb128 -17
 15129 1ffd 2B       		.uleb128 0x2b
 15130 1ffe 4D0D0000 		.4byte	.LASF505
 15131 2002 01       		.byte	0x1
 15132 2003 5E05     		.2byte	0x55e
 15133 2005 97050000 		.4byte	0x597
 15134 2009 02       		.uleb128 0x2
 15135 200a 91       		.byte	0x91
 15136 200b 64       		.sleb128 -28
 15137 200c 26       		.uleb128 0x26
 15138 200d 3A000000 		.4byte	.LBB33
 15139 2011 14010000 		.4byte	.LBE33-.LBB33
 15140 2015 28       		.uleb128 0x28
 15141 2016 70747200 		.ascii	"ptr\000"
 15142 201a 01       		.byte	0x1
 15143 201b 6F05     		.2byte	0x56f
 15144 201d 3B010000 		.4byte	0x13b
 15145 2021 02       		.uleb128 0x2
 15146 2022 91       		.byte	0x91
 15147 2023 60       		.sleb128 -32
 15148 2024 2B       		.uleb128 0x2b
 15149 2025 E5160000 		.4byte	.LASF515
 15150 2029 01       		.byte	0x1
 15151 202a 7005     		.2byte	0x570
 15152 202c 97000000 		.4byte	0x97
 15153 2030 02       		.uleb128 0x2
 15154 2031 91       		.byte	0x91
 15155 2032 6E       		.sleb128 -18
 15156 2033 00       		.byte	0
 15157 2034 00       		.byte	0
 15158 2035 00       		.byte	0
 15159 2036 29       		.uleb128 0x29
 15160 2037 CE210000 		.4byte	.LASF525
 15161 203b 01       		.byte	0x1
 15162 203c 8105     		.2byte	0x581
 15163 203e 00000000 		.4byte	.LFB92
 15164 2042 E2010000 		.4byte	.LFE92-.LFB92
 15165 2046 01       		.uleb128 0x1
 15166 2047 9C       		.byte	0x9c
 15167 2048 CA200000 		.4byte	0x20ca
 15168 204c 2A       		.uleb128 0x2a
 15169 204d 31240000 		.4byte	.LASF481
 15170 2051 01       		.byte	0x1
 15171 2052 8105     		.2byte	0x581
ARM GAS  C:\Users\RECEPC~1\AppData\Local\Temp\ccQD6Oev.s 			page 316


 15172 2054 11010000 		.4byte	0x111
 15173 2058 02       		.uleb128 0x2
 15174 2059 91       		.byte	0x91
 15175 205a 54       		.sleb128 -44
 15176 205b 2B       		.uleb128 0x2b
 15177 205c 34000000 		.4byte	.LASF504
 15178 2060 01       		.byte	0x1
 15179 2061 8305     		.2byte	0x583
 15180 2063 6F0D0000 		.4byte	0xd6f
 15181 2067 02       		.uleb128 0x2
 15182 2068 91       		.byte	0x91
 15183 2069 68       		.sleb128 -24
 15184 206a 26       		.uleb128 0x26
 15185 206b 14000000 		.4byte	.LBB34
 15186 206f C8010000 		.4byte	.LBE34-.LBB34
 15187 2073 2B       		.uleb128 0x2b
 15188 2074 4A260000 		.4byte	.LASF489
 15189 2078 01       		.byte	0x1
 15190 2079 8605     		.2byte	0x586
 15191 207b 81000000 		.4byte	0x81
 15192 207f 02       		.uleb128 0x2
 15193 2080 91       		.byte	0x91
 15194 2081 6F       		.sleb128 -17
 15195 2082 2B       		.uleb128 0x2b
 15196 2083 4D0D0000 		.4byte	.LASF505
 15197 2087 01       		.byte	0x1
 15198 2088 8805     		.2byte	0x588
 15199 208a 97050000 		.4byte	0x597
 15200 208e 02       		.uleb128 0x2
 15201 208f 91       		.byte	0x91
 15202 2090 64       		.sleb128 -28
 15203 2091 26       		.uleb128 0x26
 15204 2092 3A000000 		.4byte	.LBB35
 15205 2096 9C010000 		.4byte	.LBE35-.LBB35
 15206 209a 2B       		.uleb128 0x2b
 15207 209b 7C0D0000 		.4byte	.LASF486
 15208 209f 01       		.byte	0x1
 15209 20a0 9805     		.2byte	0x598
 15210 20a2 A3000000 		.4byte	0xa3
 15211 20a6 02       		.uleb128 0x2
 15212 20a7 91       		.byte	0x91
 15213 20a8 62       		.sleb128 -30
 15214 20a9 28       		.uleb128 0x28
 15215 20aa 70747200 		.ascii	"ptr\000"
 15216 20ae 01       		.byte	0x1
 15217 20af AF05     		.2byte	0x5af
 15218 20b1 3B010000 		.4byte	0x13b
 15219 20b5 02       		.uleb128 0x2
 15220 20b6 91       		.byte	0x91
 15221 20b7 5C       		.sleb128 -36
 15222 20b8 2B       		.uleb128 0x2b
 15223 20b9 E5160000 		.4byte	.LASF515
 15224 20bd 01       		.byte	0x1
 15225 20be B005     		.2byte	0x5b0
 15226 20c0 97000000 		.4byte	0x97
 15227 20c4 02       		.uleb128 0x2
 15228 20c5 91       		.byte	0x91
ARM GAS  C:\Users\RECEPC~1\AppData\Local\Temp\ccQD6Oev.s 			page 317


 15229 20c6 6E       		.sleb128 -18
 15230 20c7 00       		.byte	0
 15231 20c8 00       		.byte	0
 15232 20c9 00       		.byte	0
 15233 20ca 29       		.uleb128 0x29
 15234 20cb 54030000 		.4byte	.LASF526
 15235 20cf 01       		.byte	0x1
 15236 20d0 C505     		.2byte	0x5c5
 15237 20d2 00000000 		.4byte	.LFB93
 15238 20d6 6A000000 		.4byte	.LFE93-.LFB93
 15239 20da 01       		.uleb128 0x1
 15240 20db 9C       		.byte	0x9c
 15241 20dc 27210000 		.4byte	0x2127
 15242 20e0 2A       		.uleb128 0x2a
 15243 20e1 31240000 		.4byte	.LASF481
 15244 20e5 01       		.byte	0x1
 15245 20e6 C505     		.2byte	0x5c5
 15246 20e8 11010000 		.4byte	0x111
 15247 20ec 02       		.uleb128 0x2
 15248 20ed 91       		.byte	0x91
 15249 20ee 64       		.sleb128 -28
 15250 20ef 2B       		.uleb128 0x2b
 15251 20f0 34000000 		.4byte	.LASF504
 15252 20f4 01       		.byte	0x1
 15253 20f5 C705     		.2byte	0x5c7
 15254 20f7 6F0D0000 		.4byte	0xd6f
 15255 20fb 02       		.uleb128 0x2
 15256 20fc 91       		.byte	0x91
 15257 20fd 74       		.sleb128 -12
 15258 20fe 26       		.uleb128 0x26
 15259 20ff 12000000 		.4byte	.LBB36
 15260 2103 52000000 		.4byte	.LBE36-.LBB36
 15261 2107 2B       		.uleb128 0x2b
 15262 2108 4A260000 		.4byte	.LASF489
 15263 210c 01       		.byte	0x1
 15264 210d CA05     		.2byte	0x5ca
 15265 210f 81000000 		.4byte	0x81
 15266 2113 02       		.uleb128 0x2
 15267 2114 91       		.byte	0x91
 15268 2115 73       		.sleb128 -13
 15269 2116 2B       		.uleb128 0x2b
 15270 2117 4D0D0000 		.4byte	.LASF505
 15271 211b 01       		.byte	0x1
 15272 211c CC05     		.2byte	0x5cc
 15273 211e 97050000 		.4byte	0x597
 15274 2122 02       		.uleb128 0x2
 15275 2123 91       		.byte	0x91
 15276 2124 6C       		.sleb128 -20
 15277 2125 00       		.byte	0
 15278 2126 00       		.byte	0
 15279 2127 29       		.uleb128 0x29
 15280 2128 F7140000 		.4byte	.LASF527
 15281 212c 01       		.byte	0x1
 15282 212d D905     		.2byte	0x5d9
 15283 212f 00000000 		.4byte	.LFB94
 15284 2133 60000000 		.4byte	.LFE94-.LFB94
 15285 2137 01       		.uleb128 0x1
ARM GAS  C:\Users\RECEPC~1\AppData\Local\Temp\ccQD6Oev.s 			page 318


 15286 2138 9C       		.byte	0x9c
 15287 2139 84210000 		.4byte	0x2184
 15288 213d 2A       		.uleb128 0x2a
 15289 213e 31240000 		.4byte	.LASF481
 15290 2142 01       		.byte	0x1
 15291 2143 D905     		.2byte	0x5d9
 15292 2145 11010000 		.4byte	0x111
 15293 2149 02       		.uleb128 0x2
 15294 214a 91       		.byte	0x91
 15295 214b 64       		.sleb128 -28
 15296 214c 2B       		.uleb128 0x2b
 15297 214d 34000000 		.4byte	.LASF504
 15298 2151 01       		.byte	0x1
 15299 2152 DB05     		.2byte	0x5db
 15300 2154 6F0D0000 		.4byte	0xd6f
 15301 2158 02       		.uleb128 0x2
 15302 2159 91       		.byte	0x91
 15303 215a 74       		.sleb128 -12
 15304 215b 26       		.uleb128 0x26
 15305 215c 12000000 		.4byte	.LBB37
 15306 2160 48000000 		.4byte	.LBE37-.LBB37
 15307 2164 2B       		.uleb128 0x2b
 15308 2165 4A260000 		.4byte	.LASF489
 15309 2169 01       		.byte	0x1
 15310 216a DE05     		.2byte	0x5de
 15311 216c 81000000 		.4byte	0x81
 15312 2170 02       		.uleb128 0x2
 15313 2171 91       		.byte	0x91
 15314 2172 73       		.sleb128 -13
 15315 2173 2B       		.uleb128 0x2b
 15316 2174 4D0D0000 		.4byte	.LASF505
 15317 2178 01       		.byte	0x1
 15318 2179 E005     		.2byte	0x5e0
 15319 217b 97050000 		.4byte	0x597
 15320 217f 02       		.uleb128 0x2
 15321 2180 91       		.byte	0x91
 15322 2181 6C       		.sleb128 -20
 15323 2182 00       		.byte	0
 15324 2183 00       		.byte	0
 15325 2184 29       		.uleb128 0x29
 15326 2185 25280000 		.4byte	.LASF528
 15327 2189 01       		.byte	0x1
 15328 218a ED05     		.2byte	0x5ed
 15329 218c 00000000 		.4byte	.LFB95
 15330 2190 E6000000 		.4byte	.LFE95-.LFB95
 15331 2194 01       		.uleb128 0x1
 15332 2195 9C       		.byte	0x9c
 15333 2196 E1210000 		.4byte	0x21e1
 15334 219a 2A       		.uleb128 0x2a
 15335 219b 31240000 		.4byte	.LASF481
 15336 219f 01       		.byte	0x1
 15337 21a0 ED05     		.2byte	0x5ed
 15338 21a2 30010000 		.4byte	0x130
 15339 21a6 02       		.uleb128 0x2
 15340 21a7 91       		.byte	0x91
 15341 21a8 5C       		.sleb128 -36
 15342 21a9 2B       		.uleb128 0x2b
ARM GAS  C:\Users\RECEPC~1\AppData\Local\Temp\ccQD6Oev.s 			page 319


 15343 21aa 34000000 		.4byte	.LASF504
 15344 21ae 01       		.byte	0x1
 15345 21af EF05     		.2byte	0x5ef
 15346 21b1 6F0D0000 		.4byte	0xd6f
 15347 21b5 02       		.uleb128 0x2
 15348 21b6 91       		.byte	0x91
 15349 21b7 6C       		.sleb128 -20
 15350 21b8 26       		.uleb128 0x26
 15351 21b9 12000000 		.4byte	.LBB38
 15352 21bd CE000000 		.4byte	.LBE38-.LBB38
 15353 21c1 2B       		.uleb128 0x2b
 15354 21c2 4A260000 		.4byte	.LASF489
 15355 21c6 01       		.byte	0x1
 15356 21c7 F205     		.2byte	0x5f2
 15357 21c9 81000000 		.4byte	0x81
 15358 21cd 02       		.uleb128 0x2
 15359 21ce 91       		.byte	0x91
 15360 21cf 6B       		.sleb128 -21
 15361 21d0 2B       		.uleb128 0x2b
 15362 21d1 4D0D0000 		.4byte	.LASF505
 15363 21d5 01       		.byte	0x1
 15364 21d6 F405     		.2byte	0x5f4
 15365 21d8 97050000 		.4byte	0x597
 15366 21dc 02       		.uleb128 0x2
 15367 21dd 91       		.byte	0x91
 15368 21de 64       		.sleb128 -28
 15369 21df 00       		.byte	0
 15370 21e0 00       		.byte	0
 15371 21e1 2C       		.uleb128 0x2c
 15372 21e2 8B020000 		.4byte	.LASF529
 15373 21e6 01       		.byte	0x1
 15374 21e7 0C06     		.2byte	0x60c
 15375 21e9 00000000 		.4byte	.LFB96
 15376 21ed 16000000 		.4byte	.LFE96-.LFB96
 15377 21f1 01       		.uleb128 0x1
 15378 21f2 9C       		.byte	0x9c
 15379 21f3 16220000 		.4byte	0x2216
 15380 21f7 2A       		.uleb128 0x2a
 15381 21f8 31240000 		.4byte	.LASF481
 15382 21fc 01       		.byte	0x1
 15383 21fd 0C06     		.2byte	0x60c
 15384 21ff 11010000 		.4byte	0x111
 15385 2203 02       		.uleb128 0x2
 15386 2204 91       		.byte	0x91
 15387 2205 6C       		.sleb128 -20
 15388 2206 2B       		.uleb128 0x2b
 15389 2207 CF1F0000 		.4byte	.LASF477
 15390 220b 01       		.byte	0x1
 15391 220c 0E06     		.2byte	0x60e
 15392 220e B70F0000 		.4byte	0xfb7
 15393 2212 02       		.uleb128 0x2
 15394 2213 91       		.byte	0x91
 15395 2214 74       		.sleb128 -12
 15396 2215 00       		.byte	0
 15397 2216 29       		.uleb128 0x29
 15398 2217 EA1B0000 		.4byte	.LASF530
 15399 221b 01       		.byte	0x1
ARM GAS  C:\Users\RECEPC~1\AppData\Local\Temp\ccQD6Oev.s 			page 320


 15400 221c 1806     		.2byte	0x618
 15401 221e 00000000 		.4byte	.LFB97
 15402 2222 E6000000 		.4byte	.LFE97-.LFB97
 15403 2226 01       		.uleb128 0x1
 15404 2227 9C       		.byte	0x9c
 15405 2228 73220000 		.4byte	0x2273
 15406 222c 2A       		.uleb128 0x2a
 15407 222d 31240000 		.4byte	.LASF481
 15408 2231 01       		.byte	0x1
 15409 2232 1806     		.2byte	0x618
 15410 2234 30010000 		.4byte	0x130
 15411 2238 02       		.uleb128 0x2
 15412 2239 91       		.byte	0x91
 15413 223a 5C       		.sleb128 -36
 15414 223b 2B       		.uleb128 0x2b
 15415 223c 34000000 		.4byte	.LASF504
 15416 2240 01       		.byte	0x1
 15417 2241 1A06     		.2byte	0x61a
 15418 2243 6F0D0000 		.4byte	0xd6f
 15419 2247 02       		.uleb128 0x2
 15420 2248 91       		.byte	0x91
 15421 2249 6C       		.sleb128 -20
 15422 224a 26       		.uleb128 0x26
 15423 224b 12000000 		.4byte	.LBB39
 15424 224f CE000000 		.4byte	.LBE39-.LBB39
 15425 2253 2B       		.uleb128 0x2b
 15426 2254 4A260000 		.4byte	.LASF489
 15427 2258 01       		.byte	0x1
 15428 2259 1D06     		.2byte	0x61d
 15429 225b 81000000 		.4byte	0x81
 15430 225f 02       		.uleb128 0x2
 15431 2260 91       		.byte	0x91
 15432 2261 6B       		.sleb128 -21
 15433 2262 2B       		.uleb128 0x2b
 15434 2263 4D0D0000 		.4byte	.LASF505
 15435 2267 01       		.byte	0x1
 15436 2268 1F06     		.2byte	0x61f
 15437 226a 97050000 		.4byte	0x597
 15438 226e 02       		.uleb128 0x2
 15439 226f 91       		.byte	0x91
 15440 2270 64       		.sleb128 -28
 15441 2271 00       		.byte	0
 15442 2272 00       		.byte	0
 15443 2273 29       		.uleb128 0x29
 15444 2274 450C0000 		.4byte	.LASF531
 15445 2278 01       		.byte	0x1
 15446 2279 3706     		.2byte	0x637
 15447 227b 00000000 		.4byte	.LFB98
 15448 227f EC000000 		.4byte	.LFE98-.LFB98
 15449 2283 01       		.uleb128 0x1
 15450 2284 9C       		.byte	0x9c
 15451 2285 D0220000 		.4byte	0x22d0
 15452 2289 2A       		.uleb128 0x2a
 15453 228a 31240000 		.4byte	.LASF481
 15454 228e 01       		.byte	0x1
 15455 228f 3706     		.2byte	0x637
 15456 2291 30010000 		.4byte	0x130
ARM GAS  C:\Users\RECEPC~1\AppData\Local\Temp\ccQD6Oev.s 			page 321


 15457 2295 02       		.uleb128 0x2
 15458 2296 91       		.byte	0x91
 15459 2297 5C       		.sleb128 -36
 15460 2298 2B       		.uleb128 0x2b
 15461 2299 34000000 		.4byte	.LASF504
 15462 229d 01       		.byte	0x1
 15463 229e 3906     		.2byte	0x639
 15464 22a0 6F0D0000 		.4byte	0xd6f
 15465 22a4 02       		.uleb128 0x2
 15466 22a5 91       		.byte	0x91
 15467 22a6 6C       		.sleb128 -20
 15468 22a7 26       		.uleb128 0x26
 15469 22a8 12000000 		.4byte	.LBB40
 15470 22ac D4000000 		.4byte	.LBE40-.LBB40
 15471 22b0 2B       		.uleb128 0x2b
 15472 22b1 4A260000 		.4byte	.LASF489
 15473 22b5 01       		.byte	0x1
 15474 22b6 3C06     		.2byte	0x63c
 15475 22b8 81000000 		.4byte	0x81
 15476 22bc 02       		.uleb128 0x2
 15477 22bd 91       		.byte	0x91
 15478 22be 6B       		.sleb128 -21
 15479 22bf 2B       		.uleb128 0x2b
 15480 22c0 4D0D0000 		.4byte	.LASF505
 15481 22c4 01       		.byte	0x1
 15482 22c5 3E06     		.2byte	0x63e
 15483 22c7 97050000 		.4byte	0x597
 15484 22cb 02       		.uleb128 0x2
 15485 22cc 91       		.byte	0x91
 15486 22cd 64       		.sleb128 -28
 15487 22ce 00       		.byte	0
 15488 22cf 00       		.byte	0
 15489 22d0 29       		.uleb128 0x29
 15490 22d1 9D2A0000 		.4byte	.LASF532
 15491 22d5 01       		.byte	0x1
 15492 22d6 5406     		.2byte	0x654
 15493 22d8 00000000 		.4byte	.LFB99
 15494 22dc 9E010000 		.4byte	.LFE99-.LFB99
 15495 22e0 01       		.uleb128 0x1
 15496 22e1 9C       		.byte	0x9c
 15497 22e2 58230000 		.4byte	0x2358
 15498 22e6 2A       		.uleb128 0x2a
 15499 22e7 31240000 		.4byte	.LASF481
 15500 22eb 01       		.byte	0x1
 15501 22ec 5406     		.2byte	0x654
 15502 22ee 11010000 		.4byte	0x111
 15503 22f2 02       		.uleb128 0x2
 15504 22f3 91       		.byte	0x91
 15505 22f4 64       		.sleb128 -28
 15506 22f5 2B       		.uleb128 0x2b
 15507 22f6 CF1F0000 		.4byte	.LASF477
 15508 22fa 01       		.byte	0x1
 15509 22fb 5606     		.2byte	0x656
 15510 22fd B70F0000 		.4byte	0xfb7
 15511 2301 02       		.uleb128 0x2
 15512 2302 91       		.byte	0x91
 15513 2303 74       		.sleb128 -12
ARM GAS  C:\Users\RECEPC~1\AppData\Local\Temp\ccQD6Oev.s 			page 322


 15514 2304 2D       		.uleb128 0x2d
 15515 2305 94000000 		.4byte	.LBB41
 15516 2309 38000000 		.4byte	.LBE41-.LBB41
 15517 230d 21230000 		.4byte	0x2321
 15518 2311 2B       		.uleb128 0x2b
 15519 2312 F5120000 		.4byte	.LASF533
 15520 2316 01       		.byte	0x1
 15521 2317 7306     		.2byte	0x673
 15522 2319 7D020000 		.4byte	0x27d
 15523 231d 02       		.uleb128 0x2
 15524 231e 91       		.byte	0x91
 15525 231f 70       		.sleb128 -16
 15526 2320 00       		.byte	0
 15527 2321 2D       		.uleb128 0x2d
 15528 2322 EA000000 		.4byte	.LBB42
 15529 2326 60000000 		.4byte	.LBE42-.LBB42
 15530 232a 3E230000 		.4byte	0x233e
 15531 232e 2B       		.uleb128 0x2b
 15532 232f F5120000 		.4byte	.LASF533
 15533 2333 01       		.byte	0x1
 15534 2334 8306     		.2byte	0x683
 15535 2336 7D020000 		.4byte	0x27d
 15536 233a 02       		.uleb128 0x2
 15537 233b 91       		.byte	0x91
 15538 233c 6C       		.sleb128 -20
 15539 233d 00       		.byte	0
 15540 233e 26       		.uleb128 0x26
 15541 233f 4E010000 		.4byte	.LBB43
 15542 2343 4A000000 		.4byte	.LBE43-.LBB43
 15543 2347 2B       		.uleb128 0x2b
 15544 2348 F5120000 		.4byte	.LASF533
 15545 234c 01       		.byte	0x1
 15546 234d 9A06     		.2byte	0x69a
 15547 234f 7D020000 		.4byte	0x27d
 15548 2353 02       		.uleb128 0x2
 15549 2354 91       		.byte	0x91
 15550 2355 68       		.sleb128 -24
 15551 2356 00       		.byte	0
 15552 2357 00       		.byte	0
 15553 2358 29       		.uleb128 0x29
 15554 2359 9E000000 		.4byte	.LASF534
 15555 235d 01       		.byte	0x1
 15556 235e AD06     		.2byte	0x6ad
 15557 2360 00000000 		.4byte	.LFB100
 15558 2364 38100000 		.4byte	.LFE100-.LFB100
 15559 2368 01       		.uleb128 0x1
 15560 2369 9C       		.byte	0x9c
 15561 236a FB230000 		.4byte	0x23fb
 15562 236e 2A       		.uleb128 0x2a
 15563 236f 31240000 		.4byte	.LASF481
 15564 2373 01       		.byte	0x1
 15565 2374 AD06     		.2byte	0x6ad
 15566 2376 11010000 		.4byte	0x111
 15567 237a 02       		.uleb128 0x2
 15568 237b 91       		.byte	0x91
 15569 237c 54       		.sleb128 -44
 15570 237d 2B       		.uleb128 0x2b
ARM GAS  C:\Users\RECEPC~1\AppData\Local\Temp\ccQD6Oev.s 			page 323


 15571 237e CF1F0000 		.4byte	.LASF477
 15572 2382 01       		.byte	0x1
 15573 2383 AF06     		.2byte	0x6af
 15574 2385 B70F0000 		.4byte	0xfb7
 15575 2389 02       		.uleb128 0x2
 15576 238a 91       		.byte	0x91
 15577 238b 68       		.sleb128 -24
 15578 238c 26       		.uleb128 0x26
 15579 238d 14000000 		.4byte	.LBB44
 15580 2391 18100000 		.4byte	.LBE44-.LBB44
 15581 2395 2B       		.uleb128 0x2b
 15582 2396 4A260000 		.4byte	.LASF489
 15583 239a 01       		.byte	0x1
 15584 239b B206     		.2byte	0x6b2
 15585 239d 97000000 		.4byte	0x97
 15586 23a1 02       		.uleb128 0x2
 15587 23a2 91       		.byte	0x91
 15588 23a3 67       		.sleb128 -25
 15589 23a4 26       		.uleb128 0x26
 15590 23a5 34000000 		.4byte	.LBB45
 15591 23a9 F80F0000 		.4byte	.LBE45-.LBB45
 15592 23ad 2B       		.uleb128 0x2b
 15593 23ae A7290000 		.4byte	.LASF535
 15594 23b2 01       		.byte	0x1
 15595 23b3 BC06     		.2byte	0x6bc
 15596 23b5 54020000 		.4byte	0x254
 15597 23b9 02       		.uleb128 0x2
 15598 23ba 91       		.byte	0x91
 15599 23bb 6F       		.sleb128 -17
 15600 23bc 2B       		.uleb128 0x2b
 15601 23bd 802A0000 		.4byte	.LASF536
 15602 23c1 01       		.byte	0x1
 15603 23c2 BD06     		.2byte	0x6bd
 15604 23c4 A3000000 		.4byte	0xa3
 15605 23c8 02       		.uleb128 0x2
 15606 23c9 91       		.byte	0x91
 15607 23ca 6C       		.sleb128 -20
 15608 23cb 2B       		.uleb128 0x2b
 15609 23cc 94190000 		.4byte	.LASF537
 15610 23d0 01       		.byte	0x1
 15611 23d1 DD06     		.2byte	0x6dd
 15612 23d3 87070000 		.4byte	0x787
 15613 23d7 02       		.uleb128 0x2
 15614 23d8 91       		.byte	0x91
 15615 23d9 60       		.sleb128 -32
 15616 23da 2B       		.uleb128 0x2b
 15617 23db 671C0000 		.4byte	.LASF538
 15618 23df 01       		.byte	0x1
 15619 23e0 DF06     		.2byte	0x6df
 15620 23e2 97000000 		.4byte	0x97
 15621 23e6 02       		.uleb128 0x2
 15622 23e7 91       		.byte	0x91
 15623 23e8 5F       		.sleb128 -33
 15624 23e9 2B       		.uleb128 0x2b
 15625 23ea F5120000 		.4byte	.LASF533
 15626 23ee 01       		.byte	0x1
 15627 23ef C207     		.2byte	0x7c2
ARM GAS  C:\Users\RECEPC~1\AppData\Local\Temp\ccQD6Oev.s 			page 324


 15628 23f1 7D020000 		.4byte	0x27d
 15629 23f5 02       		.uleb128 0x2
 15630 23f6 91       		.byte	0x91
 15631 23f7 58       		.sleb128 -40
 15632 23f8 00       		.byte	0
 15633 23f9 00       		.byte	0
 15634 23fa 00       		.byte	0
 15635 23fb 2C       		.uleb128 0x2c
 15636 23fc 8E110000 		.4byte	.LASF539
 15637 2400 01       		.byte	0x1
 15638 2401 D907     		.2byte	0x7d9
 15639 2403 00000000 		.4byte	.LFB101
 15640 2407 E4010000 		.4byte	.LFE101-.LFB101
 15641 240b 01       		.uleb128 0x1
 15642 240c 9C       		.byte	0x9c
 15643 240d 30240000 		.4byte	0x2430
 15644 2411 2A       		.uleb128 0x2a
 15645 2412 31240000 		.4byte	.LASF481
 15646 2416 01       		.byte	0x1
 15647 2417 D907     		.2byte	0x7d9
 15648 2419 30010000 		.4byte	0x130
 15649 241d 02       		.uleb128 0x2
 15650 241e 91       		.byte	0x91
 15651 241f 6C       		.sleb128 -20
 15652 2420 2B       		.uleb128 0x2b
 15653 2421 35180000 		.4byte	.LASF540
 15654 2425 01       		.byte	0x1
 15655 2426 DB07     		.2byte	0x7db
 15656 2428 87070000 		.4byte	0x787
 15657 242c 02       		.uleb128 0x2
 15658 242d 91       		.byte	0x91
 15659 242e 74       		.sleb128 -12
 15660 242f 00       		.byte	0
 15661 2430 2E       		.uleb128 0x2e
 15662 2431 29140000 		.4byte	.LASF551
 15663 2435 01       		.byte	0x1
 15664 2436 5B08     		.2byte	0x85b
 15665 2438 54020000 		.4byte	0x254
 15666 243c 00000000 		.4byte	.LFB102
 15667 2440 24010000 		.4byte	.LFE102-.LFB102
 15668 2444 01       		.uleb128 0x1
 15669 2445 9C       		.byte	0x9c
 15670 2446 CB240000 		.4byte	0x24cb
 15671 244a 2A       		.uleb128 0x2a
 15672 244b 31240000 		.4byte	.LASF481
 15673 244f 01       		.byte	0x1
 15674 2450 5B08     		.2byte	0x85b
 15675 2452 11010000 		.4byte	0x111
 15676 2456 02       		.uleb128 0x2
 15677 2457 91       		.byte	0x91
 15678 2458 64       		.sleb128 -28
 15679 2459 2A       		.uleb128 0x2a
 15680 245a BD0F0000 		.4byte	.LASF541
 15681 245e 01       		.byte	0x1
 15682 245f 5B08     		.2byte	0x85b
 15683 2461 11010000 		.4byte	0x111
 15684 2465 02       		.uleb128 0x2
ARM GAS  C:\Users\RECEPC~1\AppData\Local\Temp\ccQD6Oev.s 			page 325


 15685 2466 91       		.byte	0x91
 15686 2467 60       		.sleb128 -32
 15687 2468 2A       		.uleb128 0x2a
 15688 2469 E61A0000 		.4byte	.LASF542
 15689 246d 01       		.byte	0x1
 15690 246e 5B08     		.2byte	0x85b
 15691 2470 A3000000 		.4byte	0xa3
 15692 2474 02       		.uleb128 0x2
 15693 2475 91       		.byte	0x91
 15694 2476 5E       		.sleb128 -34
 15695 2477 2B       		.uleb128 0x2b
 15696 2478 8E160000 		.4byte	.LASF543
 15697 247c 01       		.byte	0x1
 15698 247d 5D08     		.2byte	0x85d
 15699 247f 54020000 		.4byte	0x254
 15700 2483 02       		.uleb128 0x2
 15701 2484 91       		.byte	0x91
 15702 2485 6F       		.sleb128 -17
 15703 2486 2B       		.uleb128 0x2b
 15704 2487 4A260000 		.4byte	.LASF489
 15705 248b 01       		.byte	0x1
 15706 248c 5E08     		.2byte	0x85e
 15707 248e 97000000 		.4byte	0x97
 15708 2492 05       		.uleb128 0x5
 15709 2493 03       		.byte	0x3
 15710 2494 00000000 		.4byte	index.9626
 15711 2498 26       		.uleb128 0x26
 15712 2499 34000000 		.4byte	.LBB46
 15713 249d E2000000 		.4byte	.LBE46-.LBB46
 15714 24a1 2B       		.uleb128 0x2b
 15715 24a2 5F1B0000 		.4byte	.LASF544
 15716 24a6 01       		.byte	0x1
 15717 24a7 6608     		.2byte	0x866
 15718 24a9 97000000 		.4byte	0x97
 15719 24ad 02       		.uleb128 0x2
 15720 24ae 91       		.byte	0x91
 15721 24af 6E       		.sleb128 -18
 15722 24b0 26       		.uleb128 0x26
 15723 24b1 A6000000 		.4byte	.LBB47
 15724 24b5 70000000 		.4byte	.LBE47-.LBB47
 15725 24b9 2B       		.uleb128 0x2b
 15726 24ba 1C1D0000 		.4byte	.LASF545
 15727 24be 01       		.byte	0x1
 15728 24bf 6D08     		.2byte	0x86d
 15729 24c1 97000000 		.4byte	0x97
 15730 24c5 02       		.uleb128 0x2
 15731 24c6 91       		.byte	0x91
 15732 24c7 6D       		.sleb128 -19
 15733 24c8 00       		.byte	0
 15734 24c9 00       		.byte	0
 15735 24ca 00       		.byte	0
 15736 24cb 29       		.uleb128 0x29
 15737 24cc 26090000 		.4byte	.LASF546
 15738 24d0 01       		.byte	0x1
 15739 24d1 7C08     		.2byte	0x87c
 15740 24d3 00000000 		.4byte	.LFB103
 15741 24d7 60000000 		.4byte	.LFE103-.LFB103
ARM GAS  C:\Users\RECEPC~1\AppData\Local\Temp\ccQD6Oev.s 			page 326


 15742 24db 01       		.uleb128 0x1
 15743 24dc 9C       		.byte	0x9c
 15744 24dd 28250000 		.4byte	0x2528
 15745 24e1 2A       		.uleb128 0x2a
 15746 24e2 31240000 		.4byte	.LASF481
 15747 24e6 01       		.byte	0x1
 15748 24e7 7C08     		.2byte	0x87c
 15749 24e9 30010000 		.4byte	0x130
 15750 24ed 02       		.uleb128 0x2
 15751 24ee 91       		.byte	0x91
 15752 24ef 64       		.sleb128 -28
 15753 24f0 2B       		.uleb128 0x2b
 15754 24f1 34000000 		.4byte	.LASF504
 15755 24f5 01       		.byte	0x1
 15756 24f6 7E08     		.2byte	0x87e
 15757 24f8 6F0D0000 		.4byte	0xd6f
 15758 24fc 02       		.uleb128 0x2
 15759 24fd 91       		.byte	0x91
 15760 24fe 74       		.sleb128 -12
 15761 24ff 26       		.uleb128 0x26
 15762 2500 12000000 		.4byte	.LBB48
 15763 2504 48000000 		.4byte	.LBE48-.LBB48
 15764 2508 2B       		.uleb128 0x2b
 15765 2509 4A260000 		.4byte	.LASF489
 15766 250d 01       		.byte	0x1
 15767 250e 8108     		.2byte	0x881
 15768 2510 81000000 		.4byte	0x81
 15769 2514 02       		.uleb128 0x2
 15770 2515 91       		.byte	0x91
 15771 2516 73       		.sleb128 -13
 15772 2517 2B       		.uleb128 0x2b
 15773 2518 4D0D0000 		.4byte	.LASF505
 15774 251c 01       		.byte	0x1
 15775 251d 8308     		.2byte	0x883
 15776 251f 97050000 		.4byte	0x597
 15777 2523 02       		.uleb128 0x2
 15778 2524 91       		.byte	0x91
 15779 2525 6C       		.sleb128 -20
 15780 2526 00       		.byte	0
 15781 2527 00       		.byte	0
 15782 2528 29       		.uleb128 0x29
 15783 2529 FA150000 		.4byte	.LASF547
 15784 252d 01       		.byte	0x1
 15785 252e 8F08     		.2byte	0x88f
 15786 2530 00000000 		.4byte	.LFB104
 15787 2534 40020000 		.4byte	.LFE104-.LFB104
 15788 2538 01       		.uleb128 0x1
 15789 2539 9C       		.byte	0x9c
 15790 253a DD250000 		.4byte	0x25dd
 15791 253e 2A       		.uleb128 0x2a
 15792 253f 31240000 		.4byte	.LASF481
 15793 2543 01       		.byte	0x1
 15794 2544 8F08     		.2byte	0x88f
 15795 2546 30010000 		.4byte	0x130
 15796 254a 02       		.uleb128 0x2
 15797 254b 91       		.byte	0x91
 15798 254c 64       		.sleb128 -28
ARM GAS  C:\Users\RECEPC~1\AppData\Local\Temp\ccQD6Oev.s 			page 327


 15799 254d 2B       		.uleb128 0x2b
 15800 254e CF1F0000 		.4byte	.LASF477
 15801 2552 01       		.byte	0x1
 15802 2553 9208     		.2byte	0x892
 15803 2555 B70F0000 		.4byte	0xfb7
 15804 2559 02       		.uleb128 0x2
 15805 255a 91       		.byte	0x91
 15806 255b 74       		.sleb128 -12
 15807 255c 2D       		.uleb128 0x2d
 15808 255d 48000000 		.4byte	.LBB49
 15809 2561 6C000000 		.4byte	.LBE49-.LBB49
 15810 2565 88250000 		.4byte	0x2588
 15811 2569 2B       		.uleb128 0x2b
 15812 256a 580F0000 		.4byte	.LASF548
 15813 256e 01       		.byte	0x1
 15814 256f A008     		.2byte	0x8a0
 15815 2571 97000000 		.4byte	0x97
 15816 2575 02       		.uleb128 0x2
 15817 2576 91       		.byte	0x91
 15818 2577 73       		.sleb128 -13
 15819 2578 2B       		.uleb128 0x2b
 15820 2579 B00F0000 		.4byte	.LASF549
 15821 257d 01       		.byte	0x1
 15822 257e A108     		.2byte	0x8a1
 15823 2580 97000000 		.4byte	0x97
 15824 2584 02       		.uleb128 0x2
 15825 2585 91       		.byte	0x91
 15826 2586 72       		.sleb128 -14
 15827 2587 00       		.byte	0
 15828 2588 2D       		.uleb128 0x2d
 15829 2589 B4000000 		.4byte	.LBB50
 15830 258d 6C000000 		.4byte	.LBE50-.LBB50
 15831 2591 B4250000 		.4byte	0x25b4
 15832 2595 2B       		.uleb128 0x2b
 15833 2596 580F0000 		.4byte	.LASF548
 15834 259a 01       		.byte	0x1
 15835 259b B208     		.2byte	0x8b2
 15836 259d 97000000 		.4byte	0x97
 15837 25a1 02       		.uleb128 0x2
 15838 25a2 91       		.byte	0x91
 15839 25a3 71       		.sleb128 -15
 15840 25a4 2B       		.uleb128 0x2b
 15841 25a5 B00F0000 		.4byte	.LASF549
 15842 25a9 01       		.byte	0x1
 15843 25aa B308     		.2byte	0x8b3
 15844 25ac 97000000 		.4byte	0x97
 15845 25b0 02       		.uleb128 0x2
 15846 25b1 91       		.byte	0x91
 15847 25b2 70       		.sleb128 -16
 15848 25b3 00       		.byte	0
 15849 25b4 26       		.uleb128 0x26
 15850 25b5 20010000 		.4byte	.LBB51
 15851 25b9 6C000000 		.4byte	.LBE51-.LBB51
 15852 25bd 2B       		.uleb128 0x2b
 15853 25be 580F0000 		.4byte	.LASF548
 15854 25c2 01       		.byte	0x1
 15855 25c3 C408     		.2byte	0x8c4
ARM GAS  C:\Users\RECEPC~1\AppData\Local\Temp\ccQD6Oev.s 			page 328


 15856 25c5 97000000 		.4byte	0x97
 15857 25c9 02       		.uleb128 0x2
 15858 25ca 91       		.byte	0x91
 15859 25cb 6F       		.sleb128 -17
 15860 25cc 2B       		.uleb128 0x2b
 15861 25cd B00F0000 		.4byte	.LASF549
 15862 25d1 01       		.byte	0x1
 15863 25d2 C508     		.2byte	0x8c5
 15864 25d4 97000000 		.4byte	0x97
 15865 25d8 02       		.uleb128 0x2
 15866 25d9 91       		.byte	0x91
 15867 25da 6E       		.sleb128 -18
 15868 25db 00       		.byte	0
 15869 25dc 00       		.byte	0
 15870 25dd 2C       		.uleb128 0x2c
 15871 25de 370D0000 		.4byte	.LASF550
 15872 25e2 01       		.byte	0x1
 15873 25e3 F208     		.2byte	0x8f2
 15874 25e5 00000000 		.4byte	.LFB105
 15875 25e9 6C000000 		.4byte	.LFE105-.LFB105
 15876 25ed 01       		.uleb128 0x1
 15877 25ee 9C       		.byte	0x9c
 15878 25ef 12260000 		.4byte	0x2612
 15879 25f3 2A       		.uleb128 0x2a
 15880 25f4 31240000 		.4byte	.LASF481
 15881 25f8 01       		.byte	0x1
 15882 25f9 F208     		.2byte	0x8f2
 15883 25fb 11010000 		.4byte	0x111
 15884 25ff 02       		.uleb128 0x2
 15885 2600 91       		.byte	0x91
 15886 2601 6C       		.sleb128 -20
 15887 2602 2B       		.uleb128 0x2b
 15888 2603 CF1F0000 		.4byte	.LASF477
 15889 2607 01       		.byte	0x1
 15890 2608 F408     		.2byte	0x8f4
 15891 260a B70F0000 		.4byte	0xfb7
 15892 260e 02       		.uleb128 0x2
 15893 260f 91       		.byte	0x91
 15894 2610 74       		.sleb128 -12
 15895 2611 00       		.byte	0
 15896 2612 2F       		.uleb128 0x2f
 15897 2613 1F290000 		.4byte	.LASF552
 15898 2617 01       		.byte	0x1
 15899 2618 0609     		.2byte	0x906
 15900 261a 54020000 		.4byte	0x254
 15901 261e 00000000 		.4byte	.LFB106
 15902 2622 B8000000 		.4byte	.LFE106-.LFB106
 15903 2626 01       		.uleb128 0x1
 15904 2627 9C       		.byte	0x9c
 15905 2628 78260000 		.4byte	0x2678
 15906 262c 2A       		.uleb128 0x2a
 15907 262d 31240000 		.4byte	.LASF481
 15908 2631 01       		.byte	0x1
 15909 2632 0609     		.2byte	0x906
 15910 2634 11010000 		.4byte	0x111
 15911 2638 02       		.uleb128 0x2
 15912 2639 91       		.byte	0x91
ARM GAS  C:\Users\RECEPC~1\AppData\Local\Temp\ccQD6Oev.s 			page 329


 15913 263a 6C       		.sleb128 -20
 15914 263b 2A       		.uleb128 0x2a
 15915 263c BD0F0000 		.4byte	.LASF541
 15916 2640 01       		.byte	0x1
 15917 2641 0609     		.2byte	0x906
 15918 2643 11010000 		.4byte	0x111
 15919 2647 02       		.uleb128 0x2
 15920 2648 91       		.byte	0x91
 15921 2649 68       		.sleb128 -24
 15922 264a 2A       		.uleb128 0x2a
 15923 264b E61A0000 		.4byte	.LASF542
 15924 264f 01       		.byte	0x1
 15925 2650 0609     		.2byte	0x906
 15926 2652 A3000000 		.4byte	0xa3
 15927 2656 02       		.uleb128 0x2
 15928 2657 91       		.byte	0x91
 15929 2658 66       		.sleb128 -26
 15930 2659 2B       		.uleb128 0x2b
 15931 265a 8E160000 		.4byte	.LASF543
 15932 265e 01       		.byte	0x1
 15933 265f 0809     		.2byte	0x908
 15934 2661 54020000 		.4byte	0x254
 15935 2665 02       		.uleb128 0x2
 15936 2666 91       		.byte	0x91
 15937 2667 77       		.sleb128 -9
 15938 2668 2B       		.uleb128 0x2b
 15939 2669 34000000 		.4byte	.LASF504
 15940 266d 01       		.byte	0x1
 15941 266e 0909     		.2byte	0x909
 15942 2670 6F0D0000 		.4byte	0xd6f
 15943 2674 02       		.uleb128 0x2
 15944 2675 91       		.byte	0x91
 15945 2676 70       		.sleb128 -16
 15946 2677 00       		.byte	0
 15947 2678 2C       		.uleb128 0x2c
 15948 2679 CC160000 		.4byte	.LASF553
 15949 267d 01       		.byte	0x1
 15950 267e 1C09     		.2byte	0x91c
 15951 2680 00000000 		.4byte	.LFB107
 15952 2684 98000000 		.4byte	.LFE107-.LFB107
 15953 2688 01       		.uleb128 0x1
 15954 2689 9C       		.byte	0x9c
 15955 268a AD260000 		.4byte	0x26ad
 15956 268e 2A       		.uleb128 0x2a
 15957 268f 31240000 		.4byte	.LASF481
 15958 2693 01       		.byte	0x1
 15959 2694 1C09     		.2byte	0x91c
 15960 2696 11010000 		.4byte	0x111
 15961 269a 02       		.uleb128 0x2
 15962 269b 91       		.byte	0x91
 15963 269c 6C       		.sleb128 -20
 15964 269d 2B       		.uleb128 0x2b
 15965 269e CF1F0000 		.4byte	.LASF477
 15966 26a2 01       		.byte	0x1
 15967 26a3 1E09     		.2byte	0x91e
 15968 26a5 B70F0000 		.4byte	0xfb7
 15969 26a9 02       		.uleb128 0x2
ARM GAS  C:\Users\RECEPC~1\AppData\Local\Temp\ccQD6Oev.s 			page 330


 15970 26aa 91       		.byte	0x91
 15971 26ab 74       		.sleb128 -12
 15972 26ac 00       		.byte	0
 15973 26ad 29       		.uleb128 0x29
 15974 26ae 37160000 		.4byte	.LASF554
 15975 26b2 01       		.byte	0x1
 15976 26b3 3909     		.2byte	0x939
 15977 26b5 00000000 		.4byte	.LFB108
 15978 26b9 AC000000 		.4byte	.LFE108-.LFB108
 15979 26bd 01       		.uleb128 0x1
 15980 26be 9C       		.byte	0x9c
 15981 26bf 23270000 		.4byte	0x2723
 15982 26c3 2A       		.uleb128 0x2a
 15983 26c4 31240000 		.4byte	.LASF481
 15984 26c8 01       		.byte	0x1
 15985 26c9 3909     		.2byte	0x939
 15986 26cb 30010000 		.4byte	0x130
 15987 26cf 02       		.uleb128 0x2
 15988 26d0 91       		.byte	0x91
 15989 26d1 64       		.sleb128 -28
 15990 26d2 2B       		.uleb128 0x2b
 15991 26d3 34000000 		.4byte	.LASF504
 15992 26d7 01       		.byte	0x1
 15993 26d8 3B09     		.2byte	0x93b
 15994 26da 6F0D0000 		.4byte	0xd6f
 15995 26de 02       		.uleb128 0x2
 15996 26df 91       		.byte	0x91
 15997 26e0 70       		.sleb128 -16
 15998 26e1 2B       		.uleb128 0x2b
 15999 26e2 80260000 		.4byte	.LASF555
 16000 26e6 01       		.byte	0x1
 16001 26e7 3C09     		.2byte	0x93c
 16002 26e9 7D020000 		.4byte	0x27d
 16003 26ed 02       		.uleb128 0x2
 16004 26ee 91       		.byte	0x91
 16005 26ef 6C       		.sleb128 -20
 16006 26f0 26       		.uleb128 0x26
 16007 26f1 16000000 		.4byte	.LBB52
 16008 26f5 86000000 		.4byte	.LBE52-.LBB52
 16009 26f9 2B       		.uleb128 0x2b
 16010 26fa 5F120000 		.4byte	.LASF556
 16011 26fe 01       		.byte	0x1
 16012 26ff 4109     		.2byte	0x941
 16013 2701 9F0F0000 		.4byte	0xf9f
 16014 2705 02       		.uleb128 0x2
 16015 2706 91       		.byte	0x91
 16016 2707 74       		.sleb128 -12
 16017 2708 26       		.uleb128 0x26
 16018 2709 38000000 		.4byte	.LBB53
 16019 270d 5C000000 		.4byte	.LBE53-.LBB53
 16020 2711 2B       		.uleb128 0x2b
 16021 2712 070D0000 		.4byte	.LASF557
 16022 2716 01       		.byte	0x1
 16023 2717 4609     		.2byte	0x946
 16024 2719 B70F0000 		.4byte	0xfb7
 16025 271d 02       		.uleb128 0x2
 16026 271e 91       		.byte	0x91
ARM GAS  C:\Users\RECEPC~1\AppData\Local\Temp\ccQD6Oev.s 			page 331


 16027 271f 68       		.sleb128 -24
 16028 2720 00       		.byte	0
 16029 2721 00       		.byte	0
 16030 2722 00       		.byte	0
 16031 2723 29       		.uleb128 0x29
 16032 2724 8D210000 		.4byte	.LASF558
 16033 2728 01       		.byte	0x1
 16034 2729 5A09     		.2byte	0x95a
 16035 272b 00000000 		.4byte	.LFB109
 16036 272f 88000000 		.4byte	.LFE109-.LFB109
 16037 2733 01       		.uleb128 0x1
 16038 2734 9C       		.byte	0x9c
 16039 2735 80270000 		.4byte	0x2780
 16040 2739 2A       		.uleb128 0x2a
 16041 273a 31240000 		.4byte	.LASF481
 16042 273e 01       		.byte	0x1
 16043 273f 5A09     		.2byte	0x95a
 16044 2741 30010000 		.4byte	0x130
 16045 2745 02       		.uleb128 0x2
 16046 2746 91       		.byte	0x91
 16047 2747 64       		.sleb128 -28
 16048 2748 2B       		.uleb128 0x2b
 16049 2749 34000000 		.4byte	.LASF504
 16050 274d 01       		.byte	0x1
 16051 274e 5C09     		.2byte	0x95c
 16052 2750 6F0D0000 		.4byte	0xd6f
 16053 2754 02       		.uleb128 0x2
 16054 2755 91       		.byte	0x91
 16055 2756 70       		.sleb128 -16
 16056 2757 2B       		.uleb128 0x2b
 16057 2758 5F120000 		.4byte	.LASF556
 16058 275c 01       		.byte	0x1
 16059 275d 5E09     		.2byte	0x95e
 16060 275f 9F0F0000 		.4byte	0xf9f
 16061 2763 02       		.uleb128 0x2
 16062 2764 91       		.byte	0x91
 16063 2765 74       		.sleb128 -12
 16064 2766 26       		.uleb128 0x26
 16065 2767 28000000 		.4byte	.LBB54
 16066 276b 4C000000 		.4byte	.LBE54-.LBB54
 16067 276f 2B       		.uleb128 0x2b
 16068 2770 070D0000 		.4byte	.LASF557
 16069 2774 01       		.byte	0x1
 16070 2775 6309     		.2byte	0x963
 16071 2777 B70F0000 		.4byte	0xfb7
 16072 277b 02       		.uleb128 0x2
 16073 277c 91       		.byte	0x91
 16074 277d 6C       		.sleb128 -20
 16075 277e 00       		.byte	0
 16076 277f 00       		.byte	0
 16077 2780 2F       		.uleb128 0x2f
 16078 2781 2D170000 		.4byte	.LASF559
 16079 2785 01       		.byte	0x1
 16080 2786 7D09     		.2byte	0x97d
 16081 2788 81000000 		.4byte	0x81
 16082 278c 00000000 		.4byte	.LFB110
 16083 2790 5E000000 		.4byte	.LFE110-.LFB110
ARM GAS  C:\Users\RECEPC~1\AppData\Local\Temp\ccQD6Oev.s 			page 332


 16084 2794 01       		.uleb128 0x1
 16085 2795 9C       		.byte	0x9c
 16086 2796 B9270000 		.4byte	0x27b9
 16087 279a 2A       		.uleb128 0x2a
 16088 279b A70B0000 		.4byte	.LASF560
 16089 279f 01       		.byte	0x1
 16090 27a0 7D09     		.2byte	0x97d
 16091 27a2 3B010000 		.4byte	0x13b
 16092 27a6 02       		.uleb128 0x2
 16093 27a7 91       		.byte	0x91
 16094 27a8 6C       		.sleb128 -20
 16095 27a9 28       		.uleb128 0x28
 16096 27aa 6C726300 		.ascii	"lrc\000"
 16097 27ae 01       		.byte	0x1
 16098 27af 7F09     		.2byte	0x97f
 16099 27b1 81000000 		.4byte	0x81
 16100 27b5 02       		.uleb128 0x2
 16101 27b6 91       		.byte	0x91
 16102 27b7 77       		.sleb128 -9
 16103 27b8 00       		.byte	0
 16104 27b9 2F       		.uleb128 0x2f
 16105 27ba B7120000 		.4byte	.LASF561
 16106 27be 01       		.byte	0x1
 16107 27bf 8909     		.2byte	0x989
 16108 27c1 81000000 		.4byte	0x81
 16109 27c5 00000000 		.4byte	.LFB111
 16110 27c9 2E000000 		.4byte	.LFE111-.LFB111
 16111 27cd 01       		.uleb128 0x1
 16112 27ce 9C       		.byte	0x9c
 16113 27cf E3270000 		.4byte	0x27e3
 16114 27d3 2A       		.uleb128 0x2a
 16115 27d4 A70B0000 		.4byte	.LASF560
 16116 27d8 01       		.byte	0x1
 16117 27d9 8909     		.2byte	0x989
 16118 27db 3B010000 		.4byte	0x13b
 16119 27df 02       		.uleb128 0x2
 16120 27e0 91       		.byte	0x91
 16121 27e1 74       		.sleb128 -12
 16122 27e2 00       		.byte	0
 16123 27e3 2C       		.uleb128 0x2c
 16124 27e4 72140000 		.4byte	.LASF562
 16125 27e8 01       		.byte	0x1
 16126 27e9 9409     		.2byte	0x994
 16127 27eb 00000000 		.4byte	.LFB112
 16128 27ef 2C000000 		.4byte	.LFE112-.LFB112
 16129 27f3 01       		.uleb128 0x1
 16130 27f4 9C       		.byte	0x9c
 16131 27f5 18280000 		.4byte	0x2818
 16132 27f9 2A       		.uleb128 0x2a
 16133 27fa 31240000 		.4byte	.LASF481
 16134 27fe 01       		.byte	0x1
 16135 27ff 9409     		.2byte	0x994
 16136 2801 11010000 		.4byte	0x111
 16137 2805 02       		.uleb128 0x2
 16138 2806 91       		.byte	0x91
 16139 2807 6C       		.sleb128 -20
 16140 2808 2B       		.uleb128 0x2b
ARM GAS  C:\Users\RECEPC~1\AppData\Local\Temp\ccQD6Oev.s 			page 333


 16141 2809 CF1F0000 		.4byte	.LASF477
 16142 280d 01       		.byte	0x1
 16143 280e 9609     		.2byte	0x996
 16144 2810 74100000 		.4byte	0x1074
 16145 2814 02       		.uleb128 0x2
 16146 2815 91       		.byte	0x91
 16147 2816 74       		.sleb128 -12
 16148 2817 00       		.byte	0
 16149 2818 2C       		.uleb128 0x2c
 16150 2819 80150000 		.4byte	.LASF563
 16151 281d 01       		.byte	0x1
 16152 281e A009     		.2byte	0x9a0
 16153 2820 00000000 		.4byte	.LFB113
 16154 2824 2C000000 		.4byte	.LFE113-.LFB113
 16155 2828 01       		.uleb128 0x1
 16156 2829 9C       		.byte	0x9c
 16157 282a 4D280000 		.4byte	0x284d
 16158 282e 2A       		.uleb128 0x2a
 16159 282f 31240000 		.4byte	.LASF481
 16160 2833 01       		.byte	0x1
 16161 2834 A009     		.2byte	0x9a0
 16162 2836 11010000 		.4byte	0x111
 16163 283a 02       		.uleb128 0x2
 16164 283b 91       		.byte	0x91
 16165 283c 6C       		.sleb128 -20
 16166 283d 2B       		.uleb128 0x2b
 16167 283e CF1F0000 		.4byte	.LASF477
 16168 2842 01       		.byte	0x1
 16169 2843 A209     		.2byte	0x9a2
 16170 2845 B70F0000 		.4byte	0xfb7
 16171 2849 02       		.uleb128 0x2
 16172 284a 91       		.byte	0x91
 16173 284b 74       		.sleb128 -12
 16174 284c 00       		.byte	0
 16175 284d 29       		.uleb128 0x29
 16176 284e FA190000 		.4byte	.LASF564
 16177 2852 01       		.byte	0x1
 16178 2853 AB09     		.2byte	0x9ab
 16179 2855 00000000 		.4byte	.LFB114
 16180 2859 08020000 		.4byte	.LFE114-.LFB114
 16181 285d 01       		.uleb128 0x1
 16182 285e 9C       		.byte	0x9c
 16183 285f 9B280000 		.4byte	0x289b
 16184 2863 2A       		.uleb128 0x2a
 16185 2864 31240000 		.4byte	.LASF481
 16186 2868 01       		.byte	0x1
 16187 2869 AB09     		.2byte	0x9ab
 16188 286b 11010000 		.4byte	0x111
 16189 286f 02       		.uleb128 0x2
 16190 2870 91       		.byte	0x91
 16191 2871 64       		.sleb128 -28
 16192 2872 2B       		.uleb128 0x2b
 16193 2873 CF1F0000 		.4byte	.LASF477
 16194 2877 01       		.byte	0x1
 16195 2878 AD09     		.2byte	0x9ad
 16196 287a B70F0000 		.4byte	0xfb7
 16197 287e 02       		.uleb128 0x2
ARM GAS  C:\Users\RECEPC~1\AppData\Local\Temp\ccQD6Oev.s 			page 334


 16198 287f 91       		.byte	0x91
 16199 2880 6C       		.sleb128 -20
 16200 2881 26       		.uleb128 0x26
 16201 2882 3C000000 		.4byte	.LBB55
 16202 2886 BE010000 		.4byte	.LBE55-.LBB55
 16203 288a 2B       		.uleb128 0x2b
 16204 288b F5120000 		.4byte	.LASF533
 16205 288f 01       		.byte	0x1
 16206 2890 B609     		.2byte	0x9b6
 16207 2892 7D020000 		.4byte	0x27d
 16208 2896 02       		.uleb128 0x2
 16209 2897 91       		.byte	0x91
 16210 2898 68       		.sleb128 -24
 16211 2899 00       		.byte	0
 16212 289a 00       		.byte	0
 16213 289b 2C       		.uleb128 0x2c
 16214 289c F50D0000 		.4byte	.LASF565
 16215 28a0 01       		.byte	0x1
 16216 28a1 010A     		.2byte	0xa01
 16217 28a3 00000000 		.4byte	.LFB115
 16218 28a7 64010000 		.4byte	.LFE115-.LFB115
 16219 28ab 01       		.uleb128 0x1
 16220 28ac 9C       		.byte	0x9c
 16221 28ad 0C290000 		.4byte	0x290c
 16222 28b1 2A       		.uleb128 0x2a
 16223 28b2 BD0F0000 		.4byte	.LASF541
 16224 28b6 01       		.byte	0x1
 16225 28b7 010A     		.2byte	0xa01
 16226 28b9 3B010000 		.4byte	0x13b
 16227 28bd 02       		.uleb128 0x2
 16228 28be 91       		.byte	0x91
 16229 28bf 6C       		.sleb128 -20
 16230 28c0 2A       		.uleb128 0x2a
 16231 28c1 E61A0000 		.4byte	.LASF542
 16232 28c5 01       		.byte	0x1
 16233 28c6 010A     		.2byte	0xa01
 16234 28c8 97000000 		.4byte	0x97
 16235 28cc 02       		.uleb128 0x2
 16236 28cd 91       		.byte	0x91
 16237 28ce 6B       		.sleb128 -21
 16238 28cf 2B       		.uleb128 0x2b
 16239 28d0 F11A0000 		.4byte	.LASF566
 16240 28d4 01       		.byte	0x1
 16241 28d5 030A     		.2byte	0xa03
 16242 28d7 97000000 		.4byte	0x97
 16243 28db 02       		.uleb128 0x2
 16244 28dc 91       		.byte	0x91
 16245 28dd 77       		.sleb128 -9
 16246 28de 2B       		.uleb128 0x2b
 16247 28df 2A110000 		.4byte	.LASF567
 16248 28e3 01       		.byte	0x1
 16249 28e4 040A     		.2byte	0xa04
 16250 28e6 54020000 		.4byte	0x254
 16251 28ea 02       		.uleb128 0x2
 16252 28eb 91       		.byte	0x91
 16253 28ec 76       		.sleb128 -10
 16254 28ed 2B       		.uleb128 0x2b
ARM GAS  C:\Users\RECEPC~1\AppData\Local\Temp\ccQD6Oev.s 			page 335


 16255 28ee 4A260000 		.4byte	.LASF489
 16256 28f2 01       		.byte	0x1
 16257 28f3 060A     		.2byte	0xa06
 16258 28f5 BB000000 		.4byte	0xbb
 16259 28f9 02       		.uleb128 0x2
 16260 28fa 91       		.byte	0x91
 16261 28fb 75       		.sleb128 -11
 16262 28fc 2B       		.uleb128 0x2b
 16263 28fd 09140000 		.4byte	.LASF568
 16264 2901 01       		.byte	0x1
 16265 2902 160A     		.2byte	0xa16
 16266 2904 BB000000 		.4byte	0xbb
 16267 2908 02       		.uleb128 0x2
 16268 2909 91       		.byte	0x91
 16269 290a 74       		.sleb128 -12
 16270 290b 00       		.byte	0
 16271 290c 2C       		.uleb128 0x2c
 16272 290d 4C270000 		.4byte	.LASF569
 16273 2911 01       		.byte	0x1
 16274 2912 390A     		.2byte	0xa39
 16275 2914 00000000 		.4byte	.LFB116
 16276 2918 64010000 		.4byte	.LFE116-.LFB116
 16277 291c 01       		.uleb128 0x1
 16278 291d 9C       		.byte	0x9c
 16279 291e 7D290000 		.4byte	0x297d
 16280 2922 2A       		.uleb128 0x2a
 16281 2923 BD0F0000 		.4byte	.LASF541
 16282 2927 01       		.byte	0x1
 16283 2928 390A     		.2byte	0xa39
 16284 292a 3B010000 		.4byte	0x13b
 16285 292e 02       		.uleb128 0x2
 16286 292f 91       		.byte	0x91
 16287 2930 6C       		.sleb128 -20
 16288 2931 2A       		.uleb128 0x2a
 16289 2932 E61A0000 		.4byte	.LASF542
 16290 2936 01       		.byte	0x1
 16291 2937 390A     		.2byte	0xa39
 16292 2939 97000000 		.4byte	0x97
 16293 293d 02       		.uleb128 0x2
 16294 293e 91       		.byte	0x91
 16295 293f 6B       		.sleb128 -21
 16296 2940 2B       		.uleb128 0x2b
 16297 2941 F11A0000 		.4byte	.LASF566
 16298 2945 01       		.byte	0x1
 16299 2946 3B0A     		.2byte	0xa3b
 16300 2948 97000000 		.4byte	0x97
 16301 294c 02       		.uleb128 0x2
 16302 294d 91       		.byte	0x91
 16303 294e 77       		.sleb128 -9
 16304 294f 2B       		.uleb128 0x2b
 16305 2950 2A110000 		.4byte	.LASF567
 16306 2954 01       		.byte	0x1
 16307 2955 3C0A     		.2byte	0xa3c
 16308 2957 54020000 		.4byte	0x254
 16309 295b 02       		.uleb128 0x2
 16310 295c 91       		.byte	0x91
 16311 295d 76       		.sleb128 -10
ARM GAS  C:\Users\RECEPC~1\AppData\Local\Temp\ccQD6Oev.s 			page 336


 16312 295e 2B       		.uleb128 0x2b
 16313 295f 4A260000 		.4byte	.LASF489
 16314 2963 01       		.byte	0x1
 16315 2964 3E0A     		.2byte	0xa3e
 16316 2966 BB000000 		.4byte	0xbb
 16317 296a 02       		.uleb128 0x2
 16318 296b 91       		.byte	0x91
 16319 296c 75       		.sleb128 -11
 16320 296d 2B       		.uleb128 0x2b
 16321 296e 09140000 		.4byte	.LASF568
 16322 2972 01       		.byte	0x1
 16323 2973 4E0A     		.2byte	0xa4e
 16324 2975 BB000000 		.4byte	0xbb
 16325 2979 02       		.uleb128 0x2
 16326 297a 91       		.byte	0x91
 16327 297b 74       		.sleb128 -12
 16328 297c 00       		.byte	0
 16329 297d 2F       		.uleb128 0x2f
 16330 297e 5D250000 		.4byte	.LASF570
 16331 2982 01       		.byte	0x1
 16332 2983 770A     		.2byte	0xa77
 16333 2985 E1000000 		.4byte	0xe1
 16334 2989 00000000 		.4byte	.LFB117
 16335 298d 48000000 		.4byte	.LFE117-.LFB117
 16336 2991 01       		.uleb128 0x1
 16337 2992 9C       		.byte	0x9c
 16338 2993 C5290000 		.4byte	0x29c5
 16339 2997 2A       		.uleb128 0x2a
 16340 2998 E4270000 		.4byte	.LASF571
 16341 299c 01       		.byte	0x1
 16342 299d 770A     		.2byte	0xa77
 16343 299f E1000000 		.4byte	0xe1
 16344 29a3 02       		.uleb128 0x2
 16345 29a4 91       		.byte	0x91
 16346 29a5 6F       		.sleb128 -17
 16347 29a6 2B       		.uleb128 0x2b
 16348 29a7 8E160000 		.4byte	.LASF543
 16349 29ab 01       		.byte	0x1
 16350 29ac 790A     		.2byte	0xa79
 16351 29ae E1000000 		.4byte	0xe1
 16352 29b2 02       		.uleb128 0x2
 16353 29b3 91       		.byte	0x91
 16354 29b4 77       		.sleb128 -9
 16355 29b5 2B       		.uleb128 0x2b
 16356 29b6 191C0000 		.4byte	.LASF572
 16357 29ba 01       		.byte	0x1
 16358 29bb 7A0A     		.2byte	0xa7a
 16359 29bd 7C070000 		.4byte	0x77c
 16360 29c1 02       		.uleb128 0x2
 16361 29c2 91       		.byte	0x91
 16362 29c3 70       		.sleb128 -16
 16363 29c4 00       		.byte	0
 16364 29c5 30       		.uleb128 0x30
 16365 29c6 77190000 		.4byte	.LASF573
 16366 29ca 0F       		.byte	0xf
 16367 29cb 5506     		.2byte	0x655
 16368 29cd D1290000 		.4byte	0x29d1
ARM GAS  C:\Users\RECEPC~1\AppData\Local\Temp\ccQD6Oev.s 			page 337


 16369 29d1 06       		.uleb128 0x6
 16370 29d2 8C000000 		.4byte	0x8c
 16371 29d6 30       		.uleb128 0x30
 16372 29d7 00060000 		.4byte	.LASF574
 16373 29db 0A       		.byte	0xa
 16374 29dc 5602     		.2byte	0x256
 16375 29de A5100000 		.4byte	0x10a5
 16376 29e2 0A       		.uleb128 0xa
 16377 29e3 630D0000 		.4byte	0xd63
 16378 29e7 F2290000 		.4byte	0x29f2
 16379 29eb 0B       		.uleb128 0xb
 16380 29ec 0A010000 		.4byte	0x10a
 16381 29f0 03       		.byte	0x3
 16382 29f1 00       		.byte	0
 16383 29f2 30       		.uleb128 0x30
 16384 29f3 E4120000 		.4byte	.LASF575
 16385 29f7 0A       		.byte	0xa
 16386 29f8 5702     		.2byte	0x257
 16387 29fa E2290000 		.4byte	0x29e2
 16388 29fe 30       		.uleb128 0x30
 16389 29ff 1A030000 		.4byte	.LASF576
 16390 2a03 0A       		.byte	0xa
 16391 2a04 5902     		.2byte	0x259
 16392 2a06 9B110000 		.4byte	0x119b
 16393 2a0a 31       		.uleb128 0x31
 16394 2a0b 57210000 		.4byte	.LASF577
 16395 2a0f 0D       		.byte	0xd
 16396 2a10 C2       		.byte	0xc2
 16397 2a11 8B140000 		.4byte	0x148b
 16398 2a15 31       		.uleb128 0x31
 16399 2a16 36210000 		.4byte	.LASF578
 16400 2a1a 0E       		.byte	0xe
 16401 2a1b 79       		.byte	0x79
 16402 2a1c B7140000 		.4byte	0x14b7
 16403 2a20 31       		.uleb128 0x31
 16404 2a21 171A0000 		.4byte	.LASF579
 16405 2a25 01       		.byte	0x1
 16406 2a26 22       		.byte	0x22
 16407 2a27 A7110000 		.4byte	0x11a7
 16408 2a2b 0A       		.uleb128 0xa
 16409 2a2c E1000000 		.4byte	0xe1
 16410 2a30 412A0000 		.4byte	0x2a41
 16411 2a34 0B       		.uleb128 0xb
 16412 2a35 0A010000 		.4byte	0x10a
 16413 2a39 0F       		.byte	0xf
 16414 2a3a 0B       		.uleb128 0xb
 16415 2a3b 0A010000 		.4byte	0x10a
 16416 2a3f 01       		.byte	0x1
 16417 2a40 00       		.byte	0
 16418 2a41 32       		.uleb128 0x32
 16419 2a42 4F1A0000 		.4byte	.LASF580
 16420 2a46 01       		.byte	0x1
 16421 2a47 6F0A     		.2byte	0xa6f
 16422 2a49 2B2A0000 		.4byte	0x2a2b
 16423 2a4d 05       		.uleb128 0x5
 16424 2a4e 03       		.byte	0x3
 16425 2a4f 00000000 		.4byte	_g_sfcharmap
ARM GAS  C:\Users\RECEPC~1\AppData\Local\Temp\ccQD6Oev.s 			page 338


 16426 2a53 00       		.byte	0
 16427              		.section	.debug_abbrev,"",%progbits
 16428              	.Ldebug_abbrev0:
 16429 0000 01       		.uleb128 0x1
 16430 0001 11       		.uleb128 0x11
 16431 0002 01       		.byte	0x1
 16432 0003 25       		.uleb128 0x25
 16433 0004 0E       		.uleb128 0xe
 16434 0005 13       		.uleb128 0x13
 16435 0006 0B       		.uleb128 0xb
 16436 0007 03       		.uleb128 0x3
 16437 0008 0E       		.uleb128 0xe
 16438 0009 1B       		.uleb128 0x1b
 16439 000a 0E       		.uleb128 0xe
 16440 000b 55       		.uleb128 0x55
 16441 000c 17       		.uleb128 0x17
 16442 000d 11       		.uleb128 0x11
 16443 000e 01       		.uleb128 0x1
 16444 000f 10       		.uleb128 0x10
 16445 0010 17       		.uleb128 0x17
 16446 0011 00       		.byte	0
 16447 0012 00       		.byte	0
 16448 0013 02       		.uleb128 0x2
 16449 0014 24       		.uleb128 0x24
 16450 0015 00       		.byte	0
 16451 0016 0B       		.uleb128 0xb
 16452 0017 0B       		.uleb128 0xb
 16453 0018 3E       		.uleb128 0x3e
 16454 0019 0B       		.uleb128 0xb
 16455 001a 03       		.uleb128 0x3
 16456 001b 0E       		.uleb128 0xe
 16457 001c 00       		.byte	0
 16458 001d 00       		.byte	0
 16459 001e 03       		.uleb128 0x3
 16460 001f 16       		.uleb128 0x16
 16461 0020 00       		.byte	0
 16462 0021 03       		.uleb128 0x3
 16463 0022 0E       		.uleb128 0xe
 16464 0023 3A       		.uleb128 0x3a
 16465 0024 0B       		.uleb128 0xb
 16466 0025 3B       		.uleb128 0x3b
 16467 0026 0B       		.uleb128 0xb
 16468 0027 49       		.uleb128 0x49
 16469 0028 13       		.uleb128 0x13
 16470 0029 00       		.byte	0
 16471 002a 00       		.byte	0
 16472 002b 04       		.uleb128 0x4
 16473 002c 24       		.uleb128 0x24
 16474 002d 00       		.byte	0
 16475 002e 0B       		.uleb128 0xb
 16476 002f 0B       		.uleb128 0xb
 16477 0030 3E       		.uleb128 0x3e
 16478 0031 0B       		.uleb128 0xb
 16479 0032 03       		.uleb128 0x3
 16480 0033 08       		.uleb128 0x8
 16481 0034 00       		.byte	0
 16482 0035 00       		.byte	0
ARM GAS  C:\Users\RECEPC~1\AppData\Local\Temp\ccQD6Oev.s 			page 339


 16483 0036 05       		.uleb128 0x5
 16484 0037 16       		.uleb128 0x16
 16485 0038 00       		.byte	0
 16486 0039 03       		.uleb128 0x3
 16487 003a 0E       		.uleb128 0xe
 16488 003b 3A       		.uleb128 0x3a
 16489 003c 0B       		.uleb128 0xb
 16490 003d 3B       		.uleb128 0x3b
 16491 003e 05       		.uleb128 0x5
 16492 003f 49       		.uleb128 0x49
 16493 0040 13       		.uleb128 0x13
 16494 0041 00       		.byte	0
 16495 0042 00       		.byte	0
 16496 0043 06       		.uleb128 0x6
 16497 0044 35       		.uleb128 0x35
 16498 0045 00       		.byte	0
 16499 0046 49       		.uleb128 0x49
 16500 0047 13       		.uleb128 0x13
 16501 0048 00       		.byte	0
 16502 0049 00       		.byte	0
 16503 004a 07       		.uleb128 0x7
 16504 004b 0F       		.uleb128 0xf
 16505 004c 00       		.byte	0
 16506 004d 0B       		.uleb128 0xb
 16507 004e 0B       		.uleb128 0xb
 16508 004f 49       		.uleb128 0x49
 16509 0050 13       		.uleb128 0x13
 16510 0051 00       		.byte	0
 16511 0052 00       		.byte	0
 16512 0053 08       		.uleb128 0x8
 16513 0054 15       		.uleb128 0x15
 16514 0055 00       		.byte	0
 16515 0056 27       		.uleb128 0x27
 16516 0057 19       		.uleb128 0x19
 16517 0058 00       		.byte	0
 16518 0059 00       		.byte	0
 16519 005a 09       		.uleb128 0x9
 16520 005b 0F       		.uleb128 0xf
 16521 005c 00       		.byte	0
 16522 005d 0B       		.uleb128 0xb
 16523 005e 0B       		.uleb128 0xb
 16524 005f 00       		.byte	0
 16525 0060 00       		.byte	0
 16526 0061 0A       		.uleb128 0xa
 16527 0062 01       		.uleb128 0x1
 16528 0063 01       		.byte	0x1
 16529 0064 49       		.uleb128 0x49
 16530 0065 13       		.uleb128 0x13
 16531 0066 01       		.uleb128 0x1
 16532 0067 13       		.uleb128 0x13
 16533 0068 00       		.byte	0
 16534 0069 00       		.byte	0
 16535 006a 0B       		.uleb128 0xb
 16536 006b 21       		.uleb128 0x21
 16537 006c 00       		.byte	0
 16538 006d 49       		.uleb128 0x49
 16539 006e 13       		.uleb128 0x13
ARM GAS  C:\Users\RECEPC~1\AppData\Local\Temp\ccQD6Oev.s 			page 340


 16540 006f 2F       		.uleb128 0x2f
 16541 0070 0B       		.uleb128 0xb
 16542 0071 00       		.byte	0
 16543 0072 00       		.byte	0
 16544 0073 0C       		.uleb128 0xc
 16545 0074 04       		.uleb128 0x4
 16546 0075 01       		.byte	0x1
 16547 0076 03       		.uleb128 0x3
 16548 0077 0E       		.uleb128 0xe
 16549 0078 0B       		.uleb128 0xb
 16550 0079 0B       		.uleb128 0xb
 16551 007a 3A       		.uleb128 0x3a
 16552 007b 0B       		.uleb128 0xb
 16553 007c 3B       		.uleb128 0x3b
 16554 007d 0B       		.uleb128 0xb
 16555 007e 01       		.uleb128 0x1
 16556 007f 13       		.uleb128 0x13
 16557 0080 00       		.byte	0
 16558 0081 00       		.byte	0
 16559 0082 0D       		.uleb128 0xd
 16560 0083 28       		.uleb128 0x28
 16561 0084 00       		.byte	0
 16562 0085 03       		.uleb128 0x3
 16563 0086 0E       		.uleb128 0xe
 16564 0087 1C       		.uleb128 0x1c
 16565 0088 0D       		.uleb128 0xd
 16566 0089 00       		.byte	0
 16567 008a 00       		.byte	0
 16568 008b 0E       		.uleb128 0xe
 16569 008c 13       		.uleb128 0x13
 16570 008d 01       		.byte	0x1
 16571 008e 03       		.uleb128 0x3
 16572 008f 0E       		.uleb128 0xe
 16573 0090 0B       		.uleb128 0xb
 16574 0091 05       		.uleb128 0x5
 16575 0092 3A       		.uleb128 0x3a
 16576 0093 0B       		.uleb128 0xb
 16577 0094 3B       		.uleb128 0x3b
 16578 0095 0B       		.uleb128 0xb
 16579 0096 01       		.uleb128 0x1
 16580 0097 13       		.uleb128 0x13
 16581 0098 00       		.byte	0
 16582 0099 00       		.byte	0
 16583 009a 0F       		.uleb128 0xf
 16584 009b 0D       		.uleb128 0xd
 16585 009c 00       		.byte	0
 16586 009d 03       		.uleb128 0x3
 16587 009e 0E       		.uleb128 0xe
 16588 009f 3A       		.uleb128 0x3a
 16589 00a0 0B       		.uleb128 0xb
 16590 00a1 3B       		.uleb128 0x3b
 16591 00a2 0B       		.uleb128 0xb
 16592 00a3 49       		.uleb128 0x49
 16593 00a4 13       		.uleb128 0x13
 16594 00a5 38       		.uleb128 0x38
 16595 00a6 0B       		.uleb128 0xb
 16596 00a7 00       		.byte	0
ARM GAS  C:\Users\RECEPC~1\AppData\Local\Temp\ccQD6Oev.s 			page 341


 16597 00a8 00       		.byte	0
 16598 00a9 10       		.uleb128 0x10
 16599 00aa 0D       		.uleb128 0xd
 16600 00ab 00       		.byte	0
 16601 00ac 03       		.uleb128 0x3
 16602 00ad 0E       		.uleb128 0xe
 16603 00ae 3A       		.uleb128 0x3a
 16604 00af 0B       		.uleb128 0xb
 16605 00b0 3B       		.uleb128 0x3b
 16606 00b1 0B       		.uleb128 0xb
 16607 00b2 49       		.uleb128 0x49
 16608 00b3 13       		.uleb128 0x13
 16609 00b4 38       		.uleb128 0x38
 16610 00b5 05       		.uleb128 0x5
 16611 00b6 00       		.byte	0
 16612 00b7 00       		.byte	0
 16613 00b8 11       		.uleb128 0x11
 16614 00b9 21       		.uleb128 0x21
 16615 00ba 00       		.byte	0
 16616 00bb 49       		.uleb128 0x49
 16617 00bc 13       		.uleb128 0x13
 16618 00bd 2F       		.uleb128 0x2f
 16619 00be 05       		.uleb128 0x5
 16620 00bf 00       		.byte	0
 16621 00c0 00       		.byte	0
 16622 00c1 12       		.uleb128 0x12
 16623 00c2 15       		.uleb128 0x15
 16624 00c3 01       		.byte	0x1
 16625 00c4 27       		.uleb128 0x27
 16626 00c5 19       		.uleb128 0x19
 16627 00c6 01       		.uleb128 0x1
 16628 00c7 13       		.uleb128 0x13
 16629 00c8 00       		.byte	0
 16630 00c9 00       		.byte	0
 16631 00ca 13       		.uleb128 0x13
 16632 00cb 05       		.uleb128 0x5
 16633 00cc 00       		.byte	0
 16634 00cd 49       		.uleb128 0x49
 16635 00ce 13       		.uleb128 0x13
 16636 00cf 00       		.byte	0
 16637 00d0 00       		.byte	0
 16638 00d1 14       		.uleb128 0x14
 16639 00d2 13       		.uleb128 0x13
 16640 00d3 01       		.byte	0x1
 16641 00d4 03       		.uleb128 0x3
 16642 00d5 0E       		.uleb128 0xe
 16643 00d6 0B       		.uleb128 0xb
 16644 00d7 0B       		.uleb128 0xb
 16645 00d8 3A       		.uleb128 0x3a
 16646 00d9 0B       		.uleb128 0xb
 16647 00da 3B       		.uleb128 0x3b
 16648 00db 0B       		.uleb128 0xb
 16649 00dc 01       		.uleb128 0x1
 16650 00dd 13       		.uleb128 0x13
 16651 00de 00       		.byte	0
 16652 00df 00       		.byte	0
 16653 00e0 15       		.uleb128 0x15
ARM GAS  C:\Users\RECEPC~1\AppData\Local\Temp\ccQD6Oev.s 			page 342


 16654 00e1 15       		.uleb128 0x15
 16655 00e2 00       		.byte	0
 16656 00e3 27       		.uleb128 0x27
 16657 00e4 19       		.uleb128 0x19
 16658 00e5 49       		.uleb128 0x49
 16659 00e6 13       		.uleb128 0x13
 16660 00e7 00       		.byte	0
 16661 00e8 00       		.byte	0
 16662 00e9 16       		.uleb128 0x16
 16663 00ea 26       		.uleb128 0x26
 16664 00eb 00       		.byte	0
 16665 00ec 49       		.uleb128 0x49
 16666 00ed 13       		.uleb128 0x13
 16667 00ee 00       		.byte	0
 16668 00ef 00       		.byte	0
 16669 00f0 17       		.uleb128 0x17
 16670 00f1 04       		.uleb128 0x4
 16671 00f2 01       		.byte	0x1
 16672 00f3 0B       		.uleb128 0xb
 16673 00f4 0B       		.uleb128 0xb
 16674 00f5 3A       		.uleb128 0x3a
 16675 00f6 0B       		.uleb128 0xb
 16676 00f7 3B       		.uleb128 0x3b
 16677 00f8 0B       		.uleb128 0xb
 16678 00f9 01       		.uleb128 0x1
 16679 00fa 13       		.uleb128 0x13
 16680 00fb 00       		.byte	0
 16681 00fc 00       		.byte	0
 16682 00fd 18       		.uleb128 0x18
 16683 00fe 15       		.uleb128 0x15
 16684 00ff 01       		.byte	0x1
 16685 0100 27       		.uleb128 0x27
 16686 0101 19       		.uleb128 0x19
 16687 0102 49       		.uleb128 0x49
 16688 0103 13       		.uleb128 0x13
 16689 0104 01       		.uleb128 0x1
 16690 0105 13       		.uleb128 0x13
 16691 0106 00       		.byte	0
 16692 0107 00       		.byte	0
 16693 0108 19       		.uleb128 0x19
 16694 0109 28       		.uleb128 0x28
 16695 010a 00       		.byte	0
 16696 010b 03       		.uleb128 0x3
 16697 010c 08       		.uleb128 0x8
 16698 010d 1C       		.uleb128 0x1c
 16699 010e 0D       		.uleb128 0xd
 16700 010f 00       		.byte	0
 16701 0110 00       		.byte	0
 16702 0111 1A       		.uleb128 0x1a
 16703 0112 04       		.uleb128 0x4
 16704 0113 01       		.byte	0x1
 16705 0114 03       		.uleb128 0x3
 16706 0115 0E       		.uleb128 0xe
 16707 0116 0B       		.uleb128 0xb
 16708 0117 0B       		.uleb128 0xb
 16709 0118 3A       		.uleb128 0x3a
 16710 0119 0B       		.uleb128 0xb
ARM GAS  C:\Users\RECEPC~1\AppData\Local\Temp\ccQD6Oev.s 			page 343


 16711 011a 3B       		.uleb128 0x3b
 16712 011b 05       		.uleb128 0x5
 16713 011c 01       		.uleb128 0x1
 16714 011d 13       		.uleb128 0x13
 16715 011e 00       		.byte	0
 16716 011f 00       		.byte	0
 16717 0120 1B       		.uleb128 0x1b
 16718 0121 13       		.uleb128 0x13
 16719 0122 01       		.byte	0x1
 16720 0123 0B       		.uleb128 0xb
 16721 0124 05       		.uleb128 0x5
 16722 0125 3A       		.uleb128 0x3a
 16723 0126 0B       		.uleb128 0xb
 16724 0127 3B       		.uleb128 0x3b
 16725 0128 05       		.uleb128 0x5
 16726 0129 01       		.uleb128 0x1
 16727 012a 13       		.uleb128 0x13
 16728 012b 00       		.byte	0
 16729 012c 00       		.byte	0
 16730 012d 1C       		.uleb128 0x1c
 16731 012e 0D       		.uleb128 0xd
 16732 012f 00       		.byte	0
 16733 0130 03       		.uleb128 0x3
 16734 0131 0E       		.uleb128 0xe
 16735 0132 3A       		.uleb128 0x3a
 16736 0133 0B       		.uleb128 0xb
 16737 0134 3B       		.uleb128 0x3b
 16738 0135 05       		.uleb128 0x5
 16739 0136 49       		.uleb128 0x49
 16740 0137 13       		.uleb128 0x13
 16741 0138 38       		.uleb128 0x38
 16742 0139 0B       		.uleb128 0xb
 16743 013a 00       		.byte	0
 16744 013b 00       		.byte	0
 16745 013c 1D       		.uleb128 0x1d
 16746 013d 0D       		.uleb128 0xd
 16747 013e 00       		.byte	0
 16748 013f 03       		.uleb128 0x3
 16749 0140 0E       		.uleb128 0xe
 16750 0141 3A       		.uleb128 0x3a
 16751 0142 0B       		.uleb128 0xb
 16752 0143 3B       		.uleb128 0x3b
 16753 0144 05       		.uleb128 0x5
 16754 0145 49       		.uleb128 0x49
 16755 0146 13       		.uleb128 0x13
 16756 0147 38       		.uleb128 0x38
 16757 0148 05       		.uleb128 0x5
 16758 0149 00       		.byte	0
 16759 014a 00       		.byte	0
 16760 014b 1E       		.uleb128 0x1e
 16761 014c 13       		.uleb128 0x13
 16762 014d 01       		.byte	0x1
 16763 014e 0B       		.uleb128 0xb
 16764 014f 0B       		.uleb128 0xb
 16765 0150 3A       		.uleb128 0x3a
 16766 0151 0B       		.uleb128 0xb
 16767 0152 3B       		.uleb128 0x3b
ARM GAS  C:\Users\RECEPC~1\AppData\Local\Temp\ccQD6Oev.s 			page 344


 16768 0153 05       		.uleb128 0x5
 16769 0154 01       		.uleb128 0x1
 16770 0155 13       		.uleb128 0x13
 16771 0156 00       		.byte	0
 16772 0157 00       		.byte	0
 16773 0158 1F       		.uleb128 0x1f
 16774 0159 13       		.uleb128 0x13
 16775 015a 01       		.byte	0x1
 16776 015b 03       		.uleb128 0x3
 16777 015c 0E       		.uleb128 0xe
 16778 015d 0B       		.uleb128 0xb
 16779 015e 05       		.uleb128 0x5
 16780 015f 3A       		.uleb128 0x3a
 16781 0160 0B       		.uleb128 0xb
 16782 0161 3B       		.uleb128 0x3b
 16783 0162 05       		.uleb128 0x5
 16784 0163 01       		.uleb128 0x1
 16785 0164 13       		.uleb128 0x13
 16786 0165 00       		.byte	0
 16787 0166 00       		.byte	0
 16788 0167 20       		.uleb128 0x20
 16789 0168 13       		.uleb128 0x13
 16790 0169 01       		.byte	0x1
 16791 016a 03       		.uleb128 0x3
 16792 016b 0E       		.uleb128 0xe
 16793 016c 0B       		.uleb128 0xb
 16794 016d 0B       		.uleb128 0xb
 16795 016e 3A       		.uleb128 0x3a
 16796 016f 0B       		.uleb128 0xb
 16797 0170 3B       		.uleb128 0x3b
 16798 0171 05       		.uleb128 0x5
 16799 0172 01       		.uleb128 0x1
 16800 0173 13       		.uleb128 0x13
 16801 0174 00       		.byte	0
 16802 0175 00       		.byte	0
 16803 0176 21       		.uleb128 0x21
 16804 0177 0D       		.uleb128 0xd
 16805 0178 00       		.byte	0
 16806 0179 03       		.uleb128 0x3
 16807 017a 0E       		.uleb128 0xe
 16808 017b 3A       		.uleb128 0x3a
 16809 017c 0B       		.uleb128 0xb
 16810 017d 3B       		.uleb128 0x3b
 16811 017e 05       		.uleb128 0x5
 16812 017f 49       		.uleb128 0x49
 16813 0180 13       		.uleb128 0x13
 16814 0181 0B       		.uleb128 0xb
 16815 0182 0B       		.uleb128 0xb
 16816 0183 0D       		.uleb128 0xd
 16817 0184 0B       		.uleb128 0xb
 16818 0185 0C       		.uleb128 0xc
 16819 0186 0B       		.uleb128 0xb
 16820 0187 38       		.uleb128 0x38
 16821 0188 0B       		.uleb128 0xb
 16822 0189 00       		.byte	0
 16823 018a 00       		.byte	0
 16824 018b 22       		.uleb128 0x22
ARM GAS  C:\Users\RECEPC~1\AppData\Local\Temp\ccQD6Oev.s 			page 345


 16825 018c 13       		.uleb128 0x13
 16826 018d 01       		.byte	0x1
 16827 018e 0B       		.uleb128 0xb
 16828 018f 0B       		.uleb128 0xb
 16829 0190 3A       		.uleb128 0x3a
 16830 0191 0B       		.uleb128 0xb
 16831 0192 3B       		.uleb128 0x3b
 16832 0193 0B       		.uleb128 0xb
 16833 0194 01       		.uleb128 0x1
 16834 0195 13       		.uleb128 0x13
 16835 0196 00       		.byte	0
 16836 0197 00       		.byte	0
 16837 0198 23       		.uleb128 0x23
 16838 0199 2E       		.uleb128 0x2e
 16839 019a 01       		.byte	0x1
 16840 019b 3F       		.uleb128 0x3f
 16841 019c 19       		.uleb128 0x19
 16842 019d 03       		.uleb128 0x3
 16843 019e 0E       		.uleb128 0xe
 16844 019f 3A       		.uleb128 0x3a
 16845 01a0 0B       		.uleb128 0xb
 16846 01a1 3B       		.uleb128 0x3b
 16847 01a2 0B       		.uleb128 0xb
 16848 01a3 27       		.uleb128 0x27
 16849 01a4 19       		.uleb128 0x19
 16850 01a5 11       		.uleb128 0x11
 16851 01a6 01       		.uleb128 0x1
 16852 01a7 12       		.uleb128 0x12
 16853 01a8 06       		.uleb128 0x6
 16854 01a9 40       		.uleb128 0x40
 16855 01aa 18       		.uleb128 0x18
 16856 01ab 9642     		.uleb128 0x2116
 16857 01ad 19       		.uleb128 0x19
 16858 01ae 01       		.uleb128 0x1
 16859 01af 13       		.uleb128 0x13
 16860 01b0 00       		.byte	0
 16861 01b1 00       		.byte	0
 16862 01b2 24       		.uleb128 0x24
 16863 01b3 05       		.uleb128 0x5
 16864 01b4 00       		.byte	0
 16865 01b5 03       		.uleb128 0x3
 16866 01b6 0E       		.uleb128 0xe
 16867 01b7 3A       		.uleb128 0x3a
 16868 01b8 0B       		.uleb128 0xb
 16869 01b9 3B       		.uleb128 0x3b
 16870 01ba 0B       		.uleb128 0xb
 16871 01bb 49       		.uleb128 0x49
 16872 01bc 13       		.uleb128 0x13
 16873 01bd 02       		.uleb128 0x2
 16874 01be 18       		.uleb128 0x18
 16875 01bf 00       		.byte	0
 16876 01c0 00       		.byte	0
 16877 01c1 25       		.uleb128 0x25
 16878 01c2 34       		.uleb128 0x34
 16879 01c3 00       		.byte	0
 16880 01c4 03       		.uleb128 0x3
 16881 01c5 0E       		.uleb128 0xe
ARM GAS  C:\Users\RECEPC~1\AppData\Local\Temp\ccQD6Oev.s 			page 346


 16882 01c6 3A       		.uleb128 0x3a
 16883 01c7 0B       		.uleb128 0xb
 16884 01c8 3B       		.uleb128 0x3b
 16885 01c9 0B       		.uleb128 0xb
 16886 01ca 49       		.uleb128 0x49
 16887 01cb 13       		.uleb128 0x13
 16888 01cc 02       		.uleb128 0x2
 16889 01cd 18       		.uleb128 0x18
 16890 01ce 00       		.byte	0
 16891 01cf 00       		.byte	0
 16892 01d0 26       		.uleb128 0x26
 16893 01d1 0B       		.uleb128 0xb
 16894 01d2 01       		.byte	0x1
 16895 01d3 11       		.uleb128 0x11
 16896 01d4 01       		.uleb128 0x1
 16897 01d5 12       		.uleb128 0x12
 16898 01d6 06       		.uleb128 0x6
 16899 01d7 00       		.byte	0
 16900 01d8 00       		.byte	0
 16901 01d9 27       		.uleb128 0x27
 16902 01da 2E       		.uleb128 0x2e
 16903 01db 01       		.byte	0x1
 16904 01dc 3F       		.uleb128 0x3f
 16905 01dd 19       		.uleb128 0x19
 16906 01de 03       		.uleb128 0x3
 16907 01df 0E       		.uleb128 0xe
 16908 01e0 3A       		.uleb128 0x3a
 16909 01e1 0B       		.uleb128 0xb
 16910 01e2 3B       		.uleb128 0x3b
 16911 01e3 0B       		.uleb128 0xb
 16912 01e4 27       		.uleb128 0x27
 16913 01e5 19       		.uleb128 0x19
 16914 01e6 11       		.uleb128 0x11
 16915 01e7 01       		.uleb128 0x1
 16916 01e8 12       		.uleb128 0x12
 16917 01e9 06       		.uleb128 0x6
 16918 01ea 40       		.uleb128 0x40
 16919 01eb 18       		.uleb128 0x18
 16920 01ec 9742     		.uleb128 0x2117
 16921 01ee 19       		.uleb128 0x19
 16922 01ef 01       		.uleb128 0x1
 16923 01f0 13       		.uleb128 0x13
 16924 01f1 00       		.byte	0
 16925 01f2 00       		.byte	0
 16926 01f3 28       		.uleb128 0x28
 16927 01f4 34       		.uleb128 0x34
 16928 01f5 00       		.byte	0
 16929 01f6 03       		.uleb128 0x3
 16930 01f7 08       		.uleb128 0x8
 16931 01f8 3A       		.uleb128 0x3a
 16932 01f9 0B       		.uleb128 0xb
 16933 01fa 3B       		.uleb128 0x3b
 16934 01fb 05       		.uleb128 0x5
 16935 01fc 49       		.uleb128 0x49
 16936 01fd 13       		.uleb128 0x13
 16937 01fe 02       		.uleb128 0x2
 16938 01ff 18       		.uleb128 0x18
ARM GAS  C:\Users\RECEPC~1\AppData\Local\Temp\ccQD6Oev.s 			page 347


 16939 0200 00       		.byte	0
 16940 0201 00       		.byte	0
 16941 0202 29       		.uleb128 0x29
 16942 0203 2E       		.uleb128 0x2e
 16943 0204 01       		.byte	0x1
 16944 0205 3F       		.uleb128 0x3f
 16945 0206 19       		.uleb128 0x19
 16946 0207 03       		.uleb128 0x3
 16947 0208 0E       		.uleb128 0xe
 16948 0209 3A       		.uleb128 0x3a
 16949 020a 0B       		.uleb128 0xb
 16950 020b 3B       		.uleb128 0x3b
 16951 020c 05       		.uleb128 0x5
 16952 020d 27       		.uleb128 0x27
 16953 020e 19       		.uleb128 0x19
 16954 020f 11       		.uleb128 0x11
 16955 0210 01       		.uleb128 0x1
 16956 0211 12       		.uleb128 0x12
 16957 0212 06       		.uleb128 0x6
 16958 0213 40       		.uleb128 0x40
 16959 0214 18       		.uleb128 0x18
 16960 0215 9642     		.uleb128 0x2116
 16961 0217 19       		.uleb128 0x19
 16962 0218 01       		.uleb128 0x1
 16963 0219 13       		.uleb128 0x13
 16964 021a 00       		.byte	0
 16965 021b 00       		.byte	0
 16966 021c 2A       		.uleb128 0x2a
 16967 021d 05       		.uleb128 0x5
 16968 021e 00       		.byte	0
 16969 021f 03       		.uleb128 0x3
 16970 0220 0E       		.uleb128 0xe
 16971 0221 3A       		.uleb128 0x3a
 16972 0222 0B       		.uleb128 0xb
 16973 0223 3B       		.uleb128 0x3b
 16974 0224 05       		.uleb128 0x5
 16975 0225 49       		.uleb128 0x49
 16976 0226 13       		.uleb128 0x13
 16977 0227 02       		.uleb128 0x2
 16978 0228 18       		.uleb128 0x18
 16979 0229 00       		.byte	0
 16980 022a 00       		.byte	0
 16981 022b 2B       		.uleb128 0x2b
 16982 022c 34       		.uleb128 0x34
 16983 022d 00       		.byte	0
 16984 022e 03       		.uleb128 0x3
 16985 022f 0E       		.uleb128 0xe
 16986 0230 3A       		.uleb128 0x3a
 16987 0231 0B       		.uleb128 0xb
 16988 0232 3B       		.uleb128 0x3b
 16989 0233 05       		.uleb128 0x5
 16990 0234 49       		.uleb128 0x49
 16991 0235 13       		.uleb128 0x13
 16992 0236 02       		.uleb128 0x2
 16993 0237 18       		.uleb128 0x18
 16994 0238 00       		.byte	0
 16995 0239 00       		.byte	0
ARM GAS  C:\Users\RECEPC~1\AppData\Local\Temp\ccQD6Oev.s 			page 348


 16996 023a 2C       		.uleb128 0x2c
 16997 023b 2E       		.uleb128 0x2e
 16998 023c 01       		.byte	0x1
 16999 023d 3F       		.uleb128 0x3f
 17000 023e 19       		.uleb128 0x19
 17001 023f 03       		.uleb128 0x3
 17002 0240 0E       		.uleb128 0xe
 17003 0241 3A       		.uleb128 0x3a
 17004 0242 0B       		.uleb128 0xb
 17005 0243 3B       		.uleb128 0x3b
 17006 0244 05       		.uleb128 0x5
 17007 0245 27       		.uleb128 0x27
 17008 0246 19       		.uleb128 0x19
 17009 0247 11       		.uleb128 0x11
 17010 0248 01       		.uleb128 0x1
 17011 0249 12       		.uleb128 0x12
 17012 024a 06       		.uleb128 0x6
 17013 024b 40       		.uleb128 0x40
 17014 024c 18       		.uleb128 0x18
 17015 024d 9742     		.uleb128 0x2117
 17016 024f 19       		.uleb128 0x19
 17017 0250 01       		.uleb128 0x1
 17018 0251 13       		.uleb128 0x13
 17019 0252 00       		.byte	0
 17020 0253 00       		.byte	0
 17021 0254 2D       		.uleb128 0x2d
 17022 0255 0B       		.uleb128 0xb
 17023 0256 01       		.byte	0x1
 17024 0257 11       		.uleb128 0x11
 17025 0258 01       		.uleb128 0x1
 17026 0259 12       		.uleb128 0x12
 17027 025a 06       		.uleb128 0x6
 17028 025b 01       		.uleb128 0x1
 17029 025c 13       		.uleb128 0x13
 17030 025d 00       		.byte	0
 17031 025e 00       		.byte	0
 17032 025f 2E       		.uleb128 0x2e
 17033 0260 2E       		.uleb128 0x2e
 17034 0261 01       		.byte	0x1
 17035 0262 3F       		.uleb128 0x3f
 17036 0263 19       		.uleb128 0x19
 17037 0264 03       		.uleb128 0x3
 17038 0265 0E       		.uleb128 0xe
 17039 0266 3A       		.uleb128 0x3a
 17040 0267 0B       		.uleb128 0xb
 17041 0268 3B       		.uleb128 0x3b
 17042 0269 05       		.uleb128 0x5
 17043 026a 27       		.uleb128 0x27
 17044 026b 19       		.uleb128 0x19
 17045 026c 49       		.uleb128 0x49
 17046 026d 13       		.uleb128 0x13
 17047 026e 11       		.uleb128 0x11
 17048 026f 01       		.uleb128 0x1
 17049 0270 12       		.uleb128 0x12
 17050 0271 06       		.uleb128 0x6
 17051 0272 40       		.uleb128 0x40
 17052 0273 18       		.uleb128 0x18
ARM GAS  C:\Users\RECEPC~1\AppData\Local\Temp\ccQD6Oev.s 			page 349


 17053 0274 9642     		.uleb128 0x2116
 17054 0276 19       		.uleb128 0x19
 17055 0277 01       		.uleb128 0x1
 17056 0278 13       		.uleb128 0x13
 17057 0279 00       		.byte	0
 17058 027a 00       		.byte	0
 17059 027b 2F       		.uleb128 0x2f
 17060 027c 2E       		.uleb128 0x2e
 17061 027d 01       		.byte	0x1
 17062 027e 3F       		.uleb128 0x3f
 17063 027f 19       		.uleb128 0x19
 17064 0280 03       		.uleb128 0x3
 17065 0281 0E       		.uleb128 0xe
 17066 0282 3A       		.uleb128 0x3a
 17067 0283 0B       		.uleb128 0xb
 17068 0284 3B       		.uleb128 0x3b
 17069 0285 05       		.uleb128 0x5
 17070 0286 27       		.uleb128 0x27
 17071 0287 19       		.uleb128 0x19
 17072 0288 49       		.uleb128 0x49
 17073 0289 13       		.uleb128 0x13
 17074 028a 11       		.uleb128 0x11
 17075 028b 01       		.uleb128 0x1
 17076 028c 12       		.uleb128 0x12
 17077 028d 06       		.uleb128 0x6
 17078 028e 40       		.uleb128 0x40
 17079 028f 18       		.uleb128 0x18
 17080 0290 9742     		.uleb128 0x2117
 17081 0292 19       		.uleb128 0x19
 17082 0293 01       		.uleb128 0x1
 17083 0294 13       		.uleb128 0x13
 17084 0295 00       		.byte	0
 17085 0296 00       		.byte	0
 17086 0297 30       		.uleb128 0x30
 17087 0298 34       		.uleb128 0x34
 17088 0299 00       		.byte	0
 17089 029a 03       		.uleb128 0x3
 17090 029b 0E       		.uleb128 0xe
 17091 029c 3A       		.uleb128 0x3a
 17092 029d 0B       		.uleb128 0xb
 17093 029e 3B       		.uleb128 0x3b
 17094 029f 05       		.uleb128 0x5
 17095 02a0 49       		.uleb128 0x49
 17096 02a1 13       		.uleb128 0x13
 17097 02a2 3F       		.uleb128 0x3f
 17098 02a3 19       		.uleb128 0x19
 17099 02a4 3C       		.uleb128 0x3c
 17100 02a5 19       		.uleb128 0x19
 17101 02a6 00       		.byte	0
 17102 02a7 00       		.byte	0
 17103 02a8 31       		.uleb128 0x31
 17104 02a9 34       		.uleb128 0x34
 17105 02aa 00       		.byte	0
 17106 02ab 03       		.uleb128 0x3
 17107 02ac 0E       		.uleb128 0xe
 17108 02ad 3A       		.uleb128 0x3a
 17109 02ae 0B       		.uleb128 0xb
ARM GAS  C:\Users\RECEPC~1\AppData\Local\Temp\ccQD6Oev.s 			page 350


 17110 02af 3B       		.uleb128 0x3b
 17111 02b0 0B       		.uleb128 0xb
 17112 02b1 49       		.uleb128 0x49
 17113 02b2 13       		.uleb128 0x13
 17114 02b3 3F       		.uleb128 0x3f
 17115 02b4 19       		.uleb128 0x19
 17116 02b5 3C       		.uleb128 0x3c
 17117 02b6 19       		.uleb128 0x19
 17118 02b7 00       		.byte	0
 17119 02b8 00       		.byte	0
 17120 02b9 32       		.uleb128 0x32
 17121 02ba 34       		.uleb128 0x34
 17122 02bb 00       		.byte	0
 17123 02bc 03       		.uleb128 0x3
 17124 02bd 0E       		.uleb128 0xe
 17125 02be 3A       		.uleb128 0x3a
 17126 02bf 0B       		.uleb128 0xb
 17127 02c0 3B       		.uleb128 0x3b
 17128 02c1 05       		.uleb128 0x5
 17129 02c2 49       		.uleb128 0x49
 17130 02c3 13       		.uleb128 0x13
 17131 02c4 3F       		.uleb128 0x3f
 17132 02c5 19       		.uleb128 0x19
 17133 02c6 02       		.uleb128 0x2
 17134 02c7 18       		.uleb128 0x18
 17135 02c8 00       		.byte	0
 17136 02c9 00       		.byte	0
 17137 02ca 00       		.byte	0
 17138              		.section	.debug_aranges,"",%progbits
 17139 0000 CC010000 		.4byte	0x1cc
 17140 0004 0200     		.2byte	0x2
 17141 0006 00000000 		.4byte	.Ldebug_info0
 17142 000a 04       		.byte	0x4
 17143 000b 00       		.byte	0
 17144 000c 0000     		.2byte	0
 17145 000e 0000     		.2byte	0
 17146 0010 00000000 		.4byte	.LFB63
 17147 0014 AA000000 		.4byte	.LFE63-.LFB63
 17148 0018 00000000 		.4byte	.LFB64
 17149 001c 48000000 		.4byte	.LFE64-.LFB64
 17150 0020 00000000 		.4byte	.LFB65
 17151 0024 E0000000 		.4byte	.LFE65-.LFB65
 17152 0028 00000000 		.4byte	.LFB66
 17153 002c F4000000 		.4byte	.LFE66-.LFB66
 17154 0030 00000000 		.4byte	.LFB67
 17155 0034 5A000000 		.4byte	.LFE67-.LFB67
 17156 0038 00000000 		.4byte	.LFB68
 17157 003c F4080000 		.4byte	.LFE68-.LFB68
 17158 0040 00000000 		.4byte	.LFB69
 17159 0044 8C010000 		.4byte	.LFE69-.LFB69
 17160 0048 00000000 		.4byte	.LFB70
 17161 004c 04020000 		.4byte	.LFE70-.LFB70
 17162 0050 00000000 		.4byte	.LFB71
 17163 0054 A0010000 		.4byte	.LFE71-.LFB71
 17164 0058 00000000 		.4byte	.LFB72
 17165 005c 2C000000 		.4byte	.LFE72-.LFB72
 17166 0060 00000000 		.4byte	.LFB73
ARM GAS  C:\Users\RECEPC~1\AppData\Local\Temp\ccQD6Oev.s 			page 351


 17167 0064 36000000 		.4byte	.LFE73-.LFB73
 17168 0068 00000000 		.4byte	.LFB74
 17169 006c 36000000 		.4byte	.LFE74-.LFB74
 17170 0070 00000000 		.4byte	.LFB75
 17171 0074 82000000 		.4byte	.LFE75-.LFB75
 17172 0078 00000000 		.4byte	.LFB76
 17173 007c 70000000 		.4byte	.LFE76-.LFB76
 17174 0080 00000000 		.4byte	.LFB77
 17175 0084 60000000 		.4byte	.LFE77-.LFB77
 17176 0088 00000000 		.4byte	.LFB78
 17177 008c 6A000000 		.4byte	.LFE78-.LFB78
 17178 0090 00000000 		.4byte	.LFB79
 17179 0094 6A000000 		.4byte	.LFE79-.LFB79
 17180 0098 00000000 		.4byte	.LFB80
 17181 009c 6A000000 		.4byte	.LFE80-.LFB80
 17182 00a0 00000000 		.4byte	.LFB81
 17183 00a4 6A000000 		.4byte	.LFE81-.LFB81
 17184 00a8 00000000 		.4byte	.LFB82
 17185 00ac 6A000000 		.4byte	.LFE82-.LFB82
 17186 00b0 00000000 		.4byte	.LFB83
 17187 00b4 4A010000 		.4byte	.LFE83-.LFB83
 17188 00b8 00000000 		.4byte	.LFB84
 17189 00bc 60010000 		.4byte	.LFE84-.LFB84
 17190 00c0 00000000 		.4byte	.LFB85
 17191 00c4 4E010000 		.4byte	.LFE85-.LFB85
 17192 00c8 00000000 		.4byte	.LFB86
 17193 00cc B6010000 		.4byte	.LFE86-.LFB86
 17194 00d0 00000000 		.4byte	.LFB87
 17195 00d4 E8000000 		.4byte	.LFE87-.LFB87
 17196 00d8 00000000 		.4byte	.LFB88
 17197 00dc 78010000 		.4byte	.LFE88-.LFB88
 17198 00e0 00000000 		.4byte	.LFB89
 17199 00e4 88010000 		.4byte	.LFE89-.LFB89
 17200 00e8 00000000 		.4byte	.LFB90
 17201 00ec 5E020000 		.4byte	.LFE90-.LFB90
 17202 00f0 00000000 		.4byte	.LFB91
 17203 00f4 54010000 		.4byte	.LFE91-.LFB91
 17204 00f8 00000000 		.4byte	.LFB92
 17205 00fc E2010000 		.4byte	.LFE92-.LFB92
 17206 0100 00000000 		.4byte	.LFB93
 17207 0104 6A000000 		.4byte	.LFE93-.LFB93
 17208 0108 00000000 		.4byte	.LFB94
 17209 010c 60000000 		.4byte	.LFE94-.LFB94
 17210 0110 00000000 		.4byte	.LFB95
 17211 0114 E6000000 		.4byte	.LFE95-.LFB95
 17212 0118 00000000 		.4byte	.LFB96
 17213 011c 16000000 		.4byte	.LFE96-.LFB96
 17214 0120 00000000 		.4byte	.LFB97
 17215 0124 E6000000 		.4byte	.LFE97-.LFB97
 17216 0128 00000000 		.4byte	.LFB98
 17217 012c EC000000 		.4byte	.LFE98-.LFB98
 17218 0130 00000000 		.4byte	.LFB99
 17219 0134 9E010000 		.4byte	.LFE99-.LFB99
 17220 0138 00000000 		.4byte	.LFB100
 17221 013c 38100000 		.4byte	.LFE100-.LFB100
 17222 0140 00000000 		.4byte	.LFB101
 17223 0144 E4010000 		.4byte	.LFE101-.LFB101
ARM GAS  C:\Users\RECEPC~1\AppData\Local\Temp\ccQD6Oev.s 			page 352


 17224 0148 00000000 		.4byte	.LFB102
 17225 014c 24010000 		.4byte	.LFE102-.LFB102
 17226 0150 00000000 		.4byte	.LFB103
 17227 0154 60000000 		.4byte	.LFE103-.LFB103
 17228 0158 00000000 		.4byte	.LFB104
 17229 015c 40020000 		.4byte	.LFE104-.LFB104
 17230 0160 00000000 		.4byte	.LFB105
 17231 0164 6C000000 		.4byte	.LFE105-.LFB105
 17232 0168 00000000 		.4byte	.LFB106
 17233 016c B8000000 		.4byte	.LFE106-.LFB106
 17234 0170 00000000 		.4byte	.LFB107
 17235 0174 98000000 		.4byte	.LFE107-.LFB107
 17236 0178 00000000 		.4byte	.LFB108
 17237 017c AC000000 		.4byte	.LFE108-.LFB108
 17238 0180 00000000 		.4byte	.LFB109
 17239 0184 88000000 		.4byte	.LFE109-.LFB109
 17240 0188 00000000 		.4byte	.LFB110
 17241 018c 5E000000 		.4byte	.LFE110-.LFB110
 17242 0190 00000000 		.4byte	.LFB111
 17243 0194 2E000000 		.4byte	.LFE111-.LFB111
 17244 0198 00000000 		.4byte	.LFB112
 17245 019c 2C000000 		.4byte	.LFE112-.LFB112
 17246 01a0 00000000 		.4byte	.LFB113
 17247 01a4 2C000000 		.4byte	.LFE113-.LFB113
 17248 01a8 00000000 		.4byte	.LFB114
 17249 01ac 08020000 		.4byte	.LFE114-.LFB114
 17250 01b0 00000000 		.4byte	.LFB115
 17251 01b4 64010000 		.4byte	.LFE115-.LFB115
 17252 01b8 00000000 		.4byte	.LFB116
 17253 01bc 64010000 		.4byte	.LFE116-.LFB116
 17254 01c0 00000000 		.4byte	.LFB117
 17255 01c4 48000000 		.4byte	.LFE117-.LFB117
 17256 01c8 00000000 		.4byte	0
 17257 01cc 00000000 		.4byte	0
 17258              		.section	.debug_ranges,"",%progbits
 17259              	.Ldebug_ranges0:
 17260 0000 00000000 		.4byte	.LFB63
 17261 0004 AA000000 		.4byte	.LFE63
 17262 0008 00000000 		.4byte	.LFB64
 17263 000c 48000000 		.4byte	.LFE64
 17264 0010 00000000 		.4byte	.LFB65
 17265 0014 E0000000 		.4byte	.LFE65
 17266 0018 00000000 		.4byte	.LFB66
 17267 001c F4000000 		.4byte	.LFE66
 17268 0020 00000000 		.4byte	.LFB67
 17269 0024 5A000000 		.4byte	.LFE67
 17270 0028 00000000 		.4byte	.LFB68
 17271 002c F4080000 		.4byte	.LFE68
 17272 0030 00000000 		.4byte	.LFB69
 17273 0034 8C010000 		.4byte	.LFE69
 17274 0038 00000000 		.4byte	.LFB70
 17275 003c 04020000 		.4byte	.LFE70
 17276 0040 00000000 		.4byte	.LFB71
 17277 0044 A0010000 		.4byte	.LFE71
 17278 0048 00000000 		.4byte	.LFB72
 17279 004c 2C000000 		.4byte	.LFE72
 17280 0050 00000000 		.4byte	.LFB73
ARM GAS  C:\Users\RECEPC~1\AppData\Local\Temp\ccQD6Oev.s 			page 353


 17281 0054 36000000 		.4byte	.LFE73
 17282 0058 00000000 		.4byte	.LFB74
 17283 005c 36000000 		.4byte	.LFE74
 17284 0060 00000000 		.4byte	.LFB75
 17285 0064 82000000 		.4byte	.LFE75
 17286 0068 00000000 		.4byte	.LFB76
 17287 006c 70000000 		.4byte	.LFE76
 17288 0070 00000000 		.4byte	.LFB77
 17289 0074 60000000 		.4byte	.LFE77
 17290 0078 00000000 		.4byte	.LFB78
 17291 007c 6A000000 		.4byte	.LFE78
 17292 0080 00000000 		.4byte	.LFB79
 17293 0084 6A000000 		.4byte	.LFE79
 17294 0088 00000000 		.4byte	.LFB80
 17295 008c 6A000000 		.4byte	.LFE80
 17296 0090 00000000 		.4byte	.LFB81
 17297 0094 6A000000 		.4byte	.LFE81
 17298 0098 00000000 		.4byte	.LFB82
 17299 009c 6A000000 		.4byte	.LFE82
 17300 00a0 00000000 		.4byte	.LFB83
 17301 00a4 4A010000 		.4byte	.LFE83
 17302 00a8 00000000 		.4byte	.LFB84
 17303 00ac 60010000 		.4byte	.LFE84
 17304 00b0 00000000 		.4byte	.LFB85
 17305 00b4 4E010000 		.4byte	.LFE85
 17306 00b8 00000000 		.4byte	.LFB86
 17307 00bc B6010000 		.4byte	.LFE86
 17308 00c0 00000000 		.4byte	.LFB87
 17309 00c4 E8000000 		.4byte	.LFE87
 17310 00c8 00000000 		.4byte	.LFB88
 17311 00cc 78010000 		.4byte	.LFE88
 17312 00d0 00000000 		.4byte	.LFB89
 17313 00d4 88010000 		.4byte	.LFE89
 17314 00d8 00000000 		.4byte	.LFB90
 17315 00dc 5E020000 		.4byte	.LFE90
 17316 00e0 00000000 		.4byte	.LFB91
 17317 00e4 54010000 		.4byte	.LFE91
 17318 00e8 00000000 		.4byte	.LFB92
 17319 00ec E2010000 		.4byte	.LFE92
 17320 00f0 00000000 		.4byte	.LFB93
 17321 00f4 6A000000 		.4byte	.LFE93
 17322 00f8 00000000 		.4byte	.LFB94
 17323 00fc 60000000 		.4byte	.LFE94
 17324 0100 00000000 		.4byte	.LFB95
 17325 0104 E6000000 		.4byte	.LFE95
 17326 0108 00000000 		.4byte	.LFB96
 17327 010c 16000000 		.4byte	.LFE96
 17328 0110 00000000 		.4byte	.LFB97
 17329 0114 E6000000 		.4byte	.LFE97
 17330 0118 00000000 		.4byte	.LFB98
 17331 011c EC000000 		.4byte	.LFE98
 17332 0120 00000000 		.4byte	.LFB99
 17333 0124 9E010000 		.4byte	.LFE99
 17334 0128 00000000 		.4byte	.LFB100
 17335 012c 38100000 		.4byte	.LFE100
 17336 0130 00000000 		.4byte	.LFB101
 17337 0134 E4010000 		.4byte	.LFE101
ARM GAS  C:\Users\RECEPC~1\AppData\Local\Temp\ccQD6Oev.s 			page 354


 17338 0138 00000000 		.4byte	.LFB102
 17339 013c 24010000 		.4byte	.LFE102
 17340 0140 00000000 		.4byte	.LFB103
 17341 0144 60000000 		.4byte	.LFE103
 17342 0148 00000000 		.4byte	.LFB104
 17343 014c 40020000 		.4byte	.LFE104
 17344 0150 00000000 		.4byte	.LFB105
 17345 0154 6C000000 		.4byte	.LFE105
 17346 0158 00000000 		.4byte	.LFB106
 17347 015c B8000000 		.4byte	.LFE106
 17348 0160 00000000 		.4byte	.LFB107
 17349 0164 98000000 		.4byte	.LFE107
 17350 0168 00000000 		.4byte	.LFB108
 17351 016c AC000000 		.4byte	.LFE108
 17352 0170 00000000 		.4byte	.LFB109
 17353 0174 88000000 		.4byte	.LFE109
 17354 0178 00000000 		.4byte	.LFB110
 17355 017c 5E000000 		.4byte	.LFE110
 17356 0180 00000000 		.4byte	.LFB111
 17357 0184 2E000000 		.4byte	.LFE111
 17358 0188 00000000 		.4byte	.LFB112
 17359 018c 2C000000 		.4byte	.LFE112
 17360 0190 00000000 		.4byte	.LFB113
 17361 0194 2C000000 		.4byte	.LFE113
 17362 0198 00000000 		.4byte	.LFB114
 17363 019c 08020000 		.4byte	.LFE114
 17364 01a0 00000000 		.4byte	.LFB115
 17365 01a4 64010000 		.4byte	.LFE115
 17366 01a8 00000000 		.4byte	.LFB116
 17367 01ac 64010000 		.4byte	.LFE116
 17368 01b0 00000000 		.4byte	.LFB117
 17369 01b4 48000000 		.4byte	.LFE117
 17370 01b8 00000000 		.4byte	0
 17371 01bc 00000000 		.4byte	0
 17372              		.section	.debug_line,"",%progbits
 17373              	.Ldebug_line0:
 17374 0000 330D0000 		.section	.debug_str,"MS",%progbits,1
 17374      0200FC01 
 17374      00000201 
 17374      FB0E0D00 
 17374      01010101 
 17375              	.LASF475:
 17376 0000 5F707269 		.ascii	"_printerportside2\000"
 17376      6E746572 
 17376      706F7274 
 17376      73696465 
 17376      3200
 17377              	.LASF374:
 17378 0012 5F706F73 		.ascii	"_positionoffset\000"
 17378      6974696F 
 17378      6E6F6666 
 17378      73657400 
 17379              	.LASF289:
 17380 0022 5F70756D 		.ascii	"_pumprftransstate\000"
 17380      70726674 
 17380      72616E73 
 17380      73746174 
ARM GAS  C:\Users\RECEPC~1\AppData\Local\Temp\ccQD6Oev.s 			page 355


 17380      6500
 17381              	.LASF504:
 17382 0034 7070756D 		.ascii	"ppump\000"
 17382      7000
 17383              	.LASF369:
 17384 003a 5F766F6C 		.ascii	"_volumeunit\000"
 17384      756D6575 
 17384      6E697400 
 17385              	.LASF193:
 17386 0046 44495350 		.ascii	"DISPLAY1\000"
 17386      4C415931 
 17386      00
 17387              	.LASF194:
 17388 004f 44495350 		.ascii	"DISPLAY2\000"
 17388      4C415932 
 17388      00
 17389              	.LASF97:
 17390 0058 5F53494E 		.ascii	"_SINK_MESSAGE_\000"
 17390      4B5F4D45 
 17390      53534147 
 17390      455F00
 17391              	.LASF376:
 17392 0067 504E4541 		.ascii	"PNEARDISPENSERACTIVATEPROGRAMMING\000"
 17392      52444953 
 17392      50454E53 
 17392      45524143 
 17392      54495641 
 17393              	.LASF317:
 17394 0089 52657370 		.ascii	"ResponseSizeResolver\000"
 17394      6F6E7365 
 17394      53697A65 
 17394      5265736F 
 17394      6C766572 
 17395              	.LASF534:
 17396 009e 41637175 		.ascii	"AcquirePumpCompleteConfiguration\000"
 17396      69726550 
 17396      756D7043 
 17396      6F6D706C 
 17396      65746543 
 17397              	.LASF339:
 17398 00bf 5F726570 		.ascii	"_repushtimeoutmultiplier\000"
 17398      75736874 
 17398      696D656F 
 17398      75746D75 
 17398      6C746970 
 17399              	.LASF22:
 17400 00d8 73697A65 		.ascii	"sizetype\000"
 17400      74797065 
 17400      00
 17401              	.LASF500:
 17402 00e1 50726F63 		.ascii	"ProcessPumpTotalsDataPpuCheck\000"
 17402      65737350 
 17402      756D7054 
 17402      6F74616C 
 17402      73446174 
 17403              	.LASF61:
 17404 00ff 44495350 		.ascii	"DISPENSER_ACQUIRE_PUMP_STATE\000"
ARM GAS  C:\Users\RECEPC~1\AppData\Local\Temp\ccQD6Oev.s 			page 356


 17404      454E5345 
 17404      525F4143 
 17404      51554952 
 17404      455F5055 
 17405              	.LASF124:
 17406 011c 5F6D6573 		.ascii	"_messagelength\000"
 17406      73616765 
 17406      6C656E67 
 17406      746800
 17407              	.LASF329:
 17408 012b 5F50554D 		.ascii	"_PUMP_TRANSACTION_\000"
 17408      505F5452 
 17408      414E5341 
 17408      4354494F 
 17408      4E5F00
 17409              	.LASF202:
 17410 013e 50554D50 		.ascii	"PUMP_AUTHORIZATION\000"
 17410      5F415554 
 17410      484F5249 
 17410      5A415449 
 17410      4F4E00
 17411              	.LASF282:
 17412 0151 5F73696E 		.ascii	"_sinktransaction\000"
 17412      6B747261 
 17412      6E736163 
 17412      74696F6E 
 17412      00
 17413              	.LASF463:
 17414 0162 52465F43 		.ascii	"RF_CREDITSALEREPORT\000"
 17414      52454449 
 17414      5453414C 
 17414      45524550 
 17414      4F525400 
 17415              	.LASF146:
 17416 0176 44495350 		.ascii	"DISPLAY_SUBA_MANIJA\000"
 17416      4C41595F 
 17416      53554241 
 17416      5F4D414E 
 17416      494A4100 
 17417              	.LASF378:
 17418 018a 45455052 		.ascii	"EEPROM_CONFIGURATION_PAGE0\000"
 17418      4F4D5F43 
 17418      4F4E4649 
 17418      47555241 
 17418      54494F4E 
 17419              	.LASF38:
 17420 01a5 53494E4B 		.ascii	"SINK_BUSY\000"
 17420      5F425553 
 17420      5900
 17421              	.LASF380:
 17422 01af 45455052 		.ascii	"EEPROM_CONFIGURATION_PAGE2\000"
 17422      4F4D5F43 
 17422      4F4E4649 
 17422      47555241 
 17422      54494F4E 
 17423              	.LASF381:
 17424 01ca 45455052 		.ascii	"EEPROM_CONFIGURATION_PAGE3\000"
ARM GAS  C:\Users\RECEPC~1\AppData\Local\Temp\ccQD6Oev.s 			page 357


 17424      4F4D5F43 
 17424      4F4E4649 
 17424      47555241 
 17424      54494F4E 
 17425              	.LASF382:
 17426 01e5 45455052 		.ascii	"EEPROM_CONFIGURATION_PAGE4\000"
 17426      4F4D5F43 
 17426      4F4E4649 
 17426      47555241 
 17426      54494F4E 
 17427              	.LASF383:
 17428 0200 45455052 		.ascii	"EEPROM_CONFIGURATION_PAGE5\000"
 17428      4F4D5F43 
 17428      4F4E4649 
 17428      47555241 
 17428      54494F4E 
 17429              	.LASF384:
 17430 021b 45455052 		.ascii	"EEPROM_CONFIGURATION_PAGE6\000"
 17430      4F4D5F43 
 17430      4F4E4649 
 17430      47555241 
 17430      54494F4E 
 17431              	.LASF385:
 17432 0236 45455052 		.ascii	"EEPROM_CONFIGURATION_PAGE7\000"
 17432      4F4D5F43 
 17432      4F4E4649 
 17432      47555241 
 17432      54494F4E 
 17433              	.LASF58:
 17434 0251 53494E4B 		.ascii	"SINK_RELEASE_BY_ID\000"
 17434      5F52454C 
 17434      45415345 
 17434      5F42595F 
 17434      494400
 17435              	.LASF130:
 17436 0264 55415254 		.ascii	"UART_RF\000"
 17436      5F524600 
 17437              	.LASF12:
 17438 026c 696E7433 		.ascii	"int32_t\000"
 17438      325F7400 
 17439              	.LASF348:
 17440 0274 5F50554D 		.ascii	"_PUMP_JOB_QUEUE_\000"
 17440      505F4A4F 
 17440      425F5155 
 17440      4555455F 
 17440      00
 17441              	.LASF331:
 17442 0285 5F6A6F62 		.ascii	"_jobs\000"
 17442      7300
 17443              	.LASF529:
 17444 028b 41637175 		.ascii	"AcquirePumpMiscellaneousConfiguration\000"
 17444      69726550 
 17444      756D704D 
 17444      69736365 
 17444      6C6C616E 
 17445              	.LASF297:
 17446 02b1 5F727862 		.ascii	"_rxbuffersize\000"
ARM GAS  C:\Users\RECEPC~1\AppData\Local\Temp\ccQD6Oev.s 			page 358


 17446      75666665 
 17446      7273697A 
 17446      6500
 17447              	.LASF92:
 17448 02bf 49425554 		.ascii	"IBUTTON1_SCAN\000"
 17448      544F4E31 
 17448      5F534341 
 17448      4E00
 17449              	.LASF218:
 17450 02cd 50554D50 		.ascii	"PUMP_AUTHORIZED\000"
 17450      5F415554 
 17450      484F5249 
 17450      5A454400 
 17451              	.LASF56:
 17452 02dd 55415254 		.ascii	"UART_RF_AUTONOMOUS_MONITOR\000"
 17452      5F52465F 
 17452      4155544F 
 17452      4E4F4D4F 
 17452      55535F4D 
 17453              	.LASF420:
 17454 02f8 52465F4D 		.ascii	"RF_MUX_CREDIT_SERIAL_AUTH_REQUEST\000"
 17454      55585F43 
 17454      52454449 
 17454      545F5345 
 17454      5249414C 
 17455              	.LASF576:
 17456 031a 5F675F64 		.ascii	"_g_dispenserlayoutinfo\000"
 17456      69737065 
 17456      6E736572 
 17456      6C61796F 
 17456      7574696E 
 17457              	.LASF15:
 17458 0331 75696E74 		.ascii	"uint32\000"
 17458      333200
 17459              	.LASF250:
 17460 0338 5F737461 		.ascii	"_state\000"
 17460      746500
 17461              	.LASF166:
 17462 033f 44495350 		.ascii	"DISPLAY_COPIA_RECIBO\000"
 17462      4C41595F 
 17462      434F5049 
 17462      415F5245 
 17462      4349424F 
 17463              	.LASF526:
 17464 0354 50756D70 		.ascii	"PumpStopRequest\000"
 17464      53746F70 
 17464      52657175 
 17464      65737400 
 17465              	.LASF413:
 17466 0364 45455052 		.ascii	"EEPROM_DISPENSER_PUMP34_TRANSACTION_PAGE\000"
 17466      4F4D5F44 
 17466      49535045 
 17466      4E534552 
 17466      5F50554D 
 17467              	.LASF224:
 17468 038d 50554D50 		.ascii	"PUMP_UNKNOWN\000"
 17468      5F554E4B 
ARM GAS  C:\Users\RECEPC~1\AppData\Local\Temp\ccQD6Oev.s 			page 359


 17468      4E4F574E 
 17468      00
 17469              	.LASF208:
 17470 039a 50554D50 		.ascii	"PUMP_REAL_TIME_HOSE_VOLUME_REQUEST\000"
 17470      5F524541 
 17470      4C5F5449 
 17470      4D455F48 
 17470      4F53455F 
 17471              	.LASF85:
 17472 03bd 44495350 		.ascii	"DISPLAY1_MESSAGE\000"
 17472      4C415931 
 17472      5F4D4553 
 17472      53414745 
 17472      00
 17473              	.LASF487:
 17474 03ce 50726F63 		.ascii	"ProcessPumpTotalsDataStart\000"
 17474      65737350 
 17474      756D7054 
 17474      6F74616C 
 17474      73446174 
 17475              	.LASF517:
 17476 03e9 50756D70 		.ascii	"PumpPresetNoHose\000"
 17476      50726573 
 17476      65744E6F 
 17476      486F7365 
 17476      00
 17477              	.LASF65:
 17478 03fa 44495350 		.ascii	"DISPENSER_UNLOCK_EOT_PUMPS\000"
 17478      454E5345 
 17478      525F554E 
 17478      4C4F434B 
 17478      5F454F54 
 17479              	.LASF102:
 17480 0415 53746F70 		.ascii	"Stop\000"
 17480      00
 17481              	.LASF118:
 17482 041a 55415254 		.ascii	"UARTManager\000"
 17482      4D616E61 
 17482      67657200 
 17483              	.LASF457:
 17484 0426 5F52465F 		.ascii	"_RF_STATES_\000"
 17484      53544154 
 17484      45535F00 
 17485              	.LASF511:
 17486 0432 50756D70 		.ascii	"PumpTotalsDataRequest\000"
 17486      546F7461 
 17486      6C734461 
 17486      74615265 
 17486      71756573 
 17487              	.LASF358:
 17488 0448 50756D70 		.ascii	"PumpJobQueue\000"
 17488      4A6F6251 
 17488      75657565 
 17488      00
 17489              	.LASF247:
 17490 0455 5F50554D 		.ascii	"_PUMP_TRANS_HEALTH_\000"
 17490      505F5452 
ARM GAS  C:\Users\RECEPC~1\AppData\Local\Temp\ccQD6Oev.s 			page 360


 17490      414E535F 
 17490      4845414C 
 17490      54485F00 
 17491              	.LASF200:
 17492 0469 5F434F4D 		.ascii	"_COMMAND_ID_\000"
 17492      4D414E44 
 17492      5F49445F 
 17492      00
 17493              	.LASF471:
 17494 0476 5F74696D 		.ascii	"_timeouttoreceive\000"
 17494      656F7574 
 17494      746F7265 
 17494      63656976 
 17494      6500
 17495              	.LASF178:
 17496 0488 44495350 		.ascii	"DISPLAY_ABRIR_TURNO\000"
 17496      4C41595F 
 17496      41425249 
 17496      525F5455 
 17496      524E4F00 
 17497              	.LASF379:
 17498 049c 45455052 		.ascii	"EEPROM_CONFIGURATION_PAGE1\000"
 17498      4F4D5F43 
 17498      4F4E4649 
 17498      47555241 
 17498      54494F4E 
 17499              	.LASF458:
 17500 04b7 52465F49 		.ascii	"RF_IDLE\000"
 17500      444C4500 
 17501              	.LASF507:
 17502 04bf 50756D70 		.ascii	"PumpStateRequest\000"
 17502      53746174 
 17502      65526571 
 17502      75657374 
 17502      00
 17503              	.LASF165:
 17504 04d0 44495350 		.ascii	"DISPLAY_CONFIGURACIONES\000"
 17504      4C41595F 
 17504      434F4E46 
 17504      49475552 
 17504      4143494F 
 17505              	.LASF125:
 17506 04e8 5F6D6573 		.ascii	"_messagetx\000"
 17506      73616765 
 17506      747800
 17507              	.LASF325:
 17508 04f3 5F706F73 		.ascii	"_postconditions\000"
 17508      74636F6E 
 17508      64697469 
 17508      6F6E7300 
 17509              	.LASF496:
 17510 0503 64617461 		.ascii	"dataok\000"
 17510      6F6B00
 17511              	.LASF416:
 17512 050a 45455052 		.ascii	"EEPROM_DISPENSER_PUMP43_TRANSACTION_PAGE\000"
 17512      4F4D5F44 
 17512      49535045 
ARM GAS  C:\Users\RECEPC~1\AppData\Local\Temp\ccQD6Oev.s 			page 361


 17512      4E534552 
 17512      5F50554D 
 17513              	.LASF20:
 17514 0533 63686172 		.ascii	"char8\000"
 17514      3800
 17515              	.LASF95:
 17516 0539 544F4747 		.ascii	"TOGGLE_SCREEN_AND_WRITE_TEST\000"
 17516      4C455F53 
 17516      43524545 
 17516      4E5F414E 
 17516      445F5752 
 17517              	.LASF72:
 17518 0556 44495350 		.ascii	"DISPENSER_ACQUIRE_TOTALS\000"
 17518      454E5345 
 17518      525F4143 
 17518      51554952 
 17518      455F544F 
 17519              	.LASF59:
 17520 056f 53494E4B 		.ascii	"SINK_RELEASE_BY_PTR\000"
 17520      5F52454C 
 17520      45415345 
 17520      5F42595F 
 17520      50545200 
 17521              	.LASF298:
 17522 0583 5F747261 		.ascii	"_transqueue\000"
 17522      6E737175 
 17522      65756500 
 17523              	.LASF478:
 17524 058f 70726576 		.ascii	"prevstate\000"
 17524      73746174 
 17524      6500
 17525              	.LASF390:
 17526 0599 45455052 		.ascii	"EEPROM_DISPENSER_PUMP1_PRODUCT_NAMES_PAGE\000"
 17526      4F4D5F44 
 17526      49535045 
 17526      4E534552 
 17526      5F50554D 
 17527              	.LASF467:
 17528 05c3 52465F41 		.ascii	"RF_AUTONOMOUS\000"
 17528      55544F4E 
 17528      4F4D4F55 
 17528      5300
 17529              	.LASF326:
 17530 05d1 496E6974 		.ascii	"Initialization\000"
 17530      69616C69 
 17530      7A617469 
 17530      6F6E00
 17531              	.LASF454:
 17532 05e0 52465F4D 		.ascii	"RF_MUX_COPY_REQUEST\000"
 17532      55585F43 
 17532      4F50595F 
 17532      52455155 
 17532      45535400 
 17533              	.LASF268:
 17534 05f4 5F707265 		.ascii	"_presettype\000"
 17534      73657474 
 17534      79706500 
ARM GAS  C:\Users\RECEPC~1\AppData\Local\Temp\ccQD6Oev.s 			page 362


 17535              	.LASF574:
 17536 0600 5F675F70 		.ascii	"_g_pumpjobqueue\000"
 17536      756D706A 
 17536      6F627175 
 17536      65756500 
 17537              	.LASF409:
 17538 0610 45455052 		.ascii	"EEPROM_DISPENSER_PUMP24_TRANSACTION_PAGE\000"
 17538      4F4D5F44 
 17538      49535045 
 17538      4E534552 
 17538      5F50554D 
 17539              	.LASF77:
 17540 0639 5052494E 		.ascii	"PRINTER21_JOB\000"
 17540      54455232 
 17540      315F4A4F 
 17540      4200
 17541              	.LASF229:
 17542 0647 5F50554D 		.ascii	"_PUMP_FILL_CREDIT_\000"
 17542      505F4649 
 17542      4C4C5F43 
 17542      52454449 
 17542      545F00
 17543              	.LASF16:
 17544 065a 696E7438 		.ascii	"int8\000"
 17544      00
 17545              	.LASF451:
 17546 065f 52465F4D 		.ascii	"RF_MUX_ISLAND_OPER_DATA_RESPONSE\000"
 17546      55585F49 
 17546      534C414E 
 17546      445F4F50 
 17546      45525F44 
 17547              	.LASF469:
 17548 0680 5F746F61 		.ascii	"_toautonomoustimetoken\000"
 17548      75746F6E 
 17548      6F6D6F75 
 17548      7374696D 
 17548      65746F6B 
 17549              	.LASF237:
 17550 0697 5F50554D 		.ascii	"_PUMP_EOT_STARTUP_\000"
 17550      505F454F 
 17550      545F5354 
 17550      41525455 
 17550      505F00
 17551              	.LASF386:
 17552 06aa 45455052 		.ascii	"EEPROM_DISPENSER_PUMP1_LAYOUT_PAGE\000"
 17552      4F4D5F44 
 17552      49535045 
 17552      4E534552 
 17552      5F50554D 
 17553              	.LASF304:
 17554 06cd 50756D70 		.ascii	"PumpTransQueueDeallocate\000"
 17554      5472616E 
 17554      73517565 
 17554      75654465 
 17554      616C6C6F 
 17555              	.LASF207:
 17556 06e6 50554D50 		.ascii	"PUMP_REAL_TIME_MONEY_REQUEST\000"
ARM GAS  C:\Users\RECEPC~1\AppData\Local\Temp\ccQD6Oev.s 			page 363


 17556      5F524541 
 17556      4C5F5449 
 17556      4D455F4D 
 17556      4F4E4559 
 17557              	.LASF439:
 17558 0703 52465F4D 		.ascii	"RF_MUX_CREDIT_SALE_PRINT_RESPONSE\000"
 17558      55585F43 
 17558      52454449 
 17558      545F5341 
 17558      4C455F50 
 17559              	.LASF119:
 17560 0725 5F554152 		.ascii	"_UART_MESSAGE_STATE_\000"
 17560      545F4D45 
 17560      53534147 
 17560      455F5354 
 17560      4154455F 
 17561              	.LASF449:
 17562 073a 52465F4D 		.ascii	"RF_MUX_POSITION_CFG_RESPONSE\000"
 17562      55585F50 
 17562      4F534954 
 17562      494F4E5F 
 17562      4346475F 
 17563              	.LASF4:
 17564 0757 5F5F7569 		.ascii	"__uint8_t\000"
 17564      6E74385F 
 17564      7400
 17565              	.LASF412:
 17566 0761 45455052 		.ascii	"EEPROM_DISPENSER_PUMP33_TRANSACTION_PAGE\000"
 17566      4F4D5F44 
 17566      49535045 
 17566      4E534552 
 17566      5F50554D 
 17567              	.LASF522:
 17568 078a 50756D70 		.ascii	"PumpPpuChange\000"
 17568      50707543 
 17568      68616E67 
 17568      6500
 17569              	.LASF143:
 17570 0798 44495350 		.ascii	"DISPLAY_INTRODUZCA_VALOR2\000"
 17570      4C41595F 
 17570      494E5452 
 17570      4F44555A 
 17570      43415F56 
 17571              	.LASF185:
 17572 07b2 44495350 		.ascii	"DISPLAY_IDENTIFICADOR_ESTACION\000"
 17572      4C41595F 
 17572      4944454E 
 17572      54494649 
 17572      4341444F 
 17573              	.LASF87:
 17574 07d1 44495350 		.ascii	"DISPLAY1_ANIMATE_HOME\000"
 17574      4C415931 
 17574      5F414E49 
 17574      4D415445 
 17574      5F484F4D 
 17575              	.LASF47:
 17576 07e7 5F627566 		.ascii	"_buffer\000"
ARM GAS  C:\Users\RECEPC~1\AppData\Local\Temp\ccQD6Oev.s 			page 364


 17576      66657200 
 17577              	.LASF453:
 17578 07ef 52465F4D 		.ascii	"RF_MUX_ISLAND_ADMIN_RESPONSE\000"
 17578      55585F49 
 17578      534C414E 
 17578      445F4144 
 17578      4D494E5F 
 17579              	.LASF405:
 17580 080c 45455052 		.ascii	"EEPROM_DISPENSER_PUMP14_TRANSACTION_PAGE\000"
 17580      4F4D5F44 
 17580      49535045 
 17580      4E534552 
 17580      5F50554D 
 17581              	.LASF53:
 17582 0835 5F53494E 		.ascii	"_SINK_OBSERVABLES_\000"
 17582      4B5F4F42 
 17582      53455256 
 17582      41424C45 
 17582      535F00
 17583              	.LASF342:
 17584 0848 5F74696D 		.ascii	"_timeoutmultiplier\000"
 17584      656F7574 
 17584      6D756C74 
 17584      69706C69 
 17584      657200
 17585              	.LASF233:
 17586 085b 5F50554D 		.ascii	"_PUMP_TOTALS_\000"
 17586      505F544F 
 17586      54414C53 
 17586      5F00
 17587              	.LASF377:
 17588 0869 5F454550 		.ascii	"_EEPROM_MEM_FORMAT_\000"
 17588      524F4D5F 
 17588      4D454D5F 
 17588      464F524D 
 17588      41545F00 
 17589              	.LASF19:
 17590 087d 75696E74 		.ascii	"uint64\000"
 17590      363400
 17591              	.LASF6:
 17592 0884 6C6F6E67 		.ascii	"long int\000"
 17592      20696E74 
 17592      00
 17593              	.LASF287:
 17594 088d 5F726F75 		.ascii	"_roundrobinstate\000"
 17594      6E64726F 
 17594      62696E73 
 17594      74617465 
 17594      00
 17595              	.LASF278:
 17596 089e 5F70756D 		.ascii	"_pumpstate\000"
 17596      70737461 
 17596      746500
 17597              	.LASF136:
 17598 08a9 5F415641 		.ascii	"_AVAILABLE_DISPLAYS_\000"
 17598      494C4142 
 17598      4C455F44 
ARM GAS  C:\Users\RECEPC~1\AppData\Local\Temp\ccQD6Oev.s 			page 365


 17598      4953504C 
 17598      4159535F 
 17599              	.LASF63:
 17600 08be 44495350 		.ascii	"DISPENSER_EXECUTE_CASH_TRANSACTION\000"
 17600      454E5345 
 17600      525F4558 
 17600      45435554 
 17600      455F4341 
 17601              	.LASF45:
 17602 08e1 5F6D6573 		.ascii	"_messagetimeoutmultiplier\000"
 17602      73616765 
 17602      74696D65 
 17602      6F75746D 
 17602      756C7469 
 17603              	.LASF74:
 17604 08fb 44495350 		.ascii	"DISPENSER_PUMP_BEEP_WARNING\000"
 17604      454E5345 
 17604      525F5055 
 17604      4D505F42 
 17604      4545505F 
 17605              	.LASF513:
 17606 0917 50756D70 		.ascii	"PumpPresetHose\000"
 17606      50726573 
 17606      6574486F 
 17606      736500
 17607              	.LASF546:
 17608 0926 50756D70 		.ascii	"PumpEnumeratorRequest\000"
 17608      456E756D 
 17608      65726174 
 17608      6F725265 
 17608      71756573 
 17609              	.LASF69:
 17610 093c 44495350 		.ascii	"DISPENSER_CONFIGURE_PRICES\000"
 17610      454E5345 
 17610      525F434F 
 17610      4E464947 
 17610      5552455F 
 17611              	.LASF387:
 17612 0957 45455052 		.ascii	"EEPROM_DISPENSER_PUMP2_LAYOUT_PAGE\000"
 17612      4F4D5F44 
 17612      49535045 
 17612      4E534552 
 17612      5F50554D 
 17613              	.LASF394:
 17614 097a 45455052 		.ascii	"EEPROM_DISPENSER_PUMP1_PPU_INFO_PAGE\000"
 17614      4F4D5F44 
 17614      49535045 
 17614      4E534552 
 17614      5F50554D 
 17615              	.LASF466:
 17616 099f 5F52465F 		.ascii	"_RF_AUTONOMOUS_MODE_\000"
 17616      4155544F 
 17616      4E4F4D4F 
 17616      55535F4D 
 17616      4F44455F 
 17617              	.LASF133:
 17618 09b4 55415254 		.ascii	"UART_DISPLAY1\000"
ARM GAS  C:\Users\RECEPC~1\AppData\Local\Temp\ccQD6Oev.s 			page 366


 17618      5F444953 
 17618      504C4159 
 17618      3100
 17619              	.LASF134:
 17620 09c2 55415254 		.ascii	"UART_DISPLAY2\000"
 17620      5F444953 
 17620      504C4159 
 17620      3200
 17621              	.LASF238:
 17622 09d0 5F50554D 		.ascii	"_PUMP_NETWORK_ENUMERATOR_\000"
 17622      505F4E45 
 17622      54574F52 
 17622      4B5F454E 
 17622      554D4552 
 17623              	.LASF351:
 17624 09ea 5F706A6F 		.ascii	"_pjobqueueallocated\000"
 17624      62717565 
 17624      7565616C 
 17624      6C6F6361 
 17624      74656400 
 17625              	.LASF163:
 17626 09fe 44495350 		.ascii	"DISPLAY_INTRODUZCA_KILOMETRAJE\000"
 17626      4C41595F 
 17626      494E5452 
 17626      4F44555A 
 17626      43415F4B 
 17627              	.LASF425:
 17628 0a1d 52465F4D 		.ascii	"RF_MUX_CREDIT_PRESET_NOTIFICATION_RESPONSE\000"
 17628      55585F43 
 17628      52454449 
 17628      545F5052 
 17628      45534554 
 17629              	.LASF90:
 17630 0a48 44495350 		.ascii	"DISPLAY2_UPDATE_DATETIME\000"
 17630      4C415932 
 17630      5F555044 
 17630      4154455F 
 17630      44415445 
 17631              	.LASF245:
 17632 0a61 5F50554D 		.ascii	"_PUMP_IDLE_\000"
 17632      505F4944 
 17632      4C455F00 
 17633              	.LASF64:
 17634 0a6d 44495350 		.ascii	"DISPENSER_EXECUTE_CREDIT_TRANSACTION\000"
 17634      454E5345 
 17634      525F4558 
 17634      45435554 
 17634      455F4352 
 17635              	.LASF80:
 17636 0a92 5052494E 		.ascii	"PRINTER2_GENERIC_JOB\000"
 17636      54455232 
 17636      5F47454E 
 17636      45524943 
 17636      5F4A4F42 
 17637              	.LASF171:
 17638 0aa7 44495350 		.ascii	"DISPLAY_POR_FAVOR_ESPERE\000"
 17638      4C41595F 
ARM GAS  C:\Users\RECEPC~1\AppData\Local\Temp\ccQD6Oev.s 			page 367


 17638      504F525F 
 17638      4641564F 
 17638      525F4553 
 17639              	.LASF418:
 17640 0ac0 52465F4D 		.ascii	"RF_MUX_STATE_REQUEST\000"
 17640      55585F53 
 17640      54415445 
 17640      5F524551 
 17640      55455354 
 17641              	.LASF424:
 17642 0ad5 52465F4D 		.ascii	"RF_MUX_CREDIT_PRESET_NOTIFICATION_REQUEST\000"
 17642      55585F43 
 17642      52454449 
 17642      545F5052 
 17642      45534554 
 17643              	.LASF176:
 17644 0aff 44495350 		.ascii	"DISPLAY_FECHA\000"
 17644      4C41595F 
 17644      46454348 
 17644      4100
 17645              	.LASF333:
 17646 0b0d 5F726565 		.ascii	"_reenqueue\000"
 17646      6E717565 
 17646      756500
 17647              	.LASF521:
 17648 0b18 50756D70 		.ascii	"PumpFullPresetNoHose\000"
 17648      46756C6C 
 17648      50726573 
 17648      65744E6F 
 17648      486F7365 
 17649              	.LASF328:
 17650 0b2d 50756D70 		.ascii	"PumpTransactionJob\000"
 17650      5472616E 
 17650      73616374 
 17650      696F6E4A 
 17650      6F6200
 17651              	.LASF0:
 17652 0b40 7369676E 		.ascii	"signed char\000"
 17652      65642063 
 17652      68617200 
 17653              	.LASF25:
 17654 0b4c 504E4541 		.ascii	"PNEAR_BYTE_PTR\000"
 17654      525F4259 
 17654      54455F50 
 17654      545200
 17655              	.LASF11:
 17656 0b5b 75696E74 		.ascii	"uint8_t\000"
 17656      385F7400 
 17657              	.LASF506:
 17658 0b63 50756D70 		.ascii	"PumpStartupAuthorization\000"
 17658      53746172 
 17658      74757041 
 17658      7574686F 
 17658      72697A61 
 17659              	.LASF157:
 17660 0b7c 44495350 		.ascii	"DISPLAY_ID_DIGITAL\000"
 17660      4C41595F 
ARM GAS  C:\Users\RECEPC~1\AppData\Local\Temp\ccQD6Oev.s 			page 368


 17660      49445F44 
 17660      49474954 
 17660      414C00
 17661              	.LASF155:
 17662 0b8f 44495350 		.ascii	"DISPLAY_TIEMPO_EXPIRADO\000"
 17662      4C41595F 
 17662      5449454D 
 17662      504F5F45 
 17662      58504952 
 17663              	.LASF560:
 17664 0ba7 5F706275 		.ascii	"_pbuffer\000"
 17664      66666572 
 17664      00
 17665              	.LASF110:
 17666 0bb0 436C6561 		.ascii	"ClearRxBuffer\000"
 17666      72527842 
 17666      75666665 
 17666      7200
 17667              	.LASF107:
 17668 0bbe 47657443 		.ascii	"GetChar\000"
 17668      68617200 
 17669              	.LASF419:
 17670 0bc6 52465F4D 		.ascii	"RF_MUX_STATE_RESPONSE\000"
 17670      55585F53 
 17670      54415445 
 17670      5F524553 
 17670      504F4E53 
 17671              	.LASF315:
 17672 0bdc 52657370 		.ascii	"Response\000"
 17672      6F6E7365 
 17672      00
 17673              	.LASF404:
 17674 0be5 45455052 		.ascii	"EEPROM_DISPENSER_PUMP13_TRANSACTION_PAGE\000"
 17674      4F4D5F44 
 17674      49535045 
 17674      4E534552 
 17674      5F50554D 
 17675              	.LASF181:
 17676 0c0e 44495350 		.ascii	"DISPLAY_USUARIO_VALIDO\000"
 17676      4C41595F 
 17676      55535541 
 17676      52494F5F 
 17676      56414C49 
 17677              	.LASF179:
 17678 0c25 44495350 		.ascii	"DISPLAY_CERRAR_TURNO\000"
 17678      4C41595F 
 17678      43455252 
 17678      41525F54 
 17678      55524E4F 
 17679              	.LASF344:
 17680 0c3a 5F707265 		.ascii	"_presponse\000"
 17680      73706F6E 
 17680      736500
 17681              	.LASF531:
 17682 0c45 50756D70 		.ascii	"PumpHoseActiveState\000"
 17682      486F7365 
 17682      41637469 
ARM GAS  C:\Users\RECEPC~1\AppData\Local\Temp\ccQD6Oev.s 			page 369


 17682      76655374 
 17682      61746500 
 17683              	.LASF168:
 17684 0c59 44495350 		.ascii	"DISPLAY_SELECCIONE_POSICION\000"
 17684      4C41595F 
 17684      53454C45 
 17684      4343494F 
 17684      4E455F50 
 17685              	.LASF122:
 17686 0c75 50454E44 		.ascii	"PENDING\000"
 17686      494E4700 
 17687              	.LASF86:
 17688 0c7d 44495350 		.ascii	"DISPLAY1_UPDATE_DATETIME\000"
 17688      4C415931 
 17688      5F555044 
 17688      4154455F 
 17688      44415445 
 17689              	.LASF373:
 17690 0c96 5F707265 		.ascii	"_presetdigits\000"
 17690      73657464 
 17690      69676974 
 17690      7300
 17691              	.LASF213:
 17692 0ca4 4C52436E 		.ascii	"LRCn\000"
 17692      00
 17693              	.LASF1:
 17694 0ca9 756E7369 		.ascii	"unsigned char\000"
 17694      676E6564 
 17694      20636861 
 17694      7200
 17695              	.LASF361:
 17696 0cb7 5F6E756D 		.ascii	"_numpositions\000"
 17696      706F7369 
 17696      74696F6E 
 17696      7300
 17697              	.LASF488:
 17698 0cc5 686F7365 		.ascii	"hosecount\000"
 17698      636F756E 
 17698      7400
 17699              	.LASF142:
 17700 0ccf 44495350 		.ascii	"DISPLAY_INTRODUZCA_VALOR\000"
 17700      4C41595F 
 17700      494E5452 
 17700      4F44555A 
 17700      43415F56 
 17701              	.LASF426:
 17702 0ce8 52465F4D 		.ascii	"RF_MUX_CASH_SALE_START_REQUEST\000"
 17702      55585F43 
 17702      4153485F 
 17702      53414C45 
 17702      5F535441 
 17703              	.LASF557:
 17704 0d07 706A6F62 		.ascii	"pjobcntr\000"
 17704      636E7472 
 17704      00
 17705              	.LASF273:
 17706 0d10 5F736572 		.ascii	"_serial\000"
ARM GAS  C:\Users\RECEPC~1\AppData\Local\Temp\ccQD6Oev.s 			page 370


 17706      69616C00 
 17707              	.LASF170:
 17708 0d18 44495350 		.ascii	"DISPLAY_ESPERANDO_AUTORIZACION\000"
 17708      4C41595F 
 17708      45535045 
 17708      52414E44 
 17708      4F5F4155 
 17709              	.LASF550:
 17710 0d37 50756D70 		.ascii	"PumpEnumeratorTimeout\000"
 17710      456E756D 
 17710      65726174 
 17710      6F725469 
 17710      6D656F75 
 17711              	.LASF505:
 17712 0d4d 70756172 		.ascii	"puartdisp\000"
 17712      74646973 
 17712      7000
 17713              	.LASF120:
 17714 0d57 46524545 		.ascii	"FREE\000"
 17714      00
 17715              	.LASF462:
 17716 0d5c 52465F57 		.ascii	"RF_WORKSHIFTREQ\000"
 17716      4F524B53 
 17716      48494654 
 17716      52455100 
 17717              	.LASF332:
 17718 0d6c 50756D70 		.ascii	"PumpTransaction\000"
 17718      5472616E 
 17718      73616374 
 17718      696F6E00 
 17719              	.LASF486:
 17720 0d7c 65657072 		.ascii	"eeprompage\000"
 17720      6F6D7061 
 17720      676500
 17721              	.LASF68:
 17722 0d87 44495350 		.ascii	"DISPENSER_ACQUIRE_CONFIGURATION_INFORMATION\000"
 17722      454E5345 
 17722      525F4143 
 17722      51554952 
 17722      455F434F 
 17723              	.LASF43:
 17724 0db3 5F6D6573 		.ascii	"_messagedelay\000"
 17724      73616765 
 17724      64656C61 
 17724      7900
 17725              	.LASF368:
 17726 0dc1 5F766F6C 		.ascii	"_volumedecimals\000"
 17726      756D6564 
 17726      6563696D 
 17726      616C7300 
 17727              	.LASF51:
 17728 0dd1 5F426F6F 		.ascii	"_Bool\000"
 17728      6C00
 17729              	.LASF363:
 17730 0dd7 5F686F73 		.ascii	"_hosesposition2\000"
 17730      6573706F 
 17730      73697469 
ARM GAS  C:\Users\RECEPC~1\AppData\Local\Temp\ccQD6Oev.s 			page 371


 17730      6F6E3200 
 17731              	.LASF272:
 17732 0de7 5F766F6C 		.ascii	"_volumeamount\000"
 17732      756D6561 
 17732      6D6F756E 
 17732      7400
 17733              	.LASF565:
 17734 0df5 43617374 		.ascii	"CastVolumeValue\000"
 17734      566F6C75 
 17734      6D655661 
 17734      6C756500 
 17735              	.LASF111:
 17736 0e05 57726974 		.ascii	"WriteTxData\000"
 17736      65547844 
 17736      61746100 
 17737              	.LASF37:
 17738 0e11 53494E4B 		.ascii	"SINK_ALLOCATED\000"
 17738      5F414C4C 
 17738      4F434154 
 17738      454400
 17739              	.LASF355:
 17740 0e20 5065656B 		.ascii	"Peek\000"
 17740      00
 17741              	.LASF306:
 17742 0e25 50756D70 		.ascii	"PumpTransQueueDequeue\000"
 17742      5472616E 
 17742      73517565 
 17742      75654465 
 17742      71756575 
 17743              	.LASF21:
 17744 0e3b 63686172 		.ascii	"char\000"
 17744      00
 17745              	.LASF445:
 17746 0e40 52465F4D 		.ascii	"RF_MUX_LAST_CASH_SALE_RESPONSE\000"
 17746      55585F4C 
 17746      4153545F 
 17746      43415348 
 17746      5F53414C 
 17747              	.LASF438:
 17748 0e5f 52465F4D 		.ascii	"RF_MUX_CREDIT_SALE_PRINT_REQUEST\000"
 17748      55585F43 
 17748      52454449 
 17748      545F5341 
 17748      4C455F50 
 17749              	.LASF183:
 17750 0e80 44495350 		.ascii	"DISPLAY_AMBAS_IMPRESORAS_FUNCIONANDO\000"
 17750      4C41595F 
 17750      414D4241 
 17750      535F494D 
 17750      50524553 
 17751              	.LASF32:
 17752 0ea5 42524F41 		.ascii	"BROADCASTFOREVER\000"
 17752      44434153 
 17752      54464F52 
 17752      45564552 
 17752      00
 17753              	.LASF89:
ARM GAS  C:\Users\RECEPC~1\AppData\Local\Temp\ccQD6Oev.s 			page 372


 17754 0eb6 44495350 		.ascii	"DISPLAY2_MESSAGE\000"
 17754      4C415932 
 17754      5F4D4553 
 17754      53414745 
 17754      00
 17755              	.LASF212:
 17756 0ec7 5052446E 		.ascii	"PRDn\000"
 17756      00
 17757              	.LASF512:
 17758 0ecc 50756D70 		.ascii	"PumpDataToPump\000"
 17758      44617461 
 17758      546F5075 
 17758      6D7000
 17759              	.LASF322:
 17760 0edb 5F6F6E65 		.ascii	"_oneshotpreconditions\000"
 17760      73686F74 
 17760      70726563 
 17760      6F6E6469 
 17760      74696F6E 
 17761              	.LASF131:
 17762 0ef1 55415254 		.ascii	"UART_PRINTER\000"
 17762      5F505249 
 17762      4E544552 
 17762      00
 17763              	.LASF391:
 17764 0efe 45455052 		.ascii	"EEPROM_DISPENSER_PUMP2_PRODUCT_NAMES_PAGE\000"
 17764      4F4D5F44 
 17764      49535045 
 17764      4E534552 
 17764      5F50554D 
 17765              	.LASF366:
 17766 0f28 5F6D6F6E 		.ascii	"_moneydecimals\000"
 17766      65796465 
 17766      63696D61 
 17766      6C7300
 17767              	.LASF106:
 17768 0f37 52656164 		.ascii	"ReadRxStatus\000"
 17768      52785374 
 17768      61747573 
 17768      00
 17769              	.LASF195:
 17770 0f44 50535452 		.ascii	"PSTR\000"
 17770      00
 17771              	.LASF370:
 17772 0f49 5F6D696E 		.ascii	"_minmoneyvalue\000"
 17772      6D6F6E65 
 17772      7976616C 
 17772      756500
 17773              	.LASF548:
 17774 0f58 76617230 		.ascii	"var0\000"
 17774      00
 17775              	.LASF288:
 17776 0f5d 5F706F73 		.ascii	"_positionlocked\000"
 17776      6974696F 
 17776      6E6C6F63 
 17776      6B656400 
 17777              	.LASF345:
ARM GAS  C:\Users\RECEPC~1\AppData\Local\Temp\ccQD6Oev.s 			page 373


 17778 0f6d 5F707075 		.ascii	"_ppump\000"
 17778      6D7000
 17779              	.LASF243:
 17780 0f74 5F50554D 		.ascii	"_PUMP_TRANS_STATE_\000"
 17780      505F5452 
 17780      414E535F 
 17780      53544154 
 17780      455F00
 17781              	.LASF408:
 17782 0f87 45455052 		.ascii	"EEPROM_DISPENSER_PUMP23_TRANSACTION_PAGE\000"
 17782      4F4D5F44 
 17782      49535045 
 17782      4E534552 
 17782      5F50554D 
 17783              	.LASF549:
 17784 0fb0 76617231 		.ascii	"var1\000"
 17784      00
 17785              	.LASF116:
 17786 0fb5 50757443 		.ascii	"PutCRLF\000"
 17786      524C4600 
 17787              	.LASF541:
 17788 0fbd 70627566 		.ascii	"pbuffer\000"
 17788      66657200 
 17789              	.LASF518:
 17790 0fc5 50756D70 		.ascii	"PumpPresetNotification\000"
 17790      50726573 
 17790      65744E6F 
 17790      74696669 
 17790      63617469 
 17791              	.LASF299:
 17792 0fdc 5F747261 		.ascii	"_transqueuelocked\000"
 17792      6E737175 
 17792      6575656C 
 17792      6F636B65 
 17792      6400
 17793              	.LASF269:
 17794 0fee 5F686F73 		.ascii	"_hoseid\000"
 17794      65696400 
 17795              	.LASF206:
 17796 0ff6 50554D50 		.ascii	"PUMP_TOTALS_DATA_REQUEST\000"
 17796      5F544F54 
 17796      414C535F 
 17796      44415441 
 17796      5F524551 
 17797              	.LASF219:
 17798 100f 50554D50 		.ascii	"PUMP_BUSY\000"
 17798      5F425553 
 17798      5900
 17799              	.LASF148:
 17800 1019 44495350 		.ascii	"DISPLAY_BAJE_MANIJA\000"
 17800      4C41595F 
 17800      42414A45 
 17800      5F4D414E 
 17800      494A4100 
 17801              	.LASF482:
 17802 102d 50726F63 		.ascii	"ProcessPumpRTMoneyRequest\000"
 17802      65737350 
ARM GAS  C:\Users\RECEPC~1\AppData\Local\Temp\ccQD6Oev.s 			page 374


 17802      756D7052 
 17802      544D6F6E 
 17802      65795265 
 17803              	.LASF76:
 17804 1047 5052494E 		.ascii	"PRINTER12_JOB\000"
 17804      54455231 
 17804      325F4A4F 
 17804      4200
 17805              	.LASF389:
 17806 1055 45455052 		.ascii	"EEPROM_DISPENSER_PUMP4_LAYOUT_PAGE\000"
 17806      4F4D5F44 
 17806      49535045 
 17806      4E534552 
 17806      5F50554D 
 17807              	.LASF225:
 17808 1078 5F545241 		.ascii	"_TRANSACTION_NAMES_\000"
 17808      4E534143 
 17808      54494F4E 
 17808      5F4E414D 
 17808      45535F00 
 17809              	.LASF44:
 17810 108c 5F6D6573 		.ascii	"_messagetimeout\000"
 17810      73616765 
 17810      74696D65 
 17810      6F757400 
 17811              	.LASF422:
 17812 109c 52465F4D 		.ascii	"RF_MUX_CREDIT_PRESET_AUTHORIZATION_REQUEST\000"
 17812      55585F43 
 17812      52454449 
 17812      545F5052 
 17812      45534554 
 17813              	.LASF480:
 17814 10c7 41637175 		.ascii	"AcquireDatatoPumpResponse\000"
 17814      69726544 
 17814      61746174 
 17814      6F50756D 
 17814      70526573 
 17815              	.LASF141:
 17816 10e1 44495350 		.ascii	"DISPLAY_FORMA_PROGRAMACION\000"
 17816      4C41595F 
 17816      464F524D 
 17816      415F5052 
 17816      4F475241 
 17817              	.LASF114:
 17818 10fc 50757453 		.ascii	"PutString\000"
 17818      7472696E 
 17818      6700
 17819              	.LASF242:
 17820 1106 5F50554D 		.ascii	"_PUMP_COMPLETE_CONFIGURATION_\000"
 17820      505F434F 
 17820      4D504C45 
 17820      54455F43 
 17820      4F4E4649 
 17821              	.LASF357:
 17822 1124 436C6561 		.ascii	"Clear\000"
 17822      7200
 17823              	.LASF567:
ARM GAS  C:\Users\RECEPC~1\AppData\Local\Temp\ccQD6Oev.s 			page 375


 17824 112a 73686966 		.ascii	"shiftbydelimiter\000"
 17824      74627964 
 17824      656C696D 
 17824      69746572 
 17824      00
 17825              	.LASF100:
 17826 113b 43757374 		.ascii	"CustomUARTSend\000"
 17826      6F6D5541 
 17826      52545365 
 17826      6E6400
 17827              	.LASF503:
 17828 114a 50756D70 		.ascii	"PumpAuthorization\000"
 17828      41757468 
 17828      6F72697A 
 17828      6174696F 
 17828      6E00
 17829              	.LASF432:
 17830 115c 52465F4D 		.ascii	"RF_MUX_TOTALS_REPORT_REQUEST\000"
 17830      55585F54 
 17830      4F54414C 
 17830      535F5245 
 17830      504F5254 
 17831              	.LASF367:
 17832 1179 5F707075 		.ascii	"_ppudecimals\000"
 17832      64656369 
 17832      6D616C73 
 17832      00
 17833              	.LASF276:
 17834 1186 5F70756D 		.ascii	"_pumpid\000"
 17834      70696400 
 17835              	.LASF539:
 17836 118e 41637175 		.ascii	"AcquireDispenserLayoutInformation\000"
 17836      69726544 
 17836      69737065 
 17836      6E736572 
 17836      4C61796F 
 17837              	.LASF137:
 17838 11b0 44495350 		.ascii	"DISPLAY_INICIO0\000"
 17838      4C41595F 
 17838      494E4943 
 17838      494F3000 
 17839              	.LASF138:
 17840 11c0 44495350 		.ascii	"DISPLAY_INICIO1\000"
 17840      4C41595F 
 17840      494E4943 
 17840      494F3100 
 17841              	.LASF139:
 17842 11d0 44495350 		.ascii	"DISPLAY_INICIO2\000"
 17842      4C41595F 
 17842      494E4943 
 17842      494F3200 
 17843              	.LASF30:
 17844 11e0 44454C41 		.ascii	"DELAYEDALLINTERESTED\000"
 17844      59454441 
 17844      4C4C494E 
 17844      54455245 
 17844      53544544 
ARM GAS  C:\Users\RECEPC~1\AppData\Local\Temp\ccQD6Oev.s 			page 376


 17845              	.LASF296:
 17846 11f5 5F727862 		.ascii	"_rxbuffer\000"
 17846      75666665 
 17846      7200
 17847              	.LASF320:
 17848 11ff 5F726573 		.ascii	"_responsesize\000"
 17848      706F6E73 
 17848      6573697A 
 17848      6500
 17849              	.LASF352:
 17850 120d 526F7461 		.ascii	"Rotate\000"
 17850      746500
 17851              	.LASF253:
 17852 1214 504E4541 		.ascii	"PNEAR_PUMPTRANSACTIONALSTATEPTR\000"
 17852      525F5055 
 17852      4D505452 
 17852      414E5341 
 17852      4354494F 
 17853              	.LASF182:
 17854 1234 44495350 		.ascii	"DISPLAY_USUARIO_INVALIDO\000"
 17854      4C41595F 
 17854      55535541 
 17854      52494F5F 
 17854      494E5641 
 17855              	.LASF468:
 17856 124d 52465F4E 		.ascii	"RF_NON_AUTONOMOUS\000"
 17856      4F4E5F41 
 17856      55544F4E 
 17856      4F4D4F55 
 17856      5300
 17857              	.LASF556:
 17858 125f 7074726A 		.ascii	"ptrjob\000"
 17858      6F6200
 17859              	.LASF397:
 17860 1266 45455052 		.ascii	"EEPROM_DISPENSER_PUMP4_PPU_INFO_PAGE\000"
 17860      4F4D5F44 
 17860      49535045 
 17860      4E534552 
 17860      5F50554D 
 17861              	.LASF81:
 17862 128b 5052494E 		.ascii	"PRINTER1_GENERIC_JOB_LOGO\000"
 17862      54455231 
 17862      5F47454E 
 17862      45524943 
 17862      5F4A4F42 
 17863              	.LASF295:
 17864 12a5 5F747261 		.ascii	"_trasactionbuffer\000"
 17864      73616374 
 17864      696F6E62 
 17864      75666665 
 17864      7200
 17865              	.LASF561:
 17866 12b7 46696E64 		.ascii	"FindLRC\000"
 17866      4C524300 
 17867              	.LASF484:
 17868 12bf 50726F63 		.ascii	"ProcessPumpRTHoseVolumeRequestGlobal\000"
 17868      65737350 
ARM GAS  C:\Users\RECEPC~1\AppData\Local\Temp\ccQD6Oev.s 			page 377


 17868      756D7052 
 17868      54486F73 
 17868      65566F6C 
 17869              	.LASF575:
 17870 12e4 5F675F70 		.ascii	"_g_pumps\000"
 17870      756D7073 
 17870      00
 17871              	.LASF354:
 17872 12ed 456E7175 		.ascii	"Enqueue\000"
 17872      65756500 
 17873              	.LASF533:
 17874 12f5 7073696E 		.ascii	"psinkmsg\000"
 17874      6B6D7367 
 17874      00
 17875              	.LASF490:
 17876 12fe 50726F63 		.ascii	"ProcessPumpTotalsDataEnd\000"
 17876      65737350 
 17876      756D7054 
 17876      6F74616C 
 17876      73446174 
 17877              	.LASF274:
 17878 1317 50756D70 		.ascii	"PumpAuthorizationInfo\000"
 17878      41757468 
 17878      6F72697A 
 17878      6174696F 
 17878      6E496E66 
 17879              	.LASF398:
 17880 132d 45455052 		.ascii	"EEPROM_INSEPET_RESERVED_PAGE1\000"
 17880      4F4D5F49 
 17880      4E534550 
 17880      45545F52 
 17880      45534552 
 17881              	.LASF399:
 17882 134b 45455052 		.ascii	"EEPROM_INSEPET_RESERVED_PAGE2\000"
 17882      4F4D5F49 
 17882      4E534550 
 17882      45545F52 
 17882      45534552 
 17883              	.LASF400:
 17884 1369 45455052 		.ascii	"EEPROM_INSEPET_RESERVED_PAGE3\000"
 17884      4F4D5F49 
 17884      4E534550 
 17884      45545F52 
 17884      45534552 
 17885              	.LASF401:
 17886 1387 45455052 		.ascii	"EEPROM_INSEPET_RESERVED_PAGE4\000"
 17886      4F4D5F49 
 17886      4E534550 
 17886      45545F52 
 17886      45534552 
 17887              	.LASF292:
 17888 13a5 5F727476 		.ascii	"_rtvolumeamount\000"
 17888      6F6C756D 
 17888      65616D6F 
 17888      756E7400 
 17889              	.LASF335:
 17890 13b5 5F64656C 		.ascii	"_delay\000"
ARM GAS  C:\Users\RECEPC~1\AppData\Local\Temp\ccQD6Oev.s 			page 378


 17890      617900
 17891              	.LASF393:
 17892 13bc 45455052 		.ascii	"EEPROM_DISPENSER_PUMP4_PRODUCT_NAMES_PAGE\000"
 17892      4F4D5F44 
 17892      49535045 
 17892      4E534552 
 17892      5F50554D 
 17893              	.LASF442:
 17894 13e6 52465F4D 		.ascii	"RF_MUX_PENDING_CREDIT_SALE_REQUEST\000"
 17894      55585F50 
 17894      454E4449 
 17894      4E475F43 
 17894      52454449 
 17895              	.LASF568:
 17896 1409 73686966 		.ascii	"shiftcount\000"
 17896      74636F75 
 17896      6E7400
 17897              	.LASF33:
 17898 1414 414C4C49 		.ascii	"ALLINTERESTEDFOREVER\000"
 17898      4E544552 
 17898      45535445 
 17898      44464F52 
 17898      45564552 
 17899              	.LASF551:
 17900 1429 41637175 		.ascii	"AcquirePumpSpecialFunctionResponseResolver\000"
 17900      69726550 
 17900      756D7053 
 17900      70656369 
 17900      616C4675 
 17901              	.LASF359:
 17902 1454 5F696E63 		.ascii	"_inconfiguration\000"
 17902      6F6E6669 
 17902      67757261 
 17902      74696F6E 
 17902      00
 17903              	.LASF234:
 17904 1465 5F50554D 		.ascii	"_PUMP_STATE_\000"
 17904      505F5354 
 17904      4154455F 
 17904      00
 17905              	.LASF562:
 17906 1472 496E6974 		.ascii	"InitiateTransaction\000"
 17906      69617465 
 17906      5472616E 
 17906      73616374 
 17906      696F6E00 
 17907              	.LASF7:
 17908 1486 6C6F6E67 		.ascii	"long unsigned int\000"
 17908      20756E73 
 17908      69676E65 
 17908      6420696E 
 17908      7400
 17909              	.LASF239:
 17910 1498 5F50554D 		.ascii	"_PUMP_PROGRAM_MODE_\000"
 17910      505F5052 
 17910      4F475241 
 17910      4D5F4D4F 
ARM GAS  C:\Users\RECEPC~1\AppData\Local\Temp\ccQD6Oev.s 			page 379


 17910      44455F00 
 17911              	.LASF187:
 17912 14ac 44495350 		.ascii	"DISPLAY_DUMMY0\000"
 17912      4C41595F 
 17912      44554D4D 
 17912      593000
 17913              	.LASF188:
 17914 14bb 44495350 		.ascii	"DISPLAY_DUMMY1\000"
 17914      4C41595F 
 17914      44554D4D 
 17914      593100
 17915              	.LASF189:
 17916 14ca 44495350 		.ascii	"DISPLAY_DUMMY2\000"
 17916      4C41595F 
 17916      44554D4D 
 17916      593200
 17917              	.LASF190:
 17918 14d9 44495350 		.ascii	"DISPLAY_DUMMY3\000"
 17918      4C41595F 
 17918      44554D4D 
 17918      593300
 17919              	.LASF246:
 17920 14e8 5F50554D 		.ascii	"_PUMP_UNKNOWN_\000"
 17920      505F554E 
 17920      4B4E4F57 
 17920      4E5F00
 17921              	.LASF527:
 17922 14f7 50756D70 		.ascii	"PumpStopAllRequest\000"
 17922      53746F70 
 17922      416C6C52 
 17922      65717565 
 17922      737400
 17923              	.LASF167:
 17924 150a 44495350 		.ascii	"DISPLAY_IMPRIMIENDO_RECIBO\000"
 17924      4C41595F 
 17924      494D5052 
 17924      494D4945 
 17924      4E444F5F 
 17925              	.LASF479:
 17926 1525 41637175 		.ascii	"AcquirePumpStateResponse\000"
 17926      69726550 
 17926      756D7053 
 17926      74617465 
 17926      52657370 
 17927              	.LASF429:
 17928 153e 52465F4D 		.ascii	"RF_MUX_CASH_SALE_END_REPORT_RESPONSE\000"
 17928      55585F43 
 17928      4153485F 
 17928      53414C45 
 17928      5F454E44 
 17929              	.LASF430:
 17930 1563 52465F4D 		.ascii	"RF_MUX_TOTALS_REQUEST\000"
 17930      55585F54 
 17930      4F54414C 
 17930      535F5245 
 17930      51554553 
 17931              	.LASF49:
ARM GAS  C:\Users\RECEPC~1\AppData\Local\Temp\ccQD6Oev.s 			page 380


 17932 1579 5F706461 		.ascii	"_pdata\000"
 17932      746100
 17933              	.LASF563:
 17934 1580 5465726D 		.ascii	"TerminateTransaction\000"
 17934      696E6174 
 17934      65547261 
 17934      6E736163 
 17934      74696F6E 
 17935              	.LASF198:
 17936 1595 5F504F49 		.ascii	"_POINT_AS_DECIMAL_SEPARATOR_\000"
 17936      4E545F41 
 17936      535F4445 
 17936      43494D41 
 17936      4C5F5345 
 17937              	.LASF284:
 17938 15b2 5F726573 		.ascii	"_restoreprice\000"
 17938      746F7265 
 17938      70726963 
 17938      6500
 17939              	.LASF327:
 17940 15c0 46696E61 		.ascii	"Finalization\000"
 17940      6C697A61 
 17940      74696F6E 
 17940      00
 17941              	.LASF50:
 17942 15cd 43616C6C 		.ascii	"Callback\000"
 17942      6261636B 
 17942      00
 17943              	.LASF62:
 17944 15d6 44495350 		.ascii	"DISPENSER_ACQUIRE_PUMP_HOSE\000"
 17944      454E5345 
 17944      525F4143 
 17944      51554952 
 17944      455F5055 
 17945              	.LASF499:
 17946 15f2 70747374 		.ascii	"ptstemp\000"
 17946      656D7000 
 17947              	.LASF547:
 17948 15fa 41637175 		.ascii	"AcquirePumpEnumeratorResponse\000"
 17948      69726550 
 17948      756D7045 
 17948      6E756D65 
 17948      7261746F 
 17949              	.LASF343:
 17950 1618 5F707265 		.ascii	"_prequest\000"
 17950      71756573 
 17950      7400
 17951              	.LASF470:
 17952 1622 5F74696D 		.ascii	"_timeouttoautonomous\000"
 17952      656F7574 
 17952      746F6175 
 17952      746F6E6F 
 17952      6D6F7573 
 17953              	.LASF554:
 17954 1637 5072696D 		.ascii	"PrimeActivateProgramming\000"
 17954      65416374 
 17954      69766174 
ARM GAS  C:\Users\RECEPC~1\AppData\Local\Temp\ccQD6Oev.s 			page 381


 17954      6550726F 
 17954      6772616D 
 17955              	.LASF456:
 17956 1650 52465F4D 		.ascii	"RF_MUX_NULL\000"
 17956      55585F4E 
 17956      554C4C00 
 17957              	.LASF132:
 17958 165c 55415254 		.ascii	"UART_DISPENSER\000"
 17958      5F444953 
 17958      50454E53 
 17958      455200
 17959              	.LASF160:
 17960 166b 44495350 		.ascii	"DISPLAY_ID_RECONOCIDO\000"
 17960      4C41595F 
 17960      49445F52 
 17960      45434F4E 
 17960      4F434944 
 17961              	.LASF341:
 17962 1681 5F74696D 		.ascii	"_timeoutseed\000"
 17962      656F7574 
 17962      73656564 
 17962      00
 17963              	.LASF543:
 17964 168e 72657476 		.ascii	"retval\000"
 17964      616C00
 17965              	.LASF415:
 17966 1695 45455052 		.ascii	"EEPROM_DISPENSER_PUMP42_TRANSACTION_PAGE\000"
 17966      4F4D5F44 
 17966      49535045 
 17966      4E534552 
 17966      5F50554D 
 17967              	.LASF275:
 17968 16be 5F50554D 		.ascii	"_PUMP_LAYOUT_\000"
 17968      505F4C41 
 17968      594F5554 
 17968      5F00
 17969              	.LASF553:
 17970 16cc 41637175 		.ascii	"AcquirePpuChangeResponse\000"
 17970      69726550 
 17970      70754368 
 17970      616E6765 
 17970      52657370 
 17971              	.LASF515:
 17972 16e5 62756666 		.ascii	"buffndx\000"
 17972      6E647800 
 17973              	.LASF96:
 17974 16ed 57415443 		.ascii	"WATCHDOG_STARTUP\000"
 17974      48444F47 
 17974      5F535441 
 17974      52545550 
 17974      00
 17975              	.LASF184:
 17976 16fe 44495350 		.ascii	"DISPLAY_IMPRESORA_NO_FUNCIONANDO\000"
 17976      4C41595F 
 17976      494D5052 
 17976      45534F52 
 17976      415F4E4F 
ARM GAS  C:\Users\RECEPC~1\AppData\Local\Temp\ccQD6Oev.s 			page 382


 17977              	.LASF75:
 17978 171f 5052494E 		.ascii	"PRINTER11_JOB\000"
 17978      54455231 
 17978      315F4A4F 
 17978      4200
 17979              	.LASF559:
 17980 172d 4765744C 		.ascii	"GetLRC\000"
 17980      524300
 17981              	.LASF151:
 17982 1734 44495350 		.ascii	"DISPLAY_INGRESE_PASSWORD\000"
 17982      4C41595F 
 17982      494E4752 
 17982      4553455F 
 17982      50415353 
 17983              	.LASF431:
 17984 174d 52465F4D 		.ascii	"RF_MUX_TOTALS_RESPONSE\000"
 17984      55585F54 
 17984      4F54414C 
 17984      535F5245 
 17984      53504F4E 
 17985              	.LASF8:
 17986 1764 6C6F6E67 		.ascii	"long long int\000"
 17986      206C6F6E 
 17986      6720696E 
 17986      7400
 17987              	.LASF330:
 17988 1772 5F747261 		.ascii	"_transactionname\000"
 17988      6E736163 
 17988      74696F6E 
 17988      6E616D65 
 17988      00
 17989              	.LASF172:
 17990 1783 44495350 		.ascii	"DISPLAY_AUTORIZACION_ACEPTADA\000"
 17990      4C41595F 
 17990      4155544F 
 17990      52495A41 
 17990      43494F4E 
 17991              	.LASF150:
 17992 17a1 44495350 		.ascii	"DISPLAY_DESEA_IMPRIMIR_RECIBO\000"
 17992      4C41595F 
 17992      44455345 
 17992      415F494D 
 17992      5052494D 
 17993              	.LASF156:
 17994 17bf 44495350 		.ascii	"DISPLAY_GRACIAS_VUELVA_PRONTO\000"
 17994      4C41595F 
 17994      47524143 
 17994      4941535F 
 17994      5655454C 
 17995              	.LASF459:
 17996 17dd 52465F44 		.ascii	"RF_DELIVERING\000"
 17996      454C4956 
 17996      4552494E 
 17996      4700
 17997              	.LASF60:
 17998 17eb 44495350 		.ascii	"DISPENSER_UPDATE_PUMP_TRANSACTION_TIMEOUTS\000"
 17998      454E5345 
ARM GAS  C:\Users\RECEPC~1\AppData\Local\Temp\ccQD6Oev.s 			page 383


 17998      525F5550 
 17998      44415445 
 17998      5F50554D 
 17999              	.LASF440:
 18000 1816 52465F4D 		.ascii	"RF_MUX_CASH_SALE_PRINT_REQUEST\000"
 18000      55585F43 
 18000      4153485F 
 18000      53414C45 
 18000      5F505249 
 18001              	.LASF540:
 18002 1835 70747262 		.ascii	"ptrbuff\000"
 18002      75666600 
 18003              	.LASF117:
 18004 183d 436C6561 		.ascii	"ClearTxBuffer\000"
 18004      72547842 
 18004      75666665 
 18004      7200
 18005              	.LASF18:
 18006 184b 646F7562 		.ascii	"double\000"
 18006      6C6500
 18007              	.LASF411:
 18008 1852 45455052 		.ascii	"EEPROM_DISPENSER_PUMP32_TRANSACTION_PAGE\000"
 18008      4F4D5F44 
 18008      49535045 
 18008      4E534552 
 18008      5F50554D 
 18009              	.LASF152:
 18010 187b 44495350 		.ascii	"DISPLAY_PASSWORD_VALIDO\000"
 18010      4C41595F 
 18010      50415353 
 18010      574F5244 
 18010      5F56414C 
 18011              	.LASF583:
 18012 1893 433A5C54 		.ascii	"C:\\TeamInsepet\\NSX-Prime\\Hardware\\CorEx-MUX-Ker"
 18012      65616D49 
 18012      6E736570 
 18012      65745C4E 
 18012      53582D50 
 18013 18c2 6E656C2D 		.ascii	"nel-Enhanced\\Workspace01\\CorEx-Mux-Kernel.cydsn\000"
 18013      456E6861 
 18013      6E636564 
 18013      5C576F72 
 18013      6B737061 
 18014              	.LASF144:
 18015 18f2 44495350 		.ascii	"DISPLAY_SELECCIONE_PRODUCTO3\000"
 18015      4C41595F 
 18015      53454C45 
 18015      4343494F 
 18015      4E455F50 
 18016              	.LASF145:
 18017 190f 44495350 		.ascii	"DISPLAY_SELECCIONE_PRODUCTO4\000"
 18017      4C41595F 
 18017      53454C45 
 18017      4343494F 
 18017      4E455F50 
 18018              	.LASF209:
 18019 192c 50554D50 		.ascii	"PUMP_ALL_PUMPS_STOP\000"
ARM GAS  C:\Users\RECEPC~1\AppData\Local\Temp\ccQD6Oev.s 			page 384


 18019      5F414C4C 
 18019      5F50554D 
 18019      50535F53 
 18019      544F5000 
 18020              	.LASF582:
 18021 1940 2E5C5072 		.ascii	".\\PrimeImpl.c\000"
 18021      696D6549 
 18021      6D706C2E 
 18021      6300
 18022              	.LASF153:
 18023 194e 44495350 		.ascii	"DISPLAY_PASSWORD_INVALIDO\000"
 18023      4C41595F 
 18023      50415353 
 18023      574F5244 
 18023      5F494E56 
 18024              	.LASF291:
 18025 1968 5F72746D 		.ascii	"_rtmoneyamount\000"
 18025      6F6E6579 
 18025      616D6F75 
 18025      6E7400
 18026              	.LASF573:
 18027 1977 49544D5F 		.ascii	"ITM_RxBuffer\000"
 18027      52784275 
 18027      66666572 
 18027      00
 18028              	.LASF39:
 18029 1984 5F73656C 		.ascii	"_selfkill\000"
 18029      666B696C 
 18029      6C00
 18030              	.LASF17:
 18031 198e 666C6F61 		.ascii	"float\000"
 18031      7400
 18032              	.LASF537:
 18033 1994 70747265 		.ascii	"ptreeprom\000"
 18033      6570726F 
 18033      6D00
 18034              	.LASF414:
 18035 199e 45455052 		.ascii	"EEPROM_DISPENSER_PUMP41_TRANSACTION_PAGE\000"
 18035      4F4D5F44 
 18035      49535045 
 18035      4E534552 
 18035      5F50554D 
 18036              	.LASF248:
 18037 19c7 5F50554D 		.ascii	"_PUMP_OK_\000"
 18037      505F4F4B 
 18037      5F00
 18038              	.LASF402:
 18039 19d1 45455052 		.ascii	"EEPROM_DISPENSER_PUMP11_TRANSACTION_PAGE\000"
 18039      4F4D5F44 
 18039      49535045 
 18039      4E534552 
 18039      5F50554D 
 18040              	.LASF564:
 18041 19fa 5465726D 		.ascii	"TerminateTransactionAndPrint\000"
 18041      696E6174 
 18041      65547261 
 18041      6E736163 
ARM GAS  C:\Users\RECEPC~1\AppData\Local\Temp\ccQD6Oev.s 			page 385


 18041      74696F6E 
 18042              	.LASF579:
 18043 1a17 5F675F70 		.ascii	"_g_ptractprogramming\000"
 18043      74726163 
 18043      7470726F 
 18043      6772616D 
 18043      6D696E67 
 18044              	.LASF266:
 18045 1a2c 50756D70 		.ascii	"PumpDataContainer\000"
 18045      44617461 
 18045      436F6E74 
 18045      61696E65 
 18045      7200
 18046              	.LASF336:
 18047 1a3e 5F64656C 		.ascii	"_delaymultiplier\000"
 18047      61796D75 
 18047      6C746970 
 18047      6C696572 
 18047      00
 18048              	.LASF580:
 18049 1a4f 5F675F73 		.ascii	"_g_sfcharmap\000"
 18049      66636861 
 18049      726D6170 
 18049      00
 18050              	.LASF270:
 18051 1a5c 5F707269 		.ascii	"_price\000"
 18051      636500
 18052              	.LASF10:
 18053 1a63 756E7369 		.ascii	"unsigned int\000"
 18053      676E6564 
 18053      20696E74 
 18053      00
 18054              	.LASF112:
 18055 1a70 52656164 		.ascii	"ReadTxStatus\000"
 18055      54785374 
 18055      61747573 
 18055      00
 18056              	.LASF524:
 18057 1a7d 50756D70 		.ascii	"PumpDefault2CreditPpuChange\000"
 18057      44656661 
 18057      756C7432 
 18057      43726564 
 18057      69745070 
 18058              	.LASF324:
 18059 1a99 5F6F6E65 		.ascii	"_oneshotpostconditions\000"
 18059      73686F74 
 18059      706F7374 
 18059      636F6E64 
 18059      6974696F 
 18060              	.LASF523:
 18061 1ab0 62756666 		.ascii	"bufferlength\000"
 18061      65726C65 
 18061      6E677468 
 18061      00
 18062              	.LASF158:
 18063 1abd 44495350 		.ascii	"DISPLAY_ID_NO_RECONOCIDO\000"
 18063      4C41595F 
ARM GAS  C:\Users\RECEPC~1\AppData\Local\Temp\ccQD6Oev.s 			page 386


 18063      49445F4E 
 18063      4F5F5245 
 18063      434F4E4F 
 18064              	.LASF52:
 18065 1ad6 5053494E 		.ascii	"PSINKMESSAGEPTR\000"
 18065      4B4D4553 
 18065      53414745 
 18065      50545200 
 18066              	.LASF542:
 18067 1ae6 62756666 		.ascii	"buffersize\000"
 18067      65727369 
 18067      7A6500
 18068              	.LASF566:
 18069 1af1 64656C69 		.ascii	"delimiterindex\000"
 18069      6D697465 
 18069      72696E64 
 18069      657800
 18070              	.LASF149:
 18071 1b00 44495350 		.ascii	"DISPLAY_DIGITE_PLACA\000"
 18071      4C41595F 
 18071      44494749 
 18071      54455F50 
 18071      4C414341 
 18072              	.LASF27:
 18073 1b15 42524F41 		.ascii	"BROADCAST\000"
 18073      44434153 
 18073      5400
 18074              	.LASF98:
 18075 1b1f 5F554152 		.ascii	"_UART_MANAGER_\000"
 18075      545F4D41 
 18075      4E414745 
 18075      525F00
 18076              	.LASF497:
 18077 1b2e 6E756D68 		.ascii	"numhoses\000"
 18077      6F736573 
 18077      00
 18078              	.LASF495:
 18079 1b37 50726F63 		.ascii	"ProcessPumpTotalsDataReport\000"
 18079      65737350 
 18079      756D7054 
 18079      6F74616C 
 18079      73446174 
 18080              	.LASF349:
 18081 1b53 5F717565 		.ascii	"_queueindex\000"
 18081      7565696E 
 18081      64657800 
 18082              	.LASF544:
 18083 1b5f 6D73676C 		.ascii	"msglength\000"
 18083      656E6774 
 18083      6800
 18084              	.LASF584:
 18085 1b69 5F706F69 		.ascii	"_pointcommadecimalmode\000"
 18085      6E74636F 
 18085      6D6D6164 
 18085      6563696D 
 18085      616C6D6F 
 18086              	.LASF410:
ARM GAS  C:\Users\RECEPC~1\AppData\Local\Temp\ccQD6Oev.s 			page 387


 18087 1b80 45455052 		.ascii	"EEPROM_DISPENSER_PUMP31_TRANSACTION_PAGE\000"
 18087      4F4D5F44 
 18087      49535045 
 18087      4E534552 
 18087      5F50554D 
 18088              	.LASF135:
 18089 1ba9 55415254 		.ascii	"UART_NULL\000"
 18089      5F4E554C 
 18089      4C00
 18090              	.LASF428:
 18091 1bb3 52465F4D 		.ascii	"RF_MUX_CASH_SALE_END_REPORT_REQUEST\000"
 18091      55585F43 
 18091      4153485F 
 18091      53414C45 
 18091      5F454E44 
 18092              	.LASF235:
 18093 1bd7 5F50554D 		.ascii	"_PUMP_ACTIVE_HOSE_\000"
 18093      505F4143 
 18093      54495645 
 18093      5F484F53 
 18093      455F00
 18094              	.LASF530:
 18095 1bea 50756D70 		.ascii	"PumpCompleteConfiguration\000"
 18095      436F6D70 
 18095      6C657465 
 18095      436F6E66 
 18095      69677572 
 18096              	.LASF516:
 18097 1c04 50756D70 		.ascii	"PumpCreditPresetHose\000"
 18097      43726564 
 18097      69745072 
 18097      65736574 
 18097      486F7365 
 18098              	.LASF572:
 18099 1c19 70747273 		.ascii	"ptrstr\000"
 18099      747200
 18100              	.LASF347:
 18101 1c20 5050554D 		.ascii	"PPUMPTRANSACTIONJOBCONTEXTPTR\000"
 18101      50545241 
 18101      4E534143 
 18101      54494F4E 
 18101      4A4F4243 
 18102              	.LASF403:
 18103 1c3e 45455052 		.ascii	"EEPROM_DISPENSER_PUMP12_TRANSACTION_PAGE\000"
 18103      4F4D5F44 
 18103      49535045 
 18103      4E534552 
 18103      5F50554D 
 18104              	.LASF538:
 18105 1c67 626C6B69 		.ascii	"blkindex\000"
 18105      6E646578 
 18105      00
 18106              	.LASF104:
 18107 1c70 57726974 		.ascii	"WriteControlRegister\000"
 18107      65436F6E 
 18107      74726F6C 
 18107      52656769 
ARM GAS  C:\Users\RECEPC~1\AppData\Local\Temp\ccQD6Oev.s 			page 388


 18107      73746572 
 18108              	.LASF94:
 18109 1c85 474C4F42 		.ascii	"GLOBAL_TICK_NOTIFICATION\000"
 18109      414C5F54 
 18109      49434B5F 
 18109      4E4F5449 
 18109      46494341 
 18110              	.LASF217:
 18111 1c9e 50554D50 		.ascii	"PUMP_CALLING\000"
 18111      5F43414C 
 18111      4C494E47 
 18111      00
 18112              	.LASF28:
 18113 1cab 46495253 		.ascii	"FIRSTFOUND\000"
 18113      54464F55 
 18113      4E4400
 18114              	.LASF464:
 18115 1cb6 52465F45 		.ascii	"RF_ERROR\000"
 18115      52524F52 
 18115      00
 18116              	.LASF24:
 18117 1cbf 4C50564F 		.ascii	"LPVOID\000"
 18117      494400
 18118              	.LASF73:
 18119 1cc6 44495350 		.ascii	"DISPENSER_PUMP_HANDLER\000"
 18119      454E5345 
 18119      525F5055 
 18119      4D505F48 
 18119      414E444C 
 18120              	.LASF340:
 18121 1cdd 5F726574 		.ascii	"_retriescounter\000"
 18121      72696573 
 18121      636F756E 
 18121      74657200 
 18122              	.LASF109:
 18123 1ced 47657452 		.ascii	"GetRxBufferSize\000"
 18123      78427566 
 18123      66657253 
 18123      697A6500 
 18124              	.LASF293:
 18125 1cfd 5F747261 		.ascii	"_transhealth\000"
 18125      6E736865 
 18125      616C7468 
 18125      00
 18126              	.LASF460:
 18127 1d0a 52465F43 		.ascii	"RF_CASHSALEREPORT\000"
 18127      41534853 
 18127      414C4552 
 18127      45504F52 
 18127      5400
 18128              	.LASF545:
 18129 1d1c 72656D62 		.ascii	"remblocks\000"
 18129      6C6F636B 
 18129      7300
 18130              	.LASF406:
 18131 1d26 45455052 		.ascii	"EEPROM_DISPENSER_PUMP21_TRANSACTION_PAGE\000"
 18131      4F4D5F44 
ARM GAS  C:\Users\RECEPC~1\AppData\Local\Temp\ccQD6Oev.s 			page 389


 18131      49535045 
 18131      4E534552 
 18131      5F50554D 
 18132              	.LASF191:
 18133 1d4f 44495350 		.ascii	"DISPLAY_SIDE_DUMMY_DISPLAY\000"
 18133      4C41595F 
 18133      53494445 
 18133      5F44554D 
 18133      4D595F44 
 18134              	.LASF174:
 18135 1d6a 44495350 		.ascii	"DISPLAY_CONFIGURAR_FECHA_HORA\000"
 18135      4C41595F 
 18135      434F4E46 
 18135      49475552 
 18135      41525F46 
 18136              	.LASF433:
 18137 1d88 52465F4D 		.ascii	"RF_MUX_TOTALS_REPORT_RESPONSE\000"
 18137      55585F54 
 18137      4F54414C 
 18137      535F5245 
 18137      504F5254 
 18138              	.LASF54:
 18139 1da6 55415254 		.ascii	"UART_RF_RECEPTION\000"
 18139      5F52465F 
 18139      52454345 
 18139      5054494F 
 18139      4E00
 18140              	.LASF313:
 18141 1db8 5F50554D 		.ascii	"_PUMP_TRANSACTION_JOB_\000"
 18141      505F5452 
 18141      414E5341 
 18141      4354494F 
 18141      4E5F4A4F 
 18142              	.LASF197:
 18143 1dcf 5F444543 		.ascii	"_DECIMAL_SEPARATOR_\000"
 18143      494D414C 
 18143      5F534550 
 18143      41524154 
 18143      4F525F00 
 18144              	.LASF267:
 18145 1de3 5F617574 		.ascii	"_authorized\000"
 18145      686F7269 
 18145      7A656400 
 18146              	.LASF23:
 18147 1def 6C6F6E67 		.ascii	"long double\000"
 18147      20646F75 
 18147      626C6500 
 18148              	.LASF353:
 18149 1dfb 416C6C6F 		.ascii	"Allocate\000"
 18149      63617465 
 18149      00
 18150              	.LASF201:
 18151 1e04 50554D50 		.ascii	"PUMP_STATE_REQUEST\000"
 18151      5F535441 
 18151      54455F52 
 18151      45515545 
 18151      535400
ARM GAS  C:\Users\RECEPC~1\AppData\Local\Temp\ccQD6Oev.s 			page 390


 18152              	.LASF227:
 18153 1e17 5F50554D 		.ascii	"_PUMP_FILL_BY_VOLUME_\000"
 18153      505F4649 
 18153      4C4C5F42 
 18153      595F564F 
 18153      4C554D45 
 18154              	.LASF519:
 18155 1e2d 50756D70 		.ascii	"PumpCreditPresetNotification\000"
 18155      43726564 
 18155      69745072 
 18155      65736574 
 18155      4E6F7469 
 18156              	.LASF251:
 18157 1e4a 5F747261 		.ascii	"_transtate\000"
 18157      6E737461 
 18157      746500
 18158              	.LASF215:
 18159 1e55 50554D50 		.ascii	"PUMP_FAIL\000"
 18159      5F464149 
 18159      4C00
 18160              	.LASF101:
 18161 1e5f 53746172 		.ascii	"Start\000"
 18161      7400
 18162              	.LASF123:
 18163 1e65 5F554152 		.ascii	"_UART_MESSAGE_\000"
 18163      545F4D45 
 18163      53534147 
 18163      455F00
 18164              	.LASF169:
 18165 1e74 44495350 		.ascii	"DISPLAY_OPERACION_CANCELADA\000"
 18165      4C41595F 
 18165      4F504552 
 18165      4143494F 
 18165      4E5F4341 
 18166              	.LASF164:
 18167 1e90 44495350 		.ascii	"DISPLAY_OPERACIONES\000"
 18167      4C41595F 
 18167      4F504552 
 18167      4143494F 
 18167      4E455300 
 18168              	.LASF221:
 18169 1ea4 50554D50 		.ascii	"PUMP_FEOT\000"
 18169      5F46454F 
 18169      5400
 18170              	.LASF323:
 18171 1eae 5F707265 		.ascii	"_preconditions\000"
 18171      636F6E64 
 18171      6974696F 
 18171      6E7300
 18172              	.LASF312:
 18173 1ebd 504E4541 		.ascii	"PNEAR_PUMPPTR\000"
 18173      525F5055 
 18173      4D505054 
 18173      5200
 18174              	.LASF128:
 18175 1ecb 50554152 		.ascii	"PUARTMESSAGEPTR\000"
 18175      544D4553 
ARM GAS  C:\Users\RECEPC~1\AppData\Local\Temp\ccQD6Oev.s 			page 391


 18175      53414745 
 18175      50545200 
 18176              	.LASF362:
 18177 1edb 5F686F73 		.ascii	"_hosesposition1\000"
 18177      6573706F 
 18177      73697469 
 18177      6F6E3100 
 18178              	.LASF280:
 18179 1eeb 5F686F73 		.ascii	"_hoseactivestate\000"
 18179      65616374 
 18179      69766573 
 18179      74617465 
 18179      00
 18180              	.LASF364:
 18181 1efc 5F686F73 		.ascii	"_hosesposition3\000"
 18181      6573706F 
 18181      73697469 
 18181      6F6E3300 
 18182              	.LASF365:
 18183 1f0c 5F686F73 		.ascii	"_hosesposition4\000"
 18183      6573706F 
 18183      73697469 
 18183      6F6E3400 
 18184              	.LASF154:
 18185 1f1c 44495350 		.ascii	"DISPLAY_NUEVO_PASSWORD\000"
 18185      4C41595F 
 18185      4E554556 
 18185      4F5F5041 
 18185      5353574F 
 18186              	.LASF371:
 18187 1f33 5F6D696E 		.ascii	"_minvolumevalue\000"
 18187      766F6C75 
 18187      6D657661 
 18187      6C756500 
 18188              	.LASF316:
 18189 1f43 54696D65 		.ascii	"TimeoutCallback\000"
 18189      6F757443 
 18189      616C6C62 
 18189      61636B00 
 18190              	.LASF310:
 18191 1f53 436C6561 		.ascii	"CleanUp\000"
 18191      6E557000 
 18192              	.LASF159:
 18193 1f5b 44495350 		.ascii	"DISPLAY_ESPERANDO_ID\000"
 18193      4C41595F 
 18193      45535045 
 18193      52414E44 
 18193      4F5F4944 
 18194              	.LASF350:
 18195 1f70 5F6A6F62 		.ascii	"_jobqueueheap\000"
 18195      71756575 
 18195      65686561 
 18195      7000
 18196              	.LASF395:
 18197 1f7e 45455052 		.ascii	"EEPROM_DISPENSER_PUMP2_PPU_INFO_PAGE\000"
 18197      4F4D5F44 
 18197      49535045 
ARM GAS  C:\Users\RECEPC~1\AppData\Local\Temp\ccQD6Oev.s 			page 392


 18197      4E534552 
 18197      5F50554D 
 18198              	.LASF311:
 18199 1fa3 50756D70 		.ascii	"Pump\000"
 18199      00
 18200              	.LASF240:
 18201 1fa8 5F50554D 		.ascii	"_PUMP_STOP_\000"
 18201      505F5354 
 18201      4F505F00 
 18202              	.LASF140:
 18203 1fb4 44495350 		.ascii	"DISPLAY_FORMA_PAGO_DESEADA\000"
 18203      4C41595F 
 18203      464F524D 
 18203      415F5041 
 18203      474F5F44 
 18204              	.LASF477:
 18205 1fcf 706A6F62 		.ascii	"pjob\000"
 18205      00
 18206              	.LASF9:
 18207 1fd4 6C6F6E67 		.ascii	"long long unsigned int\000"
 18207      206C6F6E 
 18207      6720756E 
 18207      7369676E 
 18207      65642069 
 18208              	.LASF231:
 18209 1feb 5F50554D 		.ascii	"_PUMP_PPU_CHANGE_\000"
 18209      505F5050 
 18209      555F4348 
 18209      414E4745 
 18209      5F00
 18210              	.LASF115:
 18211 1ffd 50757441 		.ascii	"PutArray\000"
 18211      72726179 
 18211      00
 18212              	.LASF294:
 18213 2006 5F706375 		.ascii	"_pcurrtransaction\000"
 18213      72727472 
 18213      616E7361 
 18213      6374696F 
 18213      6E00
 18214              	.LASF441:
 18215 2018 52465F4D 		.ascii	"RF_MUX_CASH_SALE_PRINT_RESPONSE\000"
 18215      55585F43 
 18215      4153485F 
 18215      53414C45 
 18215      5F505249 
 18216              	.LASF346:
 18217 2038 50756D70 		.ascii	"PumpTransactionJobContext\000"
 18217      5472616E 
 18217      73616374 
 18217      696F6E4A 
 18217      6F62436F 
 18218              	.LASF360:
 18219 2052 5F637572 		.ascii	"_currentloopopen\000"
 18219      72656E74 
 18219      6C6F6F70 
 18219      6F70656E 
ARM GAS  C:\Users\RECEPC~1\AppData\Local\Temp\ccQD6Oev.s 			page 393


 18219      00
 18220              	.LASF220:
 18221 2063 50554D50 		.ascii	"PUMP_PEOT\000"
 18221      5F50454F 
 18221      5400
 18222              	.LASF57:
 18223 206d 53494E4B 		.ascii	"SINK_UPDATE_COUNTERS\000"
 18223      5F555044 
 18223      4154455F 
 18223      434F554E 
 18223      54455253 
 18224              	.LASF103:
 18225 2082 52656164 		.ascii	"ReadControlRegister\000"
 18225      436F6E74 
 18225      726F6C52 
 18225      65676973 
 18225      74657200 
 18226              	.LASF452:
 18227 2096 52465F4D 		.ascii	"RF_MUX_ISLAND_ADMIN_REQUEST\000"
 18227      55585F49 
 18227      534C414E 
 18227      445F4144 
 18227      4D494E5F 
 18228              	.LASF257:
 18229 20b2 5F766172 		.ascii	"_var3\000"
 18229      3300
 18230              	.LASF258:
 18231 20b8 5F766172 		.ascii	"_var4\000"
 18231      3400
 18232              	.LASF319:
 18233 20be 5F726570 		.ascii	"_repushtimeoutlimit\000"
 18233      75736874 
 18233      696D656F 
 18233      75746C69 
 18233      6D697400 
 18234              	.LASF66:
 18235 20d2 44495350 		.ascii	"DISPENSER_LOAD_EEPROM_SETTINGS\000"
 18235      454E5345 
 18235      525F4C4F 
 18235      41445F45 
 18235      4550524F 
 18236              	.LASF271:
 18237 20f1 5F707265 		.ascii	"_presetamount\000"
 18237      73657461 
 18237      6D6F756E 
 18237      7400
 18238              	.LASF99:
 18239 20ff 5F696465 		.ascii	"_identifier\000"
 18239      6E746966 
 18239      69657200 
 18240              	.LASF444:
 18241 210b 52465F4D 		.ascii	"RF_MUX_LAST_CASH_SALE_REQUEST\000"
 18241      55585F4C 
 18241      4153545F 
 18241      43415348 
 18241      5F53414C 
 18242              	.LASF279:
ARM GAS  C:\Users\RECEPC~1\AppData\Local\Temp\ccQD6Oev.s 			page 394


 18243 2129 5F637572 		.ascii	"_currenthose\000"
 18243      72656E74 
 18243      686F7365 
 18243      00
 18244              	.LASF578:
 18245 2136 5F675F70 		.ascii	"_g_printerlayout\000"
 18245      72696E74 
 18245      65726C61 
 18245      796F7574 
 18245      00
 18246              	.LASF210:
 18247 2147 5F434F4E 		.ascii	"_CONTROL_WORDS_\000"
 18247      54524F4C 
 18247      5F574F52 
 18247      44535F00 
 18248              	.LASF577:
 18249 2157 5F675F72 		.ascii	"_g_rfautorun\000"
 18249      66617574 
 18249      6F72756E 
 18249      00
 18250              	.LASF199:
 18251 2164 5F434F4D 		.ascii	"_COMMA_AS_DECIMAL_SEPARATOR_\000"
 18251      4D415F41 
 18251      535F4445 
 18251      43494D41 
 18251      4C5F5345 
 18252              	.LASF285:
 18253 2181 5F707265 		.ascii	"_presetdone\000"
 18253      73657464 
 18253      6F6E6500 
 18254              	.LASF558:
 18255 218d 436F6D70 		.ascii	"ComplementaryCreditTransactionOnHose\000"
 18255      6C656D65 
 18255      6E746172 
 18255      79437265 
 18255      64697454 
 18256              	.LASF108:
 18257 21b2 47657442 		.ascii	"GetByte\000"
 18257      79746500 
 18258              	.LASF375:
 18259 21ba 44697370 		.ascii	"DispenserLayoutInfo\000"
 18259      656E7365 
 18259      724C6179 
 18259      6F757449 
 18259      6E666F00 
 18260              	.LASF525:
 18261 21ce 50756D70 		.ascii	"PumpCredit2DefaultPpuChange\000"
 18261      43726564 
 18261      69743244 
 18261      65666175 
 18261      6C745070 
 18262              	.LASF491:
 18263 21ea 6C766172 		.ascii	"lvar6\000"
 18263      3600
 18264              	.LASF492:
 18265 21f0 6C766172 		.ascii	"lvar7\000"
 18265      3700
ARM GAS  C:\Users\RECEPC~1\AppData\Local\Temp\ccQD6Oev.s 			page 395


 18266              	.LASF493:
 18267 21f6 6C766172 		.ascii	"lvar8\000"
 18267      3800
 18268              	.LASF494:
 18269 21fc 6C766172 		.ascii	"lvar9\000"
 18269      3900
 18270              	.LASF55:
 18271 2202 55415254 		.ascii	"UART_RF_TEST\000"
 18271      5F52465F 
 18271      54455354 
 18271      00
 18272              	.LASF421:
 18273 220f 52465F4D 		.ascii	"RF_MUX_CREDIT_SERIAL_AUTH_RESPONSE\000"
 18273      55585F43 
 18273      52454449 
 18273      545F5345 
 18273      5249414C 
 18274              	.LASF417:
 18275 2232 45455052 		.ascii	"EEPROM_DISPENSER_PUMP44_TRANSACTION_PAGE\000"
 18275      4F4D5F44 
 18275      49535045 
 18275      4E534552 
 18275      5F50554D 
 18276              	.LASF249:
 18277 225b 5F50554D 		.ascii	"_PUMP_FAIL_\000"
 18277      505F4641 
 18277      494C5F00 
 18278              	.LASF281:
 18279 2267 5F616371 		.ascii	"_acquiringstate\000"
 18279      75697269 
 18279      6E677374 
 18279      61746500 
 18280              	.LASF483:
 18281 2277 50726F63 		.ascii	"ProcessPumpRTHoseVolumeRequest\000"
 18281      65737350 
 18281      756D7052 
 18281      54486F73 
 18281      65566F6C 
 18282              	.LASF147:
 18283 2296 44495350 		.ascii	"DISPLAY_DESPACHANDO\000"
 18283      4C41595F 
 18283      44455350 
 18283      41434841 
 18283      4E444F00 
 18284              	.LASF223:
 18285 22aa 50554D50 		.ascii	"PUMP_SEND_DATA\000"
 18285      5F53454E 
 18285      445F4441 
 18285      544100
 18286              	.LASF254:
 18287 22b9 5F766172 		.ascii	"_var0\000"
 18287      3000
 18288              	.LASF255:
 18289 22bf 5F766172 		.ascii	"_var1\000"
 18289      3100
 18290              	.LASF256:
 18291 22c5 5F766172 		.ascii	"_var2\000"
ARM GAS  C:\Users\RECEPC~1\AppData\Local\Temp\ccQD6Oev.s 			page 396


 18291      3200
 18292              	.LASF175:
 18293 22cb 44495350 		.ascii	"DISPLAY_HORA\000"
 18293      4C41595F 
 18293      484F5241 
 18293      00
 18294              	.LASF79:
 18295 22d8 5052494E 		.ascii	"PRINTER1_GENERIC_JOB\000"
 18295      54455231 
 18295      5F47454E 
 18295      45524943 
 18295      5F4A4F42 
 18296              	.LASF259:
 18297 22ed 5F766172 		.ascii	"_var5\000"
 18297      3500
 18298              	.LASF260:
 18299 22f3 5F766172 		.ascii	"_var6\000"
 18299      3600
 18300              	.LASF261:
 18301 22f9 5F766172 		.ascii	"_var7\000"
 18301      3700
 18302              	.LASF262:
 18303 22ff 5F766172 		.ascii	"_var8\000"
 18303      3800
 18304              	.LASF263:
 18305 2305 5F766172 		.ascii	"_var9\000"
 18305      3900
 18306              	.LASF434:
 18307 230b 52465F4D 		.ascii	"RF_MUX_PRICE_CHANGE_REQUEST\000"
 18307      55585F50 
 18307      52494345 
 18307      5F434841 
 18307      4E47455F 
 18308              	.LASF232:
 18309 2327 5F50554D 		.ascii	"_PUMP_RESTORE_PRICE_\000"
 18309      505F5245 
 18309      53544F52 
 18309      455F5052 
 18309      4943455F 
 18310              	.LASF264:
 18311 233c 5F766172 		.ascii	"_varA\000"
 18311      4100
 18312              	.LASF265:
 18313 2342 5F766172 		.ascii	"_varB\000"
 18313      4200
 18314              	.LASF465:
 18315 2348 52465F43 		.ascii	"RF_COPY_RECEIPT\000"
 18315      4F50595F 
 18315      52454345 
 18315      49505400 
 18316              	.LASF162:
 18317 2358 44495350 		.ascii	"DISPLAY_INTRODUZCA_VOLUMEN\000"
 18317      4C41595F 
 18317      494E5452 
 18317      4F44555A 
 18317      43415F56 
 18318              	.LASF29:
ARM GAS  C:\Users\RECEPC~1\AppData\Local\Temp\ccQD6Oev.s 			page 397


 18319 2373 414C4C49 		.ascii	"ALLINTERESTED\000"
 18319      4E544552 
 18319      45535445 
 18319      4400
 18320              	.LASF283:
 18321 2381 5F70656E 		.ascii	"_pendingtransaction\000"
 18321      64696E67 
 18321      7472616E 
 18321      73616374 
 18321      696F6E00 
 18322              	.LASF180:
 18323 2395 44495350 		.ascii	"DISPLAY_CANCELADO_X_PC\000"
 18323      4C41595F 
 18323      43414E43 
 18323      454C4144 
 18323      4F5F585F 
 18324              	.LASF277:
 18325 23ac 5F70756D 		.ascii	"_pumpindex\000"
 18325      70696E64 
 18325      657800
 18326              	.LASF314:
 18327 23b7 52657175 		.ascii	"Request\000"
 18327      65737400 
 18328              	.LASF485:
 18329 23bf 50726F63 		.ascii	"ProcessPumpTransactionData\000"
 18329      65737350 
 18329      756D7054 
 18329      72616E73 
 18329      61637469 
 18330              	.LASF286:
 18331 23da 5F70756D 		.ascii	"_pumplocked\000"
 18331      706C6F63 
 18331      6B656400 
 18332              	.LASF40:
 18333 23e6 5F6D6573 		.ascii	"_messageid\000"
 18333      73616765 
 18333      696400
 18334              	.LASF226:
 18335 23f1 5F50554D 		.ascii	"_PUMP_FILL_BY_MONEY_\000"
 18335      505F4649 
 18335      4C4C5F42 
 18335      595F4D4F 
 18335      4E45595F 
 18336              	.LASF121:
 18337 2406 414C4C4F 		.ascii	"ALLOCATED\000"
 18337      43415445 
 18337      4400
 18338              	.LASF13:
 18339 2410 75696E74 		.ascii	"uint8\000"
 18339      3800
 18340              	.LASF113:
 18341 2416 50757443 		.ascii	"PutChar\000"
 18341      68617200 
 18342              	.LASF88:
 18343 241e 44495350 		.ascii	"DISPLAY2_RECEPTION\000"
 18343      4C415932 
 18343      5F524543 
ARM GAS  C:\Users\RECEPC~1\AppData\Local\Temp\ccQD6Oev.s 			page 398


 18343      45505449 
 18343      4F4E00
 18344              	.LASF481:
 18345 2431 70706172 		.ascii	"pparam\000"
 18345      616D00
 18346              	.LASF461:
 18347 2438 52465F43 		.ascii	"RF_CREDITSALEAUTH\000"
 18347      52454449 
 18347      5453414C 
 18347      45415554 
 18347      4800
 18348              	.LASF204:
 18349 244a 50554D50 		.ascii	"PUMP_PUMP_STOP\000"
 18349      5F50554D 
 18349      505F5354 
 18349      4F5000
 18350              	.LASF2:
 18351 2459 73686F72 		.ascii	"short int\000"
 18351      7420696E 
 18351      7400
 18352              	.LASF186:
 18353 2463 44495350 		.ascii	"DISPLAY_PRECIO_POR_UNIDAD\000"
 18353      4C41595F 
 18353      50524543 
 18353      494F5F50 
 18353      4F525F55 
 18354              	.LASF300:
 18355 247d 50756D70 		.ascii	"PumpTransQueueLock\000"
 18355      5472616E 
 18355      73517565 
 18355      75654C6F 
 18355      636B00
 18356              	.LASF192:
 18357 2490 44495350 		.ascii	"DISPLAY_NULL\000"
 18357      4C41595F 
 18357      4E554C4C 
 18357      00
 18358              	.LASF305:
 18359 249d 50756D70 		.ascii	"PumpTransQueueAllocate\000"
 18359      5472616E 
 18359      73517565 
 18359      7565416C 
 18359      6C6F6361 
 18360              	.LASF71:
 18361 24b4 44495350 		.ascii	"DISPENSER_CONFIGURE_SINGLE_PRICE\000"
 18361      454E5345 
 18361      525F434F 
 18361      4E464947 
 18361      5552455F 
 18362              	.LASF448:
 18363 24d5 52465F4D 		.ascii	"RF_MUX_POSITION_CFG_REQUEST\000"
 18363      55585F50 
 18363      4F534954 
 18363      494F4E5F 
 18363      4346475F 
 18364              	.LASF84:
 18365 24f1 44495350 		.ascii	"DISPLAY1_RECEPTION\000"
ARM GAS  C:\Users\RECEPC~1\AppData\Local\Temp\ccQD6Oev.s 			page 399


 18365      4C415931 
 18365      5F524543 
 18365      45505449 
 18365      4F4E00
 18366              	.LASF303:
 18367 2504 50756D70 		.ascii	"PumpTransQueueEnqueue\000"
 18367      5472616E 
 18367      73517565 
 18367      7565456E 
 18367      71756575 
 18368              	.LASF476:
 18369 251a 5072696E 		.ascii	"PrinterLayout\000"
 18369      7465724C 
 18369      61796F75 
 18369      7400
 18370              	.LASF356:
 18371 2528 44657175 		.ascii	"Dequeue\000"
 18371      65756500 
 18372              	.LASF67:
 18373 2530 44495350 		.ascii	"DISPENSER_ENUMERATE_VISIBLE_PUMPS\000"
 18373      454E5345 
 18373      525F454E 
 18373      554D4552 
 18373      4154455F 
 18374              	.LASF105:
 18375 2552 52656164 		.ascii	"ReadRxData\000"
 18375      52784461 
 18375      746100
 18376              	.LASF570:
 18377 255d 5472616E 		.ascii	"TranslateSpecialFuncionDigit\000"
 18377      736C6174 
 18377      65537065 
 18377      6369616C 
 18377      46756E63 
 18378              	.LASF46:
 18379 257a 5F6D6573 		.ascii	"_messagetimeoutlimit\000"
 18379      73616765 
 18379      74696D65 
 18379      6F75746C 
 18379      696D6974 
 18380              	.LASF129:
 18381 258f 5F554152 		.ascii	"_UART_MANAGERS_AVAILABLE_\000"
 18381      545F4D41 
 18381      4E414745 
 18381      52535F41 
 18381      5641494C 
 18382              	.LASF581:
 18383 25a9 474E5520 		.ascii	"GNU C 4.9.3 20150303 (release) [ARM/embedded-4_9-br"
 18383      4320342E 
 18383      392E3320 
 18383      32303135 
 18383      30333033 
 18384 25dc 616E6368 		.ascii	"anch revision 221220] -mcpu=cortex-m3 -mthumb -g -O"
 18384      20726576 
 18384      6973696F 
 18384      6E203232 
 18384      31323230 
ARM GAS  C:\Users\RECEPC~1\AppData\Local\Temp\ccQD6Oev.s 			page 400


 18385 260f 30202D66 		.ascii	"0 -ffunction-sections -ffat-lto-objects\000"
 18385      66756E63 
 18385      74696F6E 
 18385      2D736563 
 18385      74696F6E 
 18386              	.LASF508:
 18387 2637 50756D70 		.ascii	"PumpRTMoneyRequest\000"
 18387      52544D6F 
 18387      6E657952 
 18387      65717565 
 18387      737400
 18388              	.LASF489:
 18389 264a 696E6465 		.ascii	"index\000"
 18389      7800
 18390              	.LASF161:
 18391 2650 44495350 		.ascii	"DISPLAY_INTRODUZCA_CEDULA\000"
 18391      4C41595F 
 18391      494E5452 
 18391      4F44555A 
 18391      43415F43 
 18392              	.LASF337:
 18393 266a 5F726570 		.ascii	"_repushretriescounter\000"
 18393      75736872 
 18393      65747269 
 18393      6573636F 
 18393      756E7465 
 18394              	.LASF555:
 18395 2680 706D7367 		.ascii	"pmsg\000"
 18395      00
 18396              	.LASF41:
 18397 2685 5F6D6573 		.ascii	"_messagetype\000"
 18397      73616765 
 18397      74797065 
 18397      00
 18398              	.LASF510:
 18399 2692 50756D70 		.ascii	"PumpTransactionDataRequest\000"
 18399      5472616E 
 18399      73616374 
 18399      696F6E44 
 18399      61746152 
 18400              	.LASF31:
 18401 26ad 46495253 		.ascii	"FIRSTFOUNDFOREVER\000"
 18401      54464F55 
 18401      4E44464F 
 18401      52455645 
 18401      5200
 18402              	.LASF520:
 18403 26bf 50756D70 		.ascii	"PumpFullPresetHose\000"
 18403      46756C6C 
 18403      50726573 
 18403      6574486F 
 18403      736500
 18404              	.LASF498:
 18405 26d2 7472616E 		.ascii	"transtatefound\000"
 18405      73746174 
 18405      65666F75 
 18405      6E6400
ARM GAS  C:\Users\RECEPC~1\AppData\Local\Temp\ccQD6Oev.s 			page 401


 18406              	.LASF216:
 18407 26e1 50554D50 		.ascii	"PUMP_IDLE\000"
 18407      5F49444C 
 18407      4500
 18408              	.LASF396:
 18409 26eb 45455052 		.ascii	"EEPROM_DISPENSER_PUMP3_PPU_INFO_PAGE\000"
 18409      4F4D5F44 
 18409      49535045 
 18409      4E534552 
 18409      5F50554D 
 18410              	.LASF447:
 18411 2710 52465F4D 		.ascii	"RF_MUX_BROADCAST_CFG_RESPONSE\000"
 18411      55585F42 
 18411      524F4144 
 18411      43415354 
 18411      5F434647 
 18412              	.LASF205:
 18413 272e 50554D50 		.ascii	"PUMP_TRANSACTION_DATA_REQUEST\000"
 18413      5F545241 
 18413      4E534143 
 18413      54494F4E 
 18413      5F444154 
 18414              	.LASF569:
 18415 274c 43617374 		.ascii	"CastMoneyValue\000"
 18415      4D6F6E65 
 18415      7956616C 
 18415      756500
 18416              	.LASF211:
 18417 275b 5055446E 		.ascii	"PUDn\000"
 18417      00
 18418              	.LASF307:
 18419 2760 50756D70 		.ascii	"PumpValidState\000"
 18419      56616C69 
 18419      64537461 
 18419      746500
 18420              	.LASF309:
 18421 276f 5F617574 		.ascii	"_authorizationinfo\000"
 18421      686F7269 
 18421      7A617469 
 18421      6F6E696E 
 18421      666F00
 18422              	.LASF241:
 18423 2782 5F50554D 		.ascii	"_PUMP_STOPALL_\000"
 18423      505F5354 
 18423      4F50414C 
 18423      4C5F00
 18424              	.LASF514:
 18425 2791 7472616E 		.ascii	"transtype\000"
 18425      73747970 
 18425      6500
 18426              	.LASF177:
 18427 279b 44495350 		.ascii	"DISPLAY_OPCION_TURNO\000"
 18427      4C41595F 
 18427      4F504349 
 18427      4F4E5F54 
 18427      55524E4F 
 18428              	.LASF338:
ARM GAS  C:\Users\RECEPC~1\AppData\Local\Temp\ccQD6Oev.s 			page 402


 18429 27b0 5F726570 		.ascii	"_repushtimeoutseed\000"
 18429      75736874 
 18429      696D656F 
 18429      75747365 
 18429      656400
 18430              	.LASF230:
 18431 27c3 5F50554D 		.ascii	"_PUMP_FILL_CREDIT_COMPLEMENTARY_\000"
 18431      505F4649 
 18431      4C4C5F43 
 18431      52454449 
 18431      545F434F 
 18432              	.LASF571:
 18433 27e4 72656676 		.ascii	"refval\000"
 18433      616C00
 18434              	.LASF423:
 18435 27eb 52465F4D 		.ascii	"RF_MUX_CREDIT_PRESET_AUTHORIZATION_RESPONSE\000"
 18435      55585F43 
 18435      52454449 
 18435      545F5052 
 18435      45534554 
 18436              	.LASF42:
 18437 2817 5F6D6573 		.ascii	"_messagestate\000"
 18437      73616765 
 18437      73746174 
 18437      6500
 18438              	.LASF528:
 18439 2825 50756D70 		.ascii	"PumpMiscellaneousConfiguration\000"
 18439      4D697363 
 18439      656C6C61 
 18439      6E656F75 
 18439      73436F6E 
 18440              	.LASF321:
 18441 2844 5F726574 		.ascii	"_retryinsteadofrepush\000"
 18441      7279696E 
 18441      73746561 
 18441      646F6672 
 18441      65707573 
 18442              	.LASF228:
 18443 285a 5F50554D 		.ascii	"_PUMP_FILL_FULL_\000"
 18443      505F4649 
 18443      4C4C5F46 
 18443      554C4C5F 
 18443      00
 18444              	.LASF91:
 18445 286b 44495350 		.ascii	"DISPLAY2_ANIMATE_HOME\000"
 18445      4C415932 
 18445      5F414E49 
 18445      4D415445 
 18445      5F484F4D 
 18446              	.LASF196:
 18447 2881 4C505241 		.ascii	"LPRAWPTR\000"
 18447      57505452 
 18447      00
 18448              	.LASF236:
 18449 288a 5F50554D 		.ascii	"_PUMP_EOT_\000"
 18449      505F454F 
 18449      545F00
ARM GAS  C:\Users\RECEPC~1\AppData\Local\Temp\ccQD6Oev.s 			page 403


 18450              	.LASF83:
 18451 2895 44495350 		.ascii	"DISPLAY_UPDATE_PUMP_STATE\000"
 18451      4C41595F 
 18451      55504441 
 18451      54455F50 
 18451      554D505F 
 18452              	.LASF34:
 18453 28af 5F4D4553 		.ascii	"_MESSAGE_TYPE_\000"
 18453      53414745 
 18453      5F545950 
 18453      455F00
 18454              	.LASF70:
 18455 28be 44495350 		.ascii	"DISPENSER_RESTORE_PRICES\000"
 18455      454E5345 
 18455      525F5245 
 18455      53544F52 
 18455      455F5052 
 18456              	.LASF203:
 18457 28d7 50554D50 		.ascii	"PUMP_DATA_TO_PUMP\000"
 18457      5F444154 
 18457      415F544F 
 18457      5F50554D 
 18457      5000
 18458              	.LASF427:
 18459 28e9 52465F4D 		.ascii	"RF_MUX_CASH_SALE_START_RESPONSE\000"
 18459      55585F43 
 18459      4153485F 
 18459      53414C45 
 18459      5F535441 
 18460              	.LASF318:
 18461 2909 5F726573 		.ascii	"_responsetimeoutlimit\000"
 18461      706F6E73 
 18461      6574696D 
 18461      656F7574 
 18461      6C696D69 
 18462              	.LASF552:
 18463 291f 41637175 		.ascii	"AcquirePumpTotalsResponseResolver\000"
 18463      69726550 
 18463      756D7054 
 18463      6F74616C 
 18463      73526573 
 18464              	.LASF290:
 18465 2941 5F707269 		.ascii	"_print\000"
 18465      6E7400
 18466              	.LASF244:
 18467 2948 5F50554D 		.ascii	"_PUMP_BUSY_\000"
 18467      505F4255 
 18467      53595F00 
 18468              	.LASF388:
 18469 2954 45455052 		.ascii	"EEPROM_DISPENSER_PUMP3_LAYOUT_PAGE\000"
 18469      4F4D5F44 
 18469      49535045 
 18469      4E534552 
 18469      5F50554D 
 18470              	.LASF435:
 18471 2977 52465F4D 		.ascii	"RF_MUX_PRICE_CHANGE_RESPONSE\000"
 18471      55585F50 
ARM GAS  C:\Users\RECEPC~1\AppData\Local\Temp\ccQD6Oev.s 			page 404


 18471      52494345 
 18471      5F434841 
 18471      4E47455F 
 18472              	.LASF3:
 18473 2994 73686F72 		.ascii	"short unsigned int\000"
 18473      7420756E 
 18473      7369676E 
 18473      65642069 
 18473      6E7400
 18474              	.LASF535:
 18475 29a7 74617267 		.ascii	"targetmemoryareafound\000"
 18475      65746D65 
 18475      6D6F7279 
 18475      61726561 
 18475      666F756E 
 18476              	.LASF302:
 18477 29bd 50756D70 		.ascii	"PumpTransQueueFind\000"
 18477      5472616E 
 18477      73517565 
 18477      75654669 
 18477      6E6400
 18478              	.LASF126:
 18479 29d0 4572726F 		.ascii	"ErrorHandler\000"
 18479      7248616E 
 18479      646C6572 
 18479      00
 18480              	.LASF472:
 18481 29dd 5F74696D 		.ascii	"_timeouttoreceivemultiplier\000"
 18481      656F7574 
 18481      746F7265 
 18481      63656976 
 18481      656D756C 
 18482              	.LASF509:
 18483 29f9 50756D70 		.ascii	"PumpRTHoseVolumeRequest\000"
 18483      5254486F 
 18483      7365566F 
 18483      6C756D65 
 18483      52657175 
 18484              	.LASF78:
 18485 2a11 5052494E 		.ascii	"PRINTER22_JOB\000"
 18485      54455232 
 18485      325F4A4F 
 18485      4200
 18486              	.LASF446:
 18487 2a1f 52465F4D 		.ascii	"RF_MUX_BROADCAST_CFG_REQUEST\000"
 18487      55585F42 
 18487      524F4144 
 18487      43415354 
 18487      5F434647 
 18488              	.LASF501:
 18489 2a3c 50756D70 		.ascii	"PumpJobTimeout\000"
 18489      4A6F6254 
 18489      696D656F 
 18489      757400
 18490              	.LASF214:
 18491 2a4b 5F50554D 		.ascii	"_PUMP_STATES_\000"
 18491      505F5354 
ARM GAS  C:\Users\RECEPC~1\AppData\Local\Temp\ccQD6Oev.s 			page 405


 18491      41544553 
 18491      5F00
 18492              	.LASF5:
 18493 2a59 5F5F696E 		.ascii	"__int32_t\000"
 18493      7433325F 
 18493      7400
 18494              	.LASF455:
 18495 2a63 52465F4D 		.ascii	"RF_MUX_COPY_REQUEST_RESPONSE\000"
 18495      55585F43 
 18495      4F50595F 
 18495      52455155 
 18495      4553545F 
 18496              	.LASF536:
 18497 2a80 65657072 		.ascii	"eeprompumpconfigmemorypageid\000"
 18497      6F6D7075 
 18497      6D70636F 
 18497      6E666967 
 18497      6D656D6F 
 18498              	.LASF532:
 18499 2a9d 41637175 		.ascii	"AcquirePumpHoseActiveState\000"
 18499      69726550 
 18499      756D7048 
 18499      6F736541 
 18499      63746976 
 18500              	.LASF436:
 18501 2ab8 52465F4D 		.ascii	"RF_MUX_GENERAL_PRINT_REQUEST\000"
 18501      55585F47 
 18501      454E4552 
 18501      414C5F50 
 18501      52494E54 
 18502              	.LASF392:
 18503 2ad5 45455052 		.ascii	"EEPROM_DISPENSER_PUMP3_PRODUCT_NAMES_PAGE\000"
 18503      4F4D5F44 
 18503      49535045 
 18503      4E534552 
 18503      5F50554D 
 18504              	.LASF252:
 18505 2aff 50756D70 		.ascii	"PumpTransactionalState\000"
 18505      5472616E 
 18505      73616374 
 18505      696F6E61 
 18505      6C537461 
 18506              	.LASF308:
 18507 2b16 5F646174 		.ascii	"_datacontainer\000"
 18507      61636F6E 
 18507      7461696E 
 18507      657200
 18508              	.LASF334:
 18509 2b25 5F726565 		.ascii	"_reenqueuecounter\000"
 18509      6E717565 
 18509      7565636F 
 18509      756E7465 
 18509      7200
 18510              	.LASF222:
 18511 2b37 50554D50 		.ascii	"PUMP_STOPPED\000"
 18511      5F53544F 
 18511      50504544 
ARM GAS  C:\Users\RECEPC~1\AppData\Local\Temp\ccQD6Oev.s 			page 406


 18511      00
 18512              	.LASF35:
 18513 2b44 5F4D4553 		.ascii	"_MESSAGE_STATE_\000"
 18513      53414745 
 18513      5F535441 
 18513      54455F00 
 18514              	.LASF36:
 18515 2b54 53494E4B 		.ascii	"SINK_FREE\000"
 18515      5F465245 
 18515      4500
 18516              	.LASF26:
 18517 2b5e 4E4F4E45 		.ascii	"NONE\000"
 18517      00
 18518              	.LASF502:
 18519 2b63 50756D70 		.ascii	"PumpStateJobTimeout\000"
 18519      53746174 
 18519      654A6F62 
 18519      54696D65 
 18519      6F757400 
 18520              	.LASF93:
 18521 2b77 49425554 		.ascii	"IBUTTON2_SCAN\000"
 18521      544F4E32 
 18521      5F534341 
 18521      4E00
 18522              	.LASF443:
 18523 2b85 52465F4D 		.ascii	"RF_MUX_PENDING_CREDIT_SALE_RESPONSE\000"
 18523      55585F50 
 18523      454E4449 
 18523      4E475F43 
 18523      52454449 
 18524              	.LASF372:
 18525 2ba9 5F646973 		.ascii	"_displaydigitsmode\000"
 18525      706C6179 
 18525      64696769 
 18525      74736D6F 
 18525      646500
 18526              	.LASF14:
 18527 2bbc 75696E74 		.ascii	"uint16\000"
 18527      313600
 18528              	.LASF450:
 18529 2bc3 52465F4D 		.ascii	"RF_MUX_ISLAND_OPER_DATA_REQUEST\000"
 18529      55585F49 
 18529      534C414E 
 18529      445F4F50 
 18529      45525F44 
 18530              	.LASF301:
 18531 2be3 50756D70 		.ascii	"PumpTransQueueUnlock\000"
 18531      5472616E 
 18531      73517565 
 18531      7565556E 
 18531      6C6F636B 
 18532              	.LASF127:
 18533 2bf8 5F707561 		.ascii	"_puartmanager\000"
 18533      72746D61 
 18533      6E616765 
 18533      7200
 18534              	.LASF437:
ARM GAS  C:\Users\RECEPC~1\AppData\Local\Temp\ccQD6Oev.s 			page 407


 18535 2c06 52465F4D 		.ascii	"RF_MUX_GENERAL_PRINT_RESPONSE\000"
 18535      55585F47 
 18535      454E4552 
 18535      414C5F50 
 18535      52494E54 
 18536              	.LASF473:
 18537 2c24 52464175 		.ascii	"RFAutoRun\000"
 18537      746F5275 
 18537      6E00
 18538              	.LASF82:
 18539 2c2e 5052494E 		.ascii	"PRINTER2_GENERIC_JOB_LOGO\000"
 18539      54455232 
 18539      5F47454E 
 18539      45524943 
 18539      5F4A4F42 
 18540              	.LASF48:
 18541 2c48 5F627566 		.ascii	"_buffersize\000"
 18541      66657273 
 18541      697A6500 
 18542              	.LASF407:
 18543 2c54 45455052 		.ascii	"EEPROM_DISPENSER_PUMP22_TRANSACTION_PAGE\000"
 18543      4F4D5F44 
 18543      49535045 
 18543      4E534552 
 18543      5F50554D 
 18544              	.LASF173:
 18545 2c7d 44495350 		.ascii	"DISPLAY_AUTORIZACION_RECHAZADA\000"
 18545      4C41595F 
 18545      4155544F 
 18545      52495A41 
 18545      43494F4E 
 18546              	.LASF474:
 18547 2c9c 5F707269 		.ascii	"_printerportside1\000"
 18547      6E746572 
 18547      706F7274 
 18547      73696465 
 18547      3100
 18548              		.ident	"GCC: (GNU Tools for ARM Embedded Processors) 4.9.3 20150303 (release) [ARM/embedded-4_9-br
