ARM GAS  C:\Users\RECEPC~1\AppData\Local\Temp\ccm3G1MZ.s 			page 1


   1              		.syntax unified
   2              		.cpu cortex-m3
   3              		.fpu softvfp
   4              		.eabi_attribute 20, 1
   5              		.eabi_attribute 21, 1
   6              		.eabi_attribute 23, 3
   7              		.eabi_attribute 24, 1
   8              		.eabi_attribute 25, 1
   9              		.eabi_attribute 26, 1
  10              		.eabi_attribute 30, 6
  11              		.eabi_attribute 34, 1
  12              		.eabi_attribute 18, 4
  13              		.thumb
  14              		.file	"PrinterResolver.c"
  15              		.text
  16              	.Ltext0:
  17              		.cfi_sections	.debug_frame
  18              		.section	.text.PrinterUARTSend,"ax",%progbits
  19              		.align	2
  20              		.global	PrinterUARTSend
  21              		.thumb
  22              		.thumb_func
  23              		.type	PrinterUARTSend, %function
  24              	PrinterUARTSend:
  25              	.LFB0:
  26              		.file 1 ".\\PrinterResolver.c"
   1:.\PrinterResolver.c **** /* ========================================
   2:.\PrinterResolver.c ****  *
   3:.\PrinterResolver.c ****  * Copyright INSEPET SISTEMAS, 2016
   4:.\PrinterResolver.c ****  * All Rights Reserved
   5:.\PrinterResolver.c ****  * UNPUBLISHED, LICENSED SOFTWARE.
   6:.\PrinterResolver.c ****  *
   7:.\PrinterResolver.c ****  * CONFIDENTIAL AND PROPRIETARY INFORMATION
   8:.\PrinterResolver.c ****  * WHICH IS THE PROPERTY OF your company.
   9:.\PrinterResolver.c ****  *
  10:.\PrinterResolver.c ****  * ========================================
  11:.\PrinterResolver.c **** @Created By: HIJH
  12:.\PrinterResolver.c **** @Date: Septembre de 2016
  13:.\PrinterResolver.c **** */
  14:.\PrinterResolver.c **** 
  15:.\PrinterResolver.c **** #include "Dispenser.h"
  16:.\PrinterResolver.c **** #include "UARTManager.h"
  17:.\PrinterResolver.c **** 
  18:.\PrinterResolver.c **** void PrinterUARTSend(void *ptr)
  19:.\PrinterResolver.c **** {
  27              		.loc 1 19 0
  28              		.cfi_startproc
  29              		@ args = 0, pretend = 0, frame = 16
  30              		@ frame_needed = 1, uses_anonymous_args = 0
  31              		@ link register save eliminated.
  32 0000 80B4     		push	{r7}
  33              		.cfi_def_cfa_offset 4
  34              		.cfi_offset 7, -4
  35 0002 85B0     		sub	sp, sp, #20
  36              		.cfi_def_cfa_offset 24
  37 0004 00AF     		add	r7, sp, #0
  38              		.cfi_def_cfa_register 7
ARM GAS  C:\Users\RECEPC~1\AppData\Local\Temp\ccm3G1MZ.s 			page 2


  39 0006 7860     		str	r0, [r7, #4]
  20:.\PrinterResolver.c ****     PUARTMESSAGEPTR pmessage = (PUARTMESSAGEPTR)ptr;
  40              		.loc 1 20 0
  41 0008 7B68     		ldr	r3, [r7, #4]
  42 000a FB60     		str	r3, [r7, #12]
  21:.\PrinterResolver.c ****         
  22:.\PrinterResolver.c **** //pmessage->_puartmanager->WriteTxData(_MESSAGE_START0_);
  23:.\PrinterResolver.c **** /*
  24:.\PrinterResolver.c ****     uint8 index = 0;
  25:.\PrinterResolver.c ****     for(; index < pmessage->_messagelength; index++)
  26:.\PrinterResolver.c ****     {
  27:.\PrinterResolver.c ****         pmessage->_puartmanager->WriteTxData(pmessage->_messagetx[index]);
  28:.\PrinterResolver.c ****     }
  29:.\PrinterResolver.c **** */    
  30:.\PrinterResolver.c **** }
  43              		.loc 1 30 0
  44 000c 1437     		adds	r7, r7, #20
  45              		.cfi_def_cfa_offset 4
  46 000e BD46     		mov	sp, r7
  47              		.cfi_def_cfa_register 13
  48              		@ sp needed
  49 0010 5DF8047B 		ldr	r7, [sp], #4
  50              		.cfi_restore 7
  51              		.cfi_def_cfa_offset 0
  52 0014 7047     		bx	lr
  53              		.cfi_endproc
  54              	.LFE0:
  55              		.size	PrinterUARTSend, .-PrinterUARTSend
  56 0016 00BF     		.text
  57              	.Letext0:
  58              		.file 2 "Generated_Source\\PSoC5/cytypes.h"
  59              		.file 3 ".\\UARTManager.h"