ARM GAS  C:\Users\RECEPC~1\AppData\Local\Temp\ccRreK3F.s 			page 1


   1              		.syntax unified
   2              		.cpu cortex-m3
   3              		.fpu softvfp
   4              		.eabi_attribute 20, 1
   5              		.eabi_attribute 21, 1
   6              		.eabi_attribute 23, 3
   7              		.eabi_attribute 24, 1
   8              		.eabi_attribute 25, 1
   9              		.eabi_attribute 26, 1
  10              		.eabi_attribute 30, 6
  11              		.eabi_attribute 34, 1
  12              		.eabi_attribute 18, 4
  13              		.thumb
  14              		.file	"PrinterTemplate.c"
  15              		.text
  16              	.Ltext0:
  17              		.cfi_sections	.debug_frame
  18              		.global	_g_printertemplate
  19              		.section	.rodata
  20              		.align	2
  21              	.LC0:
  22 0000 46656368 		.ascii	"Fecha      : \000"
  22      61202020 
  22      2020203A 
  22      2000
  23 000e 0000     		.align	2
  24              	.LC1:
  25 0010 486F7261 		.ascii	"Hora       : \000"
  25      20202020 
  25      2020203A 
  25      2000
  26 001e 0000     		.align	2
  27              	.LC2:
  28 0020 506C6163 		.ascii	"Placa      : \000"
  28      61202020 
  28      2020203A 
  28      2000
  29 002e 0000     		.align	2
  30              	.LC3:
  31 0030 53657269 		.ascii	"Serial     : \000"
  31      616C2020 
  31      2020203A 
  31      2000
  32 003e 0000     		.align	2
  33              	.LC4:
  34 0040 4B696C6F 		.ascii	"Kilometraje: \000"
  34      6D657472 
  34      616A653A 
  34      2000
  35 004e 0000     		.align	2
  36              	.LC5:
  37 0050 5469706F 		.ascii	"Tipo       : \000"
  37      20202020 
  37      2020203A 
  37      2000
  38 005e 0000     		.align	2
  39              	.LC6:
ARM GAS  C:\Users\RECEPC~1\AppData\Local\Temp\ccRreK3F.s 			page 2


  40 0060 506F7369 		.ascii	"Posicion   : \000"
  40      63696F6E 
  40      2020203A 
  40      2000
  41 006e 0000     		.align	2
  42              	.LC7:
  43 0070 50726F64 		.ascii	"Producto   : \000"
  43      7563746F 
  43      2020203A 
  43      2000
  44 007e 0000     		.align	2
  45              	.LC8:
  46 0080 50707520 		.ascii	"Ppu        : \000"
  46      20202020 
  46      2020203A 
  46      2000
  47 008e 0000     		.align	2
  48              	.LC9:
  49 0090 566F6C75 		.ascii	"Volumen    : \000"
  49      6D656E20 
  49      2020203A 
  49      2000
  50 009e 0000     		.align	2
  51              	.LC10:
  52 00a0 44696E65 		.ascii	"Dinero     : \000"
  52      726F2020 
  52      2020203A 
  52      2000
  53 00ae 0000     		.align	2
  54              	.LC11:
  55 00b0 436F6E73 		.ascii	"Consecutivo: \000"
  55      65637574 
  55      69766F3A 
  55      2000
  56 00be 0000     		.align	2
  57              	.LC12:
  58 00c0 53616C64 		.ascii	"Saldo      : \000"
  58      6F202020 
  58      2020203A 
  58      2000
  59 00ce 0000     		.align	2
  60              	.LC13:
  61 00d0 456D7072 		.ascii	"Empresa    : \000"
  61      65736120 
  61      2020203A 
  61      2000
  62 00de 0000     		.align	2
  63              	.LC14:
  64 00e0 4375656E 		.ascii	"Cuenta     : \000"
  64      74612020 
  64      2020203A 
  64      2000
  65 00ee 0000     		.align	2
  66              	.LC15:
  67 00f0 5469706F 		.ascii	"Tipo Cuenta: \000"
  67      20437565 
  67      6E74613A 
ARM GAS  C:\Users\RECEPC~1\AppData\Local\Temp\ccRreK3F.s 			page 3


  67      2000
  68 00fe 0000     		.align	2
  69              	.LC16:
  70 0100 56697369 		.ascii	"Visitas Dia: \000"
  70      74617320 
  70      4469613A 
  70      2000
  71 010e 0000     		.align	2
  72              	.LC17:
  73 0110 56697369 		.ascii	"Visitas Sem: \000"
  73      74617320 
  73      53656D3A 
  73      2000
  74 011e 0000     		.align	2
  75              	.LC18:
  76 0120 56697369 		.ascii	"Visitas Mes: \000"
  76      74617320 
  76      4D65733A 
  76      2000
  77 012e 0000     		.align	2
  78              	.LC19:
  79 0130 566F6C75 		.ascii	"Volumen Dia: \000"
  79      6D656E20 
  79      4469613A 
  79      2000
  80 013e 0000     		.align	2
  81              	.LC20:
  82 0140 566F6C75 		.ascii	"Volumen Sem: \000"
  82      6D656E20 
  82      53656D3A 
  82      2000
  83 014e 0000     		.align	2
  84              	.LC21:
  85 0150 566F6C75 		.ascii	"Volumen Mes: \000"
  85      6D656E20 
  85      4D65733A 
  85      2000
  86 015e 0000     		.align	2
  87              	.LC22:
  88 0160 44696E65 		.ascii	"Dinero Dia : \000"
  88      726F2044 
  88      6961203A 
  88      2000
  89 016e 0000     		.align	2
  90              	.LC23:
  91 0170 44696E65 		.ascii	"Dinero Sem : \000"
  91      726F2053 
  91      656D203A 
  91      2000
  92 017e 0000     		.align	2
  93              	.LC24:
  94 0180 44696E65 		.ascii	"Dinero Mes : \000"
  94      726F204D 
  94      6573203A 
  94      2000
  95 018e 0000     		.align	2
  96              	.LC25:
ARM GAS  C:\Users\RECEPC~1\AppData\Local\Temp\ccRreK3F.s 			page 4


  97 0190 4669726D 		.ascii	"Firma      :................. \000"
  97      61202020 
  97      2020203A 
  97      2E2E2E2E 
  97      2E2E2E2E 
  98 01af 00       		.align	2
  99              	.LC26:
 100 01b0 43656475 		.ascii	"Cedula     :................. \000"
 100      6C612020 
 100      2020203A 
 100      2E2E2E2E 
 100      2E2E2E2E 
 101              		.data
 102              		.align	2
 103              		.type	_g_printertemplate, %object
 104              		.size	_g_printertemplate, 224
 105              	_g_printertemplate:
 106 0000 01       		.byte	1
 107 0001 000000   		.space	3
 108 0004 00000000 		.word	.LC0
 109 0008 02       		.byte	2
 110 0009 000000   		.space	3
 111 000c 10000000 		.word	.LC1
 112 0010 03       		.byte	3
 113 0011 000000   		.space	3
 114 0014 20000000 		.word	.LC2
 115 0018 1B       		.byte	27
 116 0019 000000   		.space	3
 117 001c 30000000 		.word	.LC3
 118 0020 04       		.byte	4
 119 0021 000000   		.space	3
 120 0024 40000000 		.word	.LC4
 121 0028 05       		.byte	5
 122 0029 000000   		.space	3
 123 002c 50000000 		.word	.LC5
 124 0030 06       		.byte	6
 125 0031 000000   		.space	3
 126 0034 60000000 		.word	.LC6
 127 0038 15       		.byte	21
 128 0039 000000   		.space	3
 129 003c 70000000 		.word	.LC7
 130 0040 16       		.byte	22
 131 0041 000000   		.space	3
 132 0044 80000000 		.word	.LC8
 133 0048 17       		.byte	23
 134 0049 000000   		.space	3
 135 004c 90000000 		.word	.LC9
 136 0050 18       		.byte	24
 137 0051 000000   		.space	3
 138 0054 A0000000 		.word	.LC10
 139 0058 07       		.byte	7
 140 0059 000000   		.space	3
 141 005c B0000000 		.word	.LC11
 142 0060 08       		.byte	8
 143 0061 000000   		.space	3
 144 0064 C0000000 		.word	.LC12
 145 0068 09       		.byte	9
ARM GAS  C:\Users\RECEPC~1\AppData\Local\Temp\ccRreK3F.s 			page 5


 146 0069 000000   		.space	3
 147 006c D0000000 		.word	.LC13
 148 0070 0A       		.byte	10
 149 0071 000000   		.space	3
 150 0074 E0000000 		.word	.LC14
 151 0078 14       		.byte	20
 152 0079 000000   		.space	3
 153 007c F0000000 		.word	.LC15
 154 0080 0B       		.byte	11
 155 0081 000000   		.space	3
 156 0084 00010000 		.word	.LC16
 157 0088 0C       		.byte	12
 158 0089 000000   		.space	3
 159 008c 10010000 		.word	.LC17
 160 0090 0D       		.byte	13
 161 0091 000000   		.space	3
 162 0094 20010000 		.word	.LC18
 163 0098 0E       		.byte	14
 164 0099 000000   		.space	3
 165 009c 30010000 		.word	.LC19
 166 00a0 0F       		.byte	15
 167 00a1 000000   		.space	3
 168 00a4 40010000 		.word	.LC20
 169 00a8 10       		.byte	16
 170 00a9 000000   		.space	3
 171 00ac 50010000 		.word	.LC21
 172 00b0 11       		.byte	17
 173 00b1 000000   		.space	3
 174 00b4 60010000 		.word	.LC22
 175 00b8 12       		.byte	18
 176 00b9 000000   		.space	3
 177 00bc 70010000 		.word	.LC23
 178 00c0 13       		.byte	19
 179 00c1 000000   		.space	3
 180 00c4 80010000 		.word	.LC24
 181 00c8 1A       		.byte	26
 182 00c9 000000   		.space	3
 183 00cc 90010000 		.word	.LC25
 184 00d0 19       		.byte	25
 185 00d1 000000   		.space	3
 186 00d4 B0010000 		.word	.LC26
 187 00d8 00       		.byte	0
 188 00d9 000000   		.space	3
 189 00dc 00000000 		.word	0
 190              		.global	_g_printervolumetemplate
 191              		.section	.rodata
 192 01cf 00       		.align	2
 193              	.LC27:
 194 01d0 2047616C 		.ascii	" Gal\000"
 194      00
 195 01d5 000000   		.align	2
 196              	.LC28:
 197 01d8 204C00   		.ascii	" L\000"
 198              		.data
 199              		.align	2
 200              		.type	_g_printervolumetemplate, %object
 201              		.size	_g_printervolumetemplate, 48
ARM GAS  C:\Users\RECEPC~1\AppData\Local\Temp\ccRreK3F.s 			page 6


 202              	_g_printervolumetemplate:
 203 00e0 01       		.byte	1
 204 00e1 000000   		.space	3
 205 00e4 D0010000 		.word	.LC27
 206 00e8 02       		.byte	2
 207 00e9 000000   		.space	3
 208 00ec D0010000 		.word	.LC27
 209 00f0 03       		.byte	3
 210 00f1 000000   		.space	3
 211 00f4 D8010000 		.word	.LC28
 212 00f8 04       		.byte	4
 213 00f9 000000   		.space	3
 214 00fc D0010000 		.word	.LC27
 215 0100 05       		.byte	5
 216 0101 000000   		.space	3
 217 0104 D0010000 		.word	.LC27
 218 0108 00       		.byte	0
 219 0109 000000   		.space	3
 220 010c 00000000 		.word	0
 221              		.global	_g_printerpricetemplate
 222              		.section	.rodata
 223 01db 00       		.align	2
 224              	.LC29:
 225 01dc 20242F47 		.ascii	" $/Gal\000"
 225      616C00
 226 01e3 00       		.align	2
 227              	.LC30:
 228 01e4 20242F4C 		.ascii	" $/L\000"
 228      00
 229 01e9 000000   		.data
 230              		.align	2
 231              		.type	_g_printerpricetemplate, %object
 232              		.size	_g_printerpricetemplate, 24
 233              	_g_printerpricetemplate:
 234 0110 01       		.byte	1
 235 0111 000000   		.space	3
 236 0114 DC010000 		.word	.LC29
 237 0118 03       		.byte	3
 238 0119 000000   		.space	3
 239 011c E4010000 		.word	.LC30
 240 0120 00       		.byte	0
 241 0121 000000   		.space	3
 242 0124 00000000 		.word	0
 243              		.section	.text.GetPrinterTemplateLine,"ax",%progbits
 244              		.align	2
 245              		.global	GetPrinterTemplateLine
 246              		.thumb
 247              		.thumb_func
 248              		.type	GetPrinterTemplateLine, %function
 249              	GetPrinterTemplateLine:
 250              	.LFB0:
 251              		.file 1 ".\\PrinterTemplate.c"
   1:.\PrinterTemplate.c **** /* ========================================
   2:.\PrinterTemplate.c ****  *
   3:.\PrinterTemplate.c ****  * Copyright YOUR COMPANY, THE YEAR
   4:.\PrinterTemplate.c ****  * All Rights Reserved
   5:.\PrinterTemplate.c ****  * UNPUBLISHED, LICENSED SOFTWARE.
ARM GAS  C:\Users\RECEPC~1\AppData\Local\Temp\ccRreK3F.s 			page 7


   6:.\PrinterTemplate.c ****  *
   7:.\PrinterTemplate.c ****  * CONFIDENTIAL AND PROPRIETARY INFORMATION
   8:.\PrinterTemplate.c ****  * WHICH IS THE PROPERTY OF your company.
   9:.\PrinterTemplate.c ****  *
  10:.\PrinterTemplate.c ****  * ========================================
  11:.\PrinterTemplate.c **** */
  12:.\PrinterTemplate.c **** #include "Printer.h"
  13:.\PrinterTemplate.c **** 
  14:.\PrinterTemplate.c **** PrinterTemplate _g_printertemplate[] =
  15:.\PrinterTemplate.c **** {
  16:.\PrinterTemplate.c ****     { PRN_DATE,         "Fecha      : " },
  17:.\PrinterTemplate.c ****     { PRN_HOUR,         "Hora       : " },
  18:.\PrinterTemplate.c ****     { PRN_PLATE,        "Placa      : " },
  19:.\PrinterTemplate.c ****     { PRN_SERIAL,       "Serial     : " },
  20:.\PrinterTemplate.c ****     { PRN_MILLEAGE,     "Kilometraje: " },
  21:.\PrinterTemplate.c ****     { PRN_TRANSTYPE,    "Tipo       : " },
  22:.\PrinterTemplate.c ****     { PRN_PUMPPOS,      "Posicion   : " },
  23:.\PrinterTemplate.c ****     { PRN_PRODUCT,      "Producto   : " },
  24:.\PrinterTemplate.c ****     { PRN_PRODPRICE,    "Ppu        : " },
  25:.\PrinterTemplate.c ****     { PRN_VOLUME,       "Volumen    : " },
  26:.\PrinterTemplate.c ****     { PRN_MONEY,        "Dinero     : " },
  27:.\PrinterTemplate.c ****     { PRN_INVNUMBER,    "Consecutivo: " },
  28:.\PrinterTemplate.c ****     { PRN_BALANCE,      "Saldo      : " },
  29:.\PrinterTemplate.c ****     { PRN_COMPANY,      "Empresa    : " },
  30:.\PrinterTemplate.c ****     { PRN_ACCOUNT,      "Cuenta     : " },
  31:.\PrinterTemplate.c ****     { PRN_ACCOUNTTYPE,  "Tipo Cuenta: " },
  32:.\PrinterTemplate.c ****     { PRN_VISITSDAY,    "Visitas Dia: " },
  33:.\PrinterTemplate.c ****     { PRN_VISITSWEEK,   "Visitas Sem: " },
  34:.\PrinterTemplate.c ****     { PRN_VISITSMONTH,  "Visitas Mes: " },
  35:.\PrinterTemplate.c ****     { PRN_VOLUMEDAY,    "Volumen Dia: " },
  36:.\PrinterTemplate.c ****     { PRN_VOLUMEWEEK,   "Volumen Sem: " },
  37:.\PrinterTemplate.c ****     { PRN_VOLUMEMONTH,  "Volumen Mes: " },
  38:.\PrinterTemplate.c ****     { PRN_MONEYDAY,     "Dinero Dia : " },
  39:.\PrinterTemplate.c ****     { PRN_MONEYWEEK,    "Dinero Sem : " },
  40:.\PrinterTemplate.c ****     { PRN_MONEYMONTH,   "Dinero Mes : " },    
  41:.\PrinterTemplate.c ****     { PRN_SIGNATURE,    "Firma      :................. " },
  42:.\PrinterTemplate.c ****     { PRN_ID,           "Cedula     :................. " },
  43:.\PrinterTemplate.c ****     { 0x00,             NULL },
  44:.\PrinterTemplate.c **** };
  45:.\PrinterTemplate.c **** 
  46:.\PrinterTemplate.c **** PrinterTemplate _g_printervolumetemplate[] =
  47:.\PrinterTemplate.c **** {
  48:.\PrinterTemplate.c ****     { PRN_VOLUNIT_US_GALLONS,           " Gal" },//US
  49:.\PrinterTemplate.c ****     { PRN_VOLUNIT_UK_GALLONS,           " Gal" },//UK
  50:.\PrinterTemplate.c ****     { PRN_VOLUNIT_LITERS,               " L" },//Liters
  51:.\PrinterTemplate.c ****     { PRN_VOLUNIT_HAWAIIAN_GALLONS_GAS, " Gal" },//Hawaiian Gallons of Gasoline
  52:.\PrinterTemplate.c ****     { PRN_VOLUNIT_HAWAIIAN_GALLONS_DIE, " Gal" },//Hawaiian Gallons of Diesel
  53:.\PrinterTemplate.c ****     { 0x00,                             NULL }
  54:.\PrinterTemplate.c **** };
  55:.\PrinterTemplate.c **** 
  56:.\PrinterTemplate.c **** PrinterTemplate _g_printerpricetemplate[] =
  57:.\PrinterTemplate.c **** {
  58:.\PrinterTemplate.c ****     { PRN_MONEY_GALLONS,           " $/Gal" },//Money units per Gallon
  59:.\PrinterTemplate.c ****     { PRN_MONEY_LITERS,            " $/L" },//Money units per Liter
  60:.\PrinterTemplate.c ****     { 0x00,                        NULL }
  61:.\PrinterTemplate.c **** };
  62:.\PrinterTemplate.c **** 
ARM GAS  C:\Users\RECEPC~1\AppData\Local\Temp\ccRreK3F.s 			page 8


  63:.\PrinterTemplate.c **** char8* GetPrinterTemplateLine(uint8 lineid)
  64:.\PrinterTemplate.c **** {
 252              		.loc 1 64 0
 253              		.cfi_startproc
 254              		@ args = 0, pretend = 0, frame = 16
 255              		@ frame_needed = 1, uses_anonymous_args = 0
 256              		@ link register save eliminated.
 257 0000 80B4     		push	{r7}
 258              		.cfi_def_cfa_offset 4
 259              		.cfi_offset 7, -4
 260 0002 85B0     		sub	sp, sp, #20
 261              		.cfi_def_cfa_offset 24
 262 0004 00AF     		add	r7, sp, #0
 263              		.cfi_def_cfa_register 7
 264 0006 0346     		mov	r3, r0
 265 0008 FB71     		strb	r3, [r7, #7]
  65:.\PrinterTemplate.c ****     char8* retval = NULL;
 266              		.loc 1 65 0
 267 000a 0023     		movs	r3, #0
 268 000c FB60     		str	r3, [r7, #12]
  66:.\PrinterTemplate.c ****     PNEAR_PRINTERTEMPLATEPTR ptr = &_g_printertemplate[0x00];
 269              		.loc 1 66 0
 270 000e 0D4B     		ldr	r3, .L7
 271 0010 BB60     		str	r3, [r7, #8]
  67:.\PrinterTemplate.c ****     while(ptr->_namedline != 0x00)
 272              		.loc 1 67 0
 273 0012 0BE0     		b	.L2
 274              	.L5:
  68:.\PrinterTemplate.c ****     {
  69:.\PrinterTemplate.c ****         if(ptr->_namedline == lineid)
 275              		.loc 1 69 0
 276 0014 BB68     		ldr	r3, [r7, #8]
 277 0016 1B78     		ldrb	r3, [r3]	@ zero_extendqisi2
 278 0018 FA79     		ldrb	r2, [r7, #7]	@ zero_extendqisi2
 279 001a 9A42     		cmp	r2, r3
 280 001c 03D1     		bne	.L3
  70:.\PrinterTemplate.c ****         {
  71:.\PrinterTemplate.c ****             retval = (char8*)ptr->_pstrline;
 281              		.loc 1 71 0
 282 001e BB68     		ldr	r3, [r7, #8]
 283 0020 5B68     		ldr	r3, [r3, #4]
 284 0022 FB60     		str	r3, [r7, #12]
  72:.\PrinterTemplate.c ****             break;
 285              		.loc 1 72 0
 286 0024 06E0     		b	.L4
 287              	.L3:
  73:.\PrinterTemplate.c ****         }
  74:.\PrinterTemplate.c ****         ptr++;
 288              		.loc 1 74 0
 289 0026 BB68     		ldr	r3, [r7, #8]
 290 0028 0833     		adds	r3, r3, #8
 291 002a BB60     		str	r3, [r7, #8]
 292              	.L2:
  67:.\PrinterTemplate.c ****     {
 293              		.loc 1 67 0
 294 002c BB68     		ldr	r3, [r7, #8]
 295 002e 1B78     		ldrb	r3, [r3]	@ zero_extendqisi2
ARM GAS  C:\Users\RECEPC~1\AppData\Local\Temp\ccRreK3F.s 			page 9


 296 0030 002B     		cmp	r3, #0
 297 0032 EFD1     		bne	.L5
 298              	.L4:
  75:.\PrinterTemplate.c ****     }
  76:.\PrinterTemplate.c ****     return retval;
 299              		.loc 1 76 0
 300 0034 FB68     		ldr	r3, [r7, #12]
  77:.\PrinterTemplate.c **** }
 301              		.loc 1 77 0
 302 0036 1846     		mov	r0, r3
 303 0038 1437     		adds	r7, r7, #20
 304              		.cfi_def_cfa_offset 4
 305 003a BD46     		mov	sp, r7
 306              		.cfi_def_cfa_register 13
 307              		@ sp needed
 308 003c 5DF8047B 		ldr	r7, [sp], #4
 309              		.cfi_restore 7
 310              		.cfi_def_cfa_offset 0
 311 0040 7047     		bx	lr
 312              	.L8:
 313 0042 00BF     		.align	2
 314              	.L7:
 315 0044 00000000 		.word	_g_printertemplate
 316              		.cfi_endproc
 317              	.LFE0:
 318              		.size	GetPrinterTemplateLine, .-GetPrinterTemplateLine
 319              		.section	.text.GetPrinterVolumeTemplateTag,"ax",%progbits
 320              		.align	2
 321              		.global	GetPrinterVolumeTemplateTag
 322              		.thumb
 323              		.thumb_func
 324              		.type	GetPrinterVolumeTemplateTag, %function
 325              	GetPrinterVolumeTemplateTag:
 326              	.LFB1:
  78:.\PrinterTemplate.c **** 
  79:.\PrinterTemplate.c **** char8* GetPrinterVolumeTemplateTag(uint8 lineid)
  80:.\PrinterTemplate.c **** {
 327              		.loc 1 80 0
 328              		.cfi_startproc
 329              		@ args = 0, pretend = 0, frame = 16
 330              		@ frame_needed = 1, uses_anonymous_args = 0
 331              		@ link register save eliminated.
 332 0000 80B4     		push	{r7}
 333              		.cfi_def_cfa_offset 4
 334              		.cfi_offset 7, -4
 335 0002 85B0     		sub	sp, sp, #20
 336              		.cfi_def_cfa_offset 24
 337 0004 00AF     		add	r7, sp, #0
 338              		.cfi_def_cfa_register 7
 339 0006 0346     		mov	r3, r0
 340 0008 FB71     		strb	r3, [r7, #7]
  81:.\PrinterTemplate.c ****     char8* retval = NULL;
 341              		.loc 1 81 0
 342 000a 0023     		movs	r3, #0
 343 000c FB60     		str	r3, [r7, #12]
  82:.\PrinterTemplate.c ****     PNEAR_PRINTERTEMPLATEPTR ptr = &_g_printervolumetemplate[0x00];
 344              		.loc 1 82 0
ARM GAS  C:\Users\RECEPC~1\AppData\Local\Temp\ccRreK3F.s 			page 10


 345 000e 0D4B     		ldr	r3, .L15
 346 0010 BB60     		str	r3, [r7, #8]
  83:.\PrinterTemplate.c ****     while(ptr->_namedline != 0x00)
 347              		.loc 1 83 0
 348 0012 0BE0     		b	.L10
 349              	.L13:
  84:.\PrinterTemplate.c ****     {
  85:.\PrinterTemplate.c ****         if(ptr->_namedline == lineid)
 350              		.loc 1 85 0
 351 0014 BB68     		ldr	r3, [r7, #8]
 352 0016 1B78     		ldrb	r3, [r3]	@ zero_extendqisi2
 353 0018 FA79     		ldrb	r2, [r7, #7]	@ zero_extendqisi2
 354 001a 9A42     		cmp	r2, r3
 355 001c 03D1     		bne	.L11
  86:.\PrinterTemplate.c ****         {
  87:.\PrinterTemplate.c ****             retval = (char8*)ptr->_pstrline;
 356              		.loc 1 87 0
 357 001e BB68     		ldr	r3, [r7, #8]
 358 0020 5B68     		ldr	r3, [r3, #4]
 359 0022 FB60     		str	r3, [r7, #12]
  88:.\PrinterTemplate.c ****             break;
 360              		.loc 1 88 0
 361 0024 06E0     		b	.L12
 362              	.L11:
  89:.\PrinterTemplate.c ****         }
  90:.\PrinterTemplate.c ****         ptr++;
 363              		.loc 1 90 0
 364 0026 BB68     		ldr	r3, [r7, #8]
 365 0028 0833     		adds	r3, r3, #8
 366 002a BB60     		str	r3, [r7, #8]
 367              	.L10:
  83:.\PrinterTemplate.c ****     {
 368              		.loc 1 83 0
 369 002c BB68     		ldr	r3, [r7, #8]
 370 002e 1B78     		ldrb	r3, [r3]	@ zero_extendqisi2
 371 0030 002B     		cmp	r3, #0
 372 0032 EFD1     		bne	.L13
 373              	.L12:
  91:.\PrinterTemplate.c ****     }
  92:.\PrinterTemplate.c ****     return retval;
 374              		.loc 1 92 0
 375 0034 FB68     		ldr	r3, [r7, #12]
  93:.\PrinterTemplate.c **** }
 376              		.loc 1 93 0
 377 0036 1846     		mov	r0, r3
 378 0038 1437     		adds	r7, r7, #20
 379              		.cfi_def_cfa_offset 4
 380 003a BD46     		mov	sp, r7
 381              		.cfi_def_cfa_register 13
 382              		@ sp needed
 383 003c 5DF8047B 		ldr	r7, [sp], #4
 384              		.cfi_restore 7
 385              		.cfi_def_cfa_offset 0
 386 0040 7047     		bx	lr
 387              	.L16:
 388 0042 00BF     		.align	2
 389              	.L15:
ARM GAS  C:\Users\RECEPC~1\AppData\Local\Temp\ccRreK3F.s 			page 11


 390 0044 00000000 		.word	_g_printervolumetemplate
 391              		.cfi_endproc
 392              	.LFE1:
 393              		.size	GetPrinterVolumeTemplateTag, .-GetPrinterVolumeTemplateTag
 394              		.section	.text.GetPrinterPriceTemplateTag,"ax",%progbits
 395              		.align	2
 396              		.global	GetPrinterPriceTemplateTag
 397              		.thumb
 398              		.thumb_func
 399              		.type	GetPrinterPriceTemplateTag, %function
 400              	GetPrinterPriceTemplateTag:
 401              	.LFB2:
  94:.\PrinterTemplate.c **** 
  95:.\PrinterTemplate.c **** char8* GetPrinterPriceTemplateTag(uint8 refid)
  96:.\PrinterTemplate.c **** {
 402              		.loc 1 96 0
 403              		.cfi_startproc
 404              		@ args = 0, pretend = 0, frame = 16
 405              		@ frame_needed = 1, uses_anonymous_args = 0
 406              		@ link register save eliminated.
 407 0000 80B4     		push	{r7}
 408              		.cfi_def_cfa_offset 4
 409              		.cfi_offset 7, -4
 410 0002 85B0     		sub	sp, sp, #20
 411              		.cfi_def_cfa_offset 24
 412 0004 00AF     		add	r7, sp, #0
 413              		.cfi_def_cfa_register 7
 414 0006 0346     		mov	r3, r0
 415 0008 FB71     		strb	r3, [r7, #7]
  97:.\PrinterTemplate.c ****     char8* retval = NULL;
 416              		.loc 1 97 0
 417 000a 0023     		movs	r3, #0
 418 000c FB60     		str	r3, [r7, #12]
  98:.\PrinterTemplate.c ****     if(refid == PRN_MONEY_LITERS)
 419              		.loc 1 98 0
 420 000e FB79     		ldrb	r3, [r7, #7]	@ zero_extendqisi2
 421 0010 032B     		cmp	r3, #3
 422 0012 03D1     		bne	.L18
  99:.\PrinterTemplate.c ****         retval = (char8*)_g_printerpricetemplate[0x01]._pstrline;
 423              		.loc 1 99 0
 424 0014 064B     		ldr	r3, .L21
 425 0016 DB68     		ldr	r3, [r3, #12]
 426 0018 FB60     		str	r3, [r7, #12]
 427 001a 02E0     		b	.L19
 428              	.L18:
 100:.\PrinterTemplate.c ****     else
 101:.\PrinterTemplate.c ****         retval = (char8*)_g_printerpricetemplate[0x00]._pstrline;
 429              		.loc 1 101 0
 430 001c 044B     		ldr	r3, .L21
 431 001e 5B68     		ldr	r3, [r3, #4]
 432 0020 FB60     		str	r3, [r7, #12]
 433              	.L19:
 102:.\PrinterTemplate.c ****         
 103:.\PrinterTemplate.c ****     return retval;
 434              		.loc 1 103 0
 435 0022 FB68     		ldr	r3, [r7, #12]
 104:.\PrinterTemplate.c **** }
ARM GAS  C:\Users\RECEPC~1\AppData\Local\Temp\ccRreK3F.s 			page 12


 436              		.loc 1 104 0
 437 0024 1846     		mov	r0, r3
 438 0026 1437     		adds	r7, r7, #20
 439              		.cfi_def_cfa_offset 4
 440 0028 BD46     		mov	sp, r7
 441              		.cfi_def_cfa_register 13
 442              		@ sp needed
 443 002a 5DF8047B 		ldr	r7, [sp], #4
 444              		.cfi_restore 7
 445              		.cfi_def_cfa_offset 0
 446 002e 7047     		bx	lr
 447              	.L22:
 448              		.align	2
 449              	.L21:
 450 0030 00000000 		.word	_g_printerpricetemplate
 451              		.cfi_endproc
 452              	.LFE2:
 453              		.size	GetPrinterPriceTemplateTag, .-GetPrinterPriceTemplateTag
 454              		.text
 455              	.Letext0:
 456              		.file 2 "Generated_Source\\PSoC5/cytypes.h"
 457              		.file 3 ".\\Printer.h"