ARM GAS  C:\Users\RECEPC~1\AppData\Local\Temp\cc0bMLA1.s 			page 1


   1              		.syntax unified
   2              		.cpu cortex-m3
   3              		.fpu softvfp
   4              		.eabi_attribute 20, 1
   5              		.eabi_attribute 21, 1
   6              		.eabi_attribute 23, 3
   7              		.eabi_attribute 24, 1
   8              		.eabi_attribute 25, 1
   9              		.eabi_attribute 26, 1
  10              		.eabi_attribute 30, 6
  11              		.eabi_attribute 34, 1
  12              		.eabi_attribute 18, 4
  13              		.thumb
  14              		.file	"PrinterBLL.c"
  15              		.text
  16              	.Ltext0:
  17              		.cfi_sections	.debug_frame
  18              		.comm	HoseDispenser,1,1
  19              		.global	_g_linefeed
  20              		.data
  21              		.align	2
  22              		.type	_g_linefeed, %object
  23              		.size	_g_linefeed, 2
  24              	_g_linefeed:
  25 0000 0A       		.byte	10
  26 0001 0D       		.byte	13
  27              		.comm	_g_padcharacters,31,4
  28              		.comm	_g_auxprinterbuffer,31,4
  29              		.comm	_g_separator,31,4
  30              		.global	_g_autocut
  31 0002 0000     		.align	2
  32              		.type	_g_autocut, %object
  33              		.size	_g_autocut, 3
  34              	_g_autocut:
  35 0004 1D       		.byte	29
  36 0005 56       		.byte	86
  37 0006 31       		.byte	49
  38              		.global	_g_starting_position
  39 0007 00       		.align	2
  40              		.type	_g_starting_position, %object
  41              		.size	_g_starting_position, 2
  42              	_g_starting_position:
  43 0008 1D       		.byte	29
  44 0009 0C       		.byte	12
  45              		.global	_g_logoprintcmd
  46 000a 0000     		.align	2
  47              		.type	_g_logoprintcmd, %object
  48              		.size	_g_logoprintcmd, 6
  49              	_g_logoprintcmd:
  50 000c 0A       		.byte	10
  51 000d 1B       		.byte	27
  52 000e 40       		.byte	64
  53 000f 0A       		.byte	10
  54 0010 0A       		.byte	10
  55 0011 0A       		.byte	10
  56 0012 0000     		.section	.text.PrintLogo,"ax",%progbits
  57              		.align	2
ARM GAS  C:\Users\RECEPC~1\AppData\Local\Temp\cc0bMLA1.s 			page 2


  58              		.global	PrintLogo
  59              		.thumb
  60              		.thumb_func
  61              		.type	PrintLogo, %function
  62              	PrintLogo:
  63              	.LFB0:
  64              		.file 1 ".\\PrinterBLL.c"
   1:.\PrinterBLL.c **** /* ========================================
   2:.\PrinterBLL.c ****  *
   3:.\PrinterBLL.c ****  * Copyright INSEPET SISTEMAS, 2016
   4:.\PrinterBLL.c ****  * All Rights Reserved
   5:.\PrinterBLL.c ****  * UNPUBLISHED, LICENSED SOFTWARE.
   6:.\PrinterBLL.c ****  *
   7:.\PrinterBLL.c ****  * CONFIDENTIAL AND PROPRIETARY INFORMATION
   8:.\PrinterBLL.c ****  * WHICH IS THE PROPERTY OF your company.
   9:.\PrinterBLL.c ****  *
  10:.\PrinterBLL.c ****  * ========================================
  11:.\PrinterBLL.c **** @Created By: HIJH
  12:.\PrinterBLL.c **** @Date: Septembre de 2016
  13:.\PrinterBLL.c **** */
  14:.\PrinterBLL.c **** 
  15:.\PrinterBLL.c **** #include "Configuration.h"
  16:.\PrinterBLL.c **** #include "SinkManager.h"
  17:.\PrinterBLL.c **** #include "SinkObservables.h"
  18:.\PrinterBLL.c **** #include "Dispenser.h"
  19:.\PrinterBLL.c **** #include "Display.h"
  20:.\PrinterBLL.c **** #include "Eeprom.h"
  21:.\PrinterBLL.c **** #include "Printer.h"
  22:.\PrinterBLL.c **** #include "AuxPSoC.h"
  23:.\PrinterBLL.c **** #include "Rtc.h"
  24:.\PrinterBLL.c **** 
  25:.\PrinterBLL.c **** uint8 PadSpacesToCenter(uint8 stringlength);
  26:.\PrinterBLL.c **** uint8 MeasurePrinterASCIIBufferLength(PNEAR_BYTE_PTR ptrbuffer);
  27:.\PrinterBLL.c **** 
  28:.\PrinterBLL.c **** void Print(PSINKMESSAGEPTR pmsg, uint8 printerport);
  29:.\PrinterBLL.c **** void PrintGeneric(PSINKMESSAGEPTR pmsg, uint8 printerport);
  30:.\PrinterBLL.c **** void GetProductNameFromPumpAndHose(uint8 pumpid, uint8 hoseid, PNEAR_BYTE_PTR pbuffer);
  31:.\PrinterBLL.c **** uint8 FormatNumberLSDFirst(PNEAR_BYTE_PTR pinput, uint8 inputsize, PNEAR_BYTE_PTR poutput, uint8 de
  32:.\PrinterBLL.c **** 
  33:.\PrinterBLL.c **** uint8 _g_linefeed[] = {_ASCII_LINEFEED_, _ASCII_CR_};
  34:.\PrinterBLL.c **** uint8 _g_padcharacters[_MAX_PRINTER_LINE_WIDTH_];
  35:.\PrinterBLL.c **** uint8 _g_auxprinterbuffer[_MAX_PRINTER_LINE_WIDTH_];
  36:.\PrinterBLL.c **** uint8 _g_separator[_MAX_PRINTER_LINE_WIDTH_];
  37:.\PrinterBLL.c **** uint8 _g_autocut[] = {  0x1D, 0x56, 0x31 };
  38:.\PrinterBLL.c **** uint8 _g_starting_position[] = {  0x1D, 0x0C };
  39:.\PrinterBLL.c **** 
  40:.\PrinterBLL.c **** #ifdef PRINTER_TYPE_PANEL
  41:.\PrinterBLL.c ****     uint8 _g_logoprintcmd[] = { 0x0A, 0x1B, 0x40, 0x0A, 0x0A, 0x0A };
  42:.\PrinterBLL.c **** #endif
  43:.\PrinterBLL.c **** #ifdef PRINTER_TYPE_KIOSK
  44:.\PrinterBLL.c ****     uint8 _g_logoprintcmd[] = { 0x0A, 0x1D, 0x4C, 0x07, 0x00, 0x0A };
  45:.\PrinterBLL.c **** #endif
  46:.\PrinterBLL.c **** 
  47:.\PrinterBLL.c **** extern uint16 _g_logosize;
  48:.\PrinterBLL.c **** extern uint8 *_g_ptrlogo;
  49:.\PrinterBLL.c **** 
  50:.\PrinterBLL.c **** void PrintLogo(uint8 printerport)
ARM GAS  C:\Users\RECEPC~1\AppData\Local\Temp\cc0bMLA1.s 			page 3


  51:.\PrinterBLL.c **** {
  65              		.loc 1 51 0
  66              		.cfi_startproc
  67              		@ args = 0, pretend = 0, frame = 8
  68              		@ frame_needed = 1, uses_anonymous_args = 0
  69 0000 80B5     		push	{r7, lr}
  70              		.cfi_def_cfa_offset 8
  71              		.cfi_offset 7, -8
  72              		.cfi_offset 14, -4
  73 0002 82B0     		sub	sp, sp, #8
  74              		.cfi_def_cfa_offset 16
  75 0004 00AF     		add	r7, sp, #0
  76              		.cfi_def_cfa_register 7
  77 0006 0346     		mov	r3, r0
  78 0008 FB71     		strb	r3, [r7, #7]
  52:.\PrinterBLL.c ****     WriteAuxPSoC((PNEAR_BYTE_PTR)_g_ptrlogo, _g_logosize, printerport);
  79              		.loc 1 52 0
  80 000a 094B     		ldr	r3, .L2
  81 000c 1968     		ldr	r1, [r3]
  82 000e 094B     		ldr	r3, .L2+4
  83 0010 1A88     		ldrh	r2, [r3]
  84 0012 FB79     		ldrb	r3, [r7, #7]	@ zero_extendqisi2
  85 0014 0846     		mov	r0, r1
  86 0016 1146     		mov	r1, r2
  87 0018 1A46     		mov	r2, r3
  88 001a FFF7FEFF 		bl	WriteAuxPSoC
  53:.\PrinterBLL.c ****     WriteAuxPSoC((PNEAR_BYTE_PTR)_g_logoprintcmd, 0x06, printerport);
  89              		.loc 1 53 0
  90 001e FB79     		ldrb	r3, [r7, #7]	@ zero_extendqisi2
  91 0020 0548     		ldr	r0, .L2+8
  92 0022 0621     		movs	r1, #6
  93 0024 1A46     		mov	r2, r3
  94 0026 FFF7FEFF 		bl	WriteAuxPSoC
  54:.\PrinterBLL.c **** }
  95              		.loc 1 54 0
  96 002a 0837     		adds	r7, r7, #8
  97              		.cfi_def_cfa_offset 8
  98 002c BD46     		mov	sp, r7
  99              		.cfi_def_cfa_register 13
 100              		@ sp needed
 101 002e 80BD     		pop	{r7, pc}
 102              	.L3:
 103              		.align	2
 104              	.L2:
 105 0030 00000000 		.word	_g_ptrlogo
 106 0034 00000000 		.word	_g_logosize
 107 0038 00000000 		.word	_g_logoprintcmd
 108              		.cfi_endproc
 109              	.LFE0:
 110              		.size	PrintLogo, .-PrintLogo
 111              		.section	.text.Printer11Callback,"ax",%progbits
 112              		.align	2
 113              		.global	Printer11Callback
 114              		.thumb
 115              		.thumb_func
 116              		.type	Printer11Callback, %function
 117              	Printer11Callback:
ARM GAS  C:\Users\RECEPC~1\AppData\Local\Temp\cc0bMLA1.s 			page 4


 118              	.LFB1:
  55:.\PrinterBLL.c **** 
  56:.\PrinterBLL.c **** //@Created by: HIJH
  57:.\PrinterBLL.c **** //@Date: Octobre 2 de 2016
  58:.\PrinterBLL.c **** //Printer spooler for the printer on port J14 (RS232)
  59:.\PrinterBLL.c **** //Printer ports have been separated to give the chance for 
  60:.\PrinterBLL.c **** //fine adjustments on the print layout between printers independenly.
  61:.\PrinterBLL.c **** void Printer11Callback(void *pdata)
  62:.\PrinterBLL.c **** {
 119              		.loc 1 62 0
 120              		.cfi_startproc
 121              		@ args = 0, pretend = 0, frame = 24
 122              		@ frame_needed = 1, uses_anonymous_args = 0
 123 0000 80B5     		push	{r7, lr}
 124              		.cfi_def_cfa_offset 8
 125              		.cfi_offset 7, -8
 126              		.cfi_offset 14, -4
 127 0002 86B0     		sub	sp, sp, #24
 128              		.cfi_def_cfa_offset 32
 129 0004 00AF     		add	r7, sp, #0
 130              		.cfi_def_cfa_register 7
 131 0006 7860     		str	r0, [r7, #4]
  63:.\PrinterBLL.c ****     PSINKMESSAGEPTR pmsg = (PSINKMESSAGEPTR)pdata;
 132              		.loc 1 63 0
 133 0008 7B68     		ldr	r3, [r7, #4]
 134 000a 3B61     		str	r3, [r7, #16]
  64:.\PrinterBLL.c ****     
  65:.\PrinterBLL.c ****     I2CBusLock();
 135              		.loc 1 65 0
 136 000c FFF7FEFF 		bl	I2CBusLock
  66:.\PrinterBLL.c ****     ClearEepromBuffer();
 137              		.loc 1 66 0
 138 0010 FFF7FEFF 		bl	ClearEepromBuffer
  67:.\PrinterBLL.c ****     LoadEepromPage(EEPROM_CONFIGURATION_PAGE7);
 139              		.loc 1 67 0
 140 0014 4FF4E070 		mov	r0, #448
 141 0018 FFF7FEFF 		bl	LoadEepromPage
  68:.\PrinterBLL.c ****     uint8 numberofprintedcopies = GetEepromBuffer()[0x08];
 142              		.loc 1 68 0
 143 001c FFF7FEFF 		bl	GetEepromBuffer
 144 0020 0346     		mov	r3, r0
 145 0022 1B7A     		ldrb	r3, [r3, #8]
 146 0024 FB73     		strb	r3, [r7, #15]
  69:.\PrinterBLL.c ****     I2CBusUnlock();
 147              		.loc 1 69 0
 148 0026 FFF7FEFF 		bl	I2CBusUnlock
  70:.\PrinterBLL.c ****     
  71:.\PrinterBLL.c ****     FOR(uint8 index = 0, index < numberofprintedcopies, index++)
 149              		.loc 1 71 0
 150 002a 0023     		movs	r3, #0
 151 002c FB75     		strb	r3, [r7, #23]
 152 002e 09E0     		b	.L5
 153              	.L6:
  72:.\PrinterBLL.c ****     {
  73:.\PrinterBLL.c ****         #ifndef _NO_LOGO_
  74:.\PrinterBLL.c ****             PrintLogo(PRINTER_PORT1_SIDE1);
 154              		.loc 1 74 0 discriminator 3
ARM GAS  C:\Users\RECEPC~1\AppData\Local\Temp\cc0bMLA1.s 			page 5


 155 0030 0120     		movs	r0, #1
 156 0032 FFF7FEFF 		bl	PrintLogo
  75:.\PrinterBLL.c ****         #endif
  76:.\PrinterBLL.c ****         Print(pmsg, PRINTER_PORT1_SIDE1);
 157              		.loc 1 76 0 discriminator 3
 158 0036 3869     		ldr	r0, [r7, #16]
 159 0038 0121     		movs	r1, #1
 160 003a FFF7FEFF 		bl	Print
  71:.\PrinterBLL.c ****     {
 161              		.loc 1 71 0 discriminator 3
 162 003e FB7D     		ldrb	r3, [r7, #23]	@ zero_extendqisi2
 163 0040 0133     		adds	r3, r3, #1
 164 0042 FB75     		strb	r3, [r7, #23]
 165              	.L5:
  71:.\PrinterBLL.c ****     {
 166              		.loc 1 71 0 is_stmt 0 discriminator 1
 167 0044 FA7D     		ldrb	r2, [r7, #23]	@ zero_extendqisi2
 168 0046 FB7B     		ldrb	r3, [r7, #15]	@ zero_extendqisi2
 169 0048 9A42     		cmp	r2, r3
 170 004a F1D3     		bcc	.L6
  77:.\PrinterBLL.c ****     }
  78:.\PrinterBLL.c **** }
 171              		.loc 1 78 0 is_stmt 1
 172 004c 1837     		adds	r7, r7, #24
 173              		.cfi_def_cfa_offset 8
 174 004e BD46     		mov	sp, r7
 175              		.cfi_def_cfa_register 13
 176              		@ sp needed
 177 0050 80BD     		pop	{r7, pc}
 178              		.cfi_endproc
 179              	.LFE1:
 180              		.size	Printer11Callback, .-Printer11Callback
 181 0052 00BF     		.section	.text.Printer12Callback,"ax",%progbits
 182              		.align	2
 183              		.global	Printer12Callback
 184              		.thumb
 185              		.thumb_func
 186              		.type	Printer12Callback, %function
 187              	Printer12Callback:
 188              	.LFB2:
  79:.\PrinterBLL.c **** 
  80:.\PrinterBLL.c **** //@Created by: HIJH
  81:.\PrinterBLL.c **** //@Date: Octobre 2 de 2016
  82:.\PrinterBLL.c **** //Printer spooler for the printer on port J16 (TTL)
  83:.\PrinterBLL.c **** //Printer ports have been separated to give the chance for 
  84:.\PrinterBLL.c **** //fine adjustments on the print layout between printers independenly.
  85:.\PrinterBLL.c **** void Printer12Callback(void *pdata)
  86:.\PrinterBLL.c **** {
 189              		.loc 1 86 0
 190              		.cfi_startproc
 191              		@ args = 0, pretend = 0, frame = 24
 192              		@ frame_needed = 1, uses_anonymous_args = 0
 193 0000 80B5     		push	{r7, lr}
 194              		.cfi_def_cfa_offset 8
 195              		.cfi_offset 7, -8
 196              		.cfi_offset 14, -4
 197 0002 86B0     		sub	sp, sp, #24
ARM GAS  C:\Users\RECEPC~1\AppData\Local\Temp\cc0bMLA1.s 			page 6


 198              		.cfi_def_cfa_offset 32
 199 0004 00AF     		add	r7, sp, #0
 200              		.cfi_def_cfa_register 7
 201 0006 7860     		str	r0, [r7, #4]
  87:.\PrinterBLL.c ****     PSINKMESSAGEPTR pmsg = (PSINKMESSAGEPTR)pdata;
 202              		.loc 1 87 0
 203 0008 7B68     		ldr	r3, [r7, #4]
 204 000a 3B61     		str	r3, [r7, #16]
  88:.\PrinterBLL.c **** 
  89:.\PrinterBLL.c ****     I2CBusLock();
 205              		.loc 1 89 0
 206 000c FFF7FEFF 		bl	I2CBusLock
  90:.\PrinterBLL.c ****     ClearEepromBuffer();
 207              		.loc 1 90 0
 208 0010 FFF7FEFF 		bl	ClearEepromBuffer
  91:.\PrinterBLL.c ****     LoadEepromPage(EEPROM_CONFIGURATION_PAGE7);
 209              		.loc 1 91 0
 210 0014 4FF4E070 		mov	r0, #448
 211 0018 FFF7FEFF 		bl	LoadEepromPage
  92:.\PrinterBLL.c ****     uint8 numberofprintedcopies = GetEepromBuffer()[0x08];
 212              		.loc 1 92 0
 213 001c FFF7FEFF 		bl	GetEepromBuffer
 214 0020 0346     		mov	r3, r0
 215 0022 1B7A     		ldrb	r3, [r3, #8]
 216 0024 FB73     		strb	r3, [r7, #15]
  93:.\PrinterBLL.c ****     I2CBusUnlock();
 217              		.loc 1 93 0
 218 0026 FFF7FEFF 		bl	I2CBusUnlock
  94:.\PrinterBLL.c ****     
  95:.\PrinterBLL.c ****     FOR(uint8 index = 0, index < numberofprintedcopies, index++)
 219              		.loc 1 95 0
 220 002a 0023     		movs	r3, #0
 221 002c FB75     		strb	r3, [r7, #23]
 222 002e 09E0     		b	.L8
 223              	.L9:
  96:.\PrinterBLL.c ****     {
  97:.\PrinterBLL.c ****         #ifndef _NO_LOGO_
  98:.\PrinterBLL.c ****             PrintLogo(PRINTER_PORT1_SIDE2);
 224              		.loc 1 98 0 discriminator 3
 225 0030 0320     		movs	r0, #3
 226 0032 FFF7FEFF 		bl	PrintLogo
  99:.\PrinterBLL.c ****         #endif
 100:.\PrinterBLL.c ****         Print(pmsg, PRINTER_PORT1_SIDE2);
 227              		.loc 1 100 0 discriminator 3
 228 0036 3869     		ldr	r0, [r7, #16]
 229 0038 0321     		movs	r1, #3
 230 003a FFF7FEFF 		bl	Print
  95:.\PrinterBLL.c ****     {
 231              		.loc 1 95 0 discriminator 3
 232 003e FB7D     		ldrb	r3, [r7, #23]	@ zero_extendqisi2
 233 0040 0133     		adds	r3, r3, #1
 234 0042 FB75     		strb	r3, [r7, #23]
 235              	.L8:
  95:.\PrinterBLL.c ****     {
 236              		.loc 1 95 0 is_stmt 0 discriminator 1
 237 0044 FA7D     		ldrb	r2, [r7, #23]	@ zero_extendqisi2
 238 0046 FB7B     		ldrb	r3, [r7, #15]	@ zero_extendqisi2
ARM GAS  C:\Users\RECEPC~1\AppData\Local\Temp\cc0bMLA1.s 			page 7


 239 0048 9A42     		cmp	r2, r3
 240 004a F1D3     		bcc	.L9
 101:.\PrinterBLL.c ****     }
 102:.\PrinterBLL.c **** }
 241              		.loc 1 102 0 is_stmt 1
 242 004c 1837     		adds	r7, r7, #24
 243              		.cfi_def_cfa_offset 8
 244 004e BD46     		mov	sp, r7
 245              		.cfi_def_cfa_register 13
 246              		@ sp needed
 247 0050 80BD     		pop	{r7, pc}
 248              		.cfi_endproc
 249              	.LFE2:
 250              		.size	Printer12Callback, .-Printer12Callback
 251 0052 00BF     		.section	.text.Printer21Callback,"ax",%progbits
 252              		.align	2
 253              		.global	Printer21Callback
 254              		.thumb
 255              		.thumb_func
 256              		.type	Printer21Callback, %function
 257              	Printer21Callback:
 258              	.LFB3:
 103:.\PrinterBLL.c **** 
 104:.\PrinterBLL.c **** //@Created by: HIJH
 105:.\PrinterBLL.c **** //@Date: Octobre 2 de 2016
 106:.\PrinterBLL.c **** //Printer spooler for the printer on port J15 (RS232)
 107:.\PrinterBLL.c **** //Printer ports have been separated to give the chance for 
 108:.\PrinterBLL.c **** //fine adjustments on the print layout between printers independenly.
 109:.\PrinterBLL.c **** void Printer21Callback(void *pdata)
 110:.\PrinterBLL.c **** {
 259              		.loc 1 110 0
 260              		.cfi_startproc
 261              		@ args = 0, pretend = 0, frame = 24
 262              		@ frame_needed = 1, uses_anonymous_args = 0
 263 0000 80B5     		push	{r7, lr}
 264              		.cfi_def_cfa_offset 8
 265              		.cfi_offset 7, -8
 266              		.cfi_offset 14, -4
 267 0002 86B0     		sub	sp, sp, #24
 268              		.cfi_def_cfa_offset 32
 269 0004 00AF     		add	r7, sp, #0
 270              		.cfi_def_cfa_register 7
 271 0006 7860     		str	r0, [r7, #4]
 111:.\PrinterBLL.c ****     PSINKMESSAGEPTR pmsg = (PSINKMESSAGEPTR)pdata;
 272              		.loc 1 111 0
 273 0008 7B68     		ldr	r3, [r7, #4]
 274 000a 3B61     		str	r3, [r7, #16]
 112:.\PrinterBLL.c **** 
 113:.\PrinterBLL.c ****     I2CBusLock();
 275              		.loc 1 113 0
 276 000c FFF7FEFF 		bl	I2CBusLock
 114:.\PrinterBLL.c ****     ClearEepromBuffer();
 277              		.loc 1 114 0
 278 0010 FFF7FEFF 		bl	ClearEepromBuffer
 115:.\PrinterBLL.c ****     LoadEepromPage(EEPROM_CONFIGURATION_PAGE7);
 279              		.loc 1 115 0
 280 0014 4FF4E070 		mov	r0, #448
ARM GAS  C:\Users\RECEPC~1\AppData\Local\Temp\cc0bMLA1.s 			page 8


 281 0018 FFF7FEFF 		bl	LoadEepromPage
 116:.\PrinterBLL.c ****     uint8 numberofprintedcopies = GetEepromBuffer()[0x08];
 282              		.loc 1 116 0
 283 001c FFF7FEFF 		bl	GetEepromBuffer
 284 0020 0346     		mov	r3, r0
 285 0022 1B7A     		ldrb	r3, [r3, #8]
 286 0024 FB73     		strb	r3, [r7, #15]
 117:.\PrinterBLL.c ****     I2CBusUnlock();
 287              		.loc 1 117 0
 288 0026 FFF7FEFF 		bl	I2CBusUnlock
 118:.\PrinterBLL.c ****     
 119:.\PrinterBLL.c ****     FOR(uint8 index = 0, index < numberofprintedcopies, index++)
 289              		.loc 1 119 0
 290 002a 0023     		movs	r3, #0
 291 002c FB75     		strb	r3, [r7, #23]
 292 002e 09E0     		b	.L11
 293              	.L12:
 120:.\PrinterBLL.c ****     {
 121:.\PrinterBLL.c ****         #ifndef _NO_LOGO_
 122:.\PrinterBLL.c ****             PrintLogo(PRINTER_PORT2_SIDE1);
 294              		.loc 1 122 0 discriminator 3
 295 0030 0220     		movs	r0, #2
 296 0032 FFF7FEFF 		bl	PrintLogo
 123:.\PrinterBLL.c ****         #endif
 124:.\PrinterBLL.c ****         Print(pmsg, PRINTER_PORT2_SIDE1);
 297              		.loc 1 124 0 discriminator 3
 298 0036 3869     		ldr	r0, [r7, #16]
 299 0038 0221     		movs	r1, #2
 300 003a FFF7FEFF 		bl	Print
 119:.\PrinterBLL.c ****     {
 301              		.loc 1 119 0 discriminator 3
 302 003e FB7D     		ldrb	r3, [r7, #23]	@ zero_extendqisi2
 303 0040 0133     		adds	r3, r3, #1
 304 0042 FB75     		strb	r3, [r7, #23]
 305              	.L11:
 119:.\PrinterBLL.c ****     {
 306              		.loc 1 119 0 is_stmt 0 discriminator 1
 307 0044 FA7D     		ldrb	r2, [r7, #23]	@ zero_extendqisi2
 308 0046 FB7B     		ldrb	r3, [r7, #15]	@ zero_extendqisi2
 309 0048 9A42     		cmp	r2, r3
 310 004a F1D3     		bcc	.L12
 125:.\PrinterBLL.c ****     }
 126:.\PrinterBLL.c **** }
 311              		.loc 1 126 0 is_stmt 1
 312 004c 1837     		adds	r7, r7, #24
 313              		.cfi_def_cfa_offset 8
 314 004e BD46     		mov	sp, r7
 315              		.cfi_def_cfa_register 13
 316              		@ sp needed
 317 0050 80BD     		pop	{r7, pc}
 318              		.cfi_endproc
 319              	.LFE3:
 320              		.size	Printer21Callback, .-Printer21Callback
 321 0052 00BF     		.section	.text.Printer22Callback,"ax",%progbits
 322              		.align	2
 323              		.global	Printer22Callback
 324              		.thumb
ARM GAS  C:\Users\RECEPC~1\AppData\Local\Temp\cc0bMLA1.s 			page 9


 325              		.thumb_func
 326              		.type	Printer22Callback, %function
 327              	Printer22Callback:
 328              	.LFB4:
 127:.\PrinterBLL.c **** 
 128:.\PrinterBLL.c **** //@Created by: HIJH
 129:.\PrinterBLL.c **** //@Date: Octobre 2 de 2016
 130:.\PrinterBLL.c **** //Printer spooler for the printer on port J17 (TTL)
 131:.\PrinterBLL.c **** //Printer ports have been separated to give the chance for 
 132:.\PrinterBLL.c **** //fine adjustments on the print layout between printers independenly.
 133:.\PrinterBLL.c **** void Printer22Callback(void *pdata)
 134:.\PrinterBLL.c **** {
 329              		.loc 1 134 0
 330              		.cfi_startproc
 331              		@ args = 0, pretend = 0, frame = 24
 332              		@ frame_needed = 1, uses_anonymous_args = 0
 333 0000 80B5     		push	{r7, lr}
 334              		.cfi_def_cfa_offset 8
 335              		.cfi_offset 7, -8
 336              		.cfi_offset 14, -4
 337 0002 86B0     		sub	sp, sp, #24
 338              		.cfi_def_cfa_offset 32
 339 0004 00AF     		add	r7, sp, #0
 340              		.cfi_def_cfa_register 7
 341 0006 7860     		str	r0, [r7, #4]
 135:.\PrinterBLL.c ****     PSINKMESSAGEPTR pmsg = (PSINKMESSAGEPTR)pdata;
 342              		.loc 1 135 0
 343 0008 7B68     		ldr	r3, [r7, #4]
 344 000a 3B61     		str	r3, [r7, #16]
 136:.\PrinterBLL.c **** 
 137:.\PrinterBLL.c ****     I2CBusLock();
 345              		.loc 1 137 0
 346 000c FFF7FEFF 		bl	I2CBusLock
 138:.\PrinterBLL.c ****     ClearEepromBuffer();
 347              		.loc 1 138 0
 348 0010 FFF7FEFF 		bl	ClearEepromBuffer
 139:.\PrinterBLL.c ****     LoadEepromPage(EEPROM_CONFIGURATION_PAGE7);
 349              		.loc 1 139 0
 350 0014 4FF4E070 		mov	r0, #448
 351 0018 FFF7FEFF 		bl	LoadEepromPage
 140:.\PrinterBLL.c ****     uint8 numberofprintedcopies = GetEepromBuffer()[0x08];
 352              		.loc 1 140 0
 353 001c FFF7FEFF 		bl	GetEepromBuffer
 354 0020 0346     		mov	r3, r0
 355 0022 1B7A     		ldrb	r3, [r3, #8]
 356 0024 FB73     		strb	r3, [r7, #15]
 141:.\PrinterBLL.c ****     I2CBusUnlock();
 357              		.loc 1 141 0
 358 0026 FFF7FEFF 		bl	I2CBusUnlock
 142:.\PrinterBLL.c ****     
 143:.\PrinterBLL.c ****     FOR(uint8 index = 0, index < numberofprintedcopies, index++)
 359              		.loc 1 143 0
 360 002a 0023     		movs	r3, #0
 361 002c FB75     		strb	r3, [r7, #23]
 362 002e 09E0     		b	.L14
 363              	.L15:
 144:.\PrinterBLL.c ****     {
ARM GAS  C:\Users\RECEPC~1\AppData\Local\Temp\cc0bMLA1.s 			page 10


 145:.\PrinterBLL.c ****         #ifndef _NO_LOGO_
 146:.\PrinterBLL.c ****             PrintLogo(PRINTER_PORT2_SIDE2);
 364              		.loc 1 146 0 discriminator 3
 365 0030 0420     		movs	r0, #4
 366 0032 FFF7FEFF 		bl	PrintLogo
 147:.\PrinterBLL.c ****         #endif
 148:.\PrinterBLL.c ****         Print(pmsg, PRINTER_PORT2_SIDE2);
 367              		.loc 1 148 0 discriminator 3
 368 0036 3869     		ldr	r0, [r7, #16]
 369 0038 0421     		movs	r1, #4
 370 003a FFF7FEFF 		bl	Print
 143:.\PrinterBLL.c ****     {
 371              		.loc 1 143 0 discriminator 3
 372 003e FB7D     		ldrb	r3, [r7, #23]	@ zero_extendqisi2
 373 0040 0133     		adds	r3, r3, #1
 374 0042 FB75     		strb	r3, [r7, #23]
 375              	.L14:
 143:.\PrinterBLL.c ****     {
 376              		.loc 1 143 0 is_stmt 0 discriminator 1
 377 0044 FA7D     		ldrb	r2, [r7, #23]	@ zero_extendqisi2
 378 0046 FB7B     		ldrb	r3, [r7, #15]	@ zero_extendqisi2
 379 0048 9A42     		cmp	r2, r3
 380 004a F1D3     		bcc	.L15
 149:.\PrinterBLL.c ****     }
 150:.\PrinterBLL.c **** }
 381              		.loc 1 150 0 is_stmt 1
 382 004c 1837     		adds	r7, r7, #24
 383              		.cfi_def_cfa_offset 8
 384 004e BD46     		mov	sp, r7
 385              		.cfi_def_cfa_register 13
 386              		@ sp needed
 387 0050 80BD     		pop	{r7, pc}
 388              		.cfi_endproc
 389              	.LFE4:
 390              		.size	Printer22Callback, .-Printer22Callback
 391 0052 00BF     		.section	.text.Printer1GenericCallback,"ax",%progbits
 392              		.align	2
 393              		.global	Printer1GenericCallback
 394              		.thumb
 395              		.thumb_func
 396              		.type	Printer1GenericCallback, %function
 397              	Printer1GenericCallback:
 398              	.LFB5:
 151:.\PrinterBLL.c **** 
 152:.\PrinterBLL.c **** //@Created by: HIJH
 153:.\PrinterBLL.c **** //@Date: Octobre 2 de 2016
 154:.\PrinterBLL.c **** //Printer spooler for the printer on port J17 (TTL)
 155:.\PrinterBLL.c **** //Printer ports have been separated to give the chance for 
 156:.\PrinterBLL.c **** //fine adjustments on the print layout between printers independenly.
 157:.\PrinterBLL.c **** void Printer1GenericCallback(void *pdata)
 158:.\PrinterBLL.c **** {
 399              		.loc 1 158 0
 400              		.cfi_startproc
 401              		@ args = 0, pretend = 0, frame = 16
 402              		@ frame_needed = 1, uses_anonymous_args = 0
 403 0000 80B5     		push	{r7, lr}
 404              		.cfi_def_cfa_offset 8
ARM GAS  C:\Users\RECEPC~1\AppData\Local\Temp\cc0bMLA1.s 			page 11


 405              		.cfi_offset 7, -8
 406              		.cfi_offset 14, -4
 407 0002 84B0     		sub	sp, sp, #16
 408              		.cfi_def_cfa_offset 24
 409 0004 00AF     		add	r7, sp, #0
 410              		.cfi_def_cfa_register 7
 411 0006 7860     		str	r0, [r7, #4]
 159:.\PrinterBLL.c ****     PSINKMESSAGEPTR pmsg = (PSINKMESSAGEPTR)pdata;
 412              		.loc 1 159 0
 413 0008 7B68     		ldr	r3, [r7, #4]
 414 000a FB60     		str	r3, [r7, #12]
 160:.\PrinterBLL.c ****     PrintGeneric(pmsg, PRINTER_PORT1_SIDE1);
 415              		.loc 1 160 0
 416 000c F868     		ldr	r0, [r7, #12]
 417 000e 0121     		movs	r1, #1
 418 0010 FFF7FEFF 		bl	PrintGeneric
 161:.\PrinterBLL.c **** }
 419              		.loc 1 161 0
 420 0014 1037     		adds	r7, r7, #16
 421              		.cfi_def_cfa_offset 8
 422 0016 BD46     		mov	sp, r7
 423              		.cfi_def_cfa_register 13
 424              		@ sp needed
 425 0018 80BD     		pop	{r7, pc}
 426              		.cfi_endproc
 427              	.LFE5:
 428              		.size	Printer1GenericCallback, .-Printer1GenericCallback
 429 001a 00BF     		.section	.text.Printer2GenericCallback,"ax",%progbits
 430              		.align	2
 431              		.global	Printer2GenericCallback
 432              		.thumb
 433              		.thumb_func
 434              		.type	Printer2GenericCallback, %function
 435              	Printer2GenericCallback:
 436              	.LFB6:
 162:.\PrinterBLL.c **** 
 163:.\PrinterBLL.c **** void Printer2GenericCallback(void *pdata)
 164:.\PrinterBLL.c **** {
 437              		.loc 1 164 0
 438              		.cfi_startproc
 439              		@ args = 0, pretend = 0, frame = 16
 440              		@ frame_needed = 1, uses_anonymous_args = 0
 441 0000 80B5     		push	{r7, lr}
 442              		.cfi_def_cfa_offset 8
 443              		.cfi_offset 7, -8
 444              		.cfi_offset 14, -4
 445 0002 84B0     		sub	sp, sp, #16
 446              		.cfi_def_cfa_offset 24
 447 0004 00AF     		add	r7, sp, #0
 448              		.cfi_def_cfa_register 7
 449 0006 7860     		str	r0, [r7, #4]
 165:.\PrinterBLL.c ****     PSINKMESSAGEPTR pmsg = (PSINKMESSAGEPTR)pdata;
 450              		.loc 1 165 0
 451 0008 7B68     		ldr	r3, [r7, #4]
 452 000a FB60     		str	r3, [r7, #12]
 166:.\PrinterBLL.c ****     PrintGeneric(pmsg, PRINTER_PORT2_SIDE1);
 453              		.loc 1 166 0
ARM GAS  C:\Users\RECEPC~1\AppData\Local\Temp\cc0bMLA1.s 			page 12


 454 000c F868     		ldr	r0, [r7, #12]
 455 000e 0221     		movs	r1, #2
 456 0010 FFF7FEFF 		bl	PrintGeneric
 167:.\PrinterBLL.c **** }
 457              		.loc 1 167 0
 458 0014 1037     		adds	r7, r7, #16
 459              		.cfi_def_cfa_offset 8
 460 0016 BD46     		mov	sp, r7
 461              		.cfi_def_cfa_register 13
 462              		@ sp needed
 463 0018 80BD     		pop	{r7, pc}
 464              		.cfi_endproc
 465              	.LFE6:
 466              		.size	Printer2GenericCallback, .-Printer2GenericCallback
 467 001a 00BF     		.section	.text.MeasurePrinterASCIIBufferLength,"ax",%progbits
 468              		.align	2
 469              		.global	MeasurePrinterASCIIBufferLength
 470              		.thumb
 471              		.thumb_func
 472              		.type	MeasurePrinterASCIIBufferLength, %function
 473              	MeasurePrinterASCIIBufferLength:
 474              	.LFB7:
 168:.\PrinterBLL.c **** 
 169:.\PrinterBLL.c **** //@Created by: HIJH
 170:.\PrinterBLL.c **** //@Date: Octobre de 2016
 171:.\PrinterBLL.c **** //Counts the number of characters until either an EOS (End Of String, \0 = 0x00)
 172:.\PrinterBLL.c **** //or the maximum length for the printer line is reached.
 173:.\PrinterBLL.c **** uint8 MeasurePrinterASCIIBufferLength(PNEAR_BYTE_PTR ptrbuffer)
 174:.\PrinterBLL.c **** {
 475              		.loc 1 174 0
 476              		.cfi_startproc
 477              		@ args = 0, pretend = 0, frame = 16
 478              		@ frame_needed = 1, uses_anonymous_args = 0
 479              		@ link register save eliminated.
 480 0000 80B4     		push	{r7}
 481              		.cfi_def_cfa_offset 4
 482              		.cfi_offset 7, -4
 483 0002 85B0     		sub	sp, sp, #20
 484              		.cfi_def_cfa_offset 24
 485 0004 00AF     		add	r7, sp, #0
 486              		.cfi_def_cfa_register 7
 487 0006 7860     		str	r0, [r7, #4]
 175:.\PrinterBLL.c ****     uint8 retval = 0x00;
 488              		.loc 1 175 0
 489 0008 0023     		movs	r3, #0
 490 000a FB73     		strb	r3, [r7, #15]
 176:.\PrinterBLL.c ****     while((ptrbuffer[retval] !=  _EOS_) && (retval < _MAX_PRINTER_LINE_WIDTH_))
 491              		.loc 1 176 0
 492 000c 02E0     		b	.L19
 493              	.L21:
 177:.\PrinterBLL.c ****         retval++;
 494              		.loc 1 177 0
 495 000e FB7B     		ldrb	r3, [r7, #15]	@ zero_extendqisi2
 496 0010 0133     		adds	r3, r3, #1
 497 0012 FB73     		strb	r3, [r7, #15]
 498              	.L19:
 176:.\PrinterBLL.c ****     while((ptrbuffer[retval] !=  _EOS_) && (retval < _MAX_PRINTER_LINE_WIDTH_))
ARM GAS  C:\Users\RECEPC~1\AppData\Local\Temp\cc0bMLA1.s 			page 13


 499              		.loc 1 176 0
 500 0014 FB7B     		ldrb	r3, [r7, #15]	@ zero_extendqisi2
 501 0016 7A68     		ldr	r2, [r7, #4]
 502 0018 1344     		add	r3, r3, r2
 503 001a 1B78     		ldrb	r3, [r3]	@ zero_extendqisi2
 504 001c 002B     		cmp	r3, #0
 505 001e 02D0     		beq	.L20
 176:.\PrinterBLL.c ****     while((ptrbuffer[retval] !=  _EOS_) && (retval < _MAX_PRINTER_LINE_WIDTH_))
 506              		.loc 1 176 0 is_stmt 0 discriminator 1
 507 0020 FB7B     		ldrb	r3, [r7, #15]	@ zero_extendqisi2
 508 0022 1E2B     		cmp	r3, #30
 509 0024 F3D9     		bls	.L21
 510              	.L20:
 178:.\PrinterBLL.c ****     
 179:.\PrinterBLL.c ****     return retval;
 511              		.loc 1 179 0 is_stmt 1
 512 0026 FB7B     		ldrb	r3, [r7, #15]	@ zero_extendqisi2
 180:.\PrinterBLL.c **** }
 513              		.loc 1 180 0
 514 0028 1846     		mov	r0, r3
 515 002a 1437     		adds	r7, r7, #20
 516              		.cfi_def_cfa_offset 4
 517 002c BD46     		mov	sp, r7
 518              		.cfi_def_cfa_register 13
 519              		@ sp needed
 520 002e 5DF8047B 		ldr	r7, [sp], #4
 521              		.cfi_restore 7
 522              		.cfi_def_cfa_offset 0
 523 0032 7047     		bx	lr
 524              		.cfi_endproc
 525              	.LFE7:
 526              		.size	MeasurePrinterASCIIBufferLength, .-MeasurePrinterASCIIBufferLength
 527              		.section	.text.Printer1GenericCallbacklogo,"ax",%progbits
 528              		.align	2
 529              		.global	Printer1GenericCallbacklogo
 530              		.thumb
 531              		.thumb_func
 532              		.type	Printer1GenericCallbacklogo, %function
 533              	Printer1GenericCallbacklogo:
 534              	.LFB8:
 181:.\PrinterBLL.c **** //////////////LOGO
 182:.\PrinterBLL.c **** void Printer1GenericCallbacklogo(void *pdata)
 183:.\PrinterBLL.c **** {
 535              		.loc 1 183 0
 536              		.cfi_startproc
 537              		@ args = 0, pretend = 0, frame = 16
 538              		@ frame_needed = 1, uses_anonymous_args = 0
 539 0000 80B5     		push	{r7, lr}
 540              		.cfi_def_cfa_offset 8
 541              		.cfi_offset 7, -8
 542              		.cfi_offset 14, -4
 543 0002 84B0     		sub	sp, sp, #16
 544              		.cfi_def_cfa_offset 24
 545 0004 00AF     		add	r7, sp, #0
 546              		.cfi_def_cfa_register 7
 547 0006 7860     		str	r0, [r7, #4]
 184:.\PrinterBLL.c ****     PSINKMESSAGEPTR pmsg = (PSINKMESSAGEPTR)pdata;
ARM GAS  C:\Users\RECEPC~1\AppData\Local\Temp\cc0bMLA1.s 			page 14


 548              		.loc 1 184 0
 549 0008 7B68     		ldr	r3, [r7, #4]
 550 000a FB60     		str	r3, [r7, #12]
 185:.\PrinterBLL.c ****     PrintLogo(PRINTER_PORT1_SIDE1);    
 551              		.loc 1 185 0
 552 000c 0120     		movs	r0, #1
 553 000e FFF7FEFF 		bl	PrintLogo
 186:.\PrinterBLL.c **** }
 554              		.loc 1 186 0
 555 0012 1037     		adds	r7, r7, #16
 556              		.cfi_def_cfa_offset 8
 557 0014 BD46     		mov	sp, r7
 558              		.cfi_def_cfa_register 13
 559              		@ sp needed
 560 0016 80BD     		pop	{r7, pc}
 561              		.cfi_endproc
 562              	.LFE8:
 563              		.size	Printer1GenericCallbacklogo, .-Printer1GenericCallbacklogo
 564              		.section	.text.Printer2GenericCallbacklogo,"ax",%progbits
 565              		.align	2
 566              		.global	Printer2GenericCallbacklogo
 567              		.thumb
 568              		.thumb_func
 569              		.type	Printer2GenericCallbacklogo, %function
 570              	Printer2GenericCallbacklogo:
 571              	.LFB9:
 187:.\PrinterBLL.c **** void Printer2GenericCallbacklogo(void *pdata)
 188:.\PrinterBLL.c **** {
 572              		.loc 1 188 0
 573              		.cfi_startproc
 574              		@ args = 0, pretend = 0, frame = 16
 575              		@ frame_needed = 1, uses_anonymous_args = 0
 576 0000 80B5     		push	{r7, lr}
 577              		.cfi_def_cfa_offset 8
 578              		.cfi_offset 7, -8
 579              		.cfi_offset 14, -4
 580 0002 84B0     		sub	sp, sp, #16
 581              		.cfi_def_cfa_offset 24
 582 0004 00AF     		add	r7, sp, #0
 583              		.cfi_def_cfa_register 7
 584 0006 7860     		str	r0, [r7, #4]
 189:.\PrinterBLL.c ****     PSINKMESSAGEPTR pmsg = (PSINKMESSAGEPTR)pdata;
 585              		.loc 1 189 0
 586 0008 7B68     		ldr	r3, [r7, #4]
 587 000a FB60     		str	r3, [r7, #12]
 190:.\PrinterBLL.c ****     PrintLogo(PRINTER_PORT2_SIDE1);    
 588              		.loc 1 190 0
 589 000c 0220     		movs	r0, #2
 590 000e FFF7FEFF 		bl	PrintLogo
 191:.\PrinterBLL.c **** }
 591              		.loc 1 191 0
 592 0012 1037     		adds	r7, r7, #16
 593              		.cfi_def_cfa_offset 8
 594 0014 BD46     		mov	sp, r7
 595              		.cfi_def_cfa_register 13
 596              		@ sp needed
 597 0016 80BD     		pop	{r7, pc}
ARM GAS  C:\Users\RECEPC~1\AppData\Local\Temp\cc0bMLA1.s 			page 15


 598              		.cfi_endproc
 599              	.LFE9:
 600              		.size	Printer2GenericCallbacklogo, .-Printer2GenericCallbacklogo
 601              		.section	.text.PadSpacesToCenter,"ax",%progbits
 602              		.align	2
 603              		.global	PadSpacesToCenter
 604              		.thumb
 605              		.thumb_func
 606              		.type	PadSpacesToCenter, %function
 607              	PadSpacesToCenter:
 608              	.LFB10:
 192:.\PrinterBLL.c **** //@Created by: HIJH
 193:.\PrinterBLL.c **** //@Date: Octobre de 2016
 194:.\PrinterBLL.c **** //Counts the number of Spaces to add in order to center the printed text
 195:.\PrinterBLL.c **** uint8 PadSpacesToCenter(uint8 stringlength)
 196:.\PrinterBLL.c **** {
 609              		.loc 1 196 0
 610              		.cfi_startproc
 611              		@ args = 0, pretend = 0, frame = 8
 612              		@ frame_needed = 1, uses_anonymous_args = 0
 613              		@ link register save eliminated.
 614 0000 80B4     		push	{r7}
 615              		.cfi_def_cfa_offset 4
 616              		.cfi_offset 7, -4
 617 0002 83B0     		sub	sp, sp, #12
 618              		.cfi_def_cfa_offset 16
 619 0004 00AF     		add	r7, sp, #0
 620              		.cfi_def_cfa_register 7
 621 0006 0346     		mov	r3, r0
 622 0008 FB71     		strb	r3, [r7, #7]
 197:.\PrinterBLL.c ****     return (uint8)((_MAX_PRINTER_LINE_WIDTH_ - stringlength)/2);
 623              		.loc 1 197 0
 624 000a FB79     		ldrb	r3, [r7, #7]	@ zero_extendqisi2
 625 000c C3F11F03 		rsb	r3, r3, #31
 626 0010 DA0F     		lsrs	r2, r3, #31
 627 0012 1344     		add	r3, r3, r2
 628 0014 5B10     		asrs	r3, r3, #1
 629 0016 DBB2     		uxtb	r3, r3
 198:.\PrinterBLL.c **** }
 630              		.loc 1 198 0
 631 0018 1846     		mov	r0, r3
 632 001a 0C37     		adds	r7, r7, #12
 633              		.cfi_def_cfa_offset 4
 634 001c BD46     		mov	sp, r7
 635              		.cfi_def_cfa_register 13
 636              		@ sp needed
 637 001e 5DF8047B 		ldr	r7, [sp], #4
 638              		.cfi_restore 7
 639              		.cfi_def_cfa_offset 0
 640 0022 7047     		bx	lr
 641              		.cfi_endproc
 642              	.LFE10:
 643              		.size	PadSpacesToCenter, .-PadSpacesToCenter
 644              		.section	.text.GetProductNameFromPumpAndHose,"ax",%progbits
 645              		.align	2
 646              		.global	GetProductNameFromPumpAndHose
 647              		.thumb
ARM GAS  C:\Users\RECEPC~1\AppData\Local\Temp\cc0bMLA1.s 			page 16


 648              		.thumb_func
 649              		.type	GetProductNameFromPumpAndHose, %function
 650              	GetProductNameFromPumpAndHose:
 651              	.LFB11:
 199:.\PrinterBLL.c **** 
 200:.\PrinterBLL.c **** void GetProductNameFromPumpAndHose(uint8 pumpid, uint8 hoseid, PNEAR_BYTE_PTR pbuffer)
 201:.\PrinterBLL.c **** {
 652              		.loc 1 201 0
 653              		.cfi_startproc
 654              		@ args = 0, pretend = 0, frame = 16
 655              		@ frame_needed = 1, uses_anonymous_args = 0
 656 0000 80B5     		push	{r7, lr}
 657              		.cfi_def_cfa_offset 8
 658              		.cfi_offset 7, -8
 659              		.cfi_offset 14, -4
 660 0002 84B0     		sub	sp, sp, #16
 661              		.cfi_def_cfa_offset 24
 662 0004 00AF     		add	r7, sp, #0
 663              		.cfi_def_cfa_register 7
 664 0006 0346     		mov	r3, r0
 665 0008 3A60     		str	r2, [r7]
 666 000a FB71     		strb	r3, [r7, #7]
 667 000c 0B46     		mov	r3, r1
 668 000e BB71     		strb	r3, [r7, #6]
 202:.\PrinterBLL.c ****     ClearEepromBuffer();
 669              		.loc 1 202 0
 670 0010 FFF7FEFF 		bl	ClearEepromBuffer
 203:.\PrinterBLL.c ****     LoadEepromPage(EEPROM_DISPENSER_PUMP1_LAYOUT_PAGE);
 671              		.loc 1 203 0
 672 0014 4FF40070 		mov	r0, #512
 673 0018 FFF7FEFF 		bl	LoadEepromPage
 204:.\PrinterBLL.c ****     if(pumpid == GetEepromBuffer()[0])
 674              		.loc 1 204 0
 675 001c FFF7FEFF 		bl	GetEepromBuffer
 676 0020 0346     		mov	r3, r0
 677 0022 1B78     		ldrb	r3, [r3]	@ zero_extendqisi2
 678 0024 FA79     		ldrb	r2, [r7, #7]	@ zero_extendqisi2
 679 0026 9A42     		cmp	r2, r3
 680 0028 66D1     		bne	.L28
 681              	.LBB2:
 205:.\PrinterBLL.c ****     {
 206:.\PrinterBLL.c ****         uint8 memid = 0x00;
 682              		.loc 1 206 0
 683 002a 0023     		movs	r3, #0
 684 002c FB73     		strb	r3, [r7, #15]
 207:.\PrinterBLL.c ****         switch(hoseid)
 685              		.loc 1 207 0
 686 002e BB79     		ldrb	r3, [r7, #6]	@ zero_extendqisi2
 687 0030 032B     		cmp	r3, #3
 688 0032 23D8     		bhi	.L29
 689 0034 01A2     		adr	r2, .L31
 690 0036 52F823F0 		ldr	pc, [r2, r3, lsl #2]
 691 003a 00BF     		.p2align 2
 692              	.L31:
 693 003c 4D000000 		.word	.L30+1
 694 0040 59000000 		.word	.L32+1
 695 0044 65000000 		.word	.L33+1
ARM GAS  C:\Users\RECEPC~1\AppData\Local\Temp\cc0bMLA1.s 			page 17


 696 0048 71000000 		.word	.L34+1
 697              		.p2align 1
 698              	.L30:
 208:.\PrinterBLL.c ****         {
 209:.\PrinterBLL.c ****             case 0x00:
 210:.\PrinterBLL.c ****             memid = GetEepromBuffer()[0x01];
 699              		.loc 1 210 0
 700 004c FFF7FEFF 		bl	GetEepromBuffer
 701 0050 0346     		mov	r3, r0
 702 0052 5B78     		ldrb	r3, [r3, #1]
 703 0054 FB73     		strb	r3, [r7, #15]
 211:.\PrinterBLL.c ****             break;
 704              		.loc 1 211 0
 705 0056 11E0     		b	.L29
 706              	.L32:
 212:.\PrinterBLL.c ****             case 0x01:
 213:.\PrinterBLL.c ****             memid = GetEepromBuffer()[0x02];
 707              		.loc 1 213 0
 708 0058 FFF7FEFF 		bl	GetEepromBuffer
 709 005c 0346     		mov	r3, r0
 710 005e 9B78     		ldrb	r3, [r3, #2]
 711 0060 FB73     		strb	r3, [r7, #15]
 214:.\PrinterBLL.c ****             break;
 712              		.loc 1 214 0
 713 0062 0BE0     		b	.L29
 714              	.L33:
 215:.\PrinterBLL.c ****             case 0x02:
 216:.\PrinterBLL.c ****             memid = GetEepromBuffer()[0x03];
 715              		.loc 1 216 0
 716 0064 FFF7FEFF 		bl	GetEepromBuffer
 717 0068 0346     		mov	r3, r0
 718 006a DB78     		ldrb	r3, [r3, #3]
 719 006c FB73     		strb	r3, [r7, #15]
 217:.\PrinterBLL.c ****             break;
 720              		.loc 1 217 0
 721 006e 05E0     		b	.L29
 722              	.L34:
 218:.\PrinterBLL.c ****             case 0x03:
 219:.\PrinterBLL.c ****             memid = GetEepromBuffer()[0x04];
 723              		.loc 1 219 0
 724 0070 FFF7FEFF 		bl	GetEepromBuffer
 725 0074 0346     		mov	r3, r0
 726 0076 1B79     		ldrb	r3, [r3, #4]
 727 0078 FB73     		strb	r3, [r7, #15]
 220:.\PrinterBLL.c ****             break;
 728              		.loc 1 220 0
 729 007a 00BF     		nop
 730              	.L29:
 221:.\PrinterBLL.c ****         }
 222:.\PrinterBLL.c ****         
 223:.\PrinterBLL.c ****         ClearEepromBuffer();
 731              		.loc 1 223 0
 732 007c FFF7FEFF 		bl	ClearEepromBuffer
 224:.\PrinterBLL.c ****         LoadEepromPage(EEPROM_DISPENSER_PUMP1_PRODUCT_NAMES_PAGE);
 733              		.loc 1 224 0
 734 0080 4FF44070 		mov	r0, #768
 735 0084 FFF7FEFF 		bl	LoadEepromPage
ARM GAS  C:\Users\RECEPC~1\AppData\Local\Temp\cc0bMLA1.s 			page 18


 225:.\PrinterBLL.c ****         switch(memid)
 736              		.loc 1 225 0
 737 0088 FB7B     		ldrb	r3, [r7, #15]	@ zero_extendqisi2
 738 008a 013B     		subs	r3, r3, #1
 739 008c 032B     		cmp	r3, #3
 740 008e 00F29081 		bhi	.L80
 741 0092 01A2     		adr	r2, .L37
 742 0094 52F823F0 		ldr	pc, [r2, r3, lsl #2]
 743              		.p2align 2
 744              	.L37:
 745 0098 A9000000 		.word	.L36+1
 746 009c BB000000 		.word	.L38+1
 747 00a0 CF000000 		.word	.L39+1
 748 00a4 E3000000 		.word	.L40+1
 749              		.p2align 1
 750              	.L36:
 226:.\PrinterBLL.c ****         {
 227:.\PrinterBLL.c ****             case 0x01:
 228:.\PrinterBLL.c ****             memcpy(pbuffer, &GetEepromBuffer()[_EEPROM_PAGE_FIRST16START_], _EEPROM_QUARTER_PAGE_SI
 751              		.loc 1 228 0
 752 00a8 FFF7FEFF 		bl	GetEepromBuffer
 753 00ac 0346     		mov	r3, r0
 754 00ae 3868     		ldr	r0, [r7]
 755 00b0 1946     		mov	r1, r3
 756 00b2 1022     		movs	r2, #16
 757 00b4 FFF7FEFF 		bl	memcpy
 229:.\PrinterBLL.c ****             break;
 758              		.loc 1 229 0
 759 00b8 1DE0     		b	.L35
 760              	.L38:
 230:.\PrinterBLL.c ****             case 0x02:
 231:.\PrinterBLL.c ****             memcpy(pbuffer, &GetEepromBuffer()[_EEPROM_PAGE_SECOND16START_], _EEPROM_QUARTER_PAGE_S
 761              		.loc 1 231 0
 762 00ba FFF7FEFF 		bl	GetEepromBuffer
 763 00be 0346     		mov	r3, r0
 764 00c0 1033     		adds	r3, r3, #16
 765 00c2 3868     		ldr	r0, [r7]
 766 00c4 1946     		mov	r1, r3
 767 00c6 1022     		movs	r2, #16
 768 00c8 FFF7FEFF 		bl	memcpy
 232:.\PrinterBLL.c ****             break;
 769              		.loc 1 232 0
 770 00cc 13E0     		b	.L35
 771              	.L39:
 233:.\PrinterBLL.c ****             case 0x03:
 234:.\PrinterBLL.c ****             memcpy(pbuffer, &GetEepromBuffer()[_EEPROM_PAGE_THIRD16START_], _EEPROM_QUARTER_PAGE_SI
 772              		.loc 1 234 0
 773 00ce FFF7FEFF 		bl	GetEepromBuffer
 774 00d2 0346     		mov	r3, r0
 775 00d4 2033     		adds	r3, r3, #32
 776 00d6 3868     		ldr	r0, [r7]
 777 00d8 1946     		mov	r1, r3
 778 00da 1022     		movs	r2, #16
 779 00dc FFF7FEFF 		bl	memcpy
 235:.\PrinterBLL.c ****             break;
 780              		.loc 1 235 0
 781 00e0 09E0     		b	.L35
ARM GAS  C:\Users\RECEPC~1\AppData\Local\Temp\cc0bMLA1.s 			page 19


 782              	.L40:
 236:.\PrinterBLL.c ****             case 0x04:
 237:.\PrinterBLL.c ****             memcpy(pbuffer, &GetEepromBuffer()[_EEPROM_PAGE_FOURTH16START_], _EEPROM_QUARTER_PAGE_S
 783              		.loc 1 237 0
 784 00e2 FFF7FEFF 		bl	GetEepromBuffer
 785 00e6 0346     		mov	r3, r0
 786 00e8 3033     		adds	r3, r3, #48
 787 00ea 3868     		ldr	r0, [r7]
 788 00ec 1946     		mov	r1, r3
 789 00ee 1022     		movs	r2, #16
 790 00f0 FFF7FEFF 		bl	memcpy
 238:.\PrinterBLL.c ****             break;
 791              		.loc 1 238 0
 792 00f4 00BF     		nop
 793              	.L35:
 239:.\PrinterBLL.c ****         }
 240:.\PrinterBLL.c ****         return;
 794              		.loc 1 240 0
 795 00f6 5CE1     		b	.L80
 796              	.L28:
 797              	.LBE2:
 241:.\PrinterBLL.c ****     }
 242:.\PrinterBLL.c ****     ClearEepromBuffer();    
 798              		.loc 1 242 0
 799 00f8 FFF7FEFF 		bl	ClearEepromBuffer
 243:.\PrinterBLL.c ****     LoadEepromPage(EEPROM_DISPENSER_PUMP2_LAYOUT_PAGE);
 800              		.loc 1 243 0
 801 00fc 4FF41070 		mov	r0, #576
 802 0100 FFF7FEFF 		bl	LoadEepromPage
 244:.\PrinterBLL.c ****     if(pumpid == GetEepromBuffer()[0])
 803              		.loc 1 244 0
 804 0104 FFF7FEFF 		bl	GetEepromBuffer
 805 0108 0346     		mov	r3, r0
 806 010a 1B78     		ldrb	r3, [r3]	@ zero_extendqisi2
 807 010c FA79     		ldrb	r2, [r7, #7]	@ zero_extendqisi2
 808 010e 9A42     		cmp	r2, r3
 809 0110 66D1     		bne	.L42
 810              	.LBB3:
 245:.\PrinterBLL.c ****     {
 246:.\PrinterBLL.c ****         uint8 memid = 0x00;
 811              		.loc 1 246 0
 812 0112 0023     		movs	r3, #0
 813 0114 BB73     		strb	r3, [r7, #14]
 247:.\PrinterBLL.c ****         switch(hoseid)
 814              		.loc 1 247 0
 815 0116 BB79     		ldrb	r3, [r7, #6]	@ zero_extendqisi2
 816 0118 032B     		cmp	r3, #3
 817 011a 23D8     		bhi	.L43
 818 011c 01A2     		adr	r2, .L45
 819 011e 52F823F0 		ldr	pc, [r2, r3, lsl #2]
 820 0122 00BF     		.p2align 2
 821              	.L45:
 822 0124 35010000 		.word	.L44+1
 823 0128 41010000 		.word	.L46+1
 824 012c 4D010000 		.word	.L47+1
 825 0130 59010000 		.word	.L48+1
 826              		.p2align 1
ARM GAS  C:\Users\RECEPC~1\AppData\Local\Temp\cc0bMLA1.s 			page 20


 827              	.L44:
 248:.\PrinterBLL.c ****         {
 249:.\PrinterBLL.c ****             case 0x00:
 250:.\PrinterBLL.c ****             memid = GetEepromBuffer()[0x01];
 828              		.loc 1 250 0
 829 0134 FFF7FEFF 		bl	GetEepromBuffer
 830 0138 0346     		mov	r3, r0
 831 013a 5B78     		ldrb	r3, [r3, #1]
 832 013c BB73     		strb	r3, [r7, #14]
 251:.\PrinterBLL.c ****             break;
 833              		.loc 1 251 0
 834 013e 11E0     		b	.L43
 835              	.L46:
 252:.\PrinterBLL.c ****             case 0x01:
 253:.\PrinterBLL.c ****             memid = GetEepromBuffer()[0x02];
 836              		.loc 1 253 0
 837 0140 FFF7FEFF 		bl	GetEepromBuffer
 838 0144 0346     		mov	r3, r0
 839 0146 9B78     		ldrb	r3, [r3, #2]
 840 0148 BB73     		strb	r3, [r7, #14]
 254:.\PrinterBLL.c ****             break;
 841              		.loc 1 254 0
 842 014a 0BE0     		b	.L43
 843              	.L47:
 255:.\PrinterBLL.c ****             case 0x02:
 256:.\PrinterBLL.c ****             memid = GetEepromBuffer()[0x03];
 844              		.loc 1 256 0
 845 014c FFF7FEFF 		bl	GetEepromBuffer
 846 0150 0346     		mov	r3, r0
 847 0152 DB78     		ldrb	r3, [r3, #3]
 848 0154 BB73     		strb	r3, [r7, #14]
 257:.\PrinterBLL.c ****             break;
 849              		.loc 1 257 0
 850 0156 05E0     		b	.L43
 851              	.L48:
 258:.\PrinterBLL.c ****             case 0x03:
 259:.\PrinterBLL.c ****             memid = GetEepromBuffer()[0x04];
 852              		.loc 1 259 0
 853 0158 FFF7FEFF 		bl	GetEepromBuffer
 854 015c 0346     		mov	r3, r0
 855 015e 1B79     		ldrb	r3, [r3, #4]
 856 0160 BB73     		strb	r3, [r7, #14]
 260:.\PrinterBLL.c ****             break;
 857              		.loc 1 260 0
 858 0162 00BF     		nop
 859              	.L43:
 261:.\PrinterBLL.c ****         }
 262:.\PrinterBLL.c ****         
 263:.\PrinterBLL.c ****         ClearEepromBuffer();
 860              		.loc 1 263 0
 861 0164 FFF7FEFF 		bl	ClearEepromBuffer
 264:.\PrinterBLL.c ****         LoadEepromPage(EEPROM_DISPENSER_PUMP2_PRODUCT_NAMES_PAGE);
 862              		.loc 1 264 0
 863 0168 4FF45070 		mov	r0, #832
 864 016c FFF7FEFF 		bl	LoadEepromPage
 265:.\PrinterBLL.c ****         switch(memid)
 865              		.loc 1 265 0
ARM GAS  C:\Users\RECEPC~1\AppData\Local\Temp\cc0bMLA1.s 			page 21


 866 0170 BB7B     		ldrb	r3, [r7, #14]	@ zero_extendqisi2
 867 0172 013B     		subs	r3, r3, #1
 868 0174 032B     		cmp	r3, #3
 869 0176 00F21E81 		bhi	.L81
 870 017a 01A2     		adr	r2, .L51
 871 017c 52F823F0 		ldr	pc, [r2, r3, lsl #2]
 872              		.p2align 2
 873              	.L51:
 874 0180 91010000 		.word	.L50+1
 875 0184 A3010000 		.word	.L52+1
 876 0188 B7010000 		.word	.L53+1
 877 018c CB010000 		.word	.L54+1
 878              		.p2align 1
 879              	.L50:
 266:.\PrinterBLL.c ****         {
 267:.\PrinterBLL.c ****             case 0x01:
 268:.\PrinterBLL.c ****             memcpy(pbuffer, &GetEepromBuffer()[_EEPROM_PAGE_FIRST16START_], _EEPROM_QUARTER_PAGE_SI
 880              		.loc 1 268 0
 881 0190 FFF7FEFF 		bl	GetEepromBuffer
 882 0194 0346     		mov	r3, r0
 883 0196 3868     		ldr	r0, [r7]
 884 0198 1946     		mov	r1, r3
 885 019a 1022     		movs	r2, #16
 886 019c FFF7FEFF 		bl	memcpy
 269:.\PrinterBLL.c ****             break;
 887              		.loc 1 269 0
 888 01a0 1DE0     		b	.L49
 889              	.L52:
 270:.\PrinterBLL.c ****             case 0x02:
 271:.\PrinterBLL.c ****             memcpy(pbuffer, &GetEepromBuffer()[_EEPROM_PAGE_SECOND16START_], _EEPROM_QUARTER_PAGE_S
 890              		.loc 1 271 0
 891 01a2 FFF7FEFF 		bl	GetEepromBuffer
 892 01a6 0346     		mov	r3, r0
 893 01a8 1033     		adds	r3, r3, #16
 894 01aa 3868     		ldr	r0, [r7]
 895 01ac 1946     		mov	r1, r3
 896 01ae 1022     		movs	r2, #16
 897 01b0 FFF7FEFF 		bl	memcpy
 272:.\PrinterBLL.c ****             break;
 898              		.loc 1 272 0
 899 01b4 13E0     		b	.L49
 900              	.L53:
 273:.\PrinterBLL.c ****             case 0x03:
 274:.\PrinterBLL.c ****             memcpy(pbuffer, &GetEepromBuffer()[_EEPROM_PAGE_THIRD16START_], _EEPROM_QUARTER_PAGE_SI
 901              		.loc 1 274 0
 902 01b6 FFF7FEFF 		bl	GetEepromBuffer
 903 01ba 0346     		mov	r3, r0
 904 01bc 2033     		adds	r3, r3, #32
 905 01be 3868     		ldr	r0, [r7]
 906 01c0 1946     		mov	r1, r3
 907 01c2 1022     		movs	r2, #16
 908 01c4 FFF7FEFF 		bl	memcpy
 275:.\PrinterBLL.c ****             break;
 909              		.loc 1 275 0
 910 01c8 09E0     		b	.L49
 911              	.L54:
 276:.\PrinterBLL.c ****             case 0x04:
ARM GAS  C:\Users\RECEPC~1\AppData\Local\Temp\cc0bMLA1.s 			page 22


 277:.\PrinterBLL.c ****             memcpy(pbuffer, &GetEepromBuffer()[_EEPROM_PAGE_FOURTH16START_], _EEPROM_QUARTER_PAGE_S
 912              		.loc 1 277 0
 913 01ca FFF7FEFF 		bl	GetEepromBuffer
 914 01ce 0346     		mov	r3, r0
 915 01d0 3033     		adds	r3, r3, #48
 916 01d2 3868     		ldr	r0, [r7]
 917 01d4 1946     		mov	r1, r3
 918 01d6 1022     		movs	r2, #16
 919 01d8 FFF7FEFF 		bl	memcpy
 278:.\PrinterBLL.c ****             break;
 920              		.loc 1 278 0
 921 01dc 00BF     		nop
 922              	.L49:
 279:.\PrinterBLL.c ****         }
 280:.\PrinterBLL.c ****         return;
 923              		.loc 1 280 0 discriminator 2
 924 01de EAE0     		b	.L81
 925              	.L42:
 926              	.LBE3:
 281:.\PrinterBLL.c ****     }
 282:.\PrinterBLL.c ****     ClearEepromBuffer();    
 927              		.loc 1 282 0
 928 01e0 FFF7FEFF 		bl	ClearEepromBuffer
 283:.\PrinterBLL.c ****     LoadEepromPage(EEPROM_DISPENSER_PUMP3_LAYOUT_PAGE);
 929              		.loc 1 283 0
 930 01e4 4FF42070 		mov	r0, #640
 931 01e8 FFF7FEFF 		bl	LoadEepromPage
 284:.\PrinterBLL.c ****     if(pumpid == GetEepromBuffer()[0])
 932              		.loc 1 284 0
 933 01ec FFF7FEFF 		bl	GetEepromBuffer
 934 01f0 0346     		mov	r3, r0
 935 01f2 1B78     		ldrb	r3, [r3]	@ zero_extendqisi2
 936 01f4 FA79     		ldrb	r2, [r7, #7]	@ zero_extendqisi2
 937 01f6 9A42     		cmp	r2, r3
 938 01f8 66D1     		bne	.L55
 939              	.LBB4:
 285:.\PrinterBLL.c ****     {
 286:.\PrinterBLL.c ****         uint8 memid = 0x00;
 940              		.loc 1 286 0
 941 01fa 0023     		movs	r3, #0
 942 01fc 7B73     		strb	r3, [r7, #13]
 287:.\PrinterBLL.c ****         switch(hoseid)
 943              		.loc 1 287 0
 944 01fe BB79     		ldrb	r3, [r7, #6]	@ zero_extendqisi2
 945 0200 032B     		cmp	r3, #3
 946 0202 23D8     		bhi	.L56
 947 0204 01A2     		adr	r2, .L58
 948 0206 52F823F0 		ldr	pc, [r2, r3, lsl #2]
 949 020a 00BF     		.p2align 2
 950              	.L58:
 951 020c 1D020000 		.word	.L57+1
 952 0210 29020000 		.word	.L59+1
 953 0214 35020000 		.word	.L60+1
 954 0218 41020000 		.word	.L61+1
 955              		.p2align 1
 956              	.L57:
 288:.\PrinterBLL.c ****         {
ARM GAS  C:\Users\RECEPC~1\AppData\Local\Temp\cc0bMLA1.s 			page 23


 289:.\PrinterBLL.c ****             case 0x00:
 290:.\PrinterBLL.c ****             memid = GetEepromBuffer()[0x01];
 957              		.loc 1 290 0
 958 021c FFF7FEFF 		bl	GetEepromBuffer
 959 0220 0346     		mov	r3, r0
 960 0222 5B78     		ldrb	r3, [r3, #1]
 961 0224 7B73     		strb	r3, [r7, #13]
 291:.\PrinterBLL.c ****             break;
 962              		.loc 1 291 0
 963 0226 11E0     		b	.L56
 964              	.L59:
 292:.\PrinterBLL.c ****             case 0x01:
 293:.\PrinterBLL.c ****             memid = GetEepromBuffer()[0x02];
 965              		.loc 1 293 0
 966 0228 FFF7FEFF 		bl	GetEepromBuffer
 967 022c 0346     		mov	r3, r0
 968 022e 9B78     		ldrb	r3, [r3, #2]
 969 0230 7B73     		strb	r3, [r7, #13]
 294:.\PrinterBLL.c ****             break;
 970              		.loc 1 294 0
 971 0232 0BE0     		b	.L56
 972              	.L60:
 295:.\PrinterBLL.c ****             case 0x02:
 296:.\PrinterBLL.c ****             memid = GetEepromBuffer()[0x03];
 973              		.loc 1 296 0
 974 0234 FFF7FEFF 		bl	GetEepromBuffer
 975 0238 0346     		mov	r3, r0
 976 023a DB78     		ldrb	r3, [r3, #3]
 977 023c 7B73     		strb	r3, [r7, #13]
 297:.\PrinterBLL.c ****             break;
 978              		.loc 1 297 0
 979 023e 05E0     		b	.L56
 980              	.L61:
 298:.\PrinterBLL.c ****             case 0x03:
 299:.\PrinterBLL.c ****             memid = GetEepromBuffer()[0x04];
 981              		.loc 1 299 0
 982 0240 FFF7FEFF 		bl	GetEepromBuffer
 983 0244 0346     		mov	r3, r0
 984 0246 1B79     		ldrb	r3, [r3, #4]
 985 0248 7B73     		strb	r3, [r7, #13]
 300:.\PrinterBLL.c ****             break;
 986              		.loc 1 300 0
 987 024a 00BF     		nop
 988              	.L56:
 301:.\PrinterBLL.c ****         }
 302:.\PrinterBLL.c ****         
 303:.\PrinterBLL.c ****         ClearEepromBuffer();
 989              		.loc 1 303 0
 990 024c FFF7FEFF 		bl	ClearEepromBuffer
 304:.\PrinterBLL.c ****         LoadEepromPage(EEPROM_DISPENSER_PUMP3_PRODUCT_NAMES_PAGE);
 991              		.loc 1 304 0
 992 0250 4FF46070 		mov	r0, #896
 993 0254 FFF7FEFF 		bl	LoadEepromPage
 305:.\PrinterBLL.c ****         switch(memid)
 994              		.loc 1 305 0
 995 0258 7B7B     		ldrb	r3, [r7, #13]	@ zero_extendqisi2
 996 025a 013B     		subs	r3, r3, #1
ARM GAS  C:\Users\RECEPC~1\AppData\Local\Temp\cc0bMLA1.s 			page 24


 997 025c 032B     		cmp	r3, #3
 998 025e 00F2AC80 		bhi	.L82
 999 0262 01A2     		adr	r2, .L64
 1000 0264 52F823F0 		ldr	pc, [r2, r3, lsl #2]
 1001              		.p2align 2
 1002              	.L64:
 1003 0268 79020000 		.word	.L63+1
 1004 026c 8B020000 		.word	.L65+1
 1005 0270 9F020000 		.word	.L66+1
 1006 0274 B3020000 		.word	.L67+1
 1007              		.p2align 1
 1008              	.L63:
 306:.\PrinterBLL.c ****         {
 307:.\PrinterBLL.c ****             case 0x01:
 308:.\PrinterBLL.c ****             memcpy(pbuffer, &GetEepromBuffer()[_EEPROM_PAGE_FIRST16START_], _EEPROM_QUARTER_PAGE_SI
 1009              		.loc 1 308 0
 1010 0278 FFF7FEFF 		bl	GetEepromBuffer
 1011 027c 0346     		mov	r3, r0
 1012 027e 3868     		ldr	r0, [r7]
 1013 0280 1946     		mov	r1, r3
 1014 0282 1022     		movs	r2, #16
 1015 0284 FFF7FEFF 		bl	memcpy
 309:.\PrinterBLL.c ****             break;
 1016              		.loc 1 309 0
 1017 0288 1DE0     		b	.L62
 1018              	.L65:
 310:.\PrinterBLL.c ****             case 0x02:
 311:.\PrinterBLL.c ****             memcpy(pbuffer, &GetEepromBuffer()[_EEPROM_PAGE_SECOND16START_], _EEPROM_QUARTER_PAGE_S
 1019              		.loc 1 311 0
 1020 028a FFF7FEFF 		bl	GetEepromBuffer
 1021 028e 0346     		mov	r3, r0
 1022 0290 1033     		adds	r3, r3, #16
 1023 0292 3868     		ldr	r0, [r7]
 1024 0294 1946     		mov	r1, r3
 1025 0296 1022     		movs	r2, #16
 1026 0298 FFF7FEFF 		bl	memcpy
 312:.\PrinterBLL.c ****             break;
 1027              		.loc 1 312 0
 1028 029c 13E0     		b	.L62
 1029              	.L66:
 313:.\PrinterBLL.c ****             case 0x03:
 314:.\PrinterBLL.c ****             memcpy(pbuffer, &GetEepromBuffer()[_EEPROM_PAGE_THIRD16START_], _EEPROM_QUARTER_PAGE_SI
 1030              		.loc 1 314 0
 1031 029e FFF7FEFF 		bl	GetEepromBuffer
 1032 02a2 0346     		mov	r3, r0
 1033 02a4 2033     		adds	r3, r3, #32
 1034 02a6 3868     		ldr	r0, [r7]
 1035 02a8 1946     		mov	r1, r3
 1036 02aa 1022     		movs	r2, #16
 1037 02ac FFF7FEFF 		bl	memcpy
 315:.\PrinterBLL.c ****             break;
 1038              		.loc 1 315 0
 1039 02b0 09E0     		b	.L62
 1040              	.L67:
 316:.\PrinterBLL.c ****             case 0x04:
 317:.\PrinterBLL.c ****             memcpy(pbuffer, &GetEepromBuffer()[_EEPROM_PAGE_FOURTH16START_], _EEPROM_QUARTER_PAGE_S
 1041              		.loc 1 317 0
ARM GAS  C:\Users\RECEPC~1\AppData\Local\Temp\cc0bMLA1.s 			page 25


 1042 02b2 FFF7FEFF 		bl	GetEepromBuffer
 1043 02b6 0346     		mov	r3, r0
 1044 02b8 3033     		adds	r3, r3, #48
 1045 02ba 3868     		ldr	r0, [r7]
 1046 02bc 1946     		mov	r1, r3
 1047 02be 1022     		movs	r2, #16
 1048 02c0 FFF7FEFF 		bl	memcpy
 318:.\PrinterBLL.c ****             break;
 1049              		.loc 1 318 0
 1050 02c4 00BF     		nop
 1051              	.L62:
 319:.\PrinterBLL.c ****         }
 320:.\PrinterBLL.c ****         return;
 1052              		.loc 1 320 0 discriminator 3
 1053 02c6 78E0     		b	.L82
 1054              	.L55:
 1055              	.LBE4:
 321:.\PrinterBLL.c ****     }
 322:.\PrinterBLL.c ****     ClearEepromBuffer();    
 1056              		.loc 1 322 0
 1057 02c8 FFF7FEFF 		bl	ClearEepromBuffer
 323:.\PrinterBLL.c ****     LoadEepromPage(EEPROM_DISPENSER_PUMP4_LAYOUT_PAGE);
 1058              		.loc 1 323 0
 1059 02cc 4FF43070 		mov	r0, #704
 1060 02d0 FFF7FEFF 		bl	LoadEepromPage
 324:.\PrinterBLL.c ****     if(pumpid == GetEepromBuffer()[0])
 1061              		.loc 1 324 0
 1062 02d4 FFF7FEFF 		bl	GetEepromBuffer
 1063 02d8 0346     		mov	r3, r0
 1064 02da 1B78     		ldrb	r3, [r3]	@ zero_extendqisi2
 1065 02dc FA79     		ldrb	r2, [r7, #7]	@ zero_extendqisi2
 1066 02de 9A42     		cmp	r2, r3
 1067 02e0 6ED1     		bne	.L27
 1068              	.LBB5:
 325:.\PrinterBLL.c ****     {
 326:.\PrinterBLL.c ****         uint8 memid = 0x00;
 1069              		.loc 1 326 0
 1070 02e2 0023     		movs	r3, #0
 1071 02e4 3B73     		strb	r3, [r7, #12]
 327:.\PrinterBLL.c ****         switch(hoseid)
 1072              		.loc 1 327 0
 1073 02e6 BB79     		ldrb	r3, [r7, #6]	@ zero_extendqisi2
 1074 02e8 032B     		cmp	r3, #3
 1075 02ea 23D8     		bhi	.L68
 1076 02ec 01A2     		adr	r2, .L70
 1077 02ee 52F823F0 		ldr	pc, [r2, r3, lsl #2]
 1078 02f2 00BF     		.p2align 2
 1079              	.L70:
 1080 02f4 05030000 		.word	.L69+1
 1081 02f8 11030000 		.word	.L71+1
 1082 02fc 1D030000 		.word	.L72+1
 1083 0300 29030000 		.word	.L73+1
 1084              		.p2align 1
 1085              	.L69:
 328:.\PrinterBLL.c ****         {
 329:.\PrinterBLL.c ****             case 0x00:
 330:.\PrinterBLL.c ****             memid = GetEepromBuffer()[0x01];
ARM GAS  C:\Users\RECEPC~1\AppData\Local\Temp\cc0bMLA1.s 			page 26


 1086              		.loc 1 330 0
 1087 0304 FFF7FEFF 		bl	GetEepromBuffer
 1088 0308 0346     		mov	r3, r0
 1089 030a 5B78     		ldrb	r3, [r3, #1]
 1090 030c 3B73     		strb	r3, [r7, #12]
 331:.\PrinterBLL.c ****             break;
 1091              		.loc 1 331 0
 1092 030e 11E0     		b	.L68
 1093              	.L71:
 332:.\PrinterBLL.c ****             case 0x01:
 333:.\PrinterBLL.c ****             memid = GetEepromBuffer()[0x02];
 1094              		.loc 1 333 0
 1095 0310 FFF7FEFF 		bl	GetEepromBuffer
 1096 0314 0346     		mov	r3, r0
 1097 0316 9B78     		ldrb	r3, [r3, #2]
 1098 0318 3B73     		strb	r3, [r7, #12]
 334:.\PrinterBLL.c ****             break;
 1099              		.loc 1 334 0
 1100 031a 0BE0     		b	.L68
 1101              	.L72:
 335:.\PrinterBLL.c ****             case 0x02:
 336:.\PrinterBLL.c ****             memid = GetEepromBuffer()[0x03];
 1102              		.loc 1 336 0
 1103 031c FFF7FEFF 		bl	GetEepromBuffer
 1104 0320 0346     		mov	r3, r0
 1105 0322 DB78     		ldrb	r3, [r3, #3]
 1106 0324 3B73     		strb	r3, [r7, #12]
 337:.\PrinterBLL.c ****             break;
 1107              		.loc 1 337 0
 1108 0326 05E0     		b	.L68
 1109              	.L73:
 338:.\PrinterBLL.c ****             case 0x03:
 339:.\PrinterBLL.c ****             memid = GetEepromBuffer()[0x04];
 1110              		.loc 1 339 0
 1111 0328 FFF7FEFF 		bl	GetEepromBuffer
 1112 032c 0346     		mov	r3, r0
 1113 032e 1B79     		ldrb	r3, [r3, #4]
 1114 0330 3B73     		strb	r3, [r7, #12]
 340:.\PrinterBLL.c ****             break;
 1115              		.loc 1 340 0
 1116 0332 00BF     		nop
 1117              	.L68:
 341:.\PrinterBLL.c ****         }
 342:.\PrinterBLL.c ****         
 343:.\PrinterBLL.c ****         ClearEepromBuffer();
 1118              		.loc 1 343 0
 1119 0334 FFF7FEFF 		bl	ClearEepromBuffer
 344:.\PrinterBLL.c ****         LoadEepromPage(EEPROM_DISPENSER_PUMP4_PRODUCT_NAMES_PAGE);
 1120              		.loc 1 344 0
 1121 0338 4FF47070 		mov	r0, #960
 1122 033c FFF7FEFF 		bl	LoadEepromPage
 345:.\PrinterBLL.c ****         switch(memid)
 1123              		.loc 1 345 0
 1124 0340 3B7B     		ldrb	r3, [r7, #12]	@ zero_extendqisi2
 1125 0342 013B     		subs	r3, r3, #1
 1126 0344 032B     		cmp	r3, #3
 1127 0346 3AD8     		bhi	.L83
ARM GAS  C:\Users\RECEPC~1\AppData\Local\Temp\cc0bMLA1.s 			page 27


 1128 0348 01A2     		adr	r2, .L76
 1129 034a 52F823F0 		ldr	pc, [r2, r3, lsl #2]
 1130 034e 00BF     		.p2align 2
 1131              	.L76:
 1132 0350 61030000 		.word	.L75+1
 1133 0354 73030000 		.word	.L77+1
 1134 0358 87030000 		.word	.L78+1
 1135 035c 9B030000 		.word	.L79+1
 1136              		.p2align 1
 1137              	.L75:
 346:.\PrinterBLL.c ****         {
 347:.\PrinterBLL.c ****             case 0x01:
 348:.\PrinterBLL.c ****             memcpy(pbuffer, &GetEepromBuffer()[_EEPROM_PAGE_FIRST16START_], _EEPROM_QUARTER_PAGE_SI
 1138              		.loc 1 348 0
 1139 0360 FFF7FEFF 		bl	GetEepromBuffer
 1140 0364 0346     		mov	r3, r0
 1141 0366 3868     		ldr	r0, [r7]
 1142 0368 1946     		mov	r1, r3
 1143 036a 1022     		movs	r2, #16
 1144 036c FFF7FEFF 		bl	memcpy
 349:.\PrinterBLL.c ****             break;
 1145              		.loc 1 349 0
 1146 0370 1DE0     		b	.L74
 1147              	.L77:
 350:.\PrinterBLL.c ****             case 0x02:
 351:.\PrinterBLL.c ****             memcpy(pbuffer, &GetEepromBuffer()[_EEPROM_PAGE_SECOND16START_], _EEPROM_QUARTER_PAGE_S
 1148              		.loc 1 351 0
 1149 0372 FFF7FEFF 		bl	GetEepromBuffer
 1150 0376 0346     		mov	r3, r0
 1151 0378 1033     		adds	r3, r3, #16
 1152 037a 3868     		ldr	r0, [r7]
 1153 037c 1946     		mov	r1, r3
 1154 037e 1022     		movs	r2, #16
 1155 0380 FFF7FEFF 		bl	memcpy
 352:.\PrinterBLL.c ****             break;
 1156              		.loc 1 352 0
 1157 0384 13E0     		b	.L74
 1158              	.L78:
 353:.\PrinterBLL.c ****             case 0x03:
 354:.\PrinterBLL.c ****             memcpy(pbuffer, &GetEepromBuffer()[_EEPROM_PAGE_THIRD16START_], _EEPROM_QUARTER_PAGE_SI
 1159              		.loc 1 354 0
 1160 0386 FFF7FEFF 		bl	GetEepromBuffer
 1161 038a 0346     		mov	r3, r0
 1162 038c 2033     		adds	r3, r3, #32
 1163 038e 3868     		ldr	r0, [r7]
 1164 0390 1946     		mov	r1, r3
 1165 0392 1022     		movs	r2, #16
 1166 0394 FFF7FEFF 		bl	memcpy
 355:.\PrinterBLL.c ****             break;
 1167              		.loc 1 355 0
 1168 0398 09E0     		b	.L74
 1169              	.L79:
 356:.\PrinterBLL.c ****             case 0x04:
 357:.\PrinterBLL.c ****             memcpy(pbuffer, &GetEepromBuffer()[_EEPROM_PAGE_FOURTH16START_], _EEPROM_QUARTER_PAGE_S
 1170              		.loc 1 357 0
 1171 039a FFF7FEFF 		bl	GetEepromBuffer
 1172 039e 0346     		mov	r3, r0
ARM GAS  C:\Users\RECEPC~1\AppData\Local\Temp\cc0bMLA1.s 			page 28


 1173 03a0 3033     		adds	r3, r3, #48
 1174 03a2 3868     		ldr	r0, [r7]
 1175 03a4 1946     		mov	r1, r3
 1176 03a6 1022     		movs	r2, #16
 1177 03a8 FFF7FEFF 		bl	memcpy
 358:.\PrinterBLL.c ****             break;
 1178              		.loc 1 358 0
 1179 03ac 00BF     		nop
 1180              	.L74:
 359:.\PrinterBLL.c ****         }
 360:.\PrinterBLL.c ****         return;
 1181              		.loc 1 360 0 discriminator 4
 1182 03ae 00BF     		nop
 1183 03b0 05E0     		b	.L83
 1184              	.L80:
 1185              	.LBE5:
 1186              	.LBB6:
 240:.\PrinterBLL.c ****     }
 1187              		.loc 1 240 0
 1188 03b2 00BF     		nop
 1189 03b4 04E0     		b	.L27
 1190              	.L81:
 1191              	.LBE6:
 1192              	.LBB7:
 280:.\PrinterBLL.c ****     }
 1193              		.loc 1 280 0
 1194 03b6 00BF     		nop
 1195 03b8 02E0     		b	.L27
 1196              	.L82:
 1197              	.LBE7:
 1198              	.LBB8:
 320:.\PrinterBLL.c ****     }
 1199              		.loc 1 320 0
 1200 03ba 00BF     		nop
 1201 03bc 00E0     		b	.L27
 1202              	.L83:
 1203              	.LBE8:
 1204              	.LBB9:
 1205              		.loc 1 360 0
 1206 03be 00BF     		nop
 1207              	.L27:
 1208              	.LBE9:
 361:.\PrinterBLL.c ****     }
 362:.\PrinterBLL.c **** }
 1209              		.loc 1 362 0
 1210 03c0 1037     		adds	r7, r7, #16
 1211              		.cfi_def_cfa_offset 8
 1212 03c2 BD46     		mov	sp, r7
 1213              		.cfi_def_cfa_register 13
 1214              		@ sp needed
 1215 03c4 80BD     		pop	{r7, pc}
 1216              		.cfi_endproc
 1217              	.LFE11:
 1218              		.size	GetProductNameFromPumpAndHose, .-GetProductNameFromPumpAndHose
 1219 03c6 00BF     		.section	.text.FormatNumberLSDFirst,"ax",%progbits
 1220              		.align	2
 1221              		.global	FormatNumberLSDFirst
ARM GAS  C:\Users\RECEPC~1\AppData\Local\Temp\cc0bMLA1.s 			page 29


 1222              		.thumb
 1223              		.thumb_func
 1224              		.type	FormatNumberLSDFirst, %function
 1225              	FormatNumberLSDFirst:
 1226              	.LFB12:
 363:.\PrinterBLL.c **** 
 364:.\PrinterBLL.c **** uint8 FormatNumberLSDFirst(PNEAR_BYTE_PTR pinput, uint8 inputsize, PNEAR_BYTE_PTR poutput, uint8 de
 365:.\PrinterBLL.c **** {
 1227              		.loc 1 365 0
 1228              		.cfi_startproc
 1229              		@ args = 0, pretend = 0, frame = 24
 1230              		@ frame_needed = 1, uses_anonymous_args = 0
 1231 0000 80B5     		push	{r7, lr}
 1232              		.cfi_def_cfa_offset 8
 1233              		.cfi_offset 7, -8
 1234              		.cfi_offset 14, -4
 1235 0002 86B0     		sub	sp, sp, #24
 1236              		.cfi_def_cfa_offset 32
 1237 0004 00AF     		add	r7, sp, #0
 1238              		.cfi_def_cfa_register 7
 1239 0006 F860     		str	r0, [r7, #12]
 1240 0008 7A60     		str	r2, [r7, #4]
 1241 000a 1A46     		mov	r2, r3
 1242 000c 0B46     		mov	r3, r1
 1243 000e FB72     		strb	r3, [r7, #11]
 1244 0010 1346     		mov	r3, r2
 1245 0012 BB72     		strb	r3, [r7, #10]
 366:.\PrinterBLL.c ****     memcpy(poutput, pinput, inputsize);
 1246              		.loc 1 366 0
 1247 0014 FB7A     		ldrb	r3, [r7, #11]	@ zero_extendqisi2
 1248 0016 7868     		ldr	r0, [r7, #4]
 1249 0018 F968     		ldr	r1, [r7, #12]
 1250 001a 1A46     		mov	r2, r3
 1251 001c FFF7FEFF 		bl	memcpy
 367:.\PrinterBLL.c ****     //Apply the decimal separator character only if it has decimal places
 368:.\PrinterBLL.c ****     if(decimals > 0)
 1252              		.loc 1 368 0
 1253 0020 BB7A     		ldrb	r3, [r7, #10]	@ zero_extendqisi2
 1254 0022 002B     		cmp	r3, #0
 1255 0024 46D0     		beq	.L85
 1256              	.LBB10:
 369:.\PrinterBLL.c ****     {
 370:.\PrinterBLL.c ****         memcpy(&poutput[decimals + 1], &pinput[decimals], inputsize - decimals);
 1257              		.loc 1 370 0
 1258 0026 BB7A     		ldrb	r3, [r7, #10]	@ zero_extendqisi2
 1259 0028 0133     		adds	r3, r3, #1
 1260 002a 7A68     		ldr	r2, [r7, #4]
 1261 002c D018     		adds	r0, r2, r3
 1262 002e BB7A     		ldrb	r3, [r7, #10]	@ zero_extendqisi2
 1263 0030 FA68     		ldr	r2, [r7, #12]
 1264 0032 D118     		adds	r1, r2, r3
 1265 0034 FA7A     		ldrb	r2, [r7, #11]	@ zero_extendqisi2
 1266 0036 BB7A     		ldrb	r3, [r7, #10]	@ zero_extendqisi2
 1267 0038 D31A     		subs	r3, r2, r3
 1268 003a 1A46     		mov	r2, r3
 1269 003c FFF7FEFF 		bl	memcpy
 371:.\PrinterBLL.c ****         poutput[decimals] = (_g_dispenserlayoutinfo._pointcommadecimalmode)? _ASCII_POINT_: _ASCII_
ARM GAS  C:\Users\RECEPC~1\AppData\Local\Temp\cc0bMLA1.s 			page 30


 1270              		.loc 1 371 0
 1271 0040 BB7A     		ldrb	r3, [r7, #10]	@ zero_extendqisi2
 1272 0042 7A68     		ldr	r2, [r7, #4]
 1273 0044 1344     		add	r3, r3, r2
 1274 0046 3D4A     		ldr	r2, .L100
 1275 0048 D27C     		ldrb	r2, [r2, #19]	@ zero_extendqisi2
 1276 004a 02F00102 		and	r2, r2, #1
 1277 004e D2B2     		uxtb	r2, r2
 1278 0050 002A     		cmp	r2, #0
 1279 0052 01D0     		beq	.L86
 1280              		.loc 1 371 0 is_stmt 0 discriminator 1
 1281 0054 2E22     		movs	r2, #46
 1282 0056 00E0     		b	.L87
 1283              	.L86:
 1284              		.loc 1 371 0 discriminator 2
 1285 0058 2C22     		movs	r2, #44
 1286              	.L87:
 1287              		.loc 1 371 0 discriminator 4
 1288 005a 1A70     		strb	r2, [r3]
 372:.\PrinterBLL.c ****         poutput[decimals + 1] = (poutput[decimals + 1] | 0x30);
 1289              		.loc 1 372 0 is_stmt 1 discriminator 4
 1290 005c BB7A     		ldrb	r3, [r7, #10]	@ zero_extendqisi2
 1291 005e 0133     		adds	r3, r3, #1
 1292 0060 7A68     		ldr	r2, [r7, #4]
 1293 0062 1344     		add	r3, r3, r2
 1294 0064 BA7A     		ldrb	r2, [r7, #10]	@ zero_extendqisi2
 1295 0066 0132     		adds	r2, r2, #1
 1296 0068 7968     		ldr	r1, [r7, #4]
 1297 006a 0A44     		add	r2, r2, r1
 1298 006c 1278     		ldrb	r2, [r2]	@ zero_extendqisi2
 1299 006e 42F03002 		orr	r2, r2, #48
 1300 0072 D2B2     		uxtb	r2, r2
 1301 0074 1A70     		strb	r2, [r3]
 373:.\PrinterBLL.c ****         PNEAR_BYTE_PTR pref = poutput;
 1302              		.loc 1 373 0 discriminator 4
 1303 0076 7B68     		ldr	r3, [r7, #4]
 1304 0078 7B61     		str	r3, [r7, #20]
 374:.\PrinterBLL.c ****         while(*pref != ((_g_dispenserlayoutinfo._pointcommadecimalmode)? _ASCII_POINT_: _ASCII_COMM
 1305              		.loc 1 374 0 discriminator 4
 1306 007a 09E0     		b	.L88
 1307              	.L91:
 375:.\PrinterBLL.c ****         {
 376:.\PrinterBLL.c ****             *pref |= 0x30;
 1308              		.loc 1 376 0
 1309 007c 7B69     		ldr	r3, [r7, #20]
 1310 007e 1B78     		ldrb	r3, [r3]	@ zero_extendqisi2
 1311 0080 43F03003 		orr	r3, r3, #48
 1312 0084 DAB2     		uxtb	r2, r3
 1313 0086 7B69     		ldr	r3, [r7, #20]
 1314 0088 1A70     		strb	r2, [r3]
 377:.\PrinterBLL.c ****             pref++;
 1315              		.loc 1 377 0
 1316 008a 7B69     		ldr	r3, [r7, #20]
 1317 008c 0133     		adds	r3, r3, #1
 1318 008e 7B61     		str	r3, [r7, #20]
 1319              	.L88:
 374:.\PrinterBLL.c ****         while(*pref != ((_g_dispenserlayoutinfo._pointcommadecimalmode)? _ASCII_POINT_: _ASCII_COMM
ARM GAS  C:\Users\RECEPC~1\AppData\Local\Temp\cc0bMLA1.s 			page 31


 1320              		.loc 1 374 0
 1321 0090 7B69     		ldr	r3, [r7, #20]
 1322 0092 1B78     		ldrb	r3, [r3]	@ zero_extendqisi2
 1323 0094 1A46     		mov	r2, r3
 1324 0096 294B     		ldr	r3, .L100
 1325 0098 DB7C     		ldrb	r3, [r3, #19]	@ zero_extendqisi2
 1326 009a 03F00103 		and	r3, r3, #1
 1327 009e DBB2     		uxtb	r3, r3
 1328 00a0 002B     		cmp	r3, #0
 1329 00a2 01D0     		beq	.L89
 374:.\PrinterBLL.c ****         while(*pref != ((_g_dispenserlayoutinfo._pointcommadecimalmode)? _ASCII_POINT_: _ASCII_COMM
 1330              		.loc 1 374 0 is_stmt 0 discriminator 1
 1331 00a4 2E23     		movs	r3, #46
 1332 00a6 00E0     		b	.L90
 1333              	.L89:
 374:.\PrinterBLL.c ****         while(*pref != ((_g_dispenserlayoutinfo._pointcommadecimalmode)? _ASCII_POINT_: _ASCII_COMM
 1334              		.loc 1 374 0 discriminator 2
 1335 00a8 2C23     		movs	r3, #44
 1336              	.L90:
 374:.\PrinterBLL.c ****         while(*pref != ((_g_dispenserlayoutinfo._pointcommadecimalmode)? _ASCII_POINT_: _ASCII_COMM
 1337              		.loc 1 374 0 discriminator 4
 1338 00aa 9A42     		cmp	r2, r3
 1339 00ac E6D1     		bne	.L91
 378:.\PrinterBLL.c ****         }
 379:.\PrinterBLL.c ****         inputsize++;
 1340              		.loc 1 379 0 is_stmt 1
 1341 00ae FB7A     		ldrb	r3, [r7, #11]	@ zero_extendqisi2
 1342 00b0 0133     		adds	r3, r3, #1
 1343 00b2 FB72     		strb	r3, [r7, #11]
 1344              	.L85:
 1345              	.LBE10:
 380:.\PrinterBLL.c ****     }
 381:.\PrinterBLL.c ****     //Adjust the whole buffer to the end of its size
 382:.\PrinterBLL.c ****     while(poutput[(inputsize - 1)] == 0x0)
 1346              		.loc 1 382 0
 1347 00b4 31E0     		b	.L92
 1348              	.L97:
 1349              	.LBB11:
 383:.\PrinterBLL.c ****     {
 384:.\PrinterBLL.c ****         FOR(uint8 index = 0, index < (inputsize - 1), index++)
 1350              		.loc 1 384 0
 1351 00b6 0023     		movs	r3, #0
 1352 00b8 FB74     		strb	r3, [r7, #19]
 1353 00ba 29E0     		b	.L93
 1354              	.L96:
 385:.\PrinterBLL.c ****         {
 386:.\PrinterBLL.c ****             if(poutput[(inputsize - 1)  - index] == 0x00)
 1355              		.loc 1 386 0
 1356 00bc FB7A     		ldrb	r3, [r7, #11]	@ zero_extendqisi2
 1357 00be 5A1E     		subs	r2, r3, #1
 1358 00c0 FB7C     		ldrb	r3, [r7, #19]	@ zero_extendqisi2
 1359 00c2 D31A     		subs	r3, r2, r3
 1360 00c4 1A46     		mov	r2, r3
 1361 00c6 7B68     		ldr	r3, [r7, #4]
 1362 00c8 1344     		add	r3, r3, r2
 1363 00ca 1B78     		ldrb	r3, [r3]	@ zero_extendqisi2
 1364 00cc 002B     		cmp	r3, #0
ARM GAS  C:\Users\RECEPC~1\AppData\Local\Temp\cc0bMLA1.s 			page 32


 1365 00ce 1BD1     		bne	.L94
 387:.\PrinterBLL.c ****             {
 388:.\PrinterBLL.c ****                 poutput[(inputsize - 1)  - index] = poutput[(inputsize - 1)  - (index + 1)];
 1366              		.loc 1 388 0
 1367 00d0 FB7A     		ldrb	r3, [r7, #11]	@ zero_extendqisi2
 1368 00d2 5A1E     		subs	r2, r3, #1
 1369 00d4 FB7C     		ldrb	r3, [r7, #19]	@ zero_extendqisi2
 1370 00d6 D31A     		subs	r3, r2, r3
 1371 00d8 1A46     		mov	r2, r3
 1372 00da 7B68     		ldr	r3, [r7, #4]
 1373 00dc 1344     		add	r3, r3, r2
 1374 00de FA7A     		ldrb	r2, [r7, #11]	@ zero_extendqisi2
 1375 00e0 511E     		subs	r1, r2, #1
 1376 00e2 FA7C     		ldrb	r2, [r7, #19]	@ zero_extendqisi2
 1377 00e4 D243     		mvns	r2, r2
 1378 00e6 0A44     		add	r2, r2, r1
 1379 00e8 1146     		mov	r1, r2
 1380 00ea 7A68     		ldr	r2, [r7, #4]
 1381 00ec 0A44     		add	r2, r2, r1
 1382 00ee 1278     		ldrb	r2, [r2]	@ zero_extendqisi2
 1383 00f0 1A70     		strb	r2, [r3]
 389:.\PrinterBLL.c ****                 poutput[(inputsize - 1)  - (index + 1)] = 0x00;
 1384              		.loc 1 389 0
 1385 00f2 FB7A     		ldrb	r3, [r7, #11]	@ zero_extendqisi2
 1386 00f4 5A1E     		subs	r2, r3, #1
 1387 00f6 FB7C     		ldrb	r3, [r7, #19]	@ zero_extendqisi2
 1388 00f8 DB43     		mvns	r3, r3
 1389 00fa 1344     		add	r3, r3, r2
 1390 00fc 1A46     		mov	r2, r3
 1391 00fe 7B68     		ldr	r3, [r7, #4]
 1392 0100 1344     		add	r3, r3, r2
 1393 0102 0022     		movs	r2, #0
 1394 0104 1A70     		strb	r2, [r3]
 1395 0106 00E0     		b	.L99
 1396              	.L94:
 390:.\PrinterBLL.c ****             }else
 391:.\PrinterBLL.c ****                 break;
 1397              		.loc 1 391 0
 1398 0108 07E0     		b	.L92
 1399              	.L99:
 384:.\PrinterBLL.c ****         {
 1400              		.loc 1 384 0 discriminator 2
 1401 010a FB7C     		ldrb	r3, [r7, #19]	@ zero_extendqisi2
 1402 010c 0133     		adds	r3, r3, #1
 1403 010e FB74     		strb	r3, [r7, #19]
 1404              	.L93:
 384:.\PrinterBLL.c ****         {
 1405              		.loc 1 384 0 is_stmt 0 discriminator 1
 1406 0110 FA7C     		ldrb	r2, [r7, #19]	@ zero_extendqisi2
 1407 0112 FB7A     		ldrb	r3, [r7, #11]	@ zero_extendqisi2
 1408 0114 013B     		subs	r3, r3, #1
 1409 0116 9A42     		cmp	r2, r3
 1410 0118 D0DB     		blt	.L96
 1411              	.L92:
 1412              	.LBE11:
 382:.\PrinterBLL.c ****     {
 1413              		.loc 1 382 0 is_stmt 1
ARM GAS  C:\Users\RECEPC~1\AppData\Local\Temp\cc0bMLA1.s 			page 33


 1414 011a FB7A     		ldrb	r3, [r7, #11]	@ zero_extendqisi2
 1415 011c 013B     		subs	r3, r3, #1
 1416 011e 7A68     		ldr	r2, [r7, #4]
 1417 0120 1344     		add	r3, r3, r2
 1418 0122 1B78     		ldrb	r3, [r3]	@ zero_extendqisi2
 1419 0124 002B     		cmp	r3, #0
 1420 0126 C6D0     		beq	.L97
 392:.\PrinterBLL.c ****         }
 393:.\PrinterBLL.c ****     }
 394:.\PrinterBLL.c ****     //Flip the whole buffer
 395:.\PrinterBLL.c ****     PSTRBUFFTOGG(poutput, inputsize);
 1421              		.loc 1 395 0
 1422 0128 FB7A     		ldrb	r3, [r7, #11]	@ zero_extendqisi2
 1423 012a 7868     		ldr	r0, [r7, #4]
 1424 012c 1946     		mov	r1, r3
 1425 012e FFF7FEFF 		bl	PSTRBUFFTOGG
 396:.\PrinterBLL.c ****     
 397:.\PrinterBLL.c ****     return (inputsize);
 1426              		.loc 1 397 0
 1427 0132 FB7A     		ldrb	r3, [r7, #11]	@ zero_extendqisi2
 398:.\PrinterBLL.c **** }
 1428              		.loc 1 398 0
 1429 0134 1846     		mov	r0, r3
 1430 0136 1837     		adds	r7, r7, #24
 1431              		.cfi_def_cfa_offset 8
 1432 0138 BD46     		mov	sp, r7
 1433              		.cfi_def_cfa_register 13
 1434              		@ sp needed
 1435 013a 80BD     		pop	{r7, pc}
 1436              	.L101:
 1437              		.align	2
 1438              	.L100:
 1439 013c 00000000 		.word	_g_dispenserlayoutinfo
 1440              		.cfi_endproc
 1441              	.LFE12:
 1442              		.size	FormatNumberLSDFirst, .-FormatNumberLSDFirst
 1443              		.section	.text.Print,"ax",%progbits
 1444              		.align	2
 1445              		.global	Print
 1446              		.thumb
 1447              		.thumb_func
 1448              		.type	Print, %function
 1449              	Print:
 1450              	.LFB13:
 399:.\PrinterBLL.c **** 
 400:.\PrinterBLL.c **** void Print(PSINKMESSAGEPTR pmsg, uint8 printerport)
 401:.\PrinterBLL.c **** {
 1451              		.loc 1 401 0
 1452              		.cfi_startproc
 1453              		@ args = 0, pretend = 0, frame = 32
 1454              		@ frame_needed = 1, uses_anonymous_args = 0
 1455 0000 90B5     		push	{r4, r7, lr}
 1456              		.cfi_def_cfa_offset 12
 1457              		.cfi_offset 4, -12
 1458              		.cfi_offset 7, -8
 1459              		.cfi_offset 14, -4
 1460 0002 89B0     		sub	sp, sp, #36
ARM GAS  C:\Users\RECEPC~1\AppData\Local\Temp\cc0bMLA1.s 			page 34


 1461              		.cfi_def_cfa_offset 48
 1462 0004 00AF     		add	r7, sp, #0
 1463              		.cfi_def_cfa_register 7
 1464 0006 7860     		str	r0, [r7, #4]
 1465 0008 0B46     		mov	r3, r1
 1466 000a FB70     		strb	r3, [r7, #3]
 402:.\PrinterBLL.c ****     uint8 index = 0;
 1467              		.loc 1 402 0
 1468 000c 0023     		movs	r3, #0
 1469 000e FB77     		strb	r3, [r7, #31]
 403:.\PrinterBLL.c ****     
 404:.\PrinterBLL.c ****     //CAREFUL WITH RETURNS AND RECURSIVE CALLS BETWEEN THE LOCK/UNLOCK CALLS THAT WOULD DEADLOCK!
 405:.\PrinterBLL.c ****     I2CBusLock();
 1470              		.loc 1 405 0
 1471 0010 FFF7FEFF 		bl	I2CBusLock
 406:.\PrinterBLL.c ****     
 407:.\PrinterBLL.c ****     uint8 padspaces = 0x00;
 1472              		.loc 1 407 0
 1473 0014 0023     		movs	r3, #0
 1474 0016 7B75     		strb	r3, [r7, #21]
 408:.\PrinterBLL.c ****     uint8 bufferlength = 0x00;
 1475              		.loc 1 408 0
 1476 0018 0023     		movs	r3, #0
 1477 001a 3B75     		strb	r3, [r7, #20]
 409:.\PrinterBLL.c ****     
 410:.\PrinterBLL.c ****     //line feed 
 411:.\PrinterBLL.c ****     PRINTER_LINEFEED(printerport);
 1478              		.loc 1 411 0
 1479 001c FB78     		ldrb	r3, [r7, #3]	@ zero_extendqisi2
 1480 001e C748     		ldr	r0, .L127
 1481 0020 0121     		movs	r1, #1
 1482 0022 1A46     		mov	r2, r3
 1483 0024 FFF7FEFF 		bl	WriteAuxPSoC
 412:.\PrinterBLL.c ****     
 413:.\PrinterBLL.c ****     ClearEepromBuffer();
 1484              		.loc 1 413 0
 1485 0028 FFF7FEFF 		bl	ClearEepromBuffer
 414:.\PrinterBLL.c ****     //Cleanup of the pump identifier in order to start the enumeration procedure
 415:.\PrinterBLL.c ****     LoadEepromPage(EEPROM_CONFIGURATION_PAGE0);
 1486              		.loc 1 415 0
 1487 002c 0020     		movs	r0, #0
 1488 002e FFF7FEFF 		bl	LoadEepromPage
 416:.\PrinterBLL.c ****     bufferlength = MeasurePrinterASCIIBufferLength(&GetEepromBuffer()[_EEPROM_PAGE_FIRST32START_]);
 1489              		.loc 1 416 0
 1490 0032 FFF7FEFF 		bl	GetEepromBuffer
 1491 0036 0346     		mov	r3, r0
 1492 0038 1846     		mov	r0, r3
 1493 003a FFF7FEFF 		bl	MeasurePrinterASCIIBufferLength
 1494 003e 0346     		mov	r3, r0
 1495 0040 3B75     		strb	r3, [r7, #20]
 417:.\PrinterBLL.c ****     padspaces = PadSpacesToCenter(bufferlength);
 1496              		.loc 1 417 0
 1497 0042 3B7D     		ldrb	r3, [r7, #20]	@ zero_extendqisi2
 1498 0044 1846     		mov	r0, r3
 1499 0046 FFF7FEFF 		bl	PadSpacesToCenter
 1500 004a 0346     		mov	r3, r0
 1501 004c 7B75     		strb	r3, [r7, #21]
ARM GAS  C:\Users\RECEPC~1\AppData\Local\Temp\cc0bMLA1.s 			page 35


 418:.\PrinterBLL.c ****     //Pad spaces to center
 419:.\PrinterBLL.c ****     PRINTER_INDENTLINE(padspaces, printerport);
 1502              		.loc 1 419 0
 1503 004e 7B7D     		ldrb	r3, [r7, #21]	@ zero_extendqisi2
 1504 0050 9AB2     		uxth	r2, r3
 1505 0052 FB78     		ldrb	r3, [r7, #3]	@ zero_extendqisi2
 1506 0054 BA48     		ldr	r0, .L127+4
 1507 0056 1146     		mov	r1, r2
 1508 0058 1A46     		mov	r2, r3
 1509 005a FFF7FEFF 		bl	WriteAuxPSoC
 420:.\PrinterBLL.c ****     //Here we start printing...
 421:.\PrinterBLL.c ****     //FIRST HEADING SECTION
 422:.\PrinterBLL.c ****     //output text
 423:.\PrinterBLL.c ****     WriteAuxPSoC(&GetEepromBuffer()[_EEPROM_PAGE_FIRST32START_], bufferlength, printerport);
 1510              		.loc 1 423 0
 1511 005e FFF7FEFF 		bl	GetEepromBuffer
 1512 0062 0146     		mov	r1, r0
 1513 0064 3B7D     		ldrb	r3, [r7, #20]	@ zero_extendqisi2
 1514 0066 9AB2     		uxth	r2, r3
 1515 0068 FB78     		ldrb	r3, [r7, #3]	@ zero_extendqisi2
 1516 006a 0846     		mov	r0, r1
 1517 006c 1146     		mov	r1, r2
 1518 006e 1A46     		mov	r2, r3
 1519 0070 FFF7FEFF 		bl	WriteAuxPSoC
 424:.\PrinterBLL.c ****     //line feed 
 425:.\PrinterBLL.c ****     PRINTER_LINEFEED(printerport);
 1520              		.loc 1 425 0
 1521 0074 FB78     		ldrb	r3, [r7, #3]	@ zero_extendqisi2
 1522 0076 B148     		ldr	r0, .L127
 1523 0078 0121     		movs	r1, #1
 1524 007a 1A46     		mov	r2, r3
 1525 007c FFF7FEFF 		bl	WriteAuxPSoC
 426:.\PrinterBLL.c ****     
 427:.\PrinterBLL.c ****     //SECOND HEADING SECTION
 428:.\PrinterBLL.c ****     bufferlength = MeasurePrinterASCIIBufferLength(&GetEepromBuffer()[_EEPROM_PAGE_SECOND32START_])
 1526              		.loc 1 428 0
 1527 0080 FFF7FEFF 		bl	GetEepromBuffer
 1528 0084 0346     		mov	r3, r0
 1529 0086 2033     		adds	r3, r3, #32
 1530 0088 1846     		mov	r0, r3
 1531 008a FFF7FEFF 		bl	MeasurePrinterASCIIBufferLength
 1532 008e 0346     		mov	r3, r0
 1533 0090 3B75     		strb	r3, [r7, #20]
 429:.\PrinterBLL.c ****     padspaces = PadSpacesToCenter(bufferlength);
 1534              		.loc 1 429 0
 1535 0092 3B7D     		ldrb	r3, [r7, #20]	@ zero_extendqisi2
 1536 0094 1846     		mov	r0, r3
 1537 0096 FFF7FEFF 		bl	PadSpacesToCenter
 1538 009a 0346     		mov	r3, r0
 1539 009c 7B75     		strb	r3, [r7, #21]
 430:.\PrinterBLL.c ****     //Pad spaces to center
 431:.\PrinterBLL.c ****     PRINTER_INDENTLINE(padspaces, printerport);
 1540              		.loc 1 431 0
 1541 009e 7B7D     		ldrb	r3, [r7, #21]	@ zero_extendqisi2
 1542 00a0 9AB2     		uxth	r2, r3
 1543 00a2 FB78     		ldrb	r3, [r7, #3]	@ zero_extendqisi2
 1544 00a4 A648     		ldr	r0, .L127+4
ARM GAS  C:\Users\RECEPC~1\AppData\Local\Temp\cc0bMLA1.s 			page 36


 1545 00a6 1146     		mov	r1, r2
 1546 00a8 1A46     		mov	r2, r3
 1547 00aa FFF7FEFF 		bl	WriteAuxPSoC
 432:.\PrinterBLL.c ****     //output text
 433:.\PrinterBLL.c ****     WriteAuxPSoC(&GetEepromBuffer()[_EEPROM_PAGE_SECOND32START_], bufferlength, printerport);
 1548              		.loc 1 433 0
 1549 00ae FFF7FEFF 		bl	GetEepromBuffer
 1550 00b2 0346     		mov	r3, r0
 1551 00b4 03F12001 		add	r1, r3, #32
 1552 00b8 3B7D     		ldrb	r3, [r7, #20]	@ zero_extendqisi2
 1553 00ba 9AB2     		uxth	r2, r3
 1554 00bc FB78     		ldrb	r3, [r7, #3]	@ zero_extendqisi2
 1555 00be 0846     		mov	r0, r1
 1556 00c0 1146     		mov	r1, r2
 1557 00c2 1A46     		mov	r2, r3
 1558 00c4 FFF7FEFF 		bl	WriteAuxPSoC
 434:.\PrinterBLL.c ****     //line feed 
 435:.\PrinterBLL.c ****     PRINTER_LINEFEED(printerport);
 1559              		.loc 1 435 0
 1560 00c8 FB78     		ldrb	r3, [r7, #3]	@ zero_extendqisi2
 1561 00ca 9C48     		ldr	r0, .L127
 1562 00cc 0121     		movs	r1, #1
 1563 00ce 1A46     		mov	r2, r3
 1564 00d0 FFF7FEFF 		bl	WriteAuxPSoC
 436:.\PrinterBLL.c **** 
 437:.\PrinterBLL.c ****     ClearEepromBuffer();
 1565              		.loc 1 437 0
 1566 00d4 FFF7FEFF 		bl	ClearEepromBuffer
 438:.\PrinterBLL.c ****     //Cleanup of the pump identifier in order to start the enumeration procedure
 439:.\PrinterBLL.c ****     LoadEepromPage(EEPROM_CONFIGURATION_PAGE1);
 1567              		.loc 1 439 0
 1568 00d8 4020     		movs	r0, #64
 1569 00da FFF7FEFF 		bl	LoadEepromPage
 440:.\PrinterBLL.c ****     bufferlength = MeasurePrinterASCIIBufferLength(&GetEepromBuffer()[_EEPROM_PAGE_FIRST32START_]);
 1570              		.loc 1 440 0
 1571 00de FFF7FEFF 		bl	GetEepromBuffer
 1572 00e2 0346     		mov	r3, r0
 1573 00e4 1846     		mov	r0, r3
 1574 00e6 FFF7FEFF 		bl	MeasurePrinterASCIIBufferLength
 1575 00ea 0346     		mov	r3, r0
 1576 00ec 3B75     		strb	r3, [r7, #20]
 441:.\PrinterBLL.c ****     padspaces = PadSpacesToCenter(bufferlength);
 1577              		.loc 1 441 0
 1578 00ee 3B7D     		ldrb	r3, [r7, #20]	@ zero_extendqisi2
 1579 00f0 1846     		mov	r0, r3
 1580 00f2 FFF7FEFF 		bl	PadSpacesToCenter
 1581 00f6 0346     		mov	r3, r0
 1582 00f8 7B75     		strb	r3, [r7, #21]
 442:.\PrinterBLL.c ****     //Here we start printing...
 443:.\PrinterBLL.c ****     //THIRD HEADING SECTION
 444:.\PrinterBLL.c ****     PRINTER_INDENTLINE(padspaces, printerport);
 1583              		.loc 1 444 0
 1584 00fa 7B7D     		ldrb	r3, [r7, #21]	@ zero_extendqisi2
 1585 00fc 9AB2     		uxth	r2, r3
 1586 00fe FB78     		ldrb	r3, [r7, #3]	@ zero_extendqisi2
 1587 0100 8F48     		ldr	r0, .L127+4
 1588 0102 1146     		mov	r1, r2
ARM GAS  C:\Users\RECEPC~1\AppData\Local\Temp\cc0bMLA1.s 			page 37


 1589 0104 1A46     		mov	r2, r3
 1590 0106 FFF7FEFF 		bl	WriteAuxPSoC
 445:.\PrinterBLL.c ****     //output text
 446:.\PrinterBLL.c ****     WriteAuxPSoC(&GetEepromBuffer()[_EEPROM_PAGE_FIRST32START_], bufferlength, printerport);
 1591              		.loc 1 446 0
 1592 010a FFF7FEFF 		bl	GetEepromBuffer
 1593 010e 0146     		mov	r1, r0
 1594 0110 3B7D     		ldrb	r3, [r7, #20]	@ zero_extendqisi2
 1595 0112 9AB2     		uxth	r2, r3
 1596 0114 FB78     		ldrb	r3, [r7, #3]	@ zero_extendqisi2
 1597 0116 0846     		mov	r0, r1
 1598 0118 1146     		mov	r1, r2
 1599 011a 1A46     		mov	r2, r3
 1600 011c FFF7FEFF 		bl	WriteAuxPSoC
 447:.\PrinterBLL.c ****     //line feed 
 448:.\PrinterBLL.c ****     PRINTER_LINEFEED(printerport);
 1601              		.loc 1 448 0
 1602 0120 FB78     		ldrb	r3, [r7, #3]	@ zero_extendqisi2
 1603 0122 8648     		ldr	r0, .L127
 1604 0124 0121     		movs	r1, #1
 1605 0126 1A46     		mov	r2, r3
 1606 0128 FFF7FEFF 		bl	WriteAuxPSoC
 449:.\PrinterBLL.c ****     
 450:.\PrinterBLL.c ****     //FOURTH HEADING SECTION
 451:.\PrinterBLL.c ****     bufferlength = MeasurePrinterASCIIBufferLength(&GetEepromBuffer()[_EEPROM_PAGE_SECOND32START_])
 1607              		.loc 1 451 0
 1608 012c FFF7FEFF 		bl	GetEepromBuffer
 1609 0130 0346     		mov	r3, r0
 1610 0132 2033     		adds	r3, r3, #32
 1611 0134 1846     		mov	r0, r3
 1612 0136 FFF7FEFF 		bl	MeasurePrinterASCIIBufferLength
 1613 013a 0346     		mov	r3, r0
 1614 013c 3B75     		strb	r3, [r7, #20]
 452:.\PrinterBLL.c ****     padspaces = PadSpacesToCenter(bufferlength);
 1615              		.loc 1 452 0
 1616 013e 3B7D     		ldrb	r3, [r7, #20]	@ zero_extendqisi2
 1617 0140 1846     		mov	r0, r3
 1618 0142 FFF7FEFF 		bl	PadSpacesToCenter
 1619 0146 0346     		mov	r3, r0
 1620 0148 7B75     		strb	r3, [r7, #21]
 453:.\PrinterBLL.c ****     //Pad spaces to center
 454:.\PrinterBLL.c ****     PRINTER_INDENTLINE(padspaces, printerport);
 1621              		.loc 1 454 0
 1622 014a 7B7D     		ldrb	r3, [r7, #21]	@ zero_extendqisi2
 1623 014c 9AB2     		uxth	r2, r3
 1624 014e FB78     		ldrb	r3, [r7, #3]	@ zero_extendqisi2
 1625 0150 7B48     		ldr	r0, .L127+4
 1626 0152 1146     		mov	r1, r2
 1627 0154 1A46     		mov	r2, r3
 1628 0156 FFF7FEFF 		bl	WriteAuxPSoC
 455:.\PrinterBLL.c ****     //output text
 456:.\PrinterBLL.c ****     WriteAuxPSoC(&GetEepromBuffer()[_EEPROM_PAGE_SECOND32START_], bufferlength, printerport);
 1629              		.loc 1 456 0
 1630 015a FFF7FEFF 		bl	GetEepromBuffer
 1631 015e 0346     		mov	r3, r0
 1632 0160 03F12001 		add	r1, r3, #32
 1633 0164 3B7D     		ldrb	r3, [r7, #20]	@ zero_extendqisi2
ARM GAS  C:\Users\RECEPC~1\AppData\Local\Temp\cc0bMLA1.s 			page 38


 1634 0166 9AB2     		uxth	r2, r3
 1635 0168 FB78     		ldrb	r3, [r7, #3]	@ zero_extendqisi2
 1636 016a 0846     		mov	r0, r1
 1637 016c 1146     		mov	r1, r2
 1638 016e 1A46     		mov	r2, r3
 1639 0170 FFF7FEFF 		bl	WriteAuxPSoC
 457:.\PrinterBLL.c ****     //line feed 
 458:.\PrinterBLL.c ****     PRINTER_LINEFEED(printerport);
 1640              		.loc 1 458 0
 1641 0174 FB78     		ldrb	r3, [r7, #3]	@ zero_extendqisi2
 1642 0176 7148     		ldr	r0, .L127
 1643 0178 0121     		movs	r1, #1
 1644 017a 1A46     		mov	r2, r3
 1645 017c FFF7FEFF 		bl	WriteAuxPSoC
 459:.\PrinterBLL.c **** 
 460:.\PrinterBLL.c ****     ClearEepromBuffer();
 1646              		.loc 1 460 0
 1647 0180 FFF7FEFF 		bl	ClearEepromBuffer
 461:.\PrinterBLL.c ****     //Cleanup of the pump identifier in order to start the enumeration procedure
 462:.\PrinterBLL.c ****     LoadEepromPage(EEPROM_CONFIGURATION_PAGE2);
 1648              		.loc 1 462 0
 1649 0184 8020     		movs	r0, #128
 1650 0186 FFF7FEFF 		bl	LoadEepromPage
 463:.\PrinterBLL.c ****     bufferlength = MeasurePrinterASCIIBufferLength(&GetEepromBuffer()[_EEPROM_PAGE_FIRST32START_]);
 1651              		.loc 1 463 0
 1652 018a FFF7FEFF 		bl	GetEepromBuffer
 1653 018e 0346     		mov	r3, r0
 1654 0190 1846     		mov	r0, r3
 1655 0192 FFF7FEFF 		bl	MeasurePrinterASCIIBufferLength
 1656 0196 0346     		mov	r3, r0
 1657 0198 3B75     		strb	r3, [r7, #20]
 464:.\PrinterBLL.c ****     padspaces = PadSpacesToCenter(bufferlength);
 1658              		.loc 1 464 0
 1659 019a 3B7D     		ldrb	r3, [r7, #20]	@ zero_extendqisi2
 1660 019c 1846     		mov	r0, r3
 1661 019e FFF7FEFF 		bl	PadSpacesToCenter
 1662 01a2 0346     		mov	r3, r0
 1663 01a4 7B75     		strb	r3, [r7, #21]
 465:.\PrinterBLL.c ****     //Here we start printing...
 466:.\PrinterBLL.c ****     //FIFTH HEADING SECTION
 467:.\PrinterBLL.c ****     //Pad spaces to center
 468:.\PrinterBLL.c ****     PRINTER_INDENTLINE(padspaces, printerport);
 1664              		.loc 1 468 0
 1665 01a6 7B7D     		ldrb	r3, [r7, #21]	@ zero_extendqisi2
 1666 01a8 9AB2     		uxth	r2, r3
 1667 01aa FB78     		ldrb	r3, [r7, #3]	@ zero_extendqisi2
 1668 01ac 6448     		ldr	r0, .L127+4
 1669 01ae 1146     		mov	r1, r2
 1670 01b0 1A46     		mov	r2, r3
 1671 01b2 FFF7FEFF 		bl	WriteAuxPSoC
 469:.\PrinterBLL.c ****     //output text
 470:.\PrinterBLL.c ****     WriteAuxPSoC(&GetEepromBuffer()[_EEPROM_PAGE_FIRST32START_], bufferlength, printerport);
 1672              		.loc 1 470 0
 1673 01b6 FFF7FEFF 		bl	GetEepromBuffer
 1674 01ba 0146     		mov	r1, r0
 1675 01bc 3B7D     		ldrb	r3, [r7, #20]	@ zero_extendqisi2
 1676 01be 9AB2     		uxth	r2, r3
ARM GAS  C:\Users\RECEPC~1\AppData\Local\Temp\cc0bMLA1.s 			page 39


 1677 01c0 FB78     		ldrb	r3, [r7, #3]	@ zero_extendqisi2
 1678 01c2 0846     		mov	r0, r1
 1679 01c4 1146     		mov	r1, r2
 1680 01c6 1A46     		mov	r2, r3
 1681 01c8 FFF7FEFF 		bl	WriteAuxPSoC
 471:.\PrinterBLL.c ****     //line separator
 472:.\PrinterBLL.c ****     PRINTER_SEPARATOR(printerport);
 1682              		.loc 1 472 0
 1683 01cc FB78     		ldrb	r3, [r7, #3]	@ zero_extendqisi2
 1684 01ce 5B48     		ldr	r0, .L127
 1685 01d0 0121     		movs	r1, #1
 1686 01d2 1A46     		mov	r2, r3
 1687 01d4 FFF7FEFF 		bl	WriteAuxPSoC
 1688 01d8 FB78     		ldrb	r3, [r7, #3]	@ zero_extendqisi2
 1689 01da 5A48     		ldr	r0, .L127+8
 1690 01dc 1F21     		movs	r1, #31
 1691 01de 1A46     		mov	r2, r3
 1692 01e0 FFF7FEFF 		bl	WriteAuxPSoC
 1693 01e4 FB78     		ldrb	r3, [r7, #3]	@ zero_extendqisi2
 1694 01e6 5548     		ldr	r0, .L127
 1695 01e8 0121     		movs	r1, #1
 1696 01ea 1A46     		mov	r2, r3
 1697 01ec FFF7FEFF 		bl	WriteAuxPSoC
 473:.\PrinterBLL.c ****     
 474:.\PrinterBLL.c ****     //Contextual information comes next...
 475:.\PrinterBLL.c ****     #ifdef PRINTER_TYPE_PANEL
 476:.\PrinterBLL.c ****     PRINTER_INDENTLINE(_LEFT_MARGIN_, printerport);
 1698              		.loc 1 476 0
 1699 01f0 FB78     		ldrb	r3, [r7, #3]	@ zero_extendqisi2
 1700 01f2 5348     		ldr	r0, .L127+4
 1701 01f4 0121     		movs	r1, #1
 1702 01f6 1A46     		mov	r2, r3
 1703 01f8 FFF7FEFF 		bl	WriteAuxPSoC
 477:.\PrinterBLL.c ****     #endif
 478:.\PrinterBLL.c ****    
 479:.\PrinterBLL.c ****     PSTR prefstr = GetPrinterTemplateLine(PRN_DATE);
 1704              		.loc 1 479 0
 1705 01fc 0120     		movs	r0, #1
 1706 01fe FFF7FEFF 		bl	GetPrinterTemplateLine
 1707 0202 B861     		str	r0, [r7, #24]
 480:.\PrinterBLL.c ****     //output data left aligned
 481:.\PrinterBLL.c ****     WriteAuxPSoC((PNEAR_BYTE_PTR)prefstr, strlen(prefstr), printerport);
 1708              		.loc 1 481 0
 1709 0204 B869     		ldr	r0, [r7, #24]
 1710 0206 FFF7FEFF 		bl	strlen
 1711 020a 0346     		mov	r3, r0
 1712 020c 9AB2     		uxth	r2, r3
 1713 020e FB78     		ldrb	r3, [r7, #3]	@ zero_extendqisi2
 1714 0210 B869     		ldr	r0, [r7, #24]
 1715 0212 1146     		mov	r1, r2
 1716 0214 1A46     		mov	r2, r3
 1717 0216 FFF7FEFF 		bl	WriteAuxPSoC
 482:.\PrinterBLL.c ****     //Here we start to print the transaction meaningful data...
 483:.\PrinterBLL.c ****     ReadRTC();
 1718              		.loc 1 483 0
 1719 021a FFF7FEFF 		bl	ReadRTC
 484:.\PrinterBLL.c ****     
ARM GAS  C:\Users\RECEPC~1\AppData\Local\Temp\cc0bMLA1.s 			page 40


 485:.\PrinterBLL.c ****     index = 0;
 1720              		.loc 1 485 0
 1721 021e 0023     		movs	r3, #0
 1722 0220 FB77     		strb	r3, [r7, #31]
 486:.\PrinterBLL.c ****     memset(_g_auxprinterbuffer, 0x00, _MAX_PRINTER_LINE_WIDTH_);
 1723              		.loc 1 486 0
 1724 0222 4948     		ldr	r0, .L127+12
 1725 0224 0021     		movs	r1, #0
 1726 0226 1F22     		movs	r2, #31
 1727 0228 FFF7FEFF 		bl	memset
 487:.\PrinterBLL.c ****     _g_auxprinterbuffer[index++] = ((GetRtcBuffer()[RTC_DAY] >> 4) & 0x03) | 0x30;
 1728              		.loc 1 487 0
 1729 022c FB7F     		ldrb	r3, [r7, #31]	@ zero_extendqisi2
 1730 022e 5A1C     		adds	r2, r3, #1
 1731 0230 FA77     		strb	r2, [r7, #31]
 1732 0232 1C46     		mov	r4, r3
 1733 0234 FFF7FEFF 		bl	GetRtcBuffer
 1734 0238 0346     		mov	r3, r0
 1735 023a 0433     		adds	r3, r3, #4
 1736 023c 1B78     		ldrb	r3, [r3]	@ zero_extendqisi2
 1737 023e 1B09     		lsrs	r3, r3, #4
 1738 0240 DBB2     		uxtb	r3, r3
 1739 0242 DBB2     		uxtb	r3, r3
 1740 0244 03F00303 		and	r3, r3, #3
 1741 0248 DBB2     		uxtb	r3, r3
 1742 024a 43F03003 		orr	r3, r3, #48
 1743 024e DBB2     		uxtb	r3, r3
 1744 0250 DAB2     		uxtb	r2, r3
 1745 0252 3D4B     		ldr	r3, .L127+12
 1746 0254 1A55     		strb	r2, [r3, r4]
 488:.\PrinterBLL.c ****     _g_auxprinterbuffer[index++] = (GetRtcBuffer()[RTC_DAY] & 0x0F) | 0x30;
 1747              		.loc 1 488 0
 1748 0256 FB7F     		ldrb	r3, [r7, #31]	@ zero_extendqisi2
 1749 0258 5A1C     		adds	r2, r3, #1
 1750 025a FA77     		strb	r2, [r7, #31]
 1751 025c 1C46     		mov	r4, r3
 1752 025e FFF7FEFF 		bl	GetRtcBuffer
 1753 0262 0346     		mov	r3, r0
 1754 0264 0433     		adds	r3, r3, #4
 1755 0266 1B78     		ldrb	r3, [r3]	@ zero_extendqisi2
 1756 0268 DBB2     		uxtb	r3, r3
 1757 026a 03F00F03 		and	r3, r3, #15
 1758 026e DBB2     		uxtb	r3, r3
 1759 0270 43F03003 		orr	r3, r3, #48
 1760 0274 DBB2     		uxtb	r3, r3
 1761 0276 DAB2     		uxtb	r2, r3
 1762 0278 334B     		ldr	r3, .L127+12
 1763 027a 1A55     		strb	r2, [r3, r4]
 489:.\PrinterBLL.c ****     _g_auxprinterbuffer[index++] = _ASCII_SLASH_;
 1764              		.loc 1 489 0
 1765 027c FB7F     		ldrb	r3, [r7, #31]	@ zero_extendqisi2
 1766 027e 5A1C     		adds	r2, r3, #1
 1767 0280 FA77     		strb	r2, [r7, #31]
 1768 0282 1A46     		mov	r2, r3
 1769 0284 304B     		ldr	r3, .L127+12
 1770 0286 2F21     		movs	r1, #47
 1771 0288 9954     		strb	r1, [r3, r2]
ARM GAS  C:\Users\RECEPC~1\AppData\Local\Temp\cc0bMLA1.s 			page 41


 490:.\PrinterBLL.c ****     _g_auxprinterbuffer[index++] = ((GetRtcBuffer()[RTC_MONTH] >> 4) & 0x01) | 0x30;
 1772              		.loc 1 490 0
 1773 028a FB7F     		ldrb	r3, [r7, #31]	@ zero_extendqisi2
 1774 028c 5A1C     		adds	r2, r3, #1
 1775 028e FA77     		strb	r2, [r7, #31]
 1776 0290 1C46     		mov	r4, r3
 1777 0292 FFF7FEFF 		bl	GetRtcBuffer
 1778 0296 0346     		mov	r3, r0
 1779 0298 0533     		adds	r3, r3, #5
 1780 029a 1B78     		ldrb	r3, [r3]	@ zero_extendqisi2
 1781 029c 1B09     		lsrs	r3, r3, #4
 1782 029e DBB2     		uxtb	r3, r3
 1783 02a0 DBB2     		uxtb	r3, r3
 1784 02a2 03F00103 		and	r3, r3, #1
 1785 02a6 DBB2     		uxtb	r3, r3
 1786 02a8 43F03003 		orr	r3, r3, #48
 1787 02ac DBB2     		uxtb	r3, r3
 1788 02ae DAB2     		uxtb	r2, r3
 1789 02b0 254B     		ldr	r3, .L127+12
 1790 02b2 1A55     		strb	r2, [r3, r4]
 491:.\PrinterBLL.c ****     _g_auxprinterbuffer[index++] = (GetRtcBuffer()[RTC_MONTH] & 0x0F) | 0x30;
 1791              		.loc 1 491 0
 1792 02b4 FB7F     		ldrb	r3, [r7, #31]	@ zero_extendqisi2
 1793 02b6 5A1C     		adds	r2, r3, #1
 1794 02b8 FA77     		strb	r2, [r7, #31]
 1795 02ba 1C46     		mov	r4, r3
 1796 02bc FFF7FEFF 		bl	GetRtcBuffer
 1797 02c0 0346     		mov	r3, r0
 1798 02c2 0533     		adds	r3, r3, #5
 1799 02c4 1B78     		ldrb	r3, [r3]	@ zero_extendqisi2
 1800 02c6 DBB2     		uxtb	r3, r3
 1801 02c8 03F00F03 		and	r3, r3, #15
 1802 02cc DBB2     		uxtb	r3, r3
 1803 02ce 43F03003 		orr	r3, r3, #48
 1804 02d2 DBB2     		uxtb	r3, r3
 1805 02d4 DAB2     		uxtb	r2, r3
 1806 02d6 1C4B     		ldr	r3, .L127+12
 1807 02d8 1A55     		strb	r2, [r3, r4]
 492:.\PrinterBLL.c ****     _g_auxprinterbuffer[index++] = _ASCII_SLASH_;
 1808              		.loc 1 492 0
 1809 02da FB7F     		ldrb	r3, [r7, #31]	@ zero_extendqisi2
 1810 02dc 5A1C     		adds	r2, r3, #1
 1811 02de FA77     		strb	r2, [r7, #31]
 1812 02e0 1A46     		mov	r2, r3
 1813 02e2 194B     		ldr	r3, .L127+12
 1814 02e4 2F21     		movs	r1, #47
 1815 02e6 9954     		strb	r1, [r3, r2]
 493:.\PrinterBLL.c ****     _g_auxprinterbuffer[index++] = 0x32;//2 in ASCII
 1816              		.loc 1 493 0
 1817 02e8 FB7F     		ldrb	r3, [r7, #31]	@ zero_extendqisi2
 1818 02ea 5A1C     		adds	r2, r3, #1
 1819 02ec FA77     		strb	r2, [r7, #31]
 1820 02ee 1A46     		mov	r2, r3
 1821 02f0 154B     		ldr	r3, .L127+12
 1822 02f2 3221     		movs	r1, #50
 1823 02f4 9954     		strb	r1, [r3, r2]
 494:.\PrinterBLL.c ****     _g_auxprinterbuffer[index++] = 0x30;//0 in ASCII (these values are enougth for a century of MUX
ARM GAS  C:\Users\RECEPC~1\AppData\Local\Temp\cc0bMLA1.s 			page 42


 1824              		.loc 1 494 0
 1825 02f6 FB7F     		ldrb	r3, [r7, #31]	@ zero_extendqisi2
 1826 02f8 5A1C     		adds	r2, r3, #1
 1827 02fa FA77     		strb	r2, [r7, #31]
 1828 02fc 1A46     		mov	r2, r3
 1829 02fe 124B     		ldr	r3, .L127+12
 1830 0300 3021     		movs	r1, #48
 1831 0302 9954     		strb	r1, [r3, r2]
 495:.\PrinterBLL.c ****     _g_auxprinterbuffer[index++] = ((GetRtcBuffer()[RTC_YEAR] >> 4) & 0x0F) | 0x30;
 1832              		.loc 1 495 0
 1833 0304 FB7F     		ldrb	r3, [r7, #31]	@ zero_extendqisi2
 1834 0306 5A1C     		adds	r2, r3, #1
 1835 0308 FA77     		strb	r2, [r7, #31]
 1836 030a 1C46     		mov	r4, r3
 1837 030c FFF7FEFF 		bl	GetRtcBuffer
 1838 0310 0346     		mov	r3, r0
 1839 0312 0633     		adds	r3, r3, #6
 1840 0314 1B78     		ldrb	r3, [r3]	@ zero_extendqisi2
 1841 0316 1B09     		lsrs	r3, r3, #4
 1842 0318 DBB2     		uxtb	r3, r3
 1843 031a DBB2     		uxtb	r3, r3
 1844 031c 43F03003 		orr	r3, r3, #48
 1845 0320 DBB2     		uxtb	r3, r3
 1846 0322 DAB2     		uxtb	r2, r3
 1847 0324 084B     		ldr	r3, .L127+12
 1848 0326 1A55     		strb	r2, [r3, r4]
 496:.\PrinterBLL.c ****     _g_auxprinterbuffer[index++] = (GetRtcBuffer()[RTC_YEAR] & 0x0F) | 0x30;
 1849              		.loc 1 496 0
 1850 0328 FB7F     		ldrb	r3, [r7, #31]	@ zero_extendqisi2
 1851 032a 5A1C     		adds	r2, r3, #1
 1852 032c FA77     		strb	r2, [r7, #31]
 1853 032e 1C46     		mov	r4, r3
 1854 0330 FFF7FEFF 		bl	GetRtcBuffer
 1855 0334 0346     		mov	r3, r0
 1856 0336 0633     		adds	r3, r3, #6
 1857 0338 1B78     		ldrb	r3, [r3]	@ zero_extendqisi2
 1858 033a 07E0     		b	.L128
 1859              	.L129:
 1860              		.align	2
 1861              	.L127:
 1862 033c 00000000 		.word	_g_linefeed
 1863 0340 00000000 		.word	_g_padcharacters
 1864 0344 00000000 		.word	_g_separator
 1865 0348 00000000 		.word	_g_auxprinterbuffer
 1866              	.L128:
 1867 034c DBB2     		uxtb	r3, r3
 1868 034e 03F00F03 		and	r3, r3, #15
 1869 0352 DBB2     		uxtb	r3, r3
 1870 0354 43F03003 		orr	r3, r3, #48
 1871 0358 DBB2     		uxtb	r3, r3
 1872 035a DAB2     		uxtb	r2, r3
 1873 035c 7C4B     		ldr	r3, .L130
 1874 035e 1A55     		strb	r2, [r3, r4]
 497:.\PrinterBLL.c **** 
 498:.\PrinterBLL.c ****     //output data left aligned
 499:.\PrinterBLL.c ****     WriteAuxPSoC(_g_auxprinterbuffer, index, printerport);
 1875              		.loc 1 499 0
ARM GAS  C:\Users\RECEPC~1\AppData\Local\Temp\cc0bMLA1.s 			page 43


 1876 0360 FB7F     		ldrb	r3, [r7, #31]	@ zero_extendqisi2
 1877 0362 9AB2     		uxth	r2, r3
 1878 0364 FB78     		ldrb	r3, [r7, #3]	@ zero_extendqisi2
 1879 0366 7A48     		ldr	r0, .L130
 1880 0368 1146     		mov	r1, r2
 1881 036a 1A46     		mov	r2, r3
 1882 036c FFF7FEFF 		bl	WriteAuxPSoC
 500:.\PrinterBLL.c ****     
 501:.\PrinterBLL.c ****     //line feed 
 502:.\PrinterBLL.c ****     PRINTER_LINEFEED(printerport);
 1883              		.loc 1 502 0
 1884 0370 FB78     		ldrb	r3, [r7, #3]	@ zero_extendqisi2
 1885 0372 7848     		ldr	r0, .L130+4
 1886 0374 0121     		movs	r1, #1
 1887 0376 1A46     		mov	r2, r3
 1888 0378 FFF7FEFF 		bl	WriteAuxPSoC
 503:.\PrinterBLL.c ****     #ifdef PRINTER_TYPE_PANEL
 504:.\PrinterBLL.c ****     PRINTER_INDENTLINE(_LEFT_MARGIN_, printerport);
 1889              		.loc 1 504 0
 1890 037c FB78     		ldrb	r3, [r7, #3]	@ zero_extendqisi2
 1891 037e 7648     		ldr	r0, .L130+8
 1892 0380 0121     		movs	r1, #1
 1893 0382 1A46     		mov	r2, r3
 1894 0384 FFF7FEFF 		bl	WriteAuxPSoC
 505:.\PrinterBLL.c ****     #endif
 506:.\PrinterBLL.c **** 
 507:.\PrinterBLL.c ****     prefstr = GetPrinterTemplateLine(PRN_HOUR);
 1895              		.loc 1 507 0
 1896 0388 0220     		movs	r0, #2
 1897 038a FFF7FEFF 		bl	GetPrinterTemplateLine
 1898 038e B861     		str	r0, [r7, #24]
 508:.\PrinterBLL.c ****     //output data left aligned
 509:.\PrinterBLL.c ****     WriteAuxPSoC((PNEAR_BYTE_PTR)prefstr, strlen(prefstr), printerport);
 1899              		.loc 1 509 0
 1900 0390 B869     		ldr	r0, [r7, #24]
 1901 0392 FFF7FEFF 		bl	strlen
 1902 0396 0346     		mov	r3, r0
 1903 0398 9AB2     		uxth	r2, r3
 1904 039a FB78     		ldrb	r3, [r7, #3]	@ zero_extendqisi2
 1905 039c B869     		ldr	r0, [r7, #24]
 1906 039e 1146     		mov	r1, r2
 1907 03a0 1A46     		mov	r2, r3
 1908 03a2 FFF7FEFF 		bl	WriteAuxPSoC
 510:.\PrinterBLL.c ****     
 511:.\PrinterBLL.c ****     index = 0x00;
 1909              		.loc 1 511 0
 1910 03a6 0023     		movs	r3, #0
 1911 03a8 FB77     		strb	r3, [r7, #31]
 512:.\PrinterBLL.c ****     bool ampm = false;//This is to signal the time format (12/24)
 1912              		.loc 1 512 0
 1913 03aa 0023     		movs	r3, #0
 1914 03ac FB75     		strb	r3, [r7, #23]
 513:.\PrinterBLL.c ****     bool tf12 = false;//This is to signal the time format (12/24)
 1915              		.loc 1 513 0
 1916 03ae 0023     		movs	r3, #0
 1917 03b0 BB75     		strb	r3, [r7, #22]
 514:.\PrinterBLL.c ****     if(GetRtcBuffer()[RTC_HOUR] & 0b01000000)
ARM GAS  C:\Users\RECEPC~1\AppData\Local\Temp\cc0bMLA1.s 			page 44


 1918              		.loc 1 514 0
 1919 03b2 FFF7FEFF 		bl	GetRtcBuffer
 1920 03b6 0346     		mov	r3, r0
 1921 03b8 0233     		adds	r3, r3, #2
 1922 03ba 1B78     		ldrb	r3, [r3]	@ zero_extendqisi2
 1923 03bc 03F04003 		and	r3, r3, #64
 1924 03c0 002B     		cmp	r3, #0
 1925 03c2 2ED0     		beq	.L103
 515:.\PrinterBLL.c ****     {
 516:.\PrinterBLL.c ****         tf12 = true;//AM/PM
 1926              		.loc 1 516 0
 1927 03c4 0123     		movs	r3, #1
 1928 03c6 BB75     		strb	r3, [r7, #22]
 517:.\PrinterBLL.c ****         _g_auxprinterbuffer[index++] = ((GetRtcBuffer()[RTC_HOUR] >> 4) & 0x01) | 0x30;
 1929              		.loc 1 517 0
 1930 03c8 FB7F     		ldrb	r3, [r7, #31]	@ zero_extendqisi2
 1931 03ca 5A1C     		adds	r2, r3, #1
 1932 03cc FA77     		strb	r2, [r7, #31]
 1933 03ce 1C46     		mov	r4, r3
 1934 03d0 FFF7FEFF 		bl	GetRtcBuffer
 1935 03d4 0346     		mov	r3, r0
 1936 03d6 0233     		adds	r3, r3, #2
 1937 03d8 1B78     		ldrb	r3, [r3]	@ zero_extendqisi2
 1938 03da 1B09     		lsrs	r3, r3, #4
 1939 03dc DBB2     		uxtb	r3, r3
 1940 03de DBB2     		uxtb	r3, r3
 1941 03e0 03F00103 		and	r3, r3, #1
 1942 03e4 DBB2     		uxtb	r3, r3
 1943 03e6 43F03003 		orr	r3, r3, #48
 1944 03ea DBB2     		uxtb	r3, r3
 1945 03ec DAB2     		uxtb	r2, r3
 1946 03ee 584B     		ldr	r3, .L130
 1947 03f0 1A55     		strb	r2, [r3, r4]
 518:.\PrinterBLL.c ****         _g_auxprinterbuffer[index++] = (GetRtcBuffer()[RTC_HOUR] & 0x0F) | 0x30;
 1948              		.loc 1 518 0
 1949 03f2 FB7F     		ldrb	r3, [r7, #31]	@ zero_extendqisi2
 1950 03f4 5A1C     		adds	r2, r3, #1
 1951 03f6 FA77     		strb	r2, [r7, #31]
 1952 03f8 1C46     		mov	r4, r3
 1953 03fa FFF7FEFF 		bl	GetRtcBuffer
 1954 03fe 0346     		mov	r3, r0
 1955 0400 0233     		adds	r3, r3, #2
 1956 0402 1B78     		ldrb	r3, [r3]	@ zero_extendqisi2
 1957 0404 DBB2     		uxtb	r3, r3
 1958 0406 03F00F03 		and	r3, r3, #15
 1959 040a DBB2     		uxtb	r3, r3
 1960 040c 43F03003 		orr	r3, r3, #48
 1961 0410 DBB2     		uxtb	r3, r3
 1962 0412 DAB2     		uxtb	r2, r3
 1963 0414 4E4B     		ldr	r3, .L130
 1964 0416 1A55     		strb	r2, [r3, r4]
 519:.\PrinterBLL.c ****         ampm = ((GetRtcBuffer()[RTC_HOUR] >> 4) & 0b00100000) | 0x30;
 1965              		.loc 1 519 0
 1966 0418 FFF7FEFF 		bl	GetRtcBuffer
 1967 041c 0123     		movs	r3, #1
 1968 041e FB75     		strb	r3, [r7, #23]
 1969 0420 27E0     		b	.L104
ARM GAS  C:\Users\RECEPC~1\AppData\Local\Temp\cc0bMLA1.s 			page 45


 1970              	.L103:
 520:.\PrinterBLL.c ****     }else{
 521:.\PrinterBLL.c ****         _g_auxprinterbuffer[index++] = ((GetRtcBuffer()[RTC_HOUR] >> 4) & 0x03) | 0x30;
 1971              		.loc 1 521 0
 1972 0422 FB7F     		ldrb	r3, [r7, #31]	@ zero_extendqisi2
 1973 0424 5A1C     		adds	r2, r3, #1
 1974 0426 FA77     		strb	r2, [r7, #31]
 1975 0428 1C46     		mov	r4, r3
 1976 042a FFF7FEFF 		bl	GetRtcBuffer
 1977 042e 0346     		mov	r3, r0
 1978 0430 0233     		adds	r3, r3, #2
 1979 0432 1B78     		ldrb	r3, [r3]	@ zero_extendqisi2
 1980 0434 1B09     		lsrs	r3, r3, #4
 1981 0436 DBB2     		uxtb	r3, r3
 1982 0438 DBB2     		uxtb	r3, r3
 1983 043a 03F00303 		and	r3, r3, #3
 1984 043e DBB2     		uxtb	r3, r3
 1985 0440 43F03003 		orr	r3, r3, #48
 1986 0444 DBB2     		uxtb	r3, r3
 1987 0446 DAB2     		uxtb	r2, r3
 1988 0448 414B     		ldr	r3, .L130
 1989 044a 1A55     		strb	r2, [r3, r4]
 522:.\PrinterBLL.c ****         _g_auxprinterbuffer[index++] = (GetRtcBuffer()[RTC_HOUR] & 0x0F) | 0x30;
 1990              		.loc 1 522 0
 1991 044c FB7F     		ldrb	r3, [r7, #31]	@ zero_extendqisi2
 1992 044e 5A1C     		adds	r2, r3, #1
 1993 0450 FA77     		strb	r2, [r7, #31]
 1994 0452 1C46     		mov	r4, r3
 1995 0454 FFF7FEFF 		bl	GetRtcBuffer
 1996 0458 0346     		mov	r3, r0
 1997 045a 0233     		adds	r3, r3, #2
 1998 045c 1B78     		ldrb	r3, [r3]	@ zero_extendqisi2
 1999 045e DBB2     		uxtb	r3, r3
 2000 0460 03F00F03 		and	r3, r3, #15
 2001 0464 DBB2     		uxtb	r3, r3
 2002 0466 43F03003 		orr	r3, r3, #48
 2003 046a DBB2     		uxtb	r3, r3
 2004 046c DAB2     		uxtb	r2, r3
 2005 046e 384B     		ldr	r3, .L130
 2006 0470 1A55     		strb	r2, [r3, r4]
 2007              	.L104:
 523:.\PrinterBLL.c ****     }
 524:.\PrinterBLL.c ****     _g_auxprinterbuffer[index++] = _ASCII_COLON_;
 2008              		.loc 1 524 0
 2009 0472 FB7F     		ldrb	r3, [r7, #31]	@ zero_extendqisi2
 2010 0474 5A1C     		adds	r2, r3, #1
 2011 0476 FA77     		strb	r2, [r7, #31]
 2012 0478 1A46     		mov	r2, r3
 2013 047a 354B     		ldr	r3, .L130
 2014 047c 3A21     		movs	r1, #58
 2015 047e 9954     		strb	r1, [r3, r2]
 525:.\PrinterBLL.c ****     _g_auxprinterbuffer[index++] = ((GetRtcBuffer()[RTC_MINUTES] >> 4) & 0x07) | 0x30;
 2016              		.loc 1 525 0
 2017 0480 FB7F     		ldrb	r3, [r7, #31]	@ zero_extendqisi2
 2018 0482 5A1C     		adds	r2, r3, #1
 2019 0484 FA77     		strb	r2, [r7, #31]
 2020 0486 1C46     		mov	r4, r3
ARM GAS  C:\Users\RECEPC~1\AppData\Local\Temp\cc0bMLA1.s 			page 46


 2021 0488 FFF7FEFF 		bl	GetRtcBuffer
 2022 048c 0346     		mov	r3, r0
 2023 048e 0133     		adds	r3, r3, #1
 2024 0490 1B78     		ldrb	r3, [r3]	@ zero_extendqisi2
 2025 0492 1B09     		lsrs	r3, r3, #4
 2026 0494 DBB2     		uxtb	r3, r3
 2027 0496 DBB2     		uxtb	r3, r3
 2028 0498 03F00703 		and	r3, r3, #7
 2029 049c DBB2     		uxtb	r3, r3
 2030 049e 43F03003 		orr	r3, r3, #48
 2031 04a2 DBB2     		uxtb	r3, r3
 2032 04a4 DAB2     		uxtb	r2, r3
 2033 04a6 2A4B     		ldr	r3, .L130
 2034 04a8 1A55     		strb	r2, [r3, r4]
 526:.\PrinterBLL.c ****     _g_auxprinterbuffer[index++] = (GetRtcBuffer()[RTC_MINUTES] & 0x0F) | 0x30;
 2035              		.loc 1 526 0
 2036 04aa FB7F     		ldrb	r3, [r7, #31]	@ zero_extendqisi2
 2037 04ac 5A1C     		adds	r2, r3, #1
 2038 04ae FA77     		strb	r2, [r7, #31]
 2039 04b0 1C46     		mov	r4, r3
 2040 04b2 FFF7FEFF 		bl	GetRtcBuffer
 2041 04b6 0346     		mov	r3, r0
 2042 04b8 0133     		adds	r3, r3, #1
 2043 04ba 1B78     		ldrb	r3, [r3]	@ zero_extendqisi2
 2044 04bc DBB2     		uxtb	r3, r3
 2045 04be 03F00F03 		and	r3, r3, #15
 2046 04c2 DBB2     		uxtb	r3, r3
 2047 04c4 43F03003 		orr	r3, r3, #48
 2048 04c8 DBB2     		uxtb	r3, r3
 2049 04ca DAB2     		uxtb	r2, r3
 2050 04cc 204B     		ldr	r3, .L130
 2051 04ce 1A55     		strb	r2, [r3, r4]
 527:.\PrinterBLL.c ****     _g_auxprinterbuffer[index++] = _ASCII_COLON_;
 2052              		.loc 1 527 0
 2053 04d0 FB7F     		ldrb	r3, [r7, #31]	@ zero_extendqisi2
 2054 04d2 5A1C     		adds	r2, r3, #1
 2055 04d4 FA77     		strb	r2, [r7, #31]
 2056 04d6 1A46     		mov	r2, r3
 2057 04d8 1D4B     		ldr	r3, .L130
 2058 04da 3A21     		movs	r1, #58
 2059 04dc 9954     		strb	r1, [r3, r2]
 528:.\PrinterBLL.c ****     _g_auxprinterbuffer[index++] = ((GetRtcBuffer()[RTC_SECONDS] >> 4) & 0x07) | 0x30;
 2060              		.loc 1 528 0
 2061 04de FB7F     		ldrb	r3, [r7, #31]	@ zero_extendqisi2
 2062 04e0 5A1C     		adds	r2, r3, #1
 2063 04e2 FA77     		strb	r2, [r7, #31]
 2064 04e4 1C46     		mov	r4, r3
 2065 04e6 FFF7FEFF 		bl	GetRtcBuffer
 2066 04ea 0346     		mov	r3, r0
 2067 04ec 1B78     		ldrb	r3, [r3]	@ zero_extendqisi2
 2068 04ee 1B09     		lsrs	r3, r3, #4
 2069 04f0 DBB2     		uxtb	r3, r3
 2070 04f2 DBB2     		uxtb	r3, r3
 2071 04f4 03F00703 		and	r3, r3, #7
 2072 04f8 DBB2     		uxtb	r3, r3
 2073 04fa 43F03003 		orr	r3, r3, #48
 2074 04fe DBB2     		uxtb	r3, r3
ARM GAS  C:\Users\RECEPC~1\AppData\Local\Temp\cc0bMLA1.s 			page 47


 2075 0500 DAB2     		uxtb	r2, r3
 2076 0502 134B     		ldr	r3, .L130
 2077 0504 1A55     		strb	r2, [r3, r4]
 529:.\PrinterBLL.c ****     _g_auxprinterbuffer[index++] = (GetRtcBuffer()[RTC_SECONDS] & 0x0F) | 0x30;
 2078              		.loc 1 529 0
 2079 0506 FB7F     		ldrb	r3, [r7, #31]	@ zero_extendqisi2
 2080 0508 5A1C     		adds	r2, r3, #1
 2081 050a FA77     		strb	r2, [r7, #31]
 2082 050c 1C46     		mov	r4, r3
 2083 050e FFF7FEFF 		bl	GetRtcBuffer
 2084 0512 0346     		mov	r3, r0
 2085 0514 1B78     		ldrb	r3, [r3]	@ zero_extendqisi2
 2086 0516 DBB2     		uxtb	r3, r3
 2087 0518 03F00F03 		and	r3, r3, #15
 2088 051c DBB2     		uxtb	r3, r3
 2089 051e 43F03003 		orr	r3, r3, #48
 2090 0522 DBB2     		uxtb	r3, r3
 2091 0524 DAB2     		uxtb	r2, r3
 2092 0526 0A4B     		ldr	r3, .L130
 2093 0528 1A55     		strb	r2, [r3, r4]
 530:.\PrinterBLL.c ****     if(tf12)
 2094              		.loc 1 530 0
 2095 052a BB7D     		ldrb	r3, [r7, #22]	@ zero_extendqisi2
 2096 052c 002B     		cmp	r3, #0
 2097 052e 1FD0     		beq	.L105
 531:.\PrinterBLL.c ****     {
 532:.\PrinterBLL.c ****         _g_auxprinterbuffer[index++] = _ASCII_SPACE_;
 2098              		.loc 1 532 0
 2099 0530 FB7F     		ldrb	r3, [r7, #31]	@ zero_extendqisi2
 2100 0532 5A1C     		adds	r2, r3, #1
 2101 0534 FA77     		strb	r2, [r7, #31]
 2102 0536 1A46     		mov	r2, r3
 2103 0538 054B     		ldr	r3, .L130
 2104 053a 2021     		movs	r1, #32
 2105 053c 9954     		strb	r1, [r3, r2]
 533:.\PrinterBLL.c ****         _g_auxprinterbuffer[index++] = (ampm)? 0x41: 0x50;
 2106              		.loc 1 533 0
 2107 053e FB7F     		ldrb	r3, [r7, #31]	@ zero_extendqisi2
 2108 0540 5A1C     		adds	r2, r3, #1
 2109 0542 FA77     		strb	r2, [r7, #31]
 2110 0544 1A46     		mov	r2, r3
 2111 0546 FB7D     		ldrb	r3, [r7, #23]	@ zero_extendqisi2
 2112 0548 002B     		cmp	r3, #0
 2113 054a 07D0     		beq	.L106
 2114              		.loc 1 533 0 is_stmt 0 discriminator 1
 2115 054c 4121     		movs	r1, #65
 2116 054e 06E0     		b	.L107
 2117              	.L131:
 2118              		.align	2
 2119              	.L130:
 2120 0550 00000000 		.word	_g_auxprinterbuffer
 2121 0554 00000000 		.word	_g_linefeed
 2122 0558 00000000 		.word	_g_padcharacters
 2123              	.L106:
 2124              		.loc 1 533 0 discriminator 2
 2125 055c 5021     		movs	r1, #80
 2126              	.L107:
ARM GAS  C:\Users\RECEPC~1\AppData\Local\Temp\cc0bMLA1.s 			page 48


 2127              		.loc 1 533 0 discriminator 4
 2128 055e BA4B     		ldr	r3, .L132
 2129 0560 9954     		strb	r1, [r3, r2]
 534:.\PrinterBLL.c ****         _g_auxprinterbuffer[index++] = 0x4D;
 2130              		.loc 1 534 0 is_stmt 1 discriminator 4
 2131 0562 FB7F     		ldrb	r3, [r7, #31]	@ zero_extendqisi2
 2132 0564 5A1C     		adds	r2, r3, #1
 2133 0566 FA77     		strb	r2, [r7, #31]
 2134 0568 1A46     		mov	r2, r3
 2135 056a B74B     		ldr	r3, .L132
 2136 056c 4D21     		movs	r1, #77
 2137 056e 9954     		strb	r1, [r3, r2]
 2138              	.L105:
 535:.\PrinterBLL.c ****     }
 536:.\PrinterBLL.c ****     
 537:.\PrinterBLL.c ****     //output data left aligned
 538:.\PrinterBLL.c ****     WriteAuxPSoC(_g_auxprinterbuffer, index, printerport);
 2139              		.loc 1 538 0
 2140 0570 FB7F     		ldrb	r3, [r7, #31]	@ zero_extendqisi2
 2141 0572 9AB2     		uxth	r2, r3
 2142 0574 FB78     		ldrb	r3, [r7, #3]	@ zero_extendqisi2
 2143 0576 B448     		ldr	r0, .L132
 2144 0578 1146     		mov	r1, r2
 2145 057a 1A46     		mov	r2, r3
 2146 057c FFF7FEFF 		bl	WriteAuxPSoC
 539:.\PrinterBLL.c ****     //line separator
 540:.\PrinterBLL.c ****     PRINTER_SEPARATOR(printerport);
 2147              		.loc 1 540 0
 2148 0580 FB78     		ldrb	r3, [r7, #3]	@ zero_extendqisi2
 2149 0582 B248     		ldr	r0, .L132+4
 2150 0584 0121     		movs	r1, #1
 2151 0586 1A46     		mov	r2, r3
 2152 0588 FFF7FEFF 		bl	WriteAuxPSoC
 2153 058c FB78     		ldrb	r3, [r7, #3]	@ zero_extendqisi2
 2154 058e B048     		ldr	r0, .L132+8
 2155 0590 1F21     		movs	r1, #31
 2156 0592 1A46     		mov	r2, r3
 2157 0594 FFF7FEFF 		bl	WriteAuxPSoC
 2158 0598 FB78     		ldrb	r3, [r7, #3]	@ zero_extendqisi2
 2159 059a AC48     		ldr	r0, .L132+4
 2160 059c 0121     		movs	r1, #1
 2161 059e 1A46     		mov	r2, r3
 2162 05a0 FFF7FEFF 		bl	WriteAuxPSoC
 541:.\PrinterBLL.c ****     #ifdef PRINTER_TYPE_PANEL
 542:.\PrinterBLL.c ****     PRINTER_INDENTLINE(_LEFT_MARGIN_, printerport);
 2163              		.loc 1 542 0
 2164 05a4 FB78     		ldrb	r3, [r7, #3]	@ zero_extendqisi2
 2165 05a6 AB48     		ldr	r0, .L132+12
 2166 05a8 0121     		movs	r1, #1
 2167 05aa 1A46     		mov	r2, r3
 2168 05ac FFF7FEFF 		bl	WriteAuxPSoC
 543:.\PrinterBLL.c ****     #endif
 544:.\PrinterBLL.c ****     
 545:.\PrinterBLL.c ****     prefstr = GetPrinterTemplateLine(PRN_PUMPPOS);
 2169              		.loc 1 545 0
 2170 05b0 0620     		movs	r0, #6
 2171 05b2 FFF7FEFF 		bl	GetPrinterTemplateLine
ARM GAS  C:\Users\RECEPC~1\AppData\Local\Temp\cc0bMLA1.s 			page 49


 2172 05b6 B861     		str	r0, [r7, #24]
 546:.\PrinterBLL.c ****     //output data left aligned
 547:.\PrinterBLL.c ****     WriteAuxPSoC((PNEAR_BYTE_PTR)prefstr, strlen(prefstr), printerport);
 2173              		.loc 1 547 0
 2174 05b8 B869     		ldr	r0, [r7, #24]
 2175 05ba FFF7FEFF 		bl	strlen
 2176 05be 0346     		mov	r3, r0
 2177 05c0 9AB2     		uxth	r2, r3
 2178 05c2 FB78     		ldrb	r3, [r7, #3]	@ zero_extendqisi2
 2179 05c4 B869     		ldr	r0, [r7, #24]
 2180 05c6 1146     		mov	r1, r2
 2181 05c8 1A46     		mov	r2, r3
 2182 05ca FFF7FEFF 		bl	WriteAuxPSoC
 548:.\PrinterBLL.c ****     //PUMP POSITION COMES IN THE ARRAY INDEX 0
 549:.\PrinterBLL.c ****     memset(_g_auxprinterbuffer, 0x00, _MAX_PRINTER_LINE_WIDTH_);
 2183              		.loc 1 549 0
 2184 05ce 9E48     		ldr	r0, .L132
 2185 05d0 0021     		movs	r1, #0
 2186 05d2 1F22     		movs	r2, #31
 2187 05d4 FFF7FEFF 		bl	memset
 550:.\PrinterBLL.c ****     B78AD90CF552D9B30A(pmsg->_buffer[0x00] + _g_dispenserlayoutinfo._positionoffset, _g_auxprinterb
 2188              		.loc 1 550 0
 2189 05d8 7B68     		ldr	r3, [r7, #4]
 2190 05da 1B7B     		ldrb	r3, [r3, #12]	@ zero_extendqisi2
 2191 05dc 1A46     		mov	r2, r3
 2192 05de 9E4B     		ldr	r3, .L132+16
 2193 05e0 9B7C     		ldrb	r3, [r3, #18]	@ zero_extendqisi2
 2194 05e2 1344     		add	r3, r3, r2
 2195 05e4 1A46     		mov	r2, r3
 2196 05e6 4FEAE273 		asr	r3, r2, #31
 2197 05ea 1046     		mov	r0, r2
 2198 05ec 1946     		mov	r1, r3
 2199 05ee 964A     		ldr	r2, .L132
 2200 05f0 FFF7FEFF 		bl	B78AD90CF552D9B30A
 551:.\PrinterBLL.c ****     PSTRBUFFTOGG(_g_auxprinterbuffer, strlen(PSTRCAST(_g_auxprinterbuffer)));
 2201              		.loc 1 551 0
 2202 05f4 9448     		ldr	r0, .L132
 2203 05f6 FFF7FEFF 		bl	strlen
 2204 05fa 0346     		mov	r3, r0
 2205 05fc DBB2     		uxtb	r3, r3
 2206 05fe 9248     		ldr	r0, .L132
 2207 0600 1946     		mov	r1, r3
 2208 0602 FFF7FEFF 		bl	PSTRBUFFTOGG
 552:.\PrinterBLL.c ****     WriteAuxPSoC((PNEAR_BYTE_PTR)_g_auxprinterbuffer, strlen(PSTRCAST(_g_auxprinterbuffer)), printe
 2209              		.loc 1 552 0
 2210 0606 9048     		ldr	r0, .L132
 2211 0608 FFF7FEFF 		bl	strlen
 2212 060c 0346     		mov	r3, r0
 2213 060e 9AB2     		uxth	r2, r3
 2214 0610 FB78     		ldrb	r3, [r7, #3]	@ zero_extendqisi2
 2215 0612 8D48     		ldr	r0, .L132
 2216 0614 1146     		mov	r1, r2
 2217 0616 1A46     		mov	r2, r3
 2218 0618 FFF7FEFF 		bl	WriteAuxPSoC
 553:.\PrinterBLL.c ****     //line feed 
 554:.\PrinterBLL.c ****     PRINTER_LINEFEED(printerport);
 2219              		.loc 1 554 0
ARM GAS  C:\Users\RECEPC~1\AppData\Local\Temp\cc0bMLA1.s 			page 50


 2220 061c FB78     		ldrb	r3, [r7, #3]	@ zero_extendqisi2
 2221 061e 8B48     		ldr	r0, .L132+4
 2222 0620 0121     		movs	r1, #1
 2223 0622 1A46     		mov	r2, r3
 2224 0624 FFF7FEFF 		bl	WriteAuxPSoC
 555:.\PrinterBLL.c ****     #ifdef PRINTER_TYPE_PANEL
 556:.\PrinterBLL.c ****     PRINTER_INDENTLINE(_LEFT_MARGIN_, printerport);
 2225              		.loc 1 556 0
 2226 0628 FB78     		ldrb	r3, [r7, #3]	@ zero_extendqisi2
 2227 062a 8A48     		ldr	r0, .L132+12
 2228 062c 0121     		movs	r1, #1
 2229 062e 1A46     		mov	r2, r3
 2230 0630 FFF7FEFF 		bl	WriteAuxPSoC
 557:.\PrinterBLL.c ****     #endif
 558:.\PrinterBLL.c **** 
 559:.\PrinterBLL.c ****     prefstr = GetPrinterTemplateLine(PRN_INVNUMBER);
 2231              		.loc 1 559 0
 2232 0634 0720     		movs	r0, #7
 2233 0636 FFF7FEFF 		bl	GetPrinterTemplateLine
 2234 063a B861     		str	r0, [r7, #24]
 560:.\PrinterBLL.c ****     //output data left aligned
 561:.\PrinterBLL.c ****     WriteAuxPSoC((PNEAR_BYTE_PTR)prefstr, strlen(prefstr), printerport);
 2235              		.loc 1 561 0
 2236 063c B869     		ldr	r0, [r7, #24]
 2237 063e FFF7FEFF 		bl	strlen
 2238 0642 0346     		mov	r3, r0
 2239 0644 9AB2     		uxth	r2, r3
 2240 0646 FB78     		ldrb	r3, [r7, #3]	@ zero_extendqisi2
 2241 0648 B869     		ldr	r0, [r7, #24]
 2242 064a 1146     		mov	r1, r2
 2243 064c 1A46     		mov	r2, r3
 2244 064e FFF7FEFF 		bl	WriteAuxPSoC
 562:.\PrinterBLL.c ****     //INVOICE NUMBER
 563:.\PrinterBLL.c ****     WriteAuxPSoC((PNEAR_BYTE_PTR)&pmsg->_buffer[0x20], 0x0A, printerport);
 2245              		.loc 1 563 0
 2246 0652 7B68     		ldr	r3, [r7, #4]
 2247 0654 03F12C02 		add	r2, r3, #44
 2248 0658 FB78     		ldrb	r3, [r7, #3]	@ zero_extendqisi2
 2249 065a 1046     		mov	r0, r2
 2250 065c 0A21     		movs	r1, #10
 2251 065e 1A46     		mov	r2, r3
 2252 0660 FFF7FEFF 		bl	WriteAuxPSoC
 564:.\PrinterBLL.c ****     //line feed 
 565:.\PrinterBLL.c ****     PRINTER_LINEFEED(printerport);
 2253              		.loc 1 565 0
 2254 0664 FB78     		ldrb	r3, [r7, #3]	@ zero_extendqisi2
 2255 0666 7948     		ldr	r0, .L132+4
 2256 0668 0121     		movs	r1, #1
 2257 066a 1A46     		mov	r2, r3
 2258 066c FFF7FEFF 		bl	WriteAuxPSoC
 566:.\PrinterBLL.c ****     #ifdef PRINTER_TYPE_PANEL
 567:.\PrinterBLL.c ****     PRINTER_INDENTLINE(_LEFT_MARGIN_, printerport);
 2259              		.loc 1 567 0
 2260 0670 FB78     		ldrb	r3, [r7, #3]	@ zero_extendqisi2
 2261 0672 7848     		ldr	r0, .L132+12
 2262 0674 0121     		movs	r1, #1
 2263 0676 1A46     		mov	r2, r3
ARM GAS  C:\Users\RECEPC~1\AppData\Local\Temp\cc0bMLA1.s 			page 51


 2264 0678 FFF7FEFF 		bl	WriteAuxPSoC
 568:.\PrinterBLL.c ****     #endif
 569:.\PrinterBLL.c ****     
 570:.\PrinterBLL.c ****     prefstr = GetPrinterTemplateLine(PRN_PRODUCT);
 2265              		.loc 1 570 0
 2266 067c 1520     		movs	r0, #21
 2267 067e FFF7FEFF 		bl	GetPrinterTemplateLine
 2268 0682 B861     		str	r0, [r7, #24]
 571:.\PrinterBLL.c ****     //output data left aligned
 572:.\PrinterBLL.c ****     WriteAuxPSoC((PNEAR_BYTE_PTR)prefstr, strlen(prefstr), printerport);
 2269              		.loc 1 572 0
 2270 0684 B869     		ldr	r0, [r7, #24]
 2271 0686 FFF7FEFF 		bl	strlen
 2272 068a 0346     		mov	r3, r0
 2273 068c 9AB2     		uxth	r2, r3
 2274 068e FB78     		ldrb	r3, [r7, #3]	@ zero_extendqisi2
 2275 0690 B869     		ldr	r0, [r7, #24]
 2276 0692 1146     		mov	r1, r2
 2277 0694 1A46     		mov	r2, r3
 2278 0696 FFF7FEFF 		bl	WriteAuxPSoC
 573:.\PrinterBLL.c ****     //PRODUCT NAME
 574:.\PrinterBLL.c ****     memset(_g_auxprinterbuffer, 0x00, _MAX_PRINTER_LINE_WIDTH_);
 2279              		.loc 1 574 0
 2280 069a 6B48     		ldr	r0, .L132
 2281 069c 0021     		movs	r1, #0
 2282 069e 1F22     		movs	r2, #31
 2283 06a0 FFF7FEFF 		bl	memset
 575:.\PrinterBLL.c ****     //HOSE ID COMES IN THE ARRAY INDEX #1
 576:.\PrinterBLL.c ****     GetProductNameFromPumpAndHose(pmsg->_buffer[0x00], pmsg->_buffer[0x01], _g_auxprinterbuffer);
 2284              		.loc 1 576 0
 2285 06a4 7B68     		ldr	r3, [r7, #4]
 2286 06a6 1A7B     		ldrb	r2, [r3, #12]	@ zero_extendqisi2
 2287 06a8 7B68     		ldr	r3, [r7, #4]
 2288 06aa 5B7B     		ldrb	r3, [r3, #13]	@ zero_extendqisi2
 2289 06ac 1046     		mov	r0, r2
 2290 06ae 1946     		mov	r1, r3
 2291 06b0 654A     		ldr	r2, .L132
 2292 06b2 FFF7FEFF 		bl	GetProductNameFromPumpAndHose
 577:.\PrinterBLL.c ****     //output data
 578:.\PrinterBLL.c ****     WriteAuxPSoC(_g_auxprinterbuffer, 0x0A, printerport);
 2293              		.loc 1 578 0
 2294 06b6 FB78     		ldrb	r3, [r7, #3]	@ zero_extendqisi2
 2295 06b8 6348     		ldr	r0, .L132
 2296 06ba 0A21     		movs	r1, #10
 2297 06bc 1A46     		mov	r2, r3
 2298 06be FFF7FEFF 		bl	WriteAuxPSoC
 579:.\PrinterBLL.c ****     //line feed 
 580:.\PrinterBLL.c ****     PRINTER_LINEFEED(printerport);
 2299              		.loc 1 580 0
 2300 06c2 FB78     		ldrb	r3, [r7, #3]	@ zero_extendqisi2
 2301 06c4 6148     		ldr	r0, .L132+4
 2302 06c6 0121     		movs	r1, #1
 2303 06c8 1A46     		mov	r2, r3
 2304 06ca FFF7FEFF 		bl	WriteAuxPSoC
 581:.\PrinterBLL.c ****     #ifdef PRINTER_TYPE_PANEL
 582:.\PrinterBLL.c ****     PRINTER_INDENTLINE(_LEFT_MARGIN_, printerport);
 2305              		.loc 1 582 0
ARM GAS  C:\Users\RECEPC~1\AppData\Local\Temp\cc0bMLA1.s 			page 52


 2306 06ce FB78     		ldrb	r3, [r7, #3]	@ zero_extendqisi2
 2307 06d0 6048     		ldr	r0, .L132+12
 2308 06d2 0121     		movs	r1, #1
 2309 06d4 1A46     		mov	r2, r3
 2310 06d6 FFF7FEFF 		bl	WriteAuxPSoC
 583:.\PrinterBLL.c ****     #endif
 584:.\PrinterBLL.c ****     
 585:.\PrinterBLL.c ****     prefstr = GetPrinterTemplateLine(PRN_PRODPRICE);
 2311              		.loc 1 585 0
 2312 06da 1620     		movs	r0, #22
 2313 06dc FFF7FEFF 		bl	GetPrinterTemplateLine
 2314 06e0 B861     		str	r0, [r7, #24]
 586:.\PrinterBLL.c ****     //output data left aligned
 587:.\PrinterBLL.c ****     WriteAuxPSoC((PNEAR_BYTE_PTR)prefstr, strlen(prefstr), printerport);
 2315              		.loc 1 587 0
 2316 06e2 B869     		ldr	r0, [r7, #24]
 2317 06e4 FFF7FEFF 		bl	strlen
 2318 06e8 0346     		mov	r3, r0
 2319 06ea 9AB2     		uxth	r2, r3
 2320 06ec FB78     		ldrb	r3, [r7, #3]	@ zero_extendqisi2
 2321 06ee B869     		ldr	r0, [r7, #24]
 2322 06f0 1146     		mov	r1, r2
 2323 06f2 1A46     		mov	r2, r3
 2324 06f4 FFF7FEFF 		bl	WriteAuxPSoC
 588:.\PrinterBLL.c ****     //PRODUCT PRICE (PPU)
 589:.\PrinterBLL.c ****     index = 2;
 2325              		.loc 1 589 0
 2326 06f8 0223     		movs	r3, #2
 2327 06fa FB77     		strb	r3, [r7, #31]
 590:.\PrinterBLL.c ****     memset(_g_auxprinterbuffer, 0x00, _MAX_PRINTER_LINE_WIDTH_);
 2328              		.loc 1 590 0
 2329 06fc 5248     		ldr	r0, .L132
 2330 06fe 0021     		movs	r1, #0
 2331 0700 1F22     		movs	r2, #31
 2332 0702 FFF7FEFF 		bl	memset
 591:.\PrinterBLL.c ****     //Byte #2 holds the length of the upcoming buffer that starts at position #3
 592:.\PrinterBLL.c ****     FormatNumberLSDFirst((PNEAR_BYTE_PTR)&pmsg->_buffer[index + 1], pmsg->_buffer[index], _g_auxpri
 2333              		.loc 1 592 0
 2334 0706 FB7F     		ldrb	r3, [r7, #31]	@ zero_extendqisi2
 2335 0708 0133     		adds	r3, r3, #1
 2336 070a 0833     		adds	r3, r3, #8
 2337 070c 7A68     		ldr	r2, [r7, #4]
 2338 070e 1344     		add	r3, r3, r2
 2339 0710 191D     		adds	r1, r3, #4
 2340 0712 FB7F     		ldrb	r3, [r7, #31]	@ zero_extendqisi2
 2341 0714 7A68     		ldr	r2, [r7, #4]
 2342 0716 1344     		add	r3, r3, r2
 2343 0718 1B7B     		ldrb	r3, [r3, #12]	@ zero_extendqisi2
 2344 071a 0846     		mov	r0, r1
 2345 071c 1946     		mov	r1, r3
 2346 071e 4A4A     		ldr	r2, .L132
 2347 0720 0023     		movs	r3, #0
 2348 0722 FFF7FEFF 		bl	FormatNumberLSDFirst
 593:.\PrinterBLL.c ****     //output data
 594:.\PrinterBLL.c ****     WriteAuxPSoC(&_g_auxprinterbuffer[0x00], (uint8)pmsg->_buffer[index], printerport);
 2349              		.loc 1 594 0
 2350 0726 FB7F     		ldrb	r3, [r7, #31]	@ zero_extendqisi2
ARM GAS  C:\Users\RECEPC~1\AppData\Local\Temp\cc0bMLA1.s 			page 53


 2351 0728 7A68     		ldr	r2, [r7, #4]
 2352 072a 1344     		add	r3, r3, r2
 2353 072c 1B7B     		ldrb	r3, [r3, #12]	@ zero_extendqisi2
 2354 072e 9AB2     		uxth	r2, r3
 2355 0730 FB78     		ldrb	r3, [r7, #3]	@ zero_extendqisi2
 2356 0732 4548     		ldr	r0, .L132
 2357 0734 1146     		mov	r1, r2
 2358 0736 1A46     		mov	r2, r3
 2359 0738 FFF7FEFF 		bl	WriteAuxPSoC
 595:.\PrinterBLL.c ****     
 596:.\PrinterBLL.c ****     prefstr = GetPrinterPriceTemplateTag(_g_dispenserlayoutinfo._volumeunit);
 2360              		.loc 1 596 0
 2361 073c 464B     		ldr	r3, .L132+16
 2362 073e 9B7A     		ldrb	r3, [r3, #10]	@ zero_extendqisi2
 2363 0740 1846     		mov	r0, r3
 2364 0742 FFF7FEFF 		bl	GetPrinterPriceTemplateTag
 2365 0746 B861     		str	r0, [r7, #24]
 597:.\PrinterBLL.c ****     //output data left aligned
 598:.\PrinterBLL.c ****     WriteAuxPSoC((PNEAR_BYTE_PTR)prefstr, strlen(prefstr), printerport);
 2366              		.loc 1 598 0
 2367 0748 B869     		ldr	r0, [r7, #24]
 2368 074a FFF7FEFF 		bl	strlen
 2369 074e 0346     		mov	r3, r0
 2370 0750 9AB2     		uxth	r2, r3
 2371 0752 FB78     		ldrb	r3, [r7, #3]	@ zero_extendqisi2
 2372 0754 B869     		ldr	r0, [r7, #24]
 2373 0756 1146     		mov	r1, r2
 2374 0758 1A46     		mov	r2, r3
 2375 075a FFF7FEFF 		bl	WriteAuxPSoC
 599:.\PrinterBLL.c ****     //line feed 
 600:.\PrinterBLL.c ****     PRINTER_LINEFEED(printerport);
 2376              		.loc 1 600 0
 2377 075e FB78     		ldrb	r3, [r7, #3]	@ zero_extendqisi2
 2378 0760 3A48     		ldr	r0, .L132+4
 2379 0762 0121     		movs	r1, #1
 2380 0764 1A46     		mov	r2, r3
 2381 0766 FFF7FEFF 		bl	WriteAuxPSoC
 601:.\PrinterBLL.c ****     #ifdef PRINTER_TYPE_PANEL
 602:.\PrinterBLL.c ****     PRINTER_INDENTLINE(_LEFT_MARGIN_, printerport);
 2382              		.loc 1 602 0
 2383 076a FB78     		ldrb	r3, [r7, #3]	@ zero_extendqisi2
 2384 076c 3948     		ldr	r0, .L132+12
 2385 076e 0121     		movs	r1, #1
 2386 0770 1A46     		mov	r2, r3
 2387 0772 FFF7FEFF 		bl	WriteAuxPSoC
 603:.\PrinterBLL.c ****     #endif
 604:.\PrinterBLL.c ****     
 605:.\PrinterBLL.c ****     prefstr = GetPrinterTemplateLine(PRN_VOLUME);
 2388              		.loc 1 605 0
 2389 0776 1720     		movs	r0, #23
 2390 0778 FFF7FEFF 		bl	GetPrinterTemplateLine
 2391 077c B861     		str	r0, [r7, #24]
 606:.\PrinterBLL.c ****     //output data left aligned
 607:.\PrinterBLL.c ****     WriteAuxPSoC((PNEAR_BYTE_PTR)prefstr, strlen(prefstr), printerport);
 2392              		.loc 1 607 0
 2393 077e B869     		ldr	r0, [r7, #24]
 2394 0780 FFF7FEFF 		bl	strlen
ARM GAS  C:\Users\RECEPC~1\AppData\Local\Temp\cc0bMLA1.s 			page 54


 2395 0784 0346     		mov	r3, r0
 2396 0786 9AB2     		uxth	r2, r3
 2397 0788 FB78     		ldrb	r3, [r7, #3]	@ zero_extendqisi2
 2398 078a B869     		ldr	r0, [r7, #24]
 2399 078c 1146     		mov	r1, r2
 2400 078e 1A46     		mov	r2, r3
 2401 0790 FFF7FEFF 		bl	WriteAuxPSoC
 608:.\PrinterBLL.c ****     //PRODUCT VOLUME
 609:.\PrinterBLL.c ****     index += (pmsg->_buffer[index] + 1);
 2402              		.loc 1 609 0
 2403 0794 FB7F     		ldrb	r3, [r7, #31]	@ zero_extendqisi2
 2404 0796 7A68     		ldr	r2, [r7, #4]
 2405 0798 1344     		add	r3, r3, r2
 2406 079a 1A7B     		ldrb	r2, [r3, #12]	@ zero_extendqisi2
 2407 079c FB7F     		ldrb	r3, [r7, #31]
 2408 079e 1344     		add	r3, r3, r2
 2409 07a0 DBB2     		uxtb	r3, r3
 2410 07a2 0133     		adds	r3, r3, #1
 2411 07a4 FB77     		strb	r3, [r7, #31]
 610:.\PrinterBLL.c ****     memset(_g_auxprinterbuffer, 0x00, _MAX_PRINTER_LINE_WIDTH_);
 2412              		.loc 1 610 0
 2413 07a6 2848     		ldr	r0, .L132
 2414 07a8 0021     		movs	r1, #0
 2415 07aa 1F22     		movs	r2, #31
 2416 07ac FFF7FEFF 		bl	memset
 611:.\PrinterBLL.c ****     FormatNumberLSDFirst((PNEAR_BYTE_PTR)&pmsg->_buffer[index + 1], pmsg->_buffer[index], _g_auxpri
 2417              		.loc 1 611 0
 2418 07b0 FB7F     		ldrb	r3, [r7, #31]	@ zero_extendqisi2
 2419 07b2 0133     		adds	r3, r3, #1
 2420 07b4 0833     		adds	r3, r3, #8
 2421 07b6 7A68     		ldr	r2, [r7, #4]
 2422 07b8 1344     		add	r3, r3, r2
 2423 07ba 191D     		adds	r1, r3, #4
 2424 07bc FB7F     		ldrb	r3, [r7, #31]	@ zero_extendqisi2
 2425 07be 7A68     		ldr	r2, [r7, #4]
 2426 07c0 1344     		add	r3, r3, r2
 2427 07c2 1A7B     		ldrb	r2, [r3, #12]	@ zero_extendqisi2
 2428 07c4 244B     		ldr	r3, .L132+16
 2429 07c6 5B7A     		ldrb	r3, [r3, #9]	@ zero_extendqisi2
 2430 07c8 0846     		mov	r0, r1
 2431 07ca 1146     		mov	r1, r2
 2432 07cc 1E4A     		ldr	r2, .L132
 2433 07ce FFF7FEFF 		bl	FormatNumberLSDFirst
 612:.\PrinterBLL.c ****     //output data
 613:.\PrinterBLL.c ****     WriteAuxPSoC(&_g_auxprinterbuffer[0x00], (uint8)pmsg->_buffer[index], printerport);
 2434              		.loc 1 613 0
 2435 07d2 FB7F     		ldrb	r3, [r7, #31]	@ zero_extendqisi2
 2436 07d4 7A68     		ldr	r2, [r7, #4]
 2437 07d6 1344     		add	r3, r3, r2
 2438 07d8 1B7B     		ldrb	r3, [r3, #12]	@ zero_extendqisi2
 2439 07da 9AB2     		uxth	r2, r3
 2440 07dc FB78     		ldrb	r3, [r7, #3]	@ zero_extendqisi2
 2441 07de 1A48     		ldr	r0, .L132
 2442 07e0 1146     		mov	r1, r2
 2443 07e2 1A46     		mov	r2, r3
 2444 07e4 FFF7FEFF 		bl	WriteAuxPSoC
 614:.\PrinterBLL.c ****     
ARM GAS  C:\Users\RECEPC~1\AppData\Local\Temp\cc0bMLA1.s 			page 55


 615:.\PrinterBLL.c ****     prefstr = GetPrinterVolumeTemplateTag(_g_dispenserlayoutinfo._volumeunit);
 2445              		.loc 1 615 0
 2446 07e8 1B4B     		ldr	r3, .L132+16
 2447 07ea 9B7A     		ldrb	r3, [r3, #10]	@ zero_extendqisi2
 2448 07ec 1846     		mov	r0, r3
 2449 07ee FFF7FEFF 		bl	GetPrinterVolumeTemplateTag
 2450 07f2 B861     		str	r0, [r7, #24]
 616:.\PrinterBLL.c ****     //output data left aligned
 617:.\PrinterBLL.c ****     WriteAuxPSoC((PNEAR_BYTE_PTR)prefstr, strlen(prefstr), printerport);
 2451              		.loc 1 617 0
 2452 07f4 B869     		ldr	r0, [r7, #24]
 2453 07f6 FFF7FEFF 		bl	strlen
 2454 07fa 0346     		mov	r3, r0
 2455 07fc 9AB2     		uxth	r2, r3
 2456 07fe FB78     		ldrb	r3, [r7, #3]	@ zero_extendqisi2
 2457 0800 B869     		ldr	r0, [r7, #24]
 2458 0802 1146     		mov	r1, r2
 2459 0804 1A46     		mov	r2, r3
 2460 0806 FFF7FEFF 		bl	WriteAuxPSoC
 618:.\PrinterBLL.c ****     //line feed 
 619:.\PrinterBLL.c ****     PRINTER_LINEFEED(printerport);
 2461              		.loc 1 619 0
 2462 080a FB78     		ldrb	r3, [r7, #3]	@ zero_extendqisi2
 2463 080c 0F48     		ldr	r0, .L132+4
 2464 080e 0121     		movs	r1, #1
 2465 0810 1A46     		mov	r2, r3
 2466 0812 FFF7FEFF 		bl	WriteAuxPSoC
 620:.\PrinterBLL.c ****     #ifdef PRINTER_TYPE_PANEL
 621:.\PrinterBLL.c ****     PRINTER_INDENTLINE(_LEFT_MARGIN_, printerport);
 2467              		.loc 1 621 0
 2468 0816 FB78     		ldrb	r3, [r7, #3]	@ zero_extendqisi2
 2469 0818 0E48     		ldr	r0, .L132+12
 2470 081a 0121     		movs	r1, #1
 2471 081c 1A46     		mov	r2, r3
 2472 081e FFF7FEFF 		bl	WriteAuxPSoC
 622:.\PrinterBLL.c ****     #endif
 623:.\PrinterBLL.c ****     
 624:.\PrinterBLL.c ****     prefstr = GetPrinterTemplateLine(PRN_MONEY);
 2473              		.loc 1 624 0
 2474 0822 1820     		movs	r0, #24
 2475 0824 FFF7FEFF 		bl	GetPrinterTemplateLine
 2476 0828 B861     		str	r0, [r7, #24]
 625:.\PrinterBLL.c ****     //output data left aligned
 626:.\PrinterBLL.c ****     WriteAuxPSoC((PNEAR_BYTE_PTR)prefstr, strlen(prefstr), printerport);
 2477              		.loc 1 626 0
 2478 082a B869     		ldr	r0, [r7, #24]
 2479 082c FFF7FEFF 		bl	strlen
 2480 0830 0346     		mov	r3, r0
 2481 0832 9AB2     		uxth	r2, r3
 2482 0834 FB78     		ldrb	r3, [r7, #3]	@ zero_extendqisi2
 2483 0836 B869     		ldr	r0, [r7, #24]
 2484 0838 1146     		mov	r1, r2
 2485 083a 1A46     		mov	r2, r3
 2486 083c FFF7FEFF 		bl	WriteAuxPSoC
 627:.\PrinterBLL.c ****     //PRODUCT TOTAL MONEY
 628:.\PrinterBLL.c ****     index += (pmsg->_buffer[index] + 1);
 2487              		.loc 1 628 0
ARM GAS  C:\Users\RECEPC~1\AppData\Local\Temp\cc0bMLA1.s 			page 56


 2488 0840 FB7F     		ldrb	r3, [r7, #31]	@ zero_extendqisi2
 2489 0842 7A68     		ldr	r2, [r7, #4]
 2490 0844 1344     		add	r3, r3, r2
 2491 0846 09E0     		b	.L133
 2492              	.L134:
 2493              		.align	2
 2494              	.L132:
 2495 0848 00000000 		.word	_g_auxprinterbuffer
 2496 084c 00000000 		.word	_g_linefeed
 2497 0850 00000000 		.word	_g_separator
 2498 0854 00000000 		.word	_g_padcharacters
 2499 0858 00000000 		.word	_g_dispenserlayoutinfo
 2500              	.L133:
 2501 085c 1A7B     		ldrb	r2, [r3, #12]	@ zero_extendqisi2
 2502 085e FB7F     		ldrb	r3, [r7, #31]
 2503 0860 1344     		add	r3, r3, r2
 2504 0862 DBB2     		uxtb	r3, r3
 2505 0864 0133     		adds	r3, r3, #1
 2506 0866 FB77     		strb	r3, [r7, #31]
 629:.\PrinterBLL.c ****     memset(_g_auxprinterbuffer, 0x00, _MAX_PRINTER_LINE_WIDTH_);
 2507              		.loc 1 629 0
 2508 0868 8D48     		ldr	r0, .L135
 2509 086a 0021     		movs	r1, #0
 2510 086c 1F22     		movs	r2, #31
 2511 086e FFF7FEFF 		bl	memset
 630:.\PrinterBLL.c ****     FormatNumberLSDFirst((PNEAR_BYTE_PTR)&pmsg->_buffer[index + 1], pmsg->_buffer[index], _g_auxpri
 2512              		.loc 1 630 0
 2513 0872 FB7F     		ldrb	r3, [r7, #31]	@ zero_extendqisi2
 2514 0874 0133     		adds	r3, r3, #1
 2515 0876 0833     		adds	r3, r3, #8
 2516 0878 7A68     		ldr	r2, [r7, #4]
 2517 087a 1344     		add	r3, r3, r2
 2518 087c 191D     		adds	r1, r3, #4
 2519 087e FB7F     		ldrb	r3, [r7, #31]	@ zero_extendqisi2
 2520 0880 7A68     		ldr	r2, [r7, #4]
 2521 0882 1344     		add	r3, r3, r2
 2522 0884 1B7B     		ldrb	r3, [r3, #12]	@ zero_extendqisi2
 2523 0886 0846     		mov	r0, r1
 2524 0888 1946     		mov	r1, r3
 2525 088a 854A     		ldr	r2, .L135
 2526 088c 0023     		movs	r3, #0
 2527 088e FFF7FEFF 		bl	FormatNumberLSDFirst
 631:.\PrinterBLL.c ****     //output data
 632:.\PrinterBLL.c ****     WriteAuxPSoC(&_g_auxprinterbuffer[0x00], (uint8)pmsg->_buffer[index], printerport);
 2528              		.loc 1 632 0
 2529 0892 FB7F     		ldrb	r3, [r7, #31]	@ zero_extendqisi2
 2530 0894 7A68     		ldr	r2, [r7, #4]
 2531 0896 1344     		add	r3, r3, r2
 2532 0898 1B7B     		ldrb	r3, [r3, #12]	@ zero_extendqisi2
 2533 089a 9AB2     		uxth	r2, r3
 2534 089c FB78     		ldrb	r3, [r7, #3]	@ zero_extendqisi2
 2535 089e 8048     		ldr	r0, .L135
 2536 08a0 1146     		mov	r1, r2
 2537 08a2 1A46     		mov	r2, r3
 2538 08a4 FFF7FEFF 		bl	WriteAuxPSoC
 633:.\PrinterBLL.c ****     //line feed 
 634:.\PrinterBLL.c ****     PRINTER_LINEFEED(printerport);
ARM GAS  C:\Users\RECEPC~1\AppData\Local\Temp\cc0bMLA1.s 			page 57


 2539              		.loc 1 634 0
 2540 08a8 FB78     		ldrb	r3, [r7, #3]	@ zero_extendqisi2
 2541 08aa 7E48     		ldr	r0, .L135+4
 2542 08ac 0121     		movs	r1, #1
 2543 08ae 1A46     		mov	r2, r3
 2544 08b0 FFF7FEFF 		bl	WriteAuxPSoC
 635:.\PrinterBLL.c ****     #ifdef PRINTER_TYPE_PANEL
 636:.\PrinterBLL.c ****     PRINTER_INDENTLINE(_LEFT_MARGIN_, printerport);
 2545              		.loc 1 636 0
 2546 08b4 FB78     		ldrb	r3, [r7, #3]	@ zero_extendqisi2
 2547 08b6 7C48     		ldr	r0, .L135+8
 2548 08b8 0121     		movs	r1, #1
 2549 08ba 1A46     		mov	r2, r3
 2550 08bc FFF7FEFF 		bl	WriteAuxPSoC
 637:.\PrinterBLL.c ****     #endif
 638:.\PrinterBLL.c ****     
 639:.\PrinterBLL.c ****     ClearEepromBuffer();
 2551              		.loc 1 639 0
 2552 08c0 FFF7FEFF 		bl	ClearEepromBuffer
 640:.\PrinterBLL.c ****     LoadEepromPage(EEPROM_DISPENSER_PUMP1_LAYOUT_PAGE);
 2553              		.loc 1 640 0
 2554 08c4 4FF40070 		mov	r0, #512
 2555 08c8 FFF7FEFF 		bl	LoadEepromPage
 641:.\PrinterBLL.c ****     if(GetEepromBuffer()[0x00] == pmsg->_buffer[0x00])
 2556              		.loc 1 641 0
 2557 08cc FFF7FEFF 		bl	GetEepromBuffer
 2558 08d0 0346     		mov	r3, r0
 2559 08d2 1A78     		ldrb	r2, [r3]	@ zero_extendqisi2
 2560 08d4 7B68     		ldr	r3, [r7, #4]
 2561 08d6 1B7B     		ldrb	r3, [r3, #12]	@ zero_extendqisi2
 2562 08d8 9A42     		cmp	r2, r3
 2563 08da 10D1     		bne	.L108
 642:.\PrinterBLL.c ****     {
 643:.\PrinterBLL.c ****         ClearEepromBuffer();
 2564              		.loc 1 643 0
 2565 08dc FFF7FEFF 		bl	ClearEepromBuffer
 644:.\PrinterBLL.c ****         if(pmsg->_buffer[0x1B] == 0x0D)
 2566              		.loc 1 644 0
 2567 08e0 7B68     		ldr	r3, [r7, #4]
 2568 08e2 93F82730 		ldrb	r3, [r3, #39]	@ zero_extendqisi2
 2569 08e6 0D2B     		cmp	r3, #13
 2570 08e8 04D1     		bne	.L109
 645:.\PrinterBLL.c ****             LoadEepromPage(EEPROM_DISPENSER_PUMP11_TRANSACTION_PAGE);
 2571              		.loc 1 645 0
 2572 08ea 4FF4C060 		mov	r0, #1536
 2573 08ee FFF7FEFF 		bl	LoadEepromPage
 2574 08f2 60E0     		b	.L111
 2575              	.L109:
 646:.\PrinterBLL.c ****         else
 647:.\PrinterBLL.c ****             LoadEepromPage(EEPROM_DISPENSER_PUMP13_TRANSACTION_PAGE);
 2576              		.loc 1 647 0
 2577 08f4 4FF4D060 		mov	r0, #1664
 2578 08f8 FFF7FEFF 		bl	LoadEepromPage
 2579 08fc 5BE0     		b	.L111
 2580              	.L108:
 648:.\PrinterBLL.c ****     }
 649:.\PrinterBLL.c ****     else
ARM GAS  C:\Users\RECEPC~1\AppData\Local\Temp\cc0bMLA1.s 			page 58


 650:.\PrinterBLL.c ****     {
 651:.\PrinterBLL.c ****         ClearEepromBuffer();
 2581              		.loc 1 651 0
 2582 08fe FFF7FEFF 		bl	ClearEepromBuffer
 652:.\PrinterBLL.c ****         LoadEepromPage(EEPROM_DISPENSER_PUMP2_LAYOUT_PAGE);
 2583              		.loc 1 652 0
 2584 0902 4FF41070 		mov	r0, #576
 2585 0906 FFF7FEFF 		bl	LoadEepromPage
 653:.\PrinterBLL.c ****         if(GetEepromBuffer()[0x00] == pmsg->_buffer[0x00])
 2586              		.loc 1 653 0
 2587 090a FFF7FEFF 		bl	GetEepromBuffer
 2588 090e 0346     		mov	r3, r0
 2589 0910 1A78     		ldrb	r2, [r3]	@ zero_extendqisi2
 2590 0912 7B68     		ldr	r3, [r7, #4]
 2591 0914 1B7B     		ldrb	r3, [r3, #12]	@ zero_extendqisi2
 2592 0916 9A42     		cmp	r2, r3
 2593 0918 10D1     		bne	.L112
 654:.\PrinterBLL.c ****         {
 655:.\PrinterBLL.c ****             ClearEepromBuffer();
 2594              		.loc 1 655 0
 2595 091a FFF7FEFF 		bl	ClearEepromBuffer
 656:.\PrinterBLL.c ****             if(pmsg->_buffer[0x1B] == 0x0D)
 2596              		.loc 1 656 0
 2597 091e 7B68     		ldr	r3, [r7, #4]
 2598 0920 93F82730 		ldrb	r3, [r3, #39]	@ zero_extendqisi2
 2599 0924 0D2B     		cmp	r3, #13
 2600 0926 04D1     		bne	.L113
 657:.\PrinterBLL.c ****                 LoadEepromPage(EEPROM_DISPENSER_PUMP21_TRANSACTION_PAGE);
 2601              		.loc 1 657 0
 2602 0928 4FF4E060 		mov	r0, #1792
 2603 092c FFF7FEFF 		bl	LoadEepromPage
 2604 0930 41E0     		b	.L111
 2605              	.L113:
 658:.\PrinterBLL.c ****             else
 659:.\PrinterBLL.c ****                 LoadEepromPage(EEPROM_DISPENSER_PUMP23_TRANSACTION_PAGE);
 2606              		.loc 1 659 0
 2607 0932 4FF4F060 		mov	r0, #1920
 2608 0936 FFF7FEFF 		bl	LoadEepromPage
 2609 093a 3CE0     		b	.L111
 2610              	.L112:
 660:.\PrinterBLL.c ****         }
 661:.\PrinterBLL.c ****         else
 662:.\PrinterBLL.c ****         {
 663:.\PrinterBLL.c ****             ClearEepromBuffer();
 2611              		.loc 1 663 0
 2612 093c FFF7FEFF 		bl	ClearEepromBuffer
 664:.\PrinterBLL.c ****             LoadEepromPage(EEPROM_DISPENSER_PUMP3_LAYOUT_PAGE);
 2613              		.loc 1 664 0
 2614 0940 4FF42070 		mov	r0, #640
 2615 0944 FFF7FEFF 		bl	LoadEepromPage
 665:.\PrinterBLL.c ****             if(GetEepromBuffer()[0x00] == pmsg->_buffer[0x00])
 2616              		.loc 1 665 0
 2617 0948 FFF7FEFF 		bl	GetEepromBuffer
 2618 094c 0346     		mov	r3, r0
 2619 094e 1A78     		ldrb	r2, [r3]	@ zero_extendqisi2
 2620 0950 7B68     		ldr	r3, [r7, #4]
 2621 0952 1B7B     		ldrb	r3, [r3, #12]	@ zero_extendqisi2
ARM GAS  C:\Users\RECEPC~1\AppData\Local\Temp\cc0bMLA1.s 			page 59


 2622 0954 9A42     		cmp	r2, r3
 2623 0956 10D1     		bne	.L115
 666:.\PrinterBLL.c ****             {
 667:.\PrinterBLL.c ****                 ClearEepromBuffer();
 2624              		.loc 1 667 0
 2625 0958 FFF7FEFF 		bl	ClearEepromBuffer
 668:.\PrinterBLL.c ****                 if(pmsg->_buffer[0x1B] == 0x0D)
 2626              		.loc 1 668 0
 2627 095c 7B68     		ldr	r3, [r7, #4]
 2628 095e 93F82730 		ldrb	r3, [r3, #39]	@ zero_extendqisi2
 2629 0962 0D2B     		cmp	r3, #13
 2630 0964 04D1     		bne	.L116
 669:.\PrinterBLL.c ****                     LoadEepromPage(EEPROM_DISPENSER_PUMP31_TRANSACTION_PAGE);
 2631              		.loc 1 669 0
 2632 0966 4FF40060 		mov	r0, #2048
 2633 096a FFF7FEFF 		bl	LoadEepromPage
 2634 096e 22E0     		b	.L111
 2635              	.L116:
 670:.\PrinterBLL.c ****                 else
 671:.\PrinterBLL.c ****                     LoadEepromPage(EEPROM_DISPENSER_PUMP33_TRANSACTION_PAGE);
 2636              		.loc 1 671 0
 2637 0970 4FF40860 		mov	r0, #2176
 2638 0974 FFF7FEFF 		bl	LoadEepromPage
 2639 0978 1DE0     		b	.L111
 2640              	.L115:
 672:.\PrinterBLL.c ****                     
 673:.\PrinterBLL.c ****             }
 674:.\PrinterBLL.c ****             else
 675:.\PrinterBLL.c ****             {
 676:.\PrinterBLL.c ****                 ClearEepromBuffer();
 2641              		.loc 1 676 0
 2642 097a FFF7FEFF 		bl	ClearEepromBuffer
 677:.\PrinterBLL.c ****                 LoadEepromPage(EEPROM_DISPENSER_PUMP4_LAYOUT_PAGE);
 2643              		.loc 1 677 0
 2644 097e 4FF43070 		mov	r0, #704
 2645 0982 FFF7FEFF 		bl	LoadEepromPage
 678:.\PrinterBLL.c ****                 if(GetEepromBuffer()[0x00] == pmsg->_buffer[0x00])
 2646              		.loc 1 678 0
 2647 0986 FFF7FEFF 		bl	GetEepromBuffer
 2648 098a 0346     		mov	r3, r0
 2649 098c 1A78     		ldrb	r2, [r3]	@ zero_extendqisi2
 2650 098e 7B68     		ldr	r3, [r7, #4]
 2651 0990 1B7B     		ldrb	r3, [r3, #12]	@ zero_extendqisi2
 2652 0992 9A42     		cmp	r2, r3
 2653 0994 0FD1     		bne	.L111
 679:.\PrinterBLL.c ****                 {
 680:.\PrinterBLL.c ****                     ClearEepromBuffer();
 2654              		.loc 1 680 0
 2655 0996 FFF7FEFF 		bl	ClearEepromBuffer
 681:.\PrinterBLL.c ****                     if(pmsg->_buffer[0x1B] == 0x0D)
 2656              		.loc 1 681 0
 2657 099a 7B68     		ldr	r3, [r7, #4]
 2658 099c 93F82730 		ldrb	r3, [r3, #39]	@ zero_extendqisi2
 2659 09a0 0D2B     		cmp	r3, #13
 2660 09a2 04D1     		bne	.L118
 682:.\PrinterBLL.c ****                         LoadEepromPage(EEPROM_DISPENSER_PUMP41_TRANSACTION_PAGE);
 2661              		.loc 1 682 0
ARM GAS  C:\Users\RECEPC~1\AppData\Local\Temp\cc0bMLA1.s 			page 60


 2662 09a4 4FF41060 		mov	r0, #2304
 2663 09a8 FFF7FEFF 		bl	LoadEepromPage
 2664 09ac 03E0     		b	.L111
 2665              	.L118:
 683:.\PrinterBLL.c ****                     else
 684:.\PrinterBLL.c ****                         LoadEepromPage(EEPROM_DISPENSER_PUMP43_TRANSACTION_PAGE);
 2666              		.loc 1 684 0
 2667 09ae 4FF41860 		mov	r0, #2432
 2668 09b2 FFF7FEFF 		bl	LoadEepromPage
 2669              	.L111:
 685:.\PrinterBLL.c ****                 }
 686:.\PrinterBLL.c ****             }
 687:.\PrinterBLL.c ****         }
 688:.\PrinterBLL.c ****     }
 689:.\PrinterBLL.c ****     ///////////////////////////////////////////////////////////////////////////////////////////////
 690:.\PrinterBLL.c ****     //This only for cash transactions since for credit transactions this information will be posted
 691:.\PrinterBLL.c ****     if(pmsg->_buffer[0x1B] == 0x0D)
 2670              		.loc 1 691 0
 2671 09b6 7B68     		ldr	r3, [r7, #4]
 2672 09b8 93F82730 		ldrb	r3, [r3, #39]	@ zero_extendqisi2
 2673 09bc 0D2B     		cmp	r3, #13
 2674 09be 75D1     		bne	.L119
 2675              	.LBB12:
 692:.\PrinterBLL.c ****     {
 693:.\PrinterBLL.c ****         //CAR'S PLATE
 694:.\PrinterBLL.c ****         uint8 bufflen = GetBufferLengthFromDisplayID(DISPLAY_DIGITE_PLACA);
 2676              		.loc 1 694 0
 2677 09c0 0A20     		movs	r0, #10
 2678 09c2 FFF7FEFF 		bl	GetBufferLengthFromDisplayID
 2679 09c6 0346     		mov	r3, r0
 2680 09c8 FB74     		strb	r3, [r7, #19]
 695:.\PrinterBLL.c ****         uint8 buffpos = GetBufferIndexFromDisplayID(DISPLAY_DIGITE_PLACA);
 2681              		.loc 1 695 0
 2682 09ca 0A20     		movs	r0, #10
 2683 09cc FFF7FEFF 		bl	GetBufferIndexFromDisplayID
 2684 09d0 0346     		mov	r3, r0
 2685 09d2 BB74     		strb	r3, [r7, #18]
 696:.\PrinterBLL.c ****         
 697:.\PrinterBLL.c ****         memset(_g_auxprinterbuffer, 0x00, _MAX_PRINTER_LINE_WIDTH_);
 2686              		.loc 1 697 0
 2687 09d4 3248     		ldr	r0, .L135
 2688 09d6 0021     		movs	r1, #0
 2689 09d8 1F22     		movs	r2, #31
 2690 09da FFF7FEFF 		bl	memset
 698:.\PrinterBLL.c ****         memcpy(_g_auxprinterbuffer, &GetEepromBuffer()[buffpos], bufflen);
 2691              		.loc 1 698 0
 2692 09de FFF7FEFF 		bl	GetEepromBuffer
 2693 09e2 0246     		mov	r2, r0
 2694 09e4 BB7C     		ldrb	r3, [r7, #18]	@ zero_extendqisi2
 2695 09e6 1A44     		add	r2, r2, r3
 2696 09e8 FB7C     		ldrb	r3, [r7, #19]	@ zero_extendqisi2
 2697 09ea 2D48     		ldr	r0, .L135
 2698 09ec 1146     		mov	r1, r2
 2699 09ee 1A46     		mov	r2, r3
 2700 09f0 FFF7FEFF 		bl	memcpy
 699:.\PrinterBLL.c ****         prefstr = GetPrinterTemplateLine(PRN_PLATE);
 2701              		.loc 1 699 0
ARM GAS  C:\Users\RECEPC~1\AppData\Local\Temp\cc0bMLA1.s 			page 61


 2702 09f4 0320     		movs	r0, #3
 2703 09f6 FFF7FEFF 		bl	GetPrinterTemplateLine
 2704 09fa B861     		str	r0, [r7, #24]
 700:.\PrinterBLL.c ****         //output data left aligned
 701:.\PrinterBLL.c ****         WriteAuxPSoC((PNEAR_BYTE_PTR)prefstr, strlen(prefstr), printerport);
 2705              		.loc 1 701 0
 2706 09fc B869     		ldr	r0, [r7, #24]
 2707 09fe FFF7FEFF 		bl	strlen
 2708 0a02 0346     		mov	r3, r0
 2709 0a04 9AB2     		uxth	r2, r3
 2710 0a06 FB78     		ldrb	r3, [r7, #3]	@ zero_extendqisi2
 2711 0a08 B869     		ldr	r0, [r7, #24]
 2712 0a0a 1146     		mov	r1, r2
 2713 0a0c 1A46     		mov	r2, r3
 2714 0a0e FFF7FEFF 		bl	WriteAuxPSoC
 702:.\PrinterBLL.c ****         //output data
 703:.\PrinterBLL.c ****         WriteAuxPSoC(_g_auxprinterbuffer, index, printerport);
 2715              		.loc 1 703 0
 2716 0a12 FB7F     		ldrb	r3, [r7, #31]	@ zero_extendqisi2
 2717 0a14 9AB2     		uxth	r2, r3
 2718 0a16 FB78     		ldrb	r3, [r7, #3]	@ zero_extendqisi2
 2719 0a18 2148     		ldr	r0, .L135
 2720 0a1a 1146     		mov	r1, r2
 2721 0a1c 1A46     		mov	r2, r3
 2722 0a1e FFF7FEFF 		bl	WriteAuxPSoC
 704:.\PrinterBLL.c ****         //line feed 
 705:.\PrinterBLL.c ****         PRINTER_LINEFEED(printerport);
 2723              		.loc 1 705 0
 2724 0a22 FB78     		ldrb	r3, [r7, #3]	@ zero_extendqisi2
 2725 0a24 1F48     		ldr	r0, .L135+4
 2726 0a26 0121     		movs	r1, #1
 2727 0a28 1A46     		mov	r2, r3
 2728 0a2a FFF7FEFF 		bl	WriteAuxPSoC
 706:.\PrinterBLL.c ****         #ifdef PRINTER_TYPE_PANEL
 707:.\PrinterBLL.c ****         PRINTER_INDENTLINE(_LEFT_MARGIN_, printerport);
 2729              		.loc 1 707 0
 2730 0a2e FB78     		ldrb	r3, [r7, #3]	@ zero_extendqisi2
 2731 0a30 1D48     		ldr	r0, .L135+8
 2732 0a32 0121     		movs	r1, #1
 2733 0a34 1A46     		mov	r2, r3
 2734 0a36 FFF7FEFF 		bl	WriteAuxPSoC
 708:.\PrinterBLL.c ****         #endif
 709:.\PrinterBLL.c **** 
 710:.\PrinterBLL.c ****         //CAR'S MILEAGE
 711:.\PrinterBLL.c ****         bufflen = GetBufferLengthFromDisplayID(DISPLAY_INTRODUZCA_KILOMETRAJE);
 2735              		.loc 1 711 0
 2736 0a3a 0E20     		movs	r0, #14
 2737 0a3c FFF7FEFF 		bl	GetBufferLengthFromDisplayID
 2738 0a40 0346     		mov	r3, r0
 2739 0a42 FB74     		strb	r3, [r7, #19]
 712:.\PrinterBLL.c ****         buffpos = GetBufferIndexFromDisplayID(DISPLAY_INTRODUZCA_KILOMETRAJE);
 2740              		.loc 1 712 0
 2741 0a44 0E20     		movs	r0, #14
 2742 0a46 FFF7FEFF 		bl	GetBufferIndexFromDisplayID
 2743 0a4a 0346     		mov	r3, r0
 2744 0a4c BB74     		strb	r3, [r7, #18]
 713:.\PrinterBLL.c **** 
ARM GAS  C:\Users\RECEPC~1\AppData\Local\Temp\cc0bMLA1.s 			page 62


 714:.\PrinterBLL.c ****         memset(_g_auxprinterbuffer, 0x00, _MAX_PRINTER_LINE_WIDTH_);
 2745              		.loc 1 714 0
 2746 0a4e 1448     		ldr	r0, .L135
 2747 0a50 0021     		movs	r1, #0
 2748 0a52 1F22     		movs	r2, #31
 2749 0a54 FFF7FEFF 		bl	memset
 715:.\PrinterBLL.c ****         memcpy(_g_auxprinterbuffer, &GetEepromBuffer()[buffpos], bufflen);
 2750              		.loc 1 715 0
 2751 0a58 FFF7FEFF 		bl	GetEepromBuffer
 2752 0a5c 0246     		mov	r2, r0
 2753 0a5e BB7C     		ldrb	r3, [r7, #18]	@ zero_extendqisi2
 2754 0a60 1A44     		add	r2, r2, r3
 2755 0a62 FB7C     		ldrb	r3, [r7, #19]	@ zero_extendqisi2
 2756 0a64 0E48     		ldr	r0, .L135
 2757 0a66 1146     		mov	r1, r2
 2758 0a68 1A46     		mov	r2, r3
 2759 0a6a FFF7FEFF 		bl	memcpy
 716:.\PrinterBLL.c ****         prefstr = GetPrinterTemplateLine(PRN_MILLEAGE);
 2760              		.loc 1 716 0
 2761 0a6e 0420     		movs	r0, #4
 2762 0a70 FFF7FEFF 		bl	GetPrinterTemplateLine
 2763 0a74 B861     		str	r0, [r7, #24]
 717:.\PrinterBLL.c ****         //output data left aligned
 718:.\PrinterBLL.c ****         WriteAuxPSoC((PNEAR_BYTE_PTR)prefstr, strlen(prefstr), printerport);
 2764              		.loc 1 718 0
 2765 0a76 B869     		ldr	r0, [r7, #24]
 2766 0a78 FFF7FEFF 		bl	strlen
 2767 0a7c 0346     		mov	r3, r0
 2768 0a7e 9AB2     		uxth	r2, r3
 2769 0a80 FB78     		ldrb	r3, [r7, #3]	@ zero_extendqisi2
 2770 0a82 B869     		ldr	r0, [r7, #24]
 2771 0a84 1146     		mov	r1, r2
 2772 0a86 1A46     		mov	r2, r3
 2773 0a88 FFF7FEFF 		bl	WriteAuxPSoC
 719:.\PrinterBLL.c ****         //output data
 720:.\PrinterBLL.c ****         WriteAuxPSoC(_g_auxprinterbuffer, index, printerport);
 2774              		.loc 1 720 0
 2775 0a8c FB7F     		ldrb	r3, [r7, #31]	@ zero_extendqisi2
 2776 0a8e 9AB2     		uxth	r2, r3
 2777 0a90 FB78     		ldrb	r3, [r7, #3]	@ zero_extendqisi2
 2778 0a92 0348     		ldr	r0, .L135
 2779 0a94 1146     		mov	r1, r2
 2780 0a96 1A46     		mov	r2, r3
 2781 0a98 FFF7FEFF 		bl	WriteAuxPSoC
 2782              	.LBE12:
 2783 0a9c CCE2     		b	.L120
 2784              	.L136:
 2785 0a9e 00BF     		.align	2
 2786              	.L135:
 2787 0aa0 00000000 		.word	_g_auxprinterbuffer
 2788 0aa4 00000000 		.word	_g_linefeed
 2789 0aa8 00000000 		.word	_g_padcharacters
 2790              	.L119:
 721:.\PrinterBLL.c ****     }
 722:.\PrinterBLL.c ****     //In case of no printer output check the assigned value for the operation (Cash:0x0D / Credit:0
 723:.\PrinterBLL.c ****     else if(pmsg->_buffer[0x1B] == 0x0E)
 2791              		.loc 1 723 0
ARM GAS  C:\Users\RECEPC~1\AppData\Local\Temp\cc0bMLA1.s 			page 63


 2792 0aac 7B68     		ldr	r3, [r7, #4]
 2793 0aae 93F82730 		ldrb	r3, [r3, #39]	@ zero_extendqisi2
 2794 0ab2 0E2B     		cmp	r3, #14
 2795 0ab4 40F0C082 		bne	.L120
 2796              	.LBB13:
 724:.\PrinterBLL.c ****     {
 725:.\PrinterBLL.c ****         //CAR'S MILEAGE
 726:.\PrinterBLL.c ****         uint8 bufflen = GetBufferLengthFromDisplayID(DISPLAY_INTRODUZCA_KILOMETRAJE);
 2797              		.loc 1 726 0
 2798 0ab8 0E20     		movs	r0, #14
 2799 0aba FFF7FEFF 		bl	GetBufferLengthFromDisplayID
 2800 0abe 0346     		mov	r3, r0
 2801 0ac0 7B74     		strb	r3, [r7, #17]
 727:.\PrinterBLL.c ****         uint8 buffpos = GetBufferIndexFromDisplayID(DISPLAY_INTRODUZCA_KILOMETRAJE);
 2802              		.loc 1 727 0
 2803 0ac2 0E20     		movs	r0, #14
 2804 0ac4 FFF7FEFF 		bl	GetBufferIndexFromDisplayID
 2805 0ac8 0346     		mov	r3, r0
 2806 0aca 3B74     		strb	r3, [r7, #16]
 728:.\PrinterBLL.c **** 
 729:.\PrinterBLL.c ****         memset(_g_auxprinterbuffer, 0x00, _MAX_PRINTER_LINE_WIDTH_);
 2807              		.loc 1 729 0
 2808 0acc C048     		ldr	r0, .L137
 2809 0ace 0021     		movs	r1, #0
 2810 0ad0 1F22     		movs	r2, #31
 2811 0ad2 FFF7FEFF 		bl	memset
 730:.\PrinterBLL.c ****         memcpy(_g_auxprinterbuffer, &GetEepromBuffer()[buffpos], bufflen);
 2812              		.loc 1 730 0
 2813 0ad6 FFF7FEFF 		bl	GetEepromBuffer
 2814 0ada 0246     		mov	r2, r0
 2815 0adc 3B7C     		ldrb	r3, [r7, #16]	@ zero_extendqisi2
 2816 0ade 1A44     		add	r2, r2, r3
 2817 0ae0 7B7C     		ldrb	r3, [r7, #17]	@ zero_extendqisi2
 2818 0ae2 BB48     		ldr	r0, .L137
 2819 0ae4 1146     		mov	r1, r2
 2820 0ae6 1A46     		mov	r2, r3
 2821 0ae8 FFF7FEFF 		bl	memcpy
 731:.\PrinterBLL.c ****         prefstr = GetPrinterTemplateLine(PRN_MILLEAGE);
 2822              		.loc 1 731 0
 2823 0aec 0420     		movs	r0, #4
 2824 0aee FFF7FEFF 		bl	GetPrinterTemplateLine
 2825 0af2 B861     		str	r0, [r7, #24]
 732:.\PrinterBLL.c ****         //output data left aligned
 733:.\PrinterBLL.c ****         WriteAuxPSoC((PNEAR_BYTE_PTR)prefstr, strlen(prefstr), printerport);
 2826              		.loc 1 733 0
 2827 0af4 B869     		ldr	r0, [r7, #24]
 2828 0af6 FFF7FEFF 		bl	strlen
 2829 0afa 0346     		mov	r3, r0
 2830 0afc 9AB2     		uxth	r2, r3
 2831 0afe FB78     		ldrb	r3, [r7, #3]	@ zero_extendqisi2
 2832 0b00 B869     		ldr	r0, [r7, #24]
 2833 0b02 1146     		mov	r1, r2
 2834 0b04 1A46     		mov	r2, r3
 2835 0b06 FFF7FEFF 		bl	WriteAuxPSoC
 734:.\PrinterBLL.c ****         //output data
 735:.\PrinterBLL.c ****         WriteAuxPSoC(_g_auxprinterbuffer, index, printerport);        
 2836              		.loc 1 735 0
ARM GAS  C:\Users\RECEPC~1\AppData\Local\Temp\cc0bMLA1.s 			page 64


 2837 0b0a FB7F     		ldrb	r3, [r7, #31]	@ zero_extendqisi2
 2838 0b0c 9AB2     		uxth	r2, r3
 2839 0b0e FB78     		ldrb	r3, [r7, #3]	@ zero_extendqisi2
 2840 0b10 AF48     		ldr	r0, .L137
 2841 0b12 1146     		mov	r1, r2
 2842 0b14 1A46     		mov	r2, r3
 2843 0b16 FFF7FEFF 		bl	WriteAuxPSoC
 736:.\PrinterBLL.c **** 
 737:.\PrinterBLL.c ****         //line separator
 738:.\PrinterBLL.c ****         PRINTER_SEPARATOR(printerport);
 2844              		.loc 1 738 0
 2845 0b1a FB78     		ldrb	r3, [r7, #3]	@ zero_extendqisi2
 2846 0b1c AD48     		ldr	r0, .L137+4
 2847 0b1e 0121     		movs	r1, #1
 2848 0b20 1A46     		mov	r2, r3
 2849 0b22 FFF7FEFF 		bl	WriteAuxPSoC
 2850 0b26 FB78     		ldrb	r3, [r7, #3]	@ zero_extendqisi2
 2851 0b28 AB48     		ldr	r0, .L137+8
 2852 0b2a 1F21     		movs	r1, #31
 2853 0b2c 1A46     		mov	r2, r3
 2854 0b2e FFF7FEFF 		bl	WriteAuxPSoC
 2855 0b32 FB78     		ldrb	r3, [r7, #3]	@ zero_extendqisi2
 2856 0b34 A748     		ldr	r0, .L137+4
 2857 0b36 0121     		movs	r1, #1
 2858 0b38 1A46     		mov	r2, r3
 2859 0b3a FFF7FEFF 		bl	WriteAuxPSoC
 739:.\PrinterBLL.c ****         #ifdef PRINTER_TYPE_PANEL
 740:.\PrinterBLL.c ****         PRINTER_INDENTLINE(_LEFT_MARGIN_, printerport);
 2860              		.loc 1 740 0
 2861 0b3e FB78     		ldrb	r3, [r7, #3]	@ zero_extendqisi2
 2862 0b40 A648     		ldr	r0, .L137+12
 2863 0b42 0121     		movs	r1, #1
 2864 0b44 1A46     		mov	r2, r3
 2865 0b46 FFF7FEFF 		bl	WriteAuxPSoC
 741:.\PrinterBLL.c ****         #endif
 742:.\PrinterBLL.c ****         //////////////////////////////////////////////////////////////////////////////////        
 743:.\PrinterBLL.c ****         //Further lines for the Credit Transaction come here!!
 744:.\PrinterBLL.c ****         //////////////////////////////////////////////////////////////////////////////////        
 745:.\PrinterBLL.c ****         
 746:.\PrinterBLL.c ****         index = 0x20 + 0x0A;
 2866              		.loc 1 746 0
 2867 0b4a 2A23     		movs	r3, #42
 2868 0b4c FB77     		strb	r3, [r7, #31]
 747:.\PrinterBLL.c ****         //Car's Plate (8 bytes)
 748:.\PrinterBLL.c ****         prefstr = GetPrinterTemplateLine(PRN_PLATE);
 2869              		.loc 1 748 0
 2870 0b4e 0320     		movs	r0, #3
 2871 0b50 FFF7FEFF 		bl	GetPrinterTemplateLine
 2872 0b54 B861     		str	r0, [r7, #24]
 749:.\PrinterBLL.c ****         //output data left aligned
 750:.\PrinterBLL.c ****         WriteAuxPSoC((PNEAR_BYTE_PTR)prefstr, strlen(prefstr), printerport);
 2873              		.loc 1 750 0
 2874 0b56 B869     		ldr	r0, [r7, #24]
 2875 0b58 FFF7FEFF 		bl	strlen
 2876 0b5c 0346     		mov	r3, r0
 2877 0b5e 9AB2     		uxth	r2, r3
 2878 0b60 FB78     		ldrb	r3, [r7, #3]	@ zero_extendqisi2
ARM GAS  C:\Users\RECEPC~1\AppData\Local\Temp\cc0bMLA1.s 			page 65


 2879 0b62 B869     		ldr	r0, [r7, #24]
 2880 0b64 1146     		mov	r1, r2
 2881 0b66 1A46     		mov	r2, r3
 2882 0b68 FFF7FEFF 		bl	WriteAuxPSoC
 751:.\PrinterBLL.c ****         WriteAuxPSoC((PNEAR_BYTE_PTR)&pmsg->_buffer[index], 0x08, printerport);
 2883              		.loc 1 751 0
 2884 0b6c FB7F     		ldrb	r3, [r7, #31]	@ zero_extendqisi2
 2885 0b6e 0833     		adds	r3, r3, #8
 2886 0b70 7A68     		ldr	r2, [r7, #4]
 2887 0b72 1344     		add	r3, r3, r2
 2888 0b74 1A1D     		adds	r2, r3, #4
 2889 0b76 FB78     		ldrb	r3, [r7, #3]	@ zero_extendqisi2
 2890 0b78 1046     		mov	r0, r2
 2891 0b7a 0821     		movs	r1, #8
 2892 0b7c 1A46     		mov	r2, r3
 2893 0b7e FFF7FEFF 		bl	WriteAuxPSoC
 752:.\PrinterBLL.c ****         //line feed 
 753:.\PrinterBLL.c ****         PRINTER_LINEFEED(printerport);
 2894              		.loc 1 753 0
 2895 0b82 FB78     		ldrb	r3, [r7, #3]	@ zero_extendqisi2
 2896 0b84 9348     		ldr	r0, .L137+4
 2897 0b86 0121     		movs	r1, #1
 2898 0b88 1A46     		mov	r2, r3
 2899 0b8a FFF7FEFF 		bl	WriteAuxPSoC
 754:.\PrinterBLL.c ****         #ifdef PRINTER_TYPE_PANEL
 755:.\PrinterBLL.c ****         PRINTER_INDENTLINE(_LEFT_MARGIN_, printerport);
 2900              		.loc 1 755 0
 2901 0b8e FB78     		ldrb	r3, [r7, #3]	@ zero_extendqisi2
 2902 0b90 9248     		ldr	r0, .L137+12
 2903 0b92 0121     		movs	r1, #1
 2904 0b94 1A46     		mov	r2, r3
 2905 0b96 FFF7FEFF 		bl	WriteAuxPSoC
 756:.\PrinterBLL.c ****         #endif
 757:.\PrinterBLL.c ****         index += 0x08;
 2906              		.loc 1 757 0
 2907 0b9a FB7F     		ldrb	r3, [r7, #31]
 2908 0b9c 0833     		adds	r3, r3, #8
 2909 0b9e FB77     		strb	r3, [r7, #31]
 758:.\PrinterBLL.c **** 
 759:.\PrinterBLL.c ****         //Balance (10 bytes)
 760:.\PrinterBLL.c ****         prefstr = GetPrinterTemplateLine(PRN_BALANCE);
 2910              		.loc 1 760 0
 2911 0ba0 0820     		movs	r0, #8
 2912 0ba2 FFF7FEFF 		bl	GetPrinterTemplateLine
 2913 0ba6 B861     		str	r0, [r7, #24]
 761:.\PrinterBLL.c ****         //output data left aligned
 762:.\PrinterBLL.c ****         WriteAuxPSoC((PNEAR_BYTE_PTR)prefstr, strlen(prefstr), printerport);
 2914              		.loc 1 762 0
 2915 0ba8 B869     		ldr	r0, [r7, #24]
 2916 0baa FFF7FEFF 		bl	strlen
 2917 0bae 0346     		mov	r3, r0
 2918 0bb0 9AB2     		uxth	r2, r3
 2919 0bb2 FB78     		ldrb	r3, [r7, #3]	@ zero_extendqisi2
 2920 0bb4 B869     		ldr	r0, [r7, #24]
 2921 0bb6 1146     		mov	r1, r2
 2922 0bb8 1A46     		mov	r2, r3
 2923 0bba FFF7FEFF 		bl	WriteAuxPSoC
ARM GAS  C:\Users\RECEPC~1\AppData\Local\Temp\cc0bMLA1.s 			page 66


 763:.\PrinterBLL.c ****         WriteAuxPSoC((PNEAR_BYTE_PTR)&pmsg->_buffer[index], 0x0A, printerport);
 2924              		.loc 1 763 0
 2925 0bbe FB7F     		ldrb	r3, [r7, #31]	@ zero_extendqisi2
 2926 0bc0 0833     		adds	r3, r3, #8
 2927 0bc2 7A68     		ldr	r2, [r7, #4]
 2928 0bc4 1344     		add	r3, r3, r2
 2929 0bc6 1A1D     		adds	r2, r3, #4
 2930 0bc8 FB78     		ldrb	r3, [r7, #3]	@ zero_extendqisi2
 2931 0bca 1046     		mov	r0, r2
 2932 0bcc 0A21     		movs	r1, #10
 2933 0bce 1A46     		mov	r2, r3
 2934 0bd0 FFF7FEFF 		bl	WriteAuxPSoC
 764:.\PrinterBLL.c ****         //line feed 
 765:.\PrinterBLL.c ****         PRINTER_LINEFEED(printerport);
 2935              		.loc 1 765 0
 2936 0bd4 FB78     		ldrb	r3, [r7, #3]	@ zero_extendqisi2
 2937 0bd6 7F48     		ldr	r0, .L137+4
 2938 0bd8 0121     		movs	r1, #1
 2939 0bda 1A46     		mov	r2, r3
 2940 0bdc FFF7FEFF 		bl	WriteAuxPSoC
 766:.\PrinterBLL.c ****         #ifdef PRINTER_TYPE_PANEL
 767:.\PrinterBLL.c ****         PRINTER_INDENTLINE(_LEFT_MARGIN_, printerport);
 2941              		.loc 1 767 0
 2942 0be0 FB78     		ldrb	r3, [r7, #3]	@ zero_extendqisi2
 2943 0be2 7E48     		ldr	r0, .L137+12
 2944 0be4 0121     		movs	r1, #1
 2945 0be6 1A46     		mov	r2, r3
 2946 0be8 FFF7FEFF 		bl	WriteAuxPSoC
 768:.\PrinterBLL.c ****         #endif
 769:.\PrinterBLL.c ****         index += 0x0A;
 2947              		.loc 1 769 0
 2948 0bec FB7F     		ldrb	r3, [r7, #31]
 2949 0bee 0A33     		adds	r3, r3, #10
 2950 0bf0 FB77     		strb	r3, [r7, #31]
 770:.\PrinterBLL.c **** 
 771:.\PrinterBLL.c ****         //Company (20 bytes)
 772:.\PrinterBLL.c ****         prefstr = GetPrinterTemplateLine(PRN_COMPANY);
 2951              		.loc 1 772 0
 2952 0bf2 0920     		movs	r0, #9
 2953 0bf4 FFF7FEFF 		bl	GetPrinterTemplateLine
 2954 0bf8 B861     		str	r0, [r7, #24]
 773:.\PrinterBLL.c ****         //output data left aligned
 774:.\PrinterBLL.c ****         WriteAuxPSoC((PNEAR_BYTE_PTR)prefstr, strlen(prefstr), printerport);
 2955              		.loc 1 774 0
 2956 0bfa B869     		ldr	r0, [r7, #24]
 2957 0bfc FFF7FEFF 		bl	strlen
 2958 0c00 0346     		mov	r3, r0
 2959 0c02 9AB2     		uxth	r2, r3
 2960 0c04 FB78     		ldrb	r3, [r7, #3]	@ zero_extendqisi2
 2961 0c06 B869     		ldr	r0, [r7, #24]
 2962 0c08 1146     		mov	r1, r2
 2963 0c0a 1A46     		mov	r2, r3
 2964 0c0c FFF7FEFF 		bl	WriteAuxPSoC
 775:.\PrinterBLL.c ****         WriteAuxPSoC((PNEAR_BYTE_PTR)&pmsg->_buffer[index], 0x14, printerport);
 2965              		.loc 1 775 0
 2966 0c10 FB7F     		ldrb	r3, [r7, #31]	@ zero_extendqisi2
 2967 0c12 0833     		adds	r3, r3, #8
ARM GAS  C:\Users\RECEPC~1\AppData\Local\Temp\cc0bMLA1.s 			page 67


 2968 0c14 7A68     		ldr	r2, [r7, #4]
 2969 0c16 1344     		add	r3, r3, r2
 2970 0c18 1A1D     		adds	r2, r3, #4
 2971 0c1a FB78     		ldrb	r3, [r7, #3]	@ zero_extendqisi2
 2972 0c1c 1046     		mov	r0, r2
 2973 0c1e 1421     		movs	r1, #20
 2974 0c20 1A46     		mov	r2, r3
 2975 0c22 FFF7FEFF 		bl	WriteAuxPSoC
 776:.\PrinterBLL.c ****         //line feed 
 777:.\PrinterBLL.c ****         PRINTER_LINEFEED(printerport);
 2976              		.loc 1 777 0
 2977 0c26 FB78     		ldrb	r3, [r7, #3]	@ zero_extendqisi2
 2978 0c28 6A48     		ldr	r0, .L137+4
 2979 0c2a 0121     		movs	r1, #1
 2980 0c2c 1A46     		mov	r2, r3
 2981 0c2e FFF7FEFF 		bl	WriteAuxPSoC
 778:.\PrinterBLL.c ****         #ifdef PRINTER_TYPE_PANEL
 779:.\PrinterBLL.c ****         PRINTER_INDENTLINE(_LEFT_MARGIN_, printerport);
 2982              		.loc 1 779 0
 2983 0c32 FB78     		ldrb	r3, [r7, #3]	@ zero_extendqisi2
 2984 0c34 6948     		ldr	r0, .L137+12
 2985 0c36 0121     		movs	r1, #1
 2986 0c38 1A46     		mov	r2, r3
 2987 0c3a FFF7FEFF 		bl	WriteAuxPSoC
 780:.\PrinterBLL.c ****         #endif
 781:.\PrinterBLL.c ****         index += 0x14;
 2988              		.loc 1 781 0
 2989 0c3e FB7F     		ldrb	r3, [r7, #31]
 2990 0c40 1433     		adds	r3, r3, #20
 2991 0c42 FB77     		strb	r3, [r7, #31]
 782:.\PrinterBLL.c **** 
 783:.\PrinterBLL.c ****         //Account Name (20 bytes)
 784:.\PrinterBLL.c ****         prefstr = GetPrinterTemplateLine(PRN_ACCOUNT);
 2992              		.loc 1 784 0
 2993 0c44 0A20     		movs	r0, #10
 2994 0c46 FFF7FEFF 		bl	GetPrinterTemplateLine
 2995 0c4a B861     		str	r0, [r7, #24]
 785:.\PrinterBLL.c ****         //output data left aligned
 786:.\PrinterBLL.c ****         WriteAuxPSoC((PNEAR_BYTE_PTR)prefstr, strlen(prefstr), printerport);
 2996              		.loc 1 786 0
 2997 0c4c B869     		ldr	r0, [r7, #24]
 2998 0c4e FFF7FEFF 		bl	strlen
 2999 0c52 0346     		mov	r3, r0
 3000 0c54 9AB2     		uxth	r2, r3
 3001 0c56 FB78     		ldrb	r3, [r7, #3]	@ zero_extendqisi2
 3002 0c58 B869     		ldr	r0, [r7, #24]
 3003 0c5a 1146     		mov	r1, r2
 3004 0c5c 1A46     		mov	r2, r3
 3005 0c5e FFF7FEFF 		bl	WriteAuxPSoC
 787:.\PrinterBLL.c ****         WriteAuxPSoC((PNEAR_BYTE_PTR)&pmsg->_buffer[index], 0x14, printerport);
 3006              		.loc 1 787 0
 3007 0c62 FB7F     		ldrb	r3, [r7, #31]	@ zero_extendqisi2
 3008 0c64 0833     		adds	r3, r3, #8
 3009 0c66 7A68     		ldr	r2, [r7, #4]
 3010 0c68 1344     		add	r3, r3, r2
 3011 0c6a 1A1D     		adds	r2, r3, #4
 3012 0c6c FB78     		ldrb	r3, [r7, #3]	@ zero_extendqisi2
ARM GAS  C:\Users\RECEPC~1\AppData\Local\Temp\cc0bMLA1.s 			page 68


 3013 0c6e 1046     		mov	r0, r2
 3014 0c70 1421     		movs	r1, #20
 3015 0c72 1A46     		mov	r2, r3
 3016 0c74 FFF7FEFF 		bl	WriteAuxPSoC
 788:.\PrinterBLL.c ****         //line feed 
 789:.\PrinterBLL.c ****         PRINTER_LINEFEED(printerport);
 3017              		.loc 1 789 0
 3018 0c78 FB78     		ldrb	r3, [r7, #3]	@ zero_extendqisi2
 3019 0c7a 5648     		ldr	r0, .L137+4
 3020 0c7c 0121     		movs	r1, #1
 3021 0c7e 1A46     		mov	r2, r3
 3022 0c80 FFF7FEFF 		bl	WriteAuxPSoC
 790:.\PrinterBLL.c ****         #ifdef PRINTER_TYPE_PANEL
 791:.\PrinterBLL.c ****         PRINTER_INDENTLINE(_LEFT_MARGIN_, printerport);
 3023              		.loc 1 791 0
 3024 0c84 FB78     		ldrb	r3, [r7, #3]	@ zero_extendqisi2
 3025 0c86 5548     		ldr	r0, .L137+12
 3026 0c88 0121     		movs	r1, #1
 3027 0c8a 1A46     		mov	r2, r3
 3028 0c8c FFF7FEFF 		bl	WriteAuxPSoC
 792:.\PrinterBLL.c ****         #endif
 793:.\PrinterBLL.c ****         index += 0x14;
 3029              		.loc 1 793 0
 3030 0c90 FB7F     		ldrb	r3, [r7, #31]
 3031 0c92 1433     		adds	r3, r3, #20
 3032 0c94 FB77     		strb	r3, [r7, #31]
 794:.\PrinterBLL.c **** 
 795:.\PrinterBLL.c ****         //Daily Visits (1 byte)
 796:.\PrinterBLL.c ****         prefstr = GetPrinterTemplateLine(PRN_VISITSDAY);
 3033              		.loc 1 796 0
 3034 0c96 0B20     		movs	r0, #11
 3035 0c98 FFF7FEFF 		bl	GetPrinterTemplateLine
 3036 0c9c B861     		str	r0, [r7, #24]
 797:.\PrinterBLL.c ****         //output data left aligned
 798:.\PrinterBLL.c ****         WriteAuxPSoC((PNEAR_BYTE_PTR)prefstr, strlen(prefstr), printerport);
 3037              		.loc 1 798 0
 3038 0c9e B869     		ldr	r0, [r7, #24]
 3039 0ca0 FFF7FEFF 		bl	strlen
 3040 0ca4 0346     		mov	r3, r0
 3041 0ca6 9AB2     		uxth	r2, r3
 3042 0ca8 FB78     		ldrb	r3, [r7, #3]	@ zero_extendqisi2
 3043 0caa B869     		ldr	r0, [r7, #24]
 3044 0cac 1146     		mov	r1, r2
 3045 0cae 1A46     		mov	r2, r3
 3046 0cb0 FFF7FEFF 		bl	WriteAuxPSoC
 799:.\PrinterBLL.c ****         
 800:.\PrinterBLL.c ****         memset(_g_auxprinterbuffer, 0x00, _MAX_PRINTER_LINE_WIDTH_);
 3047              		.loc 1 800 0
 3048 0cb4 4648     		ldr	r0, .L137
 3049 0cb6 0021     		movs	r1, #0
 3050 0cb8 1F22     		movs	r2, #31
 3051 0cba FFF7FEFF 		bl	memset
 801:.\PrinterBLL.c ****         B78AD90CF552D9B30A(pmsg->_buffer[index], _g_auxprinterbuffer);
 3052              		.loc 1 801 0
 3053 0cbe FB7F     		ldrb	r3, [r7, #31]	@ zero_extendqisi2
 3054 0cc0 7A68     		ldr	r2, [r7, #4]
 3055 0cc2 1344     		add	r3, r3, r2
ARM GAS  C:\Users\RECEPC~1\AppData\Local\Temp\cc0bMLA1.s 			page 69


 3056 0cc4 1B7B     		ldrb	r3, [r3, #12]	@ zero_extendqisi2
 3057 0cc6 DAB2     		uxtb	r2, r3
 3058 0cc8 4FF00003 		mov	r3, #0
 3059 0ccc 1046     		mov	r0, r2
 3060 0cce 1946     		mov	r1, r3
 3061 0cd0 3F4A     		ldr	r2, .L137
 3062 0cd2 FFF7FEFF 		bl	B78AD90CF552D9B30A
 802:.\PrinterBLL.c ****         uint8 bufflength = strlen(PSTRCAST(_g_auxprinterbuffer));
 3063              		.loc 1 802 0
 3064 0cd6 3E48     		ldr	r0, .L137
 3065 0cd8 FFF7FEFF 		bl	strlen
 3066 0cdc 0346     		mov	r3, r0
 3067 0cde FB73     		strb	r3, [r7, #15]
 803:.\PrinterBLL.c ****         PSTRBUFFTOGG(_g_auxprinterbuffer, bufflength);
 3068              		.loc 1 803 0
 3069 0ce0 FB7B     		ldrb	r3, [r7, #15]	@ zero_extendqisi2
 3070 0ce2 3B48     		ldr	r0, .L137
 3071 0ce4 1946     		mov	r1, r3
 3072 0ce6 FFF7FEFF 		bl	PSTRBUFFTOGG
 804:.\PrinterBLL.c ****         WriteAuxPSoC(_g_auxprinterbuffer, bufflength, printerport);
 3073              		.loc 1 804 0
 3074 0cea FB7B     		ldrb	r3, [r7, #15]	@ zero_extendqisi2
 3075 0cec 9AB2     		uxth	r2, r3
 3076 0cee FB78     		ldrb	r3, [r7, #3]	@ zero_extendqisi2
 3077 0cf0 3748     		ldr	r0, .L137
 3078 0cf2 1146     		mov	r1, r2
 3079 0cf4 1A46     		mov	r2, r3
 3080 0cf6 FFF7FEFF 		bl	WriteAuxPSoC
 805:.\PrinterBLL.c ****         //line feed 
 806:.\PrinterBLL.c ****         PRINTER_LINEFEED(printerport);
 3081              		.loc 1 806 0
 3082 0cfa FB78     		ldrb	r3, [r7, #3]	@ zero_extendqisi2
 3083 0cfc 3548     		ldr	r0, .L137+4
 3084 0cfe 0121     		movs	r1, #1
 3085 0d00 1A46     		mov	r2, r3
 3086 0d02 FFF7FEFF 		bl	WriteAuxPSoC
 807:.\PrinterBLL.c ****         #ifdef PRINTER_TYPE_PANEL
 808:.\PrinterBLL.c ****         PRINTER_INDENTLINE(_LEFT_MARGIN_, printerport);
 3087              		.loc 1 808 0
 3088 0d06 FB78     		ldrb	r3, [r7, #3]	@ zero_extendqisi2
 3089 0d08 3448     		ldr	r0, .L137+12
 3090 0d0a 0121     		movs	r1, #1
 3091 0d0c 1A46     		mov	r2, r3
 3092 0d0e FFF7FEFF 		bl	WriteAuxPSoC
 809:.\PrinterBLL.c ****         #endif
 810:.\PrinterBLL.c ****         index += 0x01;
 3093              		.loc 1 810 0
 3094 0d12 FB7F     		ldrb	r3, [r7, #31]
 3095 0d14 0133     		adds	r3, r3, #1
 3096 0d16 FB77     		strb	r3, [r7, #31]
 811:.\PrinterBLL.c **** 
 812:.\PrinterBLL.c ****         //Weekly Visits (1 byte)
 813:.\PrinterBLL.c ****         prefstr = GetPrinterTemplateLine(PRN_VISITSWEEK);
 3097              		.loc 1 813 0
 3098 0d18 0C20     		movs	r0, #12
 3099 0d1a FFF7FEFF 		bl	GetPrinterTemplateLine
 3100 0d1e B861     		str	r0, [r7, #24]
ARM GAS  C:\Users\RECEPC~1\AppData\Local\Temp\cc0bMLA1.s 			page 70


 814:.\PrinterBLL.c ****         //output data left aligned
 815:.\PrinterBLL.c ****         WriteAuxPSoC((PNEAR_BYTE_PTR)prefstr, strlen(prefstr), printerport);
 3101              		.loc 1 815 0
 3102 0d20 B869     		ldr	r0, [r7, #24]
 3103 0d22 FFF7FEFF 		bl	strlen
 3104 0d26 0346     		mov	r3, r0
 3105 0d28 9AB2     		uxth	r2, r3
 3106 0d2a FB78     		ldrb	r3, [r7, #3]	@ zero_extendqisi2
 3107 0d2c B869     		ldr	r0, [r7, #24]
 3108 0d2e 1146     		mov	r1, r2
 3109 0d30 1A46     		mov	r2, r3
 3110 0d32 FFF7FEFF 		bl	WriteAuxPSoC
 816:.\PrinterBLL.c ****         
 817:.\PrinterBLL.c ****         memset(_g_auxprinterbuffer, 0x00, _MAX_PRINTER_LINE_WIDTH_);
 3111              		.loc 1 817 0
 3112 0d36 2648     		ldr	r0, .L137
 3113 0d38 0021     		movs	r1, #0
 3114 0d3a 1F22     		movs	r2, #31
 3115 0d3c FFF7FEFF 		bl	memset
 818:.\PrinterBLL.c ****         B78AD90CF552D9B30A(pmsg->_buffer[index], _g_auxprinterbuffer);
 3116              		.loc 1 818 0
 3117 0d40 FB7F     		ldrb	r3, [r7, #31]	@ zero_extendqisi2
 3118 0d42 7A68     		ldr	r2, [r7, #4]
 3119 0d44 1344     		add	r3, r3, r2
 3120 0d46 1B7B     		ldrb	r3, [r3, #12]	@ zero_extendqisi2
 3121 0d48 DAB2     		uxtb	r2, r3
 3122 0d4a 4FF00003 		mov	r3, #0
 3123 0d4e 1046     		mov	r0, r2
 3124 0d50 1946     		mov	r1, r3
 3125 0d52 1F4A     		ldr	r2, .L137
 3126 0d54 FFF7FEFF 		bl	B78AD90CF552D9B30A
 819:.\PrinterBLL.c ****         bufflength = strlen(PSTRCAST(_g_auxprinterbuffer));
 3127              		.loc 1 819 0
 3128 0d58 1D48     		ldr	r0, .L137
 3129 0d5a FFF7FEFF 		bl	strlen
 3130 0d5e 0346     		mov	r3, r0
 3131 0d60 FB73     		strb	r3, [r7, #15]
 820:.\PrinterBLL.c ****         PSTRBUFFTOGG(_g_auxprinterbuffer, bufflength);
 3132              		.loc 1 820 0
 3133 0d62 FB7B     		ldrb	r3, [r7, #15]	@ zero_extendqisi2
 3134 0d64 1A48     		ldr	r0, .L137
 3135 0d66 1946     		mov	r1, r3
 3136 0d68 FFF7FEFF 		bl	PSTRBUFFTOGG
 821:.\PrinterBLL.c ****         WriteAuxPSoC(_g_auxprinterbuffer, bufflength, printerport);
 3137              		.loc 1 821 0
 3138 0d6c FB7B     		ldrb	r3, [r7, #15]	@ zero_extendqisi2
 3139 0d6e 9AB2     		uxth	r2, r3
 3140 0d70 FB78     		ldrb	r3, [r7, #3]	@ zero_extendqisi2
 3141 0d72 1748     		ldr	r0, .L137
 3142 0d74 1146     		mov	r1, r2
 3143 0d76 1A46     		mov	r2, r3
 3144 0d78 FFF7FEFF 		bl	WriteAuxPSoC
 822:.\PrinterBLL.c ****         //line feed 
 823:.\PrinterBLL.c ****         PRINTER_LINEFEED(printerport);
 3145              		.loc 1 823 0
 3146 0d7c FB78     		ldrb	r3, [r7, #3]	@ zero_extendqisi2
 3147 0d7e 1548     		ldr	r0, .L137+4
ARM GAS  C:\Users\RECEPC~1\AppData\Local\Temp\cc0bMLA1.s 			page 71


 3148 0d80 0121     		movs	r1, #1
 3149 0d82 1A46     		mov	r2, r3
 3150 0d84 FFF7FEFF 		bl	WriteAuxPSoC
 824:.\PrinterBLL.c ****         #ifdef PRINTER_TYPE_PANEL
 825:.\PrinterBLL.c ****         PRINTER_INDENTLINE(_LEFT_MARGIN_, printerport);
 3151              		.loc 1 825 0
 3152 0d88 FB78     		ldrb	r3, [r7, #3]	@ zero_extendqisi2
 3153 0d8a 1448     		ldr	r0, .L137+12
 3154 0d8c 0121     		movs	r1, #1
 3155 0d8e 1A46     		mov	r2, r3
 3156 0d90 FFF7FEFF 		bl	WriteAuxPSoC
 826:.\PrinterBLL.c ****         #endif
 827:.\PrinterBLL.c ****         index += 0x01;
 3157              		.loc 1 827 0
 3158 0d94 FB7F     		ldrb	r3, [r7, #31]
 3159 0d96 0133     		adds	r3, r3, #1
 3160 0d98 FB77     		strb	r3, [r7, #31]
 828:.\PrinterBLL.c **** 
 829:.\PrinterBLL.c ****         //Monthly Visits (1 byte)
 830:.\PrinterBLL.c ****         prefstr = GetPrinterTemplateLine(PRN_VISITSMONTH);
 3161              		.loc 1 830 0
 3162 0d9a 0D20     		movs	r0, #13
 3163 0d9c FFF7FEFF 		bl	GetPrinterTemplateLine
 3164 0da0 B861     		str	r0, [r7, #24]
 831:.\PrinterBLL.c ****         //output data left aligned
 832:.\PrinterBLL.c ****         WriteAuxPSoC((PNEAR_BYTE_PTR)prefstr, strlen(prefstr), printerport);
 3165              		.loc 1 832 0
 3166 0da2 B869     		ldr	r0, [r7, #24]
 3167 0da4 FFF7FEFF 		bl	strlen
 3168 0da8 0346     		mov	r3, r0
 3169 0daa 9AB2     		uxth	r2, r3
 3170 0dac FB78     		ldrb	r3, [r7, #3]	@ zero_extendqisi2
 3171 0dae B869     		ldr	r0, [r7, #24]
 3172 0db0 1146     		mov	r1, r2
 3173 0db2 1A46     		mov	r2, r3
 3174 0db4 FFF7FEFF 		bl	WriteAuxPSoC
 833:.\PrinterBLL.c ****         
 834:.\PrinterBLL.c ****         memset(_g_auxprinterbuffer, 0x00, _MAX_PRINTER_LINE_WIDTH_);
 3175              		.loc 1 834 0
 3176 0db8 0548     		ldr	r0, .L137
 3177 0dba 0021     		movs	r1, #0
 3178 0dbc 1F22     		movs	r2, #31
 3179 0dbe FFF7FEFF 		bl	memset
 835:.\PrinterBLL.c ****         B78AD90CF552D9B30A(pmsg->_buffer[index], _g_auxprinterbuffer);
 3180              		.loc 1 835 0
 3181 0dc2 FB7F     		ldrb	r3, [r7, #31]	@ zero_extendqisi2
 3182 0dc4 7A68     		ldr	r2, [r7, #4]
 3183 0dc6 1344     		add	r3, r3, r2
 3184 0dc8 1B7B     		ldrb	r3, [r3, #12]	@ zero_extendqisi2
 3185 0dca DAB2     		uxtb	r2, r3
 3186 0dcc 08E0     		b	.L138
 3187              	.L139:
 3188 0dce 00BF     		.align	2
 3189              	.L137:
 3190 0dd0 00000000 		.word	_g_auxprinterbuffer
 3191 0dd4 00000000 		.word	_g_linefeed
 3192 0dd8 00000000 		.word	_g_separator
ARM GAS  C:\Users\RECEPC~1\AppData\Local\Temp\cc0bMLA1.s 			page 72


 3193 0ddc 00000000 		.word	_g_padcharacters
 3194              	.L138:
 3195 0de0 4FF00003 		mov	r3, #0
 3196 0de4 1046     		mov	r0, r2
 3197 0de6 1946     		mov	r1, r3
 3198 0de8 494A     		ldr	r2, .L140
 3199 0dea FFF7FEFF 		bl	B78AD90CF552D9B30A
 836:.\PrinterBLL.c ****         bufflength = strlen(PSTRCAST(_g_auxprinterbuffer));
 3200              		.loc 1 836 0
 3201 0dee 4848     		ldr	r0, .L140
 3202 0df0 FFF7FEFF 		bl	strlen
 3203 0df4 0346     		mov	r3, r0
 3204 0df6 FB73     		strb	r3, [r7, #15]
 837:.\PrinterBLL.c ****         PSTRBUFFTOGG(_g_auxprinterbuffer, bufflength);
 3205              		.loc 1 837 0
 3206 0df8 FB7B     		ldrb	r3, [r7, #15]	@ zero_extendqisi2
 3207 0dfa 4548     		ldr	r0, .L140
 3208 0dfc 1946     		mov	r1, r3
 3209 0dfe FFF7FEFF 		bl	PSTRBUFFTOGG
 838:.\PrinterBLL.c ****         WriteAuxPSoC(_g_auxprinterbuffer, bufflength, printerport);
 3210              		.loc 1 838 0
 3211 0e02 FB7B     		ldrb	r3, [r7, #15]	@ zero_extendqisi2
 3212 0e04 9AB2     		uxth	r2, r3
 3213 0e06 FB78     		ldrb	r3, [r7, #3]	@ zero_extendqisi2
 3214 0e08 4148     		ldr	r0, .L140
 3215 0e0a 1146     		mov	r1, r2
 3216 0e0c 1A46     		mov	r2, r3
 3217 0e0e FFF7FEFF 		bl	WriteAuxPSoC
 839:.\PrinterBLL.c ****         //line feed 
 840:.\PrinterBLL.c ****         PRINTER_LINEFEED(printerport);
 3218              		.loc 1 840 0
 3219 0e12 FB78     		ldrb	r3, [r7, #3]	@ zero_extendqisi2
 3220 0e14 3F48     		ldr	r0, .L140+4
 3221 0e16 0121     		movs	r1, #1
 3222 0e18 1A46     		mov	r2, r3
 3223 0e1a FFF7FEFF 		bl	WriteAuxPSoC
 841:.\PrinterBLL.c ****         #ifdef PRINTER_TYPE_PANEL
 842:.\PrinterBLL.c ****         PRINTER_INDENTLINE(_LEFT_MARGIN_, printerport);
 3224              		.loc 1 842 0
 3225 0e1e FB78     		ldrb	r3, [r7, #3]	@ zero_extendqisi2
 3226 0e20 3D48     		ldr	r0, .L140+8
 3227 0e22 0121     		movs	r1, #1
 3228 0e24 1A46     		mov	r2, r3
 3229 0e26 FFF7FEFF 		bl	WriteAuxPSoC
 843:.\PrinterBLL.c ****         #endif
 844:.\PrinterBLL.c ****         index += 0x01;
 3230              		.loc 1 844 0
 3231 0e2a FB7F     		ldrb	r3, [r7, #31]
 3232 0e2c 0133     		adds	r3, r3, #1
 3233 0e2e FB77     		strb	r3, [r7, #31]
 845:.\PrinterBLL.c ****         
 846:.\PrinterBLL.c ****         //Daily Volume (7 bytes)
 847:.\PrinterBLL.c ****         if(pmsg->_buffer[0x8B] == 0x01)
 3234              		.loc 1 847 0
 3235 0e30 7B68     		ldr	r3, [r7, #4]
 3236 0e32 93F89730 		ldrb	r3, [r3, #151]	@ zero_extendqisi2
 3237 0e36 012B     		cmp	r3, #1
ARM GAS  C:\Users\RECEPC~1\AppData\Local\Temp\cc0bMLA1.s 			page 73


 3238 0e38 04D1     		bne	.L121
 848:.\PrinterBLL.c ****             prefstr = GetPrinterTemplateLine(PRN_VOLUMEDAY);
 3239              		.loc 1 848 0
 3240 0e3a 0E20     		movs	r0, #14
 3241 0e3c FFF7FEFF 		bl	GetPrinterTemplateLine
 3242 0e40 B861     		str	r0, [r7, #24]
 3243 0e42 03E0     		b	.L122
 3244              	.L121:
 849:.\PrinterBLL.c ****         else
 850:.\PrinterBLL.c ****             prefstr = GetPrinterTemplateLine(PRN_MONEYDAY);
 3245              		.loc 1 850 0
 3246 0e44 1120     		movs	r0, #17
 3247 0e46 FFF7FEFF 		bl	GetPrinterTemplateLine
 3248 0e4a B861     		str	r0, [r7, #24]
 3249              	.L122:
 851:.\PrinterBLL.c ****         //output data left aligned
 852:.\PrinterBLL.c ****         WriteAuxPSoC((PNEAR_BYTE_PTR)prefstr, strlen(prefstr), printerport);
 3250              		.loc 1 852 0
 3251 0e4c B869     		ldr	r0, [r7, #24]
 3252 0e4e FFF7FEFF 		bl	strlen
 3253 0e52 0346     		mov	r3, r0
 3254 0e54 9AB2     		uxth	r2, r3
 3255 0e56 FB78     		ldrb	r3, [r7, #3]	@ zero_extendqisi2
 3256 0e58 B869     		ldr	r0, [r7, #24]
 3257 0e5a 1146     		mov	r1, r2
 3258 0e5c 1A46     		mov	r2, r3
 3259 0e5e FFF7FEFF 		bl	WriteAuxPSoC
 853:.\PrinterBLL.c ****         WriteAuxPSoC((PNEAR_BYTE_PTR)&pmsg->_buffer[index], 0x07, printerport);
 3260              		.loc 1 853 0
 3261 0e62 FB7F     		ldrb	r3, [r7, #31]	@ zero_extendqisi2
 3262 0e64 0833     		adds	r3, r3, #8
 3263 0e66 7A68     		ldr	r2, [r7, #4]
 3264 0e68 1344     		add	r3, r3, r2
 3265 0e6a 1A1D     		adds	r2, r3, #4
 3266 0e6c FB78     		ldrb	r3, [r7, #3]	@ zero_extendqisi2
 3267 0e6e 1046     		mov	r0, r2
 3268 0e70 0721     		movs	r1, #7
 3269 0e72 1A46     		mov	r2, r3
 3270 0e74 FFF7FEFF 		bl	WriteAuxPSoC
 854:.\PrinterBLL.c ****         //line feed 
 855:.\PrinterBLL.c ****         PRINTER_LINEFEED(printerport);
 3271              		.loc 1 855 0
 3272 0e78 FB78     		ldrb	r3, [r7, #3]	@ zero_extendqisi2
 3273 0e7a 2648     		ldr	r0, .L140+4
 3274 0e7c 0121     		movs	r1, #1
 3275 0e7e 1A46     		mov	r2, r3
 3276 0e80 FFF7FEFF 		bl	WriteAuxPSoC
 856:.\PrinterBLL.c ****         #ifdef PRINTER_TYPE_PANEL
 857:.\PrinterBLL.c ****         PRINTER_INDENTLINE(_LEFT_MARGIN_, printerport);
 3277              		.loc 1 857 0
 3278 0e84 FB78     		ldrb	r3, [r7, #3]	@ zero_extendqisi2
 3279 0e86 2448     		ldr	r0, .L140+8
 3280 0e88 0121     		movs	r1, #1
 3281 0e8a 1A46     		mov	r2, r3
 3282 0e8c FFF7FEFF 		bl	WriteAuxPSoC
 858:.\PrinterBLL.c ****         #endif
 859:.\PrinterBLL.c ****         index += 0x07;
ARM GAS  C:\Users\RECEPC~1\AppData\Local\Temp\cc0bMLA1.s 			page 74


 3283              		.loc 1 859 0
 3284 0e90 FB7F     		ldrb	r3, [r7, #31]
 3285 0e92 0733     		adds	r3, r3, #7
 3286 0e94 FB77     		strb	r3, [r7, #31]
 860:.\PrinterBLL.c **** 
 861:.\PrinterBLL.c ****         //Weekly Volume (7 bytes)
 862:.\PrinterBLL.c ****         if(pmsg->_buffer[0x8B] == 0x01)
 3287              		.loc 1 862 0
 3288 0e96 7B68     		ldr	r3, [r7, #4]
 3289 0e98 93F89730 		ldrb	r3, [r3, #151]	@ zero_extendqisi2
 3290 0e9c 012B     		cmp	r3, #1
 3291 0e9e 04D1     		bne	.L123
 863:.\PrinterBLL.c ****             prefstr = GetPrinterTemplateLine(PRN_VOLUMEWEEK);
 3292              		.loc 1 863 0
 3293 0ea0 0F20     		movs	r0, #15
 3294 0ea2 FFF7FEFF 		bl	GetPrinterTemplateLine
 3295 0ea6 B861     		str	r0, [r7, #24]
 3296 0ea8 03E0     		b	.L124
 3297              	.L123:
 864:.\PrinterBLL.c ****         else
 865:.\PrinterBLL.c ****             prefstr = GetPrinterTemplateLine(PRN_MONEYWEEK);
 3298              		.loc 1 865 0
 3299 0eaa 1220     		movs	r0, #18
 3300 0eac FFF7FEFF 		bl	GetPrinterTemplateLine
 3301 0eb0 B861     		str	r0, [r7, #24]
 3302              	.L124:
 866:.\PrinterBLL.c ****             
 867:.\PrinterBLL.c ****         //output data left aligned
 868:.\PrinterBLL.c ****         WriteAuxPSoC((PNEAR_BYTE_PTR)prefstr, strlen(prefstr), printerport);
 3303              		.loc 1 868 0
 3304 0eb2 B869     		ldr	r0, [r7, #24]
 3305 0eb4 FFF7FEFF 		bl	strlen
 3306 0eb8 0346     		mov	r3, r0
 3307 0eba 9AB2     		uxth	r2, r3
 3308 0ebc FB78     		ldrb	r3, [r7, #3]	@ zero_extendqisi2
 3309 0ebe B869     		ldr	r0, [r7, #24]
 3310 0ec0 1146     		mov	r1, r2
 3311 0ec2 1A46     		mov	r2, r3
 3312 0ec4 FFF7FEFF 		bl	WriteAuxPSoC
 869:.\PrinterBLL.c ****         WriteAuxPSoC((PNEAR_BYTE_PTR)&pmsg->_buffer[index], 0x07, printerport);
 3313              		.loc 1 869 0
 3314 0ec8 FB7F     		ldrb	r3, [r7, #31]	@ zero_extendqisi2
 3315 0eca 0833     		adds	r3, r3, #8
 3316 0ecc 7A68     		ldr	r2, [r7, #4]
 3317 0ece 1344     		add	r3, r3, r2
 3318 0ed0 1A1D     		adds	r2, r3, #4
 3319 0ed2 FB78     		ldrb	r3, [r7, #3]	@ zero_extendqisi2
 3320 0ed4 1046     		mov	r0, r2
 3321 0ed6 0721     		movs	r1, #7
 3322 0ed8 1A46     		mov	r2, r3
 3323 0eda FFF7FEFF 		bl	WriteAuxPSoC
 870:.\PrinterBLL.c ****         //line feed 
 871:.\PrinterBLL.c ****         PRINTER_LINEFEED(printerport);
 3324              		.loc 1 871 0
 3325 0ede FB78     		ldrb	r3, [r7, #3]	@ zero_extendqisi2
 3326 0ee0 0C48     		ldr	r0, .L140+4
 3327 0ee2 0121     		movs	r1, #1
ARM GAS  C:\Users\RECEPC~1\AppData\Local\Temp\cc0bMLA1.s 			page 75


 3328 0ee4 1A46     		mov	r2, r3
 3329 0ee6 FFF7FEFF 		bl	WriteAuxPSoC
 872:.\PrinterBLL.c ****         #ifdef PRINTER_TYPE_PANEL
 873:.\PrinterBLL.c ****         PRINTER_INDENTLINE(_LEFT_MARGIN_, printerport);
 3330              		.loc 1 873 0
 3331 0eea FB78     		ldrb	r3, [r7, #3]	@ zero_extendqisi2
 3332 0eec 0A48     		ldr	r0, .L140+8
 3333 0eee 0121     		movs	r1, #1
 3334 0ef0 1A46     		mov	r2, r3
 3335 0ef2 FFF7FEFF 		bl	WriteAuxPSoC
 874:.\PrinterBLL.c ****         #endif
 875:.\PrinterBLL.c ****         index += 0x07;
 3336              		.loc 1 875 0
 3337 0ef6 FB7F     		ldrb	r3, [r7, #31]
 3338 0ef8 0733     		adds	r3, r3, #7
 3339 0efa FB77     		strb	r3, [r7, #31]
 876:.\PrinterBLL.c **** 
 877:.\PrinterBLL.c ****         //Monthly Volume (7 bytes)
 878:.\PrinterBLL.c ****         if(pmsg->_buffer[0x8B] == 0x01)
 3340              		.loc 1 878 0
 3341 0efc 7B68     		ldr	r3, [r7, #4]
 3342 0efe 93F89730 		ldrb	r3, [r3, #151]	@ zero_extendqisi2
 3343 0f02 012B     		cmp	r3, #1
 3344 0f04 0AD1     		bne	.L125
 879:.\PrinterBLL.c ****             prefstr = GetPrinterTemplateLine(PRN_VOLUMEMONTH);
 3345              		.loc 1 879 0
 3346 0f06 1020     		movs	r0, #16
 3347 0f08 FFF7FEFF 		bl	GetPrinterTemplateLine
 3348 0f0c B861     		str	r0, [r7, #24]
 3349 0f0e 09E0     		b	.L126
 3350              	.L141:
 3351              		.align	2
 3352              	.L140:
 3353 0f10 00000000 		.word	_g_auxprinterbuffer
 3354 0f14 00000000 		.word	_g_linefeed
 3355 0f18 00000000 		.word	_g_padcharacters
 3356              	.L125:
 880:.\PrinterBLL.c ****         else
 881:.\PrinterBLL.c ****             prefstr = GetPrinterTemplateLine(PRN_MONEYMONTH);
 3357              		.loc 1 881 0
 3358 0f1c 1320     		movs	r0, #19
 3359 0f1e FFF7FEFF 		bl	GetPrinterTemplateLine
 3360 0f22 B861     		str	r0, [r7, #24]
 3361              	.L126:
 882:.\PrinterBLL.c ****         
 883:.\PrinterBLL.c ****         //output data left aligned
 884:.\PrinterBLL.c ****         WriteAuxPSoC((PNEAR_BYTE_PTR)prefstr, strlen(prefstr), printerport);
 3362              		.loc 1 884 0
 3363 0f24 B869     		ldr	r0, [r7, #24]
 3364 0f26 FFF7FEFF 		bl	strlen
 3365 0f2a 0346     		mov	r3, r0
 3366 0f2c 9AB2     		uxth	r2, r3
 3367 0f2e FB78     		ldrb	r3, [r7, #3]	@ zero_extendqisi2
 3368 0f30 B869     		ldr	r0, [r7, #24]
 3369 0f32 1146     		mov	r1, r2
 3370 0f34 1A46     		mov	r2, r3
 3371 0f36 FFF7FEFF 		bl	WriteAuxPSoC
ARM GAS  C:\Users\RECEPC~1\AppData\Local\Temp\cc0bMLA1.s 			page 76


 885:.\PrinterBLL.c ****         WriteAuxPSoC((PNEAR_BYTE_PTR)&pmsg->_buffer[index], 0x07, printerport);
 3372              		.loc 1 885 0
 3373 0f3a FB7F     		ldrb	r3, [r7, #31]	@ zero_extendqisi2
 3374 0f3c 0833     		adds	r3, r3, #8
 3375 0f3e 7A68     		ldr	r2, [r7, #4]
 3376 0f40 1344     		add	r3, r3, r2
 3377 0f42 1A1D     		adds	r2, r3, #4
 3378 0f44 FB78     		ldrb	r3, [r7, #3]	@ zero_extendqisi2
 3379 0f46 1046     		mov	r0, r2
 3380 0f48 0721     		movs	r1, #7
 3381 0f4a 1A46     		mov	r2, r3
 3382 0f4c FFF7FEFF 		bl	WriteAuxPSoC
 886:.\PrinterBLL.c ****         //line feed 
 887:.\PrinterBLL.c ****         PRINTER_LINEFEED(printerport);
 3383              		.loc 1 887 0
 3384 0f50 FB78     		ldrb	r3, [r7, #3]	@ zero_extendqisi2
 3385 0f52 9048     		ldr	r0, .L142
 3386 0f54 0121     		movs	r1, #1
 3387 0f56 1A46     		mov	r2, r3
 3388 0f58 FFF7FEFF 		bl	WriteAuxPSoC
 888:.\PrinterBLL.c ****         #ifdef PRINTER_TYPE_PANEL
 889:.\PrinterBLL.c ****         PRINTER_INDENTLINE(_LEFT_MARGIN_, printerport);
 3389              		.loc 1 889 0
 3390 0f5c FB78     		ldrb	r3, [r7, #3]	@ zero_extendqisi2
 3391 0f5e 8E48     		ldr	r0, .L142+4
 3392 0f60 0121     		movs	r1, #1
 3393 0f62 1A46     		mov	r2, r3
 3394 0f64 FFF7FEFF 		bl	WriteAuxPSoC
 890:.\PrinterBLL.c ****         #endif
 891:.\PrinterBLL.c ****         index += 0x07;
 3395              		.loc 1 891 0
 3396 0f68 FB7F     		ldrb	r3, [r7, #31]
 3397 0f6a 0733     		adds	r3, r3, #7
 3398 0f6c FB77     		strb	r3, [r7, #31]
 892:.\PrinterBLL.c **** 
 893:.\PrinterBLL.c ****         //Account Type (16 bytes)
 894:.\PrinterBLL.c ****         prefstr = GetPrinterTemplateLine(PRN_ACCOUNTTYPE);
 3399              		.loc 1 894 0
 3400 0f6e 1420     		movs	r0, #20
 3401 0f70 FFF7FEFF 		bl	GetPrinterTemplateLine
 3402 0f74 B861     		str	r0, [r7, #24]
 895:.\PrinterBLL.c ****         //output data left aligned
 896:.\PrinterBLL.c ****         WriteAuxPSoC((PNEAR_BYTE_PTR)prefstr, strlen(prefstr), printerport);
 3403              		.loc 1 896 0
 3404 0f76 B869     		ldr	r0, [r7, #24]
 3405 0f78 FFF7FEFF 		bl	strlen
 3406 0f7c 0346     		mov	r3, r0
 3407 0f7e 9AB2     		uxth	r2, r3
 3408 0f80 FB78     		ldrb	r3, [r7, #3]	@ zero_extendqisi2
 3409 0f82 B869     		ldr	r0, [r7, #24]
 3410 0f84 1146     		mov	r1, r2
 3411 0f86 1A46     		mov	r2, r3
 3412 0f88 FFF7FEFF 		bl	WriteAuxPSoC
 897:.\PrinterBLL.c ****         WriteAuxPSoC((PNEAR_BYTE_PTR)&pmsg->_buffer[index], 0x0F, printerport);
 3413              		.loc 1 897 0
 3414 0f8c FB7F     		ldrb	r3, [r7, #31]	@ zero_extendqisi2
 3415 0f8e 0833     		adds	r3, r3, #8
ARM GAS  C:\Users\RECEPC~1\AppData\Local\Temp\cc0bMLA1.s 			page 77


 3416 0f90 7A68     		ldr	r2, [r7, #4]
 3417 0f92 1344     		add	r3, r3, r2
 3418 0f94 1A1D     		adds	r2, r3, #4
 3419 0f96 FB78     		ldrb	r3, [r7, #3]	@ zero_extendqisi2
 3420 0f98 1046     		mov	r0, r2
 3421 0f9a 0F21     		movs	r1, #15
 3422 0f9c 1A46     		mov	r2, r3
 3423 0f9e FFF7FEFF 		bl	WriteAuxPSoC
 898:.\PrinterBLL.c ****         //line feed 
 899:.\PrinterBLL.c ****         PRINTER_LINEFEED(printerport);
 3424              		.loc 1 899 0
 3425 0fa2 FB78     		ldrb	r3, [r7, #3]	@ zero_extendqisi2
 3426 0fa4 7B48     		ldr	r0, .L142
 3427 0fa6 0121     		movs	r1, #1
 3428 0fa8 1A46     		mov	r2, r3
 3429 0faa FFF7FEFF 		bl	WriteAuxPSoC
 900:.\PrinterBLL.c ****         #ifdef PRINTER_TYPE_PANEL
 901:.\PrinterBLL.c ****         PRINTER_INDENTLINE(_LEFT_MARGIN_, printerport);
 3430              		.loc 1 901 0
 3431 0fae FB78     		ldrb	r3, [r7, #3]	@ zero_extendqisi2
 3432 0fb0 7948     		ldr	r0, .L142+4
 3433 0fb2 0121     		movs	r1, #1
 3434 0fb4 1A46     		mov	r2, r3
 3435 0fb6 FFF7FEFF 		bl	WriteAuxPSoC
 902:.\PrinterBLL.c ****         #endif
 903:.\PrinterBLL.c ****         index += 0x0F;
 3436              		.loc 1 903 0
 3437 0fba FB7F     		ldrb	r3, [r7, #31]
 3438 0fbc 0F33     		adds	r3, r3, #15
 3439 0fbe FB77     		strb	r3, [r7, #31]
 904:.\PrinterBLL.c ****         PRINTER_LINEFEED(printerport);
 3440              		.loc 1 904 0
 3441 0fc0 FB78     		ldrb	r3, [r7, #3]	@ zero_extendqisi2
 3442 0fc2 7448     		ldr	r0, .L142
 3443 0fc4 0121     		movs	r1, #1
 3444 0fc6 1A46     		mov	r2, r3
 3445 0fc8 FFF7FEFF 		bl	WriteAuxPSoC
 905:.\PrinterBLL.c ****         prefstr = GetPrinterTemplateLine(PRN_SIGNATURE);
 3446              		.loc 1 905 0
 3447 0fcc 1A20     		movs	r0, #26
 3448 0fce FFF7FEFF 		bl	GetPrinterTemplateLine
 3449 0fd2 B861     		str	r0, [r7, #24]
 906:.\PrinterBLL.c ****         WriteAuxPSoC((PNEAR_BYTE_PTR)prefstr, strlen(prefstr), printerport);
 3450              		.loc 1 906 0
 3451 0fd4 B869     		ldr	r0, [r7, #24]
 3452 0fd6 FFF7FEFF 		bl	strlen
 3453 0fda 0346     		mov	r3, r0
 3454 0fdc 9AB2     		uxth	r2, r3
 3455 0fde FB78     		ldrb	r3, [r7, #3]	@ zero_extendqisi2
 3456 0fe0 B869     		ldr	r0, [r7, #24]
 3457 0fe2 1146     		mov	r1, r2
 3458 0fe4 1A46     		mov	r2, r3
 3459 0fe6 FFF7FEFF 		bl	WriteAuxPSoC
 907:.\PrinterBLL.c ****         PRINTER_LINEFEED(printerport);
 3460              		.loc 1 907 0
 3461 0fea FB78     		ldrb	r3, [r7, #3]	@ zero_extendqisi2
 3462 0fec 6948     		ldr	r0, .L142
ARM GAS  C:\Users\RECEPC~1\AppData\Local\Temp\cc0bMLA1.s 			page 78


 3463 0fee 0121     		movs	r1, #1
 3464 0ff0 1A46     		mov	r2, r3
 3465 0ff2 FFF7FEFF 		bl	WriteAuxPSoC
 908:.\PrinterBLL.c ****         PRINTER_LINEFEED(printerport);
 3466              		.loc 1 908 0
 3467 0ff6 FB78     		ldrb	r3, [r7, #3]	@ zero_extendqisi2
 3468 0ff8 6648     		ldr	r0, .L142
 3469 0ffa 0121     		movs	r1, #1
 3470 0ffc 1A46     		mov	r2, r3
 3471 0ffe FFF7FEFF 		bl	WriteAuxPSoC
 909:.\PrinterBLL.c ****         prefstr = GetPrinterTemplateLine(PRN_ID);
 3472              		.loc 1 909 0
 3473 1002 1920     		movs	r0, #25
 3474 1004 FFF7FEFF 		bl	GetPrinterTemplateLine
 3475 1008 B861     		str	r0, [r7, #24]
 910:.\PrinterBLL.c ****         WriteAuxPSoC((PNEAR_BYTE_PTR)prefstr, strlen(prefstr), printerport);
 3476              		.loc 1 910 0
 3477 100a B869     		ldr	r0, [r7, #24]
 3478 100c FFF7FEFF 		bl	strlen
 3479 1010 0346     		mov	r3, r0
 3480 1012 9AB2     		uxth	r2, r3
 3481 1014 FB78     		ldrb	r3, [r7, #3]	@ zero_extendqisi2
 3482 1016 B869     		ldr	r0, [r7, #24]
 3483 1018 1146     		mov	r1, r2
 3484 101a 1A46     		mov	r2, r3
 3485 101c FFF7FEFF 		bl	WriteAuxPSoC
 911:.\PrinterBLL.c ****         PRINTER_LINEFEED(printerport);
 3486              		.loc 1 911 0
 3487 1020 FB78     		ldrb	r3, [r7, #3]	@ zero_extendqisi2
 3488 1022 5C48     		ldr	r0, .L142
 3489 1024 0121     		movs	r1, #1
 3490 1026 1A46     		mov	r2, r3
 3491 1028 FFF7FEFF 		bl	WriteAuxPSoC
 912:.\PrinterBLL.c ****         PRINTER_LINEFEED(printerport);
 3492              		.loc 1 912 0
 3493 102c FB78     		ldrb	r3, [r7, #3]	@ zero_extendqisi2
 3494 102e 5948     		ldr	r0, .L142
 3495 1030 0121     		movs	r1, #1
 3496 1032 1A46     		mov	r2, r3
 3497 1034 FFF7FEFF 		bl	WriteAuxPSoC
 3498              	.L120:
 3499              	.LBE13:
 913:.\PrinterBLL.c ****     }
 914:.\PrinterBLL.c ****     
 915:.\PrinterBLL.c ****     //line separator
 916:.\PrinterBLL.c ****     PRINTER_SEPARATOR(printerport);
 3500              		.loc 1 916 0
 3501 1038 FB78     		ldrb	r3, [r7, #3]	@ zero_extendqisi2
 3502 103a 5648     		ldr	r0, .L142
 3503 103c 0121     		movs	r1, #1
 3504 103e 1A46     		mov	r2, r3
 3505 1040 FFF7FEFF 		bl	WriteAuxPSoC
 3506 1044 FB78     		ldrb	r3, [r7, #3]	@ zero_extendqisi2
 3507 1046 5548     		ldr	r0, .L142+8
 3508 1048 1F21     		movs	r1, #31
 3509 104a 1A46     		mov	r2, r3
 3510 104c FFF7FEFF 		bl	WriteAuxPSoC
ARM GAS  C:\Users\RECEPC~1\AppData\Local\Temp\cc0bMLA1.s 			page 79


 3511 1050 FB78     		ldrb	r3, [r7, #3]	@ zero_extendqisi2
 3512 1052 5048     		ldr	r0, .L142
 3513 1054 0121     		movs	r1, #1
 3514 1056 1A46     		mov	r2, r3
 3515 1058 FFF7FEFF 		bl	WriteAuxPSoC
 917:.\PrinterBLL.c ****     
 918:.\PrinterBLL.c ****     //PRINT FOOTER1
 919:.\PrinterBLL.c ****     ClearEepromBuffer();
 3516              		.loc 1 919 0
 3517 105c FFF7FEFF 		bl	ClearEepromBuffer
 920:.\PrinterBLL.c ****     //Cleanup of the pump identifier in order to start the enumeration procedure
 921:.\PrinterBLL.c ****     LoadEepromPage(EEPROM_CONFIGURATION_PAGE2);
 3518              		.loc 1 921 0
 3519 1060 8020     		movs	r0, #128
 3520 1062 FFF7FEFF 		bl	LoadEepromPage
 922:.\PrinterBLL.c ****     bufferlength = MeasurePrinterASCIIBufferLength(&GetEepromBuffer()[_EEPROM_PAGE_SECOND32START_])
 3521              		.loc 1 922 0
 3522 1066 FFF7FEFF 		bl	GetEepromBuffer
 3523 106a 0346     		mov	r3, r0
 3524 106c 2033     		adds	r3, r3, #32
 3525 106e 1846     		mov	r0, r3
 3526 1070 FFF7FEFF 		bl	MeasurePrinterASCIIBufferLength
 3527 1074 0346     		mov	r3, r0
 3528 1076 3B75     		strb	r3, [r7, #20]
 923:.\PrinterBLL.c ****     padspaces = PadSpacesToCenter(bufferlength);
 3529              		.loc 1 923 0
 3530 1078 3B7D     		ldrb	r3, [r7, #20]	@ zero_extendqisi2
 3531 107a 1846     		mov	r0, r3
 3532 107c FFF7FEFF 		bl	PadSpacesToCenter
 3533 1080 0346     		mov	r3, r0
 3534 1082 7B75     		strb	r3, [r7, #21]
 924:.\PrinterBLL.c ****     //Pad spaces to center
 925:.\PrinterBLL.c ****     PRINTER_INDENTLINE(padspaces, printerport);
 3535              		.loc 1 925 0
 3536 1084 7B7D     		ldrb	r3, [r7, #21]	@ zero_extendqisi2
 3537 1086 9AB2     		uxth	r2, r3
 3538 1088 FB78     		ldrb	r3, [r7, #3]	@ zero_extendqisi2
 3539 108a 4348     		ldr	r0, .L142+4
 3540 108c 1146     		mov	r1, r2
 3541 108e 1A46     		mov	r2, r3
 3542 1090 FFF7FEFF 		bl	WriteAuxPSoC
 926:.\PrinterBLL.c ****     //output text
 927:.\PrinterBLL.c ****     WriteAuxPSoC(&GetEepromBuffer()[_EEPROM_PAGE_SECOND32START_], bufferlength, printerport);
 3543              		.loc 1 927 0
 3544 1094 FFF7FEFF 		bl	GetEepromBuffer
 3545 1098 0346     		mov	r3, r0
 3546 109a 03F12001 		add	r1, r3, #32
 3547 109e 3B7D     		ldrb	r3, [r7, #20]	@ zero_extendqisi2
 3548 10a0 9AB2     		uxth	r2, r3
 3549 10a2 FB78     		ldrb	r3, [r7, #3]	@ zero_extendqisi2
 3550 10a4 0846     		mov	r0, r1
 3551 10a6 1146     		mov	r1, r2
 3552 10a8 1A46     		mov	r2, r3
 3553 10aa FFF7FEFF 		bl	WriteAuxPSoC
 928:.\PrinterBLL.c ****     //line feed 
 929:.\PrinterBLL.c ****     PRINTER_LINEFEED(printerport);
 3554              		.loc 1 929 0
ARM GAS  C:\Users\RECEPC~1\AppData\Local\Temp\cc0bMLA1.s 			page 80


 3555 10ae FB78     		ldrb	r3, [r7, #3]	@ zero_extendqisi2
 3556 10b0 3848     		ldr	r0, .L142
 3557 10b2 0121     		movs	r1, #1
 3558 10b4 1A46     		mov	r2, r3
 3559 10b6 FFF7FEFF 		bl	WriteAuxPSoC
 930:.\PrinterBLL.c **** 
 931:.\PrinterBLL.c ****     ClearEepromBuffer();
 3560              		.loc 1 931 0
 3561 10ba FFF7FEFF 		bl	ClearEepromBuffer
 932:.\PrinterBLL.c ****     //Cleanup of the pump identifier in order to start the enumeration procedure
 933:.\PrinterBLL.c ****     LoadEepromPage(EEPROM_CONFIGURATION_PAGE3);
 3562              		.loc 1 933 0
 3563 10be C020     		movs	r0, #192
 3564 10c0 FFF7FEFF 		bl	LoadEepromPage
 934:.\PrinterBLL.c ****     bufferlength = MeasurePrinterASCIIBufferLength(&GetEepromBuffer()[_EEPROM_PAGE_FIRST32START_]);
 3565              		.loc 1 934 0
 3566 10c4 FFF7FEFF 		bl	GetEepromBuffer
 3567 10c8 0346     		mov	r3, r0
 3568 10ca 1846     		mov	r0, r3
 3569 10cc FFF7FEFF 		bl	MeasurePrinterASCIIBufferLength
 3570 10d0 0346     		mov	r3, r0
 3571 10d2 3B75     		strb	r3, [r7, #20]
 935:.\PrinterBLL.c ****     padspaces = PadSpacesToCenter(bufferlength);
 3572              		.loc 1 935 0
 3573 10d4 3B7D     		ldrb	r3, [r7, #20]	@ zero_extendqisi2
 3574 10d6 1846     		mov	r0, r3
 3575 10d8 FFF7FEFF 		bl	PadSpacesToCenter
 3576 10dc 0346     		mov	r3, r0
 3577 10de 7B75     		strb	r3, [r7, #21]
 936:.\PrinterBLL.c ****     //Pad spaces to center
 937:.\PrinterBLL.c ****     PRINTER_INDENTLINE(padspaces, printerport);
 3578              		.loc 1 937 0
 3579 10e0 7B7D     		ldrb	r3, [r7, #21]	@ zero_extendqisi2
 3580 10e2 9AB2     		uxth	r2, r3
 3581 10e4 FB78     		ldrb	r3, [r7, #3]	@ zero_extendqisi2
 3582 10e6 2C48     		ldr	r0, .L142+4
 3583 10e8 1146     		mov	r1, r2
 3584 10ea 1A46     		mov	r2, r3
 3585 10ec FFF7FEFF 		bl	WriteAuxPSoC
 938:.\PrinterBLL.c ****     //output text
 939:.\PrinterBLL.c ****     WriteAuxPSoC(&GetEepromBuffer()[_EEPROM_PAGE_FIRST32START_], bufferlength, printerport);
 3586              		.loc 1 939 0
 3587 10f0 FFF7FEFF 		bl	GetEepromBuffer
 3588 10f4 0146     		mov	r1, r0
 3589 10f6 3B7D     		ldrb	r3, [r7, #20]	@ zero_extendqisi2
 3590 10f8 9AB2     		uxth	r2, r3
 3591 10fa FB78     		ldrb	r3, [r7, #3]	@ zero_extendqisi2
 3592 10fc 0846     		mov	r0, r1
 3593 10fe 1146     		mov	r1, r2
 3594 1100 1A46     		mov	r2, r3
 3595 1102 FFF7FEFF 		bl	WriteAuxPSoC
 940:.\PrinterBLL.c ****     //line feed 
 941:.\PrinterBLL.c ****     PRINTER_LINEFEED(printerport);
 3596              		.loc 1 941 0
 3597 1106 FB78     		ldrb	r3, [r7, #3]	@ zero_extendqisi2
 3598 1108 2248     		ldr	r0, .L142
 3599 110a 0121     		movs	r1, #1
ARM GAS  C:\Users\RECEPC~1\AppData\Local\Temp\cc0bMLA1.s 			page 81


 3600 110c 1A46     		mov	r2, r3
 3601 110e FFF7FEFF 		bl	WriteAuxPSoC
 942:.\PrinterBLL.c ****     
 943:.\PrinterBLL.c ****     bufferlength = MeasurePrinterASCIIBufferLength(&GetEepromBuffer()[_EEPROM_PAGE_SECOND32START_])
 3602              		.loc 1 943 0
 3603 1112 FFF7FEFF 		bl	GetEepromBuffer
 3604 1116 0346     		mov	r3, r0
 3605 1118 2033     		adds	r3, r3, #32
 3606 111a 1846     		mov	r0, r3
 3607 111c FFF7FEFF 		bl	MeasurePrinterASCIIBufferLength
 3608 1120 0346     		mov	r3, r0
 3609 1122 3B75     		strb	r3, [r7, #20]
 944:.\PrinterBLL.c ****     padspaces = PadSpacesToCenter(bufferlength);
 3610              		.loc 1 944 0
 3611 1124 3B7D     		ldrb	r3, [r7, #20]	@ zero_extendqisi2
 3612 1126 1846     		mov	r0, r3
 3613 1128 FFF7FEFF 		bl	PadSpacesToCenter
 3614 112c 0346     		mov	r3, r0
 3615 112e 7B75     		strb	r3, [r7, #21]
 945:.\PrinterBLL.c ****     //Pad spaces to center
 946:.\PrinterBLL.c ****     PRINTER_INDENTLINE(padspaces, printerport);
 3616              		.loc 1 946 0
 3617 1130 7B7D     		ldrb	r3, [r7, #21]	@ zero_extendqisi2
 3618 1132 9AB2     		uxth	r2, r3
 3619 1134 FB78     		ldrb	r3, [r7, #3]	@ zero_extendqisi2
 3620 1136 1848     		ldr	r0, .L142+4
 3621 1138 1146     		mov	r1, r2
 3622 113a 1A46     		mov	r2, r3
 3623 113c FFF7FEFF 		bl	WriteAuxPSoC
 947:.\PrinterBLL.c ****     //output text
 948:.\PrinterBLL.c ****     WriteAuxPSoC(&GetEepromBuffer()[_EEPROM_PAGE_SECOND32START_], bufferlength, printerport);
 3624              		.loc 1 948 0
 3625 1140 FFF7FEFF 		bl	GetEepromBuffer
 3626 1144 0346     		mov	r3, r0
 3627 1146 03F12001 		add	r1, r3, #32
 3628 114a 3B7D     		ldrb	r3, [r7, #20]	@ zero_extendqisi2
 3629 114c 9AB2     		uxth	r2, r3
 3630 114e FB78     		ldrb	r3, [r7, #3]	@ zero_extendqisi2
 3631 1150 0846     		mov	r0, r1
 3632 1152 1146     		mov	r1, r2
 3633 1154 1A46     		mov	r2, r3
 3634 1156 FFF7FEFF 		bl	WriteAuxPSoC
 949:.\PrinterBLL.c ****     //line feed 
 950:.\PrinterBLL.c ****     PRINTER_LINEFEED(printerport);
 3635              		.loc 1 950 0
 3636 115a FB78     		ldrb	r3, [r7, #3]	@ zero_extendqisi2
 3637 115c 0D48     		ldr	r0, .L142
 3638 115e 0121     		movs	r1, #1
 3639 1160 1A46     		mov	r2, r3
 3640 1162 FFF7FEFF 		bl	WriteAuxPSoC
 951:.\PrinterBLL.c ****     //line feed 
 952:.\PrinterBLL.c ****     PRINTER_LINEFEED(printerport);
 3641              		.loc 1 952 0
 3642 1166 FB78     		ldrb	r3, [r7, #3]	@ zero_extendqisi2
 3643 1168 0A48     		ldr	r0, .L142
 3644 116a 0121     		movs	r1, #1
 3645 116c 1A46     		mov	r2, r3
ARM GAS  C:\Users\RECEPC~1\AppData\Local\Temp\cc0bMLA1.s 			page 82


 3646 116e FFF7FEFF 		bl	WriteAuxPSoC
 953:.\PrinterBLL.c ****     //line feed 
 954:.\PrinterBLL.c ****     PRINTER_LINEFEED(printerport);
 3647              		.loc 1 954 0
 3648 1172 FB78     		ldrb	r3, [r7, #3]	@ zero_extendqisi2
 3649 1174 0748     		ldr	r0, .L142
 3650 1176 0121     		movs	r1, #1
 3651 1178 1A46     		mov	r2, r3
 3652 117a FFF7FEFF 		bl	WriteAuxPSoC
 955:.\PrinterBLL.c ****     //line feed 
 956:.\PrinterBLL.c ****     PRINTER_LINEFEED(printerport);
 3653              		.loc 1 956 0
 3654 117e FB78     		ldrb	r3, [r7, #3]	@ zero_extendqisi2
 3655 1180 0448     		ldr	r0, .L142
 3656 1182 0121     		movs	r1, #1
 3657 1184 1A46     		mov	r2, r3
 3658 1186 FFF7FEFF 		bl	WriteAuxPSoC
 957:.\PrinterBLL.c ****     
 958:.\PrinterBLL.c ****     #ifdef PRINTER_TYPE_KIOSK
 959:.\PrinterBLL.c ****         //Auto cut command
 960:.\PrinterBLL.c ****         PRINTER_AUTOCUT(printerport);
 961:.\PrinterBLL.c ****         CyDelay(100);//To allow for the cutter to work
 962:.\PrinterBLL.c ****         PRINTER_RESET(printerport);        
 963:.\PrinterBLL.c ****     #endif
 964:.\PrinterBLL.c ****         
 965:.\PrinterBLL.c ****     I2CBusUnlock();
 3659              		.loc 1 965 0
 3660 118a FFF7FEFF 		bl	I2CBusUnlock
 966:.\PrinterBLL.c **** 
 967:.\PrinterBLL.c **** }
 3661              		.loc 1 967 0
 3662 118e 2437     		adds	r7, r7, #36
 3663              		.cfi_def_cfa_offset 12
 3664 1190 BD46     		mov	sp, r7
 3665              		.cfi_def_cfa_register 13
 3666              		@ sp needed
 3667 1192 90BD     		pop	{r4, r7, pc}
 3668              	.L143:
 3669              		.align	2
 3670              	.L142:
 3671 1194 00000000 		.word	_g_linefeed
 3672 1198 00000000 		.word	_g_padcharacters
 3673 119c 00000000 		.word	_g_separator
 3674              		.cfi_endproc
 3675              	.LFE13:
 3676              		.size	Print, .-Print
 3677              		.section	.text.PrintGeneric,"ax",%progbits
 3678              		.align	2
 3679              		.global	PrintGeneric
 3680              		.thumb
 3681              		.thumb_func
 3682              		.type	PrintGeneric, %function
 3683              	PrintGeneric:
 3684              	.LFB14:
 968:.\PrinterBLL.c **** 
 969:.\PrinterBLL.c **** void PrintGeneric(PSINKMESSAGEPTR pmsg, uint8 printerport)
 970:.\PrinterBLL.c **** {
ARM GAS  C:\Users\RECEPC~1\AppData\Local\Temp\cc0bMLA1.s 			page 83


 3685              		.loc 1 970 0
 3686              		.cfi_startproc
 3687              		@ args = 0, pretend = 0, frame = 8
 3688              		@ frame_needed = 1, uses_anonymous_args = 0
 3689 0000 80B5     		push	{r7, lr}
 3690              		.cfi_def_cfa_offset 8
 3691              		.cfi_offset 7, -8
 3692              		.cfi_offset 14, -4
 3693 0002 82B0     		sub	sp, sp, #8
 3694              		.cfi_def_cfa_offset 16
 3695 0004 00AF     		add	r7, sp, #0
 3696              		.cfi_def_cfa_register 7
 3697 0006 7860     		str	r0, [r7, #4]
 3698 0008 0B46     		mov	r3, r1
 3699 000a FB70     		strb	r3, [r7, #3]
 971:.\PrinterBLL.c ****     //line feed 
 972:.\PrinterBLL.c ****     PRINTER_LINEFEED(printerport);
 3700              		.loc 1 972 0
 3701 000c FB78     		ldrb	r3, [r7, #3]	@ zero_extendqisi2
 3702 000e 0C48     		ldr	r0, .L145
 3703 0010 0121     		movs	r1, #1
 3704 0012 1A46     		mov	r2, r3
 3705 0014 FFF7FEFF 		bl	WriteAuxPSoC
 973:.\PrinterBLL.c ****     
 974:.\PrinterBLL.c ****     //CAREFUL WITH RETURNS AND RECURSIVE CALLS BETWEEN THE LOCK/UNLOCK CALLS THAT WOULD DEADLOCK!
 975:.\PrinterBLL.c ****     I2CBusLock();
 3706              		.loc 1 975 0
 3707 0018 FFF7FEFF 		bl	I2CBusLock
 976:.\PrinterBLL.c ****     WriteAuxPSoC((PNEAR_BYTE_PTR)&pmsg->_buffer[0x01], pmsg->_buffersize, printerport);    
 3708              		.loc 1 976 0
 3709 001c 7B68     		ldr	r3, [r7, #4]
 3710 001e 03F10D01 		add	r1, r3, #13
 3711 0022 7B68     		ldr	r3, [r7, #4]
 3712 0024 B3F88C31 		ldrh	r3, [r3, #396]	@ movhi
 3713 0028 9AB2     		uxth	r2, r3
 3714 002a FB78     		ldrb	r3, [r7, #3]	@ zero_extendqisi2
 3715 002c 0846     		mov	r0, r1
 3716 002e 1146     		mov	r1, r2
 3717 0030 1A46     		mov	r2, r3
 3718 0032 FFF7FEFF 		bl	WriteAuxPSoC
 977:.\PrinterBLL.c ****     
 978:.\PrinterBLL.c ****     #ifdef PRINTER_KIOSK_AUTOCUT
 979:.\PrinterBLL.c ****         //Auto cut command
 980:.\PrinterBLL.c ****         PRINTER_AUTOCUT(printerport);
 981:.\PrinterBLL.c ****         CyDelay(500);//To allow for the cutter to work
 982:.\PrinterBLL.c ****     #endif
 983:.\PrinterBLL.c ****         
 984:.\PrinterBLL.c ****     I2CBusUnlock();
 3719              		.loc 1 984 0
 3720 0036 FFF7FEFF 		bl	I2CBusUnlock
 985:.\PrinterBLL.c **** }
 3721              		.loc 1 985 0
 3722 003a 0837     		adds	r7, r7, #8
 3723              		.cfi_def_cfa_offset 8
 3724 003c BD46     		mov	sp, r7
 3725              		.cfi_def_cfa_register 13
 3726              		@ sp needed
ARM GAS  C:\Users\RECEPC~1\AppData\Local\Temp\cc0bMLA1.s 			page 84


 3727 003e 80BD     		pop	{r7, pc}
 3728              	.L146:
 3729              		.align	2
 3730              	.L145:
 3731 0040 00000000 		.word	_g_linefeed
 3732              		.cfi_endproc
 3733              	.LFE14:
 3734              		.size	PrintGeneric, .-PrintGeneric
 3735              		.text
 3736              	.Letext0:
 3737              		.file 2 "Generated_Source\\PSoC5/cytypes.h"
 3738              		.file 3 ".\\SinkManager.h"
 3739              		.file 4 ".\\Prime.h"
 3740              		.file 5 ".\\Display.h"
 3741              		.file 6 ".\\Eeprom.h"
 3742              		.file 7 ".\\Printer.h"
 3743              		.file 8 ".\\GlobalDefinitions.h"
 3744              		.file 9 ".\\Rtc.h"
 3745              		.section	.debug_info,"",%progbits
 3746              	.Ldebug_info0:
 3747 0000 070C0000 		.4byte	0xc07
 3748 0004 0400     		.2byte	0x4
 3749 0006 00000000 		.4byte	.Ldebug_abbrev0
 3750 000a 04       		.byte	0x4
 3751 000b 01       		.uleb128 0x1
 3752 000c 150B0000 		.4byte	.LASF238
 3753 0010 01       		.byte	0x1
 3754 0011 EA050000 		.4byte	.LASF239
 3755 0015 A80C0000 		.4byte	.LASF240
 3756 0019 60000000 		.4byte	.Ldebug_ranges0+0x60
 3757 001d 00000000 		.4byte	0
 3758 0021 00000000 		.4byte	.Ldebug_line0
 3759 0025 02       		.uleb128 0x2
 3760 0026 01       		.byte	0x1
 3761 0027 06       		.byte	0x6
 3762 0028 D0000000 		.4byte	.LASF0
 3763 002c 02       		.uleb128 0x2
 3764 002d 01       		.byte	0x1
 3765 002e 08       		.byte	0x8
 3766 002f 410D0000 		.4byte	.LASF1
 3767 0033 02       		.uleb128 0x2
 3768 0034 02       		.byte	0x2
 3769 0035 05       		.byte	0x5
 3770 0036 85080000 		.4byte	.LASF2
 3771 003a 02       		.uleb128 0x2
 3772 003b 02       		.byte	0x2
 3773 003c 07       		.byte	0x7
 3774 003d 82070000 		.4byte	.LASF3
 3775 0041 02       		.uleb128 0x2
 3776 0042 04       		.byte	0x4
 3777 0043 05       		.byte	0x5
 3778 0044 39040000 		.4byte	.LASF4
 3779 0048 02       		.uleb128 0x2
 3780 0049 04       		.byte	0x4
 3781 004a 07       		.byte	0x7
 3782 004b B6060000 		.4byte	.LASF5
 3783 004f 02       		.uleb128 0x2
ARM GAS  C:\Users\RECEPC~1\AppData\Local\Temp\cc0bMLA1.s 			page 85


 3784 0050 08       		.byte	0x8
 3785 0051 05       		.byte	0x5
 3786 0052 95070000 		.4byte	.LASF6
 3787 0056 02       		.uleb128 0x2
 3788 0057 08       		.byte	0x8
 3789 0058 07       		.byte	0x7
 3790 0059 BF010000 		.4byte	.LASF7
 3791 005d 03       		.uleb128 0x3
 3792 005e 04       		.byte	0x4
 3793 005f 05       		.byte	0x5
 3794 0060 696E7400 		.ascii	"int\000"
 3795 0064 02       		.uleb128 0x2
 3796 0065 04       		.byte	0x4
 3797 0066 07       		.byte	0x7
 3798 0067 34060000 		.4byte	.LASF8
 3799 006b 04       		.uleb128 0x4
 3800 006c B4040000 		.4byte	.LASF9
 3801 0070 02       		.byte	0x2
 3802 0071 3801     		.2byte	0x138
 3803 0073 2C000000 		.4byte	0x2c
 3804 0077 04       		.uleb128 0x4
 3805 0078 0B000000 		.4byte	.LASF10
 3806 007c 02       		.byte	0x2
 3807 007d 3901     		.2byte	0x139
 3808 007f 3A000000 		.4byte	0x3a
 3809 0083 02       		.uleb128 0x2
 3810 0084 04       		.byte	0x4
 3811 0085 04       		.byte	0x4
 3812 0086 170C0000 		.4byte	.LASF11
 3813 008a 02       		.uleb128 0x2
 3814 008b 08       		.byte	0x8
 3815 008c 04       		.byte	0x4
 3816 008d 1A130000 		.4byte	.LASF12
 3817 0091 04       		.uleb128 0x4
 3818 0092 A30F0000 		.4byte	.LASF13
 3819 0096 02       		.byte	0x2
 3820 0097 4901     		.2byte	0x149
 3821 0099 9D000000 		.4byte	0x9d
 3822 009d 02       		.uleb128 0x2
 3823 009e 01       		.byte	0x1
 3824 009f 08       		.byte	0x8
 3825 00a0 460F0000 		.4byte	.LASF14
 3826 00a4 05       		.uleb128 0x5
 3827 00a5 6B000000 		.4byte	0x6b
 3828 00a9 05       		.uleb128 0x5
 3829 00aa 77000000 		.4byte	0x77
 3830 00ae 02       		.uleb128 0x2
 3831 00af 04       		.byte	0x4
 3832 00b0 07       		.byte	0x7
 3833 00b1 A0090000 		.4byte	.LASF15
 3834 00b5 06       		.uleb128 0x6
 3835 00b6 04       		.byte	0x4
 3836 00b7 07       		.uleb128 0x7
 3837 00b8 04       		.byte	0x4
 3838 00b9 9D000000 		.4byte	0x9d
 3839 00bd 02       		.uleb128 0x2
 3840 00be 08       		.byte	0x8
ARM GAS  C:\Users\RECEPC~1\AppData\Local\Temp\cc0bMLA1.s 			page 86


 3841 00bf 04       		.byte	0x4
 3842 00c0 2D050000 		.4byte	.LASF16
 3843 00c4 08       		.uleb128 0x8
 3844 00c5 510E0000 		.4byte	.LASF241
 3845 00c9 9801     		.2byte	0x198
 3846 00cb 03       		.byte	0x3
 3847 00cc 53       		.byte	0x53
 3848 00cd 65010000 		.4byte	0x165
 3849 00d1 09       		.uleb128 0x9
 3850 00d2 990A0000 		.4byte	.LASF17
 3851 00d6 03       		.byte	0x3
 3852 00d7 55       		.byte	0x55
 3853 00d8 65010000 		.4byte	0x165
 3854 00dc 00       		.byte	0
 3855 00dd 09       		.uleb128 0x9
 3856 00de 26010000 		.4byte	.LASF18
 3857 00e2 03       		.byte	0x3
 3858 00e3 56       		.byte	0x56
 3859 00e4 A4000000 		.4byte	0xa4
 3860 00e8 01       		.byte	0x1
 3861 00e9 09       		.uleb128 0x9
 3862 00ea D1100000 		.4byte	.LASF19
 3863 00ee 03       		.byte	0x3
 3864 00ef 57       		.byte	0x57
 3865 00f0 A4000000 		.4byte	0xa4
 3866 00f4 02       		.byte	0x2
 3867 00f5 09       		.uleb128 0x9
 3868 00f6 1D0C0000 		.4byte	.LASF20
 3869 00fa 03       		.byte	0x3
 3870 00fb 58       		.byte	0x58
 3871 00fc A4000000 		.4byte	0xa4
 3872 0100 03       		.byte	0x3
 3873 0101 09       		.uleb128 0x9
 3874 0102 0F070000 		.4byte	.LASF21
 3875 0106 03       		.byte	0x3
 3876 0107 5A       		.byte	0x5a
 3877 0108 A9000000 		.4byte	0xa9
 3878 010c 04       		.byte	0x4
 3879 010d 09       		.uleb128 0x9
 3880 010e 3C080000 		.4byte	.LASF22
 3881 0112 03       		.byte	0x3
 3882 0113 5B       		.byte	0x5b
 3883 0114 A9000000 		.4byte	0xa9
 3884 0118 06       		.byte	0x6
 3885 0119 09       		.uleb128 0x9
 3886 011a EE090000 		.4byte	.LASF23
 3887 011e 03       		.byte	0x3
 3888 011f 5C       		.byte	0x5c
 3889 0120 A9000000 		.4byte	0xa9
 3890 0124 08       		.byte	0x8
 3891 0125 09       		.uleb128 0x9
 3892 0126 D9040000 		.4byte	.LASF24
 3893 012a 03       		.byte	0x3
 3894 012b 5D       		.byte	0x5d
 3895 012c A9000000 		.4byte	0xa9
 3896 0130 0A       		.byte	0xa
 3897 0131 09       		.uleb128 0x9
ARM GAS  C:\Users\RECEPC~1\AppData\Local\Temp\cc0bMLA1.s 			page 87


 3898 0132 D1040000 		.4byte	.LASF25
 3899 0136 03       		.byte	0x3
 3900 0137 5E       		.byte	0x5e
 3901 0138 71010000 		.4byte	0x171
 3902 013c 0C       		.byte	0xc
 3903 013d 0A       		.uleb128 0xa
 3904 013e 82030000 		.4byte	.LASF26
 3905 0142 03       		.byte	0x3
 3906 0143 5F       		.byte	0x5f
 3907 0144 A9000000 		.4byte	0xa9
 3908 0148 8C01     		.2byte	0x18c
 3909 014a 0A       		.uleb128 0xa
 3910 014b 960D0000 		.4byte	.LASF27
 3911 014f 03       		.byte	0x3
 3912 0150 62       		.byte	0x62
 3913 0151 B5000000 		.4byte	0xb5
 3914 0155 9001     		.2byte	0x190
 3915 0157 0A       		.uleb128 0xa
 3916 0158 A9000000 		.4byte	.LASF28
 3917 015c 03       		.byte	0x3
 3918 015d 63       		.byte	0x63
 3919 015e 8D010000 		.4byte	0x18d
 3920 0162 9401     		.2byte	0x194
 3921 0164 00       		.byte	0
 3922 0165 05       		.uleb128 0x5
 3923 0166 6A010000 		.4byte	0x16a
 3924 016a 02       		.uleb128 0x2
 3925 016b 01       		.byte	0x1
 3926 016c 02       		.byte	0x2
 3927 016d 2C0D0000 		.4byte	.LASF29
 3928 0171 0B       		.uleb128 0xb
 3929 0172 91000000 		.4byte	0x91
 3930 0176 82010000 		.4byte	0x182
 3931 017a 0C       		.uleb128 0xc
 3932 017b AE000000 		.4byte	0xae
 3933 017f 7F01     		.2byte	0x17f
 3934 0181 00       		.byte	0
 3935 0182 0D       		.uleb128 0xd
 3936 0183 8D010000 		.4byte	0x18d
 3937 0187 0E       		.uleb128 0xe
 3938 0188 B5000000 		.4byte	0xb5
 3939 018c 00       		.byte	0
 3940 018d 07       		.uleb128 0x7
 3941 018e 04       		.byte	0x4
 3942 018f 82010000 		.4byte	0x182
 3943 0193 0F       		.uleb128 0xf
 3944 0194 5F0F0000 		.4byte	.LASF30
 3945 0198 03       		.byte	0x3
 3946 0199 64       		.byte	0x64
 3947 019a 9E010000 		.4byte	0x19e
 3948 019e 07       		.uleb128 0x7
 3949 019f 04       		.byte	0x4
 3950 01a0 C4000000 		.4byte	0xc4
 3951 01a4 0F       		.uleb128 0xf
 3952 01a5 04110000 		.4byte	.LASF31
 3953 01a9 04       		.byte	0x4
 3954 01aa 23       		.byte	0x23
ARM GAS  C:\Users\RECEPC~1\AppData\Local\Temp\cc0bMLA1.s 			page 88


 3955 01ab B7000000 		.4byte	0xb7
 3956 01af 07       		.uleb128 0x7
 3957 01b0 04       		.byte	0x4
 3958 01b1 6B000000 		.4byte	0x6b
 3959 01b5 10       		.uleb128 0x10
 3960 01b6 14       		.byte	0x14
 3961 01b7 04       		.byte	0x4
 3962 01b8 EC01     		.2byte	0x1ec
 3963 01ba 9F020000 		.4byte	0x29f
 3964 01be 11       		.uleb128 0x11
 3965 01bf 5A010000 		.4byte	.LASF32
 3966 01c3 04       		.byte	0x4
 3967 01c4 EE01     		.2byte	0x1ee
 3968 01c6 65010000 		.4byte	0x165
 3969 01ca 00       		.byte	0
 3970 01cb 11       		.uleb128 0x11
 3971 01cc 3F130000 		.4byte	.LASF33
 3972 01d0 04       		.byte	0x4
 3973 01d1 EF01     		.2byte	0x1ef
 3974 01d3 65010000 		.4byte	0x165
 3975 01d7 01       		.byte	0x1
 3976 01d8 11       		.uleb128 0x11
 3977 01d9 C8060000 		.4byte	.LASF34
 3978 01dd 04       		.byte	0x4
 3979 01de F301     		.2byte	0x1f3
 3980 01e0 6B000000 		.4byte	0x6b
 3981 01e4 02       		.byte	0x2
 3982 01e5 11       		.uleb128 0x11
 3983 01e6 E2030000 		.4byte	.LASF35
 3984 01ea 04       		.byte	0x4
 3985 01eb 0102     		.2byte	0x201
 3986 01ed 6B000000 		.4byte	0x6b
 3987 01f1 03       		.byte	0x3
 3988 01f2 11       		.uleb128 0x11
 3989 01f3 F2030000 		.4byte	.LASF36
 3990 01f7 04       		.byte	0x4
 3991 01f8 0202     		.2byte	0x202
 3992 01fa 6B000000 		.4byte	0x6b
 3993 01fe 04       		.byte	0x4
 3994 01ff 11       		.uleb128 0x11
 3995 0200 10100000 		.4byte	.LASF37
 3996 0204 04       		.byte	0x4
 3997 0205 0302     		.2byte	0x203
 3998 0207 6B000000 		.4byte	0x6b
 3999 020b 05       		.byte	0x5
 4000 020c 11       		.uleb128 0x11
 4001 020d 3E100000 		.4byte	.LASF38
 4002 0211 04       		.byte	0x4
 4003 0212 0402     		.2byte	0x204
 4004 0214 6B000000 		.4byte	0x6b
 4005 0218 06       		.byte	0x6
 4006 0219 11       		.uleb128 0x11
 4007 021a 60000000 		.4byte	.LASF39
 4008 021e 04       		.byte	0x4
 4009 021f 0602     		.2byte	0x206
 4010 0221 6B000000 		.4byte	0x6b
 4011 0225 07       		.byte	0x7
ARM GAS  C:\Users\RECEPC~1\AppData\Local\Temp\cc0bMLA1.s 			page 89


 4012 0226 11       		.uleb128 0x11
 4013 0227 48070000 		.4byte	.LASF40
 4014 022b 04       		.byte	0x4
 4015 022c 0702     		.2byte	0x207
 4016 022e 6B000000 		.4byte	0x6b
 4017 0232 08       		.byte	0x8
 4018 0233 11       		.uleb128 0x11
 4019 0234 0E080000 		.4byte	.LASF41
 4020 0238 04       		.byte	0x4
 4021 0239 0802     		.2byte	0x208
 4022 023b 6B000000 		.4byte	0x6b
 4023 023f 09       		.byte	0x9
 4024 0240 11       		.uleb128 0x11
 4025 0241 7F100000 		.4byte	.LASF42
 4026 0245 04       		.byte	0x4
 4027 0246 0A02     		.2byte	0x20a
 4028 0248 6B000000 		.4byte	0x6b
 4029 024c 0A       		.byte	0xa
 4030 024d 11       		.uleb128 0x11
 4031 024e 320D0000 		.4byte	.LASF43
 4032 0252 04       		.byte	0x4
 4033 0253 0C02     		.2byte	0x20c
 4034 0255 77000000 		.4byte	0x77
 4035 0259 0C       		.byte	0xc
 4036 025a 11       		.uleb128 0x11
 4037 025b F00D0000 		.4byte	.LASF44
 4038 025f 04       		.byte	0x4
 4039 0260 0D02     		.2byte	0x20d
 4040 0262 77000000 		.4byte	0x77
 4041 0266 0E       		.byte	0xe
 4042 0267 11       		.uleb128 0x11
 4043 0268 0C020000 		.4byte	.LASF45
 4044 026c 04       		.byte	0x4
 4045 026d 0F02     		.2byte	0x20f
 4046 026f 6B000000 		.4byte	0x6b
 4047 0273 10       		.byte	0x10
 4048 0274 11       		.uleb128 0x11
 4049 0275 18010000 		.4byte	.LASF46
 4050 0279 04       		.byte	0x4
 4051 027a 1102     		.2byte	0x211
 4052 027c 6B000000 		.4byte	0x6b
 4053 0280 11       		.byte	0x11
 4054 0281 11       		.uleb128 0x11
 4055 0282 C6110000 		.4byte	.LASF47
 4056 0286 04       		.byte	0x4
 4057 0287 1302     		.2byte	0x213
 4058 0289 6B000000 		.4byte	0x6b
 4059 028d 12       		.byte	0x12
 4060 028e 12       		.uleb128 0x12
 4061 028f D5070000 		.4byte	.LASF242
 4062 0293 04       		.byte	0x4
 4063 0294 1502     		.2byte	0x215
 4064 0296 6B000000 		.4byte	0x6b
 4065 029a 01       		.byte	0x1
 4066 029b 01       		.byte	0x1
 4067 029c 07       		.byte	0x7
 4068 029d 13       		.byte	0x13
ARM GAS  C:\Users\RECEPC~1\AppData\Local\Temp\cc0bMLA1.s 			page 90


 4069 029e 00       		.byte	0
 4070 029f 04       		.uleb128 0x4
 4071 02a0 1E080000 		.4byte	.LASF48
 4072 02a4 04       		.byte	0x4
 4073 02a5 1602     		.2byte	0x216
 4074 02a7 B5010000 		.4byte	0x1b5
 4075 02ab 13       		.uleb128 0x13
 4076 02ac 080A0000 		.4byte	.LASF105
 4077 02b0 01       		.byte	0x1
 4078 02b1 05       		.byte	0x5
 4079 02b2 21       		.byte	0x21
 4080 02b3 1E040000 		.4byte	0x41e
 4081 02b7 14       		.uleb128 0x14
 4082 02b8 CC0B0000 		.4byte	.LASF49
 4083 02bc 01       		.sleb128 1
 4084 02bd 14       		.uleb128 0x14
 4085 02be DC0B0000 		.4byte	.LASF50
 4086 02c2 02       		.sleb128 2
 4087 02c3 14       		.uleb128 0x14
 4088 02c4 EC0B0000 		.4byte	.LASF51
 4089 02c8 03       		.sleb128 3
 4090 02c9 14       		.uleb128 0x14
 4091 02ca 47120000 		.4byte	.LASF52
 4092 02ce 04       		.sleb128 4
 4093 02cf 14       		.uleb128 0x14
 4094 02d0 D3090000 		.4byte	.LASF53
 4095 02d4 05       		.sleb128 5
 4096 02d5 14       		.uleb128 0x14
 4097 02d6 6D0C0000 		.4byte	.LASF54
 4098 02da 06       		.sleb128 6
 4099 02db 14       		.uleb128 0x14
 4100 02dc 1D0A0000 		.4byte	.LASF55
 4101 02e0 0F       		.sleb128 15
 4102 02e1 14       		.uleb128 0x14
 4103 02e2 62100000 		.4byte	.LASF56
 4104 02e6 FE00     		.sleb128 126
 4105 02e8 14       		.uleb128 0x14
 4106 02e9 FD120000 		.4byte	.LASF57
 4107 02ed 8601     		.sleb128 134
 4108 02ef 14       		.uleb128 0x14
 4109 02f0 4E100000 		.4byte	.LASF58
 4110 02f4 07       		.sleb128 7
 4111 02f5 14       		.uleb128 0x14
 4112 02f6 4B110000 		.4byte	.LASF59
 4113 02fa 08       		.sleb128 8
 4114 02fb 14       		.uleb128 0x14
 4115 02fc C10E0000 		.4byte	.LASF60
 4116 0300 09       		.sleb128 9
 4117 0301 14       		.uleb128 0x14
 4118 0302 70090000 		.4byte	.LASF61
 4119 0306 0A       		.sleb128 10
 4120 0307 14       		.uleb128 0x14
 4121 0308 20100000 		.4byte	.LASF62
 4122 030c 0B       		.sleb128 11
 4123 030d 14       		.uleb128 0x14
 4124 030e 99110000 		.4byte	.LASF63
 4125 0312 25       		.sleb128 37
ARM GAS  C:\Users\RECEPC~1\AppData\Local\Temp\cc0bMLA1.s 			page 91


 4126 0313 14       		.uleb128 0x14
 4127 0314 4E0C0000 		.4byte	.LASF64
 4128 0318 26       		.sleb128 38
 4129 0319 14       		.uleb128 0x14
 4130 031a A30A0000 		.4byte	.LASF65
 4131 031e 27       		.sleb128 39
 4132 031f 14       		.uleb128 0x14
 4133 0320 5D070000 		.4byte	.LASF66
 4134 0324 2F       		.sleb128 47
 4135 0325 14       		.uleb128 0x14
 4136 0326 62050000 		.4byte	.LASF67
 4137 032a 2C       		.sleb128 44
 4138 032b 14       		.uleb128 0x14
 4139 032c E80F0000 		.4byte	.LASF68
 4140 0330 0C       		.sleb128 12
 4141 0331 14       		.uleb128 0x14
 4142 0332 780D0000 		.4byte	.LASF69
 4143 0336 8501     		.sleb128 133
 4144 0338 14       		.uleb128 0x14
 4145 0339 75040000 		.4byte	.LASF70
 4146 033d 1C       		.sleb128 28
 4147 033e 14       		.uleb128 0x14
 4148 033f AD050000 		.4byte	.LASF71
 4149 0343 12       		.sleb128 18
 4150 0344 14       		.uleb128 0x14
 4151 0345 F10A0000 		.4byte	.LASF72
 4152 0349 13       		.sleb128 19
 4153 034a 14       		.uleb128 0x14
 4154 034b 2D120000 		.4byte	.LASF73
 4155 034f 24       		.sleb128 36
 4156 0350 14       		.uleb128 0x14
 4157 0351 85090000 		.4byte	.LASF74
 4158 0355 0D       		.sleb128 13
 4159 0356 14       		.uleb128 0x14
 4160 0357 070F0000 		.4byte	.LASF75
 4161 035b 0E       		.sleb128 14
 4162 035c 14       		.uleb128 0x14
 4163 035d 93100000 		.4byte	.LASF76
 4164 0361 8301     		.sleb128 131
 4165 0363 14       		.uleb128 0x14
 4166 0364 6D120000 		.4byte	.LASF77
 4167 0368 DA00     		.sleb128 90
 4168 036a 14       		.uleb128 0x14
 4169 036b 3C0E0000 		.4byte	.LASF78
 4170 036f 31       		.sleb128 49
 4171 0370 14       		.uleb128 0x14
 4172 0371 860C0000 		.4byte	.LASF79
 4173 0375 35       		.sleb128 53
 4174 0376 14       		.uleb128 0x14
 4175 0377 23090000 		.4byte	.LASF80
 4176 037b 2E       		.sleb128 46
 4177 037c 14       		.uleb128 0x14
 4178 037d BD0A0000 		.4byte	.LASF81
 4179 0381 8C01     		.sleb128 140
 4180 0383 14       		.uleb128 0x14
 4181 0384 63030000 		.4byte	.LASF82
 4182 0388 9601     		.sleb128 150
ARM GAS  C:\Users\RECEPC~1\AppData\Local\Temp\cc0bMLA1.s 			page 92


 4183 038a 14       		.uleb128 0x14
 4184 038b 1E000000 		.4byte	.LASF83
 4185 038f 39       		.sleb128 57
 4186 0390 14       		.uleb128 0x14
 4187 0391 21130000 		.4byte	.LASF84
 4188 0395 9701     		.sleb128 151
 4189 0397 14       		.uleb128 0x14
 4190 0398 50130000 		.4byte	.LASF85
 4191 039c 9801     		.sleb128 152
 4192 039e 14       		.uleb128 0x14
 4193 039f 45030000 		.4byte	.LASF86
 4194 03a3 3E       		.sleb128 62
 4195 03a4 14       		.uleb128 0x14
 4196 03a5 16090000 		.4byte	.LASF87
 4197 03a9 3F       		.sleb128 63
 4198 03aa 14       		.uleb128 0x14
 4199 03ab 9F050000 		.4byte	.LASF88
 4200 03af C000     		.sleb128 64
 4201 03b1 14       		.uleb128 0x14
 4202 03b2 140E0000 		.4byte	.LASF89
 4203 03b6 8D01     		.sleb128 141
 4204 03b8 14       		.uleb128 0x14
 4205 03b9 DE100000 		.4byte	.LASF90
 4206 03bd 23       		.sleb128 35
 4207 03be 14       		.uleb128 0x14
 4208 03bf 2A110000 		.4byte	.LASF91
 4209 03c3 2A       		.sleb128 42
 4210 03c4 14       		.uleb128 0x14
 4211 03c5 D6060000 		.4byte	.LASF92
 4212 03c9 2B       		.sleb128 43
 4213 03ca 14       		.uleb128 0x14
 4214 03cb BA040000 		.4byte	.LASF93
 4215 03cf 3C       		.sleb128 60
 4216 03d0 14       		.uleb128 0x14
 4217 03d1 8E040000 		.4byte	.LASF94
 4218 03d5 C100     		.sleb128 65
 4219 03d7 14       		.uleb128 0x14
 4220 03d8 6F000000 		.4byte	.LASF95
 4221 03dc EB00     		.sleb128 107
 4222 03de 14       		.uleb128 0x14
 4223 03df 600E0000 		.4byte	.LASF96
 4224 03e3 E700     		.sleb128 103
 4225 03e5 14       		.uleb128 0x14
 4226 03e6 A20E0000 		.4byte	.LASF97
 4227 03ea E400     		.sleb128 100
 4228 03ec 14       		.uleb128 0x14
 4229 03ed DE110000 		.4byte	.LASF98
 4230 03f1 E500     		.sleb128 101
 4231 03f3 14       		.uleb128 0x14
 4232 03f4 DA080000 		.4byte	.LASF99
 4233 03f8 9901     		.sleb128 153
 4234 03fa 14       		.uleb128 0x14
 4235 03fb E9080000 		.4byte	.LASF100
 4236 03ff 9A01     		.sleb128 154
 4237 0401 14       		.uleb128 0x14
 4238 0402 F8080000 		.4byte	.LASF101
 4239 0406 9B01     		.sleb128 155
ARM GAS  C:\Users\RECEPC~1\AppData\Local\Temp\cc0bMLA1.s 			page 93


 4240 0408 14       		.uleb128 0x14
 4241 0409 07090000 		.4byte	.LASF102
 4242 040d 9C01     		.sleb128 156
 4243 040f 14       		.uleb128 0x14
 4244 0410 1D070000 		.4byte	.LASF103
 4245 0414 FA01     		.sleb128 250
 4246 0416 14       		.uleb128 0x14
 4247 0417 8C0A0000 		.4byte	.LASF104
 4248 041b FF01     		.sleb128 255
 4249 041d 00       		.byte	0
 4250 041e 0B       		.uleb128 0xb
 4251 041f 6B000000 		.4byte	0x6b
 4252 0423 2E040000 		.4byte	0x42e
 4253 0427 15       		.uleb128 0x15
 4254 0428 AE000000 		.4byte	0xae
 4255 042c 05       		.byte	0x5
 4256 042d 00       		.byte	0
 4257 042e 13       		.uleb128 0x13
 4258 042f 4B0F0000 		.4byte	.LASF106
 4259 0433 02       		.byte	0x2
 4260 0434 06       		.byte	0x6
 4261 0435 2A       		.byte	0x2a
 4262 0436 52050000 		.4byte	0x552
 4263 043a 14       		.uleb128 0x14
 4264 043b 1F020000 		.4byte	.LASF107
 4265 043f 00       		.sleb128 0
 4266 0440 14       		.uleb128 0x14
 4267 0441 3A020000 		.4byte	.LASF108
 4268 0445 C000     		.sleb128 64
 4269 0447 14       		.uleb128 0x14
 4270 0448 55020000 		.4byte	.LASF109
 4271 044c 8001     		.sleb128 128
 4272 044e 14       		.uleb128 0x14
 4273 044f 70020000 		.4byte	.LASF110
 4274 0453 C001     		.sleb128 192
 4275 0455 14       		.uleb128 0x14
 4276 0456 8B020000 		.4byte	.LASF111
 4277 045a 8002     		.sleb128 256
 4278 045c 14       		.uleb128 0x14
 4279 045d A6020000 		.4byte	.LASF112
 4280 0461 C002     		.sleb128 320
 4281 0463 14       		.uleb128 0x14
 4282 0464 C1020000 		.4byte	.LASF113
 4283 0468 8003     		.sleb128 384
 4284 046a 14       		.uleb128 0x14
 4285 046b DC020000 		.4byte	.LASF114
 4286 046f C003     		.sleb128 448
 4287 0471 14       		.uleb128 0x14
 4288 0472 B7080000 		.4byte	.LASF115
 4289 0476 8004     		.sleb128 512
 4290 0478 14       		.uleb128 0x14
 4291 0479 A90F0000 		.4byte	.LASF116
 4292 047d C004     		.sleb128 576
 4293 047f 14       		.uleb128 0x14
 4294 0480 93060000 		.4byte	.LASF117
 4295 0484 8005     		.sleb128 640
 4296 0486 14       		.uleb128 0x14
ARM GAS  C:\Users\RECEPC~1\AppData\Local\Temp\cc0bMLA1.s 			page 94


 4297 0487 2B0C0000 		.4byte	.LASF118
 4298 048b C005     		.sleb128 704
 4299 048d 14       		.uleb128 0x14
 4300 048e 8E030000 		.4byte	.LASF119
 4301 0492 8006     		.sleb128 768
 4302 0494 14       		.uleb128 0x14
 4303 0495 A9090000 		.4byte	.LASF120
 4304 0499 C006     		.sleb128 832
 4305 049b 14       		.uleb128 0x14
 4306 049c A7100000 		.4byte	.LASF121
 4307 04a0 8007     		.sleb128 896
 4308 04a2 14       		.uleb128 0x14
 4309 04a3 B8030000 		.4byte	.LASF122
 4310 04a7 C007     		.sleb128 960
 4311 04a9 14       		.uleb128 0x14
 4312 04aa 070D0000 		.4byte	.LASF123
 4313 04ae 8008     		.sleb128 1024
 4314 04b0 14       		.uleb128 0x14
 4315 04b1 A50D0000 		.4byte	.LASF124
 4316 04b5 C008     		.sleb128 1088
 4317 04b7 14       		.uleb128 0x14
 4318 04b8 20030000 		.4byte	.LASF125
 4319 04bc 8009     		.sleb128 1152
 4320 04be 14       		.uleb128 0x14
 4321 04bf D50E0000 		.4byte	.LASF126
 4322 04c3 C009     		.sleb128 1216
 4323 04c5 14       		.uleb128 0x14
 4324 04c6 B2000000 		.4byte	.LASF127
 4325 04ca 800A     		.sleb128 1280
 4326 04cc 14       		.uleb128 0x14
 4327 04cd 600A0000 		.4byte	.LASF128
 4328 04d1 C00A     		.sleb128 1344
 4329 04d3 14       		.uleb128 0x14
 4330 04d4 DC000000 		.4byte	.LASF129
 4331 04d8 800B     		.sleb128 1408
 4332 04da 14       		.uleb128 0x14
 4333 04db FA000000 		.4byte	.LASF130
 4334 04df C00B     		.sleb128 1472
 4335 04e1 14       		.uleb128 0x14
 4336 04e2 60060000 		.4byte	.LASF131
 4337 04e6 800C     		.sleb128 1536
 4338 04e8 14       		.uleb128 0x14
 4339 04e9 39050000 		.4byte	.LASF132
 4340 04ed C00C     		.sleb128 1600
 4341 04ef 14       		.uleb128 0x14
 4342 04f0 4C080000 		.4byte	.LASF133
 4343 04f4 800D     		.sleb128 1664
 4344 04f6 14       		.uleb128 0x14
 4345 04f7 5F110000 		.4byte	.LASF134
 4346 04fb C00D     		.sleb128 1728
 4347 04fd 14       		.uleb128 0x14
 4348 04fe 31010000 		.4byte	.LASF135
 4349 0502 800E     		.sleb128 1792
 4350 0504 14       		.uleb128 0x14
 4351 0505 370A0000 		.4byte	.LASF136
 4352 0509 C00E     		.sleb128 1856
 4353 050b 14       		.uleb128 0x14
ARM GAS  C:\Users\RECEPC~1\AppData\Local\Temp\cc0bMLA1.s 			page 95


 4354 050c F7020000 		.4byte	.LASF137
 4355 0510 800F     		.sleb128 1920
 4356 0512 14       		.uleb128 0x14
 4357 0513 42040000 		.4byte	.LASF138
 4358 0517 C00F     		.sleb128 1984
 4359 0519 14       		.uleb128 0x14
 4360 051a F9050000 		.4byte	.LASF139
 4361 051e 8010     		.sleb128 2048
 4362 0520 14       		.uleb128 0x14
 4363 0521 740F0000 		.4byte	.LASF140
 4364 0525 C010     		.sleb128 2112
 4365 0527 14       		.uleb128 0x14
 4366 0528 F8110000 		.4byte	.LASF141
 4367 052c 8011     		.sleb128 2176
 4368 052e 14       		.uleb128 0x14
 4369 052f AC070000 		.4byte	.LASF142
 4370 0533 C011     		.sleb128 2240
 4371 0535 14       		.uleb128 0x14
 4372 0536 A30B0000 		.4byte	.LASF143
 4373 053a 8012     		.sleb128 2304
 4374 053c 14       		.uleb128 0x14
 4375 053d EE040000 		.4byte	.LASF144
 4376 0541 C012     		.sleb128 2368
 4377 0543 14       		.uleb128 0x14
 4378 0544 02040000 		.4byte	.LASF145
 4379 0548 8013     		.sleb128 2432
 4380 054a 14       		.uleb128 0x14
 4381 054b 4F0D0000 		.4byte	.LASF146
 4382 054f C013     		.sleb128 2496
 4383 0551 00       		.byte	0
 4384 0552 13       		.uleb128 0x13
 4385 0553 38070000 		.4byte	.LASF147
 4386 0557 01       		.byte	0x1
 4387 0558 07       		.byte	0x7
 4388 0559 36       		.byte	0x36
 4389 055a 77050000 		.4byte	0x577
 4390 055e 14       		.uleb128 0x14
 4391 055f 8F080000 		.4byte	.LASF148
 4392 0563 01       		.sleb128 1
 4393 0564 14       		.uleb128 0x14
 4394 0565 C0120000 		.4byte	.LASF149
 4395 0569 02       		.sleb128 2
 4396 056a 14       		.uleb128 0x14
 4397 056b A3080000 		.4byte	.LASF150
 4398 056f 03       		.sleb128 3
 4399 0570 14       		.uleb128 0x14
 4400 0571 D4120000 		.4byte	.LASF151
 4401 0575 04       		.sleb128 4
 4402 0576 00       		.byte	0
 4403 0577 13       		.uleb128 0x13
 4404 0578 7A050000 		.4byte	.LASF152
 4405 057c 01       		.byte	0x1
 4406 057d 07       		.byte	0x7
 4407 057e 3F       		.byte	0x3f
 4408 057f 20060000 		.4byte	0x620
 4409 0583 14       		.uleb128 0x14
 4410 0584 290E0000 		.4byte	.LASF153
ARM GAS  C:\Users\RECEPC~1\AppData\Local\Temp\cc0bMLA1.s 			page 96


 4411 0588 01       		.sleb128 1
 4412 0589 14       		.uleb128 0x14
 4413 058a D90A0000 		.4byte	.LASF154
 4414 058e 02       		.sleb128 2
 4415 058f 14       		.uleb128 0x14
 4416 0590 320E0000 		.4byte	.LASF155
 4417 0594 03       		.sleb128 3
 4418 0595 14       		.uleb128 0x14
 4419 0596 B9110000 		.4byte	.LASF156
 4420 059a 04       		.sleb128 4
 4421 059b 14       		.uleb128 0x14
 4422 059c A8010000 		.4byte	.LASF157
 4423 05a0 05       		.sleb128 5
 4424 05a1 14       		.uleb128 0x14
 4425 05a2 6F130000 		.4byte	.LASF158
 4426 05a6 06       		.sleb128 6
 4427 05a7 14       		.uleb128 0x14
 4428 05a8 7E0A0000 		.4byte	.LASF159
 4429 05ac 07       		.sleb128 7
 4430 05ad 14       		.uleb128 0x14
 4431 05ae 12000000 		.4byte	.LASF160
 4432 05b2 08       		.sleb128 8
 4433 05b3 14       		.uleb128 0x14
 4434 05b4 21050000 		.4byte	.LASF161
 4435 05b8 09       		.sleb128 9
 4436 05b9 14       		.uleb128 0x14
 4437 05ba 260F0000 		.4byte	.LASF162
 4438 05be 0A       		.sleb128 10
 4439 05bf 14       		.uleb128 0x14
 4440 05c0 380F0000 		.4byte	.LASF163
 4441 05c4 0B       		.sleb128 11
 4442 05c5 14       		.uleb128 0x14
 4443 05c6 E20A0000 		.4byte	.LASF164
 4444 05ca 0C       		.sleb128 12
 4445 05cb 14       		.uleb128 0x14
 4446 05cc 50060000 		.4byte	.LASF165
 4447 05d0 0D       		.sleb128 13
 4448 05d1 14       		.uleb128 0x14
 4449 05d2 D20D0000 		.4byte	.LASF166
 4450 05d6 0E       		.sleb128 14
 4451 05d7 14       		.uleb128 0x14
 4452 05d8 90050000 		.4byte	.LASF167
 4453 05dc 0F       		.sleb128 15
 4454 05dd 14       		.uleb128 0x14
 4455 05de 94000000 		.4byte	.LASF168
 4456 05e2 10       		.sleb128 16
 4457 05e3 14       		.uleb128 0x14
 4458 05e4 A7040000 		.4byte	.LASF169
 4459 05e8 11       		.sleb128 17
 4460 05e9 14       		.uleb128 0x14
 4461 05ea 070B0000 		.4byte	.LASF170
 4462 05ee 12       		.sleb128 18
 4463 05ef 14       		.uleb128 0x14
 4464 05f0 41060000 		.4byte	.LASF171
 4465 05f4 13       		.sleb128 19
 4466 05f5 14       		.uleb128 0x14
 4467 05f6 810E0000 		.4byte	.LASF172
ARM GAS  C:\Users\RECEPC~1\AppData\Local\Temp\cc0bMLA1.s 			page 97


 4468 05fa 14       		.sleb128 20
 4469 05fb 14       		.uleb128 0x14
 4470 05fc 21120000 		.4byte	.LASF173
 4471 0600 15       		.sleb128 21
 4472 0601 14       		.uleb128 0x14
 4473 0602 74070000 		.4byte	.LASF174
 4474 0606 16       		.sleb128 22
 4475 0607 14       		.uleb128 0x14
 4476 0608 FC0B0000 		.4byte	.LASF175
 4477 060c 17       		.sleb128 23
 4478 060d 14       		.uleb128 0x14
 4479 060e 6B040000 		.4byte	.LASF176
 4480 0612 18       		.sleb128 24
 4481 0613 14       		.uleb128 0x14
 4482 0614 B2110000 		.4byte	.LASF177
 4483 0618 19       		.sleb128 25
 4484 0619 14       		.uleb128 0x14
 4485 061a E8010000 		.4byte	.LASF178
 4486 061e 1A       		.sleb128 26
 4487 061f 00       		.byte	0
 4488 0620 0F       		.uleb128 0xf
 4489 0621 1B110000 		.4byte	.LASF179
 4490 0625 08       		.byte	0x8
 4491 0626 50       		.byte	0x50
 4492 0627 AF010000 		.4byte	0x1af
 4493 062b 13       		.uleb128 0x13
 4494 062c 88110000 		.4byte	.LASF180
 4495 0630 01       		.byte	0x1
 4496 0631 09       		.byte	0x9
 4497 0632 33       		.byte	0x33
 4498 0633 5C060000 		.4byte	0x65c
 4499 0637 14       		.uleb128 0x14
 4500 0638 89010000 		.4byte	.LASF181
 4501 063c 00       		.sleb128 0
 4502 063d 14       		.uleb128 0x14
 4503 063e B4120000 		.4byte	.LASF182
 4504 0642 01       		.sleb128 1
 4505 0643 14       		.uleb128 0x14
 4506 0644 B6010000 		.4byte	.LASF183
 4507 0648 02       		.sleb128 2
 4508 0649 14       		.uleb128 0x14
 4509 064a D6110000 		.4byte	.LASF184
 4510 064e 04       		.sleb128 4
 4511 064f 14       		.uleb128 0x14
 4512 0650 89060000 		.4byte	.LASF185
 4513 0654 05       		.sleb128 5
 4514 0655 14       		.uleb128 0x14
 4515 0656 A3070000 		.4byte	.LASF186
 4516 065a 06       		.sleb128 6
 4517 065b 00       		.byte	0
 4518 065c 16       		.uleb128 0x16
 4519 065d E00D0000 		.4byte	.LASF187
 4520 0661 01       		.byte	0x1
 4521 0662 32       		.byte	0x32
 4522 0663 00000000 		.4byte	.LFB0
 4523 0667 3C000000 		.4byte	.LFE0-.LFB0
 4524 066b 01       		.uleb128 0x1
ARM GAS  C:\Users\RECEPC~1\AppData\Local\Temp\cc0bMLA1.s 			page 98


 4525 066c 9C       		.byte	0x9c
 4526 066d 80060000 		.4byte	0x680
 4527 0671 17       		.uleb128 0x17
 4528 0672 95010000 		.4byte	.LASF189
 4529 0676 01       		.byte	0x1
 4530 0677 32       		.byte	0x32
 4531 0678 6B000000 		.4byte	0x6b
 4532 067c 02       		.uleb128 0x2
 4533 067d 91       		.byte	0x91
 4534 067e 77       		.sleb128 -9
 4535 067f 00       		.byte	0
 4536 0680 16       		.uleb128 0x16
 4537 0681 F2100000 		.4byte	.LASF188
 4538 0685 01       		.byte	0x1
 4539 0686 3D       		.byte	0x3d
 4540 0687 00000000 		.4byte	.LFB1
 4541 068b 52000000 		.4byte	.LFE1-.LFB1
 4542 068f 01       		.uleb128 0x1
 4543 0690 9C       		.byte	0x9c
 4544 0691 CE060000 		.4byte	0x6ce
 4545 0695 17       		.uleb128 0x17
 4546 0696 320F0000 		.4byte	.LASF190
 4547 069a 01       		.byte	0x1
 4548 069b 3D       		.byte	0x3d
 4549 069c B5000000 		.4byte	0xb5
 4550 06a0 02       		.uleb128 0x2
 4551 06a1 91       		.byte	0x91
 4552 06a2 64       		.sleb128 -28
 4553 06a3 18       		.uleb128 0x18
 4554 06a4 6F0F0000 		.4byte	.LASF191
 4555 06a8 01       		.byte	0x1
 4556 06a9 3F       		.byte	0x3f
 4557 06aa 93010000 		.4byte	0x193
 4558 06ae 02       		.uleb128 0x2
 4559 06af 91       		.byte	0x91
 4560 06b0 70       		.sleb128 -16
 4561 06b1 18       		.uleb128 0x18
 4562 06b2 F6010000 		.4byte	.LASF192
 4563 06b6 01       		.byte	0x1
 4564 06b7 44       		.byte	0x44
 4565 06b8 6B000000 		.4byte	0x6b
 4566 06bc 02       		.uleb128 0x2
 4567 06bd 91       		.byte	0x91
 4568 06be 6F       		.sleb128 -17
 4569 06bf 18       		.uleb128 0x18
 4570 06c0 9D0F0000 		.4byte	.LASF193
 4571 06c4 01       		.byte	0x1
 4572 06c5 47       		.byte	0x47
 4573 06c6 6B000000 		.4byte	0x6b
 4574 06ca 02       		.uleb128 0x2
 4575 06cb 91       		.byte	0x91
 4576 06cc 77       		.sleb128 -9
 4577 06cd 00       		.byte	0
 4578 06ce 16       		.uleb128 0x16
 4579 06cf 37000000 		.4byte	.LASF194
 4580 06d3 01       		.byte	0x1
 4581 06d4 55       		.byte	0x55
ARM GAS  C:\Users\RECEPC~1\AppData\Local\Temp\cc0bMLA1.s 			page 99


 4582 06d5 00000000 		.4byte	.LFB2
 4583 06d9 52000000 		.4byte	.LFE2-.LFB2
 4584 06dd 01       		.uleb128 0x1
 4585 06de 9C       		.byte	0x9c
 4586 06df 1C070000 		.4byte	0x71c
 4587 06e3 17       		.uleb128 0x17
 4588 06e4 320F0000 		.4byte	.LASF190
 4589 06e8 01       		.byte	0x1
 4590 06e9 55       		.byte	0x55
 4591 06ea B5000000 		.4byte	0xb5
 4592 06ee 02       		.uleb128 0x2
 4593 06ef 91       		.byte	0x91
 4594 06f0 64       		.sleb128 -28
 4595 06f1 18       		.uleb128 0x18
 4596 06f2 6F0F0000 		.4byte	.LASF191
 4597 06f6 01       		.byte	0x1
 4598 06f7 57       		.byte	0x57
 4599 06f8 93010000 		.4byte	0x193
 4600 06fc 02       		.uleb128 0x2
 4601 06fd 91       		.byte	0x91
 4602 06fe 70       		.sleb128 -16
 4603 06ff 18       		.uleb128 0x18
 4604 0700 F6010000 		.4byte	.LASF192
 4605 0704 01       		.byte	0x1
 4606 0705 5C       		.byte	0x5c
 4607 0706 6B000000 		.4byte	0x6b
 4608 070a 02       		.uleb128 0x2
 4609 070b 91       		.byte	0x91
 4610 070c 6F       		.sleb128 -17
 4611 070d 18       		.uleb128 0x18
 4612 070e 9D0F0000 		.4byte	.LASF193
 4613 0712 01       		.byte	0x1
 4614 0713 5F       		.byte	0x5f
 4615 0714 6B000000 		.4byte	0x6b
 4616 0718 02       		.uleb128 0x2
 4617 0719 91       		.byte	0x91
 4618 071a 77       		.sleb128 -9
 4619 071b 00       		.byte	0
 4620 071c 16       		.uleb128 0x16
 4621 071d 09110000 		.4byte	.LASF195
 4622 0721 01       		.byte	0x1
 4623 0722 6D       		.byte	0x6d
 4624 0723 00000000 		.4byte	.LFB3
 4625 0727 52000000 		.4byte	.LFE3-.LFB3
 4626 072b 01       		.uleb128 0x1
 4627 072c 9C       		.byte	0x9c
 4628 072d 6A070000 		.4byte	0x76a
 4629 0731 17       		.uleb128 0x17
 4630 0732 320F0000 		.4byte	.LASF190
 4631 0736 01       		.byte	0x1
 4632 0737 6D       		.byte	0x6d
 4633 0738 B5000000 		.4byte	0xb5
 4634 073c 02       		.uleb128 0x2
 4635 073d 91       		.byte	0x91
 4636 073e 64       		.sleb128 -28
 4637 073f 18       		.uleb128 0x18
 4638 0740 6F0F0000 		.4byte	.LASF191
ARM GAS  C:\Users\RECEPC~1\AppData\Local\Temp\cc0bMLA1.s 			page 100


 4639 0744 01       		.byte	0x1
 4640 0745 6F       		.byte	0x6f
 4641 0746 93010000 		.4byte	0x193
 4642 074a 02       		.uleb128 0x2
 4643 074b 91       		.byte	0x91
 4644 074c 70       		.sleb128 -16
 4645 074d 18       		.uleb128 0x18
 4646 074e F6010000 		.4byte	.LASF192
 4647 0752 01       		.byte	0x1
 4648 0753 74       		.byte	0x74
 4649 0754 6B000000 		.4byte	0x6b
 4650 0758 02       		.uleb128 0x2
 4651 0759 91       		.byte	0x91
 4652 075a 6F       		.sleb128 -17
 4653 075b 18       		.uleb128 0x18
 4654 075c 9D0F0000 		.4byte	.LASF193
 4655 0760 01       		.byte	0x1
 4656 0761 77       		.byte	0x77
 4657 0762 6B000000 		.4byte	0x6b
 4658 0766 02       		.uleb128 0x2
 4659 0767 91       		.byte	0x91
 4660 0768 77       		.sleb128 -9
 4661 0769 00       		.byte	0
 4662 076a 16       		.uleb128 0x16
 4663 076b 49000000 		.4byte	.LASF196
 4664 076f 01       		.byte	0x1
 4665 0770 85       		.byte	0x85
 4666 0771 00000000 		.4byte	.LFB4
 4667 0775 52000000 		.4byte	.LFE4-.LFB4
 4668 0779 01       		.uleb128 0x1
 4669 077a 9C       		.byte	0x9c
 4670 077b B8070000 		.4byte	0x7b8
 4671 077f 17       		.uleb128 0x17
 4672 0780 320F0000 		.4byte	.LASF190
 4673 0784 01       		.byte	0x1
 4674 0785 85       		.byte	0x85
 4675 0786 B5000000 		.4byte	0xb5
 4676 078a 02       		.uleb128 0x2
 4677 078b 91       		.byte	0x91
 4678 078c 64       		.sleb128 -28
 4679 078d 18       		.uleb128 0x18
 4680 078e 6F0F0000 		.4byte	.LASF191
 4681 0792 01       		.byte	0x1
 4682 0793 87       		.byte	0x87
 4683 0794 93010000 		.4byte	0x193
 4684 0798 02       		.uleb128 0x2
 4685 0799 91       		.byte	0x91
 4686 079a 70       		.sleb128 -16
 4687 079b 18       		.uleb128 0x18
 4688 079c F6010000 		.4byte	.LASF192
 4689 07a0 01       		.byte	0x1
 4690 07a1 8C       		.byte	0x8c
 4691 07a2 6B000000 		.4byte	0x6b
 4692 07a6 02       		.uleb128 0x2
 4693 07a7 91       		.byte	0x91
 4694 07a8 6F       		.sleb128 -17
 4695 07a9 18       		.uleb128 0x18
ARM GAS  C:\Users\RECEPC~1\AppData\Local\Temp\cc0bMLA1.s 			page 101


 4696 07aa 9D0F0000 		.4byte	.LASF193
 4697 07ae 01       		.byte	0x1
 4698 07af 8F       		.byte	0x8f
 4699 07b0 6B000000 		.4byte	0x6b
 4700 07b4 02       		.uleb128 0x2
 4701 07b5 91       		.byte	0x91
 4702 07b6 77       		.sleb128 -9
 4703 07b7 00       		.byte	0
 4704 07b8 16       		.uleb128 0x16
 4705 07b9 4B090000 		.4byte	.LASF197
 4706 07bd 01       		.byte	0x1
 4707 07be 9D       		.byte	0x9d
 4708 07bf 00000000 		.4byte	.LFB5
 4709 07c3 1A000000 		.4byte	.LFE5-.LFB5
 4710 07c7 01       		.uleb128 0x1
 4711 07c8 9C       		.byte	0x9c
 4712 07c9 EA070000 		.4byte	0x7ea
 4713 07cd 17       		.uleb128 0x17
 4714 07ce 320F0000 		.4byte	.LASF190
 4715 07d2 01       		.byte	0x1
 4716 07d3 9D       		.byte	0x9d
 4717 07d4 B5000000 		.4byte	0xb5
 4718 07d8 02       		.uleb128 0x2
 4719 07d9 91       		.byte	0x91
 4720 07da 6C       		.sleb128 -20
 4721 07db 18       		.uleb128 0x18
 4722 07dc 6F0F0000 		.4byte	.LASF191
 4723 07e0 01       		.byte	0x1
 4724 07e1 9F       		.byte	0x9f
 4725 07e2 93010000 		.4byte	0x193
 4726 07e6 02       		.uleb128 0x2
 4727 07e7 91       		.byte	0x91
 4728 07e8 74       		.sleb128 -12
 4729 07e9 00       		.byte	0
 4730 07ea 16       		.uleb128 0x16
 4731 07eb 85120000 		.4byte	.LASF198
 4732 07ef 01       		.byte	0x1
 4733 07f0 A3       		.byte	0xa3
 4734 07f1 00000000 		.4byte	.LFB6
 4735 07f5 1A000000 		.4byte	.LFE6-.LFB6
 4736 07f9 01       		.uleb128 0x1
 4737 07fa 9C       		.byte	0x9c
 4738 07fb 1C080000 		.4byte	0x81c
 4739 07ff 17       		.uleb128 0x17
 4740 0800 320F0000 		.4byte	.LASF190
 4741 0804 01       		.byte	0x1
 4742 0805 A3       		.byte	0xa3
 4743 0806 B5000000 		.4byte	0xb5
 4744 080a 02       		.uleb128 0x2
 4745 080b 91       		.byte	0x91
 4746 080c 6C       		.sleb128 -20
 4747 080d 18       		.uleb128 0x18
 4748 080e 6F0F0000 		.4byte	.LASF191
 4749 0812 01       		.byte	0x1
 4750 0813 A5       		.byte	0xa5
 4751 0814 93010000 		.4byte	0x193
 4752 0818 02       		.uleb128 0x2
ARM GAS  C:\Users\RECEPC~1\AppData\Local\Temp\cc0bMLA1.s 			page 102


 4753 0819 91       		.byte	0x91
 4754 081a 74       		.sleb128 -12
 4755 081b 00       		.byte	0
 4756 081c 19       		.uleb128 0x19
 4757 081d C2050000 		.4byte	.LASF203
 4758 0821 01       		.byte	0x1
 4759 0822 AD       		.byte	0xad
 4760 0823 6B000000 		.4byte	0x6b
 4761 0827 00000000 		.4byte	.LFB7
 4762 082b 34000000 		.4byte	.LFE7-.LFB7
 4763 082f 01       		.uleb128 0x1
 4764 0830 9C       		.byte	0x9c
 4765 0831 52080000 		.4byte	0x852
 4766 0835 17       		.uleb128 0x17
 4767 0836 17050000 		.4byte	.LASF199
 4768 083a 01       		.byte	0x1
 4769 083b AD       		.byte	0xad
 4770 083c 20060000 		.4byte	0x620
 4771 0840 02       		.uleb128 0x2
 4772 0841 91       		.byte	0x91
 4773 0842 6C       		.sleb128 -20
 4774 0843 18       		.uleb128 0x18
 4775 0844 A1010000 		.4byte	.LASF200
 4776 0848 01       		.byte	0x1
 4777 0849 AF       		.byte	0xaf
 4778 084a 6B000000 		.4byte	0x6b
 4779 084e 02       		.uleb128 0x2
 4780 084f 91       		.byte	0x91
 4781 0850 77       		.sleb128 -9
 4782 0851 00       		.byte	0
 4783 0852 16       		.uleb128 0x16
 4784 0853 CC0F0000 		.4byte	.LASF201
 4785 0857 01       		.byte	0x1
 4786 0858 B6       		.byte	0xb6
 4787 0859 00000000 		.4byte	.LFB8
 4788 085d 18000000 		.4byte	.LFE8-.LFB8
 4789 0861 01       		.uleb128 0x1
 4790 0862 9C       		.byte	0x9c
 4791 0863 84080000 		.4byte	0x884
 4792 0867 17       		.uleb128 0x17
 4793 0868 320F0000 		.4byte	.LASF190
 4794 086c 01       		.byte	0x1
 4795 086d B6       		.byte	0xb6
 4796 086e B5000000 		.4byte	0xb5
 4797 0872 02       		.uleb128 0x2
 4798 0873 91       		.byte	0x91
 4799 0874 6C       		.sleb128 -20
 4800 0875 18       		.uleb128 0x18
 4801 0876 6F0F0000 		.4byte	.LASF191
 4802 087a 01       		.byte	0x1
 4803 087b B8       		.byte	0xb8
 4804 087c 93010000 		.4byte	0x193
 4805 0880 02       		.uleb128 0x2
 4806 0881 91       		.byte	0x91
 4807 0882 74       		.sleb128 -12
 4808 0883 00       		.byte	0
 4809 0884 16       		.uleb128 0x16
ARM GAS  C:\Users\RECEPC~1\AppData\Local\Temp\cc0bMLA1.s 			page 103


 4810 0885 F3060000 		.4byte	.LASF202
 4811 0889 01       		.byte	0x1
 4812 088a BB       		.byte	0xbb
 4813 088b 00000000 		.4byte	.LFB9
 4814 088f 18000000 		.4byte	.LFE9-.LFB9
 4815 0893 01       		.uleb128 0x1
 4816 0894 9C       		.byte	0x9c
 4817 0895 B6080000 		.4byte	0x8b6
 4818 0899 17       		.uleb128 0x17
 4819 089a 320F0000 		.4byte	.LASF190
 4820 089e 01       		.byte	0x1
 4821 089f BB       		.byte	0xbb
 4822 08a0 B5000000 		.4byte	0xb5
 4823 08a4 02       		.uleb128 0x2
 4824 08a5 91       		.byte	0x91
 4825 08a6 6C       		.sleb128 -20
 4826 08a7 18       		.uleb128 0x18
 4827 08a8 6F0F0000 		.4byte	.LASF191
 4828 08ac 01       		.byte	0x1
 4829 08ad BD       		.byte	0xbd
 4830 08ae 93010000 		.4byte	0x193
 4831 08b2 02       		.uleb128 0x2
 4832 08b3 91       		.byte	0x91
 4833 08b4 74       		.sleb128 -12
 4834 08b5 00       		.byte	0
 4835 08b6 19       		.uleb128 0x19
 4836 08b7 22060000 		.4byte	.LASF204
 4837 08bb 01       		.byte	0x1
 4838 08bc C3       		.byte	0xc3
 4839 08bd 6B000000 		.4byte	0x6b
 4840 08c1 00000000 		.4byte	.LFB10
 4841 08c5 24000000 		.4byte	.LFE10-.LFB10
 4842 08c9 01       		.uleb128 0x1
 4843 08ca 9C       		.byte	0x9c
 4844 08cb DE080000 		.4byte	0x8de
 4845 08cf 17       		.uleb128 0x17
 4846 08d0 D6010000 		.4byte	.LASF205
 4847 08d4 01       		.byte	0x1
 4848 08d5 C3       		.byte	0xc3
 4849 08d6 6B000000 		.4byte	0x6b
 4850 08da 02       		.uleb128 0x2
 4851 08db 91       		.byte	0x91
 4852 08dc 77       		.sleb128 -9
 4853 08dd 00       		.byte	0
 4854 08de 16       		.uleb128 0x16
 4855 08df 6B010000 		.4byte	.LASF206
 4856 08e3 01       		.byte	0x1
 4857 08e4 C8       		.byte	0xc8
 4858 08e5 00000000 		.4byte	.LFB11
 4859 08e9 C6030000 		.4byte	.LFE11-.LFB11
 4860 08ed 01       		.uleb128 0x1
 4861 08ee 9C       		.byte	0x9c
 4862 08ef 7C090000 		.4byte	0x97c
 4863 08f3 17       		.uleb128 0x17
 4864 08f4 A10C0000 		.4byte	.LASF207
 4865 08f8 01       		.byte	0x1
 4866 08f9 C8       		.byte	0xc8
ARM GAS  C:\Users\RECEPC~1\AppData\Local\Temp\cc0bMLA1.s 			page 104


 4867 08fa 6B000000 		.4byte	0x6b
 4868 08fe 02       		.uleb128 0x2
 4869 08ff 91       		.byte	0x91
 4870 0900 6F       		.sleb128 -17
 4871 0901 17       		.uleb128 0x17
 4872 0902 660C0000 		.4byte	.LASF208
 4873 0906 01       		.byte	0x1
 4874 0907 C8       		.byte	0xc8
 4875 0908 6B000000 		.4byte	0x6b
 4876 090c 02       		.uleb128 0x2
 4877 090d 91       		.byte	0x91
 4878 090e 6E       		.sleb128 -18
 4879 090f 17       		.uleb128 0x17
 4880 0910 CA0D0000 		.4byte	.LASF209
 4881 0914 01       		.byte	0x1
 4882 0915 C8       		.byte	0xc8
 4883 0916 20060000 		.4byte	0x620
 4884 091a 02       		.uleb128 0x2
 4885 091b 91       		.byte	0x91
 4886 091c 68       		.sleb128 -24
 4887 091d 1A       		.uleb128 0x1a
 4888 091e 00000000 		.4byte	.Ldebug_ranges0+0
 4889 0922 35090000 		.4byte	0x935
 4890 0926 18       		.uleb128 0x18
 4891 0927 EA0D0000 		.4byte	.LASF210
 4892 092b 01       		.byte	0x1
 4893 092c CE       		.byte	0xce
 4894 092d 6B000000 		.4byte	0x6b
 4895 0931 02       		.uleb128 0x2
 4896 0932 91       		.byte	0x91
 4897 0933 77       		.sleb128 -9
 4898 0934 00       		.byte	0
 4899 0935 1A       		.uleb128 0x1a
 4900 0936 18000000 		.4byte	.Ldebug_ranges0+0x18
 4901 093a 4D090000 		.4byte	0x94d
 4902 093e 18       		.uleb128 0x18
 4903 093f EA0D0000 		.4byte	.LASF210
 4904 0943 01       		.byte	0x1
 4905 0944 F6       		.byte	0xf6
 4906 0945 6B000000 		.4byte	0x6b
 4907 0949 02       		.uleb128 0x2
 4908 094a 91       		.byte	0x91
 4909 094b 76       		.sleb128 -10
 4910 094c 00       		.byte	0
 4911 094d 1A       		.uleb128 0x1a
 4912 094e 30000000 		.4byte	.Ldebug_ranges0+0x30
 4913 0952 66090000 		.4byte	0x966
 4914 0956 1B       		.uleb128 0x1b
 4915 0957 EA0D0000 		.4byte	.LASF210
 4916 095b 01       		.byte	0x1
 4917 095c 1E01     		.2byte	0x11e
 4918 095e 6B000000 		.4byte	0x6b
 4919 0962 02       		.uleb128 0x2
 4920 0963 91       		.byte	0x91
 4921 0964 75       		.sleb128 -11
 4922 0965 00       		.byte	0
 4923 0966 1C       		.uleb128 0x1c
ARM GAS  C:\Users\RECEPC~1\AppData\Local\Temp\cc0bMLA1.s 			page 105


 4924 0967 48000000 		.4byte	.Ldebug_ranges0+0x48
 4925 096b 1B       		.uleb128 0x1b
 4926 096c EA0D0000 		.4byte	.LASF210
 4927 0970 01       		.byte	0x1
 4928 0971 4601     		.2byte	0x146
 4929 0973 6B000000 		.4byte	0x6b
 4930 0977 02       		.uleb128 0x2
 4931 0978 91       		.byte	0x91
 4932 0979 74       		.sleb128 -12
 4933 097a 00       		.byte	0
 4934 097b 00       		.byte	0
 4935 097c 1D       		.uleb128 0x1d
 4936 097d EC070000 		.4byte	.LASF211
 4937 0981 01       		.byte	0x1
 4938 0982 6C01     		.2byte	0x16c
 4939 0984 6B000000 		.4byte	0x6b
 4940 0988 00000000 		.4byte	.LFB12
 4941 098c 40010000 		.4byte	.LFE12-.LFB12
 4942 0990 01       		.uleb128 0x1
 4943 0991 9C       		.byte	0x9c
 4944 0992 090A0000 		.4byte	0xa09
 4945 0996 1E       		.uleb128 0x1e
 4946 0997 100C0000 		.4byte	.LASF212
 4947 099b 01       		.byte	0x1
 4948 099c 6C01     		.2byte	0x16c
 4949 099e 20060000 		.4byte	0x620
 4950 09a2 02       		.uleb128 0x2
 4951 09a3 91       		.byte	0x91
 4952 09a4 6C       		.sleb128 -20
 4953 09a5 1E       		.uleb128 0x1e
 4954 09a6 06100000 		.4byte	.LASF213
 4955 09aa 01       		.byte	0x1
 4956 09ab 6C01     		.2byte	0x16c
 4957 09ad 6B000000 		.4byte	0x6b
 4958 09b1 02       		.uleb128 0x2
 4959 09b2 91       		.byte	0x91
 4960 09b3 6B       		.sleb128 -21
 4961 09b4 1E       		.uleb128 0x1e
 4962 09b5 8B100000 		.4byte	.LASF214
 4963 09b9 01       		.byte	0x1
 4964 09ba 6C01     		.2byte	0x16c
 4965 09bc 20060000 		.4byte	0x620
 4966 09c0 02       		.uleb128 0x2
 4967 09c1 91       		.byte	0x91
 4968 09c2 64       		.sleb128 -28
 4969 09c3 1E       		.uleb128 0x1e
 4970 09c4 070C0000 		.4byte	.LASF215
 4971 09c8 01       		.byte	0x1
 4972 09c9 6C01     		.2byte	0x16c
 4973 09cb 6B000000 		.4byte	0x6b
 4974 09cf 02       		.uleb128 0x2
 4975 09d0 91       		.byte	0x91
 4976 09d1 6A       		.sleb128 -22
 4977 09d2 1F       		.uleb128 0x1f
 4978 09d3 26000000 		.4byte	.LBB10
 4979 09d7 8E000000 		.4byte	.LBE10-.LBB10
 4980 09db EF090000 		.4byte	0x9ef
ARM GAS  C:\Users\RECEPC~1\AppData\Local\Temp\cc0bMLA1.s 			page 106


 4981 09df 1B       		.uleb128 0x1b
 4982 09e0 5B000000 		.4byte	.LASF216
 4983 09e4 01       		.byte	0x1
 4984 09e5 7501     		.2byte	0x175
 4985 09e7 20060000 		.4byte	0x620
 4986 09eb 02       		.uleb128 0x2
 4987 09ec 91       		.byte	0x91
 4988 09ed 74       		.sleb128 -12
 4989 09ee 00       		.byte	0
 4990 09ef 20       		.uleb128 0x20
 4991 09f0 B6000000 		.4byte	.LBB11
 4992 09f4 64000000 		.4byte	.LBE11-.LBB11
 4993 09f8 1B       		.uleb128 0x1b
 4994 09f9 9D0F0000 		.4byte	.LASF193
 4995 09fd 01       		.byte	0x1
 4996 09fe 8001     		.2byte	0x180
 4997 0a00 6B000000 		.4byte	0x6b
 4998 0a04 02       		.uleb128 0x2
 4999 0a05 91       		.byte	0x91
 5000 0a06 73       		.sleb128 -13
 5001 0a07 00       		.byte	0
 5002 0a08 00       		.byte	0
 5003 0a09 21       		.uleb128 0x21
 5004 0a0a ED060000 		.4byte	.LASF217
 5005 0a0e 01       		.byte	0x1
 5006 0a0f 9001     		.2byte	0x190
 5007 0a11 00000000 		.4byte	.LFB13
 5008 0a15 A0110000 		.4byte	.LFE13-.LFB13
 5009 0a19 01       		.uleb128 0x1
 5010 0a1a 9C       		.byte	0x9c
 5011 0a1b FB0A0000 		.4byte	0xafb
 5012 0a1f 1E       		.uleb128 0x1e
 5013 0a20 6F0F0000 		.4byte	.LASF191
 5014 0a24 01       		.byte	0x1
 5015 0a25 9001     		.2byte	0x190
 5016 0a27 93010000 		.4byte	0x193
 5017 0a2b 02       		.uleb128 0x2
 5018 0a2c 91       		.byte	0x91
 5019 0a2d 54       		.sleb128 -44
 5020 0a2e 1E       		.uleb128 0x1e
 5021 0a2f 95010000 		.4byte	.LASF189
 5022 0a33 01       		.byte	0x1
 5023 0a34 9001     		.2byte	0x190
 5024 0a36 6B000000 		.4byte	0x6b
 5025 0a3a 02       		.uleb128 0x2
 5026 0a3b 91       		.byte	0x91
 5027 0a3c 53       		.sleb128 -45
 5028 0a3d 1B       		.uleb128 0x1b
 5029 0a3e 9D0F0000 		.4byte	.LASF193
 5030 0a42 01       		.byte	0x1
 5031 0a43 9201     		.2byte	0x192
 5032 0a45 6B000000 		.4byte	0x6b
 5033 0a49 02       		.uleb128 0x2
 5034 0a4a 91       		.byte	0x91
 5035 0a4b 6F       		.sleb128 -17
 5036 0a4c 1B       		.uleb128 0x1b
 5037 0a4d 32080000 		.4byte	.LASF218
ARM GAS  C:\Users\RECEPC~1\AppData\Local\Temp\cc0bMLA1.s 			page 107


 5038 0a51 01       		.byte	0x1
 5039 0a52 9701     		.2byte	0x197
 5040 0a54 6B000000 		.4byte	0x6b
 5041 0a58 02       		.uleb128 0x2
 5042 0a59 91       		.byte	0x91
 5043 0a5a 65       		.sleb128 -27
 5044 0a5b 1B       		.uleb128 0x1b
 5045 0a5c FA0E0000 		.4byte	.LASF219
 5046 0a60 01       		.byte	0x1
 5047 0a61 9801     		.2byte	0x198
 5048 0a63 6B000000 		.4byte	0x6b
 5049 0a67 02       		.uleb128 0x2
 5050 0a68 91       		.byte	0x91
 5051 0a69 64       		.sleb128 -28
 5052 0a6a 1B       		.uleb128 0x1b
 5053 0a6b E2050000 		.4byte	.LASF220
 5054 0a6f 01       		.byte	0x1
 5055 0a70 DF01     		.2byte	0x1df
 5056 0a72 A4010000 		.4byte	0x1a4
 5057 0a76 02       		.uleb128 0x2
 5058 0a77 91       		.byte	0x91
 5059 0a78 68       		.sleb128 -24
 5060 0a79 1B       		.uleb128 0x1b
 5061 0a7a A4000000 		.4byte	.LASF221
 5062 0a7e 01       		.byte	0x1
 5063 0a7f 0002     		.2byte	0x200
 5064 0a81 6A010000 		.4byte	0x16a
 5065 0a85 02       		.uleb128 0x2
 5066 0a86 91       		.byte	0x91
 5067 0a87 67       		.sleb128 -25
 5068 0a88 1B       		.uleb128 0x1b
 5069 0a89 E3010000 		.4byte	.LASF222
 5070 0a8d 01       		.byte	0x1
 5071 0a8e 0102     		.2byte	0x201
 5072 0a90 6A010000 		.4byte	0x16a
 5073 0a94 02       		.uleb128 0x2
 5074 0a95 91       		.byte	0x91
 5075 0a96 66       		.sleb128 -26
 5076 0a97 1F       		.uleb128 0x1f
 5077 0a98 C0090000 		.4byte	.LBB12
 5078 0a9c DC000000 		.4byte	.LBE12-.LBB12
 5079 0aa0 C30A0000 		.4byte	0xac3
 5080 0aa4 1B       		.uleb128 0x1b
 5081 0aa5 55070000 		.4byte	.LASF223
 5082 0aa9 01       		.byte	0x1
 5083 0aaa B602     		.2byte	0x2b6
 5084 0aac 6B000000 		.4byte	0x6b
 5085 0ab0 02       		.uleb128 0x2
 5086 0ab1 91       		.byte	0x91
 5087 0ab2 63       		.sleb128 -29
 5088 0ab3 1B       		.uleb128 0x1b
 5089 0ab4 9D0D0000 		.4byte	.LASF224
 5090 0ab8 01       		.byte	0x1
 5091 0ab9 B702     		.2byte	0x2b7
 5092 0abb 6B000000 		.4byte	0x6b
 5093 0abf 02       		.uleb128 0x2
 5094 0ac0 91       		.byte	0x91
ARM GAS  C:\Users\RECEPC~1\AppData\Local\Temp\cc0bMLA1.s 			page 108


 5095 0ac1 62       		.sleb128 -30
 5096 0ac2 00       		.byte	0
 5097 0ac3 20       		.uleb128 0x20
 5098 0ac4 B80A0000 		.4byte	.LBB13
 5099 0ac8 80050000 		.4byte	.LBE13-.LBB13
 5100 0acc 1B       		.uleb128 0x1b
 5101 0acd 55070000 		.4byte	.LASF223
 5102 0ad1 01       		.byte	0x1
 5103 0ad2 D602     		.2byte	0x2d6
 5104 0ad4 6B000000 		.4byte	0x6b
 5105 0ad8 02       		.uleb128 0x2
 5106 0ad9 91       		.byte	0x91
 5107 0ada 61       		.sleb128 -31
 5108 0adb 1B       		.uleb128 0x1b
 5109 0adc 9D0D0000 		.4byte	.LASF224
 5110 0ae0 01       		.byte	0x1
 5111 0ae1 D702     		.2byte	0x2d7
 5112 0ae3 6B000000 		.4byte	0x6b
 5113 0ae7 02       		.uleb128 0x2
 5114 0ae8 91       		.byte	0x91
 5115 0ae9 60       		.sleb128 -32
 5116 0aea 1B       		.uleb128 0x1b
 5117 0aeb 8B0D0000 		.4byte	.LASF225
 5118 0aef 01       		.byte	0x1
 5119 0af0 2203     		.2byte	0x322
 5120 0af2 6B000000 		.4byte	0x6b
 5121 0af6 02       		.uleb128 0x2
 5122 0af7 91       		.byte	0x91
 5123 0af8 5F       		.sleb128 -33
 5124 0af9 00       		.byte	0
 5125 0afa 00       		.byte	0
 5126 0afb 21       		.uleb128 0x21
 5127 0afc 63090000 		.4byte	.LASF226
 5128 0b00 01       		.byte	0x1
 5129 0b01 C903     		.2byte	0x3c9
 5130 0b03 00000000 		.4byte	.LFB14
 5131 0b07 44000000 		.4byte	.LFE14-.LFB14
 5132 0b0b 01       		.uleb128 0x1
 5133 0b0c 9C       		.byte	0x9c
 5134 0b0d 300B0000 		.4byte	0xb30
 5135 0b11 1E       		.uleb128 0x1e
 5136 0b12 6F0F0000 		.4byte	.LASF191
 5137 0b16 01       		.byte	0x1
 5138 0b17 C903     		.2byte	0x3c9
 5139 0b19 93010000 		.4byte	0x193
 5140 0b1d 02       		.uleb128 0x2
 5141 0b1e 91       		.byte	0x91
 5142 0b1f 74       		.sleb128 -12
 5143 0b20 1E       		.uleb128 0x1e
 5144 0b21 95010000 		.4byte	.LASF189
 5145 0b25 01       		.byte	0x1
 5146 0b26 C903     		.2byte	0x3c9
 5147 0b28 6B000000 		.4byte	0x6b
 5148 0b2c 02       		.uleb128 0x2
 5149 0b2d 91       		.byte	0x91
 5150 0b2e 73       		.sleb128 -13
 5151 0b2f 00       		.byte	0
ARM GAS  C:\Users\RECEPC~1\AppData\Local\Temp\cc0bMLA1.s 			page 109


 5152 0b30 22       		.uleb128 0x22
 5153 0b31 9D120000 		.4byte	.LASF227
 5154 0b35 04       		.byte	0x4
 5155 0b36 5902     		.2byte	0x259
 5156 0b38 9F020000 		.4byte	0x29f
 5157 0b3c 23       		.uleb128 0x23
 5158 0b3d 2B040000 		.4byte	.LASF228
 5159 0b41 08       		.byte	0x8
 5160 0b42 52       		.byte	0x52
 5161 0b43 6B000000 		.4byte	0x6b
 5162 0b47 05       		.uleb128 0x5
 5163 0b48 03       		.byte	0x3
 5164 0b49 00000000 		.4byte	HoseDispenser
 5165 0b4d 0B       		.uleb128 0xb
 5166 0b4e 6B000000 		.4byte	0x6b
 5167 0b52 5D0B0000 		.4byte	0xb5d
 5168 0b56 15       		.uleb128 0x15
 5169 0b57 AE000000 		.4byte	0xae
 5170 0b5b 01       		.byte	0x1
 5171 0b5c 00       		.byte	0
 5172 0b5d 23       		.uleb128 0x23
 5173 0b5e 3F090000 		.4byte	.LASF229
 5174 0b62 01       		.byte	0x1
 5175 0b63 21       		.byte	0x21
 5176 0b64 4D0B0000 		.4byte	0xb4d
 5177 0b68 05       		.uleb128 0x5
 5178 0b69 03       		.byte	0x3
 5179 0b6a 00000000 		.4byte	_g_linefeed
 5180 0b6e 0B       		.uleb128 0xb
 5181 0b6f 6B000000 		.4byte	0x6b
 5182 0b73 7E0B0000 		.4byte	0xb7e
 5183 0b77 15       		.uleb128 0x15
 5184 0b78 AE000000 		.4byte	0xae
 5185 0b7c 1E       		.byte	0x1e
 5186 0b7d 00       		.byte	0
 5187 0b7e 23       		.uleb128 0x23
 5188 0b7f 910E0000 		.4byte	.LASF230
 5189 0b83 01       		.byte	0x1
 5190 0b84 22       		.byte	0x22
 5191 0b85 6E0B0000 		.4byte	0xb6e
 5192 0b89 05       		.uleb128 0x5
 5193 0b8a 03       		.byte	0x3
 5194 0b8b 00000000 		.4byte	_g_padcharacters
 5195 0b8f 23       		.uleb128 0x23
 5196 0b90 000E0000 		.4byte	.LASF231
 5197 0b94 01       		.byte	0x1
 5198 0b95 23       		.byte	0x23
 5199 0b96 6E0B0000 		.4byte	0xb6e
 5200 0b9a 05       		.uleb128 0x5
 5201 0b9b 03       		.byte	0x3
 5202 0b9c 00000000 		.4byte	_g_auxprinterbuffer
 5203 0ba0 23       		.uleb128 0x23
 5204 0ba1 01080000 		.4byte	.LASF232
 5205 0ba5 01       		.byte	0x1
 5206 0ba6 24       		.byte	0x24
 5207 0ba7 6E0B0000 		.4byte	0xb6e
 5208 0bab 05       		.uleb128 0x5
ARM GAS  C:\Users\RECEPC~1\AppData\Local\Temp\cc0bMLA1.s 			page 110


 5209 0bac 03       		.byte	0x3
 5210 0bad 00000000 		.4byte	_g_separator
 5211 0bb1 0B       		.uleb128 0xb
 5212 0bb2 6B000000 		.4byte	0x6b
 5213 0bb6 C10B0000 		.4byte	0xbc1
 5214 0bba 15       		.uleb128 0x15
 5215 0bbb AE000000 		.4byte	0xae
 5216 0bbf 02       		.byte	0x2
 5217 0bc0 00       		.byte	0
 5218 0bc1 23       		.uleb128 0x23
 5219 0bc2 00000000 		.4byte	.LASF233
 5220 0bc6 01       		.byte	0x1
 5221 0bc7 25       		.byte	0x25
 5222 0bc8 B10B0000 		.4byte	0xbb1
 5223 0bcc 05       		.uleb128 0x5
 5224 0bcd 03       		.byte	0x3
 5225 0bce 00000000 		.4byte	_g_autocut
 5226 0bd2 23       		.uleb128 0x23
 5227 0bd3 E8120000 		.4byte	.LASF234
 5228 0bd7 01       		.byte	0x1
 5229 0bd8 26       		.byte	0x26
 5230 0bd9 4D0B0000 		.4byte	0xb4d
 5231 0bdd 05       		.uleb128 0x5
 5232 0bde 03       		.byte	0x3
 5233 0bdf 00000000 		.4byte	_g_starting_position
 5234 0be3 23       		.uleb128 0x23
 5235 0be4 75080000 		.4byte	.LASF235
 5236 0be8 01       		.byte	0x1
 5237 0be9 29       		.byte	0x29
 5238 0bea 1E040000 		.4byte	0x41e
 5239 0bee 05       		.uleb128 0x5
 5240 0bef 03       		.byte	0x3
 5241 0bf0 00000000 		.4byte	_g_logoprintcmd
 5242 0bf4 24       		.uleb128 0x24
 5243 0bf5 3F110000 		.4byte	.LASF236
 5244 0bf9 01       		.byte	0x1
 5245 0bfa 2F       		.byte	0x2f
 5246 0bfb 77000000 		.4byte	0x77
 5247 0bff 24       		.uleb128 0x24
 5248 0c00 62120000 		.4byte	.LASF237
 5249 0c04 01       		.byte	0x1
 5250 0c05 30       		.byte	0x30
 5251 0c06 AF010000 		.4byte	0x1af
 5252 0c0a 00       		.byte	0
 5253              		.section	.debug_abbrev,"",%progbits
 5254              	.Ldebug_abbrev0:
 5255 0000 01       		.uleb128 0x1
 5256 0001 11       		.uleb128 0x11
 5257 0002 01       		.byte	0x1
 5258 0003 25       		.uleb128 0x25
 5259 0004 0E       		.uleb128 0xe
 5260 0005 13       		.uleb128 0x13
 5261 0006 0B       		.uleb128 0xb
 5262 0007 03       		.uleb128 0x3
 5263 0008 0E       		.uleb128 0xe
 5264 0009 1B       		.uleb128 0x1b
 5265 000a 0E       		.uleb128 0xe
ARM GAS  C:\Users\RECEPC~1\AppData\Local\Temp\cc0bMLA1.s 			page 111


 5266 000b 55       		.uleb128 0x55
 5267 000c 17       		.uleb128 0x17
 5268 000d 11       		.uleb128 0x11
 5269 000e 01       		.uleb128 0x1
 5270 000f 10       		.uleb128 0x10
 5271 0010 17       		.uleb128 0x17
 5272 0011 00       		.byte	0
 5273 0012 00       		.byte	0
 5274 0013 02       		.uleb128 0x2
 5275 0014 24       		.uleb128 0x24
 5276 0015 00       		.byte	0
 5277 0016 0B       		.uleb128 0xb
 5278 0017 0B       		.uleb128 0xb
 5279 0018 3E       		.uleb128 0x3e
 5280 0019 0B       		.uleb128 0xb
 5281 001a 03       		.uleb128 0x3
 5282 001b 0E       		.uleb128 0xe
 5283 001c 00       		.byte	0
 5284 001d 00       		.byte	0
 5285 001e 03       		.uleb128 0x3
 5286 001f 24       		.uleb128 0x24
 5287 0020 00       		.byte	0
 5288 0021 0B       		.uleb128 0xb
 5289 0022 0B       		.uleb128 0xb
 5290 0023 3E       		.uleb128 0x3e
 5291 0024 0B       		.uleb128 0xb
 5292 0025 03       		.uleb128 0x3
 5293 0026 08       		.uleb128 0x8
 5294 0027 00       		.byte	0
 5295 0028 00       		.byte	0
 5296 0029 04       		.uleb128 0x4
 5297 002a 16       		.uleb128 0x16
 5298 002b 00       		.byte	0
 5299 002c 03       		.uleb128 0x3
 5300 002d 0E       		.uleb128 0xe
 5301 002e 3A       		.uleb128 0x3a
 5302 002f 0B       		.uleb128 0xb
 5303 0030 3B       		.uleb128 0x3b
 5304 0031 05       		.uleb128 0x5
 5305 0032 49       		.uleb128 0x49
 5306 0033 13       		.uleb128 0x13
 5307 0034 00       		.byte	0
 5308 0035 00       		.byte	0
 5309 0036 05       		.uleb128 0x5
 5310 0037 35       		.uleb128 0x35
 5311 0038 00       		.byte	0
 5312 0039 49       		.uleb128 0x49
 5313 003a 13       		.uleb128 0x13
 5314 003b 00       		.byte	0
 5315 003c 00       		.byte	0
 5316 003d 06       		.uleb128 0x6
 5317 003e 0F       		.uleb128 0xf
 5318 003f 00       		.byte	0
 5319 0040 0B       		.uleb128 0xb
 5320 0041 0B       		.uleb128 0xb
 5321 0042 00       		.byte	0
 5322 0043 00       		.byte	0
ARM GAS  C:\Users\RECEPC~1\AppData\Local\Temp\cc0bMLA1.s 			page 112


 5323 0044 07       		.uleb128 0x7
 5324 0045 0F       		.uleb128 0xf
 5325 0046 00       		.byte	0
 5326 0047 0B       		.uleb128 0xb
 5327 0048 0B       		.uleb128 0xb
 5328 0049 49       		.uleb128 0x49
 5329 004a 13       		.uleb128 0x13
 5330 004b 00       		.byte	0
 5331 004c 00       		.byte	0
 5332 004d 08       		.uleb128 0x8
 5333 004e 13       		.uleb128 0x13
 5334 004f 01       		.byte	0x1
 5335 0050 03       		.uleb128 0x3
 5336 0051 0E       		.uleb128 0xe
 5337 0052 0B       		.uleb128 0xb
 5338 0053 05       		.uleb128 0x5
 5339 0054 3A       		.uleb128 0x3a
 5340 0055 0B       		.uleb128 0xb
 5341 0056 3B       		.uleb128 0x3b
 5342 0057 0B       		.uleb128 0xb
 5343 0058 01       		.uleb128 0x1
 5344 0059 13       		.uleb128 0x13
 5345 005a 00       		.byte	0
 5346 005b 00       		.byte	0
 5347 005c 09       		.uleb128 0x9
 5348 005d 0D       		.uleb128 0xd
 5349 005e 00       		.byte	0
 5350 005f 03       		.uleb128 0x3
 5351 0060 0E       		.uleb128 0xe
 5352 0061 3A       		.uleb128 0x3a
 5353 0062 0B       		.uleb128 0xb
 5354 0063 3B       		.uleb128 0x3b
 5355 0064 0B       		.uleb128 0xb
 5356 0065 49       		.uleb128 0x49
 5357 0066 13       		.uleb128 0x13
 5358 0067 38       		.uleb128 0x38
 5359 0068 0B       		.uleb128 0xb
 5360 0069 00       		.byte	0
 5361 006a 00       		.byte	0
 5362 006b 0A       		.uleb128 0xa
 5363 006c 0D       		.uleb128 0xd
 5364 006d 00       		.byte	0
 5365 006e 03       		.uleb128 0x3
 5366 006f 0E       		.uleb128 0xe
 5367 0070 3A       		.uleb128 0x3a
 5368 0071 0B       		.uleb128 0xb
 5369 0072 3B       		.uleb128 0x3b
 5370 0073 0B       		.uleb128 0xb
 5371 0074 49       		.uleb128 0x49
 5372 0075 13       		.uleb128 0x13
 5373 0076 38       		.uleb128 0x38
 5374 0077 05       		.uleb128 0x5
 5375 0078 00       		.byte	0
 5376 0079 00       		.byte	0
 5377 007a 0B       		.uleb128 0xb
 5378 007b 01       		.uleb128 0x1
 5379 007c 01       		.byte	0x1
ARM GAS  C:\Users\RECEPC~1\AppData\Local\Temp\cc0bMLA1.s 			page 113


 5380 007d 49       		.uleb128 0x49
 5381 007e 13       		.uleb128 0x13
 5382 007f 01       		.uleb128 0x1
 5383 0080 13       		.uleb128 0x13
 5384 0081 00       		.byte	0
 5385 0082 00       		.byte	0
 5386 0083 0C       		.uleb128 0xc
 5387 0084 21       		.uleb128 0x21
 5388 0085 00       		.byte	0
 5389 0086 49       		.uleb128 0x49
 5390 0087 13       		.uleb128 0x13
 5391 0088 2F       		.uleb128 0x2f
 5392 0089 05       		.uleb128 0x5
 5393 008a 00       		.byte	0
 5394 008b 00       		.byte	0
 5395 008c 0D       		.uleb128 0xd
 5396 008d 15       		.uleb128 0x15
 5397 008e 01       		.byte	0x1
 5398 008f 27       		.uleb128 0x27
 5399 0090 19       		.uleb128 0x19
 5400 0091 01       		.uleb128 0x1
 5401 0092 13       		.uleb128 0x13
 5402 0093 00       		.byte	0
 5403 0094 00       		.byte	0
 5404 0095 0E       		.uleb128 0xe
 5405 0096 05       		.uleb128 0x5
 5406 0097 00       		.byte	0
 5407 0098 49       		.uleb128 0x49
 5408 0099 13       		.uleb128 0x13
 5409 009a 00       		.byte	0
 5410 009b 00       		.byte	0
 5411 009c 0F       		.uleb128 0xf
 5412 009d 16       		.uleb128 0x16
 5413 009e 00       		.byte	0
 5414 009f 03       		.uleb128 0x3
 5415 00a0 0E       		.uleb128 0xe
 5416 00a1 3A       		.uleb128 0x3a
 5417 00a2 0B       		.uleb128 0xb
 5418 00a3 3B       		.uleb128 0x3b
 5419 00a4 0B       		.uleb128 0xb
 5420 00a5 49       		.uleb128 0x49
 5421 00a6 13       		.uleb128 0x13
 5422 00a7 00       		.byte	0
 5423 00a8 00       		.byte	0
 5424 00a9 10       		.uleb128 0x10
 5425 00aa 13       		.uleb128 0x13
 5426 00ab 01       		.byte	0x1
 5427 00ac 0B       		.uleb128 0xb
 5428 00ad 0B       		.uleb128 0xb
 5429 00ae 3A       		.uleb128 0x3a
 5430 00af 0B       		.uleb128 0xb
 5431 00b0 3B       		.uleb128 0x3b
 5432 00b1 05       		.uleb128 0x5
 5433 00b2 01       		.uleb128 0x1
 5434 00b3 13       		.uleb128 0x13
 5435 00b4 00       		.byte	0
 5436 00b5 00       		.byte	0
ARM GAS  C:\Users\RECEPC~1\AppData\Local\Temp\cc0bMLA1.s 			page 114


 5437 00b6 11       		.uleb128 0x11
 5438 00b7 0D       		.uleb128 0xd
 5439 00b8 00       		.byte	0
 5440 00b9 03       		.uleb128 0x3
 5441 00ba 0E       		.uleb128 0xe
 5442 00bb 3A       		.uleb128 0x3a
 5443 00bc 0B       		.uleb128 0xb
 5444 00bd 3B       		.uleb128 0x3b
 5445 00be 05       		.uleb128 0x5
 5446 00bf 49       		.uleb128 0x49
 5447 00c0 13       		.uleb128 0x13
 5448 00c1 38       		.uleb128 0x38
 5449 00c2 0B       		.uleb128 0xb
 5450 00c3 00       		.byte	0
 5451 00c4 00       		.byte	0
 5452 00c5 12       		.uleb128 0x12
 5453 00c6 0D       		.uleb128 0xd
 5454 00c7 00       		.byte	0
 5455 00c8 03       		.uleb128 0x3
 5456 00c9 0E       		.uleb128 0xe
 5457 00ca 3A       		.uleb128 0x3a
 5458 00cb 0B       		.uleb128 0xb
 5459 00cc 3B       		.uleb128 0x3b
 5460 00cd 05       		.uleb128 0x5
 5461 00ce 49       		.uleb128 0x49
 5462 00cf 13       		.uleb128 0x13
 5463 00d0 0B       		.uleb128 0xb
 5464 00d1 0B       		.uleb128 0xb
 5465 00d2 0D       		.uleb128 0xd
 5466 00d3 0B       		.uleb128 0xb
 5467 00d4 0C       		.uleb128 0xc
 5468 00d5 0B       		.uleb128 0xb
 5469 00d6 38       		.uleb128 0x38
 5470 00d7 0B       		.uleb128 0xb
 5471 00d8 00       		.byte	0
 5472 00d9 00       		.byte	0
 5473 00da 13       		.uleb128 0x13
 5474 00db 04       		.uleb128 0x4
 5475 00dc 01       		.byte	0x1
 5476 00dd 03       		.uleb128 0x3
 5477 00de 0E       		.uleb128 0xe
 5478 00df 0B       		.uleb128 0xb
 5479 00e0 0B       		.uleb128 0xb
 5480 00e1 3A       		.uleb128 0x3a
 5481 00e2 0B       		.uleb128 0xb
 5482 00e3 3B       		.uleb128 0x3b
 5483 00e4 0B       		.uleb128 0xb
 5484 00e5 01       		.uleb128 0x1
 5485 00e6 13       		.uleb128 0x13
 5486 00e7 00       		.byte	0
 5487 00e8 00       		.byte	0
 5488 00e9 14       		.uleb128 0x14
 5489 00ea 28       		.uleb128 0x28
 5490 00eb 00       		.byte	0
 5491 00ec 03       		.uleb128 0x3
 5492 00ed 0E       		.uleb128 0xe
 5493 00ee 1C       		.uleb128 0x1c
ARM GAS  C:\Users\RECEPC~1\AppData\Local\Temp\cc0bMLA1.s 			page 115


 5494 00ef 0D       		.uleb128 0xd
 5495 00f0 00       		.byte	0
 5496 00f1 00       		.byte	0
 5497 00f2 15       		.uleb128 0x15
 5498 00f3 21       		.uleb128 0x21
 5499 00f4 00       		.byte	0
 5500 00f5 49       		.uleb128 0x49
 5501 00f6 13       		.uleb128 0x13
 5502 00f7 2F       		.uleb128 0x2f
 5503 00f8 0B       		.uleb128 0xb
 5504 00f9 00       		.byte	0
 5505 00fa 00       		.byte	0
 5506 00fb 16       		.uleb128 0x16
 5507 00fc 2E       		.uleb128 0x2e
 5508 00fd 01       		.byte	0x1
 5509 00fe 3F       		.uleb128 0x3f
 5510 00ff 19       		.uleb128 0x19
 5511 0100 03       		.uleb128 0x3
 5512 0101 0E       		.uleb128 0xe
 5513 0102 3A       		.uleb128 0x3a
 5514 0103 0B       		.uleb128 0xb
 5515 0104 3B       		.uleb128 0x3b
 5516 0105 0B       		.uleb128 0xb
 5517 0106 27       		.uleb128 0x27
 5518 0107 19       		.uleb128 0x19
 5519 0108 11       		.uleb128 0x11
 5520 0109 01       		.uleb128 0x1
 5521 010a 12       		.uleb128 0x12
 5522 010b 06       		.uleb128 0x6
 5523 010c 40       		.uleb128 0x40
 5524 010d 18       		.uleb128 0x18
 5525 010e 9642     		.uleb128 0x2116
 5526 0110 19       		.uleb128 0x19
 5527 0111 01       		.uleb128 0x1
 5528 0112 13       		.uleb128 0x13
 5529 0113 00       		.byte	0
 5530 0114 00       		.byte	0
 5531 0115 17       		.uleb128 0x17
 5532 0116 05       		.uleb128 0x5
 5533 0117 00       		.byte	0
 5534 0118 03       		.uleb128 0x3
 5535 0119 0E       		.uleb128 0xe
 5536 011a 3A       		.uleb128 0x3a
 5537 011b 0B       		.uleb128 0xb
 5538 011c 3B       		.uleb128 0x3b
 5539 011d 0B       		.uleb128 0xb
 5540 011e 49       		.uleb128 0x49
 5541 011f 13       		.uleb128 0x13
 5542 0120 02       		.uleb128 0x2
 5543 0121 18       		.uleb128 0x18
 5544 0122 00       		.byte	0
 5545 0123 00       		.byte	0
 5546 0124 18       		.uleb128 0x18
 5547 0125 34       		.uleb128 0x34
 5548 0126 00       		.byte	0
 5549 0127 03       		.uleb128 0x3
 5550 0128 0E       		.uleb128 0xe
ARM GAS  C:\Users\RECEPC~1\AppData\Local\Temp\cc0bMLA1.s 			page 116


 5551 0129 3A       		.uleb128 0x3a
 5552 012a 0B       		.uleb128 0xb
 5553 012b 3B       		.uleb128 0x3b
 5554 012c 0B       		.uleb128 0xb
 5555 012d 49       		.uleb128 0x49
 5556 012e 13       		.uleb128 0x13
 5557 012f 02       		.uleb128 0x2
 5558 0130 18       		.uleb128 0x18
 5559 0131 00       		.byte	0
 5560 0132 00       		.byte	0
 5561 0133 19       		.uleb128 0x19
 5562 0134 2E       		.uleb128 0x2e
 5563 0135 01       		.byte	0x1
 5564 0136 3F       		.uleb128 0x3f
 5565 0137 19       		.uleb128 0x19
 5566 0138 03       		.uleb128 0x3
 5567 0139 0E       		.uleb128 0xe
 5568 013a 3A       		.uleb128 0x3a
 5569 013b 0B       		.uleb128 0xb
 5570 013c 3B       		.uleb128 0x3b
 5571 013d 0B       		.uleb128 0xb
 5572 013e 27       		.uleb128 0x27
 5573 013f 19       		.uleb128 0x19
 5574 0140 49       		.uleb128 0x49
 5575 0141 13       		.uleb128 0x13
 5576 0142 11       		.uleb128 0x11
 5577 0143 01       		.uleb128 0x1
 5578 0144 12       		.uleb128 0x12
 5579 0145 06       		.uleb128 0x6
 5580 0146 40       		.uleb128 0x40
 5581 0147 18       		.uleb128 0x18
 5582 0148 9742     		.uleb128 0x2117
 5583 014a 19       		.uleb128 0x19
 5584 014b 01       		.uleb128 0x1
 5585 014c 13       		.uleb128 0x13
 5586 014d 00       		.byte	0
 5587 014e 00       		.byte	0
 5588 014f 1A       		.uleb128 0x1a
 5589 0150 0B       		.uleb128 0xb
 5590 0151 01       		.byte	0x1
 5591 0152 55       		.uleb128 0x55
 5592 0153 17       		.uleb128 0x17
 5593 0154 01       		.uleb128 0x1
 5594 0155 13       		.uleb128 0x13
 5595 0156 00       		.byte	0
 5596 0157 00       		.byte	0
 5597 0158 1B       		.uleb128 0x1b
 5598 0159 34       		.uleb128 0x34
 5599 015a 00       		.byte	0
 5600 015b 03       		.uleb128 0x3
 5601 015c 0E       		.uleb128 0xe
 5602 015d 3A       		.uleb128 0x3a
 5603 015e 0B       		.uleb128 0xb
 5604 015f 3B       		.uleb128 0x3b
 5605 0160 05       		.uleb128 0x5
 5606 0161 49       		.uleb128 0x49
 5607 0162 13       		.uleb128 0x13
ARM GAS  C:\Users\RECEPC~1\AppData\Local\Temp\cc0bMLA1.s 			page 117


 5608 0163 02       		.uleb128 0x2
 5609 0164 18       		.uleb128 0x18
 5610 0165 00       		.byte	0
 5611 0166 00       		.byte	0
 5612 0167 1C       		.uleb128 0x1c
 5613 0168 0B       		.uleb128 0xb
 5614 0169 01       		.byte	0x1
 5615 016a 55       		.uleb128 0x55
 5616 016b 17       		.uleb128 0x17
 5617 016c 00       		.byte	0
 5618 016d 00       		.byte	0
 5619 016e 1D       		.uleb128 0x1d
 5620 016f 2E       		.uleb128 0x2e
 5621 0170 01       		.byte	0x1
 5622 0171 3F       		.uleb128 0x3f
 5623 0172 19       		.uleb128 0x19
 5624 0173 03       		.uleb128 0x3
 5625 0174 0E       		.uleb128 0xe
 5626 0175 3A       		.uleb128 0x3a
 5627 0176 0B       		.uleb128 0xb
 5628 0177 3B       		.uleb128 0x3b
 5629 0178 05       		.uleb128 0x5
 5630 0179 27       		.uleb128 0x27
 5631 017a 19       		.uleb128 0x19
 5632 017b 49       		.uleb128 0x49
 5633 017c 13       		.uleb128 0x13
 5634 017d 11       		.uleb128 0x11
 5635 017e 01       		.uleb128 0x1
 5636 017f 12       		.uleb128 0x12
 5637 0180 06       		.uleb128 0x6
 5638 0181 40       		.uleb128 0x40
 5639 0182 18       		.uleb128 0x18
 5640 0183 9642     		.uleb128 0x2116
 5641 0185 19       		.uleb128 0x19
 5642 0186 01       		.uleb128 0x1
 5643 0187 13       		.uleb128 0x13
 5644 0188 00       		.byte	0
 5645 0189 00       		.byte	0
 5646 018a 1E       		.uleb128 0x1e
 5647 018b 05       		.uleb128 0x5
 5648 018c 00       		.byte	0
 5649 018d 03       		.uleb128 0x3
 5650 018e 0E       		.uleb128 0xe
 5651 018f 3A       		.uleb128 0x3a
 5652 0190 0B       		.uleb128 0xb
 5653 0191 3B       		.uleb128 0x3b
 5654 0192 05       		.uleb128 0x5
 5655 0193 49       		.uleb128 0x49
 5656 0194 13       		.uleb128 0x13
 5657 0195 02       		.uleb128 0x2
 5658 0196 18       		.uleb128 0x18
 5659 0197 00       		.byte	0
 5660 0198 00       		.byte	0
 5661 0199 1F       		.uleb128 0x1f
 5662 019a 0B       		.uleb128 0xb
 5663 019b 01       		.byte	0x1
 5664 019c 11       		.uleb128 0x11
ARM GAS  C:\Users\RECEPC~1\AppData\Local\Temp\cc0bMLA1.s 			page 118


 5665 019d 01       		.uleb128 0x1
 5666 019e 12       		.uleb128 0x12
 5667 019f 06       		.uleb128 0x6
 5668 01a0 01       		.uleb128 0x1
 5669 01a1 13       		.uleb128 0x13
 5670 01a2 00       		.byte	0
 5671 01a3 00       		.byte	0
 5672 01a4 20       		.uleb128 0x20
 5673 01a5 0B       		.uleb128 0xb
 5674 01a6 01       		.byte	0x1
 5675 01a7 11       		.uleb128 0x11
 5676 01a8 01       		.uleb128 0x1
 5677 01a9 12       		.uleb128 0x12
 5678 01aa 06       		.uleb128 0x6
 5679 01ab 00       		.byte	0
 5680 01ac 00       		.byte	0
 5681 01ad 21       		.uleb128 0x21
 5682 01ae 2E       		.uleb128 0x2e
 5683 01af 01       		.byte	0x1
 5684 01b0 3F       		.uleb128 0x3f
 5685 01b1 19       		.uleb128 0x19
 5686 01b2 03       		.uleb128 0x3
 5687 01b3 0E       		.uleb128 0xe
 5688 01b4 3A       		.uleb128 0x3a
 5689 01b5 0B       		.uleb128 0xb
 5690 01b6 3B       		.uleb128 0x3b
 5691 01b7 05       		.uleb128 0x5
 5692 01b8 27       		.uleb128 0x27
 5693 01b9 19       		.uleb128 0x19
 5694 01ba 11       		.uleb128 0x11
 5695 01bb 01       		.uleb128 0x1
 5696 01bc 12       		.uleb128 0x12
 5697 01bd 06       		.uleb128 0x6
 5698 01be 40       		.uleb128 0x40
 5699 01bf 18       		.uleb128 0x18
 5700 01c0 9642     		.uleb128 0x2116
 5701 01c2 19       		.uleb128 0x19
 5702 01c3 01       		.uleb128 0x1
 5703 01c4 13       		.uleb128 0x13
 5704 01c5 00       		.byte	0
 5705 01c6 00       		.byte	0
 5706 01c7 22       		.uleb128 0x22
 5707 01c8 34       		.uleb128 0x34
 5708 01c9 00       		.byte	0
 5709 01ca 03       		.uleb128 0x3
 5710 01cb 0E       		.uleb128 0xe
 5711 01cc 3A       		.uleb128 0x3a
 5712 01cd 0B       		.uleb128 0xb
 5713 01ce 3B       		.uleb128 0x3b
 5714 01cf 05       		.uleb128 0x5
 5715 01d0 49       		.uleb128 0x49
 5716 01d1 13       		.uleb128 0x13
 5717 01d2 3F       		.uleb128 0x3f
 5718 01d3 19       		.uleb128 0x19
 5719 01d4 3C       		.uleb128 0x3c
 5720 01d5 19       		.uleb128 0x19
 5721 01d6 00       		.byte	0
ARM GAS  C:\Users\RECEPC~1\AppData\Local\Temp\cc0bMLA1.s 			page 119


 5722 01d7 00       		.byte	0
 5723 01d8 23       		.uleb128 0x23
 5724 01d9 34       		.uleb128 0x34
 5725 01da 00       		.byte	0
 5726 01db 03       		.uleb128 0x3
 5727 01dc 0E       		.uleb128 0xe
 5728 01dd 3A       		.uleb128 0x3a
 5729 01de 0B       		.uleb128 0xb
 5730 01df 3B       		.uleb128 0x3b
 5731 01e0 0B       		.uleb128 0xb
 5732 01e1 49       		.uleb128 0x49
 5733 01e2 13       		.uleb128 0x13
 5734 01e3 3F       		.uleb128 0x3f
 5735 01e4 19       		.uleb128 0x19
 5736 01e5 02       		.uleb128 0x2
 5737 01e6 18       		.uleb128 0x18
 5738 01e7 00       		.byte	0
 5739 01e8 00       		.byte	0
 5740 01e9 24       		.uleb128 0x24
 5741 01ea 34       		.uleb128 0x34
 5742 01eb 00       		.byte	0
 5743 01ec 03       		.uleb128 0x3
 5744 01ed 0E       		.uleb128 0xe
 5745 01ee 3A       		.uleb128 0x3a
 5746 01ef 0B       		.uleb128 0xb
 5747 01f0 3B       		.uleb128 0x3b
 5748 01f1 0B       		.uleb128 0xb
 5749 01f2 49       		.uleb128 0x49
 5750 01f3 13       		.uleb128 0x13
 5751 01f4 3F       		.uleb128 0x3f
 5752 01f5 19       		.uleb128 0x19
 5753 01f6 3C       		.uleb128 0x3c
 5754 01f7 19       		.uleb128 0x19
 5755 01f8 00       		.byte	0
 5756 01f9 00       		.byte	0
 5757 01fa 00       		.byte	0
 5758              		.section	.debug_aranges,"",%progbits
 5759 0000 8C000000 		.4byte	0x8c
 5760 0004 0200     		.2byte	0x2
 5761 0006 00000000 		.4byte	.Ldebug_info0
 5762 000a 04       		.byte	0x4
 5763 000b 00       		.byte	0
 5764 000c 0000     		.2byte	0
 5765 000e 0000     		.2byte	0
 5766 0010 00000000 		.4byte	.LFB0
 5767 0014 3C000000 		.4byte	.LFE0-.LFB0
 5768 0018 00000000 		.4byte	.LFB1
 5769 001c 52000000 		.4byte	.LFE1-.LFB1
 5770 0020 00000000 		.4byte	.LFB2
 5771 0024 52000000 		.4byte	.LFE2-.LFB2
 5772 0028 00000000 		.4byte	.LFB3
 5773 002c 52000000 		.4byte	.LFE3-.LFB3
 5774 0030 00000000 		.4byte	.LFB4
 5775 0034 52000000 		.4byte	.LFE4-.LFB4
 5776 0038 00000000 		.4byte	.LFB5
 5777 003c 1A000000 		.4byte	.LFE5-.LFB5
 5778 0040 00000000 		.4byte	.LFB6
ARM GAS  C:\Users\RECEPC~1\AppData\Local\Temp\cc0bMLA1.s 			page 120


 5779 0044 1A000000 		.4byte	.LFE6-.LFB6
 5780 0048 00000000 		.4byte	.LFB7
 5781 004c 34000000 		.4byte	.LFE7-.LFB7
 5782 0050 00000000 		.4byte	.LFB8
 5783 0054 18000000 		.4byte	.LFE8-.LFB8
 5784 0058 00000000 		.4byte	.LFB9
 5785 005c 18000000 		.4byte	.LFE9-.LFB9
 5786 0060 00000000 		.4byte	.LFB10
 5787 0064 24000000 		.4byte	.LFE10-.LFB10
 5788 0068 00000000 		.4byte	.LFB11
 5789 006c C6030000 		.4byte	.LFE11-.LFB11
 5790 0070 00000000 		.4byte	.LFB12
 5791 0074 40010000 		.4byte	.LFE12-.LFB12
 5792 0078 00000000 		.4byte	.LFB13
 5793 007c A0110000 		.4byte	.LFE13-.LFB13
 5794 0080 00000000 		.4byte	.LFB14
 5795 0084 44000000 		.4byte	.LFE14-.LFB14
 5796 0088 00000000 		.4byte	0
 5797 008c 00000000 		.4byte	0
 5798              		.section	.debug_ranges,"",%progbits
 5799              	.Ldebug_ranges0:
 5800 0000 2A000000 		.4byte	.LBB2
 5801 0004 F8000000 		.4byte	.LBE2
 5802 0008 B2030000 		.4byte	.LBB6
 5803 000c B6030000 		.4byte	.LBE6
 5804 0010 00000000 		.4byte	0
 5805 0014 00000000 		.4byte	0
 5806 0018 12010000 		.4byte	.LBB3
 5807 001c E0010000 		.4byte	.LBE3
 5808 0020 B6030000 		.4byte	.LBB7
 5809 0024 BA030000 		.4byte	.LBE7
 5810 0028 00000000 		.4byte	0
 5811 002c 00000000 		.4byte	0
 5812 0030 FA010000 		.4byte	.LBB4
 5813 0034 C8020000 		.4byte	.LBE4
 5814 0038 BA030000 		.4byte	.LBB8
 5815 003c BE030000 		.4byte	.LBE8
 5816 0040 00000000 		.4byte	0
 5817 0044 00000000 		.4byte	0
 5818 0048 E2020000 		.4byte	.LBB5
 5819 004c B2030000 		.4byte	.LBE5
 5820 0050 BE030000 		.4byte	.LBB9
 5821 0054 C0030000 		.4byte	.LBE9
 5822 0058 00000000 		.4byte	0
 5823 005c 00000000 		.4byte	0
 5824 0060 00000000 		.4byte	.LFB0
 5825 0064 3C000000 		.4byte	.LFE0
 5826 0068 00000000 		.4byte	.LFB1
 5827 006c 52000000 		.4byte	.LFE1
 5828 0070 00000000 		.4byte	.LFB2
 5829 0074 52000000 		.4byte	.LFE2
 5830 0078 00000000 		.4byte	.LFB3
 5831 007c 52000000 		.4byte	.LFE3
 5832 0080 00000000 		.4byte	.LFB4
 5833 0084 52000000 		.4byte	.LFE4
 5834 0088 00000000 		.4byte	.LFB5
 5835 008c 1A000000 		.4byte	.LFE5
ARM GAS  C:\Users\RECEPC~1\AppData\Local\Temp\cc0bMLA1.s 			page 121


 5836 0090 00000000 		.4byte	.LFB6
 5837 0094 1A000000 		.4byte	.LFE6
 5838 0098 00000000 		.4byte	.LFB7
 5839 009c 34000000 		.4byte	.LFE7
 5840 00a0 00000000 		.4byte	.LFB8
 5841 00a4 18000000 		.4byte	.LFE8
 5842 00a8 00000000 		.4byte	.LFB9
 5843 00ac 18000000 		.4byte	.LFE9
 5844 00b0 00000000 		.4byte	.LFB10
 5845 00b4 24000000 		.4byte	.LFE10
 5846 00b8 00000000 		.4byte	.LFB11
 5847 00bc C6030000 		.4byte	.LFE11
 5848 00c0 00000000 		.4byte	.LFB12
 5849 00c4 40010000 		.4byte	.LFE12
 5850 00c8 00000000 		.4byte	.LFB13
 5851 00cc A0110000 		.4byte	.LFE13
 5852 00d0 00000000 		.4byte	.LFB14
 5853 00d4 44000000 		.4byte	.LFE14
 5854 00d8 00000000 		.4byte	0
 5855 00dc 00000000 		.4byte	0
 5856              		.section	.debug_line,"",%progbits
 5857              	.Ldebug_line0:
 5858 0000 74040000 		.section	.debug_str,"MS",%progbits,1
 5858      0200B900 
 5858      00000201 
 5858      FB0E0D00 
 5858      01010101 
 5859              	.LASF233:
 5860 0000 5F675F61 		.ascii	"_g_autocut\000"
 5860      75746F63 
 5860      757400
 5861              	.LASF10:
 5862 000b 75696E74 		.ascii	"uint16\000"
 5862      313600
 5863              	.LASF160:
 5864 0012 50524E5F 		.ascii	"PRN_BALANCE\000"
 5864      42414C41 
 5864      4E434500 
 5865              	.LASF83:
 5866 001e 44495350 		.ascii	"DISPLAY_POR_FAVOR_ESPERE\000"
 5866      4C41595F 
 5866      504F525F 
 5866      4641564F 
 5866      525F4553 
 5867              	.LASF194:
 5868 0037 5072696E 		.ascii	"Printer12Callback\000"
 5868      74657231 
 5868      3243616C 
 5868      6C626163 
 5868      6B00
 5869              	.LASF196:
 5870 0049 5072696E 		.ascii	"Printer22Callback\000"
 5870      74657232 
 5870      3243616C 
 5870      6C626163 
 5870      6B00
 5871              	.LASF216:
ARM GAS  C:\Users\RECEPC~1\AppData\Local\Temp\cc0bMLA1.s 			page 122


 5872 005b 70726566 		.ascii	"pref\000"
 5872      00
 5873              	.LASF39:
 5874 0060 5F6D6F6E 		.ascii	"_moneydecimals\000"
 5874      65796465 
 5874      63696D61 
 5874      6C7300
 5875              	.LASF95:
 5876 006f 44495350 		.ascii	"DISPLAY_AMBAS_IMPRESORAS_FUNCIONANDO\000"
 5876      4C41595F 
 5876      414D4241 
 5876      535F494D 
 5876      50524553 
 5877              	.LASF168:
 5878 0094 50524E5F 		.ascii	"PRN_VOLUMEMONTH\000"
 5878      564F4C55 
 5878      4D454D4F 
 5878      4E544800 
 5879              	.LASF221:
 5880 00a4 616D706D 		.ascii	"ampm\000"
 5880      00
 5881              	.LASF28:
 5882 00a9 43616C6C 		.ascii	"Callback\000"
 5882      6261636B 
 5882      00
 5883              	.LASF127:
 5884 00b2 45455052 		.ascii	"EEPROM_INSEPET_RESERVED_PAGE1\000"
 5884      4F4D5F49 
 5884      4E534550 
 5884      45545F52 
 5884      45534552 
 5885              	.LASF0:
 5886 00d0 7369676E 		.ascii	"signed char\000"
 5886      65642063 
 5886      68617200 
 5887              	.LASF129:
 5888 00dc 45455052 		.ascii	"EEPROM_INSEPET_RESERVED_PAGE3\000"
 5888      4F4D5F49 
 5888      4E534550 
 5888      45545F52 
 5888      45534552 
 5889              	.LASF130:
 5890 00fa 45455052 		.ascii	"EEPROM_INSEPET_RESERVED_PAGE4\000"
 5890      4F4D5F49 
 5890      4E534550 
 5890      45545F52 
 5890      45534552 
 5891              	.LASF46:
 5892 0118 5F707265 		.ascii	"_presetdigits\000"
 5892      73657464 
 5892      69676974 
 5892      7300
 5893              	.LASF18:
 5894 0126 5F6D6573 		.ascii	"_messageid\000"
 5894      73616765 
 5894      696400
 5895              	.LASF135:
ARM GAS  C:\Users\RECEPC~1\AppData\Local\Temp\cc0bMLA1.s 			page 123


 5896 0131 45455052 		.ascii	"EEPROM_DISPENSER_PUMP21_TRANSACTION_PAGE\000"
 5896      4F4D5F44 
 5896      49535045 
 5896      4E534552 
 5896      5F50554D 
 5897              	.LASF32:
 5898 015a 5F696E63 		.ascii	"_inconfiguration\000"
 5898      6F6E6669 
 5898      67757261 
 5898      74696F6E 
 5898      00
 5899              	.LASF206:
 5900 016b 47657450 		.ascii	"GetProductNameFromPumpAndHose\000"
 5900      726F6475 
 5900      63744E61 
 5900      6D654672 
 5900      6F6D5075 
 5901              	.LASF181:
 5902 0189 5254435F 		.ascii	"RTC_SECONDS\000"
 5902      5345434F 
 5902      4E445300 
 5903              	.LASF189:
 5904 0195 7072696E 		.ascii	"printerport\000"
 5904      74657270 
 5904      6F727400 
 5905              	.LASF200:
 5906 01a1 72657476 		.ascii	"retval\000"
 5906      616C00
 5907              	.LASF157:
 5908 01a8 50524E5F 		.ascii	"PRN_TRANSTYPE\000"
 5908      5452414E 
 5908      53545950 
 5908      4500
 5909              	.LASF183:
 5910 01b6 5254435F 		.ascii	"RTC_HOUR\000"
 5910      484F5552 
 5910      00
 5911              	.LASF7:
 5912 01bf 6C6F6E67 		.ascii	"long long unsigned int\000"
 5912      206C6F6E 
 5912      6720756E 
 5912      7369676E 
 5912      65642069 
 5913              	.LASF205:
 5914 01d6 73747269 		.ascii	"stringlength\000"
 5914      6E676C65 
 5914      6E677468 
 5914      00
 5915              	.LASF222:
 5916 01e3 74663132 		.ascii	"tf12\000"
 5916      00
 5917              	.LASF178:
 5918 01e8 50524E5F 		.ascii	"PRN_SIGNATURE\000"
 5918      5349474E 
 5918      41545552 
 5918      4500
 5919              	.LASF192:
ARM GAS  C:\Users\RECEPC~1\AppData\Local\Temp\cc0bMLA1.s 			page 124


 5920 01f6 6E756D62 		.ascii	"numberofprintedcopies\000"
 5920      65726F66 
 5920      7072696E 
 5920      74656463 
 5920      6F706965 
 5921              	.LASF45:
 5922 020c 5F646973 		.ascii	"_displaydigitsmode\000"
 5922      706C6179 
 5922      64696769 
 5922      74736D6F 
 5922      646500
 5923              	.LASF107:
 5924 021f 45455052 		.ascii	"EEPROM_CONFIGURATION_PAGE0\000"
 5924      4F4D5F43 
 5924      4F4E4649 
 5924      47555241 
 5924      54494F4E 
 5925              	.LASF108:
 5926 023a 45455052 		.ascii	"EEPROM_CONFIGURATION_PAGE1\000"
 5926      4F4D5F43 
 5926      4F4E4649 
 5926      47555241 
 5926      54494F4E 
 5927              	.LASF109:
 5928 0255 45455052 		.ascii	"EEPROM_CONFIGURATION_PAGE2\000"
 5928      4F4D5F43 
 5928      4F4E4649 
 5928      47555241 
 5928      54494F4E 
 5929              	.LASF110:
 5930 0270 45455052 		.ascii	"EEPROM_CONFIGURATION_PAGE3\000"
 5930      4F4D5F43 
 5930      4F4E4649 
 5930      47555241 
 5930      54494F4E 
 5931              	.LASF111:
 5932 028b 45455052 		.ascii	"EEPROM_CONFIGURATION_PAGE4\000"
 5932      4F4D5F43 
 5932      4F4E4649 
 5932      47555241 
 5932      54494F4E 
 5933              	.LASF112:
 5934 02a6 45455052 		.ascii	"EEPROM_CONFIGURATION_PAGE5\000"
 5934      4F4D5F43 
 5934      4F4E4649 
 5934      47555241 
 5934      54494F4E 
 5935              	.LASF113:
 5936 02c1 45455052 		.ascii	"EEPROM_CONFIGURATION_PAGE6\000"
 5936      4F4D5F43 
 5936      4F4E4649 
 5936      47555241 
 5936      54494F4E 
 5937              	.LASF114:
 5938 02dc 45455052 		.ascii	"EEPROM_CONFIGURATION_PAGE7\000"
 5938      4F4D5F43 
 5938      4F4E4649 
ARM GAS  C:\Users\RECEPC~1\AppData\Local\Temp\cc0bMLA1.s 			page 125


 5938      47555241 
 5938      54494F4E 
 5939              	.LASF137:
 5940 02f7 45455052 		.ascii	"EEPROM_DISPENSER_PUMP23_TRANSACTION_PAGE\000"
 5940      4F4D5F44 
 5940      49535045 
 5940      4E534552 
 5940      5F50554D 
 5941              	.LASF125:
 5942 0320 45455052 		.ascii	"EEPROM_DISPENSER_PUMP3_PPU_INFO_PAGE\000"
 5942      4F4D5F44 
 5942      49535045 
 5942      4E534552 
 5942      5F50554D 
 5943              	.LASF86:
 5944 0345 44495350 		.ascii	"DISPLAY_CONFIGURAR_FECHA_HORA\000"
 5944      4C41595F 
 5944      434F4E46 
 5944      49475552 
 5944      41525F46 
 5945              	.LASF82:
 5946 0363 44495350 		.ascii	"DISPLAY_ESPERANDO_AUTORIZACION\000"
 5946      4C41595F 
 5946      45535045 
 5946      52414E44 
 5946      4F5F4155 
 5947              	.LASF26:
 5948 0382 5F627566 		.ascii	"_buffersize\000"
 5948      66657273 
 5948      697A6500 
 5949              	.LASF119:
 5950 038e 45455052 		.ascii	"EEPROM_DISPENSER_PUMP1_PRODUCT_NAMES_PAGE\000"
 5950      4F4D5F44 
 5950      49535045 
 5950      4E534552 
 5950      5F50554D 
 5951              	.LASF122:
 5952 03b8 45455052 		.ascii	"EEPROM_DISPENSER_PUMP4_PRODUCT_NAMES_PAGE\000"
 5952      4F4D5F44 
 5952      49535045 
 5952      4E534552 
 5952      5F50554D 
 5953              	.LASF35:
 5954 03e2 5F686F73 		.ascii	"_hosesposition1\000"
 5954      6573706F 
 5954      73697469 
 5954      6F6E3100 
 5955              	.LASF36:
 5956 03f2 5F686F73 		.ascii	"_hosesposition2\000"
 5956      6573706F 
 5956      73697469 
 5956      6F6E3200 
 5957              	.LASF145:
 5958 0402 45455052 		.ascii	"EEPROM_DISPENSER_PUMP43_TRANSACTION_PAGE\000"
 5958      4F4D5F44 
 5958      49535045 
 5958      4E534552 
ARM GAS  C:\Users\RECEPC~1\AppData\Local\Temp\cc0bMLA1.s 			page 126


 5958      5F50554D 
 5959              	.LASF228:
 5960 042b 486F7365 		.ascii	"HoseDispenser\000"
 5960      44697370 
 5960      656E7365 
 5960      7200
 5961              	.LASF4:
 5962 0439 6C6F6E67 		.ascii	"long int\000"
 5962      20696E74 
 5962      00
 5963              	.LASF138:
 5964 0442 45455052 		.ascii	"EEPROM_DISPENSER_PUMP24_TRANSACTION_PAGE\000"
 5964      4F4D5F44 
 5964      49535045 
 5964      4E534552 
 5964      5F50554D 
 5965              	.LASF176:
 5966 046b 50524E5F 		.ascii	"PRN_MONEY\000"
 5966      4D4F4E45 
 5966      5900
 5967              	.LASF70:
 5968 0475 44495350 		.ascii	"DISPLAY_ID_NO_RECONOCIDO\000"
 5968      4C41595F 
 5968      49445F4E 
 5968      4F5F5245 
 5968      434F4E4F 
 5969              	.LASF94:
 5970 048e 44495350 		.ascii	"DISPLAY_USUARIO_INVALIDO\000"
 5970      4C41595F 
 5970      55535541 
 5970      52494F5F 
 5970      494E5641 
 5971              	.LASF169:
 5972 04a7 50524E5F 		.ascii	"PRN_MONEYDAY\000"
 5972      4D4F4E45 
 5972      59444159 
 5972      00
 5973              	.LASF9:
 5974 04b4 75696E74 		.ascii	"uint8\000"
 5974      3800
 5975              	.LASF93:
 5976 04ba 44495350 		.ascii	"DISPLAY_USUARIO_VALIDO\000"
 5976      4C41595F 
 5976      55535541 
 5976      52494F5F 
 5976      56414C49 
 5977              	.LASF25:
 5978 04d1 5F627566 		.ascii	"_buffer\000"
 5978      66657200 
 5979              	.LASF24:
 5980 04d9 5F6D6573 		.ascii	"_messagetimeoutlimit\000"
 5980      73616765 
 5980      74696D65 
 5980      6F75746C 
 5980      696D6974 
 5981              	.LASF144:
 5982 04ee 45455052 		.ascii	"EEPROM_DISPENSER_PUMP42_TRANSACTION_PAGE\000"
ARM GAS  C:\Users\RECEPC~1\AppData\Local\Temp\cc0bMLA1.s 			page 127


 5982      4F4D5F44 
 5982      49535045 
 5982      4E534552 
 5982      5F50554D 
 5983              	.LASF199:
 5984 0517 70747262 		.ascii	"ptrbuffer\000"
 5984      75666665 
 5984      7200
 5985              	.LASF161:
 5986 0521 50524E5F 		.ascii	"PRN_COMPANY\000"
 5986      434F4D50 
 5986      414E5900 
 5987              	.LASF16:
 5988 052d 6C6F6E67 		.ascii	"long double\000"
 5988      20646F75 
 5988      626C6500 
 5989              	.LASF132:
 5990 0539 45455052 		.ascii	"EEPROM_DISPENSER_PUMP12_TRANSACTION_PAGE\000"
 5990      4F4D5F44 
 5990      49535045 
 5990      4E534552 
 5990      5F50554D 
 5991              	.LASF67:
 5992 0562 44495350 		.ascii	"DISPLAY_TIEMPO_EXPIRADO\000"
 5992      4C41595F 
 5992      5449454D 
 5992      504F5F45 
 5992      58504952 
 5993              	.LASF152:
 5994 057a 5F505249 		.ascii	"_PRINTER_NAMED_LINES_\000"
 5994      4E544552 
 5994      5F4E414D 
 5994      45445F4C 
 5994      494E4553 
 5995              	.LASF167:
 5996 0590 50524E5F 		.ascii	"PRN_VOLUMEWEEK\000"
 5996      564F4C55 
 5996      4D455745 
 5996      454B00
 5997              	.LASF88:
 5998 059f 44495350 		.ascii	"DISPLAY_FECHA\000"
 5998      4C41595F 
 5998      46454348 
 5998      4100
 5999              	.LASF71:
 6000 05ad 44495350 		.ascii	"DISPLAY_ESPERANDO_ID\000"
 6000      4C41595F 
 6000      45535045 
 6000      52414E44 
 6000      4F5F4944 
 6001              	.LASF203:
 6002 05c2 4D656173 		.ascii	"MeasurePrinterASCIIBufferLength\000"
 6002      75726550 
 6002      72696E74 
 6002      65724153 
 6002      43494942 
 6003              	.LASF220:
ARM GAS  C:\Users\RECEPC~1\AppData\Local\Temp\cc0bMLA1.s 			page 128


 6004 05e2 70726566 		.ascii	"prefstr\000"
 6004      73747200 
 6005              	.LASF239:
 6006 05ea 2E5C5072 		.ascii	".\\PrinterBLL.c\000"
 6006      696E7465 
 6006      72424C4C 
 6006      2E6300
 6007              	.LASF139:
 6008 05f9 45455052 		.ascii	"EEPROM_DISPENSER_PUMP31_TRANSACTION_PAGE\000"
 6008      4F4D5F44 
 6008      49535045 
 6008      4E534552 
 6008      5F50554D 
 6009              	.LASF204:
 6010 0622 50616453 		.ascii	"PadSpacesToCenter\000"
 6010      70616365 
 6010      73546F43 
 6010      656E7465 
 6010      7200
 6011              	.LASF8:
 6012 0634 756E7369 		.ascii	"unsigned int\000"
 6012      676E6564 
 6012      20696E74 
 6012      00
 6013              	.LASF171:
 6014 0641 50524E5F 		.ascii	"PRN_MONEYMONTH\000"
 6014      4D4F4E45 
 6014      594D4F4E 
 6014      544800
 6015              	.LASF165:
 6016 0650 50524E5F 		.ascii	"PRN_VISITSMONTH\000"
 6016      56495349 
 6016      54534D4F 
 6016      4E544800 
 6017              	.LASF131:
 6018 0660 45455052 		.ascii	"EEPROM_DISPENSER_PUMP11_TRANSACTION_PAGE\000"
 6018      4F4D5F44 
 6018      49535045 
 6018      4E534552 
 6018      5F50554D 
 6019              	.LASF185:
 6020 0689 5254435F 		.ascii	"RTC_MONTH\000"
 6020      4D4F4E54 
 6020      4800
 6021              	.LASF117:
 6022 0693 45455052 		.ascii	"EEPROM_DISPENSER_PUMP3_LAYOUT_PAGE\000"
 6022      4F4D5F44 
 6022      49535045 
 6022      4E534552 
 6022      5F50554D 
 6023              	.LASF5:
 6024 06b6 6C6F6E67 		.ascii	"long unsigned int\000"
 6024      20756E73 
 6024      69676E65 
 6024      6420696E 
 6024      7400
 6025              	.LASF34:
ARM GAS  C:\Users\RECEPC~1\AppData\Local\Temp\cc0bMLA1.s 			page 129


 6026 06c8 5F6E756D 		.ascii	"_numpositions\000"
 6026      706F7369 
 6026      74696F6E 
 6026      7300
 6027              	.LASF92:
 6028 06d6 44495350 		.ascii	"DISPLAY_CANCELADO_X_PC\000"
 6028      4C41595F 
 6028      43414E43 
 6028      454C4144 
 6028      4F5F585F 
 6029              	.LASF217:
 6030 06ed 5072696E 		.ascii	"Print\000"
 6030      7400
 6031              	.LASF202:
 6032 06f3 5072696E 		.ascii	"Printer2GenericCallbacklogo\000"
 6032      74657232 
 6032      47656E65 
 6032      72696343 
 6032      616C6C62 
 6033              	.LASF21:
 6034 070f 5F6D6573 		.ascii	"_messagedelay\000"
 6034      73616765 
 6034      64656C61 
 6034      7900
 6035              	.LASF103:
 6036 071d 44495350 		.ascii	"DISPLAY_SIDE_DUMMY_DISPLAY\000"
 6036      4C41595F 
 6036      53494445 
 6036      5F44554D 
 6036      4D595F44 
 6037              	.LASF147:
 6038 0738 5F505249 		.ascii	"_PRINTER_PORTS_\000"
 6038      4E544552 
 6038      5F504F52 
 6038      54535F00 
 6039              	.LASF40:
 6040 0748 5F707075 		.ascii	"_ppudecimals\000"
 6040      64656369 
 6040      6D616C73 
 6040      00
 6041              	.LASF223:
 6042 0755 62756666 		.ascii	"bufflen\000"
 6042      6C656E00 
 6043              	.LASF66:
 6044 075d 44495350 		.ascii	"DISPLAY_NUEVO_PASSWORD\000"
 6044      4C41595F 
 6044      4E554556 
 6044      4F5F5041 
 6044      5353574F 
 6045              	.LASF174:
 6046 0774 50524E5F 		.ascii	"PRN_PRODPRICE\000"
 6046      50524F44 
 6046      50524943 
 6046      4500
 6047              	.LASF3:
 6048 0782 73686F72 		.ascii	"short unsigned int\000"
 6048      7420756E 
ARM GAS  C:\Users\RECEPC~1\AppData\Local\Temp\cc0bMLA1.s 			page 130


 6048      7369676E 
 6048      65642069 
 6048      6E7400
 6049              	.LASF6:
 6050 0795 6C6F6E67 		.ascii	"long long int\000"
 6050      206C6F6E 
 6050      6720696E 
 6050      7400
 6051              	.LASF186:
 6052 07a3 5254435F 		.ascii	"RTC_YEAR\000"
 6052      59454152 
 6052      00
 6053              	.LASF142:
 6054 07ac 45455052 		.ascii	"EEPROM_DISPENSER_PUMP34_TRANSACTION_PAGE\000"
 6054      4F4D5F44 
 6054      49535045 
 6054      4E534552 
 6054      5F50554D 
 6055              	.LASF242:
 6056 07d5 5F706F69 		.ascii	"_pointcommadecimalmode\000"
 6056      6E74636F 
 6056      6D6D6164 
 6056      6563696D 
 6056      616C6D6F 
 6057              	.LASF211:
 6058 07ec 466F726D 		.ascii	"FormatNumberLSDFirst\000"
 6058      61744E75 
 6058      6D626572 
 6058      4C534446 
 6058      69727374 
 6059              	.LASF232:
 6060 0801 5F675F73 		.ascii	"_g_separator\000"
 6060      65706172 
 6060      61746F72 
 6060      00
 6061              	.LASF41:
 6062 080e 5F766F6C 		.ascii	"_volumedecimals\000"
 6062      756D6564 
 6062      6563696D 
 6062      616C7300 
 6063              	.LASF48:
 6064 081e 44697370 		.ascii	"DispenserLayoutInfo\000"
 6064      656E7365 
 6064      724C6179 
 6064      6F757449 
 6064      6E666F00 
 6065              	.LASF218:
 6066 0832 70616473 		.ascii	"padspaces\000"
 6066      70616365 
 6066      7300
 6067              	.LASF22:
 6068 083c 5F6D6573 		.ascii	"_messagetimeout\000"
 6068      73616765 
 6068      74696D65 
 6068      6F757400 
 6069              	.LASF133:
 6070 084c 45455052 		.ascii	"EEPROM_DISPENSER_PUMP13_TRANSACTION_PAGE\000"
ARM GAS  C:\Users\RECEPC~1\AppData\Local\Temp\cc0bMLA1.s 			page 131


 6070      4F4D5F44 
 6070      49535045 
 6070      4E534552 
 6070      5F50554D 
 6071              	.LASF235:
 6072 0875 5F675F6C 		.ascii	"_g_logoprintcmd\000"
 6072      6F676F70 
 6072      72696E74 
 6072      636D6400 
 6073              	.LASF2:
 6074 0885 73686F72 		.ascii	"short int\000"
 6074      7420696E 
 6074      7400
 6075              	.LASF148:
 6076 088f 5052494E 		.ascii	"PRINTER_PORT1_SIDE1\000"
 6076      5445525F 
 6076      504F5254 
 6076      315F5349 
 6076      44453100 
 6077              	.LASF150:
 6078 08a3 5052494E 		.ascii	"PRINTER_PORT1_SIDE2\000"
 6078      5445525F 
 6078      504F5254 
 6078      315F5349 
 6078      44453200 
 6079              	.LASF115:
 6080 08b7 45455052 		.ascii	"EEPROM_DISPENSER_PUMP1_LAYOUT_PAGE\000"
 6080      4F4D5F44 
 6080      49535045 
 6080      4E534552 
 6080      5F50554D 
 6081              	.LASF99:
 6082 08da 44495350 		.ascii	"DISPLAY_DUMMY0\000"
 6082      4C41595F 
 6082      44554D4D 
 6082      593000
 6083              	.LASF100:
 6084 08e9 44495350 		.ascii	"DISPLAY_DUMMY1\000"
 6084      4C41595F 
 6084      44554D4D 
 6084      593100
 6085              	.LASF101:
 6086 08f8 44495350 		.ascii	"DISPLAY_DUMMY2\000"
 6086      4C41595F 
 6086      44554D4D 
 6086      593200
 6087              	.LASF102:
 6088 0907 44495350 		.ascii	"DISPLAY_DUMMY3\000"
 6088      4C41595F 
 6088      44554D4D 
 6088      593300
 6089              	.LASF87:
 6090 0916 44495350 		.ascii	"DISPLAY_HORA\000"
 6090      4C41595F 
 6090      484F5241 
 6090      00
 6091              	.LASF80:
ARM GAS  C:\Users\RECEPC~1\AppData\Local\Temp\cc0bMLA1.s 			page 132


 6092 0923 44495350 		.ascii	"DISPLAY_SELECCIONE_POSICION\000"
 6092      4C41595F 
 6092      53454C45 
 6092      4343494F 
 6092      4E455F50 
 6093              	.LASF229:
 6094 093f 5F675F6C 		.ascii	"_g_linefeed\000"
 6094      696E6566 
 6094      65656400 
 6095              	.LASF197:
 6096 094b 5072696E 		.ascii	"Printer1GenericCallback\000"
 6096      74657231 
 6096      47656E65 
 6096      72696343 
 6096      616C6C62 
 6097              	.LASF226:
 6098 0963 5072696E 		.ascii	"PrintGeneric\000"
 6098      7447656E 
 6098      65726963 
 6098      00
 6099              	.LASF61:
 6100 0970 44495350 		.ascii	"DISPLAY_DIGITE_PLACA\000"
 6100      4C41595F 
 6100      44494749 
 6100      54455F50 
 6100      4C414341 
 6101              	.LASF74:
 6102 0985 44495350 		.ascii	"DISPLAY_INTRODUZCA_VOLUMEN\000"
 6102      4C41595F 
 6102      494E5452 
 6102      4F44555A 
 6102      43415F56 
 6103              	.LASF15:
 6104 09a0 73697A65 		.ascii	"sizetype\000"
 6104      74797065 
 6104      00
 6105              	.LASF120:
 6106 09a9 45455052 		.ascii	"EEPROM_DISPENSER_PUMP2_PRODUCT_NAMES_PAGE\000"
 6106      4F4D5F44 
 6106      49535045 
 6106      4E534552 
 6106      5F50554D 
 6107              	.LASF53:
 6108 09d3 44495350 		.ascii	"DISPLAY_FORMA_PROGRAMACION\000"
 6108      4C41595F 
 6108      464F524D 
 6108      415F5052 
 6108      4F475241 
 6109              	.LASF23:
 6110 09ee 5F6D6573 		.ascii	"_messagetimeoutmultiplier\000"
 6110      73616765 
 6110      74696D65 
 6110      6F75746D 
 6110      756C7469 
 6111              	.LASF105:
 6112 0a08 5F415641 		.ascii	"_AVAILABLE_DISPLAYS_\000"
 6112      494C4142 
ARM GAS  C:\Users\RECEPC~1\AppData\Local\Temp\cc0bMLA1.s 			page 133


 6112      4C455F44 
 6112      4953504C 
 6112      4159535F 
 6113              	.LASF55:
 6114 0a1d 44495350 		.ascii	"DISPLAY_INTRODUZCA_VALOR2\000"
 6114      4C41595F 
 6114      494E5452 
 6114      4F44555A 
 6114      43415F56 
 6115              	.LASF136:
 6116 0a37 45455052 		.ascii	"EEPROM_DISPENSER_PUMP22_TRANSACTION_PAGE\000"
 6116      4F4D5F44 
 6116      49535045 
 6116      4E534552 
 6116      5F50554D 
 6117              	.LASF128:
 6118 0a60 45455052 		.ascii	"EEPROM_INSEPET_RESERVED_PAGE2\000"
 6118      4F4D5F49 
 6118      4E534550 
 6118      45545F52 
 6118      45534552 
 6119              	.LASF159:
 6120 0a7e 50524E5F 		.ascii	"PRN_INVNUMBER\000"
 6120      494E564E 
 6120      554D4245 
 6120      5200
 6121              	.LASF104:
 6122 0a8c 44495350 		.ascii	"DISPLAY_NULL\000"
 6122      4C41595F 
 6122      4E554C4C 
 6122      00
 6123              	.LASF17:
 6124 0a99 5F73656C 		.ascii	"_selfkill\000"
 6124      666B696C 
 6124      6C00
 6125              	.LASF65:
 6126 0aa3 44495350 		.ascii	"DISPLAY_PASSWORD_INVALIDO\000"
 6126      4C41595F 
 6126      50415353 
 6126      574F5244 
 6126      5F494E56 
 6127              	.LASF81:
 6128 0abd 44495350 		.ascii	"DISPLAY_OPERACION_CANCELADA\000"
 6128      4C41595F 
 6128      4F504552 
 6128      4143494F 
 6128      4E5F4341 
 6129              	.LASF154:
 6130 0ad9 50524E5F 		.ascii	"PRN_HOUR\000"
 6130      484F5552 
 6130      00
 6131              	.LASF164:
 6132 0ae2 50524E5F 		.ascii	"PRN_VISITSWEEK\000"
 6132      56495349 
 6132      54535745 
 6132      454B00
 6133              	.LASF72:
ARM GAS  C:\Users\RECEPC~1\AppData\Local\Temp\cc0bMLA1.s 			page 134


 6134 0af1 44495350 		.ascii	"DISPLAY_ID_RECONOCIDO\000"
 6134      4C41595F 
 6134      49445F52 
 6134      45434F4E 
 6134      4F434944 
 6135              	.LASF170:
 6136 0b07 50524E5F 		.ascii	"PRN_MONEYWEEK\000"
 6136      4D4F4E45 
 6136      59574545 
 6136      4B00
 6137              	.LASF238:
 6138 0b15 474E5520 		.ascii	"GNU C 4.9.3 20150303 (release) [ARM/embedded-4_9-br"
 6138      4320342E 
 6138      392E3320 
 6138      32303135 
 6138      30333033 
 6139 0b48 616E6368 		.ascii	"anch revision 221220] -mcpu=cortex-m3 -mthumb -g -O"
 6139      20726576 
 6139      6973696F 
 6139      6E203232 
 6139      31323230 
 6140 0b7b 30202D66 		.ascii	"0 -ffunction-sections -ffat-lto-objects\000"
 6140      66756E63 
 6140      74696F6E 
 6140      2D736563 
 6140      74696F6E 
 6141              	.LASF143:
 6142 0ba3 45455052 		.ascii	"EEPROM_DISPENSER_PUMP41_TRANSACTION_PAGE\000"
 6142      4F4D5F44 
 6142      49535045 
 6142      4E534552 
 6142      5F50554D 
 6143              	.LASF49:
 6144 0bcc 44495350 		.ascii	"DISPLAY_INICIO0\000"
 6144      4C41595F 
 6144      494E4943 
 6144      494F3000 
 6145              	.LASF50:
 6146 0bdc 44495350 		.ascii	"DISPLAY_INICIO1\000"
 6146      4C41595F 
 6146      494E4943 
 6146      494F3100 
 6147              	.LASF51:
 6148 0bec 44495350 		.ascii	"DISPLAY_INICIO2\000"
 6148      4C41595F 
 6148      494E4943 
 6148      494F3200 
 6149              	.LASF175:
 6150 0bfc 50524E5F 		.ascii	"PRN_VOLUME\000"
 6150      564F4C55 
 6150      4D4500
 6151              	.LASF215:
 6152 0c07 64656369 		.ascii	"decimals\000"
 6152      6D616C73 
 6152      00
 6153              	.LASF212:
 6154 0c10 70696E70 		.ascii	"pinput\000"
ARM GAS  C:\Users\RECEPC~1\AppData\Local\Temp\cc0bMLA1.s 			page 135


 6154      757400
 6155              	.LASF11:
 6156 0c17 666C6F61 		.ascii	"float\000"
 6156      7400
 6157              	.LASF20:
 6158 0c1d 5F6D6573 		.ascii	"_messagestate\000"
 6158      73616765 
 6158      73746174 
 6158      6500
 6159              	.LASF118:
 6160 0c2b 45455052 		.ascii	"EEPROM_DISPENSER_PUMP4_LAYOUT_PAGE\000"
 6160      4F4D5F44 
 6160      49535045 
 6160      4E534552 
 6160      5F50554D 
 6161              	.LASF64:
 6162 0c4e 44495350 		.ascii	"DISPLAY_PASSWORD_VALIDO\000"
 6162      4C41595F 
 6162      50415353 
 6162      574F5244 
 6162      5F56414C 
 6163              	.LASF208:
 6164 0c66 686F7365 		.ascii	"hoseid\000"
 6164      696400
 6165              	.LASF54:
 6166 0c6d 44495350 		.ascii	"DISPLAY_INTRODUZCA_VALOR\000"
 6166      4C41595F 
 6166      494E5452 
 6166      4F44555A 
 6166      43415F56 
 6167              	.LASF79:
 6168 0c86 44495350 		.ascii	"DISPLAY_IMPRIMIENDO_RECIBO\000"
 6168      4C41595F 
 6168      494D5052 
 6168      494D4945 
 6168      4E444F5F 
 6169              	.LASF207:
 6170 0ca1 70756D70 		.ascii	"pumpid\000"
 6170      696400
 6171              	.LASF240:
 6172 0ca8 433A5C54 		.ascii	"C:\\TeamInsepet\\NSX-Prime\\Hardware\\CorEx-MUX-Ker"
 6172      65616D49 
 6172      6E736570 
 6172      65745C4E 
 6172      53582D50 
 6173 0cd7 6E656C2D 		.ascii	"nel-Enhanced\\Workspace01\\CorEx-Mux-Kernel.cydsn\000"
 6173      456E6861 
 6173      6E636564 
 6173      5C576F72 
 6173      6B737061 
 6174              	.LASF123:
 6175 0d07 45455052 		.ascii	"EEPROM_DISPENSER_PUMP1_PPU_INFO_PAGE\000"
 6175      4F4D5F44 
 6175      49535045 
 6175      4E534552 
 6175      5F50554D 
 6176              	.LASF29:
ARM GAS  C:\Users\RECEPC~1\AppData\Local\Temp\cc0bMLA1.s 			page 136


 6177 0d2c 5F426F6F 		.ascii	"_Bool\000"
 6177      6C00
 6178              	.LASF43:
 6179 0d32 5F6D696E 		.ascii	"_minmoneyvalue\000"
 6179      6D6F6E65 
 6179      7976616C 
 6179      756500
 6180              	.LASF1:
 6181 0d41 756E7369 		.ascii	"unsigned char\000"
 6181      676E6564 
 6181      20636861 
 6181      7200
 6182              	.LASF146:
 6183 0d4f 45455052 		.ascii	"EEPROM_DISPENSER_PUMP44_TRANSACTION_PAGE\000"
 6183      4F4D5F44 
 6183      49535045 
 6183      4E534552 
 6183      5F50554D 
 6184              	.LASF69:
 6185 0d78 44495350 		.ascii	"DISPLAY_ID_DIGITAL\000"
 6185      4C41595F 
 6185      49445F44 
 6185      49474954 
 6185      414C00
 6186              	.LASF225:
 6187 0d8b 62756666 		.ascii	"bufflength\000"
 6187      6C656E67 
 6187      746800
 6188              	.LASF27:
 6189 0d96 5F706461 		.ascii	"_pdata\000"
 6189      746100
 6190              	.LASF224:
 6191 0d9d 62756666 		.ascii	"buffpos\000"
 6191      706F7300 
 6192              	.LASF124:
 6193 0da5 45455052 		.ascii	"EEPROM_DISPENSER_PUMP2_PPU_INFO_PAGE\000"
 6193      4F4D5F44 
 6193      49535045 
 6193      4E534552 
 6193      5F50554D 
 6194              	.LASF209:
 6195 0dca 70627566 		.ascii	"pbuffer\000"
 6195      66657200 
 6196              	.LASF166:
 6197 0dd2 50524E5F 		.ascii	"PRN_VOLUMEDAY\000"
 6197      564F4C55 
 6197      4D454441 
 6197      5900
 6198              	.LASF187:
 6199 0de0 5072696E 		.ascii	"PrintLogo\000"
 6199      744C6F67 
 6199      6F00
 6200              	.LASF210:
 6201 0dea 6D656D69 		.ascii	"memid\000"
 6201      6400
 6202              	.LASF44:
 6203 0df0 5F6D696E 		.ascii	"_minvolumevalue\000"
ARM GAS  C:\Users\RECEPC~1\AppData\Local\Temp\cc0bMLA1.s 			page 137


 6203      766F6C75 
 6203      6D657661 
 6203      6C756500 
 6204              	.LASF231:
 6205 0e00 5F675F61 		.ascii	"_g_auxprinterbuffer\000"
 6205      75787072 
 6205      696E7465 
 6205      72627566 
 6205      66657200 
 6206              	.LASF89:
 6207 0e14 44495350 		.ascii	"DISPLAY_OPCION_TURNO\000"
 6207      4C41595F 
 6207      4F504349 
 6207      4F4E5F54 
 6207      55524E4F 
 6208              	.LASF153:
 6209 0e29 50524E5F 		.ascii	"PRN_DATE\000"
 6209      44415445 
 6209      00
 6210              	.LASF155:
 6211 0e32 50524E5F 		.ascii	"PRN_PLATE\000"
 6211      504C4154 
 6211      4500
 6212              	.LASF78:
 6213 0e3c 44495350 		.ascii	"DISPLAY_COPIA_RECIBO\000"
 6213      4C41595F 
 6213      434F5049 
 6213      415F5245 
 6213      4349424F 
 6214              	.LASF241:
 6215 0e51 5F53494E 		.ascii	"_SINK_MESSAGE_\000"
 6215      4B5F4D45 
 6215      53534147 
 6215      455F00
 6216              	.LASF96:
 6217 0e60 44495350 		.ascii	"DISPLAY_IMPRESORA_NO_FUNCIONANDO\000"
 6217      4C41595F 
 6217      494D5052 
 6217      45534F52 
 6217      415F4E4F 
 6218              	.LASF172:
 6219 0e81 50524E5F 		.ascii	"PRN_ACCOUNTTYPE\000"
 6219      4143434F 
 6219      554E5454 
 6219      59504500 
 6220              	.LASF230:
 6221 0e91 5F675F70 		.ascii	"_g_padcharacters\000"
 6221      61646368 
 6221      61726163 
 6221      74657273 
 6221      00
 6222              	.LASF97:
 6223 0ea2 44495350 		.ascii	"DISPLAY_IDENTIFICADOR_ESTACION\000"
 6223      4C41595F 
 6223      4944454E 
 6223      54494649 
 6223      4341444F 
ARM GAS  C:\Users\RECEPC~1\AppData\Local\Temp\cc0bMLA1.s 			page 138


 6224              	.LASF60:
 6225 0ec1 44495350 		.ascii	"DISPLAY_BAJE_MANIJA\000"
 6225      4C41595F 
 6225      42414A45 
 6225      5F4D414E 
 6225      494A4100 
 6226              	.LASF126:
 6227 0ed5 45455052 		.ascii	"EEPROM_DISPENSER_PUMP4_PPU_INFO_PAGE\000"
 6227      4F4D5F44 
 6227      49535045 
 6227      4E534552 
 6227      5F50554D 
 6228              	.LASF219:
 6229 0efa 62756666 		.ascii	"bufferlength\000"
 6229      65726C65 
 6229      6E677468 
 6229      00
 6230              	.LASF75:
 6231 0f07 44495350 		.ascii	"DISPLAY_INTRODUZCA_KILOMETRAJE\000"
 6231      4C41595F 
 6231      494E5452 
 6231      4F44555A 
 6231      43415F4B 
 6232              	.LASF162:
 6233 0f26 50524E5F 		.ascii	"PRN_ACCOUNT\000"
 6233      4143434F 
 6233      554E5400 
 6234              	.LASF190:
 6235 0f32 70646174 		.ascii	"pdata\000"
 6235      6100
 6236              	.LASF163:
 6237 0f38 50524E5F 		.ascii	"PRN_VISITSDAY\000"
 6237      56495349 
 6237      54534441 
 6237      5900
 6238              	.LASF14:
 6239 0f46 63686172 		.ascii	"char\000"
 6239      00
 6240              	.LASF106:
 6241 0f4b 5F454550 		.ascii	"_EEPROM_MEM_FORMAT_\000"
 6241      524F4D5F 
 6241      4D454D5F 
 6241      464F524D 
 6241      41545F00 
 6242              	.LASF30:
 6243 0f5f 5053494E 		.ascii	"PSINKMESSAGEPTR\000"
 6243      4B4D4553 
 6243      53414745 
 6243      50545200 
 6244              	.LASF191:
 6245 0f6f 706D7367 		.ascii	"pmsg\000"
 6245      00
 6246              	.LASF140:
 6247 0f74 45455052 		.ascii	"EEPROM_DISPENSER_PUMP32_TRANSACTION_PAGE\000"
 6247      4F4D5F44 
 6247      49535045 
 6247      4E534552 
ARM GAS  C:\Users\RECEPC~1\AppData\Local\Temp\cc0bMLA1.s 			page 139


 6247      5F50554D 
 6248              	.LASF193:
 6249 0f9d 696E6465 		.ascii	"index\000"
 6249      7800
 6250              	.LASF13:
 6251 0fa3 63686172 		.ascii	"char8\000"
 6251      3800
 6252              	.LASF116:
 6253 0fa9 45455052 		.ascii	"EEPROM_DISPENSER_PUMP2_LAYOUT_PAGE\000"
 6253      4F4D5F44 
 6253      49535045 
 6253      4E534552 
 6253      5F50554D 
 6254              	.LASF201:
 6255 0fcc 5072696E 		.ascii	"Printer1GenericCallbacklogo\000"
 6255      74657231 
 6255      47656E65 
 6255      72696343 
 6255      616C6C62 
 6256              	.LASF68:
 6257 0fe8 44495350 		.ascii	"DISPLAY_GRACIAS_VUELVA_PRONTO\000"
 6257      4C41595F 
 6257      47524143 
 6257      4941535F 
 6257      5655454C 
 6258              	.LASF213:
 6259 1006 696E7075 		.ascii	"inputsize\000"
 6259      7473697A 
 6259      6500
 6260              	.LASF37:
 6261 1010 5F686F73 		.ascii	"_hosesposition3\000"
 6261      6573706F 
 6261      73697469 
 6261      6F6E3300 
 6262              	.LASF62:
 6263 1020 44495350 		.ascii	"DISPLAY_DESEA_IMPRIMIR_RECIBO\000"
 6263      4C41595F 
 6263      44455345 
 6263      415F494D 
 6263      5052494D 
 6264              	.LASF38:
 6265 103e 5F686F73 		.ascii	"_hosesposition4\000"
 6265      6573706F 
 6265      73697469 
 6265      6F6E3400 
 6266              	.LASF58:
 6267 104e 44495350 		.ascii	"DISPLAY_SUBA_MANIJA\000"
 6267      4C41595F 
 6267      53554241 
 6267      5F4D414E 
 6267      494A4100 
 6268              	.LASF56:
 6269 1062 44495350 		.ascii	"DISPLAY_SELECCIONE_PRODUCTO3\000"
 6269      4C41595F 
 6269      53454C45 
 6269      4343494F 
 6269      4E455F50 
ARM GAS  C:\Users\RECEPC~1\AppData\Local\Temp\cc0bMLA1.s 			page 140


 6270              	.LASF42:
 6271 107f 5F766F6C 		.ascii	"_volumeunit\000"
 6271      756D6575 
 6271      6E697400 
 6272              	.LASF214:
 6273 108b 706F7574 		.ascii	"poutput\000"
 6273      70757400 
 6274              	.LASF76:
 6275 1093 44495350 		.ascii	"DISPLAY_OPERACIONES\000"
 6275      4C41595F 
 6275      4F504552 
 6275      4143494F 
 6275      4E455300 
 6276              	.LASF121:
 6277 10a7 45455052 		.ascii	"EEPROM_DISPENSER_PUMP3_PRODUCT_NAMES_PAGE\000"
 6277      4F4D5F44 
 6277      49535045 
 6277      4E534552 
 6277      5F50554D 
 6278              	.LASF19:
 6279 10d1 5F6D6573 		.ascii	"_messagetype\000"
 6279      73616765 
 6279      74797065 
 6279      00
 6280              	.LASF90:
 6281 10de 44495350 		.ascii	"DISPLAY_ABRIR_TURNO\000"
 6281      4C41595F 
 6281      41425249 
 6281      525F5455 
 6281      524E4F00 
 6282              	.LASF188:
 6283 10f2 5072696E 		.ascii	"Printer11Callback\000"
 6283      74657231 
 6283      3143616C 
 6283      6C626163 
 6283      6B00
 6284              	.LASF31:
 6285 1104 50535452 		.ascii	"PSTR\000"
 6285      00
 6286              	.LASF195:
 6287 1109 5072696E 		.ascii	"Printer21Callback\000"
 6287      74657232 
 6287      3143616C 
 6287      6C626163 
 6287      6B00
 6288              	.LASF179:
 6289 111b 504E4541 		.ascii	"PNEAR_BYTE_PTR\000"
 6289      525F4259 
 6289      54455F50 
 6289      545200
 6290              	.LASF91:
 6291 112a 44495350 		.ascii	"DISPLAY_CERRAR_TURNO\000"
 6291      4C41595F 
 6291      43455252 
 6291      41525F54 
 6291      55524E4F 
 6292              	.LASF236:
ARM GAS  C:\Users\RECEPC~1\AppData\Local\Temp\cc0bMLA1.s 			page 141


 6293 113f 5F675F6C 		.ascii	"_g_logosize\000"
 6293      6F676F73 
 6293      697A6500 
 6294              	.LASF59:
 6295 114b 44495350 		.ascii	"DISPLAY_DESPACHANDO\000"
 6295      4C41595F 
 6295      44455350 
 6295      41434841 
 6295      4E444F00 
 6296              	.LASF134:
 6297 115f 45455052 		.ascii	"EEPROM_DISPENSER_PUMP14_TRANSACTION_PAGE\000"
 6297      4F4D5F44 
 6297      49535045 
 6297      4E534552 
 6297      5F50554D 
 6298              	.LASF180:
 6299 1188 5F525443 		.ascii	"_RTC_VALUES_POS_\000"
 6299      5F56414C 
 6299      5545535F 
 6299      504F535F 
 6299      00
 6300              	.LASF63:
 6301 1199 44495350 		.ascii	"DISPLAY_INGRESE_PASSWORD\000"
 6301      4C41595F 
 6301      494E4752 
 6301      4553455F 
 6301      50415353 
 6302              	.LASF177:
 6303 11b2 50524E5F 		.ascii	"PRN_ID\000"
 6303      494400
 6304              	.LASF156:
 6305 11b9 50524E5F 		.ascii	"PRN_MILLEAGE\000"
 6305      4D494C4C 
 6305      45414745 
 6305      00
 6306              	.LASF47:
 6307 11c6 5F706F73 		.ascii	"_positionoffset\000"
 6307      6974696F 
 6307      6E6F6666 
 6307      73657400 
 6308              	.LASF184:
 6309 11d6 5254435F 		.ascii	"RTC_DAY\000"
 6309      44415900 
 6310              	.LASF98:
 6311 11de 44495350 		.ascii	"DISPLAY_PRECIO_POR_UNIDAD\000"
 6311      4C41595F 
 6311      50524543 
 6311      494F5F50 
 6311      4F525F55 
 6312              	.LASF141:
 6313 11f8 45455052 		.ascii	"EEPROM_DISPENSER_PUMP33_TRANSACTION_PAGE\000"
 6313      4F4D5F44 
 6313      49535045 
 6313      4E534552 
 6313      5F50554D 
 6314              	.LASF173:
 6315 1221 50524E5F 		.ascii	"PRN_PRODUCT\000"
ARM GAS  C:\Users\RECEPC~1\AppData\Local\Temp\cc0bMLA1.s 			page 142


 6315      50524F44 
 6315      55435400 
 6316              	.LASF73:
 6317 122d 44495350 		.ascii	"DISPLAY_INTRODUZCA_CEDULA\000"
 6317      4C41595F 
 6317      494E5452 
 6317      4F44555A 
 6317      43415F43 
 6318              	.LASF52:
 6319 1247 44495350 		.ascii	"DISPLAY_FORMA_PAGO_DESEADA\000"
 6319      4C41595F 
 6319      464F524D 
 6319      415F5041 
 6319      474F5F44 
 6320              	.LASF237:
 6321 1262 5F675F70 		.ascii	"_g_ptrlogo\000"
 6321      74726C6F 
 6321      676F00
 6322              	.LASF77:
 6323 126d 44495350 		.ascii	"DISPLAY_CONFIGURACIONES\000"
 6323      4C41595F 
 6323      434F4E46 
 6323      49475552 
 6323      4143494F 
 6324              	.LASF198:
 6325 1285 5072696E 		.ascii	"Printer2GenericCallback\000"
 6325      74657232 
 6325      47656E65 
 6325      72696343 
 6325      616C6C62 
 6326              	.LASF227:
 6327 129d 5F675F64 		.ascii	"_g_dispenserlayoutinfo\000"
 6327      69737065 
 6327      6E736572 
 6327      6C61796F 
 6327      7574696E 
 6328              	.LASF182:
 6329 12b4 5254435F 		.ascii	"RTC_MINUTES\000"
 6329      4D494E55 
 6329      54455300 
 6330              	.LASF149:
 6331 12c0 5052494E 		.ascii	"PRINTER_PORT2_SIDE1\000"
 6331      5445525F 
 6331      504F5254 
 6331      325F5349 
 6331      44453100 
 6332              	.LASF151:
 6333 12d4 5052494E 		.ascii	"PRINTER_PORT2_SIDE2\000"
 6333      5445525F 
 6333      504F5254 
 6333      325F5349 
 6333      44453200 
 6334              	.LASF234:
 6335 12e8 5F675F73 		.ascii	"_g_starting_position\000"
 6335      74617274 
 6335      696E675F 
 6335      706F7369 
ARM GAS  C:\Users\RECEPC~1\AppData\Local\Temp\cc0bMLA1.s 			page 143


 6335      74696F6E 
 6336              	.LASF57:
 6337 12fd 44495350 		.ascii	"DISPLAY_SELECCIONE_PRODUCTO4\000"
 6337      4C41595F 
 6337      53454C45 
 6337      4343494F 
 6337      4E455F50 
 6338              	.LASF12:
 6339 131a 646F7562 		.ascii	"double\000"
 6339      6C6500
 6340              	.LASF84:
 6341 1321 44495350 		.ascii	"DISPLAY_AUTORIZACION_ACEPTADA\000"
 6341      4C41595F 
 6341      4155544F 
 6341      52495A41 
 6341      43494F4E 
 6342              	.LASF33:
 6343 133f 5F637572 		.ascii	"_currentloopopen\000"
 6343      72656E74 
 6343      6C6F6F70 
 6343      6F70656E 
 6343      00
 6344              	.LASF85:
 6345 1350 44495350 		.ascii	"DISPLAY_AUTORIZACION_RECHAZADA\000"
 6345      4C41595F 
 6345      4155544F 
 6345      52495A41 
 6345      43494F4E 
 6346              	.LASF158:
 6347 136f 50524E5F 		.ascii	"PRN_PUMPPOS\000"
 6347      50554D50 
 6347      504F5300 
 6348              		.ident	"GCC: (GNU Tools for ARM Embedded Processors) 4.9.3 20150303 (release) [ARM/embedded-4_9-br
