ARM GAS  C:\Users\RECEPC~1\AppData\Local\Temp\ccfV00j5.s 			page 1


   1              		.syntax unified
   2              		.cpu cortex-m3
   3              		.fpu softvfp
   4              		.eabi_attribute 20, 1
   5              		.eabi_attribute 21, 1
   6              		.eabi_attribute 23, 3
   7              		.eabi_attribute 24, 1
   8              		.eabi_attribute 25, 1
   9              		.eabi_attribute 26, 1
  10              		.eabi_attribute 30, 6
  11              		.eabi_attribute 34, 1
  12              		.eabi_attribute 18, 4
  13              		.thumb
  14              		.file	"PrinterSink.c"
  15              		.text
  16              	.Ltext0:
  17              		.cfi_sections	.debug_frame
  18              		.comm	_g_printerlayout,2,4
  19              		.section	.text.PrinterSinkRegistration,"ax",%progbits
  20              		.align	2
  21              		.global	PrinterSinkRegistration
  22              		.thumb
  23              		.thumb_func
  24              		.type	PrinterSinkRegistration, %function
  25              	PrinterSinkRegistration:
  26              	.LFB0:
  27              		.file 1 ".\\PrinterSink.c"
   1:.\PrinterSink.c **** /* ========================================
   2:.\PrinterSink.c ****  *
   3:.\PrinterSink.c ****  * Copyright YOUR COMPANY, THE YEAR
   4:.\PrinterSink.c ****  * All Rights Reserved
   5:.\PrinterSink.c ****  * UNPUBLISHED, LICENSED SOFTWARE.
   6:.\PrinterSink.c ****  *
   7:.\PrinterSink.c ****  * CONFIDENTIAL AND PROPRIETARY INFORMATION
   8:.\PrinterSink.c ****  * WHICH IS THE PROPERTY OF your company.
   9:.\PrinterSink.c ****  *
  10:.\PrinterSink.c ****  * ========================================
  11:.\PrinterSink.c **** */
  12:.\PrinterSink.c **** #include "SinkManager.h"
  13:.\PrinterSink.c **** #include "SinkObservables.h"
  14:.\PrinterSink.c **** #include "Eeprom.h"
  15:.\PrinterSink.c **** #include "Printer.h"
  16:.\PrinterSink.c **** 
  17:.\PrinterSink.c **** void Printer11Callback(void *pdata);
  18:.\PrinterSink.c **** void Printer12Callback(void *pdata);
  19:.\PrinterSink.c **** void Printer21Callback(void *pdata);
  20:.\PrinterSink.c **** void Printer22Callback(void *pdata);
  21:.\PrinterSink.c **** void Printer1GenericCallback(void *pdata);
  22:.\PrinterSink.c **** void Printer2GenericCallback(void *pdata);
  23:.\PrinterSink.c **** void Printer1GenericCallbacklogo(void *pdata);
  24:.\PrinterSink.c **** void Printer2GenericCallbacklogo(void *pdata);
  25:.\PrinterSink.c **** 
  26:.\PrinterSink.c **** PrinterLayout _g_printerlayout;
  27:.\PrinterSink.c **** 
  28:.\PrinterSink.c **** extern uint8 _g_separator[_MAX_PRINTER_LINE_WIDTH_];
  29:.\PrinterSink.c **** extern uint8 _g_padcharacters[_MAX_PRINTER_LINE_WIDTH_];
  30:.\PrinterSink.c **** 
ARM GAS  C:\Users\RECEPC~1\AppData\Local\Temp\ccfV00j5.s 			page 2


  31:.\PrinterSink.c **** void PrinterSinkRegistration()
  32:.\PrinterSink.c **** {
  28              		.loc 1 32 0
  29              		.cfi_startproc
  30              		@ args = 0, pretend = 0, frame = 8
  31              		@ frame_needed = 1, uses_anonymous_args = 0
  32 0000 80B5     		push	{r7, lr}
  33              		.cfi_def_cfa_offset 8
  34              		.cfi_offset 7, -8
  35              		.cfi_offset 14, -4
  36 0002 82B0     		sub	sp, sp, #8
  37              		.cfi_def_cfa_offset 16
  38 0004 00AF     		add	r7, sp, #0
  39              		.cfi_def_cfa_register 7
  33:.\PrinterSink.c ****     PSINKSUBSCRIBERPTR psubscriber = AllocateSubscriberSlot();
  40              		.loc 1 33 0
  41 0006 FFF7FEFF 		bl	AllocateSubscriberSlot
  42 000a 7860     		str	r0, [r7, #4]
  34:.\PrinterSink.c ****     if(psubscriber)
  43              		.loc 1 34 0
  44 000c 7B68     		ldr	r3, [r7, #4]
  45 000e 002B     		cmp	r3, #0
  46 0010 71D0     		beq	.L2
  47              	.LBB2:
  35:.\PrinterSink.c ****     {
  36:.\PrinterSink.c ****         uint8 index = 0;
  48              		.loc 1 36 0
  49 0012 0023     		movs	r3, #0
  50 0014 FB70     		strb	r3, [r7, #3]
  37:.\PrinterSink.c ****         //The maximum number of observable identifiers is _OBSERVED_IDENTIFIERS_
  38:.\PrinterSink.c ****         //located in the header file "SinkManager.h"
  39:.\PrinterSink.c ****         //Every identifier is paired with its respective Callback method pointer
  40:.\PrinterSink.c ****         psubscriber->_arrmsgid[index] = PRINTER11_JOB;
  51              		.loc 1 40 0
  52 0016 FB78     		ldrb	r3, [r7, #3]	@ zero_extendqisi2
  53 0018 7A68     		ldr	r2, [r7, #4]
  54 001a 1344     		add	r3, r3, r2
  55 001c 1622     		movs	r2, #22
  56 001e 5A70     		strb	r2, [r3, #1]
  41:.\PrinterSink.c ****         psubscriber->Callback[index++] = Printer11Callback;
  57              		.loc 1 41 0
  58 0020 FB78     		ldrb	r3, [r7, #3]	@ zero_extendqisi2
  59 0022 5A1C     		adds	r2, r3, #1
  60 0024 FA70     		strb	r2, [r7, #3]
  61 0026 7A68     		ldr	r2, [r7, #4]
  62 0028 0233     		adds	r3, r3, #2
  63 002a 9B00     		lsls	r3, r3, #2
  64 002c 1344     		add	r3, r3, r2
  65 002e 3B4A     		ldr	r2, .L3
  66 0030 5A60     		str	r2, [r3, #4]
  42:.\PrinterSink.c **** 
  43:.\PrinterSink.c ****         psubscriber->_arrmsgid[index] = PRINTER12_JOB;
  67              		.loc 1 43 0
  68 0032 FB78     		ldrb	r3, [r7, #3]	@ zero_extendqisi2
  69 0034 7A68     		ldr	r2, [r7, #4]
  70 0036 1344     		add	r3, r3, r2
  71 0038 1722     		movs	r2, #23
ARM GAS  C:\Users\RECEPC~1\AppData\Local\Temp\ccfV00j5.s 			page 3


  72 003a 5A70     		strb	r2, [r3, #1]
  44:.\PrinterSink.c ****         psubscriber->Callback[index++] = Printer12Callback;
  73              		.loc 1 44 0
  74 003c FB78     		ldrb	r3, [r7, #3]	@ zero_extendqisi2
  75 003e 5A1C     		adds	r2, r3, #1
  76 0040 FA70     		strb	r2, [r7, #3]
  77 0042 7A68     		ldr	r2, [r7, #4]
  78 0044 0233     		adds	r3, r3, #2
  79 0046 9B00     		lsls	r3, r3, #2
  80 0048 1344     		add	r3, r3, r2
  81 004a 354A     		ldr	r2, .L3+4
  82 004c 5A60     		str	r2, [r3, #4]
  45:.\PrinterSink.c ****         
  46:.\PrinterSink.c ****         psubscriber->_arrmsgid[index] = PRINTER21_JOB;
  83              		.loc 1 46 0
  84 004e FB78     		ldrb	r3, [r7, #3]	@ zero_extendqisi2
  85 0050 7A68     		ldr	r2, [r7, #4]
  86 0052 1344     		add	r3, r3, r2
  87 0054 1822     		movs	r2, #24
  88 0056 5A70     		strb	r2, [r3, #1]
  47:.\PrinterSink.c ****         psubscriber->Callback[index++] = Printer21Callback;
  89              		.loc 1 47 0
  90 0058 FB78     		ldrb	r3, [r7, #3]	@ zero_extendqisi2
  91 005a 5A1C     		adds	r2, r3, #1
  92 005c FA70     		strb	r2, [r7, #3]
  93 005e 7A68     		ldr	r2, [r7, #4]
  94 0060 0233     		adds	r3, r3, #2
  95 0062 9B00     		lsls	r3, r3, #2
  96 0064 1344     		add	r3, r3, r2
  97 0066 2F4A     		ldr	r2, .L3+8
  98 0068 5A60     		str	r2, [r3, #4]
  48:.\PrinterSink.c **** 
  49:.\PrinterSink.c ****         psubscriber->_arrmsgid[index] = PRINTER22_JOB;
  99              		.loc 1 49 0
 100 006a FB78     		ldrb	r3, [r7, #3]	@ zero_extendqisi2
 101 006c 7A68     		ldr	r2, [r7, #4]
 102 006e 1344     		add	r3, r3, r2
 103 0070 1922     		movs	r2, #25
 104 0072 5A70     		strb	r2, [r3, #1]
  50:.\PrinterSink.c ****         psubscriber->Callback[index++] = Printer22Callback;
 105              		.loc 1 50 0
 106 0074 FB78     		ldrb	r3, [r7, #3]	@ zero_extendqisi2
 107 0076 5A1C     		adds	r2, r3, #1
 108 0078 FA70     		strb	r2, [r7, #3]
 109 007a 7A68     		ldr	r2, [r7, #4]
 110 007c 0233     		adds	r3, r3, #2
 111 007e 9B00     		lsls	r3, r3, #2
 112 0080 1344     		add	r3, r3, r2
 113 0082 294A     		ldr	r2, .L3+12
 114 0084 5A60     		str	r2, [r3, #4]
  51:.\PrinterSink.c **** 
  52:.\PrinterSink.c ****         psubscriber->_arrmsgid[index] = PRINTER1_GENERIC_JOB;
 115              		.loc 1 52 0
 116 0086 FB78     		ldrb	r3, [r7, #3]	@ zero_extendqisi2
 117 0088 7A68     		ldr	r2, [r7, #4]
 118 008a 1344     		add	r3, r3, r2
 119 008c 1A22     		movs	r2, #26
ARM GAS  C:\Users\RECEPC~1\AppData\Local\Temp\ccfV00j5.s 			page 4


 120 008e 5A70     		strb	r2, [r3, #1]
  53:.\PrinterSink.c ****         psubscriber->Callback[index++] = Printer1GenericCallback;
 121              		.loc 1 53 0
 122 0090 FB78     		ldrb	r3, [r7, #3]	@ zero_extendqisi2
 123 0092 5A1C     		adds	r2, r3, #1
 124 0094 FA70     		strb	r2, [r7, #3]
 125 0096 7A68     		ldr	r2, [r7, #4]
 126 0098 0233     		adds	r3, r3, #2
 127 009a 9B00     		lsls	r3, r3, #2
 128 009c 1344     		add	r3, r3, r2
 129 009e 234A     		ldr	r2, .L3+16
 130 00a0 5A60     		str	r2, [r3, #4]
  54:.\PrinterSink.c **** 
  55:.\PrinterSink.c ****         psubscriber->_arrmsgid[index] = PRINTER2_GENERIC_JOB;
 131              		.loc 1 55 0
 132 00a2 FB78     		ldrb	r3, [r7, #3]	@ zero_extendqisi2
 133 00a4 7A68     		ldr	r2, [r7, #4]
 134 00a6 1344     		add	r3, r3, r2
 135 00a8 1B22     		movs	r2, #27
 136 00aa 5A70     		strb	r2, [r3, #1]
  56:.\PrinterSink.c ****         psubscriber->Callback[index++] = Printer2GenericCallback;
 137              		.loc 1 56 0
 138 00ac FB78     		ldrb	r3, [r7, #3]	@ zero_extendqisi2
 139 00ae 5A1C     		adds	r2, r3, #1
 140 00b0 FA70     		strb	r2, [r7, #3]
 141 00b2 7A68     		ldr	r2, [r7, #4]
 142 00b4 0233     		adds	r3, r3, #2
 143 00b6 9B00     		lsls	r3, r3, #2
 144 00b8 1344     		add	r3, r3, r2
 145 00ba 1D4A     		ldr	r2, .L3+20
 146 00bc 5A60     		str	r2, [r3, #4]
  57:.\PrinterSink.c ****         
  58:.\PrinterSink.c ****         psubscriber->_arrmsgid[index] = PRINTER1_GENERIC_JOB_LOGO;
 147              		.loc 1 58 0
 148 00be FB78     		ldrb	r3, [r7, #3]	@ zero_extendqisi2
 149 00c0 7A68     		ldr	r2, [r7, #4]
 150 00c2 1344     		add	r3, r3, r2
 151 00c4 1C22     		movs	r2, #28
 152 00c6 5A70     		strb	r2, [r3, #1]
  59:.\PrinterSink.c ****         psubscriber->Callback[index++] = Printer1GenericCallbacklogo;
 153              		.loc 1 59 0
 154 00c8 FB78     		ldrb	r3, [r7, #3]	@ zero_extendqisi2
 155 00ca 5A1C     		adds	r2, r3, #1
 156 00cc FA70     		strb	r2, [r7, #3]
 157 00ce 7A68     		ldr	r2, [r7, #4]
 158 00d0 0233     		adds	r3, r3, #2
 159 00d2 9B00     		lsls	r3, r3, #2
 160 00d4 1344     		add	r3, r3, r2
 161 00d6 174A     		ldr	r2, .L3+24
 162 00d8 5A60     		str	r2, [r3, #4]
  60:.\PrinterSink.c **** 
  61:.\PrinterSink.c ****         psubscriber->_arrmsgid[index] = PRINTER2_GENERIC_JOB_LOGO;
 163              		.loc 1 61 0
 164 00da FB78     		ldrb	r3, [r7, #3]	@ zero_extendqisi2
 165 00dc 7A68     		ldr	r2, [r7, #4]
 166 00de 1344     		add	r3, r3, r2
 167 00e0 1D22     		movs	r2, #29
ARM GAS  C:\Users\RECEPC~1\AppData\Local\Temp\ccfV00j5.s 			page 5


 168 00e2 5A70     		strb	r2, [r3, #1]
  62:.\PrinterSink.c ****         psubscriber->Callback[index++] = Printer2GenericCallbacklogo;
 169              		.loc 1 62 0
 170 00e4 FB78     		ldrb	r3, [r7, #3]	@ zero_extendqisi2
 171 00e6 5A1C     		adds	r2, r3, #1
 172 00e8 FA70     		strb	r2, [r7, #3]
 173 00ea 7A68     		ldr	r2, [r7, #4]
 174 00ec 0233     		adds	r3, r3, #2
 175 00ee 9B00     		lsls	r3, r3, #2
 176 00f0 1344     		add	r3, r3, r2
 177 00f2 114A     		ldr	r2, .L3+28
 178 00f4 5A60     		str	r2, [r3, #4]
 179              	.L2:
 180              	.LBE2:
  63:.\PrinterSink.c ****     }
  64:.\PrinterSink.c ****     
  65:.\PrinterSink.c ****     //This is the default printer port allocation
  66:.\PrinterSink.c ****     _g_printerlayout._printerportside1 = PRINTER11_JOB;
 181              		.loc 1 66 0
 182 00f6 114B     		ldr	r3, .L3+32
 183 00f8 1622     		movs	r2, #22
 184 00fa 1A70     		strb	r2, [r3]
  67:.\PrinterSink.c ****     _g_printerlayout._printerportside2 = PRINTER21_JOB;
 185              		.loc 1 67 0
 186 00fc 0F4B     		ldr	r3, .L3+32
 187 00fe 1822     		movs	r2, #24
 188 0100 5A70     		strb	r2, [r3, #1]
  68:.\PrinterSink.c ****     //Loading printer port configuration from the EEPROM here ...
  69:.\PrinterSink.c ****     
  70:.\PrinterSink.c ****     memset(_g_padcharacters, _ASCII_SPACE_, _MAX_PRINTER_LINE_WIDTH_);
 189              		.loc 1 70 0
 190 0102 0F48     		ldr	r0, .L3+36
 191 0104 2021     		movs	r1, #32
 192 0106 1F22     		movs	r2, #31
 193 0108 FFF7FEFF 		bl	memset
  71:.\PrinterSink.c ****     memset(_g_separator, _ASCII_DASH_, _MAX_PRINTER_LINE_WIDTH_);
 194              		.loc 1 71 0
 195 010c 0D48     		ldr	r0, .L3+40
 196 010e 2A21     		movs	r1, #42
 197 0110 1F22     		movs	r2, #31
 198 0112 FFF7FEFF 		bl	memset
  72:.\PrinterSink.c **** }
 199              		.loc 1 72 0
 200 0116 0837     		adds	r7, r7, #8
 201              		.cfi_def_cfa_offset 8
 202 0118 BD46     		mov	sp, r7
 203              		.cfi_def_cfa_register 13
 204              		@ sp needed
 205 011a 80BD     		pop	{r7, pc}
 206              	.L4:
 207              		.align	2
 208              	.L3:
 209 011c 00000000 		.word	Printer11Callback
 210 0120 00000000 		.word	Printer12Callback
 211 0124 00000000 		.word	Printer21Callback
 212 0128 00000000 		.word	Printer22Callback
 213 012c 00000000 		.word	Printer1GenericCallback
ARM GAS  C:\Users\RECEPC~1\AppData\Local\Temp\ccfV00j5.s 			page 6


 214 0130 00000000 		.word	Printer2GenericCallback
 215 0134 00000000 		.word	Printer1GenericCallbacklogo
 216 0138 00000000 		.word	Printer2GenericCallbacklogo
 217 013c 00000000 		.word	_g_printerlayout
 218 0140 00000000 		.word	_g_padcharacters
 219 0144 00000000 		.word	_g_separator
 220              		.cfi_endproc
 221              	.LFE0:
 222              		.size	PrinterSinkRegistration, .-PrinterSinkRegistration
 223              		.text
 224              	.Letext0:
 225              		.file 2 ".\\SinkManager.h"
 226              		.file 3 "Generated_Source\\PSoC5/cytypes.h"
 227              		.file 4 ".\\Printer.h"
 228              		.file 5 ".\\SinkObservables.h"