ARM GAS  C:\Users\Lenovo\AppData\Local\Temp\cc3UQIZD.s 			page 1


   1              		.syntax unified
   2              		.cpu cortex-m3
   3              		.fpu softvfp
   4              		.eabi_attribute 20, 1
   5              		.eabi_attribute 21, 1
   6              		.eabi_attribute 23, 3
   7              		.eabi_attribute 24, 1
   8              		.eabi_attribute 25, 1
   9              		.eabi_attribute 26, 1
  10              		.eabi_attribute 30, 6
  11              		.eabi_attribute 34, 1
  12              		.eabi_attribute 18, 4
  13              		.thumb
  14              		.file	"PseudoRTOS.c"
  15              		.text
  16              	.Ltext0:
  17              		.cfi_sections	.debug_frame
  18              		.comm	HoseDispenser,1,1
  19              		.comm	_g_ptr_LOOP,4,4
  20              		.comm	_g_loop_container,68,4
  21              		.section	.text.loop_push,"ax",%progbits
  22              		.align	2
  23              		.global	loop_push
  24              		.thumb
  25              		.thumb_func
  26              		.type	loop_push, %function
  27              	loop_push:
  28              	.LFB0:
  29              		.file 1 ".\\PseudoRTOS.c"
   1:.\PseudoRTOS.c **** /* ========================================
   2:.\PseudoRTOS.c ****  *
   3:.\PseudoRTOS.c ****  * Copyright INSEPET SISTEMAS, 2016
   4:.\PseudoRTOS.c ****  * All Rights Reserved
   5:.\PseudoRTOS.c ****  * UNPUBLISHED, LICENSED SOFTWARE.
   6:.\PseudoRTOS.c ****  *
   7:.\PseudoRTOS.c ****  * CONFIDENTIAL AND PROPRIETARY INFORMATION
   8:.\PseudoRTOS.c ****  * WHICH IS THE PROPERTY OF your company.
   9:.\PseudoRTOS.c ****  *
  10:.\PseudoRTOS.c ****  * ========================================
  11:.\PseudoRTOS.c **** @Created by: HIJH
  12:.\PseudoRTOS.c **** @Date: Septembre 2 de 2016
  13:.\PseudoRTOS.c **** */
  14:.\PseudoRTOS.c **** #include "GlobalDefinitions.h"
  15:.\PseudoRTOS.c **** 
  16:.\PseudoRTOS.c **** PTR_LOOP _g_ptr_LOOP;
  17:.\PseudoRTOS.c **** LOOPContainer _g_loop_container;
  18:.\PseudoRTOS.c **** 
  19:.\PseudoRTOS.c **** //@Created By: HIJH
  20:.\PseudoRTOS.c **** //@Septembre de 2016
  21:.\PseudoRTOS.c **** void loop_push(PTR_LOOP _func)
  22:.\PseudoRTOS.c **** {
  30              		.loc 1 22 0
  31              		.cfi_startproc
  32              		@ args = 0, pretend = 0, frame = 8
  33              		@ frame_needed = 1, uses_anonymous_args = 0
  34              		@ link register save eliminated.
  35 0000 80B4     		push	{r7}
ARM GAS  C:\Users\Lenovo\AppData\Local\Temp\cc3UQIZD.s 			page 2


  36              		.cfi_def_cfa_offset 4
  37              		.cfi_offset 7, -4
  38 0002 83B0     		sub	sp, sp, #12
  39              		.cfi_def_cfa_offset 16
  40 0004 00AF     		add	r7, sp, #0
  41              		.cfi_def_cfa_register 7
  42 0006 7860     		str	r0, [r7, #4]
  23:.\PseudoRTOS.c ****     if(_g_loop_container._index < _MAX_LOOP_POINTERS)
  43              		.loc 1 23 0
  44 0008 0B4B     		ldr	r3, .L3
  45 000a 93F84030 		ldrb	r3, [r3, #64]	@ zero_extendqisi2
  46 000e 0F2B     		cmp	r3, #15
  47 0010 0CD8     		bhi	.L1
  24:.\PseudoRTOS.c ****         _g_loop_container._ptrarr[_g_loop_container._index++] = _func;
  48              		.loc 1 24 0
  49 0012 094B     		ldr	r3, .L3
  50 0014 93F84030 		ldrb	r3, [r3, #64]	@ zero_extendqisi2
  51 0018 5A1C     		adds	r2, r3, #1
  52 001a D1B2     		uxtb	r1, r2
  53 001c 064A     		ldr	r2, .L3
  54 001e 82F84010 		strb	r1, [r2, #64]
  55 0022 1946     		mov	r1, r3
  56 0024 044A     		ldr	r2, .L3
  57 0026 7B68     		ldr	r3, [r7, #4]
  58 0028 42F82130 		str	r3, [r2, r1, lsl #2]
  59              	.L1:
  25:.\PseudoRTOS.c **** }
  60              		.loc 1 25 0
  61 002c 0C37     		adds	r7, r7, #12
  62              		.cfi_def_cfa_offset 4
  63 002e BD46     		mov	sp, r7
  64              		.cfi_def_cfa_register 13
  65              		@ sp needed
  66 0030 5DF8047B 		ldr	r7, [sp], #4
  67              		.cfi_restore 7
  68              		.cfi_def_cfa_offset 0
  69 0034 7047     		bx	lr
  70              	.L4:
  71 0036 00BF     		.align	2
  72              	.L3:
  73 0038 00000000 		.word	_g_loop_container
  74              		.cfi_endproc
  75              	.LFE0:
  76              		.size	loop_push, .-loop_push
  77              		.section	.text.loop_invoke,"ax",%progbits
  78              		.align	2
  79              		.global	loop_invoke
  80              		.thumb
  81              		.thumb_func
  82              		.type	loop_invoke, %function
  83              	loop_invoke:
  84              	.LFB1:
  26:.\PseudoRTOS.c **** 
  27:.\PseudoRTOS.c **** //@Created By: HIJH
  28:.\PseudoRTOS.c **** //@Septembre de 2016
  29:.\PseudoRTOS.c **** void loop_invoke()
  30:.\PseudoRTOS.c **** {
ARM GAS  C:\Users\Lenovo\AppData\Local\Temp\cc3UQIZD.s 			page 3


  85              		.loc 1 30 0
  86              		.cfi_startproc
  87              		@ args = 0, pretend = 0, frame = 8
  88              		@ frame_needed = 1, uses_anonymous_args = 0
  89 0000 80B5     		push	{r7, lr}
  90              		.cfi_def_cfa_offset 8
  91              		.cfi_offset 7, -8
  92              		.cfi_offset 14, -4
  93 0002 82B0     		sub	sp, sp, #8
  94              		.cfi_def_cfa_offset 16
  95 0004 00AF     		add	r7, sp, #0
  96              		.cfi_def_cfa_register 7
  31:.\PseudoRTOS.c ****     FOR(uint8_t ndx = 0, ndx < _g_loop_container._index, ndx++)
  97              		.loc 1 31 0
  98 0006 0023     		movs	r3, #0
  99 0008 FB71     		strb	r3, [r7, #7]
 100 000a 11E0     		b	.L6
 101              	.L10:
  32:.\PseudoRTOS.c ****     {
  33:.\PseudoRTOS.c ****         _g_ptr_LOOP = _g_loop_container._ptrarr[ndx];
 102              		.loc 1 33 0
 103 000c FB79     		ldrb	r3, [r7, #7]	@ zero_extendqisi2
 104 000e 0D4A     		ldr	r2, .L12
 105 0010 52F82330 		ldr	r3, [r2, r3, lsl #2]
 106 0014 0C4A     		ldr	r2, .L12+4
 107 0016 1360     		str	r3, [r2]
  34:.\PseudoRTOS.c ****         if(_g_ptr_LOOP)
 108              		.loc 1 34 0
 109 0018 0B4B     		ldr	r3, .L12+4
 110 001a 1B68     		ldr	r3, [r3]
 111 001c 002B     		cmp	r3, #0
 112 001e 03D0     		beq	.L7
  35:.\PseudoRTOS.c ****              _g_ptr_LOOP();
 113              		.loc 1 35 0
 114 0020 094B     		ldr	r3, .L12+4
 115 0022 1B68     		ldr	r3, [r3]
 116 0024 9847     		blx	r3
 117 0026 00E0     		b	.L11
 118              	.L7:
  36:.\PseudoRTOS.c ****         else
  37:.\PseudoRTOS.c ****             break;
 119              		.loc 1 37 0
 120 0028 08E0     		b	.L5
 121              	.L11:
  31:.\PseudoRTOS.c ****     {
 122              		.loc 1 31 0 discriminator 2
 123 002a FB79     		ldrb	r3, [r7, #7]	@ zero_extendqisi2
 124 002c 0133     		adds	r3, r3, #1
 125 002e FB71     		strb	r3, [r7, #7]
 126              	.L6:
  31:.\PseudoRTOS.c ****     {
 127              		.loc 1 31 0 is_stmt 0 discriminator 1
 128 0030 044B     		ldr	r3, .L12
 129 0032 93F84030 		ldrb	r3, [r3, #64]	@ zero_extendqisi2
 130 0036 FA79     		ldrb	r2, [r7, #7]	@ zero_extendqisi2
 131 0038 9A42     		cmp	r2, r3
 132 003a E7D3     		bcc	.L10
ARM GAS  C:\Users\Lenovo\AppData\Local\Temp\cc3UQIZD.s 			page 4


 133              	.L5:
  38:.\PseudoRTOS.c ****     }
  39:.\PseudoRTOS.c **** }
 134              		.loc 1 39 0 is_stmt 1
 135 003c 0837     		adds	r7, r7, #8
 136              		.cfi_def_cfa_offset 8
 137 003e BD46     		mov	sp, r7
 138              		.cfi_def_cfa_register 13
 139              		@ sp needed
 140 0040 80BD     		pop	{r7, pc}
 141              	.L13:
 142 0042 00BF     		.align	2
 143              	.L12:
 144 0044 00000000 		.word	_g_loop_container
 145 0048 00000000 		.word	_g_ptr_LOOP
 146              		.cfi_endproc
 147              	.LFE1:
 148              		.size	loop_invoke, .-loop_invoke
 149              		.text
 150              	.Letext0:
 151              		.file 2 "c:\\program files (x86)\\cypress\\psoc creator\\3.3\\psoc creator\\import\\gnu\\arm\\4.9.
 152              		.file 3 "c:\\program files (x86)\\cypress\\psoc creator\\3.3\\psoc creator\\import\\gnu\\arm\\4.9.
 153              		.file 4 "Generated_Source\\PSoC5/cytypes.h"
 154              		.file 5 ".\\GlobalDefinitions.h"