ARM GAS  C:\Users\RECEPC~1\AppData\Local\Temp\ccU59OXd.s 			page 1


   1              		.syntax unified
   2              		.cpu cortex-m3
   3              		.fpu softvfp
   4              		.eabi_attribute 20, 1
   5              		.eabi_attribute 21, 1
   6              		.eabi_attribute 23, 3
   7              		.eabi_attribute 24, 1
   8              		.eabi_attribute 25, 1
   9              		.eabi_attribute 26, 1
  10              		.eabi_attribute 30, 6
  11              		.eabi_attribute 34, 1
  12              		.eabi_attribute 18, 4
  13              		.thumb
  14              		.file	"RF_Physical_INT.c"
  15              		.text
  16              	.Ltext0:
  17              		.cfi_sections	.debug_frame
  18              		.section	.text.RF_Physical_RXISR,"ax",%progbits
  19              		.align	2
  20              		.global	RF_Physical_RXISR
  21              		.thumb
  22              		.thumb_func
  23              		.type	RF_Physical_RXISR, %function
  24              	RF_Physical_RXISR:
  25              	.LFB0:
  26              		.file 1 ".\\Generated_Source\\PSoC5\\RF_Physical_INT.c"
   1:.\Generated_Source\PSoC5/RF_Physical_INT.c **** /*******************************************************************************
   2:.\Generated_Source\PSoC5/RF_Physical_INT.c **** * File Name: RF_PhysicalINT.c
   3:.\Generated_Source\PSoC5/RF_Physical_INT.c **** * Version 2.50
   4:.\Generated_Source\PSoC5/RF_Physical_INT.c **** *
   5:.\Generated_Source\PSoC5/RF_Physical_INT.c **** * Description:
   6:.\Generated_Source\PSoC5/RF_Physical_INT.c **** *  This file provides all Interrupt Service functionality of the UART component
   7:.\Generated_Source\PSoC5/RF_Physical_INT.c **** *
   8:.\Generated_Source\PSoC5/RF_Physical_INT.c **** ********************************************************************************
   9:.\Generated_Source\PSoC5/RF_Physical_INT.c **** * Copyright 2008-2015, Cypress Semiconductor Corporation.  All rights reserved.
  10:.\Generated_Source\PSoC5/RF_Physical_INT.c **** * You may use this file only in accordance with the license, terms, conditions,
  11:.\Generated_Source\PSoC5/RF_Physical_INT.c **** * disclaimers, and limitations in the end user license agreement accompanying
  12:.\Generated_Source\PSoC5/RF_Physical_INT.c **** * the software package with which this file was provided.
  13:.\Generated_Source\PSoC5/RF_Physical_INT.c **** *******************************************************************************/
  14:.\Generated_Source\PSoC5/RF_Physical_INT.c **** 
  15:.\Generated_Source\PSoC5/RF_Physical_INT.c **** #include "RF_Physical.h"
  16:.\Generated_Source\PSoC5/RF_Physical_INT.c **** #include "cyapicallbacks.h"
  17:.\Generated_Source\PSoC5/RF_Physical_INT.c **** 
  18:.\Generated_Source\PSoC5/RF_Physical_INT.c **** 
  19:.\Generated_Source\PSoC5/RF_Physical_INT.c **** /***************************************
  20:.\Generated_Source\PSoC5/RF_Physical_INT.c **** * Custom Declarations
  21:.\Generated_Source\PSoC5/RF_Physical_INT.c **** ***************************************/
  22:.\Generated_Source\PSoC5/RF_Physical_INT.c **** /* `#START CUSTOM_DECLARATIONS` Place your declaration here */
  23:.\Generated_Source\PSoC5/RF_Physical_INT.c **** 
  24:.\Generated_Source\PSoC5/RF_Physical_INT.c **** #include "UARTManager.h"
  25:.\Generated_Source\PSoC5/RF_Physical_INT.c **** 
  26:.\Generated_Source\PSoC5/RF_Physical_INT.c **** //This identifier will be used to reply incoming messages into the SinkManager
  27:.\Generated_Source\PSoC5/RF_Physical_INT.c **** 
  28:.\Generated_Source\PSoC5/RF_Physical_INT.c **** /* `#END` */
  29:.\Generated_Source\PSoC5/RF_Physical_INT.c **** 
  30:.\Generated_Source\PSoC5/RF_Physical_INT.c **** #if (RF_Physical_RX_INTERRUPT_ENABLED && (RF_Physical_RX_ENABLED || RF_Physical_HD_ENABLED))
  31:.\Generated_Source\PSoC5/RF_Physical_INT.c ****     /*******************************************************************************
ARM GAS  C:\Users\RECEPC~1\AppData\Local\Temp\ccU59OXd.s 			page 2


  32:.\Generated_Source\PSoC5/RF_Physical_INT.c ****     * Function Name: RF_Physical_RXISR
  33:.\Generated_Source\PSoC5/RF_Physical_INT.c ****     ********************************************************************************
  34:.\Generated_Source\PSoC5/RF_Physical_INT.c ****     *
  35:.\Generated_Source\PSoC5/RF_Physical_INT.c ****     * Summary:
  36:.\Generated_Source\PSoC5/RF_Physical_INT.c ****     *  Interrupt Service Routine for RX portion of the UART
  37:.\Generated_Source\PSoC5/RF_Physical_INT.c ****     *
  38:.\Generated_Source\PSoC5/RF_Physical_INT.c ****     * Parameters:
  39:.\Generated_Source\PSoC5/RF_Physical_INT.c ****     *  None.
  40:.\Generated_Source\PSoC5/RF_Physical_INT.c ****     *
  41:.\Generated_Source\PSoC5/RF_Physical_INT.c ****     * Return:
  42:.\Generated_Source\PSoC5/RF_Physical_INT.c ****     *  None.
  43:.\Generated_Source\PSoC5/RF_Physical_INT.c ****     *
  44:.\Generated_Source\PSoC5/RF_Physical_INT.c ****     * Global Variables:
  45:.\Generated_Source\PSoC5/RF_Physical_INT.c ****     *  RF_Physical_rxBuffer - RAM buffer pointer for save received data.
  46:.\Generated_Source\PSoC5/RF_Physical_INT.c ****     *  RF_Physical_rxBufferWrite - cyclic index for write to rxBuffer,
  47:.\Generated_Source\PSoC5/RF_Physical_INT.c ****     *     increments after each byte saved to buffer.
  48:.\Generated_Source\PSoC5/RF_Physical_INT.c ****     *  RF_Physical_rxBufferRead - cyclic index for read from rxBuffer,
  49:.\Generated_Source\PSoC5/RF_Physical_INT.c ****     *     checked to detect overflow condition.
  50:.\Generated_Source\PSoC5/RF_Physical_INT.c ****     *  RF_Physical_rxBufferOverflow - software overflow flag. Set to one
  51:.\Generated_Source\PSoC5/RF_Physical_INT.c ****     *     when RF_Physical_rxBufferWrite index overtakes
  52:.\Generated_Source\PSoC5/RF_Physical_INT.c ****     *     RF_Physical_rxBufferRead index.
  53:.\Generated_Source\PSoC5/RF_Physical_INT.c ****     *  RF_Physical_rxBufferLoopDetect - additional variable to detect overflow.
  54:.\Generated_Source\PSoC5/RF_Physical_INT.c ****     *     Set to one when RF_Physical_rxBufferWrite is equal to
  55:.\Generated_Source\PSoC5/RF_Physical_INT.c ****     *    RF_Physical_rxBufferRead
  56:.\Generated_Source\PSoC5/RF_Physical_INT.c ****     *  RF_Physical_rxAddressMode - this variable contains the Address mode,
  57:.\Generated_Source\PSoC5/RF_Physical_INT.c ****     *     selected in customizer or set by UART_SetRxAddressMode() API.
  58:.\Generated_Source\PSoC5/RF_Physical_INT.c ****     *  RF_Physical_rxAddressDetected - set to 1 when correct address received,
  59:.\Generated_Source\PSoC5/RF_Physical_INT.c ****     *     and analysed to store following addressed data bytes to the buffer.
  60:.\Generated_Source\PSoC5/RF_Physical_INT.c ****     *     When not correct address received, set to 0 to skip following data bytes.
  61:.\Generated_Source\PSoC5/RF_Physical_INT.c ****     *
  62:.\Generated_Source\PSoC5/RF_Physical_INT.c ****     *******************************************************************************/
  63:.\Generated_Source\PSoC5/RF_Physical_INT.c ****     CY_ISR(RF_Physical_RXISR)
  64:.\Generated_Source\PSoC5/RF_Physical_INT.c ****     {
  27              		.loc 1 64 0
  28              		.cfi_startproc
  29              		@ args = 0, pretend = 0, frame = 8
  30              		@ frame_needed = 1, uses_anonymous_args = 0
  31 0000 80B5     		push	{r7, lr}
  32              		.cfi_def_cfa_offset 8
  33              		.cfi_offset 7, -8
  34              		.cfi_offset 14, -4
  35 0002 82B0     		sub	sp, sp, #8
  36              		.cfi_def_cfa_offset 16
  37 0004 00AF     		add	r7, sp, #0
  38              		.cfi_def_cfa_register 7
  65:.\Generated_Source\PSoC5/RF_Physical_INT.c ****         uint8 readData;
  66:.\Generated_Source\PSoC5/RF_Physical_INT.c ****         uint8 readStatus;
  67:.\Generated_Source\PSoC5/RF_Physical_INT.c ****         uint8 increment_pointer = 0u;
  39              		.loc 1 67 0
  40 0006 0023     		movs	r3, #0
  41 0008 FB71     		strb	r3, [r7, #7]
  42              	.L6:
  68:.\Generated_Source\PSoC5/RF_Physical_INT.c **** 
  69:.\Generated_Source\PSoC5/RF_Physical_INT.c ****     #if(CY_PSOC3)
  70:.\Generated_Source\PSoC5/RF_Physical_INT.c ****         uint8 int_en;
  71:.\Generated_Source\PSoC5/RF_Physical_INT.c ****     #endif /* (CY_PSOC3) */
  72:.\Generated_Source\PSoC5/RF_Physical_INT.c **** 
ARM GAS  C:\Users\RECEPC~1\AppData\Local\Temp\ccU59OXd.s 			page 3


  73:.\Generated_Source\PSoC5/RF_Physical_INT.c ****     #ifdef RF_Physical_RXISR_ENTRY_CALLBACK
  74:.\Generated_Source\PSoC5/RF_Physical_INT.c ****         RF_Physical_RXISR_EntryCallback();
  75:.\Generated_Source\PSoC5/RF_Physical_INT.c ****     #endif /* RF_Physical_RXISR_ENTRY_CALLBACK */
  76:.\Generated_Source\PSoC5/RF_Physical_INT.c **** 
  77:.\Generated_Source\PSoC5/RF_Physical_INT.c ****         /* User code required at start of ISR */
  78:.\Generated_Source\PSoC5/RF_Physical_INT.c ****         /* `#START RF_Physical_RXISR_START` */
  79:.\Generated_Source\PSoC5/RF_Physical_INT.c ****                 
  80:.\Generated_Source\PSoC5/RF_Physical_INT.c ****         /* `#END` */
  81:.\Generated_Source\PSoC5/RF_Physical_INT.c **** 
  82:.\Generated_Source\PSoC5/RF_Physical_INT.c ****     #if(CY_PSOC3)   /* Make sure nested interrupt is enabled */
  83:.\Generated_Source\PSoC5/RF_Physical_INT.c ****         int_en = EA;
  84:.\Generated_Source\PSoC5/RF_Physical_INT.c ****         CyGlobalIntEnable;
  85:.\Generated_Source\PSoC5/RF_Physical_INT.c ****     #endif /* (CY_PSOC3) */
  86:.\Generated_Source\PSoC5/RF_Physical_INT.c **** 
  87:.\Generated_Source\PSoC5/RF_Physical_INT.c ****         do
  88:.\Generated_Source\PSoC5/RF_Physical_INT.c ****         {
  89:.\Generated_Source\PSoC5/RF_Physical_INT.c ****             /* Read receiver status register */
  90:.\Generated_Source\PSoC5/RF_Physical_INT.c ****             readStatus = RF_Physical_RXSTATUS_REG;
  43              		.loc 1 90 0
  44 000a 314B     		ldr	r3, .L8
  45 000c 1B78     		ldrb	r3, [r3]
  46 000e BB71     		strb	r3, [r7, #6]
  91:.\Generated_Source\PSoC5/RF_Physical_INT.c ****             /* Copy the same status to readData variable for backward compatibility support 
  92:.\Generated_Source\PSoC5/RF_Physical_INT.c ****             *  of the user code in RF_Physical_RXISR_ERROR` section. 
  93:.\Generated_Source\PSoC5/RF_Physical_INT.c ****             */
  94:.\Generated_Source\PSoC5/RF_Physical_INT.c ****             readData = readStatus;
  47              		.loc 1 94 0
  48 0010 BB79     		ldrb	r3, [r7, #6]
  49 0012 7B71     		strb	r3, [r7, #5]
  95:.\Generated_Source\PSoC5/RF_Physical_INT.c **** 
  96:.\Generated_Source\PSoC5/RF_Physical_INT.c ****             if((readStatus & (RF_Physical_RX_STS_BREAK | 
  97:.\Generated_Source\PSoC5/RF_Physical_INT.c ****                             RF_Physical_RX_STS_PAR_ERROR |
  98:.\Generated_Source\PSoC5/RF_Physical_INT.c ****                             RF_Physical_RX_STS_STOP_ERROR | 
  99:.\Generated_Source\PSoC5/RF_Physical_INT.c ****                             RF_Physical_RX_STS_OVERRUN)) != 0u)
  50              		.loc 1 99 0
  51 0014 BB79     		ldrb	r3, [r7, #6]	@ zero_extendqisi2
  52 0016 03F01E03 		and	r3, r3, #30
  96:.\Generated_Source\PSoC5/RF_Physical_INT.c ****                             RF_Physical_RX_STS_PAR_ERROR |
  53              		.loc 1 96 0
  54 001a 002B     		cmp	r3, #0
  55 001c 0BD0     		beq	.L2
 100:.\Generated_Source\PSoC5/RF_Physical_INT.c ****             {
 101:.\Generated_Source\PSoC5/RF_Physical_INT.c ****                 /* ERROR handling. */
 102:.\Generated_Source\PSoC5/RF_Physical_INT.c ****                 RF_Physical_errorStatus |= readStatus & ( RF_Physical_RX_STS_BREAK | 
  56              		.loc 1 102 0
  57 001e BB79     		ldrb	r3, [r7, #6]	@ zero_extendqisi2
  58 0020 03F01E03 		and	r3, r3, #30
  59 0024 DAB2     		uxtb	r2, r3
  60 0026 2B4B     		ldr	r3, .L8+4
  61 0028 1B78     		ldrb	r3, [r3]	@ zero_extendqisi2
  62 002a DBB2     		uxtb	r3, r3
  63 002c 1343     		orrs	r3, r3, r2
  64 002e DBB2     		uxtb	r3, r3
  65 0030 DAB2     		uxtb	r2, r3
  66 0032 284B     		ldr	r3, .L8+4
  67 0034 1A70     		strb	r2, [r3]
  68              	.L2:
ARM GAS  C:\Users\RECEPC~1\AppData\Local\Temp\ccU59OXd.s 			page 4


 103:.\Generated_Source\PSoC5/RF_Physical_INT.c ****                                                             RF_Physical_RX_STS_PAR_ERROR | 
 104:.\Generated_Source\PSoC5/RF_Physical_INT.c ****                                                             RF_Physical_RX_STS_STOP_ERROR | 
 105:.\Generated_Source\PSoC5/RF_Physical_INT.c ****                                                             RF_Physical_RX_STS_OVERRUN);
 106:.\Generated_Source\PSoC5/RF_Physical_INT.c ****                 /* `#START RF_Physical_RXISR_ERROR` */
 107:.\Generated_Source\PSoC5/RF_Physical_INT.c **** 
 108:.\Generated_Source\PSoC5/RF_Physical_INT.c ****                 /* `#END` */
 109:.\Generated_Source\PSoC5/RF_Physical_INT.c ****                 
 110:.\Generated_Source\PSoC5/RF_Physical_INT.c ****             #ifdef RF_Physical_RXISR_ERROR_CALLBACK
 111:.\Generated_Source\PSoC5/RF_Physical_INT.c ****                 RF_Physical_RXISR_ERROR_Callback();
 112:.\Generated_Source\PSoC5/RF_Physical_INT.c ****             #endif /* RF_Physical_RXISR_ERROR_CALLBACK */
 113:.\Generated_Source\PSoC5/RF_Physical_INT.c ****             }
 114:.\Generated_Source\PSoC5/RF_Physical_INT.c ****             
 115:.\Generated_Source\PSoC5/RF_Physical_INT.c ****             if((readStatus & RF_Physical_RX_STS_FIFO_NOTEMPTY) != 0u)
  69              		.loc 1 115 0
  70 0036 BB79     		ldrb	r3, [r7, #6]	@ zero_extendqisi2
  71 0038 03F02003 		and	r3, r3, #32
  72 003c 002B     		cmp	r3, #0
  73 003e 31D0     		beq	.L3
 116:.\Generated_Source\PSoC5/RF_Physical_INT.c ****             {
 117:.\Generated_Source\PSoC5/RF_Physical_INT.c ****                 /* Read data from the RX data register */
 118:.\Generated_Source\PSoC5/RF_Physical_INT.c ****                 readData = RF_Physical_RXDATA_REG;
  74              		.loc 1 118 0
  75 0040 254B     		ldr	r3, .L8+8
  76 0042 1B78     		ldrb	r3, [r3]
  77 0044 7B71     		strb	r3, [r7, #5]
 119:.\Generated_Source\PSoC5/RF_Physical_INT.c ****             #if (RF_Physical_RXHW_ADDRESS_ENABLED)
 120:.\Generated_Source\PSoC5/RF_Physical_INT.c ****                 if(RF_Physical_rxAddressMode == (uint8)RF_Physical__B_UART__AM_SW_DETECT_TO_BUFFER)
 121:.\Generated_Source\PSoC5/RF_Physical_INT.c ****                 {
 122:.\Generated_Source\PSoC5/RF_Physical_INT.c ****                     if((readStatus & RF_Physical_RX_STS_MRKSPC) != 0u)
 123:.\Generated_Source\PSoC5/RF_Physical_INT.c ****                     {
 124:.\Generated_Source\PSoC5/RF_Physical_INT.c ****                         if ((readStatus & RF_Physical_RX_STS_ADDR_MATCH) != 0u)
 125:.\Generated_Source\PSoC5/RF_Physical_INT.c ****                         {
 126:.\Generated_Source\PSoC5/RF_Physical_INT.c ****                             RF_Physical_rxAddressDetected = 1u;
 127:.\Generated_Source\PSoC5/RF_Physical_INT.c ****                         }
 128:.\Generated_Source\PSoC5/RF_Physical_INT.c ****                         else
 129:.\Generated_Source\PSoC5/RF_Physical_INT.c ****                         {
 130:.\Generated_Source\PSoC5/RF_Physical_INT.c ****                             RF_Physical_rxAddressDetected = 0u;
 131:.\Generated_Source\PSoC5/RF_Physical_INT.c ****                         }
 132:.\Generated_Source\PSoC5/RF_Physical_INT.c ****                     }
 133:.\Generated_Source\PSoC5/RF_Physical_INT.c ****                     if(RF_Physical_rxAddressDetected != 0u)
 134:.\Generated_Source\PSoC5/RF_Physical_INT.c ****                     {   /* Store only addressed data */
 135:.\Generated_Source\PSoC5/RF_Physical_INT.c ****                         RF_Physical_rxBuffer[RF_Physical_rxBufferWrite] = readData;
 136:.\Generated_Source\PSoC5/RF_Physical_INT.c ****                         increment_pointer = 1u;
 137:.\Generated_Source\PSoC5/RF_Physical_INT.c ****                     }
 138:.\Generated_Source\PSoC5/RF_Physical_INT.c ****                 }
 139:.\Generated_Source\PSoC5/RF_Physical_INT.c ****                 else /* Without software addressing */
 140:.\Generated_Source\PSoC5/RF_Physical_INT.c ****                 {
 141:.\Generated_Source\PSoC5/RF_Physical_INT.c ****                     RF_Physical_rxBuffer[RF_Physical_rxBufferWrite] = readData;
 142:.\Generated_Source\PSoC5/RF_Physical_INT.c ****                     increment_pointer = 1u;
 143:.\Generated_Source\PSoC5/RF_Physical_INT.c ****                 }
 144:.\Generated_Source\PSoC5/RF_Physical_INT.c ****             #else  /* Without addressing */
 145:.\Generated_Source\PSoC5/RF_Physical_INT.c ****                 RF_Physical_rxBuffer[RF_Physical_rxBufferWrite] = readData;
  78              		.loc 1 145 0
  79 0046 254B     		ldr	r3, .L8+12
  80 0048 1B88     		ldrh	r3, [r3]	@ movhi
  81 004a 9BB2     		uxth	r3, r3
  82 004c 1946     		mov	r1, r3
ARM GAS  C:\Users\RECEPC~1\AppData\Local\Temp\ccU59OXd.s 			page 5


  83 004e 244A     		ldr	r2, .L8+16
  84 0050 7B79     		ldrb	r3, [r7, #5]
  85 0052 5354     		strb	r3, [r2, r1]
 146:.\Generated_Source\PSoC5/RF_Physical_INT.c ****                 increment_pointer = 1u;
  86              		.loc 1 146 0
  87 0054 0123     		movs	r3, #1
  88 0056 FB71     		strb	r3, [r7, #7]
 147:.\Generated_Source\PSoC5/RF_Physical_INT.c ****             #endif /* (RF_Physical_RXHW_ADDRESS_ENABLED) */
 148:.\Generated_Source\PSoC5/RF_Physical_INT.c **** 
 149:.\Generated_Source\PSoC5/RF_Physical_INT.c ****                 /* Do not increment buffer pointer when skip not addressed data */
 150:.\Generated_Source\PSoC5/RF_Physical_INT.c ****                 if(increment_pointer != 0u)
  89              		.loc 1 150 0
  90 0058 FB79     		ldrb	r3, [r7, #7]	@ zero_extendqisi2
  91 005a 002B     		cmp	r3, #0
  92 005c 22D0     		beq	.L3
 151:.\Generated_Source\PSoC5/RF_Physical_INT.c ****                 {
 152:.\Generated_Source\PSoC5/RF_Physical_INT.c ****                     if(RF_Physical_rxBufferLoopDetect != 0u)
  93              		.loc 1 152 0
  94 005e 214B     		ldr	r3, .L8+20
  95 0060 1B78     		ldrb	r3, [r3]
  96 0062 DBB2     		uxtb	r3, r3
  97 0064 002B     		cmp	r3, #0
  98 0066 02D0     		beq	.L4
 153:.\Generated_Source\PSoC5/RF_Physical_INT.c ****                     {   /* Set Software Buffer status Overflow */
 154:.\Generated_Source\PSoC5/RF_Physical_INT.c ****                         RF_Physical_rxBufferOverflow = 1u;
  99              		.loc 1 154 0
 100 0068 1F4B     		ldr	r3, .L8+24
 101 006a 0122     		movs	r2, #1
 102 006c 1A70     		strb	r2, [r3]
 103              	.L4:
 155:.\Generated_Source\PSoC5/RF_Physical_INT.c ****                     }
 156:.\Generated_Source\PSoC5/RF_Physical_INT.c ****                     /* Set next pointer. */
 157:.\Generated_Source\PSoC5/RF_Physical_INT.c ****                     RF_Physical_rxBufferWrite++;
 104              		.loc 1 157 0
 105 006e 1B4B     		ldr	r3, .L8+12
 106 0070 1B88     		ldrh	r3, [r3]	@ movhi
 107 0072 9BB2     		uxth	r3, r3
 108 0074 0133     		adds	r3, r3, #1
 109 0076 9AB2     		uxth	r2, r3
 110 0078 184B     		ldr	r3, .L8+12
 111 007a 1A80     		strh	r2, [r3]	@ movhi
 158:.\Generated_Source\PSoC5/RF_Physical_INT.c **** 
 159:.\Generated_Source\PSoC5/RF_Physical_INT.c ****                     /* Check pointer for a loop condition */
 160:.\Generated_Source\PSoC5/RF_Physical_INT.c ****                     if(RF_Physical_rxBufferWrite >= RF_Physical_RX_BUFFER_SIZE)
 112              		.loc 1 160 0
 113 007c 174B     		ldr	r3, .L8+12
 114 007e 1B88     		ldrh	r3, [r3]	@ movhi
 115 0080 9BB2     		uxth	r3, r3
 116 0082 B3F5007F 		cmp	r3, #512
 117 0086 02D3     		bcc	.L5
 161:.\Generated_Source\PSoC5/RF_Physical_INT.c ****                     {
 162:.\Generated_Source\PSoC5/RF_Physical_INT.c ****                         RF_Physical_rxBufferWrite = 0u;
 118              		.loc 1 162 0
 119 0088 144B     		ldr	r3, .L8+12
 120 008a 0022     		movs	r2, #0
 121 008c 1A80     		strh	r2, [r3]	@ movhi
 122              	.L5:
ARM GAS  C:\Users\RECEPC~1\AppData\Local\Temp\ccU59OXd.s 			page 6


 163:.\Generated_Source\PSoC5/RF_Physical_INT.c ****                     }
 164:.\Generated_Source\PSoC5/RF_Physical_INT.c **** 
 165:.\Generated_Source\PSoC5/RF_Physical_INT.c ****                     /* Detect pre-overload condition and set flag */
 166:.\Generated_Source\PSoC5/RF_Physical_INT.c ****                     if(RF_Physical_rxBufferWrite == RF_Physical_rxBufferRead)
 123              		.loc 1 166 0
 124 008e 134B     		ldr	r3, .L8+12
 125 0090 1B88     		ldrh	r3, [r3]	@ movhi
 126 0092 9AB2     		uxth	r2, r3
 127 0094 154B     		ldr	r3, .L8+28
 128 0096 1B88     		ldrh	r3, [r3]	@ movhi
 129 0098 9BB2     		uxth	r3, r3
 130 009a 9A42     		cmp	r2, r3
 131 009c 02D1     		bne	.L3
 167:.\Generated_Source\PSoC5/RF_Physical_INT.c ****                     {
 168:.\Generated_Source\PSoC5/RF_Physical_INT.c ****                         RF_Physical_rxBufferLoopDetect = 1u;
 132              		.loc 1 168 0
 133 009e 114B     		ldr	r3, .L8+20
 134 00a0 0122     		movs	r2, #1
 135 00a2 1A70     		strb	r2, [r3]
 136              	.L3:
 169:.\Generated_Source\PSoC5/RF_Physical_INT.c ****                         /* When Hardware Flow Control selected */
 170:.\Generated_Source\PSoC5/RF_Physical_INT.c ****                         #if (RF_Physical_FLOW_CONTROL != 0u)
 171:.\Generated_Source\PSoC5/RF_Physical_INT.c ****                             /* Disable RX interrupt mask, it is enabled when user read data from th
 172:.\Generated_Source\PSoC5/RF_Physical_INT.c ****                             RF_Physical_RXSTATUS_MASK_REG  &= (uint8)~RF_Physical_RX_STS_FIFO_NOTEM
 173:.\Generated_Source\PSoC5/RF_Physical_INT.c ****                             CyIntClearPending(RF_Physical_RX_VECT_NUM);
 174:.\Generated_Source\PSoC5/RF_Physical_INT.c ****                             break; /* Break the reading of the FIFO loop, leave the data there for 
 175:.\Generated_Source\PSoC5/RF_Physical_INT.c ****                         #endif /* (RF_Physical_FLOW_CONTROL != 0u) */
 176:.\Generated_Source\PSoC5/RF_Physical_INT.c ****                     }
 177:.\Generated_Source\PSoC5/RF_Physical_INT.c ****                 }
 178:.\Generated_Source\PSoC5/RF_Physical_INT.c ****             }
 179:.\Generated_Source\PSoC5/RF_Physical_INT.c ****         }while((readStatus & RF_Physical_RX_STS_FIFO_NOTEMPTY) != 0u);
 137              		.loc 1 179 0
 138 00a4 BB79     		ldrb	r3, [r7, #6]	@ zero_extendqisi2
 139 00a6 03F02003 		and	r3, r3, #32
 140 00aa 002B     		cmp	r3, #0
 141 00ac ADD1     		bne	.L6
 180:.\Generated_Source\PSoC5/RF_Physical_INT.c **** 
 181:.\Generated_Source\PSoC5/RF_Physical_INT.c ****         /* User code required at end of ISR (Optional) */
 182:.\Generated_Source\PSoC5/RF_Physical_INT.c ****         /* `#START RF_Physical_RXISR_END` */
 183:.\Generated_Source\PSoC5/RF_Physical_INT.c **** 
 184:.\Generated_Source\PSoC5/RF_Physical_INT.c ****         if(InvokeResolver(UART_RF, (uint8*)RF_Physical_rxBuffer, RF_Physical_GetRxBufferSize()))
 142              		.loc 1 184 0
 143 00ae FFF7FEFF 		bl	RF_Physical_GetRxBufferSize
 144 00b2 0346     		mov	r3, r0
 145 00b4 A020     		movs	r0, #160
 146 00b6 0A49     		ldr	r1, .L8+16
 147 00b8 1A46     		mov	r2, r3
 148 00ba FFF7FEFF 		bl	InvokeResolver
 149 00be 0346     		mov	r3, r0
 150 00c0 002B     		cmp	r3, #0
 151 00c2 01D0     		beq	.L1
 185:.\Generated_Source\PSoC5/RF_Physical_INT.c ****             RF_Physical_ClearRxBuffer();
 152              		.loc 1 185 0
 153 00c4 FFF7FEFF 		bl	RF_Physical_ClearRxBuffer
 154              	.L1:
 186:.\Generated_Source\PSoC5/RF_Physical_INT.c ****             
 187:.\Generated_Source\PSoC5/RF_Physical_INT.c ****         /* `#END` */
ARM GAS  C:\Users\RECEPC~1\AppData\Local\Temp\ccU59OXd.s 			page 7


 188:.\Generated_Source\PSoC5/RF_Physical_INT.c **** 
 189:.\Generated_Source\PSoC5/RF_Physical_INT.c ****     #ifdef RF_Physical_RXISR_EXIT_CALLBACK
 190:.\Generated_Source\PSoC5/RF_Physical_INT.c ****         RF_Physical_RXISR_ExitCallback();
 191:.\Generated_Source\PSoC5/RF_Physical_INT.c ****     #endif /* RF_Physical_RXISR_EXIT_CALLBACK */
 192:.\Generated_Source\PSoC5/RF_Physical_INT.c **** 
 193:.\Generated_Source\PSoC5/RF_Physical_INT.c ****     #if(CY_PSOC3)
 194:.\Generated_Source\PSoC5/RF_Physical_INT.c ****         EA = int_en;
 195:.\Generated_Source\PSoC5/RF_Physical_INT.c ****     #endif /* (CY_PSOC3) */
 196:.\Generated_Source\PSoC5/RF_Physical_INT.c ****     }
 155              		.loc 1 196 0
 156 00c8 0837     		adds	r7, r7, #8
 157              		.cfi_def_cfa_offset 8
 158 00ca BD46     		mov	sp, r7
 159              		.cfi_def_cfa_register 13
 160              		@ sp needed
 161 00cc 80BD     		pop	{r7, pc}
 162              	.L9:
 163 00ce 00BF     		.align	2
 164              	.L8:
 165 00d0 63640040 		.word	1073767523
 166 00d4 00000000 		.word	RF_Physical_errorStatus
 167 00d8 45640040 		.word	1073767493
 168 00dc 00000000 		.word	RF_Physical_rxBufferWrite
 169 00e0 00000000 		.word	RF_Physical_rxBuffer
 170 00e4 00000000 		.word	RF_Physical_rxBufferLoopDetect
 171 00e8 00000000 		.word	RF_Physical_rxBufferOverflow
 172 00ec 00000000 		.word	RF_Physical_rxBufferRead
 173              		.cfi_endproc
 174              	.LFE0:
 175              		.size	RF_Physical_RXISR, .-RF_Physical_RXISR
 176              		.text
 177              	.Letext0:
 178              		.file 2 ".\\Generated_Source\\PSoC5\\cytypes.h"
 179              		.file 3 ".\\Generated_Source\\PSoC5\\RF_Physical.h"
 180              		.file 4 "./UARTManager.h"