ARM GAS  C:\Users\RECEPC~1\AppData\Local\Temp\ccj2RA6z.s 			page 1


   1              		.syntax unified
   2              		.cpu cortex-m3
   3              		.fpu softvfp
   4              		.eabi_attribute 20, 1
   5              		.eabi_attribute 21, 1
   6              		.eabi_attribute 23, 3
   7              		.eabi_attribute 24, 1
   8              		.eabi_attribute 25, 1
   9              		.eabi_attribute 26, 1
  10              		.eabi_attribute 30, 6
  11              		.eabi_attribute 34, 1
  12              		.eabi_attribute 18, 4
  13              		.thumb
  14              		.file	"RFBLL.c"
  15              		.text
  16              	.Ltext0:
  17              		.cfi_sections	.debug_frame
  18              		.comm	HoseDispenser,1,1
  19              		.section	.text.RFServerRequestHandler,"ax",%progbits
  20              		.align	2
  21              		.global	RFServerRequestHandler
  22              		.thumb
  23              		.thumb_func
  24              		.type	RFServerRequestHandler, %function
  25              	RFServerRequestHandler:
  26              	.LFB0:
  27              		.file 1 ".\\RFBLL.c"
   1:.\RFBLL.c     **** /* ========================================
   2:.\RFBLL.c     ****  *
   3:.\RFBLL.c     ****  * Copyright INSEPET SISTEMAS, 2016
   4:.\RFBLL.c     ****  * All Rights Reserved
   5:.\RFBLL.c     ****  * UNPUBLISHED, LICENSED SOFTWARE.
   6:.\RFBLL.c     ****  *
   7:.\RFBLL.c     ****  * CONFIDENTIAL AND PROPRIETARY INFORMATION
   8:.\RFBLL.c     ****  * WHICH IS THE PROPERTY OF SISTEMAS INSEPET.
   9:.\RFBLL.c     ****  *
  10:.\RFBLL.c     ****  * ========================================
  11:.\RFBLL.c     **** @Created By: HIJH
  12:.\RFBLL.c     **** @Date: Septembre de 2016
  13:.\RFBLL.c     **** */
  14:.\RFBLL.c     **** 
  15:.\RFBLL.c     **** #include "GlobalDefinitions.h"
  16:.\RFBLL.c     **** #include "SinkManager.h"
  17:.\RFBLL.c     **** #include "UARTManager.h"
  18:.\RFBLL.c     **** #include "Dispenser.h"
  19:.\RFBLL.c     **** #include "RFLink.h"
  20:.\RFBLL.c     **** 
  21:.\RFBLL.c     **** //@Created By: HIJH
  22:.\RFBLL.c     **** //@Date: Septembre de 2016
  23:.\RFBLL.c     **** //Receives all requests from the remote peer and dispatches the stream to the appropriate
  24:.\RFBLL.c     **** //RF Request / Response Handler
  25:.\RFBLL.c     **** void RFServerRequestHandler(void *pparam)
  26:.\RFBLL.c     **** {
  28              		.loc 1 26 0
  29              		.cfi_startproc
  30              		@ args = 0, pretend = 0, frame = 16
  31              		@ frame_needed = 1, uses_anonymous_args = 0
ARM GAS  C:\Users\RECEPC~1\AppData\Local\Temp\ccj2RA6z.s 			page 2


  32 0000 80B5     		push	{r7, lr}
  33              		.cfi_def_cfa_offset 8
  34              		.cfi_offset 7, -8
  35              		.cfi_offset 14, -4
  36 0002 84B0     		sub	sp, sp, #16
  37              		.cfi_def_cfa_offset 24
  38 0004 00AF     		add	r7, sp, #0
  39              		.cfi_def_cfa_register 7
  40 0006 7860     		str	r0, [r7, #4]
  27:.\RFBLL.c     ****     PSINKMESSAGEPTR pmsg = (PSINKMESSAGEPTR)pparam;
  41              		.loc 1 27 0
  42 0008 7B68     		ldr	r3, [r7, #4]
  43 000a FB60     		str	r3, [r7, #12]
  28:.\RFBLL.c     ****     PNEAR_REQRESPTR ptreqresiterator =  GetRFRequestResolver(pmsg->_buffer[_RF_STREAM_COMMAND_INDEX
  44              		.loc 1 28 0
  45 000c FB68     		ldr	r3, [r7, #12]
  46 000e 9B7C     		ldrb	r3, [r3, #18]	@ zero_extendqisi2
  47 0010 1846     		mov	r0, r3
  48 0012 FFF7FEFF 		bl	GetRFRequestResolver
  49 0016 B860     		str	r0, [r7, #8]
  29:.\RFBLL.c     ****     if(ptreqresiterator->_prequestresponse && !_g_dispenserlayoutinfo._inconfiguration)
  50              		.loc 1 29 0
  51 0018 BB68     		ldr	r3, [r7, #8]
  52 001a 5B68     		ldr	r3, [r3, #4]
  53 001c 002B     		cmp	r3, #0
  54 001e 19D0     		beq	.L2
  55              		.loc 1 29 0 is_stmt 0 discriminator 1
  56 0020 0F4B     		ldr	r3, .L3
  57 0022 1B78     		ldrb	r3, [r3]
  58 0024 DBB2     		uxtb	r3, r3
  59 0026 83F00103 		eor	r3, r3, #1
  60 002a DBB2     		uxtb	r3, r3
  61 002c 002B     		cmp	r3, #0
  62 002e 11D0     		beq	.L2
  30:.\RFBLL.c     ****     {
  31:.\RFBLL.c     ****         //Here we attempt to resolve the request and dispatch the predefined response
  32:.\RFBLL.c     ****         //In case of any error (asserted as false), the error function pointer will be invoked
  33:.\RFBLL.c     ****         if(!ptreqresiterator->_prequestresponse(pmsg))
  63              		.loc 1 33 0 is_stmt 1
  64 0030 BB68     		ldr	r3, [r7, #8]
  65 0032 5B68     		ldr	r3, [r3, #4]
  66 0034 F868     		ldr	r0, [r7, #12]
  67 0036 9847     		blx	r3
  68 0038 0346     		mov	r3, r0
  69 003a 83F00103 		eor	r3, r3, #1
  70 003e DBB2     		uxtb	r3, r3
  71 0040 002B     		cmp	r3, #0
  72 0042 07D0     		beq	.L2
  34:.\RFBLL.c     ****             if(ptreqresiterator->_perror)
  73              		.loc 1 34 0
  74 0044 BB68     		ldr	r3, [r7, #8]
  75 0046 9B68     		ldr	r3, [r3, #8]
  76 0048 002B     		cmp	r3, #0
  77 004a 03D0     		beq	.L2
  35:.\RFBLL.c     ****                 ptreqresiterator->_perror(pmsg);
  78              		.loc 1 35 0
  79 004c BB68     		ldr	r3, [r7, #8]
ARM GAS  C:\Users\RECEPC~1\AppData\Local\Temp\ccj2RA6z.s 			page 3


  80 004e 9B68     		ldr	r3, [r3, #8]
  81 0050 F868     		ldr	r0, [r7, #12]
  82 0052 9847     		blx	r3
  83              	.L2:
  36:.\RFBLL.c     ****     }
  37:.\RFBLL.c     ****     //Retrigger the autonomous counter on every RF request
  38:.\RFBLL.c     ****     _g_rfautorun._toautonomoustimetoken = 0x0000;
  84              		.loc 1 38 0
  85 0054 034B     		ldr	r3, .L3+4
  86 0056 0022     		movs	r2, #0
  87 0058 5A80     		strh	r2, [r3, #2]	@ movhi
  39:.\RFBLL.c     **** }
  88              		.loc 1 39 0
  89 005a 1037     		adds	r7, r7, #16
  90              		.cfi_def_cfa_offset 8
  91 005c BD46     		mov	sp, r7
  92              		.cfi_def_cfa_register 13
  93              		@ sp needed
  94 005e 80BD     		pop	{r7, pc}
  95              	.L4:
  96              		.align	2
  97              	.L3:
  98 0060 00000000 		.word	_g_dispenserlayoutinfo
  99 0064 00000000 		.word	_g_rfautorun
 100              		.cfi_endproc
 101              	.LFE0:
 102              		.size	RFServerRequestHandler, .-RFServerRequestHandler
 103              		.section	.text.RFErrorHandler,"ax",%progbits
 104              		.align	2
 105              		.global	RFErrorHandler
 106              		.thumb
 107              		.thumb_func
 108              		.type	RFErrorHandler, %function
 109              	RFErrorHandler:
 110              	.LFB1:
  40:.\RFBLL.c     **** 
  41:.\RFBLL.c     **** //@Created By: HIJH
  42:.\RFBLL.c     **** //@Septembre de 2016
  43:.\RFBLL.c     **** void RFErrorHandler(void *pparam)
  44:.\RFBLL.c     **** {
 111              		.loc 1 44 0
 112              		.cfi_startproc
 113              		@ args = 0, pretend = 0, frame = 8
 114              		@ frame_needed = 1, uses_anonymous_args = 0
 115              		@ link register save eliminated.
 116 0000 80B4     		push	{r7}
 117              		.cfi_def_cfa_offset 4
 118              		.cfi_offset 7, -4
 119 0002 83B0     		sub	sp, sp, #12
 120              		.cfi_def_cfa_offset 16
 121 0004 00AF     		add	r7, sp, #0
 122              		.cfi_def_cfa_register 7
 123 0006 7860     		str	r0, [r7, #4]
  45:.\RFBLL.c     **** }
 124              		.loc 1 45 0
 125 0008 0C37     		adds	r7, r7, #12
 126              		.cfi_def_cfa_offset 4
ARM GAS  C:\Users\RECEPC~1\AppData\Local\Temp\ccj2RA6z.s 			page 4


 127 000a BD46     		mov	sp, r7
 128              		.cfi_def_cfa_register 13
 129              		@ sp needed
 130 000c 5DF8047B 		ldr	r7, [sp], #4
 131              		.cfi_restore 7
 132              		.cfi_def_cfa_offset 0
 133 0010 7047     		bx	lr
 134              		.cfi_endproc
 135              	.LFE1:
 136              		.size	RFErrorHandler, .-RFErrorHandler
 137 0012 00BF     		.section	.text.GetRFRequestResolver,"ax",%progbits
 138              		.align	2
 139              		.global	GetRFRequestResolver
 140              		.thumb
 141              		.thumb_func
 142              		.type	GetRFRequestResolver, %function
 143              	GetRFRequestResolver:
 144              	.LFB2:
  46:.\RFBLL.c     **** 
  47:.\RFBLL.c     **** PNEAR_REQRESPTR GetRFRequestResolver(uint8 commandid)
  48:.\RFBLL.c     **** {
 145              		.loc 1 48 0
 146              		.cfi_startproc
 147              		@ args = 0, pretend = 0, frame = 16
 148              		@ frame_needed = 1, uses_anonymous_args = 0
 149              		@ link register save eliminated.
 150 0000 80B4     		push	{r7}
 151              		.cfi_def_cfa_offset 4
 152              		.cfi_offset 7, -4
 153 0002 85B0     		sub	sp, sp, #20
 154              		.cfi_def_cfa_offset 24
 155 0004 00AF     		add	r7, sp, #0
 156              		.cfi_def_cfa_register 7
 157 0006 0346     		mov	r3, r0
 158 0008 FB71     		strb	r3, [r7, #7]
  49:.\RFBLL.c     ****     PNEAR_REQRESPTR retval = PNEAR_NULLPTR;
 159              		.loc 1 49 0
 160 000a 0023     		movs	r3, #0
 161 000c FB60     		str	r3, [r7, #12]
  50:.\RFBLL.c     ****     PNEAR_REQRESPTR ptreqresiterator =  _g_rfresolvers;
 162              		.loc 1 50 0
 163 000e 104B     		ldr	r3, .L12
 164 0010 BB60     		str	r3, [r7, #8]
  51:.\RFBLL.c     ****     while(ptreqresiterator->_requestcode != RF_MUX_NULL && !_g_dispenserlayoutinfo._inconfiguration
 165              		.loc 1 51 0
 166 0012 0AE0     		b	.L7
 167              	.L10:
  52:.\RFBLL.c     ****     {
  53:.\RFBLL.c     ****         if(commandid == ptreqresiterator->_requestcode)
 168              		.loc 1 53 0
 169 0014 BB68     		ldr	r3, [r7, #8]
 170 0016 1B78     		ldrb	r3, [r3]	@ zero_extendqisi2
 171 0018 FA79     		ldrb	r2, [r7, #7]	@ zero_extendqisi2
 172 001a 9A42     		cmp	r2, r3
 173 001c 02D1     		bne	.L8
  54:.\RFBLL.c     ****         {
  55:.\RFBLL.c     ****             retval = ptreqresiterator;
ARM GAS  C:\Users\RECEPC~1\AppData\Local\Temp\ccj2RA6z.s 			page 5


 174              		.loc 1 55 0
 175 001e BB68     		ldr	r3, [r7, #8]
 176 0020 FB60     		str	r3, [r7, #12]
  56:.\RFBLL.c     ****             break;
 177              		.loc 1 56 0
 178 0022 0EE0     		b	.L9
 179              	.L8:
  57:.\RFBLL.c     ****         }
  58:.\RFBLL.c     ****         
  59:.\RFBLL.c     ****         ptreqresiterator++;
 180              		.loc 1 59 0
 181 0024 BB68     		ldr	r3, [r7, #8]
 182 0026 1033     		adds	r3, r3, #16
 183 0028 BB60     		str	r3, [r7, #8]
 184              	.L7:
  51:.\RFBLL.c     ****     {
 185              		.loc 1 51 0
 186 002a BB68     		ldr	r3, [r7, #8]
 187 002c 1B78     		ldrb	r3, [r3]	@ zero_extendqisi2
 188 002e FF2B     		cmp	r3, #255
 189 0030 07D0     		beq	.L9
  51:.\RFBLL.c     ****     {
 190              		.loc 1 51 0 is_stmt 0 discriminator 1
 191 0032 084B     		ldr	r3, .L12+4
 192 0034 1B78     		ldrb	r3, [r3]
 193 0036 DBB2     		uxtb	r3, r3
 194 0038 83F00103 		eor	r3, r3, #1
 195 003c DBB2     		uxtb	r3, r3
 196 003e 002B     		cmp	r3, #0
 197 0040 E8D1     		bne	.L10
 198              	.L9:
  60:.\RFBLL.c     ****     }
  61:.\RFBLL.c     ****     return retval;
 199              		.loc 1 61 0 is_stmt 1
 200 0042 FB68     		ldr	r3, [r7, #12]
  62:.\RFBLL.c     **** }
 201              		.loc 1 62 0
 202 0044 1846     		mov	r0, r3
 203 0046 1437     		adds	r7, r7, #20
 204              		.cfi_def_cfa_offset 4
 205 0048 BD46     		mov	sp, r7
 206              		.cfi_def_cfa_register 13
 207              		@ sp needed
 208 004a 5DF8047B 		ldr	r7, [sp], #4
 209              		.cfi_restore 7
 210              		.cfi_def_cfa_offset 0
 211 004e 7047     		bx	lr
 212              	.L13:
 213              		.align	2
 214              	.L12:
 215 0050 00000000 		.word	_g_rfresolvers
 216 0054 00000000 		.word	_g_dispenserlayoutinfo
 217              		.cfi_endproc
 218              	.LFE2:
 219              		.size	GetRFRequestResolver, .-GetRFRequestResolver
 220              		.text
 221              	.Letext0:
ARM GAS  C:\Users\RECEPC~1\AppData\Local\Temp\ccj2RA6z.s 			page 6


 222              		.file 2 "Generated_Source\\PSoC5/cytypes.h"
 223              		.file 3 ".\\SinkManager.h"
 224              		.file 4 ".\\Advantage.h"
 225              		.file 5 ".\\RFLink.h"
 226              		.file 6 ".\\GlobalDefinitions.h"