ARM GAS  C:\Users\RECEPC~1\AppData\Local\Temp\ccRRYxeK.s 			page 1


   1              		.syntax unified
   2              		.cpu cortex-m3
   3              		.fpu softvfp
   4              		.eabi_attribute 20, 1
   5              		.eabi_attribute 21, 1
   6              		.eabi_attribute 23, 3
   7              		.eabi_attribute 24, 1
   8              		.eabi_attribute 25, 1
   9              		.eabi_attribute 26, 1
  10              		.eabi_attribute 30, 6
  11              		.eabi_attribute 34, 1
  12              		.eabi_attribute 18, 4
  13              		.thumb
  14              		.file	"RFResolver.c"
  15              		.text
  16              	.Ltext0:
  17              		.cfi_sections	.debug_frame
  18              		.comm	HoseDispenser,1,1
  19              		.comm	_g_rfrx,12,4
  20              		.section	.text.RFUARTBufferResolver,"ax",%progbits
  21              		.align	2
  22              		.global	RFUARTBufferResolver
  23              		.thumb
  24              		.thumb_func
  25              		.type	RFUARTBufferResolver, %function
  26              	RFUARTBufferResolver:
  27              	.LFB63:
  28              		.file 1 ".\\RFResolver.c"
   1:.\RFResolver.c **** /* ========================================
   2:.\RFResolver.c ****  *
   3:.\RFResolver.c ****  * Copyright INSEPET SISTEMAS, 2016
   4:.\RFResolver.c ****  * All Rights Reserved
   5:.\RFResolver.c ****  * UNPUBLISHED, LICENSED SOFTWARE.
   6:.\RFResolver.c ****  *
   7:.\RFResolver.c ****  * CONFIDENTIAL AND PROPRIETARY INFORMATION
   8:.\RFResolver.c ****  * WHICH IS THE PROPERTY OF SISTEMAS INSEPET.
   9:.\RFResolver.c ****  *
  10:.\RFResolver.c ****  * ========================================
  11:.\RFResolver.c **** @Created By: HIJH
  12:.\RFResolver.c **** @Date: Septembre de 2016
  13:.\RFResolver.c **** */
  14:.\RFResolver.c **** #include <project.h>
  15:.\RFResolver.c **** #include "Configuration.h"
  16:.\RFResolver.c **** #include "GlobalDefinitions.h"
  17:.\RFResolver.c **** #include "UARTManager.h"
  18:.\RFResolver.c **** #include "SinkManager.h"
  19:.\RFResolver.c **** #include "SinkObservables.h"
  20:.\RFResolver.c **** #include "Dispenser.h"
  21:.\RFResolver.c **** #include "RFLink.h"
  22:.\RFResolver.c **** 
  23:.\RFResolver.c **** RFStreamInfo _g_rfrx;
  24:.\RFResolver.c **** 
  25:.\RFResolver.c **** //This is the header that comes in the request stream
  26:.\RFResolver.c **** 
  27:.\RFResolver.c **** uint16 RFGetPayloadLengthFromRequestCode(uint8 reqcode);
  28:.\RFResolver.c **** PayloadSizeResolver RFGetDynamicPayloadLengthFromRequestCode(uint8 reqcode);
  29:.\RFResolver.c **** 
ARM GAS  C:\Users\RECEPC~1\AppData\Local\Temp\ccRRYxeK.s 			page 2


  30:.\RFResolver.c **** //@Created By: HIJH
  31:.\RFResolver.c **** //@Septembre de 2016
  32:.\RFResolver.c **** //This will be invoked by the ISR once data has arrived the port.
  33:.\RFResolver.c **** //Upon finishing the buffering, returning "true" will free up the port's buffer
  34:.\RFResolver.c **** //@Update by: HIJH
  35:.\RFResolver.c **** //@Octobre de 2016
  36:.\RFResolver.c **** //A critical modification has been needed since a "cross-talk" condition among MUXs has been detect
  37:.\RFResolver.c **** //This condition corrupted the reception buffer blocking the normal reception.
  38:.\RFResolver.c **** bool RFUARTBufferResolver(char* pbuffer, uint16 buffersize)
  39:.\RFResolver.c **** {
  29              		.loc 1 39 0
  30              		.cfi_startproc
  31              		@ args = 0, pretend = 0, frame = 32
  32              		@ frame_needed = 1, uses_anonymous_args = 0
  33 0000 80B5     		push	{r7, lr}
  34              		.cfi_def_cfa_offset 8
  35              		.cfi_offset 7, -8
  36              		.cfi_offset 14, -4
  37 0002 88B0     		sub	sp, sp, #32
  38              		.cfi_def_cfa_offset 40
  39 0004 00AF     		add	r7, sp, #0
  40              		.cfi_def_cfa_register 7
  41 0006 7860     		str	r0, [r7, #4]
  42 0008 0B46     		mov	r3, r1
  43 000a 7B80     		strh	r3, [r7, #2]	@ movhi
  40:.\RFResolver.c ****     /////////////////////////////////////////////////////////////////////////////////////////
  41:.\RFResolver.c ****     //There must be at least _RF_STREAM_FIXED_LENGTH_HEADER_BLOCK_ bytes loaded in the buffer to 
  42:.\RFResolver.c ****     //figure out for the completeness of the data
  43:.\RFResolver.c ****     /////////////////////////////////////////////////////////////////////////////////////////
  44:.\RFResolver.c ****     if(buffersize < _RF_STREAM_FIXED_LENGTH_HEADER_BLOCK_)
  44              		.loc 1 44 0
  45 000c 7B88     		ldrh	r3, [r7, #2]
  46 000e 062B     		cmp	r3, #6
  47 0010 01D8     		bhi	.L2
  45:.\RFResolver.c ****         return false;
  48              		.loc 1 45 0
  49 0012 0023     		movs	r3, #0
  50 0014 E2E0     		b	.L3
  51              	.L2:
  46:.\RFResolver.c **** 
  47:.\RFResolver.c ****     //This flag indicates that the received data is not pointed to the current unit (MUX)
  48:.\RFResolver.c ****     bool messagefrommaster = false;
  52              		.loc 1 48 0
  53 0016 0023     		movs	r3, #0
  54 0018 FB77     		strb	r3, [r7, #31]
  49:.\RFResolver.c ****     bool messagefromsibling = false;
  55              		.loc 1 49 0
  56 001a 0023     		movs	r3, #0
  57 001c BB77     		strb	r3, [r7, #30]
  50:.\RFResolver.c ****     //Header detection for the remote peer (NSX)
  51:.\RFResolver.c ****     //Header for the remaining slave units (Other MUXs)
  52:.\RFResolver.c ****     if((pbuffer[0x00] == _g_rfmasterheader[0x00]) && 
  58              		.loc 1 52 0
  59 001e 7B68     		ldr	r3, [r7, #4]
  60 0020 1A78     		ldrb	r2, [r3]	@ zero_extendqisi2
  61 0022 704B     		ldr	r3, .L20
  62 0024 1B78     		ldrb	r3, [r3]	@ zero_extendqisi2
ARM GAS  C:\Users\RECEPC~1\AppData\Local\Temp\ccRRYxeK.s 			page 3


  63 0026 9A42     		cmp	r2, r3
  64 0028 10D1     		bne	.L4
  53:.\RFResolver.c ****     (pbuffer[0x01] == _g_rfmasterheader[0x01]) && 
  65              		.loc 1 53 0 discriminator 1
  66 002a 7B68     		ldr	r3, [r7, #4]
  67 002c 0133     		adds	r3, r3, #1
  68 002e 1A78     		ldrb	r2, [r3]	@ zero_extendqisi2
  69 0030 6C4B     		ldr	r3, .L20
  70 0032 5B78     		ldrb	r3, [r3, #1]	@ zero_extendqisi2
  52:.\RFResolver.c ****     (pbuffer[0x01] == _g_rfmasterheader[0x01]) && 
  71              		.loc 1 52 0 discriminator 1
  72 0034 9A42     		cmp	r2, r3
  73 0036 09D1     		bne	.L4
  54:.\RFResolver.c ****     (pbuffer[0x02] == _g_rfmasterheader[0x02]))
  74              		.loc 1 54 0
  75 0038 7B68     		ldr	r3, [r7, #4]
  76 003a 0233     		adds	r3, r3, #2
  77 003c 1A78     		ldrb	r2, [r3]	@ zero_extendqisi2
  78 003e 694B     		ldr	r3, .L20
  79 0040 9B78     		ldrb	r3, [r3, #2]	@ zero_extendqisi2
  53:.\RFResolver.c ****     (pbuffer[0x01] == _g_rfmasterheader[0x01]) && 
  80              		.loc 1 53 0
  81 0042 9A42     		cmp	r2, r3
  82 0044 02D1     		bne	.L4
  55:.\RFResolver.c ****         messagefrommaster = true;
  83              		.loc 1 55 0
  84 0046 0123     		movs	r3, #1
  85 0048 FB77     		strb	r3, [r7, #31]
  86 004a 15E0     		b	.L5
  87              	.L4:
  56:.\RFResolver.c ****     else if((pbuffer[0x00] == _g_rfslaveheader[0x00]) && 
  88              		.loc 1 56 0
  89 004c 7B68     		ldr	r3, [r7, #4]
  90 004e 1A78     		ldrb	r2, [r3]	@ zero_extendqisi2
  91 0050 654B     		ldr	r3, .L20+4
  92 0052 1B78     		ldrb	r3, [r3]	@ zero_extendqisi2
  93 0054 9A42     		cmp	r2, r3
  94 0056 0FD1     		bne	.L5
  57:.\RFResolver.c ****         (pbuffer[0x01] == _g_rfslaveheader[0x01]) && 
  95              		.loc 1 57 0 discriminator 1
  96 0058 7B68     		ldr	r3, [r7, #4]
  97 005a 0133     		adds	r3, r3, #1
  98 005c 1A78     		ldrb	r2, [r3]	@ zero_extendqisi2
  99 005e 624B     		ldr	r3, .L20+4
 100 0060 5B78     		ldrb	r3, [r3, #1]	@ zero_extendqisi2
  56:.\RFResolver.c ****     else if((pbuffer[0x00] == _g_rfslaveheader[0x00]) && 
 101              		.loc 1 56 0 discriminator 1
 102 0062 9A42     		cmp	r2, r3
 103 0064 08D1     		bne	.L5
  58:.\RFResolver.c ****         (pbuffer[0x02] == _g_rfslaveheader[0x02]))
 104              		.loc 1 58 0
 105 0066 7B68     		ldr	r3, [r7, #4]
 106 0068 0233     		adds	r3, r3, #2
 107 006a 1A78     		ldrb	r2, [r3]	@ zero_extendqisi2
 108 006c 5E4B     		ldr	r3, .L20+4
 109 006e 9B78     		ldrb	r3, [r3, #2]	@ zero_extendqisi2
  57:.\RFResolver.c ****         (pbuffer[0x01] == _g_rfslaveheader[0x01]) && 
ARM GAS  C:\Users\RECEPC~1\AppData\Local\Temp\ccRRYxeK.s 			page 4


 110              		.loc 1 57 0
 111 0070 9A42     		cmp	r2, r3
 112 0072 01D1     		bne	.L5
  59:.\RFResolver.c ****             messagefromsibling = true;
 113              		.loc 1 59 0
 114 0074 0123     		movs	r3, #1
 115 0076 BB77     		strb	r3, [r7, #30]
 116              	.L5:
  60:.\RFResolver.c ****     
  61:.\RFResolver.c ****     bool ignoremessage = true;
 117              		.loc 1 61 0
 118 0078 0123     		movs	r3, #1
 119 007a 7B77     		strb	r3, [r7, #29]
  62:.\RFResolver.c ****     //If this point is skipped it means that some noise arrived the buffer        
  63:.\RFResolver.c ****     if(messagefrommaster || messagefromsibling)
 120              		.loc 1 63 0
 121 007c FB7F     		ldrb	r3, [r7, #31]	@ zero_extendqisi2
 122 007e 002B     		cmp	r3, #0
 123 0080 02D1     		bne	.L6
 124              		.loc 1 63 0 is_stmt 0 discriminator 1
 125 0082 BB7F     		ldrb	r3, [r7, #30]	@ zero_extendqisi2
 126 0084 002B     		cmp	r3, #0
 127 0086 15D0     		beq	.L7
 128              	.L6:
  64:.\RFResolver.c ****     {
  65:.\RFResolver.c ****         //If the local station identifier does not match the targeted station identifier, then filt
  66:.\RFResolver.c ****         if((pbuffer[_RF_STREAM_TARGET_INDEX0_] == ((_g_stationidentifier >> 0) & 0xFF)) &&
 129              		.loc 1 66 0 is_stmt 1
 130 0088 7B68     		ldr	r3, [r7, #4]
 131 008a 0333     		adds	r3, r3, #3
 132 008c 1B78     		ldrb	r3, [r3]	@ zero_extendqisi2
 133 008e 1A46     		mov	r2, r3
 134 0090 564B     		ldr	r3, .L20+8
 135 0092 1B88     		ldrh	r3, [r3]
 136 0094 DBB2     		uxtb	r3, r3
 137 0096 9A42     		cmp	r2, r3
 138 0098 0CD1     		bne	.L7
  67:.\RFResolver.c ****             (pbuffer[_RF_STREAM_TARGET_INDEX1_] == ((_g_stationidentifier >> 8) & 0xFF)))
 139              		.loc 1 67 0 discriminator 1
 140 009a 7B68     		ldr	r3, [r7, #4]
 141 009c 0433     		adds	r3, r3, #4
 142 009e 1B78     		ldrb	r3, [r3]	@ zero_extendqisi2
 143 00a0 1A46     		mov	r2, r3
 144 00a2 524B     		ldr	r3, .L20+8
 145 00a4 1B88     		ldrh	r3, [r3]
 146 00a6 1B0A     		lsrs	r3, r3, #8
 147 00a8 9BB2     		uxth	r3, r3
 148 00aa DBB2     		uxtb	r3, r3
  66:.\RFResolver.c ****             (pbuffer[_RF_STREAM_TARGET_INDEX1_] == ((_g_stationidentifier >> 8) & 0xFF)))
 149              		.loc 1 66 0 discriminator 1
 150 00ac 9A42     		cmp	r2, r3
 151 00ae 01D1     		bne	.L7
  68:.\RFResolver.c ****             ignoremessage = false;
 152              		.loc 1 68 0
 153 00b0 0023     		movs	r3, #0
 154 00b2 7B77     		strb	r3, [r7, #29]
 155              	.L7:
ARM GAS  C:\Users\RECEPC~1\AppData\Local\Temp\ccRRYxeK.s 			page 5


  69:.\RFResolver.c ****     }
  70:.\RFResolver.c ****     
  71:.\RFResolver.c ****     //If there is no match on the above frame headers, then discard everything since
  72:.\RFResolver.c ****     //it means that some noise coming from a foreign source has corrupted the buffer
  73:.\RFResolver.c ****     if(messagefrommaster)
 156              		.loc 1 73 0
 157 00b4 FB7F     		ldrb	r3, [r7, #31]	@ zero_extendqisi2
 158 00b6 002B     		cmp	r3, #0
 159 00b8 00F08380 		beq	.L8
 160              	.LBB2:
  74:.\RFResolver.c ****     {
  75:.\RFResolver.c ****         //Wait until the whole stream has arrived according to the payload map...
  76:.\RFResolver.c ****         uint16 expectedbuffersize = RFGetPayloadLengthFromRequestCode(pbuffer[_RF_STREAM_COMMAND_IN
 161              		.loc 1 76 0
 162 00bc 7B68     		ldr	r3, [r7, #4]
 163 00be 0633     		adds	r3, r3, #6
 164 00c0 1B78     		ldrb	r3, [r3]	@ zero_extendqisi2
 165 00c2 1846     		mov	r0, r3
 166 00c4 FFF7FEFF 		bl	RFGetPayloadLengthFromRequestCode
 167 00c8 0346     		mov	r3, r0
 168 00ca 7B83     		strh	r3, [r7, #26]	@ movhi
  77:.\RFResolver.c ****         if((expectedbuffersize > 0) && (buffersize < expectedbuffersize))
 169              		.loc 1 77 0
 170 00cc 7B8B     		ldrh	r3, [r7, #26]
 171 00ce 002B     		cmp	r3, #0
 172 00d0 05D0     		beq	.L9
 173              		.loc 1 77 0 is_stmt 0 discriminator 1
 174 00d2 7A88     		ldrh	r2, [r7, #2]
 175 00d4 7B8B     		ldrh	r3, [r7, #26]
 176 00d6 9A42     		cmp	r2, r3
 177 00d8 01D2     		bcs	.L9
  78:.\RFResolver.c ****             return false;
 178              		.loc 1 78 0 is_stmt 1
 179 00da 0023     		movs	r3, #0
 180 00dc 7EE0     		b	.L3
 181              	.L9:
  79:.\RFResolver.c ****         else if(expectedbuffersize == 0)//Variable buffer size that requires a "Buffer Size Resolve
 182              		.loc 1 79 0
 183 00de 7B8B     		ldrh	r3, [r7, #26]
 184 00e0 002B     		cmp	r3, #0
 185 00e2 1DD1     		bne	.L10
 186              	.LBB3:
  80:.\RFResolver.c ****         {
  81:.\RFResolver.c ****             PayloadSizeResolver fpResolver = RFGetDynamicPayloadLengthFromRequestCode(pbuffer[_RF_S
 187              		.loc 1 81 0
 188 00e4 7B68     		ldr	r3, [r7, #4]
 189 00e6 0633     		adds	r3, r3, #6
 190 00e8 1B78     		ldrb	r3, [r3]	@ zero_extendqisi2
 191 00ea 1846     		mov	r0, r3
 192 00ec FFF7FEFF 		bl	RFGetDynamicPayloadLengthFromRequestCode
 193 00f0 7861     		str	r0, [r7, #20]
  82:.\RFResolver.c ****             if(fpResolver)
 194              		.loc 1 82 0
 195 00f2 7B69     		ldr	r3, [r7, #20]
 196 00f4 002B     		cmp	r3, #0
 197 00f6 11D0     		beq	.L11
 198              	.LBB4:
ARM GAS  C:\Users\RECEPC~1\AppData\Local\Temp\ccRRYxeK.s 			page 6


  83:.\RFResolver.c ****             {
  84:.\RFResolver.c ****                 uint16 payloadsize = fpResolver(pbuffer);
 199              		.loc 1 84 0
 200 00f8 7B69     		ldr	r3, [r7, #20]
 201 00fa 7868     		ldr	r0, [r7, #4]
 202 00fc 9847     		blx	r3
 203 00fe 0346     		mov	r3, r0
 204 0100 7B82     		strh	r3, [r7, #18]	@ movhi
  85:.\RFResolver.c ****                 if(buffersize < payloadsize)
 205              		.loc 1 85 0
 206 0102 7A88     		ldrh	r2, [r7, #2]
 207 0104 7B8A     		ldrh	r3, [r7, #18]
 208 0106 9A42     		cmp	r2, r3
 209 0108 01D2     		bcs	.L12
  86:.\RFResolver.c ****                     return false;
 210              		.loc 1 86 0
 211 010a 0023     		movs	r3, #0
 212 010c 66E0     		b	.L3
 213              	.L12:
  87:.\RFResolver.c ****                 //Here we measure the total length of the received buffer since it can not exceed t
  88:.\RFResolver.c ****                 //This is to avoid a buffer overflow due to the maximum length of the a sink messag
  89:.\RFResolver.c ****                 if(payloadsize > _MESSAGE_LENGTH_)
 214              		.loc 1 89 0
 215 010e 7B8A     		ldrh	r3, [r7, #18]
 216 0110 B3F5C07F 		cmp	r3, #384
 217 0114 01D9     		bls	.L13
  90:.\RFResolver.c ****                     return true;
 218              		.loc 1 90 0
 219 0116 0123     		movs	r3, #1
 220 0118 60E0     		b	.L3
 221              	.L13:
 222              	.LBE4:
 223 011a 01E0     		b	.L10
 224              	.L11:
  91:.\RFResolver.c ****                 
  92:.\RFResolver.c ****             }else//IF VARIABLE LENGTH STREAM HAS BEEN DEFINED AND NO POINTER TO HANDLE IT, THEN CUT
  93:.\RFResolver.c ****                 return true;
 225              		.loc 1 93 0
 226 011c 0123     		movs	r3, #1
 227 011e 5DE0     		b	.L3
 228              	.L10:
 229              	.LBE3:
  94:.\RFResolver.c ****         }
  95:.\RFResolver.c ****         //SINCE BROADCAST MESSAGES AREN'T POINTED TO A SPECIFIC POSITION, THIS BYTE MUST BE SET TO 
  96:.\RFResolver.c ****         if(pbuffer[_RF_STREAM_POSITION_INDEX_] != 0x00)
 230              		.loc 1 96 0
 231 0120 7B68     		ldr	r3, [r7, #4]
 232 0122 0533     		adds	r3, r3, #5
 233 0124 1B78     		ldrb	r3, [r3]	@ zero_extendqisi2
 234 0126 002B     		cmp	r3, #0
 235 0128 27D0     		beq	.L14
  97:.\RFResolver.c ****         {
  98:.\RFResolver.c ****             if(!ignoremessage)
 236              		.loc 1 98 0
 237 012a 7B7F     		ldrb	r3, [r7, #29]
 238 012c 83F00103 		eor	r3, r3, #1
 239 0130 DBB2     		uxtb	r3, r3
ARM GAS  C:\Users\RECEPC~1\AppData\Local\Temp\ccRRYxeK.s 			page 7


 240 0132 002B     		cmp	r3, #0
 241 0134 21D0     		beq	.L14
 242              	.LBB5:
  99:.\RFResolver.c ****             {
 100:.\RFResolver.c ****                 ignoremessage = true;
 243              		.loc 1 100 0
 244 0136 0123     		movs	r3, #1
 245 0138 7B77     		strb	r3, [r7, #29]
 101:.\RFResolver.c ****                 //This block is meant to filter out any request that is not pointing in an existing
 102:.\RFResolver.c ****                 //within this MUX. Since this request is coming from a valid remote peer (NSX), the
 103:.\RFResolver.c ****                 //received but won't be processed.
 104:.\RFResolver.c ****                 FOR(uint8 index = 0, index < _g_dispenserlayoutinfo._numpositions, index++)
 246              		.loc 1 104 0
 247 013a 0023     		movs	r3, #0
 248 013c 3B77     		strb	r3, [r7, #28]
 249 013e 17E0     		b	.L15
 250              	.L17:
 105:.\RFResolver.c ****                 {
 106:.\RFResolver.c ****                     if(_g_pumps[index]._pumpid == (pbuffer[_RF_STREAM_POSITION_INDEX_] - _g_dispens
 251              		.loc 1 106 0
 252 0140 3B7F     		ldrb	r3, [r7, #28]	@ zero_extendqisi2
 253 0142 2B4A     		ldr	r2, .L20+12
 254 0144 40F6C831 		movw	r1, #3016
 255 0148 01FB03F3 		mul	r3, r1, r3
 256 014c 1344     		add	r3, r3, r2
 257 014e 1B78     		ldrb	r3, [r3]	@ zero_extendqisi2
 258 0150 1A46     		mov	r2, r3
 259 0152 7B68     		ldr	r3, [r7, #4]
 260 0154 0533     		adds	r3, r3, #5
 261 0156 1B78     		ldrb	r3, [r3]	@ zero_extendqisi2
 262 0158 1946     		mov	r1, r3
 263 015a 264B     		ldr	r3, .L20+16
 264 015c 9B7C     		ldrb	r3, [r3, #18]	@ zero_extendqisi2
 265 015e CB1A     		subs	r3, r1, r3
 266 0160 9A42     		cmp	r2, r3
 267 0162 02D1     		bne	.L16
 107:.\RFResolver.c ****                     {
 108:.\RFResolver.c ****                         ignoremessage = false;
 268              		.loc 1 108 0
 269 0164 0023     		movs	r3, #0
 270 0166 7B77     		strb	r3, [r7, #29]
 109:.\RFResolver.c ****                         break;
 271              		.loc 1 109 0
 272 0168 07E0     		b	.L14
 273              	.L16:
 104:.\RFResolver.c ****                 {
 274              		.loc 1 104 0 discriminator 2
 275 016a 3B7F     		ldrb	r3, [r7, #28]	@ zero_extendqisi2
 276 016c 0133     		adds	r3, r3, #1
 277 016e 3B77     		strb	r3, [r7, #28]
 278              	.L15:
 104:.\RFResolver.c ****                 {
 279              		.loc 1 104 0 is_stmt 0 discriminator 1
 280 0170 204B     		ldr	r3, .L20+16
 281 0172 9B78     		ldrb	r3, [r3, #2]	@ zero_extendqisi2
 282 0174 3A7F     		ldrb	r2, [r7, #28]	@ zero_extendqisi2
 283 0176 9A42     		cmp	r2, r3
ARM GAS  C:\Users\RECEPC~1\AppData\Local\Temp\ccRRYxeK.s 			page 8


 284 0178 E2D3     		bcc	.L17
 285              	.L14:
 286              	.LBE5:
 110:.\RFResolver.c ****                     }
 111:.\RFResolver.c ****                 }
 112:.\RFResolver.c ****             }
 113:.\RFResolver.c ****         }
 114:.\RFResolver.c ****         //If "ignoremessage" is false it means that the remote peer was talking with another siblin
 115:.\RFResolver.c ****         if(!ignoremessage)
 287              		.loc 1 115 0 is_stmt 1
 288 017a 7B7F     		ldrb	r3, [r7, #29]
 289 017c 83F00103 		eor	r3, r3, #1
 290 0180 DBB2     		uxtb	r3, r3
 291 0182 002B     		cmp	r3, #0
 292 0184 1CD0     		beq	.L18
 293              	.LBB6:
 116:.\RFResolver.c ****         {
 117:.\RFResolver.c ****             ///////////////////////////////////////////////////////////////////////////////////////
 118:.\RFResolver.c ****             //Once the buffer is complete, transfer it through the message sink to the RF BLL handl
 119:.\RFResolver.c ****             PSINKMESSAGEPTR psinkmsg = AllocateMessageSlot();
 294              		.loc 1 119 0
 295 0186 FFF7FEFF 		bl	AllocateMessageSlot
 296 018a F860     		str	r0, [r7, #12]
 120:.\RFResolver.c ****             if(psinkmsg)
 297              		.loc 1 120 0
 298 018c FB68     		ldr	r3, [r7, #12]
 299 018e 002B     		cmp	r3, #0
 300 0190 16D0     		beq	.L18
 121:.\RFResolver.c ****             {
 122:.\RFResolver.c ****                 psinkmsg->_messageid = UART_RF_RECEPTION;
 301              		.loc 1 122 0
 302 0192 FB68     		ldr	r3, [r7, #12]
 303 0194 0122     		movs	r2, #1
 304 0196 5A70     		strb	r2, [r3, #1]
 123:.\RFResolver.c ****                 psinkmsg->_messagetype = FIRSTFOUND;
 305              		.loc 1 123 0
 306 0198 FB68     		ldr	r3, [r7, #12]
 307 019a 0322     		movs	r2, #3
 308 019c 9A70     		strb	r2, [r3, #2]
 124:.\RFResolver.c ****                 memcpy(psinkmsg->_buffer, (const void*)pbuffer, buffersize);
 309              		.loc 1 124 0
 310 019e FB68     		ldr	r3, [r7, #12]
 311 01a0 03F10C02 		add	r2, r3, #12
 312 01a4 7B88     		ldrh	r3, [r7, #2]
 313 01a6 1046     		mov	r0, r2
 314 01a8 7968     		ldr	r1, [r7, #4]
 315 01aa 1A46     		mov	r2, r3
 316 01ac FFF7FEFF 		bl	memcpy
 125:.\RFResolver.c ****                 psinkmsg->_buffersize = buffersize;
 317              		.loc 1 125 0
 318 01b0 FB68     		ldr	r3, [r7, #12]
 319 01b2 7A88     		ldrh	r2, [r7, #2]	@ movhi
 320 01b4 A3F88C21 		strh	r2, [r3, #396]	@ movhi
 126:.\RFResolver.c ****                 psinkmsg->_messagestate = SINK_BUSY;
 321              		.loc 1 126 0
 322 01b8 FB68     		ldr	r3, [r7, #12]
 323 01ba 0322     		movs	r2, #3
ARM GAS  C:\Users\RECEPC~1\AppData\Local\Temp\ccRRYxeK.s 			page 9


 324 01bc DA70     		strb	r2, [r3, #3]
 325              	.LBE6:
 326              	.LBE2:
 327 01be 0CE0     		b	.L19
 328              	.L18:
 329 01c0 0BE0     		b	.L19
 330              	.L8:
 127:.\RFResolver.c ****                 
 128:.\RFResolver.c ****             }
 129:.\RFResolver.c ****         }
 130:.\RFResolver.c ****     }
 131:.\RFResolver.c ****     else if(messagefromsibling)//Entering here means that the incoming data comes from a sibling (A
 331              		.loc 1 131 0
 332 01c2 BB7F     		ldrb	r3, [r7, #30]	@ zero_extendqisi2
 333 01c4 002B     		cmp	r3, #0
 334 01c6 08D0     		beq	.L19
 132:.\RFResolver.c ****     {
 133:.\RFResolver.c ****         //Wait until the whole buffer has been filled up with the appropriate response from the sib
 134:.\RFResolver.c ****         if(pbuffer[(buffersize - 1)] != 0xFF) // || pbuffer[(buffersize - 2)] != 0xEE || pbuffer[(b
 335              		.loc 1 134 0
 336 01c8 7B88     		ldrh	r3, [r7, #2]
 337 01ca 013B     		subs	r3, r3, #1
 338 01cc 7A68     		ldr	r2, [r7, #4]
 339 01ce 1344     		add	r3, r3, r2
 340 01d0 1B78     		ldrb	r3, [r3]	@ zero_extendqisi2
 341 01d2 FF2B     		cmp	r3, #255
 342 01d4 01D0     		beq	.L19
 135:.\RFResolver.c ****             return false;
 343              		.loc 1 135 0
 344 01d6 0023     		movs	r3, #0
 345 01d8 00E0     		b	.L3
 346              	.L19:
 136:.\RFResolver.c ****     }
 137:.\RFResolver.c ****     return true;
 347              		.loc 1 137 0
 348 01da 0123     		movs	r3, #1
 349              	.L3:
 138:.\RFResolver.c **** }
 350              		.loc 1 138 0
 351 01dc 1846     		mov	r0, r3
 352 01de 2037     		adds	r7, r7, #32
 353              		.cfi_def_cfa_offset 8
 354 01e0 BD46     		mov	sp, r7
 355              		.cfi_def_cfa_register 13
 356              		@ sp needed
 357 01e2 80BD     		pop	{r7, pc}
 358              	.L21:
 359              		.align	2
 360              	.L20:
 361 01e4 00000000 		.word	_g_rfmasterheader
 362 01e8 00000000 		.word	_g_rfslaveheader
 363 01ec 00000000 		.word	_g_stationidentifier
 364 01f0 00000000 		.word	_g_pumps
 365 01f4 00000000 		.word	_g_dispenserlayoutinfo
 366              		.cfi_endproc
 367              	.LFE63:
 368              		.size	RFUARTBufferResolver, .-RFUARTBufferResolver
ARM GAS  C:\Users\RECEPC~1\AppData\Local\Temp\ccRRYxeK.s 			page 10


 369              		.section	.text.RFUARTSend,"ax",%progbits
 370              		.align	2
 371              		.global	RFUARTSend
 372              		.thumb
 373              		.thumb_func
 374              		.type	RFUARTSend, %function
 375              	RFUARTSend:
 376              	.LFB64:
 139:.\RFResolver.c **** 
 140:.\RFResolver.c **** //@Created By: HIJH
 141:.\RFResolver.c **** //@Septembre de 2016
 142:.\RFResolver.c **** void RFUARTSend(void *ptr)
 143:.\RFResolver.c **** {
 377              		.loc 1 143 0
 378              		.cfi_startproc
 379              		@ args = 0, pretend = 0, frame = 16
 380              		@ frame_needed = 1, uses_anonymous_args = 0
 381 0000 80B5     		push	{r7, lr}
 382              		.cfi_def_cfa_offset 8
 383              		.cfi_offset 7, -8
 384              		.cfi_offset 14, -4
 385 0002 84B0     		sub	sp, sp, #16
 386              		.cfi_def_cfa_offset 24
 387 0004 00AF     		add	r7, sp, #0
 388              		.cfi_def_cfa_register 7
 389 0006 7860     		str	r0, [r7, #4]
 144:.\RFResolver.c ****     PUARTMESSAGEPTR pmessage = (PUARTMESSAGEPTR)ptr;
 390              		.loc 1 144 0
 391 0008 7B68     		ldr	r3, [r7, #4]
 392 000a BB60     		str	r3, [r7, #8]
 145:.\RFResolver.c ****     FOR(uint8 index = 0, index < pmessage->_messagelength, index++)
 393              		.loc 1 145 0
 394 000c 0023     		movs	r3, #0
 395 000e FB73     		strb	r3, [r7, #15]
 396 0010 0CE0     		b	.L23
 397              	.L24:
 146:.\RFResolver.c ****     {
 147:.\RFResolver.c ****         pmessage->_puartmanager->PutChar(pmessage->_messagetx[index]);
 398              		.loc 1 147 0 discriminator 3
 399 0012 BB68     		ldr	r3, [r7, #8]
 400 0014 D3F80831 		ldr	r3, [r3, #264]
 401 0018 9B6B     		ldr	r3, [r3, #56]
 402 001a FA7B     		ldrb	r2, [r7, #15]	@ zero_extendqisi2
 403 001c B968     		ldr	r1, [r7, #8]
 404 001e 0A44     		add	r2, r2, r1
 405 0020 1279     		ldrb	r2, [r2, #4]	@ zero_extendqisi2
 406 0022 1046     		mov	r0, r2
 407 0024 9847     		blx	r3
 145:.\RFResolver.c ****     FOR(uint8 index = 0, index < pmessage->_messagelength, index++)
 408              		.loc 1 145 0 discriminator 3
 409 0026 FB7B     		ldrb	r3, [r7, #15]	@ zero_extendqisi2
 410 0028 0133     		adds	r3, r3, #1
 411 002a FB73     		strb	r3, [r7, #15]
 412              	.L23:
 145:.\RFResolver.c ****     FOR(uint8 index = 0, index < pmessage->_messagelength, index++)
 413              		.loc 1 145 0 is_stmt 0 discriminator 1
 414 002c FB7B     		ldrb	r3, [r7, #15]	@ zero_extendqisi2
ARM GAS  C:\Users\RECEPC~1\AppData\Local\Temp\ccRRYxeK.s 			page 11


 415 002e 9AB2     		uxth	r2, r3
 416 0030 BB68     		ldr	r3, [r7, #8]
 417 0032 5B88     		ldrh	r3, [r3, #2]	@ movhi
 418 0034 9BB2     		uxth	r3, r3
 419 0036 9A42     		cmp	r2, r3
 420 0038 EBD3     		bcc	.L24
 148:.\RFResolver.c ****         NO_INTERBYTE_DELAY;
 149:.\RFResolver.c ****     }
 150:.\RFResolver.c ****     //This is required for the remote peer receiver (CDG) to locate the frame end
 151:.\RFResolver.c ****     //pmessage->_puartmanager->PutChar(0xDD);
 152:.\RFResolver.c ****     //pmessage->_puartmanager->PutChar(0xEE);
 153:.\RFResolver.c ****     pmessage->_puartmanager->PutChar(0xFF);
 421              		.loc 1 153 0 is_stmt 1
 422 003a BB68     		ldr	r3, [r7, #8]
 423 003c D3F80831 		ldr	r3, [r3, #264]
 424 0040 9B6B     		ldr	r3, [r3, #56]
 425 0042 FF20     		movs	r0, #255
 426 0044 9847     		blx	r3
 154:.\RFResolver.c **** }
 427              		.loc 1 154 0
 428 0046 1037     		adds	r7, r7, #16
 429              		.cfi_def_cfa_offset 8
 430 0048 BD46     		mov	sp, r7
 431              		.cfi_def_cfa_register 13
 432              		@ sp needed
 433 004a 80BD     		pop	{r7, pc}
 434              		.cfi_endproc
 435              	.LFE64:
 436              		.size	RFUARTSend, .-RFUARTSend
 437              		.text
 438              	.Letext0:
 439              		.file 2 "c:\\program files (x86)\\cypress\\psoc creator\\3.3\\psoc creator\\import\\gnu\\arm\\4.9.
 440              		.file 3 "c:\\program files (x86)\\cypress\\psoc creator\\3.3\\psoc creator\\import\\gnu\\arm\\4.9.
 441              		.file 4 "Generated_Source\\PSoC5/cytypes.h"
 442              		.file 5 ".\\UARTManager.h"
 443              		.file 6 ".\\SinkManager.h"
 444              		.file 7 ".\\SinkObservables.h"
 445              		.file 8 ".\\Advantage.h"
 446              		.file 9 ".\\RFLink.h"
 447              		.file 10 "Generated_Source\\PSoC5/core_cm3.h"
 448              		.file 11 ".\\Configuration.h"
 449              		.file 12 ".\\GlobalDefinitions.h"