ARM GAS  C:\Users\RECEPC~1\AppData\Local\Temp\ccMyJoza.s 			page 1


   1              		.syntax unified
   2              		.cpu cortex-m3
   3              		.fpu softvfp
   4              		.eabi_attribute 20, 1
   5              		.eabi_attribute 21, 1
   6              		.eabi_attribute 23, 3
   7              		.eabi_attribute 24, 1
   8              		.eabi_attribute 25, 1
   9              		.eabi_attribute 26, 1
  10              		.eabi_attribute 30, 6
  11              		.eabi_attribute 34, 1
  12              		.eabi_attribute 18, 4
  13              		.thumb
  14              		.file	"RFServerStack.c"
  15              		.text
  16              	.Ltext0:
  17              		.cfi_sections	.debug_frame
  18              		.global	_g_rfresolvers
  19              		.data
  20              		.align	2
  21              		.type	_g_rfresolvers, %object
  22              		.size	_g_rfresolvers, 304
  23              	_g_rfresolvers:
  24 0000 A1       		.byte	-95
  25 0001 A1       		.byte	-95
  26 0002 0000     		.space	2
  27 0004 00000000 		.word	RFStateReqResp
  28 0008 00000000 		.word	RFErrorHandler
  29 000c 32       		.byte	50
  30 000d 000000   		.space	3
  31 0010 A2       		.byte	-94
  32 0011 A2       		.byte	-94
  33 0012 0000     		.space	2
  34 0014 00000000 		.word	RFCreditSerialAuthReqResp
  35 0018 00000000 		.word	RFErrorHandler
  36 001c 32       		.byte	50
  37 001d 000000   		.space	3
  38 0020 A3       		.byte	-93
  39 0021 A3       		.byte	-93
  40 0022 0000     		.space	2
  41 0024 00000000 		.word	RFCreditAuthorizationReqResp
  42 0028 00000000 		.word	RFErrorHandler
  43 002c 32       		.byte	50
  44 002d 000000   		.space	3
  45 0030 AE       		.byte	-82
  46 0031 AE       		.byte	-82
  47 0032 0000     		.space	2
  48 0034 00000000 		.word	RFCreditSalePresetReportReqResp
  49 0038 00000000 		.word	RFErrorHandler
  50 003c 32       		.byte	50
  51 003d 000000   		.space	3
  52 0040 AA       		.byte	-86
  53 0041 AA       		.byte	-86
  54 0042 0000     		.space	2
  55 0044 00000000 		.word	RFCashSalePresetReportReqResp
  56 0048 00000000 		.word	RFErrorHandler
  57 004c 32       		.byte	50
ARM GAS  C:\Users\RECEPC~1\AppData\Local\Temp\ccMyJoza.s 			page 2


  58 004d 000000   		.space	3
  59 0050 A4       		.byte	-92
  60 0051 A4       		.byte	-92
  61 0052 0000     		.space	2
  62 0054 00000000 		.word	RFCashCreditSaleFinalReportReqResp
  63 0058 00000000 		.word	RFErrorHandler
  64 005c 32       		.byte	50
  65 005d 000000   		.space	3
  66 0060 AD       		.byte	-83
  67 0061 AD       		.byte	-83
  68 0062 0000     		.space	2
  69 0064 00000000 		.word	RFPendingCashSaleReqResp
  70 0068 00000000 		.word	RFErrorHandler
  71 006c 32       		.byte	50
  72 006d 000000   		.space	3
  73 0070 A5       		.byte	-91
  74 0071 A5       		.byte	-91
  75 0072 0000     		.space	2
  76 0074 00000000 		.word	RFTotalsDataReqResp
  77 0078 00000000 		.word	RFErrorHandler
  78 007c 32       		.byte	50
  79 007d 000000   		.space	3
  80 0080 E8       		.byte	-24
  81 0081 E8       		.byte	-24
  82 0082 0000     		.space	2
  83 0084 00000000 		.word	RFTotalsDataReportReqResp
  84 0088 00000000 		.word	RFErrorHandler
  85 008c 32       		.byte	50
  86 008d 000000   		.space	3
  87 0090 A6       		.byte	-90
  88 0091 A6       		.byte	-90
  89 0092 0000     		.space	2
  90 0094 00000000 		.word	RFPriceChangeReqResp
  91 0098 00000000 		.word	RFErrorHandler
  92 009c 32       		.byte	50
  93 009d 000000   		.space	3
  94 00a0 A7       		.byte	-89
  95 00a1 A7       		.byte	-89
  96 00a2 0000     		.space	2
  97 00a4 00000000 		.word	RFGeneralPrintReqResp
  98 00a8 00000000 		.word	RFErrorHandler
  99 00ac 32       		.byte	50
 100 00ad 000000   		.space	3
 101 00b0 A8       		.byte	-88
 102 00b1 A8       		.byte	-88
 103 00b2 0000     		.space	2
 104 00b4 00000000 		.word	RFCreditSalePrintReqResp
 105 00b8 00000000 		.word	RFErrorHandler
 106 00bc 32       		.byte	50
 107 00bd 000000   		.space	3
 108 00c0 A9       		.byte	-87
 109 00c1 A9       		.byte	-87
 110 00c2 0000     		.space	2
 111 00c4 00000000 		.word	RFCashSalePrintReqResp
 112 00c8 00000000 		.word	RFErrorHandler
 113 00cc 32       		.byte	50
 114 00cd 000000   		.space	3
ARM GAS  C:\Users\RECEPC~1\AppData\Local\Temp\ccMyJoza.s 			page 3


 115 00d0 AC       		.byte	-84
 116 00d1 AC       		.byte	-84
 117 00d2 0000     		.space	2
 118 00d4 00000000 		.word	RFPendingCreditSaleReqResp
 119 00d8 00000000 		.word	RFErrorHandler
 120 00dc 32       		.byte	50
 121 00dd 000000   		.space	3
 122 00e0 E1       		.byte	-31
 123 00e1 E1       		.byte	-31
 124 00e2 0000     		.space	2
 125 00e4 00000000 		.word	RFBroadcastConfigurationReqResp
 126 00e8 00000000 		.word	RFErrorHandler
 127 00ec 32       		.byte	50
 128 00ed 000000   		.space	3
 129 00f0 E2       		.byte	-30
 130 00f1 E2       		.byte	-30
 131 00f2 0000     		.space	2
 132 00f4 00000000 		.word	RFPositionConfigurationReqResp
 133 00f8 00000000 		.word	RFErrorHandler
 134 00fc 32       		.byte	50
 135 00fd 000000   		.space	3
 136 0100 E3       		.byte	-29
 137 0101 E3       		.byte	-29
 138 0102 0000     		.space	2
 139 0104 00000000 		.word	RFIslandOperDataReqResp
 140 0108 00000000 		.word	RFErrorHandler
 141 010c 32       		.byte	50
 142 010d 000000   		.space	3
 143 0110 E4       		.byte	-28
 144 0111 E4       		.byte	-28
 145 0112 0000     		.space	2
 146 0114 00000000 		.word	RFIslandAdminReqResp
 147 0118 00000000 		.word	RFErrorHandler
 148 011c 32       		.byte	50
 149 011d 000000   		.space	3
 150 0120 FF       		.byte	-1
 151 0121 FF       		.byte	-1
 152 0122 0000     		.space	2
 153 0124 00000000 		.word	0
 154 0128 00000000 		.word	0
 155 012c 00       		.byte	0
 156 012d 000000   		.space	3
 157              		.global	_g_rfreqpayloadmap
 158              		.align	2
 159              		.type	_g_rfreqpayloadmap, %object
 160              		.size	_g_rfreqpayloadmap, 136
 161              	_g_rfreqpayloadmap:
 162 0130 A1       		.byte	-95
 163 0131 00       		.space	1
 164 0132 0800     		.short	8
 165 0134 00000000 		.word	0
 166 0138 A2       		.byte	-94
 167 0139 00       		.space	1
 168 013a 0800     		.short	8
 169 013c 00000000 		.word	0
 170 0140 A3       		.byte	-93
 171 0141 00       		.space	1
ARM GAS  C:\Users\RECEPC~1\AppData\Local\Temp\ccMyJoza.s 			page 4


 172 0142 1900     		.short	25
 173 0144 00000000 		.word	0
 174 0148 AA       		.byte	-86
 175 0149 00       		.space	1
 176 014a 0800     		.short	8
 177 014c 00000000 		.word	0
 178 0150 A4       		.byte	-92
 179 0151 00       		.space	1
 180 0152 0800     		.short	8
 181 0154 00000000 		.word	0
 182 0158 AD       		.byte	-83
 183 0159 00       		.space	1
 184 015a 0800     		.short	8
 185 015c 00000000 		.word	0
 186 0160 AC       		.byte	-84
 187 0161 00       		.space	1
 188 0162 0800     		.short	8
 189 0164 00000000 		.word	0
 190 0168 A5       		.byte	-91
 191 0169 00       		.space	1
 192 016a 0800     		.short	8
 193 016c 00000000 		.word	0
 194 0170 A6       		.byte	-90
 195 0171 00       		.space	1
 196 0172 0F00     		.short	15
 197 0174 00000000 		.word	0
 198 0178 A7       		.byte	-89
 199 0179 00       		.space	1
 200 017a 0000     		.short	0
 201 017c 00000000 		.word	GeneralPrintRequestPayloadSizeResolver
 202 0180 A8       		.byte	-88
 203 0181 00       		.space	1
 204 0182 7600     		.short	118
 205 0184 00000000 		.word	0
 206 0188 A9       		.byte	-87
 207 0189 00       		.space	1
 208 018a 1300     		.short	19
 209 018c 00000000 		.word	0
 210 0190 E1       		.byte	-31
 211 0191 00       		.space	1
 212 0192 5201     		.short	338
 213 0194 00000000 		.word	0
 214 0198 E2       		.byte	-30
 215 0199 00       		.space	1
 216 019a 0E00     		.short	14
 217 019c 00000000 		.word	0
 218 01a0 E3       		.byte	-29
 219 01a1 00       		.space	1
 220 01a2 0900     		.short	9
 221 01a4 00000000 		.word	0
 222 01a8 E4       		.byte	-28
 223 01a9 00       		.space	1
 224 01aa 0900     		.short	9
 225 01ac 00000000 		.word	0
 226 01b0 FF       		.byte	-1
 227 01b1 00       		.space	1
 228 01b2 0000     		.short	0
ARM GAS  C:\Users\RECEPC~1\AppData\Local\Temp\ccMyJoza.s 			page 5


 229 01b4 00000000 		.word	0
 230              		.global	_g_rfcommandstatemap
 231              		.align	2
 232              		.type	_g_rfcommandstatemap, %object
 233              		.size	_g_rfcommandstatemap, 16
 234              	_g_rfcommandstatemap:
 235 01b8 08       		.byte	8
 236 01b9 00       		.byte	0
 237 01ba 01       		.byte	1
 238 01bb AA       		.byte	-86
 239 01bc 01       		.byte	1
 240 01bd AE       		.byte	-82
 241 01be 02       		.byte	2
 242 01bf A4       		.byte	-92
 243 01c0 03       		.byte	3
 244 01c1 A3       		.byte	-93
 245 01c2 05       		.byte	5
 246 01c3 E3       		.byte	-29
 247 01c4 06       		.byte	6
 248 01c5 AC       		.byte	-84
 249 01c6 FF       		.byte	-1
 250 01c7 FF       		.byte	-1
 251              		.section	.text.RFGetPayloadLengthFromRequestCode,"ax",%progbits
 252              		.align	2
 253              		.global	RFGetPayloadLengthFromRequestCode
 254              		.thumb
 255              		.thumb_func
 256              		.type	RFGetPayloadLengthFromRequestCode, %function
 257              	RFGetPayloadLengthFromRequestCode:
 258              	.LFB0:
 259              		.file 1 ".\\RFServerStack.c"
   1:.\RFServerStack.c **** /* ========================================
   2:.\RFServerStack.c ****  *
   3:.\RFServerStack.c ****  * Copyright INSEPET SISTEMAS, 2016
   4:.\RFServerStack.c ****  * All Rights Reserved
   5:.\RFServerStack.c ****  * UNPUBLISHED, LICENSED SOFTWARE.
   6:.\RFServerStack.c ****  *
   7:.\RFServerStack.c ****  * CONFIDENTIAL AND PROPRIETARY INFORMATION
   8:.\RFServerStack.c ****  * WHICH IS THE PROPERTY OF your company.
   9:.\RFServerStack.c ****  *
  10:.\RFServerStack.c ****  * ========================================
  11:.\RFServerStack.c **** @Created By: HIJH
  12:.\RFServerStack.c **** @Date: Septembre de 2016
  13:.\RFServerStack.c **** */
  14:.\RFServerStack.c **** 
  15:.\RFServerStack.c **** #include "GlobalDefinitions.h"
  16:.\RFServerStack.c **** #include "UARTManager.h"
  17:.\RFServerStack.c **** #include "RFLink.h"
  18:.\RFServerStack.c **** 
  19:.\RFServerStack.c **** bool RFStateReqResp(void *pparam);
  20:.\RFServerStack.c **** bool RFCreditSerialAuthReqResp(void *pparam);
  21:.\RFServerStack.c **** bool RFCreditAuthorizationReqResp(void *pparam);
  22:.\RFServerStack.c **** bool RFCreditSalePresetReportReqResp(void *pparam);
  23:.\RFServerStack.c **** bool RFCashSalePresetReportReqResp(void *pparam);
  24:.\RFServerStack.c **** bool RFTotalsDataReqResp(void *pparam);
  25:.\RFServerStack.c **** bool RFTotalsDataReportReqResp(void *pparam);
  26:.\RFServerStack.c **** bool RFPriceChangeReqResp(void *pparam);
ARM GAS  C:\Users\RECEPC~1\AppData\Local\Temp\ccMyJoza.s 			page 6


  27:.\RFServerStack.c **** bool RFGeneralPrintReqResp(void *pparam);
  28:.\RFServerStack.c **** bool RFCreditSalePrintReqResp(void *pparam);
  29:.\RFServerStack.c **** bool RFCashSalePrintReqResp(void *pparam);
  30:.\RFServerStack.c **** bool RFPendingCreditSaleReqResp(void *pparam);
  31:.\RFServerStack.c **** bool RFCashCreditSaleFinalReportReqResp(void *pparam);
  32:.\RFServerStack.c **** bool RFPendingCashSaleReqResp(void *pparam);
  33:.\RFServerStack.c **** bool RFBroadcastConfigurationReqResp(void *pparam);
  34:.\RFServerStack.c **** bool RFPositionConfigurationReqResp(void *pparam);
  35:.\RFServerStack.c **** bool RFIslandOperDataReqResp(void *pparam);
  36:.\RFServerStack.c **** bool RFIslandAdminReqResp(void *pparam);
  37:.\RFServerStack.c **** uint16 GeneralPrintRequestPayloadSizeResolver(LPVOID pbuffer);
  38:.\RFServerStack.c **** 
  39:.\RFServerStack.c **** void RFErrorHandler(void *pparam);
  40:.\RFServerStack.c **** 
  41:.\RFServerStack.c **** //@Created By: HIJH
  42:.\RFServerStack.c **** //@Date: Septembre de 2016
  43:.\RFServerStack.c **** //Server RPC mapping of invocation codes and Request / Response Handlers
  44:.\RFServerStack.c **** RFRequestResponse _g_rfresolvers[] = 
  45:.\RFServerStack.c **** {
  46:.\RFServerStack.c ****     { 
  47:.\RFServerStack.c ****         RF_MUX_STATE_REQUEST, RF_MUX_STATE_RESPONSE,
  48:.\RFServerStack.c ****         RFStateReqResp,
  49:.\RFServerStack.c ****         RFErrorHandler,
  50:.\RFServerStack.c ****         _RF_MAX_TIMEOUT_LIMIT_
  51:.\RFServerStack.c ****     },
  52:.\RFServerStack.c ****     { 
  53:.\RFServerStack.c ****         RF_MUX_CREDIT_SERIAL_AUTH_REQUEST, RF_MUX_CREDIT_SERIAL_AUTH_RESPONSE,
  54:.\RFServerStack.c ****         RFCreditSerialAuthReqResp,
  55:.\RFServerStack.c ****         RFErrorHandler,
  56:.\RFServerStack.c ****         _RF_MAX_TIMEOUT_LIMIT_
  57:.\RFServerStack.c ****     },
  58:.\RFServerStack.c ****     { 
  59:.\RFServerStack.c ****         RF_MUX_CREDIT_PRESET_AUTHORIZATION_REQUEST, RF_MUX_CREDIT_PRESET_AUTHORIZATION_RESPONSE,
  60:.\RFServerStack.c ****         RFCreditAuthorizationReqResp,
  61:.\RFServerStack.c ****         RFErrorHandler,
  62:.\RFServerStack.c ****         _RF_MAX_TIMEOUT_LIMIT_
  63:.\RFServerStack.c ****     },
  64:.\RFServerStack.c ****     { 
  65:.\RFServerStack.c ****         RF_MUX_CREDIT_PRESET_NOTIFICATION_REQUEST, RF_MUX_CREDIT_PRESET_NOTIFICATION_RESPONSE,
  66:.\RFServerStack.c ****         RFCreditSalePresetReportReqResp,
  67:.\RFServerStack.c ****         RFErrorHandler,
  68:.\RFServerStack.c ****         _RF_MAX_TIMEOUT_LIMIT_
  69:.\RFServerStack.c ****     },
  70:.\RFServerStack.c ****     { 
  71:.\RFServerStack.c ****         RF_MUX_CASH_SALE_START_REQUEST, RF_MUX_CASH_SALE_START_RESPONSE,
  72:.\RFServerStack.c ****         RFCashSalePresetReportReqResp,
  73:.\RFServerStack.c ****         RFErrorHandler,
  74:.\RFServerStack.c ****         _RF_MAX_TIMEOUT_LIMIT_
  75:.\RFServerStack.c ****     },
  76:.\RFServerStack.c ****     { 
  77:.\RFServerStack.c ****         RF_MUX_CASH_SALE_END_REPORT_REQUEST, RF_MUX_CASH_SALE_END_REPORT_RESPONSE,
  78:.\RFServerStack.c ****         RFCashCreditSaleFinalReportReqResp,
  79:.\RFServerStack.c ****         RFErrorHandler,
  80:.\RFServerStack.c ****         _RF_MAX_TIMEOUT_LIMIT_
  81:.\RFServerStack.c ****     },
  82:.\RFServerStack.c ****     {
  83:.\RFServerStack.c ****         RF_MUX_LAST_CASH_SALE_REQUEST, RF_MUX_LAST_CASH_SALE_RESPONSE,
ARM GAS  C:\Users\RECEPC~1\AppData\Local\Temp\ccMyJoza.s 			page 7


  84:.\RFServerStack.c ****         RFPendingCashSaleReqResp,
  85:.\RFServerStack.c ****         RFErrorHandler,
  86:.\RFServerStack.c ****         _RF_MAX_TIMEOUT_LIMIT_
  87:.\RFServerStack.c ****     },
  88:.\RFServerStack.c ****     { 
  89:.\RFServerStack.c ****         RF_MUX_TOTALS_REQUEST, RF_MUX_TOTALS_RESPONSE,
  90:.\RFServerStack.c ****         RFTotalsDataReqResp,
  91:.\RFServerStack.c ****         RFErrorHandler,
  92:.\RFServerStack.c ****         _RF_MAX_TIMEOUT_LIMIT_
  93:.\RFServerStack.c ****     },
  94:.\RFServerStack.c ****     { 
  95:.\RFServerStack.c ****         RF_MUX_TOTALS_REPORT_REQUEST, RF_MUX_TOTALS_REPORT_RESPONSE,
  96:.\RFServerStack.c ****         RFTotalsDataReportReqResp,
  97:.\RFServerStack.c ****         RFErrorHandler,
  98:.\RFServerStack.c ****         _RF_MAX_TIMEOUT_LIMIT_
  99:.\RFServerStack.c ****     },
 100:.\RFServerStack.c ****     { 
 101:.\RFServerStack.c ****         RF_MUX_PRICE_CHANGE_REQUEST, RF_MUX_PRICE_CHANGE_RESPONSE,
 102:.\RFServerStack.c ****         RFPriceChangeReqResp,
 103:.\RFServerStack.c ****         RFErrorHandler,
 104:.\RFServerStack.c ****         _RF_MAX_TIMEOUT_LIMIT_
 105:.\RFServerStack.c ****     },
 106:.\RFServerStack.c ****     { 
 107:.\RFServerStack.c ****         RF_MUX_GENERAL_PRINT_REQUEST, RF_MUX_GENERAL_PRINT_RESPONSE,
 108:.\RFServerStack.c ****         RFGeneralPrintReqResp,
 109:.\RFServerStack.c ****         RFErrorHandler,
 110:.\RFServerStack.c ****         _RF_MAX_TIMEOUT_LIMIT_
 111:.\RFServerStack.c ****     },
 112:.\RFServerStack.c ****     { 
 113:.\RFServerStack.c ****         RF_MUX_CREDIT_SALE_PRINT_REQUEST, RF_MUX_CREDIT_SALE_PRINT_RESPONSE,
 114:.\RFServerStack.c ****         RFCreditSalePrintReqResp,
 115:.\RFServerStack.c ****         RFErrorHandler,
 116:.\RFServerStack.c ****         _RF_MAX_TIMEOUT_LIMIT_
 117:.\RFServerStack.c ****     },
 118:.\RFServerStack.c ****     { 
 119:.\RFServerStack.c ****         RF_MUX_CASH_SALE_PRINT_REQUEST, RF_MUX_CASH_SALE_PRINT_RESPONSE,
 120:.\RFServerStack.c ****         RFCashSalePrintReqResp,
 121:.\RFServerStack.c ****         RFErrorHandler,
 122:.\RFServerStack.c ****         _RF_MAX_TIMEOUT_LIMIT_
 123:.\RFServerStack.c ****     },
 124:.\RFServerStack.c ****     { 
 125:.\RFServerStack.c ****         RF_MUX_PENDING_CREDIT_SALE_REQUEST, RF_MUX_PENDING_CREDIT_SALE_RESPONSE,
 126:.\RFServerStack.c ****         RFPendingCreditSaleReqResp,
 127:.\RFServerStack.c ****         RFErrorHandler,
 128:.\RFServerStack.c ****         _RF_MAX_TIMEOUT_LIMIT_
 129:.\RFServerStack.c ****     },
 130:.\RFServerStack.c ****     { 
 131:.\RFServerStack.c ****         RF_MUX_BROADCAST_CFG_REQUEST, RF_MUX_BROADCAST_CFG_RESPONSE,
 132:.\RFServerStack.c ****         RFBroadcastConfigurationReqResp,
 133:.\RFServerStack.c ****         RFErrorHandler,
 134:.\RFServerStack.c ****         _RF_MAX_TIMEOUT_LIMIT_
 135:.\RFServerStack.c ****     },
 136:.\RFServerStack.c ****     { 
 137:.\RFServerStack.c ****         RF_MUX_POSITION_CFG_REQUEST, RF_MUX_POSITION_CFG_RESPONSE,
 138:.\RFServerStack.c ****         RFPositionConfigurationReqResp,
 139:.\RFServerStack.c ****         RFErrorHandler,
 140:.\RFServerStack.c ****         _RF_MAX_TIMEOUT_LIMIT_
ARM GAS  C:\Users\RECEPC~1\AppData\Local\Temp\ccMyJoza.s 			page 8


 141:.\RFServerStack.c ****     },
 142:.\RFServerStack.c ****     { 
 143:.\RFServerStack.c ****         RF_MUX_ISLAND_OPER_DATA_REQUEST, RF_MUX_ISLAND_OPER_DATA_RESPONSE,
 144:.\RFServerStack.c ****         RFIslandOperDataReqResp,
 145:.\RFServerStack.c ****         RFErrorHandler,
 146:.\RFServerStack.c ****         _RF_MAX_TIMEOUT_LIMIT_
 147:.\RFServerStack.c ****     },
 148:.\RFServerStack.c ****     { 
 149:.\RFServerStack.c ****         RF_MUX_ISLAND_ADMIN_REQUEST, RF_MUX_ISLAND_ADMIN_RESPONSE,
 150:.\RFServerStack.c ****         RFIslandAdminReqResp,
 151:.\RFServerStack.c ****         RFErrorHandler,
 152:.\RFServerStack.c ****         _RF_MAX_TIMEOUT_LIMIT_
 153:.\RFServerStack.c ****     },
 154:.\RFServerStack.c ****     {
 155:.\RFServerStack.c ****         RF_MUX_NULL, RF_MUX_NULL,
 156:.\RFServerStack.c ****         NULL, NULL, _RF_NO_TIMEOUT_
 157:.\RFServerStack.c ****     }
 158:.\RFServerStack.c **** };
 159:.\RFServerStack.c **** 
 160:.\RFServerStack.c **** //@Created By: HIJH
 161:.\RFServerStack.c **** //@Date: Septembre de 2016
 162:.\RFServerStack.c **** //Static payload size / RPC code map. If the specified size is
 163:.\RFServerStack.c **** //zero, then the payload size is dynamic
 164:.\RFServerStack.c **** RFRequestPayloadLengthMap _g_rfreqpayloadmap[] = 
 165:.\RFServerStack.c **** {
 166:.\RFServerStack.c ****     //FRAME SIZE MAPPING/ DEFINITION FOR THE COMMUNICATION COMING FROM THE REMOTE PEER (NSX)
 167:.\RFServerStack.c ****     { RF_MUX_STATE_REQUEST,                         8u,   NULL },
 168:.\RFServerStack.c ****     { RF_MUX_CREDIT_SERIAL_AUTH_REQUEST,            8u,   NULL },
 169:.\RFServerStack.c ****     { RF_MUX_CREDIT_PRESET_AUTHORIZATION_REQUEST,   25u,  NULL },
 170:.\RFServerStack.c ****     { RF_MUX_CASH_SALE_START_REQUEST,               8u,   NULL},
 171:.\RFServerStack.c ****     { RF_MUX_CASH_SALE_END_REPORT_REQUEST,          8u,   NULL },
 172:.\RFServerStack.c ****     
 173:.\RFServerStack.c ****     { RF_MUX_LAST_CASH_SALE_REQUEST,                8u,   NULL},
 174:.\RFServerStack.c ****     { RF_MUX_PENDING_CREDIT_SALE_REQUEST,           8u,   NULL },
 175:.\RFServerStack.c ****     
 176:.\RFServerStack.c ****     { RF_MUX_TOTALS_REQUEST,                        8u,   NULL },
 177:.\RFServerStack.c ****     { RF_MUX_PRICE_CHANGE_REQUEST,                  15u,  NULL },
 178:.\RFServerStack.c ****     { RF_MUX_GENERAL_PRINT_REQUEST,                 0u,   GeneralPrintRequestPayloadSizeResolver },
 179:.\RFServerStack.c ****     { RF_MUX_CREDIT_SALE_PRINT_REQUEST,             118u, NULL },
 180:.\RFServerStack.c ****     { RF_MUX_CASH_SALE_PRINT_REQUEST,               19u,  NULL },
 181:.\RFServerStack.c ****     { RF_MUX_BROADCAST_CFG_REQUEST,                 338u, NULL },
 182:.\RFServerStack.c ****     { RF_MUX_POSITION_CFG_REQUEST,                  14u,  NULL },
 183:.\RFServerStack.c ****     { RF_MUX_ISLAND_OPER_DATA_REQUEST,              9u,   NULL },
 184:.\RFServerStack.c ****     { RF_MUX_ISLAND_ADMIN_REQUEST,                  9u,   NULL },
 185:.\RFServerStack.c ****     
 186:.\RFServerStack.c ****     //FRAME SIZE MAPPING/ DEFINITIONS FOR THE COMMUNICATION COMING FROM THE SIBBLINGS
 187:.\RFServerStack.c **** 
 188:.\RFServerStack.c ****     ////////////////////////////////////////////////
 189:.\RFServerStack.c ****     //THESE IDENTIFIERS ARE RESERVED FOR FUTURE USE
 190:.\RFServerStack.c ****     ////////////////////////////////////////////////    
 191:.\RFServerStack.c ****     
 192:.\RFServerStack.c ****     { RF_MUX_NULL, 0x0000, NULL }    
 193:.\RFServerStack.c **** };
 194:.\RFServerStack.c **** 
 195:.\RFServerStack.c **** RFCommandStateMap _g_rfcommandstatemap[] =
 196:.\RFServerStack.c **** {
 197:.\RFServerStack.c ****     { RF_IDLE,              0x00 },
ARM GAS  C:\Users\RECEPC~1\AppData\Local\Temp\ccMyJoza.s 			page 9


 198:.\RFServerStack.c ****     { RF_DELIVERING,        RF_MUX_CASH_SALE_START_REQUEST },
 199:.\RFServerStack.c ****     { RF_DELIVERING,        RF_MUX_CREDIT_PRESET_NOTIFICATION_REQUEST },
 200:.\RFServerStack.c ****     { RF_CASHSALEREPORT,    RF_MUX_CASH_SALE_END_REPORT_REQUEST },
 201:.\RFServerStack.c ****     { RF_CREDITSALEAUTH,    RF_MUX_CREDIT_PRESET_AUTHORIZATION_RESPONSE },
 202:.\RFServerStack.c ****     { RF_WORKSHIFTREQ,      RF_MUX_ISLAND_OPER_DATA_REQUEST },
 203:.\RFServerStack.c ****     { RF_CREDITSALEREPORT,  RF_MUX_PENDING_CREDIT_SALE_REQUEST },
 204:.\RFServerStack.c ****     { RF_MUX_NULL,          RF_MUX_NULL }
 205:.\RFServerStack.c **** };
 206:.\RFServerStack.c **** 
 207:.\RFServerStack.c **** //@Created By: HIJH
 208:.\RFServerStack.c **** //@Date: Septembre de 2016
 209:.\RFServerStack.c **** //This function acquires the payload size based on the unmapped RPC code
 210:.\RFServerStack.c **** uint16 RFGetPayloadLengthFromRequestCode(uint8 reqcode)
 211:.\RFServerStack.c **** {
 260              		.loc 1 211 0
 261              		.cfi_startproc
 262              		@ args = 0, pretend = 0, frame = 16
 263              		@ frame_needed = 1, uses_anonymous_args = 0
 264              		@ link register save eliminated.
 265 0000 80B4     		push	{r7}
 266              		.cfi_def_cfa_offset 4
 267              		.cfi_offset 7, -4
 268 0002 85B0     		sub	sp, sp, #20
 269              		.cfi_def_cfa_offset 24
 270 0004 00AF     		add	r7, sp, #0
 271              		.cfi_def_cfa_register 7
 272 0006 0346     		mov	r3, r0
 273 0008 FB71     		strb	r3, [r7, #7]
 212:.\RFServerStack.c ****     uint16 retval = 0x0000;
 274              		.loc 1 212 0
 275 000a 0023     		movs	r3, #0
 276 000c FB81     		strh	r3, [r7, #14]	@ movhi
 213:.\RFServerStack.c ****     PNEAR_RFREQUESTPAYLOADLENGTHMAP preqpaylliterator = _g_rfreqpayloadmap;
 277              		.loc 1 213 0
 278 000e 0D4B     		ldr	r3, .L7
 279 0010 BB60     		str	r3, [r7, #8]
 214:.\RFServerStack.c ****     while(preqpaylliterator->_requestcode != RF_MUX_NULL)
 280              		.loc 1 214 0
 281 0012 0BE0     		b	.L2
 282              	.L5:
 215:.\RFServerStack.c ****     {
 216:.\RFServerStack.c ****         if(preqpaylliterator->_requestcode == reqcode)
 283              		.loc 1 216 0
 284 0014 BB68     		ldr	r3, [r7, #8]
 285 0016 1B78     		ldrb	r3, [r3]	@ zero_extendqisi2
 286 0018 FA79     		ldrb	r2, [r7, #7]	@ zero_extendqisi2
 287 001a 9A42     		cmp	r2, r3
 288 001c 03D1     		bne	.L3
 217:.\RFServerStack.c ****         {
 218:.\RFServerStack.c ****             retval = preqpaylliterator->_requestpayloadsize;
 289              		.loc 1 218 0
 290 001e BB68     		ldr	r3, [r7, #8]
 291 0020 5B88     		ldrh	r3, [r3, #2]	@ movhi
 292 0022 FB81     		strh	r3, [r7, #14]	@ movhi
 219:.\RFServerStack.c ****             break;
 293              		.loc 1 219 0
 294 0024 06E0     		b	.L4
ARM GAS  C:\Users\RECEPC~1\AppData\Local\Temp\ccMyJoza.s 			page 10


 295              	.L3:
 220:.\RFServerStack.c ****         }
 221:.\RFServerStack.c ****         preqpaylliterator++;
 296              		.loc 1 221 0
 297 0026 BB68     		ldr	r3, [r7, #8]
 298 0028 0833     		adds	r3, r3, #8
 299 002a BB60     		str	r3, [r7, #8]
 300              	.L2:
 214:.\RFServerStack.c ****     {
 301              		.loc 1 214 0
 302 002c BB68     		ldr	r3, [r7, #8]
 303 002e 1B78     		ldrb	r3, [r3]	@ zero_extendqisi2
 304 0030 FF2B     		cmp	r3, #255
 305 0032 EFD1     		bne	.L5
 306              	.L4:
 222:.\RFServerStack.c ****     }
 223:.\RFServerStack.c ****     return retval;
 307              		.loc 1 223 0
 308 0034 FB89     		ldrh	r3, [r7, #14]
 224:.\RFServerStack.c **** }
 309              		.loc 1 224 0
 310 0036 1846     		mov	r0, r3
 311 0038 1437     		adds	r7, r7, #20
 312              		.cfi_def_cfa_offset 4
 313 003a BD46     		mov	sp, r7
 314              		.cfi_def_cfa_register 13
 315              		@ sp needed
 316 003c 5DF8047B 		ldr	r7, [sp], #4
 317              		.cfi_restore 7
 318              		.cfi_def_cfa_offset 0
 319 0040 7047     		bx	lr
 320              	.L8:
 321 0042 00BF     		.align	2
 322              	.L7:
 323 0044 00000000 		.word	_g_rfreqpayloadmap
 324              		.cfi_endproc
 325              	.LFE0:
 326              		.size	RFGetPayloadLengthFromRequestCode, .-RFGetPayloadLengthFromRequestCode
 327              		.section	.text.RFGetDynamicPayloadLengthFromRequestCode,"ax",%progbits
 328              		.align	2
 329              		.global	RFGetDynamicPayloadLengthFromRequestCode
 330              		.thumb
 331              		.thumb_func
 332              		.type	RFGetDynamicPayloadLengthFromRequestCode, %function
 333              	RFGetDynamicPayloadLengthFromRequestCode:
 334              	.LFB1:
 225:.\RFServerStack.c **** 
 226:.\RFServerStack.c **** //@Created By: HIJH
 227:.\RFServerStack.c **** //@Date: Octobre de 2016
 228:.\RFServerStack.c **** //This function acquires the payload size resolver based on the unmapped RPC code
 229:.\RFServerStack.c **** PayloadSizeResolver RFGetDynamicPayloadLengthFromRequestCode(uint8 reqcode)
 230:.\RFServerStack.c **** {
 335              		.loc 1 230 0
 336              		.cfi_startproc
 337              		@ args = 0, pretend = 0, frame = 16
 338              		@ frame_needed = 1, uses_anonymous_args = 0
 339              		@ link register save eliminated.
ARM GAS  C:\Users\RECEPC~1\AppData\Local\Temp\ccMyJoza.s 			page 11


 340 0000 80B4     		push	{r7}
 341              		.cfi_def_cfa_offset 4
 342              		.cfi_offset 7, -4
 343 0002 85B0     		sub	sp, sp, #20
 344              		.cfi_def_cfa_offset 24
 345 0004 00AF     		add	r7, sp, #0
 346              		.cfi_def_cfa_register 7
 347 0006 0346     		mov	r3, r0
 348 0008 FB71     		strb	r3, [r7, #7]
 231:.\RFServerStack.c ****     PayloadSizeResolver pretval = PNEAR_NULLPTR;
 349              		.loc 1 231 0
 350 000a 0023     		movs	r3, #0
 351 000c FB60     		str	r3, [r7, #12]
 232:.\RFServerStack.c ****     PNEAR_RFREQUESTPAYLOADLENGTHMAP preqpaylliterator = _g_rfreqpayloadmap;
 352              		.loc 1 232 0
 353 000e 0D4B     		ldr	r3, .L15
 354 0010 BB60     		str	r3, [r7, #8]
 233:.\RFServerStack.c ****     while(preqpaylliterator->_requestcode != RF_MUX_NULL)
 355              		.loc 1 233 0
 356 0012 0BE0     		b	.L10
 357              	.L13:
 234:.\RFServerStack.c ****     {
 235:.\RFServerStack.c ****         if(preqpaylliterator->_requestcode == reqcode)
 358              		.loc 1 235 0
 359 0014 BB68     		ldr	r3, [r7, #8]
 360 0016 1B78     		ldrb	r3, [r3]	@ zero_extendqisi2
 361 0018 FA79     		ldrb	r2, [r7, #7]	@ zero_extendqisi2
 362 001a 9A42     		cmp	r2, r3
 363 001c 03D1     		bne	.L11
 236:.\RFServerStack.c ****         {
 237:.\RFServerStack.c ****             pretval = preqpaylliterator->_fpPayloadSizeResolver;
 364              		.loc 1 237 0
 365 001e BB68     		ldr	r3, [r7, #8]
 366 0020 5B68     		ldr	r3, [r3, #4]
 367 0022 FB60     		str	r3, [r7, #12]
 238:.\RFServerStack.c ****             break;
 368              		.loc 1 238 0
 369 0024 06E0     		b	.L12
 370              	.L11:
 239:.\RFServerStack.c ****         }
 240:.\RFServerStack.c ****         preqpaylliterator++;
 371              		.loc 1 240 0
 372 0026 BB68     		ldr	r3, [r7, #8]
 373 0028 0833     		adds	r3, r3, #8
 374 002a BB60     		str	r3, [r7, #8]
 375              	.L10:
 233:.\RFServerStack.c ****     {
 376              		.loc 1 233 0
 377 002c BB68     		ldr	r3, [r7, #8]
 378 002e 1B78     		ldrb	r3, [r3]	@ zero_extendqisi2
 379 0030 FF2B     		cmp	r3, #255
 380 0032 EFD1     		bne	.L13
 381              	.L12:
 241:.\RFServerStack.c ****     }
 242:.\RFServerStack.c ****     return pretval;
 382              		.loc 1 242 0
 383 0034 FB68     		ldr	r3, [r7, #12]
ARM GAS  C:\Users\RECEPC~1\AppData\Local\Temp\ccMyJoza.s 			page 12


 243:.\RFServerStack.c **** }
 384              		.loc 1 243 0
 385 0036 1846     		mov	r0, r3
 386 0038 1437     		adds	r7, r7, #20
 387              		.cfi_def_cfa_offset 4
 388 003a BD46     		mov	sp, r7
 389              		.cfi_def_cfa_register 13
 390              		@ sp needed
 391 003c 5DF8047B 		ldr	r7, [sp], #4
 392              		.cfi_restore 7
 393              		.cfi_def_cfa_offset 0
 394 0040 7047     		bx	lr
 395              	.L16:
 396 0042 00BF     		.align	2
 397              	.L15:
 398 0044 00000000 		.word	_g_rfreqpayloadmap
 399              		.cfi_endproc
 400              	.LFE1:
 401              		.size	RFGetDynamicPayloadLengthFromRequestCode, .-RFGetDynamicPayloadLengthFromRequestCode
 402              		.section	.text.RFGetRequestResponseServerHandler,"ax",%progbits
 403              		.align	2
 404              		.global	RFGetRequestResponseServerHandler
 405              		.thumb
 406              		.thumb_func
 407              		.type	RFGetRequestResponseServerHandler, %function
 408              	RFGetRequestResponseServerHandler:
 409              	.LFB2:
 244:.\RFServerStack.c **** 
 245:.\RFServerStack.c **** //@Created By: HIJH
 246:.\RFServerStack.c **** //@Date: Septembre de 2016
 247:.\RFServerStack.c **** //This function unmaps the RPC request code coming from the RF Link and returns 
 248:.\RFServerStack.c **** //the mapped handler
 249:.\RFServerStack.c **** PNEAR_REQRESPTR RFGetRequestResponseServerHandler(uint8 reqcode)
 250:.\RFServerStack.c **** {
 410              		.loc 1 250 0
 411              		.cfi_startproc
 412              		@ args = 0, pretend = 0, frame = 16
 413              		@ frame_needed = 1, uses_anonymous_args = 0
 414              		@ link register save eliminated.
 415 0000 80B4     		push	{r7}
 416              		.cfi_def_cfa_offset 4
 417              		.cfi_offset 7, -4
 418 0002 85B0     		sub	sp, sp, #20
 419              		.cfi_def_cfa_offset 24
 420 0004 00AF     		add	r7, sp, #0
 421              		.cfi_def_cfa_register 7
 422 0006 0346     		mov	r3, r0
 423 0008 FB71     		strb	r3, [r7, #7]
 251:.\RFServerStack.c ****     PNEAR_REQRESPTR pretval = PNEAR_NULLPTR;
 424              		.loc 1 251 0
 425 000a 0023     		movs	r3, #0
 426 000c FB60     		str	r3, [r7, #12]
 252:.\RFServerStack.c ****     PNEAR_REQRESPTR preqrespiterator = &_g_rfresolvers[0];
 427              		.loc 1 252 0
 428 000e 0E4B     		ldr	r3, .L23
 429 0010 BB60     		str	r3, [r7, #8]
 253:.\RFServerStack.c ****     while((preqrespiterator->_requestcode != RF_MUX_NULL) &&
ARM GAS  C:\Users\RECEPC~1\AppData\Local\Temp\ccMyJoza.s 			page 13


 430              		.loc 1 253 0
 431 0012 0AE0     		b	.L18
 432              	.L21:
 254:.\RFServerStack.c ****     (preqrespiterator->_responsecode != RF_MUX_NULL))
 255:.\RFServerStack.c ****     {
 256:.\RFServerStack.c ****         if(preqrespiterator->_requestcode == reqcode)
 433              		.loc 1 256 0
 434 0014 BB68     		ldr	r3, [r7, #8]
 435 0016 1B78     		ldrb	r3, [r3]	@ zero_extendqisi2
 436 0018 FA79     		ldrb	r2, [r7, #7]	@ zero_extendqisi2
 437 001a 9A42     		cmp	r2, r3
 438 001c 02D1     		bne	.L19
 257:.\RFServerStack.c ****         {
 258:.\RFServerStack.c ****             pretval = preqrespiterator;
 439              		.loc 1 258 0
 440 001e BB68     		ldr	r3, [r7, #8]
 441 0020 FB60     		str	r3, [r7, #12]
 259:.\RFServerStack.c ****             break;
 442              		.loc 1 259 0
 443 0022 0AE0     		b	.L20
 444              	.L19:
 260:.\RFServerStack.c ****         }
 261:.\RFServerStack.c ****         preqrespiterator++;
 445              		.loc 1 261 0
 446 0024 BB68     		ldr	r3, [r7, #8]
 447 0026 1033     		adds	r3, r3, #16
 448 0028 BB60     		str	r3, [r7, #8]
 449              	.L18:
 253:.\RFServerStack.c ****     (preqrespiterator->_responsecode != RF_MUX_NULL))
 450              		.loc 1 253 0
 451 002a BB68     		ldr	r3, [r7, #8]
 452 002c 1B78     		ldrb	r3, [r3]	@ zero_extendqisi2
 453 002e FF2B     		cmp	r3, #255
 454 0030 03D0     		beq	.L20
 254:.\RFServerStack.c ****     {
 455              		.loc 1 254 0 discriminator 1
 456 0032 BB68     		ldr	r3, [r7, #8]
 457 0034 5B78     		ldrb	r3, [r3, #1]	@ zero_extendqisi2
 253:.\RFServerStack.c ****     (preqrespiterator->_responsecode != RF_MUX_NULL))
 458              		.loc 1 253 0 discriminator 1
 459 0036 FF2B     		cmp	r3, #255
 460 0038 ECD1     		bne	.L21
 461              	.L20:
 262:.\RFServerStack.c ****     }
 263:.\RFServerStack.c ****     return pretval;
 462              		.loc 1 263 0
 463 003a FB68     		ldr	r3, [r7, #12]
 264:.\RFServerStack.c **** }
 464              		.loc 1 264 0
 465 003c 1846     		mov	r0, r3
 466 003e 1437     		adds	r7, r7, #20
 467              		.cfi_def_cfa_offset 4
 468 0040 BD46     		mov	sp, r7
 469              		.cfi_def_cfa_register 13
 470              		@ sp needed
 471 0042 5DF8047B 		ldr	r7, [sp], #4
 472              		.cfi_restore 7
ARM GAS  C:\Users\RECEPC~1\AppData\Local\Temp\ccMyJoza.s 			page 14


 473              		.cfi_def_cfa_offset 0
 474 0046 7047     		bx	lr
 475              	.L24:
 476              		.align	2
 477              	.L23:
 478 0048 00000000 		.word	_g_rfresolvers
 479              		.cfi_endproc
 480              	.LFE2:
 481              		.size	RFGetRequestResponseServerHandler, .-RFGetRequestResponseServerHandler
 482              		.section	.text.RFGetCRC,"ax",%progbits
 483              		.align	2
 484              		.global	RFGetCRC
 485              		.thumb
 486              		.thumb_func
 487              		.type	RFGetCRC, %function
 488              	RFGetCRC:
 489              	.LFB3:
 265:.\RFServerStack.c **** 
 266:.\RFServerStack.c **** 
 267:.\RFServerStack.c **** uint8 RFGetCRC(uint8 commandid, PNEAR_BYTE_PTR pbuffer)
 268:.\RFServerStack.c **** {
 490              		.loc 1 268 0
 491              		.cfi_startproc
 492              		@ args = 0, pretend = 0, frame = 16
 493              		@ frame_needed = 1, uses_anonymous_args = 0
 494 0000 80B5     		push	{r7, lr}
 495              		.cfi_def_cfa_offset 8
 496              		.cfi_offset 7, -8
 497              		.cfi_offset 14, -4
 498 0002 84B0     		sub	sp, sp, #16
 499              		.cfi_def_cfa_offset 24
 500 0004 00AF     		add	r7, sp, #0
 501              		.cfi_def_cfa_register 7
 502 0006 0346     		mov	r3, r0
 503 0008 3960     		str	r1, [r7]
 504 000a FB71     		strb	r3, [r7, #7]
 269:.\RFServerStack.c ****     uint8 retval = 0x00;
 505              		.loc 1 269 0
 506 000c 0023     		movs	r3, #0
 507 000e FB73     		strb	r3, [r7, #15]
 270:.\RFServerStack.c ****     PNEAR_RFREQUESTPAYLOADLENGTHMAP preqplliterator = (PNEAR_RFREQUESTPAYLOADLENGTHMAP)_g_rfreqpayl
 508              		.loc 1 270 0
 509 0010 154B     		ldr	r3, .L33
 510 0012 BB60     		str	r3, [r7, #8]
 271:.\RFServerStack.c ****     while(preqplliterator->_requestcode != RF_MUX_NULL)
 511              		.loc 1 271 0
 512 0014 1EE0     		b	.L26
 513              	.L31:
 272:.\RFServerStack.c ****     {
 273:.\RFServerStack.c ****         if(preqplliterator->_requestcode == commandid)
 514              		.loc 1 273 0
 515 0016 BB68     		ldr	r3, [r7, #8]
 516 0018 1B78     		ldrb	r3, [r3]	@ zero_extendqisi2
 517 001a FA79     		ldrb	r2, [r7, #7]	@ zero_extendqisi2
 518 001c 9A42     		cmp	r2, r3
 519 001e 16D1     		bne	.L27
 274:.\RFServerStack.c ****         {
ARM GAS  C:\Users\RECEPC~1\AppData\Local\Temp\ccMyJoza.s 			page 15


 275:.\RFServerStack.c ****             if(preqplliterator->_requestpayloadsize > 0)
 520              		.loc 1 275 0
 521 0020 BB68     		ldr	r3, [r7, #8]
 522 0022 5B88     		ldrh	r3, [r3, #2]
 523 0024 002B     		cmp	r3, #0
 524 0026 07D0     		beq	.L28
 276:.\RFServerStack.c ****                 retval = pbuffer[preqplliterator->_requestpayloadsize - 1];
 525              		.loc 1 276 0
 526 0028 BB68     		ldr	r3, [r7, #8]
 527 002a 5B88     		ldrh	r3, [r3, #2]
 528 002c 013B     		subs	r3, r3, #1
 529 002e 3A68     		ldr	r2, [r7]
 530 0030 1344     		add	r3, r3, r2
 531 0032 1B78     		ldrb	r3, [r3]
 532 0034 FB73     		strb	r3, [r7, #15]
 277:.\RFServerStack.c ****             else
 278:.\RFServerStack.c ****                 retval = pbuffer[preqplliterator->_fpPayloadSizeResolver(pbuffer) - 1];
 279:.\RFServerStack.c **** 
 280:.\RFServerStack.c ****             break;
 533              		.loc 1 280 0
 534 0036 11E0     		b	.L30
 535              	.L28:
 278:.\RFServerStack.c **** 
 536              		.loc 1 278 0
 537 0038 BB68     		ldr	r3, [r7, #8]
 538 003a 5B68     		ldr	r3, [r3, #4]
 539 003c 3868     		ldr	r0, [r7]
 540 003e 9847     		blx	r3
 541 0040 0346     		mov	r3, r0
 542 0042 013B     		subs	r3, r3, #1
 543 0044 3A68     		ldr	r2, [r7]
 544 0046 1344     		add	r3, r3, r2
 545 0048 1B78     		ldrb	r3, [r3]
 546 004a FB73     		strb	r3, [r7, #15]
 547              		.loc 1 280 0
 548 004c 06E0     		b	.L30
 549              	.L27:
 281:.\RFServerStack.c ****         }
 282:.\RFServerStack.c ****         preqplliterator++;
 550              		.loc 1 282 0
 551 004e BB68     		ldr	r3, [r7, #8]
 552 0050 0833     		adds	r3, r3, #8
 553 0052 BB60     		str	r3, [r7, #8]
 554              	.L26:
 271:.\RFServerStack.c ****     {
 555              		.loc 1 271 0
 556 0054 BB68     		ldr	r3, [r7, #8]
 557 0056 1B78     		ldrb	r3, [r3]	@ zero_extendqisi2
 558 0058 FF2B     		cmp	r3, #255
 559 005a DCD1     		bne	.L31
 560              	.L30:
 283:.\RFServerStack.c ****     }
 284:.\RFServerStack.c ****     
 285:.\RFServerStack.c ****     return retval;
 561              		.loc 1 285 0
 562 005c FB7B     		ldrb	r3, [r7, #15]	@ zero_extendqisi2
 286:.\RFServerStack.c **** }
ARM GAS  C:\Users\RECEPC~1\AppData\Local\Temp\ccMyJoza.s 			page 16


 563              		.loc 1 286 0
 564 005e 1846     		mov	r0, r3
 565 0060 1037     		adds	r7, r7, #16
 566              		.cfi_def_cfa_offset 8
 567 0062 BD46     		mov	sp, r7
 568              		.cfi_def_cfa_register 13
 569              		@ sp needed
 570 0064 80BD     		pop	{r7, pc}
 571              	.L34:
 572 0066 00BF     		.align	2
 573              	.L33:
 574 0068 00000000 		.word	_g_rfreqpayloadmap
 575              		.cfi_endproc
 576              	.LFE3:
 577              		.size	RFGetCRC, .-RFGetCRC
 578              		.section	.text.RFUnmapCommand2State,"ax",%progbits
 579              		.align	2
 580              		.global	RFUnmapCommand2State
 581              		.thumb
 582              		.thumb_func
 583              		.type	RFUnmapCommand2State, %function
 584              	RFUnmapCommand2State:
 585              	.LFB4:
 287:.\RFServerStack.c **** 
 288:.\RFServerStack.c **** uint8 RFUnmapCommand2State(uint8 commandid)
 289:.\RFServerStack.c **** {
 586              		.loc 1 289 0
 587              		.cfi_startproc
 588              		@ args = 0, pretend = 0, frame = 16
 589              		@ frame_needed = 1, uses_anonymous_args = 0
 590              		@ link register save eliminated.
 591 0000 80B4     		push	{r7}
 592              		.cfi_def_cfa_offset 4
 593              		.cfi_offset 7, -4
 594 0002 85B0     		sub	sp, sp, #20
 595              		.cfi_def_cfa_offset 24
 596 0004 00AF     		add	r7, sp, #0
 597              		.cfi_def_cfa_register 7
 598 0006 0346     		mov	r3, r0
 599 0008 FB71     		strb	r3, [r7, #7]
 290:.\RFServerStack.c ****     uint8 retval = RF_MUX_NULL;
 600              		.loc 1 290 0
 601 000a FF23     		movs	r3, #255
 602 000c FB73     		strb	r3, [r7, #15]
 291:.\RFServerStack.c ****     PNEAR_RFCOMMANDSTATEMAPPTR ptr = &_g_rfcommandstatemap[0x00];
 603              		.loc 1 291 0
 604 000e 0D4B     		ldr	r3, .L41
 605 0010 BB60     		str	r3, [r7, #8]
 292:.\RFServerStack.c ****     while(ptr->_commandid != RF_MUX_NULL)
 606              		.loc 1 292 0
 607 0012 0BE0     		b	.L36
 608              	.L39:
 293:.\RFServerStack.c ****     {
 294:.\RFServerStack.c ****         if(ptr->_commandid == commandid)
 609              		.loc 1 294 0
 610 0014 BB68     		ldr	r3, [r7, #8]
 611 0016 5B78     		ldrb	r3, [r3, #1]	@ zero_extendqisi2
ARM GAS  C:\Users\RECEPC~1\AppData\Local\Temp\ccMyJoza.s 			page 17


 612 0018 FA79     		ldrb	r2, [r7, #7]	@ zero_extendqisi2
 613 001a 9A42     		cmp	r2, r3
 614 001c 03D1     		bne	.L37
 295:.\RFServerStack.c ****         {
 296:.\RFServerStack.c ****             retval = ptr->_stateid;
 615              		.loc 1 296 0
 616 001e BB68     		ldr	r3, [r7, #8]
 617 0020 1B78     		ldrb	r3, [r3]
 618 0022 FB73     		strb	r3, [r7, #15]
 297:.\RFServerStack.c ****             break;
 619              		.loc 1 297 0
 620 0024 06E0     		b	.L38
 621              	.L37:
 298:.\RFServerStack.c ****         }
 299:.\RFServerStack.c ****         
 300:.\RFServerStack.c ****         ptr++;
 622              		.loc 1 300 0
 623 0026 BB68     		ldr	r3, [r7, #8]
 624 0028 0233     		adds	r3, r3, #2
 625 002a BB60     		str	r3, [r7, #8]
 626              	.L36:
 292:.\RFServerStack.c ****     {
 627              		.loc 1 292 0
 628 002c BB68     		ldr	r3, [r7, #8]
 629 002e 5B78     		ldrb	r3, [r3, #1]	@ zero_extendqisi2
 630 0030 FF2B     		cmp	r3, #255
 631 0032 EFD1     		bne	.L39
 632              	.L38:
 301:.\RFServerStack.c ****     }
 302:.\RFServerStack.c ****     return retval;
 633              		.loc 1 302 0
 634 0034 FB7B     		ldrb	r3, [r7, #15]	@ zero_extendqisi2
 303:.\RFServerStack.c **** }
 635              		.loc 1 303 0
 636 0036 1846     		mov	r0, r3
 637 0038 1437     		adds	r7, r7, #20
 638              		.cfi_def_cfa_offset 4
 639 003a BD46     		mov	sp, r7
 640              		.cfi_def_cfa_register 13
 641              		@ sp needed
 642 003c 5DF8047B 		ldr	r7, [sp], #4
 643              		.cfi_restore 7
 644              		.cfi_def_cfa_offset 0
 645 0040 7047     		bx	lr
 646              	.L42:
 647 0042 00BF     		.align	2
 648              	.L41:
 649 0044 00000000 		.word	_g_rfcommandstatemap
 650              		.cfi_endproc
 651              	.LFE4:
 652              		.size	RFUnmapCommand2State, .-RFUnmapCommand2State
 653              		.text
 654              	.Letext0:
 655              		.file 2 "Generated_Source\\PSoC5/cytypes.h"
 656              		.file 3 ".\\GlobalDefinitions.h"
 657              		.file 4 ".\\RFLink.h"