ARM GAS  C:\Users\RECEPC~1\AppData\Local\Temp\cc5EIyCe.s 			page 1


   1              		.syntax unified
   2              		.cpu cortex-m3
   3              		.fpu softvfp
   4              		.eabi_attribute 20, 1
   5              		.eabi_attribute 21, 1
   6              		.eabi_attribute 23, 3
   7              		.eabi_attribute 24, 1
   8              		.eabi_attribute 25, 1
   9              		.eabi_attribute 26, 1
  10              		.eabi_attribute 30, 6
  11              		.eabi_attribute 34, 1
  12              		.eabi_attribute 18, 4
  13              		.thumb
  14              		.file	"RFServerStackImpl.c"
  15              		.text
  16              	.Ltext0:
  17              		.cfi_sections	.debug_frame
  18              		.global	_g_rfslaveheader
  19              		.data
  20              		.align	2
  21              		.type	_g_rfslaveheader, %object
  22              		.size	_g_rfslaveheader, 3
  23              	_g_rfslaveheader:
  24 0000 BC       		.byte	-68
  25 0001 CB       		.byte	-53
  26 0002 C8       		.byte	-56
  27              		.global	_g_rfmasterheader
  28 0003 00       		.align	2
  29              		.type	_g_rfmasterheader, %object
  30              		.size	_g_rfmasterheader, 3
  31              	_g_rfmasterheader:
  32 0004 BC       		.byte	-68
  33 0005 BB       		.byte	-69
  34 0006 B8       		.byte	-72
  35              		.global	_g_rfmasterfooter
  36 0007 00       		.align	2
  37              		.type	_g_rfmasterfooter, %object
  38              		.size	_g_rfmasterfooter, 3
  39              	_g_rfmasterfooter:
  40 0008 AA       		.byte	-86
  41 0009 BB       		.byte	-69
  42 000a CC       		.byte	-52
  43 000b 00       		.section	.text.RFStateReqResp,"ax",%progbits
  44              		.align	2
  45              		.global	RFStateReqResp
  46              		.thumb
  47              		.thumb_func
  48              		.type	RFStateReqResp, %function
  49              	RFStateReqResp:
  50              	.LFB63:
  51              		.file 1 ".\\RFServerStackImpl.c"
   1:.\RFServerStackImpl.c **** /* ========================================
   2:.\RFServerStackImpl.c ****  *
   3:.\RFServerStackImpl.c ****  * Copyright INSEPET SISTEMAS, 2016
   4:.\RFServerStackImpl.c ****  * All Rights Reserved
   5:.\RFServerStackImpl.c ****  * UNPUBLISHED, LICENSED SOFTWARE.
   6:.\RFServerStackImpl.c ****  *
ARM GAS  C:\Users\RECEPC~1\AppData\Local\Temp\cc5EIyCe.s 			page 2


   7:.\RFServerStackImpl.c ****  * CONFIDENTIAL AND PROPRIETARY INFORMATION
   8:.\RFServerStackImpl.c ****  * WHICH IS THE PROPERTY OF SISTEMAS INSEPET.
   9:.\RFServerStackImpl.c ****  *
  10:.\RFServerStackImpl.c ****  * ========================================
  11:.\RFServerStackImpl.c **** @Created By: HIJH
  12:.\RFServerStackImpl.c **** @Date: Septembre de 2016
  13:.\RFServerStackImpl.c **** */
  14:.\RFServerStackImpl.c **** #include <project.h>
  15:.\RFServerStackImpl.c **** #include "Configuration.h"
  16:.\RFServerStackImpl.c **** #include "GlobalDefinitions.h"
  17:.\RFServerStackImpl.c **** #include "UARTManager.h"
  18:.\RFServerStackImpl.c **** #include "SinkManager.h"
  19:.\RFServerStackImpl.c **** #include "SinkObservables.h"
  20:.\RFServerStackImpl.c **** #include "Dispenser.h"
  21:.\RFServerStackImpl.c **** #include "Display.h"
  22:.\RFServerStackImpl.c **** #include "RFLink.h"
  23:.\RFServerStackImpl.c **** #include "Printer.h"
  24:.\RFServerStackImpl.c **** #include "Eeprom.h"
  25:.\RFServerStackImpl.c **** #include "Rtc.h"
  26:.\RFServerStackImpl.c **** 
  27:.\RFServerStackImpl.c **** //@Created By: HIJH
  28:.\RFServerStackImpl.c **** //@Septembre de 2016
  29:.\RFServerStackImpl.c **** //This is the header that must be included in the response stream
  30:.\RFServerStackImpl.c **** uint8 _g_rfslaveheader[] = { 0xbc, 0xcb, 0xc8 };
  31:.\RFServerStackImpl.c **** uint8 _g_rfmasterheader[] = { 0xbc, 0xbb, 0xb8 };
  32:.\RFServerStackImpl.c **** uint8 _g_rfmasterfooter[] = { 0xaa, 0xbb, 0xcc };
  33:.\RFServerStackImpl.c **** 
  34:.\RFServerStackImpl.c **** void RFSpeedReport(uint8 command, uint8 position);
  35:.\RFServerStackImpl.c **** 
  36:.\RFServerStackImpl.c **** bool RFStateReqResp(void *pparam)
  37:.\RFServerStackImpl.c **** {
  52              		.loc 1 37 0
  53              		.cfi_startproc
  54              		@ args = 0, pretend = 0, frame = 40
  55              		@ frame_needed = 1, uses_anonymous_args = 0
  56 0000 90B5     		push	{r4, r7, lr}
  57              		.cfi_def_cfa_offset 12
  58              		.cfi_offset 4, -12
  59              		.cfi_offset 7, -8
  60              		.cfi_offset 14, -4
  61 0002 8BB0     		sub	sp, sp, #44
  62              		.cfi_def_cfa_offset 56
  63 0004 00AF     		add	r7, sp, #0
  64              		.cfi_def_cfa_register 7
  65 0006 7860     		str	r0, [r7, #4]
  38:.\RFServerStackImpl.c ****     bool retval = false;
  66              		.loc 1 38 0
  67 0008 0023     		movs	r3, #0
  68 000a 87F82730 		strb	r3, [r7, #39]
  39:.\RFServerStackImpl.c ****     PSINKMESSAGEPTR pmsg = (PSINKMESSAGEPTR)pparam;
  69              		.loc 1 39 0
  70 000e 7B68     		ldr	r3, [r7, #4]
  71 0010 3B62     		str	r3, [r7, #32]
  40:.\RFServerStackImpl.c ****     if(pmsg)
  72              		.loc 1 40 0
  73 0012 3B6A     		ldr	r3, [r7, #32]
  74 0014 002B     		cmp	r3, #0
ARM GAS  C:\Users\RECEPC~1\AppData\Local\Temp\cc5EIyCe.s 			page 3


  75 0016 00F0D081 		beq	.L2
  76              	.LBB2:
  41:.\RFServerStackImpl.c ****     {
  42:.\RFServerStackImpl.c ****         //Checking the CRC first to proceed
  43:.\RFServerStackImpl.c ****         //CRC must be located at this position for this message (See the protocol description file)
  44:.\RFServerStackImpl.c ****         uint8 crc = RawCRCCheck(pmsg->_buffer, pmsg->_buffersize - 1);
  77              		.loc 1 44 0
  78 001a 3B6A     		ldr	r3, [r7, #32]
  79 001c 03F10C02 		add	r2, r3, #12
  80 0020 3B6A     		ldr	r3, [r7, #32]
  81 0022 B3F88C31 		ldrh	r3, [r3, #396]	@ movhi
  82 0026 9BB2     		uxth	r3, r3
  83 0028 013B     		subs	r3, r3, #1
  84 002a 9BB2     		uxth	r3, r3
  85 002c 1046     		mov	r0, r2
  86 002e 1946     		mov	r1, r3
  87 0030 FFF7FEFF 		bl	RawCRCCheck
  88 0034 0346     		mov	r3, r0
  89 0036 FB77     		strb	r3, [r7, #31]
  45:.\RFServerStackImpl.c ****         if(crc != RFGetCRC(pmsg->_buffer[_RF_STREAM_COMMAND_INDEX_], PBYTECAST(pmsg->_buffer)))//If
  90              		.loc 1 45 0
  91 0038 3B6A     		ldr	r3, [r7, #32]
  92 003a 9A7C     		ldrb	r2, [r3, #18]	@ zero_extendqisi2
  93 003c 3B6A     		ldr	r3, [r7, #32]
  94 003e 0C33     		adds	r3, r3, #12
  95 0040 1046     		mov	r0, r2
  96 0042 1946     		mov	r1, r3
  97 0044 FFF7FEFF 		bl	RFGetCRC
  98 0048 0346     		mov	r3, r0
  99 004a 1A46     		mov	r2, r3
 100 004c FB7F     		ldrb	r3, [r7, #31]	@ zero_extendqisi2
 101 004e 9342     		cmp	r3, r2
 102 0050 00F08580 		beq	.L3
 103              	.LBB3:
  46:.\RFServerStackImpl.c ****         {
  47:.\RFServerStackImpl.c ****             PUARTMESSAGEPTR puartdisp = GetUARTMessageSlot(UART_RF);
 104              		.loc 1 47 0
 105 0054 A020     		movs	r0, #160
 106 0056 FFF7FEFF 		bl	GetUARTMessageSlot
 107 005a B861     		str	r0, [r7, #24]
  48:.\RFServerStackImpl.c ****             if(puartdisp)
 108              		.loc 1 48 0
 109 005c BB69     		ldr	r3, [r7, #24]
 110 005e 002B     		cmp	r3, #0
 111 0060 7AD0     		beq	.L4
  49:.\RFServerStackImpl.c ****             {
  50:.\RFServerStackImpl.c ****                 puartdisp->_messagelength = 0;
 112              		.loc 1 50 0
 113 0062 BB69     		ldr	r3, [r7, #24]
 114 0064 0022     		movs	r2, #0
 115 0066 5A80     		strh	r2, [r3, #2]	@ movhi
  51:.\RFServerStackImpl.c ****                 memset(puartdisp->_messagetx, 0x00, sizeof(puartdisp->_messagetx));
 116              		.loc 1 51 0
 117 0068 BB69     		ldr	r3, [r7, #24]
 118 006a 0433     		adds	r3, r3, #4
 119 006c 1846     		mov	r0, r3
 120 006e 0021     		movs	r1, #0
ARM GAS  C:\Users\RECEPC~1\AppData\Local\Temp\cc5EIyCe.s 			page 4


 121 0070 4FF48072 		mov	r2, #256
 122 0074 FFF7FEFF 		bl	memset
  52:.\RFServerStackImpl.c ****                 memcpy(puartdisp->_messagetx, _g_rfslaveheader, 0x03); //Explicit buffer length to 
 123              		.loc 1 52 0
 124 0078 BB69     		ldr	r3, [r7, #24]
 125 007a 0433     		adds	r3, r3, #4
 126 007c 7D4A     		ldr	r2, .L14
 127 007e 1188     		ldrh	r1, [r2]	@ unaligned
 128 0080 9278     		ldrb	r2, [r2, #2]
 129 0082 1980     		strh	r1, [r3]	@ unaligned
 130 0084 9A70     		strb	r2, [r3, #2]
  53:.\RFServerStackImpl.c ****                 puartdisp->_messagelength += 0x03;
 131              		.loc 1 53 0
 132 0086 BB69     		ldr	r3, [r7, #24]
 133 0088 5B88     		ldrh	r3, [r3, #2]	@ movhi
 134 008a 9BB2     		uxth	r3, r3
 135 008c 0333     		adds	r3, r3, #3
 136 008e 9AB2     		uxth	r2, r3
 137 0090 BB69     		ldr	r3, [r7, #24]
 138 0092 5A80     		strh	r2, [r3, #2]	@ movhi
  54:.\RFServerStackImpl.c ****                 puartdisp->_messagetx[puartdisp->_messagelength++] = (uint8)(_g_stationidentifier &
 139              		.loc 1 54 0
 140 0094 BB69     		ldr	r3, [r7, #24]
 141 0096 5B88     		ldrh	r3, [r3, #2]	@ movhi
 142 0098 9BB2     		uxth	r3, r3
 143 009a 5A1C     		adds	r2, r3, #1
 144 009c 91B2     		uxth	r1, r2
 145 009e BA69     		ldr	r2, [r7, #24]
 146 00a0 5180     		strh	r1, [r2, #2]	@ movhi
 147 00a2 1946     		mov	r1, r3
 148 00a4 744B     		ldr	r3, .L14+4
 149 00a6 1B88     		ldrh	r3, [r3]
 150 00a8 DAB2     		uxtb	r2, r3
 151 00aa BB69     		ldr	r3, [r7, #24]
 152 00ac 0B44     		add	r3, r3, r1
 153 00ae 1A71     		strb	r2, [r3, #4]
  55:.\RFServerStackImpl.c ****                 puartdisp->_messagetx[puartdisp->_messagelength++] = (uint8)((_g_stationidentifier 
 154              		.loc 1 55 0
 155 00b0 BB69     		ldr	r3, [r7, #24]
 156 00b2 5B88     		ldrh	r3, [r3, #2]	@ movhi
 157 00b4 9BB2     		uxth	r3, r3
 158 00b6 5A1C     		adds	r2, r3, #1
 159 00b8 91B2     		uxth	r1, r2
 160 00ba BA69     		ldr	r2, [r7, #24]
 161 00bc 5180     		strh	r1, [r2, #2]	@ movhi
 162 00be 1946     		mov	r1, r3
 163 00c0 6D4B     		ldr	r3, .L14+4
 164 00c2 1B88     		ldrh	r3, [r3]
 165 00c4 1B0A     		lsrs	r3, r3, #8
 166 00c6 9BB2     		uxth	r3, r3
 167 00c8 DAB2     		uxtb	r2, r3
 168 00ca BB69     		ldr	r3, [r7, #24]
 169 00cc 0B44     		add	r3, r3, r1
 170 00ce 1A71     		strb	r2, [r3, #4]
  56:.\RFServerStackImpl.c ****                 puartdisp->_messagetx[puartdisp->_messagelength++] = pmsg->_buffer[_RF_STREAM_POSIT
 171              		.loc 1 56 0
 172 00d0 BB69     		ldr	r3, [r7, #24]
ARM GAS  C:\Users\RECEPC~1\AppData\Local\Temp\cc5EIyCe.s 			page 5


 173 00d2 5B88     		ldrh	r3, [r3, #2]	@ movhi
 174 00d4 9BB2     		uxth	r3, r3
 175 00d6 5A1C     		adds	r2, r3, #1
 176 00d8 91B2     		uxth	r1, r2
 177 00da BA69     		ldr	r2, [r7, #24]
 178 00dc 5180     		strh	r1, [r2, #2]	@ movhi
 179 00de 1946     		mov	r1, r3
 180 00e0 3B6A     		ldr	r3, [r7, #32]
 181 00e2 5A7C     		ldrb	r2, [r3, #17]	@ zero_extendqisi2
 182 00e4 BB69     		ldr	r3, [r7, #24]
 183 00e6 0B44     		add	r3, r3, r1
 184 00e8 1A71     		strb	r2, [r3, #4]
  57:.\RFServerStackImpl.c ****                 puartdisp->_messagetx[puartdisp->_messagelength++] = pmsg->_buffer[_RF_STREAM_COMMA
 185              		.loc 1 57 0
 186 00ea BB69     		ldr	r3, [r7, #24]
 187 00ec 5B88     		ldrh	r3, [r3, #2]	@ movhi
 188 00ee 9BB2     		uxth	r3, r3
 189 00f0 5A1C     		adds	r2, r3, #1
 190 00f2 91B2     		uxth	r1, r2
 191 00f4 BA69     		ldr	r2, [r7, #24]
 192 00f6 5180     		strh	r1, [r2, #2]	@ movhi
 193 00f8 1946     		mov	r1, r3
 194 00fa 3B6A     		ldr	r3, [r7, #32]
 195 00fc 9A7C     		ldrb	r2, [r3, #18]	@ zero_extendqisi2
 196 00fe BB69     		ldr	r3, [r7, #24]
 197 0100 0B44     		add	r3, r3, r1
 198 0102 1A71     		strb	r2, [r3, #4]
  58:.\RFServerStackImpl.c ****                 puartdisp->_messagetx[puartdisp->_messagelength++] = _RF_NACK_;
 199              		.loc 1 58 0
 200 0104 BB69     		ldr	r3, [r7, #24]
 201 0106 5B88     		ldrh	r3, [r3, #2]	@ movhi
 202 0108 9BB2     		uxth	r3, r3
 203 010a 5A1C     		adds	r2, r3, #1
 204 010c 91B2     		uxth	r1, r2
 205 010e BA69     		ldr	r2, [r7, #24]
 206 0110 5180     		strh	r1, [r2, #2]	@ movhi
 207 0112 1A46     		mov	r2, r3
 208 0114 BB69     		ldr	r3, [r7, #24]
 209 0116 1344     		add	r3, r3, r2
 210 0118 0422     		movs	r2, #4
 211 011a 1A71     		strb	r2, [r3, #4]
  59:.\RFServerStackImpl.c ****                 puartdisp->_messagetx[puartdisp->_messagelength] = RawCRCCheck((PSTR)puartdisp->_me
 212              		.loc 1 59 0
 213 011c BB69     		ldr	r3, [r7, #24]
 214 011e 5B88     		ldrh	r3, [r3, #2]	@ movhi
 215 0120 9BB2     		uxth	r3, r3
 216 0122 1C46     		mov	r4, r3
 217 0124 BB69     		ldr	r3, [r7, #24]
 218 0126 1A1D     		adds	r2, r3, #4
 219 0128 BB69     		ldr	r3, [r7, #24]
 220 012a 5B88     		ldrh	r3, [r3, #2]	@ movhi
 221 012c 9BB2     		uxth	r3, r3
 222 012e 013B     		subs	r3, r3, #1
 223 0130 9BB2     		uxth	r3, r3
 224 0132 1046     		mov	r0, r2
 225 0134 1946     		mov	r1, r3
 226 0136 FFF7FEFF 		bl	RawCRCCheck
ARM GAS  C:\Users\RECEPC~1\AppData\Local\Temp\cc5EIyCe.s 			page 6


 227 013a 0346     		mov	r3, r0
 228 013c 1A46     		mov	r2, r3
 229 013e BB69     		ldr	r3, [r7, #24]
 230 0140 2344     		add	r3, r3, r4
 231 0142 1A71     		strb	r2, [r3, #4]
  60:.\RFServerStackImpl.c ****                 puartdisp->_messagelength++;
 232              		.loc 1 60 0
 233 0144 BB69     		ldr	r3, [r7, #24]
 234 0146 5B88     		ldrh	r3, [r3, #2]	@ movhi
 235 0148 9BB2     		uxth	r3, r3
 236 014a 0133     		adds	r3, r3, #1
 237 014c 9AB2     		uxth	r2, r3
 238 014e BB69     		ldr	r3, [r7, #24]
 239 0150 5A80     		strh	r2, [r3, #2]	@ movhi
  61:.\RFServerStackImpl.c **** 
  62:.\RFServerStackImpl.c ****                 puartdisp->_messagestate = PENDING;
 240              		.loc 1 62 0
 241 0152 BB69     		ldr	r3, [r7, #24]
 242 0154 C222     		movs	r2, #194
 243 0156 1A70     		strb	r2, [r3]
 244              	.L4:
  63:.\RFServerStackImpl.c ****             }
  64:.\RFServerStackImpl.c ****             return retval;
 245              		.loc 1 64 0
 246 0158 97F82730 		ldrb	r3, [r7, #39]	@ zero_extendqisi2
 247 015c 2FE1     		b	.L5
 248              	.L3:
 249              	.LBE3:
  65:.\RFServerStackImpl.c ****         }
  66:.\RFServerStackImpl.c ****         
  67:.\RFServerStackImpl.c ****         FOR(uint8 index = 0x00, index < _g_dispenserlayoutinfo._numpositions, index++)
 250              		.loc 1 67 0
 251 015e 0023     		movs	r3, #0
 252 0160 87F82630 		strb	r3, [r7, #38]
 253 0164 22E1     		b	.L6
 254              	.L13:
  68:.\RFServerStackImpl.c ****         {
  69:.\RFServerStackImpl.c ****             if(_g_pumps[index]._pumpid == (pmsg->_buffer[_RF_STREAM_POSITION_INDEX_] - _g_dispenser
 255              		.loc 1 69 0
 256 0166 97F82630 		ldrb	r3, [r7, #38]	@ zero_extendqisi2
 257 016a 444A     		ldr	r2, .L14+8
 258 016c 4FF41961 		mov	r1, #2448
 259 0170 01FB03F3 		mul	r3, r1, r3
 260 0174 1344     		add	r3, r3, r2
 261 0176 1B78     		ldrb	r3, [r3]	@ zero_extendqisi2
 262 0178 1A46     		mov	r2, r3
 263 017a 3B6A     		ldr	r3, [r7, #32]
 264 017c 5B7C     		ldrb	r3, [r3, #17]	@ zero_extendqisi2
 265 017e 1946     		mov	r1, r3
 266 0180 3F4B     		ldr	r3, .L14+12
 267 0182 9B7C     		ldrb	r3, [r3, #18]	@ zero_extendqisi2
 268 0184 CB1A     		subs	r3, r1, r3
 269 0186 9A42     		cmp	r2, r3
 270 0188 40F00B81 		bne	.L7
 271              	.LBB4:
  70:.\RFServerStackImpl.c ****             {
  71:.\RFServerStackImpl.c ****                 _g_pumps[index].PumpTransQueueLock(&_g_pumps[index]);
ARM GAS  C:\Users\RECEPC~1\AppData\Local\Temp\cc5EIyCe.s 			page 7


 272              		.loc 1 71 0
 273 018c 97F82630 		ldrb	r3, [r7, #38]	@ zero_extendqisi2
 274 0190 3A4A     		ldr	r2, .L14+8
 275 0192 4FF41961 		mov	r1, #2448
 276 0196 01FB03F3 		mul	r3, r1, r3
 277 019a 1344     		add	r3, r3, r2
 278 019c 03F60813 		addw	r3, r3, #2312
 279 01a0 5B68     		ldr	r3, [r3, #4]
 280 01a2 97F82620 		ldrb	r2, [r7, #38]	@ zero_extendqisi2
 281 01a6 4FF41961 		mov	r1, #2448
 282 01aa 01FB02F2 		mul	r2, r1, r2
 283 01ae 3349     		ldr	r1, .L14+8
 284 01b0 0A44     		add	r2, r2, r1
 285 01b2 1046     		mov	r0, r2
 286 01b4 9847     		blx	r3
  72:.\RFServerStackImpl.c ****                 //We always pick the top most item of the Pump's Transactional Queue
  73:.\RFServerStackImpl.c ****                 PNEAR_PUMPTRANSACTIONALSTATEPTR pumptrans = _g_pumps[index].PumpTransQueueDequeue(&
 287              		.loc 1 73 0
 288 01b6 97F82630 		ldrb	r3, [r7, #38]	@ zero_extendqisi2
 289 01ba 304A     		ldr	r2, .L14+8
 290 01bc 4FF41961 		mov	r1, #2448
 291 01c0 01FB03F3 		mul	r3, r1, r3
 292 01c4 1344     		add	r3, r3, r2
 293 01c6 03F51263 		add	r3, r3, #2336
 294 01ca 5B68     		ldr	r3, [r3, #4]
 295 01cc 97F82620 		ldrb	r2, [r7, #38]	@ zero_extendqisi2
 296 01d0 4FF41961 		mov	r1, #2448
 297 01d4 01FB02F2 		mul	r2, r1, r2
 298 01d8 2849     		ldr	r1, .L14+8
 299 01da 0A44     		add	r2, r2, r1
 300 01dc 1046     		mov	r0, r2
 301 01de 9847     		blx	r3
 302 01e0 7861     		str	r0, [r7, #20]
  74:.\RFServerStackImpl.c ****                 _g_pumps[index].PumpTransQueueUnlock(&_g_pumps[index]);
 303              		.loc 1 74 0
 304 01e2 97F82630 		ldrb	r3, [r7, #38]	@ zero_extendqisi2
 305 01e6 254A     		ldr	r2, .L14+8
 306 01e8 4FF41961 		mov	r1, #2448
 307 01ec 01FB03F3 		mul	r3, r1, r3
 308 01f0 1344     		add	r3, r3, r2
 309 01f2 03F51163 		add	r3, r3, #2320
 310 01f6 1B68     		ldr	r3, [r3]
 311 01f8 97F82620 		ldrb	r2, [r7, #38]	@ zero_extendqisi2
 312 01fc 4FF41961 		mov	r1, #2448
 313 0200 01FB02F2 		mul	r2, r1, r2
 314 0204 1D49     		ldr	r1, .L14+8
 315 0206 0A44     		add	r2, r2, r1
 316 0208 1046     		mov	r0, r2
 317 020a 9847     		blx	r3
  75:.\RFServerStackImpl.c ****                                 
  76:.\RFServerStackImpl.c ****                 PNEAR_REQRESPTR ptreqresiterator =  GetRFRequestResolver(pumptrans->_transtate);
 318              		.loc 1 76 0
 319 020c 7B69     		ldr	r3, [r7, #20]
 320 020e 5B78     		ldrb	r3, [r3, #1]	@ zero_extendqisi2
 321 0210 1846     		mov	r0, r3
 322 0212 FFF7FEFF 		bl	GetRFRequestResolver
 323 0216 3861     		str	r0, [r7, #16]
ARM GAS  C:\Users\RECEPC~1\AppData\Local\Temp\cc5EIyCe.s 			page 8


  77:.\RFServerStackImpl.c ****                 if(ptreqresiterator)
 324              		.loc 1 77 0
 325 0218 3B69     		ldr	r3, [r7, #16]
 326 021a 002B     		cmp	r3, #0
 327 021c 32D0     		beq	.L8
 328              	.LBB5:
  78:.\RFServerStackImpl.c ****                 {
  79:.\RFServerStackImpl.c ****                     uint8 unmappedcmd = RFUnmapCommand2State(pumptrans->_transtate);
 329              		.loc 1 79 0
 330 021e 7B69     		ldr	r3, [r7, #20]
 331 0220 5B78     		ldrb	r3, [r3, #1]	@ zero_extendqisi2
 332 0222 1846     		mov	r0, r3
 333 0224 FFF7FEFF 		bl	RFUnmapCommand2State
 334 0228 0346     		mov	r3, r0
 335 022a FB73     		strb	r3, [r7, #15]
  80:.\RFServerStackImpl.c ****                     if(unmappedcmd != RF_MUX_NULL)
 336              		.loc 1 80 0
 337 022c FB7B     		ldrb	r3, [r7, #15]	@ zero_extendqisi2
 338 022e FF2B     		cmp	r3, #255
 339 0230 0AD0     		beq	.L9
  81:.\RFServerStackImpl.c ****                         _g_pumps[index]._pumprftransstate = unmappedcmd;
 340              		.loc 1 81 0
 341 0232 97F82630 		ldrb	r3, [r7, #38]	@ zero_extendqisi2
 342 0236 114A     		ldr	r2, .L14+8
 343 0238 4FF41961 		mov	r1, #2448
 344 023c 01FB03F3 		mul	r3, r1, r3
 345 0240 1344     		add	r3, r3, r2
 346 0242 0833     		adds	r3, r3, #8
 347 0244 FA7B     		ldrb	r2, [r7, #15]
 348 0246 9A71     		strb	r2, [r3, #6]
 349              	.L9:
  82:.\RFServerStackImpl.c **** 
  83:.\RFServerStackImpl.c ****                     //Here we attempt to resolve the request and dispatch the predefined response
  84:.\RFServerStackImpl.c ****                     //In case of any error (asserted as false), the error function pointer will be 
  85:.\RFServerStackImpl.c ****                     if(!ptreqresiterator->_prequestresponse(pmsg))
 350              		.loc 1 85 0
 351 0248 3B69     		ldr	r3, [r7, #16]
 352 024a 5B68     		ldr	r3, [r3, #4]
 353 024c 386A     		ldr	r0, [r7, #32]
 354 024e 9847     		blx	r3
 355 0250 0346     		mov	r3, r0
 356 0252 83F00103 		eor	r3, r3, #1
 357 0256 DBB2     		uxtb	r3, r3
 358 0258 002B     		cmp	r3, #0
 359 025a 07D0     		beq	.L10
  86:.\RFServerStackImpl.c ****                         if(ptreqresiterator->_perror)
 360              		.loc 1 86 0
 361 025c 3B69     		ldr	r3, [r7, #16]
 362 025e 9B68     		ldr	r3, [r3, #8]
 363 0260 002B     		cmp	r3, #0
 364 0262 03D0     		beq	.L10
  87:.\RFServerStackImpl.c ****                             ptreqresiterator->_perror(pmsg);
 365              		.loc 1 87 0
 366 0264 3B69     		ldr	r3, [r7, #16]
 367 0266 9B68     		ldr	r3, [r3, #8]
 368 0268 386A     		ldr	r0, [r7, #32]
 369 026a 9847     		blx	r3
ARM GAS  C:\Users\RECEPC~1\AppData\Local\Temp\cc5EIyCe.s 			page 9


 370              	.L10:
  88:.\RFServerStackImpl.c ****                             
  89:.\RFServerStackImpl.c ****                     retval = true;
 371              		.loc 1 89 0
 372 026c 0123     		movs	r3, #1
 373 026e 87F82730 		strb	r3, [r7, #39]
 374              	.LBE5:
  90:.\RFServerStackImpl.c ****                 }
  91:.\RFServerStackImpl.c ****                 else
  92:.\RFServerStackImpl.c ****                 {
  93:.\RFServerStackImpl.c ****                     //If there wasn't any pending transactional state in the pointed pump position,
  94:.\RFServerStackImpl.c ****                     //return the Ack response in IDLE state
  95:.\RFServerStackImpl.c ****                     PUARTMESSAGEPTR puartdisp = GetUARTMessageSlot(UART_RF);
  96:.\RFServerStackImpl.c ****                     if(puartdisp)
  97:.\RFServerStackImpl.c ****                     {
  98:.\RFServerStackImpl.c ****                         puartdisp->_messagelength = 0;
  99:.\RFServerStackImpl.c ****                         memset(puartdisp->_messagetx, 0x00, sizeof(puartdisp->_messagetx));
 100:.\RFServerStackImpl.c ****                         memcpy(puartdisp->_messagetx, _g_rfslaveheader, 0x03); //Explicit buffer le
 101:.\RFServerStackImpl.c ****                         puartdisp->_messagelength += 0x03;
 102:.\RFServerStackImpl.c ****                         puartdisp->_messagetx[puartdisp->_messagelength++] = (uint8)(_g_stationiden
 103:.\RFServerStackImpl.c ****                         puartdisp->_messagetx[puartdisp->_messagelength++] = (uint8)((_g_stationide
 104:.\RFServerStackImpl.c ****                         puartdisp->_messagetx[puartdisp->_messagelength++] = pmsg->_buffer[_RF_STRE
 105:.\RFServerStackImpl.c ****                         puartdisp->_messagetx[puartdisp->_messagelength++] = pmsg->_buffer[_RF_STRE
 106:.\RFServerStackImpl.c ****                         puartdisp->_messagetx[puartdisp->_messagelength++] = _g_pumps[index]._pumpr
 107:.\RFServerStackImpl.c ****                         
 108:.\RFServerStackImpl.c ****                         puartdisp->_messagetx[puartdisp->_messagelength] = RawCRCCheck((PSTR)puartd
 109:.\RFServerStackImpl.c ****                         puartdisp->_messagelength++;
 110:.\RFServerStackImpl.c ****                         
 111:.\RFServerStackImpl.c ****                         puartdisp->_messagestate = PENDING;
 112:.\RFServerStackImpl.c ****                     }
 113:.\RFServerStackImpl.c ****                     retval = true;
 114:.\RFServerStackImpl.c ****                 }
 115:.\RFServerStackImpl.c ****                 break;
 375              		.loc 1 115 0
 376 0272 A2E0     		b	.L2
 377              	.L15:
 378              		.align	2
 379              	.L14:
 380 0274 00000000 		.word	_g_rfslaveheader
 381 0278 00000000 		.word	_g_stationidentifier
 382 027c 00000000 		.word	_g_pumps
 383 0280 00000000 		.word	_g_dispenserlayoutinfo
 384              	.L8:
 385              	.LBB6:
  95:.\RFServerStackImpl.c ****                     if(puartdisp)
 386              		.loc 1 95 0
 387 0284 A020     		movs	r0, #160
 388 0286 FFF7FEFF 		bl	GetUARTMessageSlot
 389 028a B860     		str	r0, [r7, #8]
  96:.\RFServerStackImpl.c ****                     {
 390              		.loc 1 96 0
 391 028c BB68     		ldr	r3, [r7, #8]
 392 028e 002B     		cmp	r3, #0
 393 0290 00F08380 		beq	.L12
  98:.\RFServerStackImpl.c ****                         memset(puartdisp->_messagetx, 0x00, sizeof(puartdisp->_messagetx));
 394              		.loc 1 98 0
 395 0294 BB68     		ldr	r3, [r7, #8]
ARM GAS  C:\Users\RECEPC~1\AppData\Local\Temp\cc5EIyCe.s 			page 10


 396 0296 0022     		movs	r2, #0
 397 0298 5A80     		strh	r2, [r3, #2]	@ movhi
  99:.\RFServerStackImpl.c ****                         memcpy(puartdisp->_messagetx, _g_rfslaveheader, 0x03); //Explicit buffer le
 398              		.loc 1 99 0
 399 029a BB68     		ldr	r3, [r7, #8]
 400 029c 0433     		adds	r3, r3, #4
 401 029e 1846     		mov	r0, r3
 402 02a0 0021     		movs	r1, #0
 403 02a2 4FF48072 		mov	r2, #256
 404 02a6 FFF7FEFF 		bl	memset
 100:.\RFServerStackImpl.c ****                         puartdisp->_messagelength += 0x03;
 405              		.loc 1 100 0
 406 02aa BB68     		ldr	r3, [r7, #8]
 407 02ac 0433     		adds	r3, r3, #4
 408 02ae 464A     		ldr	r2, .L16
 409 02b0 1188     		ldrh	r1, [r2]	@ unaligned
 410 02b2 9278     		ldrb	r2, [r2, #2]
 411 02b4 1980     		strh	r1, [r3]	@ unaligned
 412 02b6 9A70     		strb	r2, [r3, #2]
 101:.\RFServerStackImpl.c ****                         puartdisp->_messagetx[puartdisp->_messagelength++] = (uint8)(_g_stationiden
 413              		.loc 1 101 0
 414 02b8 BB68     		ldr	r3, [r7, #8]
 415 02ba 5B88     		ldrh	r3, [r3, #2]	@ movhi
 416 02bc 9BB2     		uxth	r3, r3
 417 02be 0333     		adds	r3, r3, #3
 418 02c0 9AB2     		uxth	r2, r3
 419 02c2 BB68     		ldr	r3, [r7, #8]
 420 02c4 5A80     		strh	r2, [r3, #2]	@ movhi
 102:.\RFServerStackImpl.c ****                         puartdisp->_messagetx[puartdisp->_messagelength++] = (uint8)((_g_stationide
 421              		.loc 1 102 0
 422 02c6 BB68     		ldr	r3, [r7, #8]
 423 02c8 5B88     		ldrh	r3, [r3, #2]	@ movhi
 424 02ca 9BB2     		uxth	r3, r3
 425 02cc 5A1C     		adds	r2, r3, #1
 426 02ce 91B2     		uxth	r1, r2
 427 02d0 BA68     		ldr	r2, [r7, #8]
 428 02d2 5180     		strh	r1, [r2, #2]	@ movhi
 429 02d4 1946     		mov	r1, r3
 430 02d6 3D4B     		ldr	r3, .L16+4
 431 02d8 1B88     		ldrh	r3, [r3]
 432 02da DAB2     		uxtb	r2, r3
 433 02dc BB68     		ldr	r3, [r7, #8]
 434 02de 0B44     		add	r3, r3, r1
 435 02e0 1A71     		strb	r2, [r3, #4]
 103:.\RFServerStackImpl.c ****                         puartdisp->_messagetx[puartdisp->_messagelength++] = pmsg->_buffer[_RF_STRE
 436              		.loc 1 103 0
 437 02e2 BB68     		ldr	r3, [r7, #8]
 438 02e4 5B88     		ldrh	r3, [r3, #2]	@ movhi
 439 02e6 9BB2     		uxth	r3, r3
 440 02e8 5A1C     		adds	r2, r3, #1
 441 02ea 91B2     		uxth	r1, r2
 442 02ec BA68     		ldr	r2, [r7, #8]
 443 02ee 5180     		strh	r1, [r2, #2]	@ movhi
 444 02f0 1946     		mov	r1, r3
 445 02f2 364B     		ldr	r3, .L16+4
 446 02f4 1B88     		ldrh	r3, [r3]
 447 02f6 1B0A     		lsrs	r3, r3, #8
ARM GAS  C:\Users\RECEPC~1\AppData\Local\Temp\cc5EIyCe.s 			page 11


 448 02f8 9BB2     		uxth	r3, r3
 449 02fa DAB2     		uxtb	r2, r3
 450 02fc BB68     		ldr	r3, [r7, #8]
 451 02fe 0B44     		add	r3, r3, r1
 452 0300 1A71     		strb	r2, [r3, #4]
 104:.\RFServerStackImpl.c ****                         puartdisp->_messagetx[puartdisp->_messagelength++] = pmsg->_buffer[_RF_STRE
 453              		.loc 1 104 0
 454 0302 BB68     		ldr	r3, [r7, #8]
 455 0304 5B88     		ldrh	r3, [r3, #2]	@ movhi
 456 0306 9BB2     		uxth	r3, r3
 457 0308 5A1C     		adds	r2, r3, #1
 458 030a 91B2     		uxth	r1, r2
 459 030c BA68     		ldr	r2, [r7, #8]
 460 030e 5180     		strh	r1, [r2, #2]	@ movhi
 461 0310 1946     		mov	r1, r3
 462 0312 3B6A     		ldr	r3, [r7, #32]
 463 0314 5A7C     		ldrb	r2, [r3, #17]	@ zero_extendqisi2
 464 0316 BB68     		ldr	r3, [r7, #8]
 465 0318 0B44     		add	r3, r3, r1
 466 031a 1A71     		strb	r2, [r3, #4]
 105:.\RFServerStackImpl.c ****                         puartdisp->_messagetx[puartdisp->_messagelength++] = _g_pumps[index]._pumpr
 467              		.loc 1 105 0
 468 031c BB68     		ldr	r3, [r7, #8]
 469 031e 5B88     		ldrh	r3, [r3, #2]	@ movhi
 470 0320 9BB2     		uxth	r3, r3
 471 0322 5A1C     		adds	r2, r3, #1
 472 0324 91B2     		uxth	r1, r2
 473 0326 BA68     		ldr	r2, [r7, #8]
 474 0328 5180     		strh	r1, [r2, #2]	@ movhi
 475 032a 1946     		mov	r1, r3
 476 032c 3B6A     		ldr	r3, [r7, #32]
 477 032e 9A7C     		ldrb	r2, [r3, #18]	@ zero_extendqisi2
 478 0330 BB68     		ldr	r3, [r7, #8]
 479 0332 0B44     		add	r3, r3, r1
 480 0334 1A71     		strb	r2, [r3, #4]
 106:.\RFServerStackImpl.c ****                         
 481              		.loc 1 106 0
 482 0336 BB68     		ldr	r3, [r7, #8]
 483 0338 5B88     		ldrh	r3, [r3, #2]	@ movhi
 484 033a 9BB2     		uxth	r3, r3
 485 033c 5A1C     		adds	r2, r3, #1
 486 033e 91B2     		uxth	r1, r2
 487 0340 BA68     		ldr	r2, [r7, #8]
 488 0342 5180     		strh	r1, [r2, #2]	@ movhi
 489 0344 1846     		mov	r0, r3
 490 0346 97F82630 		ldrb	r3, [r7, #38]	@ zero_extendqisi2
 491 034a 214A     		ldr	r2, .L16+8
 492 034c 4FF41961 		mov	r1, #2448
 493 0350 01FB03F3 		mul	r3, r1, r3
 494 0354 1344     		add	r3, r3, r2
 495 0356 0833     		adds	r3, r3, #8
 496 0358 9B79     		ldrb	r3, [r3, #6]
 497 035a DAB2     		uxtb	r2, r3
 498 035c BB68     		ldr	r3, [r7, #8]
 499 035e 0344     		add	r3, r3, r0
 500 0360 1A71     		strb	r2, [r3, #4]
 108:.\RFServerStackImpl.c ****                         puartdisp->_messagelength++;
ARM GAS  C:\Users\RECEPC~1\AppData\Local\Temp\cc5EIyCe.s 			page 12


 501              		.loc 1 108 0
 502 0362 BB68     		ldr	r3, [r7, #8]
 503 0364 5B88     		ldrh	r3, [r3, #2]	@ movhi
 504 0366 9BB2     		uxth	r3, r3
 505 0368 1C46     		mov	r4, r3
 506 036a BB68     		ldr	r3, [r7, #8]
 507 036c 1A1D     		adds	r2, r3, #4
 508 036e BB68     		ldr	r3, [r7, #8]
 509 0370 5B88     		ldrh	r3, [r3, #2]	@ movhi
 510 0372 9BB2     		uxth	r3, r3
 511 0374 1046     		mov	r0, r2
 512 0376 1946     		mov	r1, r3
 513 0378 FFF7FEFF 		bl	RawCRCCheck
 514 037c 0346     		mov	r3, r0
 515 037e 1A46     		mov	r2, r3
 516 0380 BB68     		ldr	r3, [r7, #8]
 517 0382 2344     		add	r3, r3, r4
 518 0384 1A71     		strb	r2, [r3, #4]
 109:.\RFServerStackImpl.c ****                         
 519              		.loc 1 109 0
 520 0386 BB68     		ldr	r3, [r7, #8]
 521 0388 5B88     		ldrh	r3, [r3, #2]	@ movhi
 522 038a 9BB2     		uxth	r3, r3
 523 038c 0133     		adds	r3, r3, #1
 524 038e 9AB2     		uxth	r2, r3
 525 0390 BB68     		ldr	r3, [r7, #8]
 526 0392 5A80     		strh	r2, [r3, #2]	@ movhi
 111:.\RFServerStackImpl.c ****                     }
 527              		.loc 1 111 0
 528 0394 BB68     		ldr	r3, [r7, #8]
 529 0396 C222     		movs	r2, #194
 530 0398 1A70     		strb	r2, [r3]
 531              	.L12:
 113:.\RFServerStackImpl.c ****                 }
 532              		.loc 1 113 0
 533 039a 0123     		movs	r3, #1
 534 039c 87F82730 		strb	r3, [r7, #39]
 535              	.LBE6:
 536              		.loc 1 115 0
 537 03a0 0BE0     		b	.L2
 538              	.L7:
 539              	.LBE4:
  67:.\RFServerStackImpl.c ****         {
 540              		.loc 1 67 0 discriminator 2
 541 03a2 97F82630 		ldrb	r3, [r7, #38]	@ zero_extendqisi2
 542 03a6 0133     		adds	r3, r3, #1
 543 03a8 87F82630 		strb	r3, [r7, #38]
 544              	.L6:
  67:.\RFServerStackImpl.c ****         {
 545              		.loc 1 67 0 is_stmt 0 discriminator 1
 546 03ac 094B     		ldr	r3, .L16+12
 547 03ae 9B78     		ldrb	r3, [r3, #2]	@ zero_extendqisi2
 548 03b0 97F82620 		ldrb	r2, [r7, #38]	@ zero_extendqisi2
 549 03b4 9A42     		cmp	r2, r3
 550 03b6 FFF4D6AE 		bcc	.L13
 551              	.L2:
 552              	.LBE2:
ARM GAS  C:\Users\RECEPC~1\AppData\Local\Temp\cc5EIyCe.s 			page 13


 116:.\RFServerStackImpl.c ****             }
 117:.\RFServerStackImpl.c ****         }
 118:.\RFServerStackImpl.c ****         #ifdef _DEBUG_
 119:.\RFServerStackImpl.c ****         RFSpeedReport(pmsg->_buffer[_RF_STREAM_COMMAND_INDEX_], pmsg->_buffer[_RF_STREAM_POSITION_I
 120:.\RFServerStackImpl.c ****         #endif
 121:.\RFServerStackImpl.c ****     }
 122:.\RFServerStackImpl.c ****     return retval;
 553              		.loc 1 122 0 is_stmt 1
 554 03ba 97F82730 		ldrb	r3, [r7, #39]	@ zero_extendqisi2
 555              	.L5:
 123:.\RFServerStackImpl.c **** }
 556              		.loc 1 123 0
 557 03be 1846     		mov	r0, r3
 558 03c0 2C37     		adds	r7, r7, #44
 559              		.cfi_def_cfa_offset 12
 560 03c2 BD46     		mov	sp, r7
 561              		.cfi_def_cfa_register 13
 562              		@ sp needed
 563 03c4 90BD     		pop	{r4, r7, pc}
 564              	.L17:
 565 03c6 00BF     		.align	2
 566              	.L16:
 567 03c8 00000000 		.word	_g_rfslaveheader
 568 03cc 00000000 		.word	_g_stationidentifier
 569 03d0 00000000 		.word	_g_pumps
 570 03d4 00000000 		.word	_g_dispenserlayoutinfo
 571              		.cfi_endproc
 572              	.LFE63:
 573              		.size	RFStateReqResp, .-RFStateReqResp
 574              		.section	.text.RFCreditSerialAuthReqResp,"ax",%progbits
 575              		.align	2
 576              		.global	RFCreditSerialAuthReqResp
 577              		.thumb
 578              		.thumb_func
 579              		.type	RFCreditSerialAuthReqResp, %function
 580              	RFCreditSerialAuthReqResp:
 581              	.LFB64:
 124:.\RFServerStackImpl.c **** 
 125:.\RFServerStackImpl.c **** //@Created By: HIJH
 126:.\RFServerStackImpl.c **** //@Septembre de 2016
 127:.\RFServerStackImpl.c **** bool RFCreditSerialAuthReqResp(void *pparam)
 128:.\RFServerStackImpl.c **** {
 582              		.loc 1 128 0
 583              		.cfi_startproc
 584              		@ args = 0, pretend = 0, frame = 24
 585              		@ frame_needed = 1, uses_anonymous_args = 0
 586 0000 90B5     		push	{r4, r7, lr}
 587              		.cfi_def_cfa_offset 12
 588              		.cfi_offset 4, -12
 589              		.cfi_offset 7, -8
 590              		.cfi_offset 14, -4
 591 0002 87B0     		sub	sp, sp, #28
 592              		.cfi_def_cfa_offset 40
 593 0004 00AF     		add	r7, sp, #0
 594              		.cfi_def_cfa_register 7
 595 0006 7860     		str	r0, [r7, #4]
 129:.\RFServerStackImpl.c ****     bool retval = false;
ARM GAS  C:\Users\RECEPC~1\AppData\Local\Temp\cc5EIyCe.s 			page 14


 596              		.loc 1 129 0
 597 0008 0023     		movs	r3, #0
 598 000a FB75     		strb	r3, [r7, #23]
 130:.\RFServerStackImpl.c ****     PSINKMESSAGEPTR pmsg = (PSINKMESSAGEPTR)pparam;
 599              		.loc 1 130 0
 600 000c 7B68     		ldr	r3, [r7, #4]
 601 000e 3B61     		str	r3, [r7, #16]
 131:.\RFServerStackImpl.c ****     if(pmsg)
 602              		.loc 1 131 0
 603 0010 3B69     		ldr	r3, [r7, #16]
 604 0012 002B     		cmp	r3, #0
 605 0014 00F01C81 		beq	.L19
 606              	.LBB7:
 132:.\RFServerStackImpl.c ****     {
 133:.\RFServerStackImpl.c ****         FOR(uint8 index = 0x00, index < _g_dispenserlayoutinfo._numpositions, index++)
 607              		.loc 1 133 0
 608 0018 0023     		movs	r3, #0
 609 001a BB75     		strb	r3, [r7, #22]
 610 001c 12E1     		b	.L20
 611              	.L23:
 134:.\RFServerStackImpl.c ****         {
 135:.\RFServerStackImpl.c ****             if(_g_pumps[index]._pumpid  == (pmsg->_buffer[_RF_STREAM_POSITION_INDEX_] - _g_dispense
 612              		.loc 1 135 0
 613 001e BB7D     		ldrb	r3, [r7, #22]	@ zero_extendqisi2
 614 0020 8E4A     		ldr	r2, .L25
 615 0022 4FF41961 		mov	r1, #2448
 616 0026 01FB03F3 		mul	r3, r1, r3
 617 002a 1344     		add	r3, r3, r2
 618 002c 1B78     		ldrb	r3, [r3]	@ zero_extendqisi2
 619 002e 1A46     		mov	r2, r3
 620 0030 3B69     		ldr	r3, [r7, #16]
 621 0032 5B7C     		ldrb	r3, [r3, #17]	@ zero_extendqisi2
 622 0034 1946     		mov	r1, r3
 623 0036 8A4B     		ldr	r3, .L25+4
 624 0038 9B7C     		ldrb	r3, [r3, #18]	@ zero_extendqisi2
 625 003a CB1A     		subs	r3, r1, r3
 626 003c 9A42     		cmp	r2, r3
 627 003e 40F0FE80 		bne	.L21
 628              	.LBB8:
 136:.\RFServerStackImpl.c ****             {
 137:.\RFServerStackImpl.c ****                 //We always pick the top most item from the Pump Transactional Queue
 138:.\RFServerStackImpl.c ****                 _g_pumps[index].PumpTransQueueLock(&_g_pumps[index]);
 629              		.loc 1 138 0
 630 0042 BB7D     		ldrb	r3, [r7, #22]	@ zero_extendqisi2
 631 0044 854A     		ldr	r2, .L25
 632 0046 4FF41961 		mov	r1, #2448
 633 004a 01FB03F3 		mul	r3, r1, r3
 634 004e 1344     		add	r3, r3, r2
 635 0050 03F60813 		addw	r3, r3, #2312
 636 0054 5B68     		ldr	r3, [r3, #4]
 637 0056 BA7D     		ldrb	r2, [r7, #22]	@ zero_extendqisi2
 638 0058 4FF41961 		mov	r1, #2448
 639 005c 01FB02F2 		mul	r2, r1, r2
 640 0060 7E49     		ldr	r1, .L25
 641 0062 0A44     		add	r2, r2, r1
 642 0064 1046     		mov	r0, r2
 643 0066 9847     		blx	r3
ARM GAS  C:\Users\RECEPC~1\AppData\Local\Temp\cc5EIyCe.s 			page 15


 139:.\RFServerStackImpl.c ****                 PNEAR_PUMPTRANSACTIONALSTATEPTR pumptrans = _g_pumps[index].PumpTransQueueDequeue(&
 644              		.loc 1 139 0
 645 0068 BB7D     		ldrb	r3, [r7, #22]	@ zero_extendqisi2
 646 006a 7C4A     		ldr	r2, .L25
 647 006c 4FF41961 		mov	r1, #2448
 648 0070 01FB03F3 		mul	r3, r1, r3
 649 0074 1344     		add	r3, r3, r2
 650 0076 03F51263 		add	r3, r3, #2336
 651 007a 5B68     		ldr	r3, [r3, #4]
 652 007c BA7D     		ldrb	r2, [r7, #22]	@ zero_extendqisi2
 653 007e 4FF41961 		mov	r1, #2448
 654 0082 01FB02F2 		mul	r2, r1, r2
 655 0086 7549     		ldr	r1, .L25
 656 0088 0A44     		add	r2, r2, r1
 657 008a 1046     		mov	r0, r2
 658 008c 9847     		blx	r3
 659 008e F860     		str	r0, [r7, #12]
 140:.\RFServerStackImpl.c ****                 PUARTMESSAGEPTR puartdisp = GetUARTMessageSlot(UART_RF);
 660              		.loc 1 140 0
 661 0090 A020     		movs	r0, #160
 662 0092 FFF7FEFF 		bl	GetUARTMessageSlot
 663 0096 B860     		str	r0, [r7, #8]
 141:.\RFServerStackImpl.c ****                 if(puartdisp)
 664              		.loc 1 141 0
 665 0098 BB68     		ldr	r3, [r7, #8]
 666 009a 002B     		cmp	r3, #0
 667 009c 00F0A580 		beq	.L22
 142:.\RFServerStackImpl.c ****                 {
 143:.\RFServerStackImpl.c ****                     puartdisp->_messagelength = 0;
 668              		.loc 1 143 0
 669 00a0 BB68     		ldr	r3, [r7, #8]
 670 00a2 0022     		movs	r2, #0
 671 00a4 5A80     		strh	r2, [r3, #2]	@ movhi
 144:.\RFServerStackImpl.c ****                     memset(puartdisp->_messagetx, 0x00, sizeof(puartdisp->_messagetx));
 672              		.loc 1 144 0
 673 00a6 BB68     		ldr	r3, [r7, #8]
 674 00a8 0433     		adds	r3, r3, #4
 675 00aa 1846     		mov	r0, r3
 676 00ac 0021     		movs	r1, #0
 677 00ae 4FF48072 		mov	r2, #256
 678 00b2 FFF7FEFF 		bl	memset
 145:.\RFServerStackImpl.c ****                     memcpy(puartdisp->_messagetx, _g_rfslaveheader, 0x03); //Explicit buffer length
 679              		.loc 1 145 0
 680 00b6 BB68     		ldr	r3, [r7, #8]
 681 00b8 0433     		adds	r3, r3, #4
 682 00ba 6A4A     		ldr	r2, .L25+8
 683 00bc 1188     		ldrh	r1, [r2]	@ unaligned
 684 00be 9278     		ldrb	r2, [r2, #2]
 685 00c0 1980     		strh	r1, [r3]	@ unaligned
 686 00c2 9A70     		strb	r2, [r3, #2]
 146:.\RFServerStackImpl.c ****                     puartdisp->_messagelength += 0x03;
 687              		.loc 1 146 0
 688 00c4 BB68     		ldr	r3, [r7, #8]
 689 00c6 5B88     		ldrh	r3, [r3, #2]	@ movhi
 690 00c8 9BB2     		uxth	r3, r3
 691 00ca 0333     		adds	r3, r3, #3
 692 00cc 9AB2     		uxth	r2, r3
ARM GAS  C:\Users\RECEPC~1\AppData\Local\Temp\cc5EIyCe.s 			page 16


 693 00ce BB68     		ldr	r3, [r7, #8]
 694 00d0 5A80     		strh	r2, [r3, #2]	@ movhi
 147:.\RFServerStackImpl.c ****                     puartdisp->_messagetx[puartdisp->_messagelength++] = (uint8)(_g_stationidentifi
 695              		.loc 1 147 0
 696 00d2 BB68     		ldr	r3, [r7, #8]
 697 00d4 5B88     		ldrh	r3, [r3, #2]	@ movhi
 698 00d6 9BB2     		uxth	r3, r3
 699 00d8 5A1C     		adds	r2, r3, #1
 700 00da 91B2     		uxth	r1, r2
 701 00dc BA68     		ldr	r2, [r7, #8]
 702 00de 5180     		strh	r1, [r2, #2]	@ movhi
 703 00e0 1946     		mov	r1, r3
 704 00e2 614B     		ldr	r3, .L25+12
 705 00e4 1B88     		ldrh	r3, [r3]
 706 00e6 DAB2     		uxtb	r2, r3
 707 00e8 BB68     		ldr	r3, [r7, #8]
 708 00ea 0B44     		add	r3, r3, r1
 709 00ec 1A71     		strb	r2, [r3, #4]
 148:.\RFServerStackImpl.c ****                     puartdisp->_messagetx[puartdisp->_messagelength++] = (uint8)((_g_stationidentif
 710              		.loc 1 148 0
 711 00ee BB68     		ldr	r3, [r7, #8]
 712 00f0 5B88     		ldrh	r3, [r3, #2]	@ movhi
 713 00f2 9BB2     		uxth	r3, r3
 714 00f4 5A1C     		adds	r2, r3, #1
 715 00f6 91B2     		uxth	r1, r2
 716 00f8 BA68     		ldr	r2, [r7, #8]
 717 00fa 5180     		strh	r1, [r2, #2]	@ movhi
 718 00fc 1946     		mov	r1, r3
 719 00fe 5A4B     		ldr	r3, .L25+12
 720 0100 1B88     		ldrh	r3, [r3]
 721 0102 1B0A     		lsrs	r3, r3, #8
 722 0104 9BB2     		uxth	r3, r3
 723 0106 DAB2     		uxtb	r2, r3
 724 0108 BB68     		ldr	r3, [r7, #8]
 725 010a 0B44     		add	r3, r3, r1
 726 010c 1A71     		strb	r2, [r3, #4]
 149:.\RFServerStackImpl.c ****                     puartdisp->_messagetx[puartdisp->_messagelength++] = (pumptrans->_buffer[0x00] 
 727              		.loc 1 149 0
 728 010e BB68     		ldr	r3, [r7, #8]
 729 0110 5B88     		ldrh	r3, [r3, #2]	@ movhi
 730 0112 9BB2     		uxth	r3, r3
 731 0114 5A1C     		adds	r2, r3, #1
 732 0116 91B2     		uxth	r1, r2
 733 0118 BA68     		ldr	r2, [r7, #8]
 734 011a 5180     		strh	r1, [r2, #2]	@ movhi
 735 011c 1946     		mov	r1, r3
 736 011e FB68     		ldr	r3, [r7, #12]
 737 0120 9A78     		ldrb	r2, [r3, #2]	@ zero_extendqisi2
 738 0122 4F4B     		ldr	r3, .L25+4
 739 0124 9B7C     		ldrb	r3, [r3, #18]	@ zero_extendqisi2
 740 0126 1344     		add	r3, r3, r2
 741 0128 DAB2     		uxtb	r2, r3
 742 012a BB68     		ldr	r3, [r7, #8]
 743 012c 0B44     		add	r3, r3, r1
 744 012e 1A71     		strb	r2, [r3, #4]
 150:.\RFServerStackImpl.c ****                     puartdisp->_messagetx[puartdisp->_messagelength++] = RF_MUX_CREDIT_SERIAL_AUTH_
 745              		.loc 1 150 0
ARM GAS  C:\Users\RECEPC~1\AppData\Local\Temp\cc5EIyCe.s 			page 17


 746 0130 BB68     		ldr	r3, [r7, #8]
 747 0132 5B88     		ldrh	r3, [r3, #2]	@ movhi
 748 0134 9BB2     		uxth	r3, r3
 749 0136 5A1C     		adds	r2, r3, #1
 750 0138 91B2     		uxth	r1, r2
 751 013a BA68     		ldr	r2, [r7, #8]
 752 013c 5180     		strh	r1, [r2, #2]	@ movhi
 753 013e 1A46     		mov	r2, r3
 754 0140 BB68     		ldr	r3, [r7, #8]
 755 0142 1344     		add	r3, r3, r2
 756 0144 A222     		movs	r2, #162
 757 0146 1A71     		strb	r2, [r3, #4]
 151:.\RFServerStackImpl.c ****                     puartdisp->_messagetx[puartdisp->_messagelength++] = _g_pumps[index]._pumprftra
 758              		.loc 1 151 0
 759 0148 BB68     		ldr	r3, [r7, #8]
 760 014a 5B88     		ldrh	r3, [r3, #2]	@ movhi
 761 014c 9BB2     		uxth	r3, r3
 762 014e 5A1C     		adds	r2, r3, #1
 763 0150 91B2     		uxth	r1, r2
 764 0152 BA68     		ldr	r2, [r7, #8]
 765 0154 5180     		strh	r1, [r2, #2]	@ movhi
 766 0156 1846     		mov	r0, r3
 767 0158 BB7D     		ldrb	r3, [r7, #22]	@ zero_extendqisi2
 768 015a 404A     		ldr	r2, .L25
 769 015c 4FF41961 		mov	r1, #2448
 770 0160 01FB03F3 		mul	r3, r1, r3
 771 0164 1344     		add	r3, r3, r2
 772 0166 0833     		adds	r3, r3, #8
 773 0168 9B79     		ldrb	r3, [r3, #6]
 774 016a DAB2     		uxtb	r2, r3
 775 016c BB68     		ldr	r3, [r7, #8]
 776 016e 0344     		add	r3, r3, r0
 777 0170 1A71     		strb	r2, [r3, #4]
 152:.\RFServerStackImpl.c ****                     //Here we copy the incoming buffer from the Hose ID, so we subtract one to remo
 153:.\RFServerStackImpl.c ****                     memcpy(&puartdisp->_messagetx[puartdisp->_messagelength], &pumptrans->_buffer[0
 778              		.loc 1 153 0
 779 0172 BB68     		ldr	r3, [r7, #8]
 780 0174 5B88     		ldrh	r3, [r3, #2]	@ movhi
 781 0176 9BB2     		uxth	r3, r3
 782 0178 1A46     		mov	r2, r3
 783 017a BB68     		ldr	r3, [r7, #8]
 784 017c 1344     		add	r3, r3, r2
 785 017e 191D     		adds	r1, r3, #4
 786 0180 FB68     		ldr	r3, [r7, #12]
 787 0182 DA1C     		adds	r2, r3, #3
 788 0184 FB68     		ldr	r3, [r7, #12]
 789 0186 B3F80231 		ldrh	r3, [r3, #258]
 790 018a 013B     		subs	r3, r3, #1
 791 018c 0846     		mov	r0, r1
 792 018e 1146     		mov	r1, r2
 793 0190 1A46     		mov	r2, r3
 794 0192 FFF7FEFF 		bl	memcpy
 154:.\RFServerStackImpl.c ****                     puartdisp->_messagelength += (pumptrans->_buffersize - 1);
 795              		.loc 1 154 0
 796 0196 BB68     		ldr	r3, [r7, #8]
 797 0198 5B88     		ldrh	r3, [r3, #2]	@ movhi
 798 019a 9AB2     		uxth	r2, r3
ARM GAS  C:\Users\RECEPC~1\AppData\Local\Temp\cc5EIyCe.s 			page 18


 799 019c FB68     		ldr	r3, [r7, #12]
 800 019e B3F80231 		ldrh	r3, [r3, #258]
 801 01a2 1344     		add	r3, r3, r2
 802 01a4 9BB2     		uxth	r3, r3
 803 01a6 013B     		subs	r3, r3, #1
 804 01a8 9AB2     		uxth	r2, r3
 805 01aa BB68     		ldr	r3, [r7, #8]
 806 01ac 5A80     		strh	r2, [r3, #2]	@ movhi
 155:.\RFServerStackImpl.c ****                     
 156:.\RFServerStackImpl.c ****                     puartdisp->_messagetx[puartdisp->_messagelength] = RawCRCCheck((PSTR)puartdisp-
 807              		.loc 1 156 0
 808 01ae BB68     		ldr	r3, [r7, #8]
 809 01b0 5B88     		ldrh	r3, [r3, #2]	@ movhi
 810 01b2 9BB2     		uxth	r3, r3
 811 01b4 1C46     		mov	r4, r3
 812 01b6 BB68     		ldr	r3, [r7, #8]
 813 01b8 1A1D     		adds	r2, r3, #4
 814 01ba BB68     		ldr	r3, [r7, #8]
 815 01bc 5B88     		ldrh	r3, [r3, #2]	@ movhi
 816 01be 9BB2     		uxth	r3, r3
 817 01c0 013B     		subs	r3, r3, #1
 818 01c2 9BB2     		uxth	r3, r3
 819 01c4 1046     		mov	r0, r2
 820 01c6 1946     		mov	r1, r3
 821 01c8 FFF7FEFF 		bl	RawCRCCheck
 822 01cc 0346     		mov	r3, r0
 823 01ce 1A46     		mov	r2, r3
 824 01d0 BB68     		ldr	r3, [r7, #8]
 825 01d2 2344     		add	r3, r3, r4
 826 01d4 1A71     		strb	r2, [r3, #4]
 157:.\RFServerStackImpl.c ****                     puartdisp->_messagelength++;
 827              		.loc 1 157 0
 828 01d6 BB68     		ldr	r3, [r7, #8]
 829 01d8 5B88     		ldrh	r3, [r3, #2]	@ movhi
 830 01da 9BB2     		uxth	r3, r3
 831 01dc 0133     		adds	r3, r3, #1
 832 01de 9AB2     		uxth	r2, r3
 833 01e0 BB68     		ldr	r3, [r7, #8]
 834 01e2 5A80     		strh	r2, [r3, #2]	@ movhi
 158:.\RFServerStackImpl.c **** 
 159:.\RFServerStackImpl.c ****                     puartdisp->_messagestate = PENDING;
 835              		.loc 1 159 0
 836 01e4 BB68     		ldr	r3, [r7, #8]
 837 01e6 C222     		movs	r2, #194
 838 01e8 1A70     		strb	r2, [r3]
 839              	.L22:
 160:.\RFServerStackImpl.c ****                 }
 161:.\RFServerStackImpl.c ****                 _g_pumps[index].PumpTransQueueDeallocate(&_g_pumps[index], pumptrans);
 840              		.loc 1 161 0
 841 01ea BB7D     		ldrb	r3, [r7, #22]	@ zero_extendqisi2
 842 01ec 1B4A     		ldr	r2, .L25
 843 01ee 4FF41961 		mov	r1, #2448
 844 01f2 01FB03F3 		mul	r3, r1, r3
 845 01f6 1344     		add	r3, r3, r2
 846 01f8 03F61813 		addw	r3, r3, #2328
 847 01fc 5B68     		ldr	r3, [r3, #4]
 848 01fe BA7D     		ldrb	r2, [r7, #22]	@ zero_extendqisi2
ARM GAS  C:\Users\RECEPC~1\AppData\Local\Temp\cc5EIyCe.s 			page 19


 849 0200 4FF41961 		mov	r1, #2448
 850 0204 01FB02F2 		mul	r2, r1, r2
 851 0208 1449     		ldr	r1, .L25
 852 020a 0A44     		add	r2, r2, r1
 853 020c 1046     		mov	r0, r2
 854 020e F968     		ldr	r1, [r7, #12]
 855 0210 9847     		blx	r3
 162:.\RFServerStackImpl.c ****                 _g_pumps[index].PumpTransQueueUnlock(&_g_pumps[index]);
 856              		.loc 1 162 0
 857 0212 BB7D     		ldrb	r3, [r7, #22]	@ zero_extendqisi2
 858 0214 114A     		ldr	r2, .L25
 859 0216 4FF41961 		mov	r1, #2448
 860 021a 01FB03F3 		mul	r3, r1, r3
 861 021e 1344     		add	r3, r3, r2
 862 0220 03F51163 		add	r3, r3, #2320
 863 0224 1B68     		ldr	r3, [r3]
 864 0226 BA7D     		ldrb	r2, [r7, #22]	@ zero_extendqisi2
 865 0228 4FF41961 		mov	r1, #2448
 866 022c 01FB02F2 		mul	r2, r1, r2
 867 0230 0A49     		ldr	r1, .L25
 868 0232 0A44     		add	r2, r2, r1
 869 0234 1046     		mov	r0, r2
 870 0236 9847     		blx	r3
 163:.\RFServerStackImpl.c ****                 retval = true;
 871              		.loc 1 163 0
 872 0238 0123     		movs	r3, #1
 873 023a FB75     		strb	r3, [r7, #23]
 164:.\RFServerStackImpl.c **** 
 165:.\RFServerStackImpl.c ****                 break;
 874              		.loc 1 165 0
 875 023c 08E0     		b	.L19
 876              	.L21:
 877              	.LBE8:
 133:.\RFServerStackImpl.c ****         {
 878              		.loc 1 133 0 discriminator 2
 879 023e BB7D     		ldrb	r3, [r7, #22]	@ zero_extendqisi2
 880 0240 0133     		adds	r3, r3, #1
 881 0242 BB75     		strb	r3, [r7, #22]
 882              	.L20:
 133:.\RFServerStackImpl.c ****         {
 883              		.loc 1 133 0 is_stmt 0 discriminator 1
 884 0244 064B     		ldr	r3, .L25+4
 885 0246 9B78     		ldrb	r3, [r3, #2]	@ zero_extendqisi2
 886 0248 BA7D     		ldrb	r2, [r7, #22]	@ zero_extendqisi2
 887 024a 9A42     		cmp	r2, r3
 888 024c FFF4E7AE 		bcc	.L23
 889              	.L19:
 890              	.LBE7:
 166:.\RFServerStackImpl.c ****             }
 167:.\RFServerStackImpl.c ****         }
 168:.\RFServerStackImpl.c **** 
 169:.\RFServerStackImpl.c ****     }
 170:.\RFServerStackImpl.c ****     return retval;
 891              		.loc 1 170 0 is_stmt 1
 892 0250 FB7D     		ldrb	r3, [r7, #23]	@ zero_extendqisi2
 171:.\RFServerStackImpl.c **** }
 893              		.loc 1 171 0
ARM GAS  C:\Users\RECEPC~1\AppData\Local\Temp\cc5EIyCe.s 			page 20


 894 0252 1846     		mov	r0, r3
 895 0254 1C37     		adds	r7, r7, #28
 896              		.cfi_def_cfa_offset 12
 897 0256 BD46     		mov	sp, r7
 898              		.cfi_def_cfa_register 13
 899              		@ sp needed
 900 0258 90BD     		pop	{r4, r7, pc}
 901              	.L26:
 902 025a 00BF     		.align	2
 903              	.L25:
 904 025c 00000000 		.word	_g_pumps
 905 0260 00000000 		.word	_g_dispenserlayoutinfo
 906 0264 00000000 		.word	_g_rfslaveheader
 907 0268 00000000 		.word	_g_stationidentifier
 908              		.cfi_endproc
 909              	.LFE64:
 910              		.size	RFCreditSerialAuthReqResp, .-RFCreditSerialAuthReqResp
 911              		.section	.text.RFCreditAuthorizationReqResp,"ax",%progbits
 912              		.align	2
 913              		.global	RFCreditAuthorizationReqResp
 914              		.thumb
 915              		.thumb_func
 916              		.type	RFCreditAuthorizationReqResp, %function
 917              	RFCreditAuthorizationReqResp:
 918              	.LFB65:
 172:.\RFServerStackImpl.c **** 
 173:.\RFServerStackImpl.c **** bool RFCreditAuthorizationReqResp(void *pparam)
 174:.\RFServerStackImpl.c **** {
 919              		.loc 1 174 0
 920              		.cfi_startproc
 921              		@ args = 0, pretend = 0, frame = 32
 922              		@ frame_needed = 1, uses_anonymous_args = 0
 923 0000 90B5     		push	{r4, r7, lr}
 924              		.cfi_def_cfa_offset 12
 925              		.cfi_offset 4, -12
 926              		.cfi_offset 7, -8
 927              		.cfi_offset 14, -4
 928 0002 89B0     		sub	sp, sp, #36
 929              		.cfi_def_cfa_offset 48
 930 0004 00AF     		add	r7, sp, #0
 931              		.cfi_def_cfa_register 7
 932 0006 7860     		str	r0, [r7, #4]
 175:.\RFServerStackImpl.c ****     bool retval = false;
 933              		.loc 1 175 0
 934 0008 0023     		movs	r3, #0
 935 000a FB77     		strb	r3, [r7, #31]
 176:.\RFServerStackImpl.c ****     PSINKMESSAGEPTR pmsg = (PSINKMESSAGEPTR)pparam;
 936              		.loc 1 176 0
 937 000c 7B68     		ldr	r3, [r7, #4]
 938 000e BB61     		str	r3, [r7, #24]
 177:.\RFServerStackImpl.c ****     if(pmsg)
 939              		.loc 1 177 0
 940 0010 BB69     		ldr	r3, [r7, #24]
 941 0012 002B     		cmp	r3, #0
 942 0014 00F0ED81 		beq	.L28
 943              	.LBB9:
 178:.\RFServerStackImpl.c ****     {
ARM GAS  C:\Users\RECEPC~1\AppData\Local\Temp\cc5EIyCe.s 			page 21


 179:.\RFServerStackImpl.c ****         //Checking the CRC first to proceed
 180:.\RFServerStackImpl.c ****         //CRC must be located at this position for this message (See the protocol description file)
 181:.\RFServerStackImpl.c ****         uint8 crc = RawCRCCheck(pmsg->_buffer, pmsg->_buffersize - 1);
 944              		.loc 1 181 0
 945 0018 BB69     		ldr	r3, [r7, #24]
 946 001a 03F10C02 		add	r2, r3, #12
 947 001e BB69     		ldr	r3, [r7, #24]
 948 0020 B3F88C31 		ldrh	r3, [r3, #396]	@ movhi
 949 0024 9BB2     		uxth	r3, r3
 950 0026 013B     		subs	r3, r3, #1
 951 0028 9BB2     		uxth	r3, r3
 952 002a 1046     		mov	r0, r2
 953 002c 1946     		mov	r1, r3
 954 002e FFF7FEFF 		bl	RawCRCCheck
 955 0032 0346     		mov	r3, r0
 956 0034 FB75     		strb	r3, [r7, #23]
 182:.\RFServerStackImpl.c ****         if(crc != RFGetCRC(pmsg->_buffer[_RF_STREAM_COMMAND_INDEX_], PBYTECAST(pmsg->_buffer)))//If
 957              		.loc 1 182 0
 958 0036 BB69     		ldr	r3, [r7, #24]
 959 0038 9A7C     		ldrb	r2, [r3, #18]	@ zero_extendqisi2
 960 003a BB69     		ldr	r3, [r7, #24]
 961 003c 0C33     		adds	r3, r3, #12
 962 003e 1046     		mov	r0, r2
 963 0040 1946     		mov	r1, r3
 964 0042 FFF7FEFF 		bl	RFGetCRC
 965 0046 0346     		mov	r3, r0
 966 0048 1A46     		mov	r2, r3
 967 004a FB7D     		ldrb	r3, [r7, #23]	@ zero_extendqisi2
 968 004c 9342     		cmp	r3, r2
 969 004e 00F08480 		beq	.L29
 970              	.LBB10:
 183:.\RFServerStackImpl.c ****         {
 184:.\RFServerStackImpl.c ****             PUARTMESSAGEPTR puartdisp = GetUARTMessageSlot(UART_RF);
 971              		.loc 1 184 0
 972 0052 A020     		movs	r0, #160
 973 0054 FFF7FEFF 		bl	GetUARTMessageSlot
 974 0058 3861     		str	r0, [r7, #16]
 185:.\RFServerStackImpl.c ****             if(puartdisp)
 975              		.loc 1 185 0
 976 005a 3B69     		ldr	r3, [r7, #16]
 977 005c 002B     		cmp	r3, #0
 978 005e 7AD0     		beq	.L30
 186:.\RFServerStackImpl.c ****             {
 187:.\RFServerStackImpl.c ****                 puartdisp->_messagelength = 0;
 979              		.loc 1 187 0
 980 0060 3B69     		ldr	r3, [r7, #16]
 981 0062 0022     		movs	r2, #0
 982 0064 5A80     		strh	r2, [r3, #2]	@ movhi
 188:.\RFServerStackImpl.c ****                 memset(puartdisp->_messagetx, 0x00, sizeof(puartdisp->_messagetx));
 983              		.loc 1 188 0
 984 0066 3B69     		ldr	r3, [r7, #16]
 985 0068 0433     		adds	r3, r3, #4
 986 006a 1846     		mov	r0, r3
 987 006c 0021     		movs	r1, #0
 988 006e 4FF48072 		mov	r2, #256
 989 0072 FFF7FEFF 		bl	memset
 189:.\RFServerStackImpl.c ****                 memcpy(puartdisp->_messagetx, _g_rfslaveheader, 0x03); //Explicit buffer length to 
ARM GAS  C:\Users\RECEPC~1\AppData\Local\Temp\cc5EIyCe.s 			page 22


 990              		.loc 1 189 0
 991 0076 3B69     		ldr	r3, [r7, #16]
 992 0078 0433     		adds	r3, r3, #4
 993 007a 914A     		ldr	r2, .L40
 994 007c 1188     		ldrh	r1, [r2]	@ unaligned
 995 007e 9278     		ldrb	r2, [r2, #2]
 996 0080 1980     		strh	r1, [r3]	@ unaligned
 997 0082 9A70     		strb	r2, [r3, #2]
 190:.\RFServerStackImpl.c ****                 puartdisp->_messagelength += 0x03;
 998              		.loc 1 190 0
 999 0084 3B69     		ldr	r3, [r7, #16]
 1000 0086 5B88     		ldrh	r3, [r3, #2]	@ movhi
 1001 0088 9BB2     		uxth	r3, r3
 1002 008a 0333     		adds	r3, r3, #3
 1003 008c 9AB2     		uxth	r2, r3
 1004 008e 3B69     		ldr	r3, [r7, #16]
 1005 0090 5A80     		strh	r2, [r3, #2]	@ movhi
 191:.\RFServerStackImpl.c ****                 puartdisp->_messagetx[puartdisp->_messagelength++] = (uint8)(_g_stationidentifier &
 1006              		.loc 1 191 0
 1007 0092 3B69     		ldr	r3, [r7, #16]
 1008 0094 5B88     		ldrh	r3, [r3, #2]	@ movhi
 1009 0096 9BB2     		uxth	r3, r3
 1010 0098 5A1C     		adds	r2, r3, #1
 1011 009a 91B2     		uxth	r1, r2
 1012 009c 3A69     		ldr	r2, [r7, #16]
 1013 009e 5180     		strh	r1, [r2, #2]	@ movhi
 1014 00a0 1946     		mov	r1, r3
 1015 00a2 884B     		ldr	r3, .L40+4
 1016 00a4 1B88     		ldrh	r3, [r3]
 1017 00a6 DAB2     		uxtb	r2, r3
 1018 00a8 3B69     		ldr	r3, [r7, #16]
 1019 00aa 0B44     		add	r3, r3, r1
 1020 00ac 1A71     		strb	r2, [r3, #4]
 192:.\RFServerStackImpl.c ****                 puartdisp->_messagetx[puartdisp->_messagelength++] = (uint8)((_g_stationidentifier 
 1021              		.loc 1 192 0
 1022 00ae 3B69     		ldr	r3, [r7, #16]
 1023 00b0 5B88     		ldrh	r3, [r3, #2]	@ movhi
 1024 00b2 9BB2     		uxth	r3, r3
 1025 00b4 5A1C     		adds	r2, r3, #1
 1026 00b6 91B2     		uxth	r1, r2
 1027 00b8 3A69     		ldr	r2, [r7, #16]
 1028 00ba 5180     		strh	r1, [r2, #2]	@ movhi
 1029 00bc 1946     		mov	r1, r3
 1030 00be 814B     		ldr	r3, .L40+4
 1031 00c0 1B88     		ldrh	r3, [r3]
 1032 00c2 1B0A     		lsrs	r3, r3, #8
 1033 00c4 9BB2     		uxth	r3, r3
 1034 00c6 DAB2     		uxtb	r2, r3
 1035 00c8 3B69     		ldr	r3, [r7, #16]
 1036 00ca 0B44     		add	r3, r3, r1
 1037 00cc 1A71     		strb	r2, [r3, #4]
 193:.\RFServerStackImpl.c ****                 puartdisp->_messagetx[puartdisp->_messagelength++] = pmsg->_buffer[_RF_STREAM_POSIT
 1038              		.loc 1 193 0
 1039 00ce 3B69     		ldr	r3, [r7, #16]
 1040 00d0 5B88     		ldrh	r3, [r3, #2]	@ movhi
 1041 00d2 9BB2     		uxth	r3, r3
 1042 00d4 5A1C     		adds	r2, r3, #1
ARM GAS  C:\Users\RECEPC~1\AppData\Local\Temp\cc5EIyCe.s 			page 23


 1043 00d6 91B2     		uxth	r1, r2
 1044 00d8 3A69     		ldr	r2, [r7, #16]
 1045 00da 5180     		strh	r1, [r2, #2]	@ movhi
 1046 00dc 1946     		mov	r1, r3
 1047 00de BB69     		ldr	r3, [r7, #24]
 1048 00e0 5A7C     		ldrb	r2, [r3, #17]	@ zero_extendqisi2
 1049 00e2 3B69     		ldr	r3, [r7, #16]
 1050 00e4 0B44     		add	r3, r3, r1
 1051 00e6 1A71     		strb	r2, [r3, #4]
 194:.\RFServerStackImpl.c ****                 puartdisp->_messagetx[puartdisp->_messagelength++] = pmsg->_buffer[_RF_STREAM_COMMA
 1052              		.loc 1 194 0
 1053 00e8 3B69     		ldr	r3, [r7, #16]
 1054 00ea 5B88     		ldrh	r3, [r3, #2]	@ movhi
 1055 00ec 9BB2     		uxth	r3, r3
 1056 00ee 5A1C     		adds	r2, r3, #1
 1057 00f0 91B2     		uxth	r1, r2
 1058 00f2 3A69     		ldr	r2, [r7, #16]
 1059 00f4 5180     		strh	r1, [r2, #2]	@ movhi
 1060 00f6 1946     		mov	r1, r3
 1061 00f8 BB69     		ldr	r3, [r7, #24]
 1062 00fa 9A7C     		ldrb	r2, [r3, #18]	@ zero_extendqisi2
 1063 00fc 3B69     		ldr	r3, [r7, #16]
 1064 00fe 0B44     		add	r3, r3, r1
 1065 0100 1A71     		strb	r2, [r3, #4]
 195:.\RFServerStackImpl.c ****                 puartdisp->_messagetx[puartdisp->_messagelength++] = _RF_NACK_;
 1066              		.loc 1 195 0
 1067 0102 3B69     		ldr	r3, [r7, #16]
 1068 0104 5B88     		ldrh	r3, [r3, #2]	@ movhi
 1069 0106 9BB2     		uxth	r3, r3
 1070 0108 5A1C     		adds	r2, r3, #1
 1071 010a 91B2     		uxth	r1, r2
 1072 010c 3A69     		ldr	r2, [r7, #16]
 1073 010e 5180     		strh	r1, [r2, #2]	@ movhi
 1074 0110 1A46     		mov	r2, r3
 1075 0112 3B69     		ldr	r3, [r7, #16]
 1076 0114 1344     		add	r3, r3, r2
 1077 0116 0422     		movs	r2, #4
 1078 0118 1A71     		strb	r2, [r3, #4]
 196:.\RFServerStackImpl.c ****                 puartdisp->_messagetx[puartdisp->_messagelength] = RawCRCCheck((PSTR)puartdisp->_me
 1079              		.loc 1 196 0
 1080 011a 3B69     		ldr	r3, [r7, #16]
 1081 011c 5B88     		ldrh	r3, [r3, #2]	@ movhi
 1082 011e 9BB2     		uxth	r3, r3
 1083 0120 1C46     		mov	r4, r3
 1084 0122 3B69     		ldr	r3, [r7, #16]
 1085 0124 1A1D     		adds	r2, r3, #4
 1086 0126 3B69     		ldr	r3, [r7, #16]
 1087 0128 5B88     		ldrh	r3, [r3, #2]	@ movhi
 1088 012a 9BB2     		uxth	r3, r3
 1089 012c 013B     		subs	r3, r3, #1
 1090 012e 9BB2     		uxth	r3, r3
 1091 0130 1046     		mov	r0, r2
 1092 0132 1946     		mov	r1, r3
 1093 0134 FFF7FEFF 		bl	RawCRCCheck
 1094 0138 0346     		mov	r3, r0
 1095 013a 1A46     		mov	r2, r3
 1096 013c 3B69     		ldr	r3, [r7, #16]
ARM GAS  C:\Users\RECEPC~1\AppData\Local\Temp\cc5EIyCe.s 			page 24


 1097 013e 2344     		add	r3, r3, r4
 1098 0140 1A71     		strb	r2, [r3, #4]
 197:.\RFServerStackImpl.c ****                 puartdisp->_messagelength++;
 1099              		.loc 1 197 0
 1100 0142 3B69     		ldr	r3, [r7, #16]
 1101 0144 5B88     		ldrh	r3, [r3, #2]	@ movhi
 1102 0146 9BB2     		uxth	r3, r3
 1103 0148 0133     		adds	r3, r3, #1
 1104 014a 9AB2     		uxth	r2, r3
 1105 014c 3B69     		ldr	r3, [r7, #16]
 1106 014e 5A80     		strh	r2, [r3, #2]	@ movhi
 198:.\RFServerStackImpl.c **** 
 199:.\RFServerStackImpl.c ****                 puartdisp->_messagestate = PENDING;
 1107              		.loc 1 199 0
 1108 0150 3B69     		ldr	r3, [r7, #16]
 1109 0152 C222     		movs	r2, #194
 1110 0154 1A70     		strb	r2, [r3]
 1111              	.L30:
 200:.\RFServerStackImpl.c ****             }
 201:.\RFServerStackImpl.c ****             return retval;
 1112              		.loc 1 201 0
 1113 0156 FB7F     		ldrb	r3, [r7, #31]	@ zero_extendqisi2
 1114 0158 4CE1     		b	.L31
 1115              	.L29:
 1116              	.LBE10:
 202:.\RFServerStackImpl.c ****         }
 203:.\RFServerStackImpl.c ****         FOR(uint8 index = 0x00, index < _g_dispenserlayoutinfo._numpositions, index++)
 1117              		.loc 1 203 0
 1118 015a 0023     		movs	r3, #0
 1119 015c BB77     		strb	r3, [r7, #30]
 1120 015e BCE0     		b	.L32
 1121              	.L39:
 204:.\RFServerStackImpl.c ****         {
 205:.\RFServerStackImpl.c ****             if((_g_pumps[index]._pumpid + _g_dispenserlayoutinfo._positionoffset) == pmsg->_buffer[
 1122              		.loc 1 205 0
 1123 0160 BB7F     		ldrb	r3, [r7, #30]	@ zero_extendqisi2
 1124 0162 594A     		ldr	r2, .L40+8
 1125 0164 4FF41961 		mov	r1, #2448
 1126 0168 01FB03F3 		mul	r3, r1, r3
 1127 016c 1344     		add	r3, r3, r2
 1128 016e 1B78     		ldrb	r3, [r3]	@ zero_extendqisi2
 1129 0170 1A46     		mov	r2, r3
 1130 0172 564B     		ldr	r3, .L40+12
 1131 0174 9B7C     		ldrb	r3, [r3, #18]	@ zero_extendqisi2
 1132 0176 1344     		add	r3, r3, r2
 1133 0178 BA69     		ldr	r2, [r7, #24]
 1134 017a 527C     		ldrb	r2, [r2, #17]	@ zero_extendqisi2
 1135 017c 9342     		cmp	r3, r2
 1136 017e 40F0A980 		bne	.L33
 1137              	.LBB11:
 206:.\RFServerStackImpl.c ****             {
 207:.\RFServerStackImpl.c ****                 //Authorization information
 208:.\RFServerStackImpl.c ****                 _g_pumps[index]._authorizationinfo._authorized = (pmsg->_buffer[0x08] == 0x01);
 1138              		.loc 1 208 0
 1139 0182 BB7F     		ldrb	r3, [r7, #30]	@ zero_extendqisi2
 1140 0184 BA69     		ldr	r2, [r7, #24]
 1141 0186 127D     		ldrb	r2, [r2, #20]	@ zero_extendqisi2
ARM GAS  C:\Users\RECEPC~1\AppData\Local\Temp\cc5EIyCe.s 			page 25


 1142 0188 012A     		cmp	r2, #1
 1143 018a 0CBF     		ite	eq
 1144 018c 0122     		moveq	r2, #1
 1145 018e 0022     		movne	r2, #0
 1146 0190 D0B2     		uxtb	r0, r2
 1147 0192 4D4A     		ldr	r2, .L40+8
 1148 0194 4FF41961 		mov	r1, #2448
 1149 0198 01FB03F3 		mul	r3, r1, r3
 1150 019c 1344     		add	r3, r3, r2
 1151 019e 03F51763 		add	r3, r3, #2416
 1152 01a2 0246     		mov	r2, r0
 1153 01a4 1A70     		strb	r2, [r3]
 209:.\RFServerStackImpl.c **** 
 210:.\RFServerStackImpl.c ****                 //GET THE RIGHT DISPLAY FOR THE POSITION TO CHANGE ITS STATE TO "DISPLAY_CREDIT_AUT
 211:.\RFServerStackImpl.c ****                 PDISPLAYLAYOUTPTR pdisplay = GetDisplayFromPumpID(pmsg->_buffer[_RF_STREAM_POSITION
 1154              		.loc 1 211 0
 1155 01a6 BB69     		ldr	r3, [r7, #24]
 1156 01a8 5A7C     		ldrb	r2, [r3, #17]	@ zero_extendqisi2
 1157 01aa 484B     		ldr	r3, .L40+12
 1158 01ac 9B7C     		ldrb	r3, [r3, #18]	@ zero_extendqisi2
 1159 01ae D31A     		subs	r3, r2, r3
 1160 01b0 DBB2     		uxtb	r3, r3
 1161 01b2 1846     		mov	r0, r3
 1162 01b4 FFF7FEFF 		bl	GetDisplayFromPumpID
 1163 01b8 F860     		str	r0, [r7, #12]
 212:.\RFServerStackImpl.c ****                 //See the protocol description file to understand the applied indexes 
 213:.\RFServerStackImpl.c ****                 _g_pumps[index]._authorizationinfo._presettype = pmsg->_buffer[0x11];
 1164              		.loc 1 213 0
 1165 01ba BB7F     		ldrb	r3, [r7, #30]	@ zero_extendqisi2
 1166 01bc BA69     		ldr	r2, [r7, #24]
 1167 01be 507F     		ldrb	r0, [r2, #29]	@ zero_extendqisi2
 1168 01c0 414A     		ldr	r2, .L40+8
 1169 01c2 4FF41961 		mov	r1, #2448
 1170 01c6 01FB03F3 		mul	r3, r1, r3
 1171 01ca 1344     		add	r3, r3, r2
 1172 01cc 03F51763 		add	r3, r3, #2416
 1173 01d0 0246     		mov	r2, r0
 1174 01d2 5A70     		strb	r2, [r3, #1]
 214:.\RFServerStackImpl.c ****                 _g_pumps[index]._authorizationinfo._presetamount  = LSDBCDBUFF2HEX((PNEAR_BYTE_PTR)
 1175              		.loc 1 214 0
 1176 01d4 BC7F     		ldrb	r4, [r7, #30]	@ zero_extendqisi2
 1177 01d6 BB69     		ldr	r3, [r7, #24]
 1178 01d8 1533     		adds	r3, r3, #21
 1179 01da 1846     		mov	r0, r3
 1180 01dc 0821     		movs	r1, #8
 1181 01de FFF7FEFF 		bl	LSDBCDBUFF2HEX
 1182 01e2 0146     		mov	r1, r0
 1183 01e4 384A     		ldr	r2, .L40+8
 1184 01e6 4FF41963 		mov	r3, #2448
 1185 01ea 03FB04F3 		mul	r3, r3, r4
 1186 01ee 1344     		add	r3, r3, r2
 1187 01f0 03F67813 		addw	r3, r3, #2424
 1188 01f4 1960     		str	r1, [r3]
 215:.\RFServerStackImpl.c ****                 _g_pumps[index]._authorizationinfo._hoseid = pmsg->_buffer[0x12];
 1189              		.loc 1 215 0
 1190 01f6 BB7F     		ldrb	r3, [r7, #30]	@ zero_extendqisi2
 1191 01f8 BA69     		ldr	r2, [r7, #24]
ARM GAS  C:\Users\RECEPC~1\AppData\Local\Temp\cc5EIyCe.s 			page 26


 1192 01fa 907F     		ldrb	r0, [r2, #30]	@ zero_extendqisi2
 1193 01fc 324A     		ldr	r2, .L40+8
 1194 01fe 4FF41961 		mov	r1, #2448
 1195 0202 01FB03F3 		mul	r3, r1, r3
 1196 0206 1344     		add	r3, r3, r2
 1197 0208 03F51763 		add	r3, r3, #2416
 1198 020c 0246     		mov	r2, r0
 1199 020e 9A70     		strb	r2, [r3, #2]
 216:.\RFServerStackImpl.c ****                 
 217:.\RFServerStackImpl.c ****                 if(_g_dispenserlayoutinfo._moneydecimals == 0x03 && _g_dispenserlayoutinfo._ppudeci
 1200              		.loc 1 217 0
 1201 0210 2E4B     		ldr	r3, .L40+12
 1202 0212 DB79     		ldrb	r3, [r3, #7]	@ zero_extendqisi2
 1203 0214 032B     		cmp	r3, #3
 1204 0216 1BD1     		bne	.L34
 1205              		.loc 1 217 0 is_stmt 0 discriminator 1
 1206 0218 2C4B     		ldr	r3, .L40+12
 1207 021a 1B7A     		ldrb	r3, [r3, #8]	@ zero_extendqisi2
 1208 021c 022B     		cmp	r3, #2
 1209 021e 17D1     		bne	.L34
 218:.\RFServerStackImpl.c ****                     _g_pumps[index]._authorizationinfo._price = LSDBCDBUFF2HEX((PNEAR_BYTE_PTR)&pms
 1210              		.loc 1 218 0 is_stmt 1
 1211 0220 BC7F     		ldrb	r4, [r7, #30]	@ zero_extendqisi2
 1212 0222 BB69     		ldr	r3, [r7, #24]
 1213 0224 1F33     		adds	r3, r3, #31
 1214 0226 1846     		mov	r0, r3
 1215 0228 0521     		movs	r1, #5
 1216 022a FFF7FEFF 		bl	LSDBCDBUFF2HEX
 1217 022e 0246     		mov	r2, r0
 1218 0230 274B     		ldr	r3, .L40+16
 1219 0232 A3FB0223 		umull	r2, r3, r3, r2
 1220 0236 DB08     		lsrs	r3, r3, #3
 1221 0238 99B2     		uxth	r1, r3
 1222 023a 234A     		ldr	r2, .L40+8
 1223 023c 4FF41963 		mov	r3, #2448
 1224 0240 03FB04F3 		mul	r3, r3, r4
 1225 0244 1344     		add	r3, r3, r2
 1226 0246 03F51763 		add	r3, r3, #2416
 1227 024a 0A46     		mov	r2, r1	@ movhi
 1228 024c 9A80     		strh	r2, [r3, #4]	@ movhi
 1229 024e 12E0     		b	.L35
 1230              	.L34:
 219:.\RFServerStackImpl.c ****                 else
 220:.\RFServerStackImpl.c ****                     _g_pumps[index]._authorizationinfo._price = LSDBCDBUFF2HEX((PNEAR_BYTE_PTR)&pms
 1231              		.loc 1 220 0
 1232 0250 BC7F     		ldrb	r4, [r7, #30]	@ zero_extendqisi2
 1233 0252 BB69     		ldr	r3, [r7, #24]
 1234 0254 1F33     		adds	r3, r3, #31
 1235 0256 1846     		mov	r0, r3
 1236 0258 0521     		movs	r1, #5
 1237 025a FFF7FEFF 		bl	LSDBCDBUFF2HEX
 1238 025e 0346     		mov	r3, r0
 1239 0260 99B2     		uxth	r1, r3
 1240 0262 194A     		ldr	r2, .L40+8
 1241 0264 4FF41963 		mov	r3, #2448
 1242 0268 03FB04F3 		mul	r3, r3, r4
 1243 026c 1344     		add	r3, r3, r2
ARM GAS  C:\Users\RECEPC~1\AppData\Local\Temp\cc5EIyCe.s 			page 27


 1244 026e 03F51763 		add	r3, r3, #2416
 1245 0272 0A46     		mov	r2, r1	@ movhi
 1246 0274 9A80     		strh	r2, [r3, #4]	@ movhi
 1247              	.L35:
 221:.\RFServerStackImpl.c ****                                 
 222:.\RFServerStackImpl.c ****                 if(pdisplay)
 1248              		.loc 1 222 0
 1249 0276 FB68     		ldr	r3, [r7, #12]
 1250 0278 002B     		cmp	r3, #0
 1251 027a 1DD0     		beq	.L36
 223:.\RFServerStackImpl.c ****                 {
 224:.\RFServerStackImpl.c ****                     if(_g_pumps[index]._authorizationinfo._authorized)
 1252              		.loc 1 224 0
 1253 027c BB7F     		ldrb	r3, [r7, #30]	@ zero_extendqisi2
 1254 027e 124A     		ldr	r2, .L40+8
 1255 0280 4FF41961 		mov	r1, #2448
 1256 0284 01FB03F3 		mul	r3, r1, r3
 1257 0288 1344     		add	r3, r3, r2
 1258 028a 03F51763 		add	r3, r3, #2416
 1259 028e 1B78     		ldrb	r3, [r3]
 1260 0290 DBB2     		uxtb	r3, r3
 1261 0292 002B     		cmp	r3, #0
 1262 0294 03D0     		beq	.L37
 225:.\RFServerStackImpl.c ****                         pdisplay->_currentstate = DISPLAY_CREDIT_AUTHORIZATION_ACCEPTED;
 1263              		.loc 1 225 0
 1264 0296 FB68     		ldr	r3, [r7, #12]
 1265 0298 A022     		movs	r2, #160
 1266 029a 1A71     		strb	r2, [r3, #4]
 1267 029c 0CE0     		b	.L36
 1268              	.L37:
 226:.\RFServerStackImpl.c ****                     else
 227:.\RFServerStackImpl.c ****                     {
 228:.\RFServerStackImpl.c ****                         pdisplay->_currentstate = DISPLAY_CREDIT_AUTHORIZATION_REJECTED;
 1269              		.loc 1 228 0
 1270 029e FB68     		ldr	r3, [r7, #12]
 1271 02a0 A122     		movs	r2, #161
 1272 02a2 1A71     		strb	r2, [r3, #4]
 229:.\RFServerStackImpl.c ****                         _g_pumps[index]._pumprftransstate = RF_IDLE;
 1273              		.loc 1 229 0
 1274 02a4 BB7F     		ldrb	r3, [r7, #30]	@ zero_extendqisi2
 1275 02a6 084A     		ldr	r2, .L40+8
 1276 02a8 4FF41961 		mov	r1, #2448
 1277 02ac 01FB03F3 		mul	r3, r1, r3
 1278 02b0 1344     		add	r3, r3, r2
 1279 02b2 0833     		adds	r3, r3, #8
 1280 02b4 0822     		movs	r2, #8
 1281 02b6 9A71     		strb	r2, [r3, #6]
 1282              	.L36:
 230:.\RFServerStackImpl.c ****                     }
 231:.\RFServerStackImpl.c ****                 }
 232:.\RFServerStackImpl.c ****                 
 233:.\RFServerStackImpl.c ****                 retval = true;
 1283              		.loc 1 233 0
 1284 02b8 0123     		movs	r3, #1
 1285 02ba FB77     		strb	r3, [r7, #31]
 234:.\RFServerStackImpl.c ****                 break;
 1286              		.loc 1 234 0
ARM GAS  C:\Users\RECEPC~1\AppData\Local\Temp\cc5EIyCe.s 			page 28


 1287 02bc 13E0     		b	.L38
 1288              	.L41:
 1289 02be 00BF     		.align	2
 1290              	.L40:
 1291 02c0 00000000 		.word	_g_rfslaveheader
 1292 02c4 00000000 		.word	_g_stationidentifier
 1293 02c8 00000000 		.word	_g_pumps
 1294 02cc 00000000 		.word	_g_dispenserlayoutinfo
 1295 02d0 CDCCCCCC 		.word	-858993459
 1296              	.L33:
 1297              	.LBE11:
 203:.\RFServerStackImpl.c ****         {
 1298              		.loc 1 203 0 discriminator 2
 1299 02d4 BB7F     		ldrb	r3, [r7, #30]	@ zero_extendqisi2
 1300 02d6 0133     		adds	r3, r3, #1
 1301 02d8 BB77     		strb	r3, [r7, #30]
 1302              	.L32:
 203:.\RFServerStackImpl.c ****         {
 1303              		.loc 1 203 0 is_stmt 0 discriminator 1
 1304 02da 484B     		ldr	r3, .L42
 1305 02dc 9B78     		ldrb	r3, [r3, #2]	@ zero_extendqisi2
 1306 02de BA7F     		ldrb	r2, [r7, #30]	@ zero_extendqisi2
 1307 02e0 9A42     		cmp	r2, r3
 1308 02e2 FFF43DAF 		bcc	.L39
 1309              	.L38:
 235:.\RFServerStackImpl.c ****             }
 236:.\RFServerStackImpl.c ****         }
 237:.\RFServerStackImpl.c ****         if(retval)
 1310              		.loc 1 237 0 is_stmt 1
 1311 02e6 FB7F     		ldrb	r3, [r7, #31]	@ zero_extendqisi2
 1312 02e8 002B     		cmp	r3, #0
 1313 02ea 00F08280 		beq	.L28
 1314              	.LBB12:
 238:.\RFServerStackImpl.c ****         {
 239:.\RFServerStackImpl.c ****             PUARTMESSAGEPTR puartdisp = GetUARTMessageSlot(UART_RF);
 1315              		.loc 1 239 0
 1316 02ee A020     		movs	r0, #160
 1317 02f0 FFF7FEFF 		bl	GetUARTMessageSlot
 1318 02f4 B860     		str	r0, [r7, #8]
 240:.\RFServerStackImpl.c ****             if(puartdisp)
 1319              		.loc 1 240 0
 1320 02f6 BB68     		ldr	r3, [r7, #8]
 1321 02f8 002B     		cmp	r3, #0
 1322 02fa 7AD0     		beq	.L28
 241:.\RFServerStackImpl.c ****             {
 242:.\RFServerStackImpl.c ****                 puartdisp->_messagelength = 0;
 1323              		.loc 1 242 0
 1324 02fc BB68     		ldr	r3, [r7, #8]
 1325 02fe 0022     		movs	r2, #0
 1326 0300 5A80     		strh	r2, [r3, #2]	@ movhi
 243:.\RFServerStackImpl.c ****                 memset(puartdisp->_messagetx, 0x00, sizeof(puartdisp->_messagetx));
 1327              		.loc 1 243 0
 1328 0302 BB68     		ldr	r3, [r7, #8]
 1329 0304 0433     		adds	r3, r3, #4
 1330 0306 1846     		mov	r0, r3
 1331 0308 0021     		movs	r1, #0
 1332 030a 4FF48072 		mov	r2, #256
ARM GAS  C:\Users\RECEPC~1\AppData\Local\Temp\cc5EIyCe.s 			page 29


 1333 030e FFF7FEFF 		bl	memset
 244:.\RFServerStackImpl.c ****                 memcpy(puartdisp->_messagetx, _g_rfslaveheader, 0x03); //Explicit buffer length to 
 1334              		.loc 1 244 0
 1335 0312 BB68     		ldr	r3, [r7, #8]
 1336 0314 0433     		adds	r3, r3, #4
 1337 0316 3A4A     		ldr	r2, .L42+4
 1338 0318 1188     		ldrh	r1, [r2]	@ unaligned
 1339 031a 9278     		ldrb	r2, [r2, #2]
 1340 031c 1980     		strh	r1, [r3]	@ unaligned
 1341 031e 9A70     		strb	r2, [r3, #2]
 245:.\RFServerStackImpl.c ****                 puartdisp->_messagelength += 0x03;
 1342              		.loc 1 245 0
 1343 0320 BB68     		ldr	r3, [r7, #8]
 1344 0322 5B88     		ldrh	r3, [r3, #2]	@ movhi
 1345 0324 9BB2     		uxth	r3, r3
 1346 0326 0333     		adds	r3, r3, #3
 1347 0328 9AB2     		uxth	r2, r3
 1348 032a BB68     		ldr	r3, [r7, #8]
 1349 032c 5A80     		strh	r2, [r3, #2]	@ movhi
 246:.\RFServerStackImpl.c ****                 puartdisp->_messagetx[puartdisp->_messagelength++] = (uint8)(_g_stationidentifier &
 1350              		.loc 1 246 0
 1351 032e BB68     		ldr	r3, [r7, #8]
 1352 0330 5B88     		ldrh	r3, [r3, #2]	@ movhi
 1353 0332 9BB2     		uxth	r3, r3
 1354 0334 5A1C     		adds	r2, r3, #1
 1355 0336 91B2     		uxth	r1, r2
 1356 0338 BA68     		ldr	r2, [r7, #8]
 1357 033a 5180     		strh	r1, [r2, #2]	@ movhi
 1358 033c 1946     		mov	r1, r3
 1359 033e 314B     		ldr	r3, .L42+8
 1360 0340 1B88     		ldrh	r3, [r3]
 1361 0342 DAB2     		uxtb	r2, r3
 1362 0344 BB68     		ldr	r3, [r7, #8]
 1363 0346 0B44     		add	r3, r3, r1
 1364 0348 1A71     		strb	r2, [r3, #4]
 247:.\RFServerStackImpl.c ****                 puartdisp->_messagetx[puartdisp->_messagelength++] = (uint8)((_g_stationidentifier 
 1365              		.loc 1 247 0
 1366 034a BB68     		ldr	r3, [r7, #8]
 1367 034c 5B88     		ldrh	r3, [r3, #2]	@ movhi
 1368 034e 9BB2     		uxth	r3, r3
 1369 0350 5A1C     		adds	r2, r3, #1
 1370 0352 91B2     		uxth	r1, r2
 1371 0354 BA68     		ldr	r2, [r7, #8]
 1372 0356 5180     		strh	r1, [r2, #2]	@ movhi
 1373 0358 1946     		mov	r1, r3
 1374 035a 2A4B     		ldr	r3, .L42+8
 1375 035c 1B88     		ldrh	r3, [r3]
 1376 035e 1B0A     		lsrs	r3, r3, #8
 1377 0360 9BB2     		uxth	r3, r3
 1378 0362 DAB2     		uxtb	r2, r3
 1379 0364 BB68     		ldr	r3, [r7, #8]
 1380 0366 0B44     		add	r3, r3, r1
 1381 0368 1A71     		strb	r2, [r3, #4]
 248:.\RFServerStackImpl.c ****                 puartdisp->_messagetx[puartdisp->_messagelength++] = pmsg->_buffer[_RF_STREAM_POSIT
 1382              		.loc 1 248 0
 1383 036a BB68     		ldr	r3, [r7, #8]
 1384 036c 5B88     		ldrh	r3, [r3, #2]	@ movhi
ARM GAS  C:\Users\RECEPC~1\AppData\Local\Temp\cc5EIyCe.s 			page 30


 1385 036e 9BB2     		uxth	r3, r3
 1386 0370 5A1C     		adds	r2, r3, #1
 1387 0372 91B2     		uxth	r1, r2
 1388 0374 BA68     		ldr	r2, [r7, #8]
 1389 0376 5180     		strh	r1, [r2, #2]	@ movhi
 1390 0378 1946     		mov	r1, r3
 1391 037a BB69     		ldr	r3, [r7, #24]
 1392 037c 5A7C     		ldrb	r2, [r3, #17]	@ zero_extendqisi2
 1393 037e BB68     		ldr	r3, [r7, #8]
 1394 0380 0B44     		add	r3, r3, r1
 1395 0382 1A71     		strb	r2, [r3, #4]
 249:.\RFServerStackImpl.c ****                 puartdisp->_messagetx[puartdisp->_messagelength++] = pmsg->_buffer[_RF_STREAM_COMMA
 1396              		.loc 1 249 0
 1397 0384 BB68     		ldr	r3, [r7, #8]
 1398 0386 5B88     		ldrh	r3, [r3, #2]	@ movhi
 1399 0388 9BB2     		uxth	r3, r3
 1400 038a 5A1C     		adds	r2, r3, #1
 1401 038c 91B2     		uxth	r1, r2
 1402 038e BA68     		ldr	r2, [r7, #8]
 1403 0390 5180     		strh	r1, [r2, #2]	@ movhi
 1404 0392 1946     		mov	r1, r3
 1405 0394 BB69     		ldr	r3, [r7, #24]
 1406 0396 9A7C     		ldrb	r2, [r3, #18]	@ zero_extendqisi2
 1407 0398 BB68     		ldr	r3, [r7, #8]
 1408 039a 0B44     		add	r3, r3, r1
 1409 039c 1A71     		strb	r2, [r3, #4]
 250:.\RFServerStackImpl.c ****                 puartdisp->_messagetx[puartdisp->_messagelength++] = _RF_ACK_;
 1410              		.loc 1 250 0
 1411 039e BB68     		ldr	r3, [r7, #8]
 1412 03a0 5B88     		ldrh	r3, [r3, #2]	@ movhi
 1413 03a2 9BB2     		uxth	r3, r3
 1414 03a4 5A1C     		adds	r2, r3, #1
 1415 03a6 91B2     		uxth	r1, r2
 1416 03a8 BA68     		ldr	r2, [r7, #8]
 1417 03aa 5180     		strh	r1, [r2, #2]	@ movhi
 1418 03ac 1A46     		mov	r2, r3
 1419 03ae BB68     		ldr	r3, [r7, #8]
 1420 03b0 1344     		add	r3, r3, r2
 1421 03b2 0322     		movs	r2, #3
 1422 03b4 1A71     		strb	r2, [r3, #4]
 251:.\RFServerStackImpl.c ****                 puartdisp->_messagetx[puartdisp->_messagelength] = RawCRCCheck((PSTR)puartdisp->_me
 1423              		.loc 1 251 0
 1424 03b6 BB68     		ldr	r3, [r7, #8]
 1425 03b8 5B88     		ldrh	r3, [r3, #2]	@ movhi
 1426 03ba 9BB2     		uxth	r3, r3
 1427 03bc 1C46     		mov	r4, r3
 1428 03be BB68     		ldr	r3, [r7, #8]
 1429 03c0 1A1D     		adds	r2, r3, #4
 1430 03c2 BB68     		ldr	r3, [r7, #8]
 1431 03c4 5B88     		ldrh	r3, [r3, #2]	@ movhi
 1432 03c6 9BB2     		uxth	r3, r3
 1433 03c8 013B     		subs	r3, r3, #1
 1434 03ca 9BB2     		uxth	r3, r3
 1435 03cc 1046     		mov	r0, r2
 1436 03ce 1946     		mov	r1, r3
 1437 03d0 FFF7FEFF 		bl	RawCRCCheck
 1438 03d4 0346     		mov	r3, r0
ARM GAS  C:\Users\RECEPC~1\AppData\Local\Temp\cc5EIyCe.s 			page 31


 1439 03d6 1A46     		mov	r2, r3
 1440 03d8 BB68     		ldr	r3, [r7, #8]
 1441 03da 2344     		add	r3, r3, r4
 1442 03dc 1A71     		strb	r2, [r3, #4]
 252:.\RFServerStackImpl.c ****                 puartdisp->_messagelength++;
 1443              		.loc 1 252 0
 1444 03de BB68     		ldr	r3, [r7, #8]
 1445 03e0 5B88     		ldrh	r3, [r3, #2]	@ movhi
 1446 03e2 9BB2     		uxth	r3, r3
 1447 03e4 0133     		adds	r3, r3, #1
 1448 03e6 9AB2     		uxth	r2, r3
 1449 03e8 BB68     		ldr	r3, [r7, #8]
 1450 03ea 5A80     		strh	r2, [r3, #2]	@ movhi
 253:.\RFServerStackImpl.c **** 
 254:.\RFServerStackImpl.c ****                 puartdisp->_messagestate = PENDING;
 1451              		.loc 1 254 0
 1452 03ec BB68     		ldr	r3, [r7, #8]
 1453 03ee C222     		movs	r2, #194
 1454 03f0 1A70     		strb	r2, [r3]
 1455              	.L28:
 1456              	.LBE12:
 1457              	.LBE9:
 255:.\RFServerStackImpl.c ****             }
 256:.\RFServerStackImpl.c ****         }
 257:.\RFServerStackImpl.c ****         
 258:.\RFServerStackImpl.c ****     }
 259:.\RFServerStackImpl.c ****     return retval;
 1458              		.loc 1 259 0
 1459 03f2 FB7F     		ldrb	r3, [r7, #31]	@ zero_extendqisi2
 1460              	.L31:
 260:.\RFServerStackImpl.c **** }
 1461              		.loc 1 260 0
 1462 03f4 1846     		mov	r0, r3
 1463 03f6 2437     		adds	r7, r7, #36
 1464              		.cfi_def_cfa_offset 12
 1465 03f8 BD46     		mov	sp, r7
 1466              		.cfi_def_cfa_register 13
 1467              		@ sp needed
 1468 03fa 90BD     		pop	{r4, r7, pc}
 1469              	.L43:
 1470              		.align	2
 1471              	.L42:
 1472 03fc 00000000 		.word	_g_dispenserlayoutinfo
 1473 0400 00000000 		.word	_g_rfslaveheader
 1474 0404 00000000 		.word	_g_stationidentifier
 1475              		.cfi_endproc
 1476              	.LFE65:
 1477              		.size	RFCreditAuthorizationReqResp, .-RFCreditAuthorizationReqResp
 1478              		.section	.text.RFCreditSalePresetReportReqResp,"ax",%progbits
 1479              		.align	2
 1480              		.global	RFCreditSalePresetReportReqResp
 1481              		.thumb
 1482              		.thumb_func
 1483              		.type	RFCreditSalePresetReportReqResp, %function
 1484              	RFCreditSalePresetReportReqResp:
 1485              	.LFB66:
 261:.\RFServerStackImpl.c **** 
ARM GAS  C:\Users\RECEPC~1\AppData\Local\Temp\cc5EIyCe.s 			page 32


 262:.\RFServerStackImpl.c **** bool RFCreditSalePresetReportReqResp(void *pparam)
 263:.\RFServerStackImpl.c **** {
 1486              		.loc 1 263 0
 1487              		.cfi_startproc
 1488              		@ args = 0, pretend = 0, frame = 24
 1489              		@ frame_needed = 1, uses_anonymous_args = 0
 1490 0000 90B5     		push	{r4, r7, lr}
 1491              		.cfi_def_cfa_offset 12
 1492              		.cfi_offset 4, -12
 1493              		.cfi_offset 7, -8
 1494              		.cfi_offset 14, -4
 1495 0002 87B0     		sub	sp, sp, #28
 1496              		.cfi_def_cfa_offset 40
 1497 0004 00AF     		add	r7, sp, #0
 1498              		.cfi_def_cfa_register 7
 1499 0006 7860     		str	r0, [r7, #4]
 264:.\RFServerStackImpl.c ****     bool retval = true;
 1500              		.loc 1 264 0
 1501 0008 0123     		movs	r3, #1
 1502 000a BB75     		strb	r3, [r7, #22]
 265:.\RFServerStackImpl.c ****     PSINKMESSAGEPTR pmsg = (PSINKMESSAGEPTR)pparam;
 1503              		.loc 1 265 0
 1504 000c 7B68     		ldr	r3, [r7, #4]
 1505 000e 3B61     		str	r3, [r7, #16]
 266:.\RFServerStackImpl.c ****     if(pmsg)
 1506              		.loc 1 266 0
 1507 0010 3B69     		ldr	r3, [r7, #16]
 1508 0012 002B     		cmp	r3, #0
 1509 0014 00F0E180 		beq	.L45
 1510              	.LBB13:
 267:.\RFServerStackImpl.c ****     {
 268:.\RFServerStackImpl.c ****         FOR(uint8 index = 0x00, index < _g_dispenserlayoutinfo._numpositions, index++)
 1511              		.loc 1 268 0
 1512 0018 0023     		movs	r3, #0
 1513 001a FB75     		strb	r3, [r7, #23]
 1514 001c D7E0     		b	.L46
 1515              	.L49:
 269:.\RFServerStackImpl.c ****         {
 270:.\RFServerStackImpl.c ****             if(_g_pumps[index]._pumpid  == (pmsg->_buffer[_RF_STREAM_POSITION_INDEX_] - _g_dispense
 1516              		.loc 1 270 0
 1517 001e FB7D     		ldrb	r3, [r7, #23]	@ zero_extendqisi2
 1518 0020 704A     		ldr	r2, .L51
 1519 0022 4FF41961 		mov	r1, #2448
 1520 0026 01FB03F3 		mul	r3, r1, r3
 1521 002a 1344     		add	r3, r3, r2
 1522 002c 1B78     		ldrb	r3, [r3]	@ zero_extendqisi2
 1523 002e 1A46     		mov	r2, r3
 1524 0030 3B69     		ldr	r3, [r7, #16]
 1525 0032 5B7C     		ldrb	r3, [r3, #17]	@ zero_extendqisi2
 1526 0034 1946     		mov	r1, r3
 1527 0036 6C4B     		ldr	r3, .L51+4
 1528 0038 9B7C     		ldrb	r3, [r3, #18]	@ zero_extendqisi2
 1529 003a CB1A     		subs	r3, r1, r3
 1530 003c 9A42     		cmp	r2, r3
 1531 003e 40F0C380 		bne	.L47
 1532              	.LBB14:
 271:.\RFServerStackImpl.c ****             {
ARM GAS  C:\Users\RECEPC~1\AppData\Local\Temp\cc5EIyCe.s 			page 33


 272:.\RFServerStackImpl.c ****                 //We always pick the top most item from the Pump Transactional Queue
 273:.\RFServerStackImpl.c ****                 _g_pumps[index].PumpTransQueueLock(&_g_pumps[index]);
 1533              		.loc 1 273 0
 1534 0042 FB7D     		ldrb	r3, [r7, #23]	@ zero_extendqisi2
 1535 0044 674A     		ldr	r2, .L51
 1536 0046 4FF41961 		mov	r1, #2448
 1537 004a 01FB03F3 		mul	r3, r1, r3
 1538 004e 1344     		add	r3, r3, r2
 1539 0050 03F60813 		addw	r3, r3, #2312
 1540 0054 5B68     		ldr	r3, [r3, #4]
 1541 0056 FA7D     		ldrb	r2, [r7, #23]	@ zero_extendqisi2
 1542 0058 4FF41961 		mov	r1, #2448
 1543 005c 01FB02F2 		mul	r2, r1, r2
 1544 0060 6049     		ldr	r1, .L51
 1545 0062 0A44     		add	r2, r2, r1
 1546 0064 1046     		mov	r0, r2
 1547 0066 9847     		blx	r3
 274:.\RFServerStackImpl.c ****                 PNEAR_PUMPTRANSACTIONALSTATEPTR pumptrans = _g_pumps[index].PumpTransQueueDequeue(&
 1548              		.loc 1 274 0
 1549 0068 FB7D     		ldrb	r3, [r7, #23]	@ zero_extendqisi2
 1550 006a 5E4A     		ldr	r2, .L51
 1551 006c 4FF41961 		mov	r1, #2448
 1552 0070 01FB03F3 		mul	r3, r1, r3
 1553 0074 1344     		add	r3, r3, r2
 1554 0076 03F51263 		add	r3, r3, #2336
 1555 007a 5B68     		ldr	r3, [r3, #4]
 1556 007c FA7D     		ldrb	r2, [r7, #23]	@ zero_extendqisi2
 1557 007e 4FF41961 		mov	r1, #2448
 1558 0082 01FB02F2 		mul	r2, r1, r2
 1559 0086 5749     		ldr	r1, .L51
 1560 0088 0A44     		add	r2, r2, r1
 1561 008a 1046     		mov	r0, r2
 1562 008c 9847     		blx	r3
 1563 008e F860     		str	r0, [r7, #12]
 275:.\RFServerStackImpl.c ****                 //USED ONLY FOR TRANSACTIONAL STATE CONSISTENCY
 276:.\RFServerStackImpl.c ****                 PUARTMESSAGEPTR puartdisp = GetUARTMessageSlot(UART_RF);
 1564              		.loc 1 276 0
 1565 0090 A020     		movs	r0, #160
 1566 0092 FFF7FEFF 		bl	GetUARTMessageSlot
 1567 0096 B860     		str	r0, [r7, #8]
 277:.\RFServerStackImpl.c ****                 if(puartdisp)
 1568              		.loc 1 277 0
 1569 0098 BB68     		ldr	r3, [r7, #8]
 1570 009a 002B     		cmp	r3, #0
 1571 009c 6DD0     		beq	.L48
 278:.\RFServerStackImpl.c ****                 {
 279:.\RFServerStackImpl.c ****                     puartdisp->_messagelength = 0;
 1572              		.loc 1 279 0
 1573 009e BB68     		ldr	r3, [r7, #8]
 1574 00a0 0022     		movs	r2, #0
 1575 00a2 5A80     		strh	r2, [r3, #2]	@ movhi
 280:.\RFServerStackImpl.c ****                     memset(puartdisp->_messagetx, 0x00, sizeof(puartdisp->_messagetx));
 1576              		.loc 1 280 0
 1577 00a4 BB68     		ldr	r3, [r7, #8]
 1578 00a6 0433     		adds	r3, r3, #4
 1579 00a8 1846     		mov	r0, r3
 1580 00aa 0021     		movs	r1, #0
ARM GAS  C:\Users\RECEPC~1\AppData\Local\Temp\cc5EIyCe.s 			page 34


 1581 00ac 4FF48072 		mov	r2, #256
 1582 00b0 FFF7FEFF 		bl	memset
 281:.\RFServerStackImpl.c ****                     memcpy(puartdisp->_messagetx, _g_rfslaveheader, 0x03); //Explicit buffer length
 1583              		.loc 1 281 0
 1584 00b4 BB68     		ldr	r3, [r7, #8]
 1585 00b6 0433     		adds	r3, r3, #4
 1586 00b8 4C4A     		ldr	r2, .L51+8
 1587 00ba 1188     		ldrh	r1, [r2]	@ unaligned
 1588 00bc 9278     		ldrb	r2, [r2, #2]
 1589 00be 1980     		strh	r1, [r3]	@ unaligned
 1590 00c0 9A70     		strb	r2, [r3, #2]
 282:.\RFServerStackImpl.c ****                     puartdisp->_messagelength += 0x03;
 1591              		.loc 1 282 0
 1592 00c2 BB68     		ldr	r3, [r7, #8]
 1593 00c4 5B88     		ldrh	r3, [r3, #2]	@ movhi
 1594 00c6 9BB2     		uxth	r3, r3
 1595 00c8 0333     		adds	r3, r3, #3
 1596 00ca 9AB2     		uxth	r2, r3
 1597 00cc BB68     		ldr	r3, [r7, #8]
 1598 00ce 5A80     		strh	r2, [r3, #2]	@ movhi
 283:.\RFServerStackImpl.c ****                     puartdisp->_messagetx[puartdisp->_messagelength++] = (uint8)(_g_stationidentifi
 1599              		.loc 1 283 0
 1600 00d0 BB68     		ldr	r3, [r7, #8]
 1601 00d2 5B88     		ldrh	r3, [r3, #2]	@ movhi
 1602 00d4 9BB2     		uxth	r3, r3
 1603 00d6 5A1C     		adds	r2, r3, #1
 1604 00d8 91B2     		uxth	r1, r2
 1605 00da BA68     		ldr	r2, [r7, #8]
 1606 00dc 5180     		strh	r1, [r2, #2]	@ movhi
 1607 00de 1946     		mov	r1, r3
 1608 00e0 434B     		ldr	r3, .L51+12
 1609 00e2 1B88     		ldrh	r3, [r3]
 1610 00e4 DAB2     		uxtb	r2, r3
 1611 00e6 BB68     		ldr	r3, [r7, #8]
 1612 00e8 0B44     		add	r3, r3, r1
 1613 00ea 1A71     		strb	r2, [r3, #4]
 284:.\RFServerStackImpl.c ****                     puartdisp->_messagetx[puartdisp->_messagelength++] = (uint8)((_g_stationidentif
 1614              		.loc 1 284 0
 1615 00ec BB68     		ldr	r3, [r7, #8]
 1616 00ee 5B88     		ldrh	r3, [r3, #2]	@ movhi
 1617 00f0 9BB2     		uxth	r3, r3
 1618 00f2 5A1C     		adds	r2, r3, #1
 1619 00f4 91B2     		uxth	r1, r2
 1620 00f6 BA68     		ldr	r2, [r7, #8]
 1621 00f8 5180     		strh	r1, [r2, #2]	@ movhi
 1622 00fa 1946     		mov	r1, r3
 1623 00fc 3C4B     		ldr	r3, .L51+12
 1624 00fe 1B88     		ldrh	r3, [r3]
 1625 0100 1B0A     		lsrs	r3, r3, #8
 1626 0102 9BB2     		uxth	r3, r3
 1627 0104 DAB2     		uxtb	r2, r3
 1628 0106 BB68     		ldr	r3, [r7, #8]
 1629 0108 0B44     		add	r3, r3, r1
 1630 010a 1A71     		strb	r2, [r3, #4]
 285:.\RFServerStackImpl.c ****                     puartdisp->_messagetx[puartdisp->_messagelength++] = pmsg->_buffer[_RF_STREAM_P
 1631              		.loc 1 285 0
 1632 010c BB68     		ldr	r3, [r7, #8]
ARM GAS  C:\Users\RECEPC~1\AppData\Local\Temp\cc5EIyCe.s 			page 35


 1633 010e 5B88     		ldrh	r3, [r3, #2]	@ movhi
 1634 0110 9BB2     		uxth	r3, r3
 1635 0112 5A1C     		adds	r2, r3, #1
 1636 0114 91B2     		uxth	r1, r2
 1637 0116 BA68     		ldr	r2, [r7, #8]
 1638 0118 5180     		strh	r1, [r2, #2]	@ movhi
 1639 011a 1946     		mov	r1, r3
 1640 011c 3B69     		ldr	r3, [r7, #16]
 1641 011e 5A7C     		ldrb	r2, [r3, #17]	@ zero_extendqisi2
 1642 0120 BB68     		ldr	r3, [r7, #8]
 1643 0122 0B44     		add	r3, r3, r1
 1644 0124 1A71     		strb	r2, [r3, #4]
 286:.\RFServerStackImpl.c ****                     puartdisp->_messagetx[puartdisp->_messagelength++] = RF_MUX_CREDIT_PRESET_NOTIF
 1645              		.loc 1 286 0
 1646 0126 BB68     		ldr	r3, [r7, #8]
 1647 0128 5B88     		ldrh	r3, [r3, #2]	@ movhi
 1648 012a 9BB2     		uxth	r3, r3
 1649 012c 5A1C     		adds	r2, r3, #1
 1650 012e 91B2     		uxth	r1, r2
 1651 0130 BA68     		ldr	r2, [r7, #8]
 1652 0132 5180     		strh	r1, [r2, #2]	@ movhi
 1653 0134 1A46     		mov	r2, r3
 1654 0136 BB68     		ldr	r3, [r7, #8]
 1655 0138 1344     		add	r3, r3, r2
 1656 013a AE22     		movs	r2, #174
 1657 013c 1A71     		strb	r2, [r3, #4]
 287:.\RFServerStackImpl.c ****                     puartdisp->_messagetx[puartdisp->_messagelength] = RawCRCCheck((PSTR)puartdisp-
 1658              		.loc 1 287 0
 1659 013e BB68     		ldr	r3, [r7, #8]
 1660 0140 5B88     		ldrh	r3, [r3, #2]	@ movhi
 1661 0142 9BB2     		uxth	r3, r3
 1662 0144 1C46     		mov	r4, r3
 1663 0146 BB68     		ldr	r3, [r7, #8]
 1664 0148 1A1D     		adds	r2, r3, #4
 1665 014a BB68     		ldr	r3, [r7, #8]
 1666 014c 5B88     		ldrh	r3, [r3, #2]	@ movhi
 1667 014e 9BB2     		uxth	r3, r3
 1668 0150 013B     		subs	r3, r3, #1
 1669 0152 9BB2     		uxth	r3, r3
 1670 0154 1046     		mov	r0, r2
 1671 0156 1946     		mov	r1, r3
 1672 0158 FFF7FEFF 		bl	RawCRCCheck
 1673 015c 0346     		mov	r3, r0
 1674 015e 1A46     		mov	r2, r3
 1675 0160 BB68     		ldr	r3, [r7, #8]
 1676 0162 2344     		add	r3, r3, r4
 1677 0164 1A71     		strb	r2, [r3, #4]
 288:.\RFServerStackImpl.c ****                     puartdisp->_messagelength++;
 1678              		.loc 1 288 0
 1679 0166 BB68     		ldr	r3, [r7, #8]
 1680 0168 5B88     		ldrh	r3, [r3, #2]	@ movhi
 1681 016a 9BB2     		uxth	r3, r3
 1682 016c 0133     		adds	r3, r3, #1
 1683 016e 9AB2     		uxth	r2, r3
 1684 0170 BB68     		ldr	r3, [r7, #8]
 1685 0172 5A80     		strh	r2, [r3, #2]	@ movhi
 289:.\RFServerStackImpl.c **** 
ARM GAS  C:\Users\RECEPC~1\AppData\Local\Temp\cc5EIyCe.s 			page 36


 290:.\RFServerStackImpl.c ****                     puartdisp->_messagestate = PENDING;
 1686              		.loc 1 290 0
 1687 0174 BB68     		ldr	r3, [r7, #8]
 1688 0176 C222     		movs	r2, #194
 1689 0178 1A70     		strb	r2, [r3]
 1690              	.L48:
 291:.\RFServerStackImpl.c ****                 }
 292:.\RFServerStackImpl.c ****                 _g_pumps[index].PumpTransQueueDeallocate(&_g_pumps[index], pumptrans);
 1691              		.loc 1 292 0
 1692 017a FB7D     		ldrb	r3, [r7, #23]	@ zero_extendqisi2
 1693 017c 194A     		ldr	r2, .L51
 1694 017e 4FF41961 		mov	r1, #2448
 1695 0182 01FB03F3 		mul	r3, r1, r3
 1696 0186 1344     		add	r3, r3, r2
 1697 0188 03F61813 		addw	r3, r3, #2328
 1698 018c 5B68     		ldr	r3, [r3, #4]
 1699 018e FA7D     		ldrb	r2, [r7, #23]	@ zero_extendqisi2
 1700 0190 4FF41961 		mov	r1, #2448
 1701 0194 01FB02F2 		mul	r2, r1, r2
 1702 0198 1249     		ldr	r1, .L51
 1703 019a 0A44     		add	r2, r2, r1
 1704 019c 1046     		mov	r0, r2
 1705 019e F968     		ldr	r1, [r7, #12]
 1706 01a0 9847     		blx	r3
 293:.\RFServerStackImpl.c ****                 _g_pumps[index].PumpTransQueueUnlock(&_g_pumps[index]);
 1707              		.loc 1 293 0
 1708 01a2 FB7D     		ldrb	r3, [r7, #23]	@ zero_extendqisi2
 1709 01a4 0F4A     		ldr	r2, .L51
 1710 01a6 4FF41961 		mov	r1, #2448
 1711 01aa 01FB03F3 		mul	r3, r1, r3
 1712 01ae 1344     		add	r3, r3, r2
 1713 01b0 03F51163 		add	r3, r3, #2320
 1714 01b4 1B68     		ldr	r3, [r3]
 1715 01b6 FA7D     		ldrb	r2, [r7, #23]	@ zero_extendqisi2
 1716 01b8 4FF41961 		mov	r1, #2448
 1717 01bc 01FB02F2 		mul	r2, r1, r2
 1718 01c0 0849     		ldr	r1, .L51
 1719 01c2 0A44     		add	r2, r2, r1
 1720 01c4 1046     		mov	r0, r2
 1721 01c6 9847     		blx	r3
 1722              	.L47:
 1723              	.LBE14:
 268:.\RFServerStackImpl.c ****         {
 1724              		.loc 1 268 0 discriminator 2
 1725 01c8 FB7D     		ldrb	r3, [r7, #23]	@ zero_extendqisi2
 1726 01ca 0133     		adds	r3, r3, #1
 1727 01cc FB75     		strb	r3, [r7, #23]
 1728              	.L46:
 268:.\RFServerStackImpl.c ****         {
 1729              		.loc 1 268 0 is_stmt 0 discriminator 1
 1730 01ce 064B     		ldr	r3, .L51+4
 1731 01d0 9B78     		ldrb	r3, [r3, #2]	@ zero_extendqisi2
 1732 01d2 FA7D     		ldrb	r2, [r7, #23]	@ zero_extendqisi2
 1733 01d4 9A42     		cmp	r2, r3
 1734 01d6 FFF422AF 		bcc	.L49
 1735              	.L45:
 1736              	.LBE13:
ARM GAS  C:\Users\RECEPC~1\AppData\Local\Temp\cc5EIyCe.s 			page 37


 294:.\RFServerStackImpl.c ****             }
 295:.\RFServerStackImpl.c ****         }
 296:.\RFServerStackImpl.c ****     }
 297:.\RFServerStackImpl.c ****     return retval;
 1737              		.loc 1 297 0 is_stmt 1
 1738 01da BB7D     		ldrb	r3, [r7, #22]	@ zero_extendqisi2
 298:.\RFServerStackImpl.c **** }
 1739              		.loc 1 298 0
 1740 01dc 1846     		mov	r0, r3
 1741 01de 1C37     		adds	r7, r7, #28
 1742              		.cfi_def_cfa_offset 12
 1743 01e0 BD46     		mov	sp, r7
 1744              		.cfi_def_cfa_register 13
 1745              		@ sp needed
 1746 01e2 90BD     		pop	{r4, r7, pc}
 1747              	.L52:
 1748              		.align	2
 1749              	.L51:
 1750 01e4 00000000 		.word	_g_pumps
 1751 01e8 00000000 		.word	_g_dispenserlayoutinfo
 1752 01ec 00000000 		.word	_g_rfslaveheader
 1753 01f0 00000000 		.word	_g_stationidentifier
 1754              		.cfi_endproc
 1755              	.LFE66:
 1756              		.size	RFCreditSalePresetReportReqResp, .-RFCreditSalePresetReportReqResp
 1757              		.section	.text.RFCashSalePresetReportReqResp,"ax",%progbits
 1758              		.align	2
 1759              		.global	RFCashSalePresetReportReqResp
 1760              		.thumb
 1761              		.thumb_func
 1762              		.type	RFCashSalePresetReportReqResp, %function
 1763              	RFCashSalePresetReportReqResp:
 1764              	.LFB67:
 299:.\RFServerStackImpl.c **** 
 300:.\RFServerStackImpl.c **** //@Created By: HIJH
 301:.\RFServerStackImpl.c **** //@Septembre de 2016
 302:.\RFServerStackImpl.c **** bool RFCashSalePresetReportReqResp(void *pparam)
 303:.\RFServerStackImpl.c **** {
 1765              		.loc 1 303 0
 1766              		.cfi_startproc
 1767              		@ args = 0, pretend = 0, frame = 32
 1768              		@ frame_needed = 1, uses_anonymous_args = 0
 1769 0000 B0B5     		push	{r4, r5, r7, lr}
 1770              		.cfi_def_cfa_offset 16
 1771              		.cfi_offset 4, -16
 1772              		.cfi_offset 5, -12
 1773              		.cfi_offset 7, -8
 1774              		.cfi_offset 14, -4
 1775 0002 88B0     		sub	sp, sp, #32
 1776              		.cfi_def_cfa_offset 48
 1777 0004 00AF     		add	r7, sp, #0
 1778              		.cfi_def_cfa_register 7
 1779 0006 7860     		str	r0, [r7, #4]
 304:.\RFServerStackImpl.c ****     bool retval = false;
 1780              		.loc 1 304 0
 1781 0008 0023     		movs	r3, #0
 1782 000a FB77     		strb	r3, [r7, #31]
ARM GAS  C:\Users\RECEPC~1\AppData\Local\Temp\cc5EIyCe.s 			page 38


 305:.\RFServerStackImpl.c ****     PSINKMESSAGEPTR pmsg = (PSINKMESSAGEPTR)pparam;
 1783              		.loc 1 305 0
 1784 000c 7B68     		ldr	r3, [r7, #4]
 1785 000e BB61     		str	r3, [r7, #24]
 306:.\RFServerStackImpl.c ****     if(pmsg)
 1786              		.loc 1 306 0
 1787 0010 BB69     		ldr	r3, [r7, #24]
 1788 0012 002B     		cmp	r3, #0
 1789 0014 00F00282 		beq	.L54
 1790              	.LBB15:
 307:.\RFServerStackImpl.c ****     {
 308:.\RFServerStackImpl.c ****         FOR(uint8 index = 0x00, index < _g_dispenserlayoutinfo._numpositions, index++)
 1791              		.loc 1 308 0
 1792 0018 0023     		movs	r3, #0
 1793 001a BB77     		strb	r3, [r7, #30]
 1794 001c 6FE1     		b	.L55
 1795              	.L59:
 309:.\RFServerStackImpl.c ****         {
 310:.\RFServerStackImpl.c ****             if(_g_pumps[index]._pumpid == (pmsg->_buffer[_RF_STREAM_POSITION_INDEX_] - _g_dispenser
 1796              		.loc 1 310 0
 1797 001e BB7F     		ldrb	r3, [r7, #30]	@ zero_extendqisi2
 1798 0020 AB4A     		ldr	r2, .L61
 1799 0022 4FF41961 		mov	r1, #2448
 1800 0026 01FB03F3 		mul	r3, r1, r3
 1801 002a 1344     		add	r3, r3, r2
 1802 002c 1B78     		ldrb	r3, [r3]	@ zero_extendqisi2
 1803 002e 1A46     		mov	r2, r3
 1804 0030 BB69     		ldr	r3, [r7, #24]
 1805 0032 5B7C     		ldrb	r3, [r3, #17]	@ zero_extendqisi2
 1806 0034 1946     		mov	r1, r3
 1807 0036 A74B     		ldr	r3, .L61+4
 1808 0038 9B7C     		ldrb	r3, [r3, #18]	@ zero_extendqisi2
 1809 003a CB1A     		subs	r3, r1, r3
 1810 003c 9A42     		cmp	r2, r3
 1811 003e 40F05B81 		bne	.L56
 1812              	.LBB16:
 311:.\RFServerStackImpl.c ****             {
 312:.\RFServerStackImpl.c ****                 _g_pumps[index].PumpTransQueueLock(&_g_pumps[index]);
 1813              		.loc 1 312 0
 1814 0042 BB7F     		ldrb	r3, [r7, #30]	@ zero_extendqisi2
 1815 0044 A24A     		ldr	r2, .L61
 1816 0046 4FF41961 		mov	r1, #2448
 1817 004a 01FB03F3 		mul	r3, r1, r3
 1818 004e 1344     		add	r3, r3, r2
 1819 0050 03F60813 		addw	r3, r3, #2312
 1820 0054 5B68     		ldr	r3, [r3, #4]
 1821 0056 BA7F     		ldrb	r2, [r7, #30]	@ zero_extendqisi2
 1822 0058 4FF41961 		mov	r1, #2448
 1823 005c 01FB02F2 		mul	r2, r1, r2
 1824 0060 9B49     		ldr	r1, .L61
 1825 0062 0A44     		add	r2, r2, r1
 1826 0064 1046     		mov	r0, r2
 1827 0066 9847     		blx	r3
 313:.\RFServerStackImpl.c ****                 //We always pick the top most item of the Pump's Transactional Queue
 314:.\RFServerStackImpl.c ****                 PNEAR_PUMPTRANSACTIONALSTATEPTR pumptrans = _g_pumps[index].PumpTransQueueDequeue(&
 1828              		.loc 1 314 0
 1829 0068 BB7F     		ldrb	r3, [r7, #30]	@ zero_extendqisi2
ARM GAS  C:\Users\RECEPC~1\AppData\Local\Temp\cc5EIyCe.s 			page 39


 1830 006a 994A     		ldr	r2, .L61
 1831 006c 4FF41961 		mov	r1, #2448
 1832 0070 01FB03F3 		mul	r3, r1, r3
 1833 0074 1344     		add	r3, r3, r2
 1834 0076 03F51263 		add	r3, r3, #2336
 1835 007a 5B68     		ldr	r3, [r3, #4]
 1836 007c BA7F     		ldrb	r2, [r7, #30]	@ zero_extendqisi2
 1837 007e 4FF41961 		mov	r1, #2448
 1838 0082 01FB02F2 		mul	r2, r1, r2
 1839 0086 9249     		ldr	r1, .L61
 1840 0088 0A44     		add	r2, r2, r1
 1841 008a 1046     		mov	r0, r2
 1842 008c 9847     		blx	r3
 1843 008e 7861     		str	r0, [r7, #20]
 315:.\RFServerStackImpl.c ****                 PUARTMESSAGEPTR puartdisp = GetUARTMessageSlot(UART_RF);
 1844              		.loc 1 315 0
 1845 0090 A020     		movs	r0, #160
 1846 0092 FFF7FEFF 		bl	GetUARTMessageSlot
 1847 0096 3861     		str	r0, [r7, #16]
 316:.\RFServerStackImpl.c ****                 if(puartdisp)
 1848              		.loc 1 316 0
 1849 0098 3B69     		ldr	r3, [r7, #16]
 1850 009a 002B     		cmp	r3, #0
 1851 009c 00F0F980 		beq	.L57
 317:.\RFServerStackImpl.c ****                 {
 318:.\RFServerStackImpl.c ****                     puartdisp->_messagelength = 0;
 1852              		.loc 1 318 0
 1853 00a0 3B69     		ldr	r3, [r7, #16]
 1854 00a2 0022     		movs	r2, #0
 1855 00a4 5A80     		strh	r2, [r3, #2]	@ movhi
 319:.\RFServerStackImpl.c ****                     memset(puartdisp->_messagetx, 0x00, sizeof(puartdisp->_messagetx));
 1856              		.loc 1 319 0
 1857 00a6 3B69     		ldr	r3, [r7, #16]
 1858 00a8 0433     		adds	r3, r3, #4
 1859 00aa 1846     		mov	r0, r3
 1860 00ac 0021     		movs	r1, #0
 1861 00ae 4FF48072 		mov	r2, #256
 1862 00b2 FFF7FEFF 		bl	memset
 320:.\RFServerStackImpl.c ****                     memcpy(puartdisp->_messagetx, _g_rfslaveheader, 0x03); //Explicit buffer length
 1863              		.loc 1 320 0
 1864 00b6 3B69     		ldr	r3, [r7, #16]
 1865 00b8 0433     		adds	r3, r3, #4
 1866 00ba 874A     		ldr	r2, .L61+8
 1867 00bc 1188     		ldrh	r1, [r2]	@ unaligned
 1868 00be 9278     		ldrb	r2, [r2, #2]
 1869 00c0 1980     		strh	r1, [r3]	@ unaligned
 1870 00c2 9A70     		strb	r2, [r3, #2]
 321:.\RFServerStackImpl.c ****                     puartdisp->_messagelength += 0x03;
 1871              		.loc 1 321 0
 1872 00c4 3B69     		ldr	r3, [r7, #16]
 1873 00c6 5B88     		ldrh	r3, [r3, #2]	@ movhi
 1874 00c8 9BB2     		uxth	r3, r3
 1875 00ca 0333     		adds	r3, r3, #3
 1876 00cc 9AB2     		uxth	r2, r3
 1877 00ce 3B69     		ldr	r3, [r7, #16]
 1878 00d0 5A80     		strh	r2, [r3, #2]	@ movhi
 322:.\RFServerStackImpl.c ****                     puartdisp->_messagetx[puartdisp->_messagelength++] = (uint8)(_g_stationidentifi
ARM GAS  C:\Users\RECEPC~1\AppData\Local\Temp\cc5EIyCe.s 			page 40


 1879              		.loc 1 322 0
 1880 00d2 3B69     		ldr	r3, [r7, #16]
 1881 00d4 5B88     		ldrh	r3, [r3, #2]	@ movhi
 1882 00d6 9BB2     		uxth	r3, r3
 1883 00d8 5A1C     		adds	r2, r3, #1
 1884 00da 91B2     		uxth	r1, r2
 1885 00dc 3A69     		ldr	r2, [r7, #16]
 1886 00de 5180     		strh	r1, [r2, #2]	@ movhi
 1887 00e0 1946     		mov	r1, r3
 1888 00e2 7E4B     		ldr	r3, .L61+12
 1889 00e4 1B88     		ldrh	r3, [r3]
 1890 00e6 DAB2     		uxtb	r2, r3
 1891 00e8 3B69     		ldr	r3, [r7, #16]
 1892 00ea 0B44     		add	r3, r3, r1
 1893 00ec 1A71     		strb	r2, [r3, #4]
 323:.\RFServerStackImpl.c ****                     puartdisp->_messagetx[puartdisp->_messagelength++] = (uint8)((_g_stationidentif
 1894              		.loc 1 323 0
 1895 00ee 3B69     		ldr	r3, [r7, #16]
 1896 00f0 5B88     		ldrh	r3, [r3, #2]	@ movhi
 1897 00f2 9BB2     		uxth	r3, r3
 1898 00f4 5A1C     		adds	r2, r3, #1
 1899 00f6 91B2     		uxth	r1, r2
 1900 00f8 3A69     		ldr	r2, [r7, #16]
 1901 00fa 5180     		strh	r1, [r2, #2]	@ movhi
 1902 00fc 1946     		mov	r1, r3
 1903 00fe 774B     		ldr	r3, .L61+12
 1904 0100 1B88     		ldrh	r3, [r3]
 1905 0102 1B0A     		lsrs	r3, r3, #8
 1906 0104 9BB2     		uxth	r3, r3
 1907 0106 DAB2     		uxtb	r2, r3
 1908 0108 3B69     		ldr	r3, [r7, #16]
 1909 010a 0B44     		add	r3, r3, r1
 1910 010c 1A71     		strb	r2, [r3, #4]
 324:.\RFServerStackImpl.c ****                     puartdisp->_messagetx[puartdisp->_messagelength++] = pmsg->_buffer[_RF_STREAM_P
 1911              		.loc 1 324 0
 1912 010e 3B69     		ldr	r3, [r7, #16]
 1913 0110 5B88     		ldrh	r3, [r3, #2]	@ movhi
 1914 0112 9BB2     		uxth	r3, r3
 1915 0114 5A1C     		adds	r2, r3, #1
 1916 0116 91B2     		uxth	r1, r2
 1917 0118 3A69     		ldr	r2, [r7, #16]
 1918 011a 5180     		strh	r1, [r2, #2]	@ movhi
 1919 011c 1946     		mov	r1, r3
 1920 011e BB69     		ldr	r3, [r7, #24]
 1921 0120 5A7C     		ldrb	r2, [r3, #17]	@ zero_extendqisi2
 1922 0122 3B69     		ldr	r3, [r7, #16]
 1923 0124 0B44     		add	r3, r3, r1
 1924 0126 1A71     		strb	r2, [r3, #4]
 325:.\RFServerStackImpl.c ****                     puartdisp->_messagetx[puartdisp->_messagelength++] = pumptrans->_transtate;
 1925              		.loc 1 325 0
 1926 0128 3B69     		ldr	r3, [r7, #16]
 1927 012a 5B88     		ldrh	r3, [r3, #2]	@ movhi
 1928 012c 9BB2     		uxth	r3, r3
 1929 012e 5A1C     		adds	r2, r3, #1
 1930 0130 91B2     		uxth	r1, r2
 1931 0132 3A69     		ldr	r2, [r7, #16]
 1932 0134 5180     		strh	r1, [r2, #2]	@ movhi
ARM GAS  C:\Users\RECEPC~1\AppData\Local\Temp\cc5EIyCe.s 			page 41


 1933 0136 1946     		mov	r1, r3
 1934 0138 7B69     		ldr	r3, [r7, #20]
 1935 013a 5A78     		ldrb	r2, [r3, #1]	@ zero_extendqisi2
 1936 013c 3B69     		ldr	r3, [r7, #16]
 1937 013e 0B44     		add	r3, r3, r1
 1938 0140 1A71     		strb	r2, [r3, #4]
 326:.\RFServerStackImpl.c ****                     puartdisp->_messagetx[puartdisp->_messagelength++] = RFUnmapCommand2State(pumpt
 1939              		.loc 1 326 0
 1940 0142 3B69     		ldr	r3, [r7, #16]
 1941 0144 5B88     		ldrh	r3, [r3, #2]	@ movhi
 1942 0146 9BB2     		uxth	r3, r3
 1943 0148 5A1C     		adds	r2, r3, #1
 1944 014a 91B2     		uxth	r1, r2
 1945 014c 3A69     		ldr	r2, [r7, #16]
 1946 014e 5180     		strh	r1, [r2, #2]	@ movhi
 1947 0150 1C46     		mov	r4, r3
 1948 0152 7B69     		ldr	r3, [r7, #20]
 1949 0154 5B78     		ldrb	r3, [r3, #1]	@ zero_extendqisi2
 1950 0156 1846     		mov	r0, r3
 1951 0158 FFF7FEFF 		bl	RFUnmapCommand2State
 1952 015c 0346     		mov	r3, r0
 1953 015e 1A46     		mov	r2, r3
 1954 0160 3B69     		ldr	r3, [r7, #16]
 1955 0162 2344     		add	r3, r3, r4
 1956 0164 1A71     		strb	r2, [r3, #4]
 327:.\RFServerStackImpl.c ****                     puartdisp->_messagetx[puartdisp->_messagelength++] = 0x00;//ID Grado/Hose not a
 1957              		.loc 1 327 0
 1958 0166 3B69     		ldr	r3, [r7, #16]
 1959 0168 5B88     		ldrh	r3, [r3, #2]	@ movhi
 1960 016a 9BB2     		uxth	r3, r3
 1961 016c 5A1C     		adds	r2, r3, #1
 1962 016e 91B2     		uxth	r1, r2
 1963 0170 3A69     		ldr	r2, [r7, #16]
 1964 0172 5180     		strh	r1, [r2, #2]	@ movhi
 1965 0174 1A46     		mov	r2, r3
 1966 0176 3B69     		ldr	r3, [r7, #16]
 1967 0178 1344     		add	r3, r3, r2
 1968 017a 0022     		movs	r2, #0
 1969 017c 1A71     		strb	r2, [r3, #4]
 328:.\RFServerStackImpl.c ****                     //PRESET type defined on this position (for further details see the function "P
 329:.\RFServerStackImpl.c ****                     puartdisp->_messagetx[puartdisp->_messagelength++] = (pumptrans->_buffer[0x01] 
 1970              		.loc 1 329 0
 1971 017e 3B69     		ldr	r3, [r7, #16]
 1972 0180 5B88     		ldrh	r3, [r3, #2]	@ movhi
 1973 0182 9BB2     		uxth	r3, r3
 1974 0184 5A1C     		adds	r2, r3, #1
 1975 0186 91B2     		uxth	r1, r2
 1976 0188 3A69     		ldr	r2, [r7, #16]
 1977 018a 5180     		strh	r1, [r2, #2]	@ movhi
 1978 018c 1946     		mov	r1, r3
 1979 018e 7B69     		ldr	r3, [r7, #20]
 1980 0190 DB78     		ldrb	r3, [r3, #3]	@ zero_extendqisi2
 1981 0192 03F00F03 		and	r3, r3, #15
 1982 0196 DAB2     		uxtb	r2, r3
 1983 0198 3B69     		ldr	r3, [r7, #16]
 1984 019a 0B44     		add	r3, r3, r1
 1985 019c 1A71     		strb	r2, [r3, #4]
ARM GAS  C:\Users\RECEPC~1\AppData\Local\Temp\cc5EIyCe.s 			page 42


 330:.\RFServerStackImpl.c ****                     //PRESET value as a BCD array starting at position 0x02
 331:.\RFServerStackImpl.c ****                     memcpy(&puartdisp->_messagetx[puartdisp->_messagelength], &pumptrans->_buffer[0
 1986              		.loc 1 331 0
 1987 019e 3B69     		ldr	r3, [r7, #16]
 1988 01a0 5B88     		ldrh	r3, [r3, #2]	@ movhi
 1989 01a2 9BB2     		uxth	r3, r3
 1990 01a4 1A46     		mov	r2, r3
 1991 01a6 3B69     		ldr	r3, [r7, #16]
 1992 01a8 1344     		add	r3, r3, r2
 1993 01aa 1A1D     		adds	r2, r3, #4
 1994 01ac 7B69     		ldr	r3, [r7, #20]
 1995 01ae 0433     		adds	r3, r3, #4
 1996 01b0 1046     		mov	r0, r2
 1997 01b2 1946     		mov	r1, r3
 1998 01b4 0822     		movs	r2, #8
 1999 01b6 FFF7FEFF 		bl	memcpy
 332:.\RFServerStackImpl.c ****                     puartdisp->_messagelength += 0x08;
 2000              		.loc 1 332 0
 2001 01ba 3B69     		ldr	r3, [r7, #16]
 2002 01bc 5B88     		ldrh	r3, [r3, #2]	@ movhi
 2003 01be 9BB2     		uxth	r3, r3
 2004 01c0 0833     		adds	r3, r3, #8
 2005 01c2 9AB2     		uxth	r2, r3
 2006 01c4 3B69     		ldr	r3, [r7, #16]
 2007 01c6 5A80     		strh	r2, [r3, #2]	@ movhi
 333:.\RFServerStackImpl.c ****                     //RESERVED (see the protocol description file for this stream)
 334:.\RFServerStackImpl.c ****                     puartdisp->_messagelength++;
 2008              		.loc 1 334 0
 2009 01c8 3B69     		ldr	r3, [r7, #16]
 2010 01ca 5B88     		ldrh	r3, [r3, #2]	@ movhi
 2011 01cc 9BB2     		uxth	r3, r3
 2012 01ce 0133     		adds	r3, r3, #1
 2013 01d0 9AB2     		uxth	r2, r3
 2014 01d2 3B69     		ldr	r3, [r7, #16]
 2015 01d4 5A80     		strh	r2, [r3, #2]	@ movhi
 335:.\RFServerStackImpl.c ****                     //Car's plate (8 bytes)
 336:.\RFServerStackImpl.c ****                     memcpy(&puartdisp->_messagetx[puartdisp->_messagelength], &pumptrans->_buffer[0
 2016              		.loc 1 336 0
 2017 01d6 3B69     		ldr	r3, [r7, #16]
 2018 01d8 5B88     		ldrh	r3, [r3, #2]	@ movhi
 2019 01da 9BB2     		uxth	r3, r3
 2020 01dc 1A46     		mov	r2, r3
 2021 01de 3B69     		ldr	r3, [r7, #16]
 2022 01e0 1344     		add	r3, r3, r2
 2023 01e2 1D1D     		adds	r5, r3, #4
 2024 01e4 7B69     		ldr	r3, [r7, #20]
 2025 01e6 03F10C04 		add	r4, r3, #12
 2026 01ea 0A20     		movs	r0, #10
 2027 01ec FFF7FEFF 		bl	GetBufferLengthFromDisplayID
 2028 01f0 0346     		mov	r3, r0
 2029 01f2 2846     		mov	r0, r5
 2030 01f4 2146     		mov	r1, r4
 2031 01f6 1A46     		mov	r2, r3
 2032 01f8 FFF7FEFF 		bl	memcpy
 337:.\RFServerStackImpl.c ****                     puartdisp->_messagelength += GetBufferLengthFromDisplayID(DISPLAY_DIGITE_PLACA)
 2033              		.loc 1 337 0
 2034 01fc 0A20     		movs	r0, #10
ARM GAS  C:\Users\RECEPC~1\AppData\Local\Temp\cc5EIyCe.s 			page 43


 2035 01fe FFF7FEFF 		bl	GetBufferLengthFromDisplayID
 2036 0202 0346     		mov	r3, r0
 2037 0204 1946     		mov	r1, r3
 2038 0206 3B69     		ldr	r3, [r7, #16]
 2039 0208 5B88     		ldrh	r3, [r3, #2]	@ movhi
 2040 020a 9AB2     		uxth	r2, r3
 2041 020c 8BB2     		uxth	r3, r1
 2042 020e 1344     		add	r3, r3, r2
 2043 0210 9AB2     		uxth	r2, r3
 2044 0212 3B69     		ldr	r3, [r7, #16]
 2045 0214 5A80     		strh	r2, [r3, #2]	@ movhi
 338:.\RFServerStackImpl.c ****                     //Car's milleage (10 bytes of room but only 8 copied)
 339:.\RFServerStackImpl.c ****                     memcpy(&puartdisp->_messagetx[puartdisp->_messagelength], &pumptrans->_buffer[0
 2046              		.loc 1 339 0
 2047 0216 3B69     		ldr	r3, [r7, #16]
 2048 0218 5B88     		ldrh	r3, [r3, #2]	@ movhi
 2049 021a 9BB2     		uxth	r3, r3
 2050 021c 1A46     		mov	r2, r3
 2051 021e 3B69     		ldr	r3, [r7, #16]
 2052 0220 1344     		add	r3, r3, r2
 2053 0222 1D1D     		adds	r5, r3, #4
 2054 0224 7B69     		ldr	r3, [r7, #20]
 2055 0226 03F10C04 		add	r4, r3, #12
 2056 022a 0E20     		movs	r0, #14
 2057 022c FFF7FEFF 		bl	GetBufferLengthFromDisplayID
 2058 0230 0346     		mov	r3, r0
 2059 0232 2846     		mov	r0, r5
 2060 0234 2146     		mov	r1, r4
 2061 0236 1A46     		mov	r2, r3
 2062 0238 FFF7FEFF 		bl	memcpy
 340:.\RFServerStackImpl.c ****                     puartdisp->_messagelength += (GetBufferLengthFromDisplayID(DISPLAY_INTRODUZCA_K
 2063              		.loc 1 340 0
 2064 023c 0E20     		movs	r0, #14
 2065 023e FFF7FEFF 		bl	GetBufferLengthFromDisplayID
 2066 0242 0346     		mov	r3, r0
 2067 0244 991C     		adds	r1, r3, #2
 2068 0246 3B69     		ldr	r3, [r7, #16]
 2069 0248 5B88     		ldrh	r3, [r3, #2]	@ movhi
 2070 024a 9AB2     		uxth	r2, r3
 2071 024c 8BB2     		uxth	r3, r1
 2072 024e 1344     		add	r3, r3, r2
 2073 0250 9AB2     		uxth	r2, r3
 2074 0252 3B69     		ldr	r3, [r7, #16]
 2075 0254 5A80     		strh	r2, [r3, #2]	@ movhi
 341:.\RFServerStackImpl.c ****                     
 342:.\RFServerStackImpl.c ****                     puartdisp->_messagetx[puartdisp->_messagelength] = RawCRCCheck((PSTR)puartdisp-
 2076              		.loc 1 342 0
 2077 0256 3B69     		ldr	r3, [r7, #16]
 2078 0258 5B88     		ldrh	r3, [r3, #2]	@ movhi
 2079 025a 9BB2     		uxth	r3, r3
 2080 025c 1C46     		mov	r4, r3
 2081 025e 3B69     		ldr	r3, [r7, #16]
 2082 0260 1A1D     		adds	r2, r3, #4
 2083 0262 3B69     		ldr	r3, [r7, #16]
 2084 0264 5B88     		ldrh	r3, [r3, #2]	@ movhi
 2085 0266 9BB2     		uxth	r3, r3
 2086 0268 013B     		subs	r3, r3, #1
ARM GAS  C:\Users\RECEPC~1\AppData\Local\Temp\cc5EIyCe.s 			page 44


 2087 026a 9BB2     		uxth	r3, r3
 2088 026c 1046     		mov	r0, r2
 2089 026e 1946     		mov	r1, r3
 2090 0270 FFF7FEFF 		bl	RawCRCCheck
 2091 0274 0346     		mov	r3, r0
 2092 0276 1A46     		mov	r2, r3
 2093 0278 3B69     		ldr	r3, [r7, #16]
 2094 027a 2344     		add	r3, r3, r4
 2095 027c 1A71     		strb	r2, [r3, #4]
 343:.\RFServerStackImpl.c ****                     puartdisp->_messagelength++;
 2096              		.loc 1 343 0
 2097 027e 3B69     		ldr	r3, [r7, #16]
 2098 0280 5B88     		ldrh	r3, [r3, #2]	@ movhi
 2099 0282 9BB2     		uxth	r3, r3
 2100 0284 0133     		adds	r3, r3, #1
 2101 0286 9AB2     		uxth	r2, r3
 2102 0288 3B69     		ldr	r3, [r7, #16]
 2103 028a 5A80     		strh	r2, [r3, #2]	@ movhi
 344:.\RFServerStackImpl.c **** 
 345:.\RFServerStackImpl.c ****                     puartdisp->_messagestate = PENDING;
 2104              		.loc 1 345 0
 2105 028c 3B69     		ldr	r3, [r7, #16]
 2106 028e C222     		movs	r2, #194
 2107 0290 1A70     		strb	r2, [r3]
 2108              	.L57:
 346:.\RFServerStackImpl.c ****                 }
 347:.\RFServerStackImpl.c ****                 _g_pumps[index].PumpTransQueueDeallocate(&_g_pumps[index], pumptrans);
 2109              		.loc 1 347 0
 2110 0292 BB7F     		ldrb	r3, [r7, #30]	@ zero_extendqisi2
 2111 0294 0E4A     		ldr	r2, .L61
 2112 0296 4FF41961 		mov	r1, #2448
 2113 029a 01FB03F3 		mul	r3, r1, r3
 2114 029e 1344     		add	r3, r3, r2
 2115 02a0 03F61813 		addw	r3, r3, #2328
 2116 02a4 5B68     		ldr	r3, [r3, #4]
 2117 02a6 BA7F     		ldrb	r2, [r7, #30]	@ zero_extendqisi2
 2118 02a8 4FF41961 		mov	r1, #2448
 2119 02ac 01FB02F2 		mul	r2, r1, r2
 2120 02b0 0749     		ldr	r1, .L61
 2121 02b2 0A44     		add	r2, r2, r1
 2122 02b4 1046     		mov	r0, r2
 2123 02b6 7969     		ldr	r1, [r7, #20]
 2124 02b8 9847     		blx	r3
 348:.\RFServerStackImpl.c ****                 _g_pumps[index].PumpTransQueueUnlock(&_g_pumps[index]);
 2125              		.loc 1 348 0
 2126 02ba BB7F     		ldrb	r3, [r7, #30]	@ zero_extendqisi2
 2127 02bc 044A     		ldr	r2, .L61
 2128 02be 4FF41961 		mov	r1, #2448
 2129 02c2 01FB03F3 		mul	r3, r1, r3
 2130 02c6 1344     		add	r3, r3, r2
 2131 02c8 03F51163 		add	r3, r3, #2320
 2132 02cc 1B68     		ldr	r3, [r3]
 2133 02ce 07E0     		b	.L62
 2134              	.L63:
 2135              		.align	2
 2136              	.L61:
 2137 02d0 00000000 		.word	_g_pumps
ARM GAS  C:\Users\RECEPC~1\AppData\Local\Temp\cc5EIyCe.s 			page 45


 2138 02d4 00000000 		.word	_g_dispenserlayoutinfo
 2139 02d8 00000000 		.word	_g_rfslaveheader
 2140 02dc 00000000 		.word	_g_stationidentifier
 2141              	.L62:
 2142 02e0 BA7F     		ldrb	r2, [r7, #30]	@ zero_extendqisi2
 2143 02e2 4FF41961 		mov	r1, #2448
 2144 02e6 01FB02F2 		mul	r2, r1, r2
 2145 02ea 4F49     		ldr	r1, .L64
 2146 02ec 0A44     		add	r2, r2, r1
 2147 02ee 1046     		mov	r0, r2
 2148 02f0 9847     		blx	r3
 349:.\RFServerStackImpl.c ****                 retval = true;
 2149              		.loc 1 349 0
 2150 02f2 0123     		movs	r3, #1
 2151 02f4 FB77     		strb	r3, [r7, #31]
 350:.\RFServerStackImpl.c ****                 
 351:.\RFServerStackImpl.c ****                 break;
 2152              		.loc 1 351 0
 2153 02f6 08E0     		b	.L58
 2154              	.L56:
 2155              	.LBE16:
 308:.\RFServerStackImpl.c ****         {
 2156              		.loc 1 308 0 discriminator 2
 2157 02f8 BB7F     		ldrb	r3, [r7, #30]	@ zero_extendqisi2
 2158 02fa 0133     		adds	r3, r3, #1
 2159 02fc BB77     		strb	r3, [r7, #30]
 2160              	.L55:
 308:.\RFServerStackImpl.c ****         {
 2161              		.loc 1 308 0 is_stmt 0 discriminator 1
 2162 02fe 4B4B     		ldr	r3, .L64+4
 2163 0300 9B78     		ldrb	r3, [r3, #2]	@ zero_extendqisi2
 2164 0302 BA7F     		ldrb	r2, [r7, #30]	@ zero_extendqisi2
 2165 0304 9A42     		cmp	r2, r3
 2166 0306 FFF48AAE 		bcc	.L59
 2167              	.L58:
 352:.\RFServerStackImpl.c ****             }
 353:.\RFServerStackImpl.c ****         }
 354:.\RFServerStackImpl.c ****         if(!retval)
 2168              		.loc 1 354 0 is_stmt 1
 2169 030a FB7F     		ldrb	r3, [r7, #31]
 2170 030c 83F00103 		eor	r3, r3, #1
 2171 0310 DBB2     		uxtb	r3, r3
 2172 0312 002B     		cmp	r3, #0
 2173 0314 00F08280 		beq	.L54
 2174              	.LBB17:
 355:.\RFServerStackImpl.c ****         {
 356:.\RFServerStackImpl.c ****             //THIS POINT SHOULDN'T EVER BE REACHED SINCE IT MEANS THAT SOMETHING REALLY WEIRD HAPPE
 357:.\RFServerStackImpl.c ****             PUARTMESSAGEPTR puartdisp = GetUARTMessageSlot(UART_RF);
 2175              		.loc 1 357 0
 2176 0318 A020     		movs	r0, #160
 2177 031a FFF7FEFF 		bl	GetUARTMessageSlot
 2178 031e F860     		str	r0, [r7, #12]
 358:.\RFServerStackImpl.c ****             if(puartdisp)
 2179              		.loc 1 358 0
 2180 0320 FB68     		ldr	r3, [r7, #12]
 2181 0322 002B     		cmp	r3, #0
 2182 0324 7AD0     		beq	.L54
ARM GAS  C:\Users\RECEPC~1\AppData\Local\Temp\cc5EIyCe.s 			page 46


 359:.\RFServerStackImpl.c ****             {
 360:.\RFServerStackImpl.c ****                 puartdisp->_messagelength = 0;
 2183              		.loc 1 360 0
 2184 0326 FB68     		ldr	r3, [r7, #12]
 2185 0328 0022     		movs	r2, #0
 2186 032a 5A80     		strh	r2, [r3, #2]	@ movhi
 361:.\RFServerStackImpl.c ****                 memset(puartdisp->_messagetx, 0x00, sizeof(puartdisp->_messagetx));
 2187              		.loc 1 361 0
 2188 032c FB68     		ldr	r3, [r7, #12]
 2189 032e 0433     		adds	r3, r3, #4
 2190 0330 1846     		mov	r0, r3
 2191 0332 0021     		movs	r1, #0
 2192 0334 4FF48072 		mov	r2, #256
 2193 0338 FFF7FEFF 		bl	memset
 362:.\RFServerStackImpl.c ****                 memcpy(puartdisp->_messagetx, _g_rfslaveheader, 0x03); //Explicit buffer length to 
 2194              		.loc 1 362 0
 2195 033c FB68     		ldr	r3, [r7, #12]
 2196 033e 0433     		adds	r3, r3, #4
 2197 0340 3B4A     		ldr	r2, .L64+8
 2198 0342 1188     		ldrh	r1, [r2]	@ unaligned
 2199 0344 9278     		ldrb	r2, [r2, #2]
 2200 0346 1980     		strh	r1, [r3]	@ unaligned
 2201 0348 9A70     		strb	r2, [r3, #2]
 363:.\RFServerStackImpl.c ****                 puartdisp->_messagelength += 0x03;
 2202              		.loc 1 363 0
 2203 034a FB68     		ldr	r3, [r7, #12]
 2204 034c 5B88     		ldrh	r3, [r3, #2]	@ movhi
 2205 034e 9BB2     		uxth	r3, r3
 2206 0350 0333     		adds	r3, r3, #3
 2207 0352 9AB2     		uxth	r2, r3
 2208 0354 FB68     		ldr	r3, [r7, #12]
 2209 0356 5A80     		strh	r2, [r3, #2]	@ movhi
 364:.\RFServerStackImpl.c ****                 puartdisp->_messagetx[puartdisp->_messagelength++] = (uint8)(_g_stationidentifier &
 2210              		.loc 1 364 0
 2211 0358 FB68     		ldr	r3, [r7, #12]
 2212 035a 5B88     		ldrh	r3, [r3, #2]	@ movhi
 2213 035c 9BB2     		uxth	r3, r3
 2214 035e 5A1C     		adds	r2, r3, #1
 2215 0360 91B2     		uxth	r1, r2
 2216 0362 FA68     		ldr	r2, [r7, #12]
 2217 0364 5180     		strh	r1, [r2, #2]	@ movhi
 2218 0366 1946     		mov	r1, r3
 2219 0368 324B     		ldr	r3, .L64+12
 2220 036a 1B88     		ldrh	r3, [r3]
 2221 036c DAB2     		uxtb	r2, r3
 2222 036e FB68     		ldr	r3, [r7, #12]
 2223 0370 0B44     		add	r3, r3, r1
 2224 0372 1A71     		strb	r2, [r3, #4]
 365:.\RFServerStackImpl.c ****                 puartdisp->_messagetx[puartdisp->_messagelength++] = (uint8)((_g_stationidentifier 
 2225              		.loc 1 365 0
 2226 0374 FB68     		ldr	r3, [r7, #12]
 2227 0376 5B88     		ldrh	r3, [r3, #2]	@ movhi
 2228 0378 9BB2     		uxth	r3, r3
 2229 037a 5A1C     		adds	r2, r3, #1
 2230 037c 91B2     		uxth	r1, r2
 2231 037e FA68     		ldr	r2, [r7, #12]
 2232 0380 5180     		strh	r1, [r2, #2]	@ movhi
ARM GAS  C:\Users\RECEPC~1\AppData\Local\Temp\cc5EIyCe.s 			page 47


 2233 0382 1946     		mov	r1, r3
 2234 0384 2B4B     		ldr	r3, .L64+12
 2235 0386 1B88     		ldrh	r3, [r3]
 2236 0388 1B0A     		lsrs	r3, r3, #8
 2237 038a 9BB2     		uxth	r3, r3
 2238 038c DAB2     		uxtb	r2, r3
 2239 038e FB68     		ldr	r3, [r7, #12]
 2240 0390 0B44     		add	r3, r3, r1
 2241 0392 1A71     		strb	r2, [r3, #4]
 366:.\RFServerStackImpl.c ****                 puartdisp->_messagetx[puartdisp->_messagelength++] = pmsg->_buffer[_RF_STREAM_POSIT
 2242              		.loc 1 366 0
 2243 0394 FB68     		ldr	r3, [r7, #12]
 2244 0396 5B88     		ldrh	r3, [r3, #2]	@ movhi
 2245 0398 9BB2     		uxth	r3, r3
 2246 039a 5A1C     		adds	r2, r3, #1
 2247 039c 91B2     		uxth	r1, r2
 2248 039e FA68     		ldr	r2, [r7, #12]
 2249 03a0 5180     		strh	r1, [r2, #2]	@ movhi
 2250 03a2 1946     		mov	r1, r3
 2251 03a4 BB69     		ldr	r3, [r7, #24]
 2252 03a6 5A7C     		ldrb	r2, [r3, #17]	@ zero_extendqisi2
 2253 03a8 FB68     		ldr	r3, [r7, #12]
 2254 03aa 0B44     		add	r3, r3, r1
 2255 03ac 1A71     		strb	r2, [r3, #4]
 367:.\RFServerStackImpl.c ****                 puartdisp->_messagetx[puartdisp->_messagelength++] = pmsg->_buffer[_RF_STREAM_COMMA
 2256              		.loc 1 367 0
 2257 03ae FB68     		ldr	r3, [r7, #12]
 2258 03b0 5B88     		ldrh	r3, [r3, #2]	@ movhi
 2259 03b2 9BB2     		uxth	r3, r3
 2260 03b4 5A1C     		adds	r2, r3, #1
 2261 03b6 91B2     		uxth	r1, r2
 2262 03b8 FA68     		ldr	r2, [r7, #12]
 2263 03ba 5180     		strh	r1, [r2, #2]	@ movhi
 2264 03bc 1946     		mov	r1, r3
 2265 03be BB69     		ldr	r3, [r7, #24]
 2266 03c0 9A7C     		ldrb	r2, [r3, #18]	@ zero_extendqisi2
 2267 03c2 FB68     		ldr	r3, [r7, #12]
 2268 03c4 0B44     		add	r3, r3, r1
 2269 03c6 1A71     		strb	r2, [r3, #4]
 368:.\RFServerStackImpl.c ****                 puartdisp->_messagetx[puartdisp->_messagelength++] = _RF_NACK_;
 2270              		.loc 1 368 0
 2271 03c8 FB68     		ldr	r3, [r7, #12]
 2272 03ca 5B88     		ldrh	r3, [r3, #2]	@ movhi
 2273 03cc 9BB2     		uxth	r3, r3
 2274 03ce 5A1C     		adds	r2, r3, #1
 2275 03d0 91B2     		uxth	r1, r2
 2276 03d2 FA68     		ldr	r2, [r7, #12]
 2277 03d4 5180     		strh	r1, [r2, #2]	@ movhi
 2278 03d6 1A46     		mov	r2, r3
 2279 03d8 FB68     		ldr	r3, [r7, #12]
 2280 03da 1344     		add	r3, r3, r2
 2281 03dc 0422     		movs	r2, #4
 2282 03de 1A71     		strb	r2, [r3, #4]
 369:.\RFServerStackImpl.c ****                 puartdisp->_messagetx[puartdisp->_messagelength] = RawCRCCheck((PSTR)puartdisp->_me
 2283              		.loc 1 369 0
 2284 03e0 FB68     		ldr	r3, [r7, #12]
 2285 03e2 5B88     		ldrh	r3, [r3, #2]	@ movhi
ARM GAS  C:\Users\RECEPC~1\AppData\Local\Temp\cc5EIyCe.s 			page 48


 2286 03e4 9BB2     		uxth	r3, r3
 2287 03e6 1C46     		mov	r4, r3
 2288 03e8 FB68     		ldr	r3, [r7, #12]
 2289 03ea 1A1D     		adds	r2, r3, #4
 2290 03ec FB68     		ldr	r3, [r7, #12]
 2291 03ee 5B88     		ldrh	r3, [r3, #2]	@ movhi
 2292 03f0 9BB2     		uxth	r3, r3
 2293 03f2 013B     		subs	r3, r3, #1
 2294 03f4 9BB2     		uxth	r3, r3
 2295 03f6 1046     		mov	r0, r2
 2296 03f8 1946     		mov	r1, r3
 2297 03fa FFF7FEFF 		bl	RawCRCCheck
 2298 03fe 0346     		mov	r3, r0
 2299 0400 1A46     		mov	r2, r3
 2300 0402 FB68     		ldr	r3, [r7, #12]
 2301 0404 2344     		add	r3, r3, r4
 2302 0406 1A71     		strb	r2, [r3, #4]
 370:.\RFServerStackImpl.c ****                 puartdisp->_messagelength++;
 2303              		.loc 1 370 0
 2304 0408 FB68     		ldr	r3, [r7, #12]
 2305 040a 5B88     		ldrh	r3, [r3, #2]	@ movhi
 2306 040c 9BB2     		uxth	r3, r3
 2307 040e 0133     		adds	r3, r3, #1
 2308 0410 9AB2     		uxth	r2, r3
 2309 0412 FB68     		ldr	r3, [r7, #12]
 2310 0414 5A80     		strh	r2, [r3, #2]	@ movhi
 371:.\RFServerStackImpl.c **** 
 372:.\RFServerStackImpl.c ****                 puartdisp->_messagestate = PENDING;
 2311              		.loc 1 372 0
 2312 0416 FB68     		ldr	r3, [r7, #12]
 2313 0418 C222     		movs	r2, #194
 2314 041a 1A70     		strb	r2, [r3]
 2315              	.L54:
 2316              	.LBE17:
 2317              	.LBE15:
 373:.\RFServerStackImpl.c ****             }
 374:.\RFServerStackImpl.c ****         }
 375:.\RFServerStackImpl.c ****         
 376:.\RFServerStackImpl.c ****     }
 377:.\RFServerStackImpl.c ****     return retval;
 2318              		.loc 1 377 0
 2319 041c FB7F     		ldrb	r3, [r7, #31]	@ zero_extendqisi2
 378:.\RFServerStackImpl.c **** }
 2320              		.loc 1 378 0
 2321 041e 1846     		mov	r0, r3
 2322 0420 2037     		adds	r7, r7, #32
 2323              		.cfi_def_cfa_offset 16
 2324 0422 BD46     		mov	sp, r7
 2325              		.cfi_def_cfa_register 13
 2326              		@ sp needed
 2327 0424 B0BD     		pop	{r4, r5, r7, pc}
 2328              	.L65:
 2329 0426 00BF     		.align	2
 2330              	.L64:
 2331 0428 00000000 		.word	_g_pumps
 2332 042c 00000000 		.word	_g_dispenserlayoutinfo
 2333 0430 00000000 		.word	_g_rfslaveheader
ARM GAS  C:\Users\RECEPC~1\AppData\Local\Temp\cc5EIyCe.s 			page 49


 2334 0434 00000000 		.word	_g_stationidentifier
 2335              		.cfi_endproc
 2336              	.LFE67:
 2337              		.size	RFCashSalePresetReportReqResp, .-RFCashSalePresetReportReqResp
 2338              		.section	.text.RFCashCreditSaleFinalReportReqResp,"ax",%progbits
 2339              		.align	2
 2340              		.global	RFCashCreditSaleFinalReportReqResp
 2341              		.thumb
 2342              		.thumb_func
 2343              		.type	RFCashCreditSaleFinalReportReqResp, %function
 2344              	RFCashCreditSaleFinalReportReqResp:
 2345              	.LFB68:
 379:.\RFServerStackImpl.c **** 
 380:.\RFServerStackImpl.c **** //@Created By: HIJH
 381:.\RFServerStackImpl.c **** //@Septembre de 2016
 382:.\RFServerStackImpl.c **** bool RFCashCreditSaleFinalReportReqResp(void *pparam)
 383:.\RFServerStackImpl.c **** {
 2346              		.loc 1 383 0
 2347              		.cfi_startproc
 2348              		@ args = 0, pretend = 0, frame = 32
 2349              		@ frame_needed = 1, uses_anonymous_args = 0
 2350 0000 90B5     		push	{r4, r7, lr}
 2351              		.cfi_def_cfa_offset 12
 2352              		.cfi_offset 4, -12
 2353              		.cfi_offset 7, -8
 2354              		.cfi_offset 14, -4
 2355 0002 89B0     		sub	sp, sp, #36
 2356              		.cfi_def_cfa_offset 48
 2357 0004 00AF     		add	r7, sp, #0
 2358              		.cfi_def_cfa_register 7
 2359 0006 7860     		str	r0, [r7, #4]
 384:.\RFServerStackImpl.c ****     bool retval = false;
 2360              		.loc 1 384 0
 2361 0008 0023     		movs	r3, #0
 2362 000a FB77     		strb	r3, [r7, #31]
 385:.\RFServerStackImpl.c ****     PSINKMESSAGEPTR pmsg = (PSINKMESSAGEPTR)pparam;
 2363              		.loc 1 385 0
 2364 000c 7B68     		ldr	r3, [r7, #4]
 2365 000e BB61     		str	r3, [r7, #24]
 386:.\RFServerStackImpl.c ****     if(pmsg)
 2366              		.loc 1 386 0
 2367 0010 BB69     		ldr	r3, [r7, #24]
 2368 0012 002B     		cmp	r3, #0
 2369 0014 00F09282 		beq	.L67
 2370              	.LBB18:
 387:.\RFServerStackImpl.c ****     {
 388:.\RFServerStackImpl.c ****         FOR(uint8 index = 0x00, index < _g_dispenserlayoutinfo._numpositions, index++)
 2371              		.loc 1 388 0
 2372 0018 0023     		movs	r3, #0
 2373 001a BB77     		strb	r3, [r7, #30]
 2374 001c FFE1     		b	.L68
 2375              	.L76:
 389:.\RFServerStackImpl.c ****         {
 390:.\RFServerStackImpl.c ****             if(_g_pumps[index]._pumpid  == (pmsg->_buffer[_RF_STREAM_POSITION_INDEX_] - _g_dispense
 2376              		.loc 1 390 0
 2377 001e BB7F     		ldrb	r3, [r7, #30]	@ zero_extendqisi2
 2378 0020 6C4A     		ldr	r2, .L78
ARM GAS  C:\Users\RECEPC~1\AppData\Local\Temp\cc5EIyCe.s 			page 50


 2379 0022 4FF41961 		mov	r1, #2448
 2380 0026 01FB03F3 		mul	r3, r1, r3
 2381 002a 1344     		add	r3, r3, r2
 2382 002c 1B78     		ldrb	r3, [r3]	@ zero_extendqisi2
 2383 002e 1A46     		mov	r2, r3
 2384 0030 BB69     		ldr	r3, [r7, #24]
 2385 0032 5B7C     		ldrb	r3, [r3, #17]	@ zero_extendqisi2
 2386 0034 1946     		mov	r1, r3
 2387 0036 684B     		ldr	r3, .L78+4
 2388 0038 9B7C     		ldrb	r3, [r3, #18]	@ zero_extendqisi2
 2389 003a CB1A     		subs	r3, r1, r3
 2390 003c 9A42     		cmp	r2, r3
 2391 003e 40F0EB81 		bne	.L69
 2392              	.LBB19:
 391:.\RFServerStackImpl.c ****             {
 392:.\RFServerStackImpl.c ****                 _g_pumps[index].PumpTransQueueLock(&_g_pumps[index]);
 2393              		.loc 1 392 0
 2394 0042 BB7F     		ldrb	r3, [r7, #30]	@ zero_extendqisi2
 2395 0044 634A     		ldr	r2, .L78
 2396 0046 4FF41961 		mov	r1, #2448
 2397 004a 01FB03F3 		mul	r3, r1, r3
 2398 004e 1344     		add	r3, r3, r2
 2399 0050 03F60813 		addw	r3, r3, #2312
 2400 0054 5B68     		ldr	r3, [r3, #4]
 2401 0056 BA7F     		ldrb	r2, [r7, #30]	@ zero_extendqisi2
 2402 0058 4FF41961 		mov	r1, #2448
 2403 005c 01FB02F2 		mul	r2, r1, r2
 2404 0060 5C49     		ldr	r1, .L78
 2405 0062 0A44     		add	r2, r2, r1
 2406 0064 1046     		mov	r0, r2
 2407 0066 9847     		blx	r3
 393:.\RFServerStackImpl.c ****                 //We always pick the top most item of the Pump's Transactional Queue
 394:.\RFServerStackImpl.c ****                 PNEAR_PUMPTRANSACTIONALSTATEPTR pumptrans = _g_pumps[index].PumpTransQueueDequeue(&
 2408              		.loc 1 394 0
 2409 0068 BB7F     		ldrb	r3, [r7, #30]	@ zero_extendqisi2
 2410 006a 5A4A     		ldr	r2, .L78
 2411 006c 4FF41961 		mov	r1, #2448
 2412 0070 01FB03F3 		mul	r3, r1, r3
 2413 0074 1344     		add	r3, r3, r2
 2414 0076 03F51263 		add	r3, r3, #2336
 2415 007a 5B68     		ldr	r3, [r3, #4]
 2416 007c BA7F     		ldrb	r2, [r7, #30]	@ zero_extendqisi2
 2417 007e 4FF41961 		mov	r1, #2448
 2418 0082 01FB02F2 		mul	r2, r1, r2
 2419 0086 5349     		ldr	r1, .L78
 2420 0088 0A44     		add	r2, r2, r1
 2421 008a 1046     		mov	r0, r2
 2422 008c 9847     		blx	r3
 2423 008e 7861     		str	r0, [r7, #20]
 395:.\RFServerStackImpl.c ****                 PUARTMESSAGEPTR puartdisp = GetUARTMessageSlot(UART_RF);
 2424              		.loc 1 395 0
 2425 0090 A020     		movs	r0, #160
 2426 0092 FFF7FEFF 		bl	GetUARTMessageSlot
 2427 0096 3861     		str	r0, [r7, #16]
 396:.\RFServerStackImpl.c ****                 if(puartdisp)
 2428              		.loc 1 396 0
 2429 0098 3B69     		ldr	r3, [r7, #16]
ARM GAS  C:\Users\RECEPC~1\AppData\Local\Temp\cc5EIyCe.s 			page 51


 2430 009a 002B     		cmp	r3, #0
 2431 009c 00F08881 		beq	.L70
 397:.\RFServerStackImpl.c ****                 {
 398:.\RFServerStackImpl.c ****                     puartdisp->_messagelength = 0;
 2432              		.loc 1 398 0
 2433 00a0 3B69     		ldr	r3, [r7, #16]
 2434 00a2 0022     		movs	r2, #0
 2435 00a4 5A80     		strh	r2, [r3, #2]	@ movhi
 399:.\RFServerStackImpl.c ****                     memset(puartdisp->_messagetx, 0x00, sizeof(puartdisp->_messagetx));
 2436              		.loc 1 399 0
 2437 00a6 3B69     		ldr	r3, [r7, #16]
 2438 00a8 0433     		adds	r3, r3, #4
 2439 00aa 1846     		mov	r0, r3
 2440 00ac 0021     		movs	r1, #0
 2441 00ae 4FF48072 		mov	r2, #256
 2442 00b2 FFF7FEFF 		bl	memset
 400:.\RFServerStackImpl.c ****                     memcpy(puartdisp->_messagetx, _g_rfslaveheader, 0x03); //Explicit buffer length
 2443              		.loc 1 400 0
 2444 00b6 3B69     		ldr	r3, [r7, #16]
 2445 00b8 0433     		adds	r3, r3, #4
 2446 00ba 484A     		ldr	r2, .L78+8
 2447 00bc 1188     		ldrh	r1, [r2]	@ unaligned
 2448 00be 9278     		ldrb	r2, [r2, #2]
 2449 00c0 1980     		strh	r1, [r3]	@ unaligned
 2450 00c2 9A70     		strb	r2, [r3, #2]
 401:.\RFServerStackImpl.c ****                     puartdisp->_messagelength += 0x03;
 2451              		.loc 1 401 0
 2452 00c4 3B69     		ldr	r3, [r7, #16]
 2453 00c6 5B88     		ldrh	r3, [r3, #2]	@ movhi
 2454 00c8 9BB2     		uxth	r3, r3
 2455 00ca 0333     		adds	r3, r3, #3
 2456 00cc 9AB2     		uxth	r2, r3
 2457 00ce 3B69     		ldr	r3, [r7, #16]
 2458 00d0 5A80     		strh	r2, [r3, #2]	@ movhi
 402:.\RFServerStackImpl.c ****                     puartdisp->_messagetx[puartdisp->_messagelength++] = (uint8)(_g_stationidentifi
 2459              		.loc 1 402 0
 2460 00d2 3B69     		ldr	r3, [r7, #16]
 2461 00d4 5B88     		ldrh	r3, [r3, #2]	@ movhi
 2462 00d6 9BB2     		uxth	r3, r3
 2463 00d8 5A1C     		adds	r2, r3, #1
 2464 00da 91B2     		uxth	r1, r2
 2465 00dc 3A69     		ldr	r2, [r7, #16]
 2466 00de 5180     		strh	r1, [r2, #2]	@ movhi
 2467 00e0 1946     		mov	r1, r3
 2468 00e2 3F4B     		ldr	r3, .L78+12
 2469 00e4 1B88     		ldrh	r3, [r3]
 2470 00e6 DAB2     		uxtb	r2, r3
 2471 00e8 3B69     		ldr	r3, [r7, #16]
 2472 00ea 0B44     		add	r3, r3, r1
 2473 00ec 1A71     		strb	r2, [r3, #4]
 403:.\RFServerStackImpl.c ****                     puartdisp->_messagetx[puartdisp->_messagelength++] = (uint8)((_g_stationidentif
 2474              		.loc 1 403 0
 2475 00ee 3B69     		ldr	r3, [r7, #16]
 2476 00f0 5B88     		ldrh	r3, [r3, #2]	@ movhi
 2477 00f2 9BB2     		uxth	r3, r3
 2478 00f4 5A1C     		adds	r2, r3, #1
 2479 00f6 91B2     		uxth	r1, r2
ARM GAS  C:\Users\RECEPC~1\AppData\Local\Temp\cc5EIyCe.s 			page 52


 2480 00f8 3A69     		ldr	r2, [r7, #16]
 2481 00fa 5180     		strh	r1, [r2, #2]	@ movhi
 2482 00fc 1946     		mov	r1, r3
 2483 00fe 384B     		ldr	r3, .L78+12
 2484 0100 1B88     		ldrh	r3, [r3]
 2485 0102 1B0A     		lsrs	r3, r3, #8
 2486 0104 9BB2     		uxth	r3, r3
 2487 0106 DAB2     		uxtb	r2, r3
 2488 0108 3B69     		ldr	r3, [r7, #16]
 2489 010a 0B44     		add	r3, r3, r1
 2490 010c 1A71     		strb	r2, [r3, #4]
 404:.\RFServerStackImpl.c ****                     puartdisp->_messagetx[puartdisp->_messagelength++] = pmsg->_buffer[_RF_STREAM_P
 2491              		.loc 1 404 0
 2492 010e 3B69     		ldr	r3, [r7, #16]
 2493 0110 5B88     		ldrh	r3, [r3, #2]	@ movhi
 2494 0112 9BB2     		uxth	r3, r3
 2495 0114 5A1C     		adds	r2, r3, #1
 2496 0116 91B2     		uxth	r1, r2
 2497 0118 3A69     		ldr	r2, [r7, #16]
 2498 011a 5180     		strh	r1, [r2, #2]	@ movhi
 2499 011c 1946     		mov	r1, r3
 2500 011e BB69     		ldr	r3, [r7, #24]
 2501 0120 5A7C     		ldrb	r2, [r3, #17]	@ zero_extendqisi2
 2502 0122 3B69     		ldr	r3, [r7, #16]
 2503 0124 0B44     		add	r3, r3, r1
 2504 0126 1A71     		strb	r2, [r3, #4]
 405:.\RFServerStackImpl.c ****                     puartdisp->_messagetx[puartdisp->_messagelength++] = pumptrans->_transtate;
 2505              		.loc 1 405 0
 2506 0128 3B69     		ldr	r3, [r7, #16]
 2507 012a 5B88     		ldrh	r3, [r3, #2]	@ movhi
 2508 012c 9BB2     		uxth	r3, r3
 2509 012e 5A1C     		adds	r2, r3, #1
 2510 0130 91B2     		uxth	r1, r2
 2511 0132 3A69     		ldr	r2, [r7, #16]
 2512 0134 5180     		strh	r1, [r2, #2]	@ movhi
 2513 0136 1946     		mov	r1, r3
 2514 0138 7B69     		ldr	r3, [r7, #20]
 2515 013a 5A78     		ldrb	r2, [r3, #1]	@ zero_extendqisi2
 2516 013c 3B69     		ldr	r3, [r7, #16]
 2517 013e 0B44     		add	r3, r3, r1
 2518 0140 1A71     		strb	r2, [r3, #4]
 406:.\RFServerStackImpl.c ****                     puartdisp->_messagetx[puartdisp->_messagelength++] = 0x00;//?? ESTADOPOSITION ?
 2519              		.loc 1 406 0
 2520 0142 3B69     		ldr	r3, [r7, #16]
 2521 0144 5B88     		ldrh	r3, [r3, #2]	@ movhi
 2522 0146 9BB2     		uxth	r3, r3
 2523 0148 5A1C     		adds	r2, r3, #1
 2524 014a 91B2     		uxth	r1, r2
 2525 014c 3A69     		ldr	r2, [r7, #16]
 2526 014e 5180     		strh	r1, [r2, #2]	@ movhi
 2527 0150 1A46     		mov	r2, r3
 2528 0152 3B69     		ldr	r3, [r7, #16]
 2529 0154 1344     		add	r3, r3, r2
 2530 0156 0022     		movs	r2, #0
 2531 0158 1A71     		strb	r2, [r3, #4]
 407:.\RFServerStackImpl.c ****                     
 408:.\RFServerStackImpl.c ****                     if(_g_dispenserlayoutinfo._displaydigitsmode == 0x06)
ARM GAS  C:\Users\RECEPC~1\AppData\Local\Temp\cc5EIyCe.s 			page 53


 2532              		.loc 1 408 0
 2533 015a 1F4B     		ldr	r3, .L78+4
 2534 015c 1B7C     		ldrb	r3, [r3, #16]	@ zero_extendqisi2
 2535 015e 062B     		cmp	r3, #6
 2536 0160 40F0BC80 		bne	.L71
 409:.\RFServerStackImpl.c ****                     {
 410:.\RFServerStackImpl.c ****                         //See the protocol documentation to understand the used indexes (Transactio
 411:.\RFServerStackImpl.c ****                         puartdisp->_messagetx[puartdisp->_messagelength++] = pumptrans->_buffer[0x0
 2537              		.loc 1 411 0
 2538 0164 3B69     		ldr	r3, [r7, #16]
 2539 0166 5B88     		ldrh	r3, [r3, #2]	@ movhi
 2540 0168 9BB2     		uxth	r3, r3
 2541 016a 5A1C     		adds	r2, r3, #1
 2542 016c 91B2     		uxth	r1, r2
 2543 016e 3A69     		ldr	r2, [r7, #16]
 2544 0170 5180     		strh	r1, [r2, #2]	@ movhi
 2545 0172 1946     		mov	r1, r3
 2546 0174 7B69     		ldr	r3, [r7, #20]
 2547 0176 DA7A     		ldrb	r2, [r3, #11]	@ zero_extendqisi2
 2548 0178 3B69     		ldr	r3, [r7, #16]
 2549 017a 0B44     		add	r3, r3, r1
 2550 017c 1A71     		strb	r2, [r3, #4]
 412:.\RFServerStackImpl.c ****                         
 413:.\RFServerStackImpl.c ****                         //PPU data
 414:.\RFServerStackImpl.c ****                         if(_g_dispenserlayoutinfo._moneydecimals == 0x03 && _g_dispenserlayoutinfo.
 2551              		.loc 1 414 0
 2552 017e 164B     		ldr	r3, .L78+4
 2553 0180 DB79     		ldrb	r3, [r3, #7]	@ zero_extendqisi2
 2554 0182 032B     		cmp	r3, #3
 2555 0184 2ED1     		bne	.L72
 2556              		.loc 1 414 0 is_stmt 0 discriminator 1
 2557 0186 144B     		ldr	r3, .L78+4
 2558 0188 1B7A     		ldrb	r3, [r3, #8]	@ zero_extendqisi2
 2559 018a 022B     		cmp	r3, #2
 2560 018c 2AD1     		bne	.L72
 415:.\RFServerStackImpl.c ****                         {
 416:.\RFServerStackImpl.c ****                             puartdisp->_messagetx[puartdisp->_messagelength++] = 0x00;
 2561              		.loc 1 416 0 is_stmt 1
 2562 018e 3B69     		ldr	r3, [r7, #16]
 2563 0190 5B88     		ldrh	r3, [r3, #2]	@ movhi
 2564 0192 9BB2     		uxth	r3, r3
 2565 0194 5A1C     		adds	r2, r3, #1
 2566 0196 91B2     		uxth	r1, r2
 2567 0198 3A69     		ldr	r2, [r7, #16]
 2568 019a 5180     		strh	r1, [r2, #2]	@ movhi
 2569 019c 1A46     		mov	r2, r3
 2570 019e 3B69     		ldr	r3, [r7, #16]
 2571 01a0 1344     		add	r3, r3, r2
 2572 01a2 0022     		movs	r2, #0
 2573 01a4 1A71     		strb	r2, [r3, #4]
 417:.\RFServerStackImpl.c ****                             memcpy(&puartdisp->_messagetx[puartdisp->_messagelength], &pumptrans->_
 2574              		.loc 1 417 0
 2575 01a6 3B69     		ldr	r3, [r7, #16]
 2576 01a8 5B88     		ldrh	r3, [r3, #2]	@ movhi
 2577 01aa 9BB2     		uxth	r3, r3
 2578 01ac 1A46     		mov	r2, r3
 2579 01ae 3B69     		ldr	r3, [r7, #16]
ARM GAS  C:\Users\RECEPC~1\AppData\Local\Temp\cc5EIyCe.s 			page 54


 2580 01b0 1344     		add	r3, r3, r2
 2581 01b2 1A1D     		adds	r2, r3, #4
 2582 01b4 7B69     		ldr	r3, [r7, #20]
 2583 01b6 0E33     		adds	r3, r3, #14
 2584 01b8 1046     		mov	r0, r2
 2585 01ba 1946     		mov	r1, r3
 2586 01bc 0422     		movs	r2, #4
 2587 01be FFF7FEFF 		bl	memcpy
 418:.\RFServerStackImpl.c ****                             puartdisp->_messagelength += 0x04;
 2588              		.loc 1 418 0
 2589 01c2 3B69     		ldr	r3, [r7, #16]
 2590 01c4 5B88     		ldrh	r3, [r3, #2]	@ movhi
 2591 01c6 9BB2     		uxth	r3, r3
 2592 01c8 0433     		adds	r3, r3, #4
 2593 01ca 9AB2     		uxth	r2, r3
 2594 01cc 3B69     		ldr	r3, [r7, #16]
 2595 01ce 5A80     		strh	r2, [r3, #2]	@ movhi
 2596 01d0 29E0     		b	.L73
 2597              	.L79:
 2598 01d2 00BF     		.align	2
 2599              	.L78:
 2600 01d4 00000000 		.word	_g_pumps
 2601 01d8 00000000 		.word	_g_dispenserlayoutinfo
 2602 01dc 00000000 		.word	_g_rfslaveheader
 2603 01e0 00000000 		.word	_g_stationidentifier
 2604              	.L72:
 419:.\RFServerStackImpl.c ****                         }
 420:.\RFServerStackImpl.c ****                         else
 421:.\RFServerStackImpl.c ****                         {
 422:.\RFServerStackImpl.c ****                             memcpy(&puartdisp->_messagetx[puartdisp->_messagelength], &pumptrans->_
 2605              		.loc 1 422 0
 2606 01e4 3B69     		ldr	r3, [r7, #16]
 2607 01e6 5B88     		ldrh	r3, [r3, #2]	@ movhi
 2608 01e8 9BB2     		uxth	r3, r3
 2609 01ea 1A46     		mov	r2, r3
 2610 01ec 3B69     		ldr	r3, [r7, #16]
 2611 01ee 1344     		add	r3, r3, r2
 2612 01f0 1A1D     		adds	r2, r3, #4
 2613 01f2 7B69     		ldr	r3, [r7, #20]
 2614 01f4 0E33     		adds	r3, r3, #14
 2615 01f6 1046     		mov	r0, r2
 2616 01f8 1946     		mov	r1, r3
 2617 01fa 0422     		movs	r2, #4
 2618 01fc FFF7FEFF 		bl	memcpy
 423:.\RFServerStackImpl.c ****                             puartdisp->_messagelength += 0x04;
 2619              		.loc 1 423 0
 2620 0200 3B69     		ldr	r3, [r7, #16]
 2621 0202 5B88     		ldrh	r3, [r3, #2]	@ movhi
 2622 0204 9BB2     		uxth	r3, r3
 2623 0206 0433     		adds	r3, r3, #4
 2624 0208 9AB2     		uxth	r2, r3
 2625 020a 3B69     		ldr	r3, [r7, #16]
 2626 020c 5A80     		strh	r2, [r3, #2]	@ movhi
 424:.\RFServerStackImpl.c ****                             puartdisp->_messagetx[puartdisp->_messagelength++] = 0x00;
 2627              		.loc 1 424 0
 2628 020e 3B69     		ldr	r3, [r7, #16]
 2629 0210 5B88     		ldrh	r3, [r3, #2]	@ movhi
ARM GAS  C:\Users\RECEPC~1\AppData\Local\Temp\cc5EIyCe.s 			page 55


 2630 0212 9BB2     		uxth	r3, r3
 2631 0214 5A1C     		adds	r2, r3, #1
 2632 0216 91B2     		uxth	r1, r2
 2633 0218 3A69     		ldr	r2, [r7, #16]
 2634 021a 5180     		strh	r1, [r2, #2]	@ movhi
 2635 021c 1A46     		mov	r2, r3
 2636 021e 3B69     		ldr	r3, [r7, #16]
 2637 0220 1344     		add	r3, r3, r2
 2638 0222 0022     		movs	r2, #0
 2639 0224 1A71     		strb	r2, [r3, #4]
 2640              	.L73:
 425:.\RFServerStackImpl.c ****                         }
 426:.\RFServerStackImpl.c ****                         
 427:.\RFServerStackImpl.c ****                         //Volume data                        
 428:.\RFServerStackImpl.c ****                         memcpy(&puartdisp->_messagetx[puartdisp->_messagelength], &pumptrans->_buff
 2641              		.loc 1 428 0
 2642 0226 3B69     		ldr	r3, [r7, #16]
 2643 0228 5B88     		ldrh	r3, [r3, #2]	@ movhi
 2644 022a 9BB2     		uxth	r3, r3
 2645 022c 1A46     		mov	r2, r3
 2646 022e 3B69     		ldr	r3, [r7, #16]
 2647 0230 1344     		add	r3, r3, r2
 2648 0232 1A1D     		adds	r2, r3, #4
 2649 0234 7B69     		ldr	r3, [r7, #20]
 2650 0236 1333     		adds	r3, r3, #19
 2651 0238 1046     		mov	r0, r2
 2652 023a 1946     		mov	r1, r3
 2653 023c 0622     		movs	r2, #6
 2654 023e FFF7FEFF 		bl	memcpy
 429:.\RFServerStackImpl.c ****                         puartdisp->_messagelength += 0x06;
 2655              		.loc 1 429 0
 2656 0242 3B69     		ldr	r3, [r7, #16]
 2657 0244 5B88     		ldrh	r3, [r3, #2]	@ movhi
 2658 0246 9BB2     		uxth	r3, r3
 2659 0248 0633     		adds	r3, r3, #6
 2660 024a 9AB2     		uxth	r2, r3
 2661 024c 3B69     		ldr	r3, [r7, #16]
 2662 024e 5A80     		strh	r2, [r3, #2]	@ movhi
 430:.\RFServerStackImpl.c ****                         puartdisp->_messagetx[puartdisp->_messagelength++] = 0x00;
 2663              		.loc 1 430 0
 2664 0250 3B69     		ldr	r3, [r7, #16]
 2665 0252 5B88     		ldrh	r3, [r3, #2]	@ movhi
 2666 0254 9BB2     		uxth	r3, r3
 2667 0256 5A1C     		adds	r2, r3, #1
 2668 0258 91B2     		uxth	r1, r2
 2669 025a 3A69     		ldr	r2, [r7, #16]
 2670 025c 5180     		strh	r1, [r2, #2]	@ movhi
 2671 025e 1A46     		mov	r2, r3
 2672 0260 3B69     		ldr	r3, [r7, #16]
 2673 0262 1344     		add	r3, r3, r2
 2674 0264 0022     		movs	r2, #0
 2675 0266 1A71     		strb	r2, [r3, #4]
 431:.\RFServerStackImpl.c ****                         puartdisp->_messagetx[puartdisp->_messagelength++] = 0x00;
 2676              		.loc 1 431 0
 2677 0268 3B69     		ldr	r3, [r7, #16]
 2678 026a 5B88     		ldrh	r3, [r3, #2]	@ movhi
 2679 026c 9BB2     		uxth	r3, r3
ARM GAS  C:\Users\RECEPC~1\AppData\Local\Temp\cc5EIyCe.s 			page 56


 2680 026e 5A1C     		adds	r2, r3, #1
 2681 0270 91B2     		uxth	r1, r2
 2682 0272 3A69     		ldr	r2, [r7, #16]
 2683 0274 5180     		strh	r1, [r2, #2]	@ movhi
 2684 0276 1A46     		mov	r2, r3
 2685 0278 3B69     		ldr	r3, [r7, #16]
 2686 027a 1344     		add	r3, r3, r2
 2687 027c 0022     		movs	r2, #0
 2688 027e 1A71     		strb	r2, [r3, #4]
 432:.\RFServerStackImpl.c ****                         
 433:.\RFServerStackImpl.c ****                         //Money data
 434:.\RFServerStackImpl.c ****                         memcpy(&puartdisp->_messagetx[puartdisp->_messagelength], &pumptrans->_buff
 2689              		.loc 1 434 0
 2690 0280 3B69     		ldr	r3, [r7, #16]
 2691 0282 5B88     		ldrh	r3, [r3, #2]	@ movhi
 2692 0284 9BB2     		uxth	r3, r3
 2693 0286 1A46     		mov	r2, r3
 2694 0288 3B69     		ldr	r3, [r7, #16]
 2695 028a 1344     		add	r3, r3, r2
 2696 028c 1A1D     		adds	r2, r3, #4
 2697 028e 7B69     		ldr	r3, [r7, #20]
 2698 0290 1A33     		adds	r3, r3, #26
 2699 0292 1046     		mov	r0, r2
 2700 0294 1946     		mov	r1, r3
 2701 0296 0622     		movs	r2, #6
 2702 0298 FFF7FEFF 		bl	memcpy
 435:.\RFServerStackImpl.c ****                         puartdisp->_messagelength += 0x06;
 2703              		.loc 1 435 0
 2704 029c 3B69     		ldr	r3, [r7, #16]
 2705 029e 5B88     		ldrh	r3, [r3, #2]	@ movhi
 2706 02a0 9BB2     		uxth	r3, r3
 2707 02a2 0633     		adds	r3, r3, #6
 2708 02a4 9AB2     		uxth	r2, r3
 2709 02a6 3B69     		ldr	r3, [r7, #16]
 2710 02a8 5A80     		strh	r2, [r3, #2]	@ movhi
 436:.\RFServerStackImpl.c ****                         puartdisp->_messagetx[puartdisp->_messagelength++] = 0x00;
 2711              		.loc 1 436 0
 2712 02aa 3B69     		ldr	r3, [r7, #16]
 2713 02ac 5B88     		ldrh	r3, [r3, #2]	@ movhi
 2714 02ae 9BB2     		uxth	r3, r3
 2715 02b0 5A1C     		adds	r2, r3, #1
 2716 02b2 91B2     		uxth	r1, r2
 2717 02b4 3A69     		ldr	r2, [r7, #16]
 2718 02b6 5180     		strh	r1, [r2, #2]	@ movhi
 2719 02b8 1A46     		mov	r2, r3
 2720 02ba 3B69     		ldr	r3, [r7, #16]
 2721 02bc 1344     		add	r3, r3, r2
 2722 02be 0022     		movs	r2, #0
 2723 02c0 1A71     		strb	r2, [r3, #4]
 437:.\RFServerStackImpl.c ****                         puartdisp->_messagetx[puartdisp->_messagelength++] = 0x00;
 2724              		.loc 1 437 0
 2725 02c2 3B69     		ldr	r3, [r7, #16]
 2726 02c4 5B88     		ldrh	r3, [r3, #2]	@ movhi
 2727 02c6 9BB2     		uxth	r3, r3
 2728 02c8 5A1C     		adds	r2, r3, #1
 2729 02ca 91B2     		uxth	r1, r2
 2730 02cc 3A69     		ldr	r2, [r7, #16]
ARM GAS  C:\Users\RECEPC~1\AppData\Local\Temp\cc5EIyCe.s 			page 57


 2731 02ce 5180     		strh	r1, [r2, #2]	@ movhi
 2732 02d0 1A46     		mov	r2, r3
 2733 02d2 3B69     		ldr	r3, [r7, #16]
 2734 02d4 1344     		add	r3, r3, r2
 2735 02d6 0022     		movs	r2, #0
 2736 02d8 1A71     		strb	r2, [r3, #4]
 2737 02da 4BE0     		b	.L74
 2738              	.L71:
 438:.\RFServerStackImpl.c ****                     }
 439:.\RFServerStackImpl.c ****                     else
 440:.\RFServerStackImpl.c ****                     {
 441:.\RFServerStackImpl.c ****                         //See the protocol documentation to understand the used indexes (Transactio
 442:.\RFServerStackImpl.c ****                         puartdisp->_messagetx[puartdisp->_messagelength++] = pumptrans->_buffer[0x0
 2739              		.loc 1 442 0
 2740 02dc 3B69     		ldr	r3, [r7, #16]
 2741 02de 5B88     		ldrh	r3, [r3, #2]	@ movhi
 2742 02e0 9BB2     		uxth	r3, r3
 2743 02e2 5A1C     		adds	r2, r3, #1
 2744 02e4 91B2     		uxth	r1, r2
 2745 02e6 3A69     		ldr	r2, [r7, #16]
 2746 02e8 5180     		strh	r1, [r2, #2]	@ movhi
 2747 02ea 1946     		mov	r1, r3
 2748 02ec 7B69     		ldr	r3, [r7, #20]
 2749 02ee DA7A     		ldrb	r2, [r3, #11]	@ zero_extendqisi2
 2750 02f0 3B69     		ldr	r3, [r7, #16]
 2751 02f2 0B44     		add	r3, r3, r1
 2752 02f4 1A71     		strb	r2, [r3, #4]
 443:.\RFServerStackImpl.c ****                         //PPU data
 444:.\RFServerStackImpl.c ****                         memcpy(&puartdisp->_messagetx[puartdisp->_messagelength], &pumptrans->_buff
 2753              		.loc 1 444 0
 2754 02f6 3B69     		ldr	r3, [r7, #16]
 2755 02f8 5B88     		ldrh	r3, [r3, #2]	@ movhi
 2756 02fa 9BB2     		uxth	r3, r3
 2757 02fc 1A46     		mov	r2, r3
 2758 02fe 3B69     		ldr	r3, [r7, #16]
 2759 0300 1344     		add	r3, r3, r2
 2760 0302 1A1D     		adds	r2, r3, #4
 2761 0304 7B69     		ldr	r3, [r7, #20]
 2762 0306 0E33     		adds	r3, r3, #14
 2763 0308 1046     		mov	r0, r2
 2764 030a 1946     		mov	r1, r3
 2765 030c 0522     		movs	r2, #5
 2766 030e FFF7FEFF 		bl	memcpy
 445:.\RFServerStackImpl.c ****                         puartdisp->_messagelength += 0x05;
 2767              		.loc 1 445 0
 2768 0312 3B69     		ldr	r3, [r7, #16]
 2769 0314 5B88     		ldrh	r3, [r3, #2]	@ movhi
 2770 0316 9BB2     		uxth	r3, r3
 2771 0318 0533     		adds	r3, r3, #5
 2772 031a 9AB2     		uxth	r2, r3
 2773 031c 3B69     		ldr	r3, [r7, #16]
 2774 031e 5A80     		strh	r2, [r3, #2]	@ movhi
 446:.\RFServerStackImpl.c ****                         //Volume data
 447:.\RFServerStackImpl.c ****                         memcpy(&puartdisp->_messagetx[puartdisp->_messagelength], &pumptrans->_buff
 2775              		.loc 1 447 0
 2776 0320 3B69     		ldr	r3, [r7, #16]
 2777 0322 5B88     		ldrh	r3, [r3, #2]	@ movhi
ARM GAS  C:\Users\RECEPC~1\AppData\Local\Temp\cc5EIyCe.s 			page 58


 2778 0324 9BB2     		uxth	r3, r3
 2779 0326 1A46     		mov	r2, r3
 2780 0328 3B69     		ldr	r3, [r7, #16]
 2781 032a 1344     		add	r3, r3, r2
 2782 032c 1A1D     		adds	r2, r3, #4
 2783 032e 7B69     		ldr	r3, [r7, #20]
 2784 0330 1533     		adds	r3, r3, #21
 2785 0332 1046     		mov	r0, r2
 2786 0334 1946     		mov	r1, r3
 2787 0336 0822     		movs	r2, #8
 2788 0338 FFF7FEFF 		bl	memcpy
 448:.\RFServerStackImpl.c ****                         puartdisp->_messagelength += 0x08;
 2789              		.loc 1 448 0
 2790 033c 3B69     		ldr	r3, [r7, #16]
 2791 033e 5B88     		ldrh	r3, [r3, #2]	@ movhi
 2792 0340 9BB2     		uxth	r3, r3
 2793 0342 0833     		adds	r3, r3, #8
 2794 0344 9AB2     		uxth	r2, r3
 2795 0346 3B69     		ldr	r3, [r7, #16]
 2796 0348 5A80     		strh	r2, [r3, #2]	@ movhi
 449:.\RFServerStackImpl.c ****                         //Money data => the startup position is 0x1C but it goes with an extra deci
 450:.\RFServerStackImpl.c ****                         //The applied position skips this digit
 451:.\RFServerStackImpl.c ****                         memcpy(&puartdisp->_messagetx[puartdisp->_messagelength], &pumptrans->_buff
 2797              		.loc 1 451 0
 2798 034a 3B69     		ldr	r3, [r7, #16]
 2799 034c 5B88     		ldrh	r3, [r3, #2]	@ movhi
 2800 034e 9BB2     		uxth	r3, r3
 2801 0350 1A46     		mov	r2, r3
 2802 0352 3B69     		ldr	r3, [r7, #16]
 2803 0354 1344     		add	r3, r3, r2
 2804 0356 1A1D     		adds	r2, r3, #4
 2805 0358 7B69     		ldr	r3, [r7, #20]
 2806 035a 1F33     		adds	r3, r3, #31
 2807 035c 1046     		mov	r0, r2
 2808 035e 1946     		mov	r1, r3
 2809 0360 0722     		movs	r2, #7
 2810 0362 FFF7FEFF 		bl	memcpy
 452:.\RFServerStackImpl.c ****                         puartdisp->_messagelength += 0x08;
 2811              		.loc 1 452 0
 2812 0366 3B69     		ldr	r3, [r7, #16]
 2813 0368 5B88     		ldrh	r3, [r3, #2]	@ movhi
 2814 036a 9BB2     		uxth	r3, r3
 2815 036c 0833     		adds	r3, r3, #8
 2816 036e 9AB2     		uxth	r2, r3
 2817 0370 3B69     		ldr	r3, [r7, #16]
 2818 0372 5A80     		strh	r2, [r3, #2]	@ movhi
 2819              	.L74:
 453:.\RFServerStackImpl.c ****                     }
 454:.\RFServerStackImpl.c **** 
 455:.\RFServerStackImpl.c ****                     puartdisp->_messagetx[puartdisp->_messagelength] = RawCRCCheck((PSTR)puartdisp-
 2820              		.loc 1 455 0
 2821 0374 3B69     		ldr	r3, [r7, #16]
 2822 0376 5B88     		ldrh	r3, [r3, #2]	@ movhi
 2823 0378 9BB2     		uxth	r3, r3
 2824 037a 1C46     		mov	r4, r3
 2825 037c 3B69     		ldr	r3, [r7, #16]
 2826 037e 1A1D     		adds	r2, r3, #4
ARM GAS  C:\Users\RECEPC~1\AppData\Local\Temp\cc5EIyCe.s 			page 59


 2827 0380 3B69     		ldr	r3, [r7, #16]
 2828 0382 5B88     		ldrh	r3, [r3, #2]	@ movhi
 2829 0384 9BB2     		uxth	r3, r3
 2830 0386 013B     		subs	r3, r3, #1
 2831 0388 9BB2     		uxth	r3, r3
 2832 038a 1046     		mov	r0, r2
 2833 038c 1946     		mov	r1, r3
 2834 038e FFF7FEFF 		bl	RawCRCCheck
 2835 0392 0346     		mov	r3, r0
 2836 0394 1A46     		mov	r2, r3
 2837 0396 3B69     		ldr	r3, [r7, #16]
 2838 0398 2344     		add	r3, r3, r4
 2839 039a 1A71     		strb	r2, [r3, #4]
 456:.\RFServerStackImpl.c ****                     puartdisp->_messagelength++;
 2840              		.loc 1 456 0
 2841 039c 3B69     		ldr	r3, [r7, #16]
 2842 039e 5B88     		ldrh	r3, [r3, #2]	@ movhi
 2843 03a0 9BB2     		uxth	r3, r3
 2844 03a2 0133     		adds	r3, r3, #1
 2845 03a4 9AB2     		uxth	r2, r3
 2846 03a6 3B69     		ldr	r3, [r7, #16]
 2847 03a8 5A80     		strh	r2, [r3, #2]	@ movhi
 457:.\RFServerStackImpl.c **** 
 458:.\RFServerStackImpl.c ****                     puartdisp->_messagestate = PENDING;
 2848              		.loc 1 458 0
 2849 03aa 3B69     		ldr	r3, [r7, #16]
 2850 03ac C222     		movs	r2, #194
 2851 03ae 1A70     		strb	r2, [r3]
 2852              	.L70:
 459:.\RFServerStackImpl.c ****                 }
 460:.\RFServerStackImpl.c ****                 _g_pumps[index]._pumprftransstate = RF_IDLE;
 2853              		.loc 1 460 0
 2854 03b0 BB7F     		ldrb	r3, [r7, #30]	@ zero_extendqisi2
 2855 03b2 654A     		ldr	r2, .L80
 2856 03b4 4FF41961 		mov	r1, #2448
 2857 03b8 01FB03F3 		mul	r3, r1, r3
 2858 03bc 1344     		add	r3, r3, r2
 2859 03be 0833     		adds	r3, r3, #8
 2860 03c0 0822     		movs	r2, #8
 2861 03c2 9A71     		strb	r2, [r3, #6]
 461:.\RFServerStackImpl.c ****                 _g_pumps[index].PumpTransQueueDeallocate(&_g_pumps[index], pumptrans);
 2862              		.loc 1 461 0
 2863 03c4 BB7F     		ldrb	r3, [r7, #30]	@ zero_extendqisi2
 2864 03c6 604A     		ldr	r2, .L80
 2865 03c8 4FF41961 		mov	r1, #2448
 2866 03cc 01FB03F3 		mul	r3, r1, r3
 2867 03d0 1344     		add	r3, r3, r2
 2868 03d2 03F61813 		addw	r3, r3, #2328
 2869 03d6 5B68     		ldr	r3, [r3, #4]
 2870 03d8 BA7F     		ldrb	r2, [r7, #30]	@ zero_extendqisi2
 2871 03da 4FF41961 		mov	r1, #2448
 2872 03de 01FB02F2 		mul	r2, r1, r2
 2873 03e2 5949     		ldr	r1, .L80
 2874 03e4 0A44     		add	r2, r2, r1
 2875 03e6 1046     		mov	r0, r2
 2876 03e8 7969     		ldr	r1, [r7, #20]
 2877 03ea 9847     		blx	r3
ARM GAS  C:\Users\RECEPC~1\AppData\Local\Temp\cc5EIyCe.s 			page 60


 462:.\RFServerStackImpl.c ****                 _g_pumps[index].PumpTransQueueUnlock(&_g_pumps[index]);
 2878              		.loc 1 462 0
 2879 03ec BB7F     		ldrb	r3, [r7, #30]	@ zero_extendqisi2
 2880 03ee 564A     		ldr	r2, .L80
 2881 03f0 4FF41961 		mov	r1, #2448
 2882 03f4 01FB03F3 		mul	r3, r1, r3
 2883 03f8 1344     		add	r3, r3, r2
 2884 03fa 03F51163 		add	r3, r3, #2320
 2885 03fe 1B68     		ldr	r3, [r3]
 2886 0400 BA7F     		ldrb	r2, [r7, #30]	@ zero_extendqisi2
 2887 0402 4FF41961 		mov	r1, #2448
 2888 0406 01FB02F2 		mul	r2, r1, r2
 2889 040a 4F49     		ldr	r1, .L80
 2890 040c 0A44     		add	r2, r2, r1
 2891 040e 1046     		mov	r0, r2
 2892 0410 9847     		blx	r3
 463:.\RFServerStackImpl.c ****                 retval = true;
 2893              		.loc 1 463 0
 2894 0412 0123     		movs	r3, #1
 2895 0414 FB77     		strb	r3, [r7, #31]
 464:.\RFServerStackImpl.c ****                 
 465:.\RFServerStackImpl.c ****                 break;
 2896              		.loc 1 465 0
 2897 0416 08E0     		b	.L75
 2898              	.L69:
 2899              	.LBE19:
 388:.\RFServerStackImpl.c ****         {
 2900              		.loc 1 388 0 discriminator 2
 2901 0418 BB7F     		ldrb	r3, [r7, #30]	@ zero_extendqisi2
 2902 041a 0133     		adds	r3, r3, #1
 2903 041c BB77     		strb	r3, [r7, #30]
 2904              	.L68:
 388:.\RFServerStackImpl.c ****         {
 2905              		.loc 1 388 0 is_stmt 0 discriminator 1
 2906 041e 4B4B     		ldr	r3, .L80+4
 2907 0420 9B78     		ldrb	r3, [r3, #2]	@ zero_extendqisi2
 2908 0422 BA7F     		ldrb	r2, [r7, #30]	@ zero_extendqisi2
 2909 0424 9A42     		cmp	r2, r3
 2910 0426 FFF4FAAD 		bcc	.L76
 2911              	.L75:
 466:.\RFServerStackImpl.c ****             }
 467:.\RFServerStackImpl.c ****         }
 468:.\RFServerStackImpl.c ****         if(!retval)
 2912              		.loc 1 468 0 is_stmt 1
 2913 042a FB7F     		ldrb	r3, [r7, #31]
 2914 042c 83F00103 		eor	r3, r3, #1
 2915 0430 DBB2     		uxtb	r3, r3
 2916 0432 002B     		cmp	r3, #0
 2917 0434 00F08280 		beq	.L67
 2918              	.LBB20:
 469:.\RFServerStackImpl.c ****         {
 470:.\RFServerStackImpl.c ****             //THIS POINT SHOULDN'T EVER BE REACHED SINCE IT MEANS THAT SOMETHING REALLY BAD HAPPENE
 471:.\RFServerStackImpl.c ****             PUARTMESSAGEPTR puartdisp = GetUARTMessageSlot(UART_RF);
 2919              		.loc 1 471 0
 2920 0438 A020     		movs	r0, #160
 2921 043a FFF7FEFF 		bl	GetUARTMessageSlot
 2922 043e F860     		str	r0, [r7, #12]
ARM GAS  C:\Users\RECEPC~1\AppData\Local\Temp\cc5EIyCe.s 			page 61


 472:.\RFServerStackImpl.c ****             if(puartdisp)
 2923              		.loc 1 472 0
 2924 0440 FB68     		ldr	r3, [r7, #12]
 2925 0442 002B     		cmp	r3, #0
 2926 0444 7AD0     		beq	.L67
 473:.\RFServerStackImpl.c ****             {
 474:.\RFServerStackImpl.c ****                 puartdisp->_messagelength = 0;
 2927              		.loc 1 474 0
 2928 0446 FB68     		ldr	r3, [r7, #12]
 2929 0448 0022     		movs	r2, #0
 2930 044a 5A80     		strh	r2, [r3, #2]	@ movhi
 475:.\RFServerStackImpl.c ****                 memset(puartdisp->_messagetx, 0x00, sizeof(puartdisp->_messagetx));
 2931              		.loc 1 475 0
 2932 044c FB68     		ldr	r3, [r7, #12]
 2933 044e 0433     		adds	r3, r3, #4
 2934 0450 1846     		mov	r0, r3
 2935 0452 0021     		movs	r1, #0
 2936 0454 4FF48072 		mov	r2, #256
 2937 0458 FFF7FEFF 		bl	memset
 476:.\RFServerStackImpl.c ****                 memcpy(puartdisp->_messagetx, _g_rfslaveheader, 0x03); //Explicit buffer length to 
 2938              		.loc 1 476 0
 2939 045c FB68     		ldr	r3, [r7, #12]
 2940 045e 0433     		adds	r3, r3, #4
 2941 0460 3B4A     		ldr	r2, .L80+8
 2942 0462 1188     		ldrh	r1, [r2]	@ unaligned
 2943 0464 9278     		ldrb	r2, [r2, #2]
 2944 0466 1980     		strh	r1, [r3]	@ unaligned
 2945 0468 9A70     		strb	r2, [r3, #2]
 477:.\RFServerStackImpl.c ****                 puartdisp->_messagelength += 0x03;
 2946              		.loc 1 477 0
 2947 046a FB68     		ldr	r3, [r7, #12]
 2948 046c 5B88     		ldrh	r3, [r3, #2]	@ movhi
 2949 046e 9BB2     		uxth	r3, r3
 2950 0470 0333     		adds	r3, r3, #3
 2951 0472 9AB2     		uxth	r2, r3
 2952 0474 FB68     		ldr	r3, [r7, #12]
 2953 0476 5A80     		strh	r2, [r3, #2]	@ movhi
 478:.\RFServerStackImpl.c ****                 puartdisp->_messagetx[puartdisp->_messagelength++] = (uint8)(_g_stationidentifier &
 2954              		.loc 1 478 0
 2955 0478 FB68     		ldr	r3, [r7, #12]
 2956 047a 5B88     		ldrh	r3, [r3, #2]	@ movhi
 2957 047c 9BB2     		uxth	r3, r3
 2958 047e 5A1C     		adds	r2, r3, #1
 2959 0480 91B2     		uxth	r1, r2
 2960 0482 FA68     		ldr	r2, [r7, #12]
 2961 0484 5180     		strh	r1, [r2, #2]	@ movhi
 2962 0486 1946     		mov	r1, r3
 2963 0488 324B     		ldr	r3, .L80+12
 2964 048a 1B88     		ldrh	r3, [r3]
 2965 048c DAB2     		uxtb	r2, r3
 2966 048e FB68     		ldr	r3, [r7, #12]
 2967 0490 0B44     		add	r3, r3, r1
 2968 0492 1A71     		strb	r2, [r3, #4]
 479:.\RFServerStackImpl.c ****                 puartdisp->_messagetx[puartdisp->_messagelength++] = (uint8)((_g_stationidentifier 
 2969              		.loc 1 479 0
 2970 0494 FB68     		ldr	r3, [r7, #12]
 2971 0496 5B88     		ldrh	r3, [r3, #2]	@ movhi
ARM GAS  C:\Users\RECEPC~1\AppData\Local\Temp\cc5EIyCe.s 			page 62


 2972 0498 9BB2     		uxth	r3, r3
 2973 049a 5A1C     		adds	r2, r3, #1
 2974 049c 91B2     		uxth	r1, r2
 2975 049e FA68     		ldr	r2, [r7, #12]
 2976 04a0 5180     		strh	r1, [r2, #2]	@ movhi
 2977 04a2 1946     		mov	r1, r3
 2978 04a4 2B4B     		ldr	r3, .L80+12
 2979 04a6 1B88     		ldrh	r3, [r3]
 2980 04a8 1B0A     		lsrs	r3, r3, #8
 2981 04aa 9BB2     		uxth	r3, r3
 2982 04ac DAB2     		uxtb	r2, r3
 2983 04ae FB68     		ldr	r3, [r7, #12]
 2984 04b0 0B44     		add	r3, r3, r1
 2985 04b2 1A71     		strb	r2, [r3, #4]
 480:.\RFServerStackImpl.c ****                 puartdisp->_messagetx[puartdisp->_messagelength++] = pmsg->_buffer[_RF_STREAM_POSIT
 2986              		.loc 1 480 0
 2987 04b4 FB68     		ldr	r3, [r7, #12]
 2988 04b6 5B88     		ldrh	r3, [r3, #2]	@ movhi
 2989 04b8 9BB2     		uxth	r3, r3
 2990 04ba 5A1C     		adds	r2, r3, #1
 2991 04bc 91B2     		uxth	r1, r2
 2992 04be FA68     		ldr	r2, [r7, #12]
 2993 04c0 5180     		strh	r1, [r2, #2]	@ movhi
 2994 04c2 1946     		mov	r1, r3
 2995 04c4 BB69     		ldr	r3, [r7, #24]
 2996 04c6 5A7C     		ldrb	r2, [r3, #17]	@ zero_extendqisi2
 2997 04c8 FB68     		ldr	r3, [r7, #12]
 2998 04ca 0B44     		add	r3, r3, r1
 2999 04cc 1A71     		strb	r2, [r3, #4]
 481:.\RFServerStackImpl.c ****                 puartdisp->_messagetx[puartdisp->_messagelength++] = pmsg->_buffer[_RF_STREAM_COMMA
 3000              		.loc 1 481 0
 3001 04ce FB68     		ldr	r3, [r7, #12]
 3002 04d0 5B88     		ldrh	r3, [r3, #2]	@ movhi
 3003 04d2 9BB2     		uxth	r3, r3
 3004 04d4 5A1C     		adds	r2, r3, #1
 3005 04d6 91B2     		uxth	r1, r2
 3006 04d8 FA68     		ldr	r2, [r7, #12]
 3007 04da 5180     		strh	r1, [r2, #2]	@ movhi
 3008 04dc 1946     		mov	r1, r3
 3009 04de BB69     		ldr	r3, [r7, #24]
 3010 04e0 9A7C     		ldrb	r2, [r3, #18]	@ zero_extendqisi2
 3011 04e2 FB68     		ldr	r3, [r7, #12]
 3012 04e4 0B44     		add	r3, r3, r1
 3013 04e6 1A71     		strb	r2, [r3, #4]
 482:.\RFServerStackImpl.c ****                 puartdisp->_messagetx[puartdisp->_messagelength++] = _RF_NACK_;
 3014              		.loc 1 482 0
 3015 04e8 FB68     		ldr	r3, [r7, #12]
 3016 04ea 5B88     		ldrh	r3, [r3, #2]	@ movhi
 3017 04ec 9BB2     		uxth	r3, r3
 3018 04ee 5A1C     		adds	r2, r3, #1
 3019 04f0 91B2     		uxth	r1, r2
 3020 04f2 FA68     		ldr	r2, [r7, #12]
 3021 04f4 5180     		strh	r1, [r2, #2]	@ movhi
 3022 04f6 1A46     		mov	r2, r3
 3023 04f8 FB68     		ldr	r3, [r7, #12]
 3024 04fa 1344     		add	r3, r3, r2
 3025 04fc 0422     		movs	r2, #4
ARM GAS  C:\Users\RECEPC~1\AppData\Local\Temp\cc5EIyCe.s 			page 63


 3026 04fe 1A71     		strb	r2, [r3, #4]
 483:.\RFServerStackImpl.c ****                 puartdisp->_messagetx[puartdisp->_messagelength] = RawCRCCheck((PSTR)puartdisp->_me
 3027              		.loc 1 483 0
 3028 0500 FB68     		ldr	r3, [r7, #12]
 3029 0502 5B88     		ldrh	r3, [r3, #2]	@ movhi
 3030 0504 9BB2     		uxth	r3, r3
 3031 0506 1C46     		mov	r4, r3
 3032 0508 FB68     		ldr	r3, [r7, #12]
 3033 050a 1A1D     		adds	r2, r3, #4
 3034 050c FB68     		ldr	r3, [r7, #12]
 3035 050e 5B88     		ldrh	r3, [r3, #2]	@ movhi
 3036 0510 9BB2     		uxth	r3, r3
 3037 0512 013B     		subs	r3, r3, #1
 3038 0514 9BB2     		uxth	r3, r3
 3039 0516 1046     		mov	r0, r2
 3040 0518 1946     		mov	r1, r3
 3041 051a FFF7FEFF 		bl	RawCRCCheck
 3042 051e 0346     		mov	r3, r0
 3043 0520 1A46     		mov	r2, r3
 3044 0522 FB68     		ldr	r3, [r7, #12]
 3045 0524 2344     		add	r3, r3, r4
 3046 0526 1A71     		strb	r2, [r3, #4]
 484:.\RFServerStackImpl.c ****                 puartdisp->_messagelength++;
 3047              		.loc 1 484 0
 3048 0528 FB68     		ldr	r3, [r7, #12]
 3049 052a 5B88     		ldrh	r3, [r3, #2]	@ movhi
 3050 052c 9BB2     		uxth	r3, r3
 3051 052e 0133     		adds	r3, r3, #1
 3052 0530 9AB2     		uxth	r2, r3
 3053 0532 FB68     		ldr	r3, [r7, #12]
 3054 0534 5A80     		strh	r2, [r3, #2]	@ movhi
 485:.\RFServerStackImpl.c **** 
 486:.\RFServerStackImpl.c ****                 puartdisp->_messagestate = PENDING;
 3055              		.loc 1 486 0
 3056 0536 FB68     		ldr	r3, [r7, #12]
 3057 0538 C222     		movs	r2, #194
 3058 053a 1A70     		strb	r2, [r3]
 3059              	.L67:
 3060              	.LBE20:
 3061              	.LBE18:
 487:.\RFServerStackImpl.c ****             }
 488:.\RFServerStackImpl.c ****         }
 489:.\RFServerStackImpl.c ****     }
 490:.\RFServerStackImpl.c ****     return retval;
 3062              		.loc 1 490 0
 3063 053c FB7F     		ldrb	r3, [r7, #31]	@ zero_extendqisi2
 491:.\RFServerStackImpl.c **** }
 3064              		.loc 1 491 0
 3065 053e 1846     		mov	r0, r3
 3066 0540 2437     		adds	r7, r7, #36
 3067              		.cfi_def_cfa_offset 12
 3068 0542 BD46     		mov	sp, r7
 3069              		.cfi_def_cfa_register 13
 3070              		@ sp needed
 3071 0544 90BD     		pop	{r4, r7, pc}
 3072              	.L81:
 3073 0546 00BF     		.align	2
ARM GAS  C:\Users\RECEPC~1\AppData\Local\Temp\cc5EIyCe.s 			page 64


 3074              	.L80:
 3075 0548 00000000 		.word	_g_pumps
 3076 054c 00000000 		.word	_g_dispenserlayoutinfo
 3077 0550 00000000 		.word	_g_rfslaveheader
 3078 0554 00000000 		.word	_g_stationidentifier
 3079              		.cfi_endproc
 3080              	.LFE68:
 3081              		.size	RFCashCreditSaleFinalReportReqResp, .-RFCashCreditSaleFinalReportReqResp
 3082              		.section	.text.RFTotalsDataReqResp,"ax",%progbits
 3083              		.align	2
 3084              		.global	RFTotalsDataReqResp
 3085              		.thumb
 3086              		.thumb_func
 3087              		.type	RFTotalsDataReqResp, %function
 3088              	RFTotalsDataReqResp:
 3089              	.LFB69:
 492:.\RFServerStackImpl.c **** 
 493:.\RFServerStackImpl.c **** //@Created By: HIJH
 494:.\RFServerStackImpl.c **** //@Septembre de 2016
 495:.\RFServerStackImpl.c **** bool RFTotalsDataReqResp(void *pparam)
 496:.\RFServerStackImpl.c **** {
 3090              		.loc 1 496 0
 3091              		.cfi_startproc
 3092              		@ args = 0, pretend = 0, frame = 32
 3093              		@ frame_needed = 1, uses_anonymous_args = 0
 3094 0000 90B5     		push	{r4, r7, lr}
 3095              		.cfi_def_cfa_offset 12
 3096              		.cfi_offset 4, -12
 3097              		.cfi_offset 7, -8
 3098              		.cfi_offset 14, -4
 3099 0002 89B0     		sub	sp, sp, #36
 3100              		.cfi_def_cfa_offset 48
 3101 0004 00AF     		add	r7, sp, #0
 3102              		.cfi_def_cfa_register 7
 3103 0006 7860     		str	r0, [r7, #4]
 497:.\RFServerStackImpl.c ****     bool retval = false;
 3104              		.loc 1 497 0
 3105 0008 0023     		movs	r3, #0
 3106 000a 7B77     		strb	r3, [r7, #29]
 498:.\RFServerStackImpl.c ****     PSINKMESSAGEPTR pmsg = (PSINKMESSAGEPTR)pparam;
 3107              		.loc 1 498 0
 3108 000c 7B68     		ldr	r3, [r7, #4]
 3109 000e BB61     		str	r3, [r7, #24]
 499:.\RFServerStackImpl.c ****     if(pmsg)
 3110              		.loc 1 499 0
 3111 0010 BB69     		ldr	r3, [r7, #24]
 3112 0012 002B     		cmp	r3, #0
 3113 0014 00F02881 		beq	.L83
 3114              	.LBB21:
 500:.\RFServerStackImpl.c ****     {
 501:.\RFServerStackImpl.c ****         //Checking the CRC first to proceed
 502:.\RFServerStackImpl.c ****         //CRC must be located at this position for this message (See the protocol description file)
 503:.\RFServerStackImpl.c ****         uint8 crc = RawCRCCheck(pmsg->_buffer, pmsg->_buffersize - 1);
 3115              		.loc 1 503 0
 3116 0018 BB69     		ldr	r3, [r7, #24]
 3117 001a 03F10C02 		add	r2, r3, #12
 3118 001e BB69     		ldr	r3, [r7, #24]
ARM GAS  C:\Users\RECEPC~1\AppData\Local\Temp\cc5EIyCe.s 			page 65


 3119 0020 B3F88C31 		ldrh	r3, [r3, #396]	@ movhi
 3120 0024 9BB2     		uxth	r3, r3
 3121 0026 013B     		subs	r3, r3, #1
 3122 0028 9BB2     		uxth	r3, r3
 3123 002a 1046     		mov	r0, r2
 3124 002c 1946     		mov	r1, r3
 3125 002e FFF7FEFF 		bl	RawCRCCheck
 3126 0032 0346     		mov	r3, r0
 3127 0034 FB75     		strb	r3, [r7, #23]
 504:.\RFServerStackImpl.c ****         if(crc != RFGetCRC(pmsg->_buffer[_RF_STREAM_COMMAND_INDEX_], PBYTECAST(pmsg->_buffer)))//If
 3128              		.loc 1 504 0
 3129 0036 BB69     		ldr	r3, [r7, #24]
 3130 0038 9A7C     		ldrb	r2, [r3, #18]	@ zero_extendqisi2
 3131 003a BB69     		ldr	r3, [r7, #24]
 3132 003c 0C33     		adds	r3, r3, #12
 3133 003e 1046     		mov	r0, r2
 3134 0040 1946     		mov	r1, r3
 3135 0042 FFF7FEFF 		bl	RFGetCRC
 3136 0046 0346     		mov	r3, r0
 3137 0048 1A46     		mov	r2, r3
 3138 004a FB7D     		ldrb	r3, [r7, #23]	@ zero_extendqisi2
 3139 004c 9342     		cmp	r3, r2
 3140 004e 00F08380 		beq	.L84
 3141              	.LBB22:
 505:.\RFServerStackImpl.c ****         {
 506:.\RFServerStackImpl.c ****             PUARTMESSAGEPTR puartdisp = GetUARTMessageSlot(UART_RF);
 3142              		.loc 1 506 0
 3143 0052 A020     		movs	r0, #160
 3144 0054 FFF7FEFF 		bl	GetUARTMessageSlot
 3145 0058 3861     		str	r0, [r7, #16]
 507:.\RFServerStackImpl.c ****             if(puartdisp)
 3146              		.loc 1 507 0
 3147 005a 3B69     		ldr	r3, [r7, #16]
 3148 005c 002B     		cmp	r3, #0
 3149 005e 79D0     		beq	.L85
 508:.\RFServerStackImpl.c ****             {
 509:.\RFServerStackImpl.c ****                 puartdisp->_messagelength = 0;
 3150              		.loc 1 509 0
 3151 0060 3B69     		ldr	r3, [r7, #16]
 3152 0062 0022     		movs	r2, #0
 3153 0064 5A80     		strh	r2, [r3, #2]	@ movhi
 510:.\RFServerStackImpl.c ****                 memset(puartdisp->_messagetx, 0x00, sizeof(puartdisp->_messagetx));
 3154              		.loc 1 510 0
 3155 0066 3B69     		ldr	r3, [r7, #16]
 3156 0068 0433     		adds	r3, r3, #4
 3157 006a 1846     		mov	r0, r3
 3158 006c 0021     		movs	r1, #0
 3159 006e 4FF48072 		mov	r2, #256
 3160 0072 FFF7FEFF 		bl	memset
 511:.\RFServerStackImpl.c ****                 memcpy(puartdisp->_messagetx, _g_rfslaveheader, 0x03); //Explicit buffer length to 
 3161              		.loc 1 511 0
 3162 0076 3B69     		ldr	r3, [r7, #16]
 3163 0078 0433     		adds	r3, r3, #4
 3164 007a 7E4A     		ldr	r2, .L96
 3165 007c 1188     		ldrh	r1, [r2]	@ unaligned
 3166 007e 9278     		ldrb	r2, [r2, #2]
 3167 0080 1980     		strh	r1, [r3]	@ unaligned
ARM GAS  C:\Users\RECEPC~1\AppData\Local\Temp\cc5EIyCe.s 			page 66


 3168 0082 9A70     		strb	r2, [r3, #2]
 512:.\RFServerStackImpl.c ****                 puartdisp->_messagelength += 0x03;
 3169              		.loc 1 512 0
 3170 0084 3B69     		ldr	r3, [r7, #16]
 3171 0086 5B88     		ldrh	r3, [r3, #2]	@ movhi
 3172 0088 9BB2     		uxth	r3, r3
 3173 008a 0333     		adds	r3, r3, #3
 3174 008c 9AB2     		uxth	r2, r3
 3175 008e 3B69     		ldr	r3, [r7, #16]
 3176 0090 5A80     		strh	r2, [r3, #2]	@ movhi
 513:.\RFServerStackImpl.c ****                 puartdisp->_messagetx[puartdisp->_messagelength++] = (uint8)(_g_stationidentifier &
 3177              		.loc 1 513 0
 3178 0092 3B69     		ldr	r3, [r7, #16]
 3179 0094 5B88     		ldrh	r3, [r3, #2]	@ movhi
 3180 0096 9BB2     		uxth	r3, r3
 3181 0098 5A1C     		adds	r2, r3, #1
 3182 009a 91B2     		uxth	r1, r2
 3183 009c 3A69     		ldr	r2, [r7, #16]
 3184 009e 5180     		strh	r1, [r2, #2]	@ movhi
 3185 00a0 1946     		mov	r1, r3
 3186 00a2 754B     		ldr	r3, .L96+4
 3187 00a4 1B88     		ldrh	r3, [r3]
 3188 00a6 DAB2     		uxtb	r2, r3
 3189 00a8 3B69     		ldr	r3, [r7, #16]
 3190 00aa 0B44     		add	r3, r3, r1
 3191 00ac 1A71     		strb	r2, [r3, #4]
 514:.\RFServerStackImpl.c ****                 puartdisp->_messagetx[puartdisp->_messagelength++] = (uint8)((_g_stationidentifier 
 3192              		.loc 1 514 0
 3193 00ae 3B69     		ldr	r3, [r7, #16]
 3194 00b0 5B88     		ldrh	r3, [r3, #2]	@ movhi
 3195 00b2 9BB2     		uxth	r3, r3
 3196 00b4 5A1C     		adds	r2, r3, #1
 3197 00b6 91B2     		uxth	r1, r2
 3198 00b8 3A69     		ldr	r2, [r7, #16]
 3199 00ba 5180     		strh	r1, [r2, #2]	@ movhi
 3200 00bc 1946     		mov	r1, r3
 3201 00be 6E4B     		ldr	r3, .L96+4
 3202 00c0 1B88     		ldrh	r3, [r3]
 3203 00c2 1B0A     		lsrs	r3, r3, #8
 3204 00c4 9BB2     		uxth	r3, r3
 3205 00c6 DAB2     		uxtb	r2, r3
 3206 00c8 3B69     		ldr	r3, [r7, #16]
 3207 00ca 0B44     		add	r3, r3, r1
 3208 00cc 1A71     		strb	r2, [r3, #4]
 515:.\RFServerStackImpl.c ****                 puartdisp->_messagetx[puartdisp->_messagelength++] = pmsg->_buffer[_RF_STREAM_POSIT
 3209              		.loc 1 515 0
 3210 00ce 3B69     		ldr	r3, [r7, #16]
 3211 00d0 5B88     		ldrh	r3, [r3, #2]	@ movhi
 3212 00d2 9BB2     		uxth	r3, r3
 3213 00d4 5A1C     		adds	r2, r3, #1
 3214 00d6 91B2     		uxth	r1, r2
 3215 00d8 3A69     		ldr	r2, [r7, #16]
 3216 00da 5180     		strh	r1, [r2, #2]	@ movhi
 3217 00dc 1946     		mov	r1, r3
 3218 00de BB69     		ldr	r3, [r7, #24]
 3219 00e0 5A7C     		ldrb	r2, [r3, #17]	@ zero_extendqisi2
 3220 00e2 3B69     		ldr	r3, [r7, #16]
ARM GAS  C:\Users\RECEPC~1\AppData\Local\Temp\cc5EIyCe.s 			page 67


 3221 00e4 0B44     		add	r3, r3, r1
 3222 00e6 1A71     		strb	r2, [r3, #4]
 516:.\RFServerStackImpl.c ****                 puartdisp->_messagetx[puartdisp->_messagelength++] = RF_MUX_TOTALS_RESPONSE;
 3223              		.loc 1 516 0
 3224 00e8 3B69     		ldr	r3, [r7, #16]
 3225 00ea 5B88     		ldrh	r3, [r3, #2]	@ movhi
 3226 00ec 9BB2     		uxth	r3, r3
 3227 00ee 5A1C     		adds	r2, r3, #1
 3228 00f0 91B2     		uxth	r1, r2
 3229 00f2 3A69     		ldr	r2, [r7, #16]
 3230 00f4 5180     		strh	r1, [r2, #2]	@ movhi
 3231 00f6 1A46     		mov	r2, r3
 3232 00f8 3B69     		ldr	r3, [r7, #16]
 3233 00fa 1344     		add	r3, r3, r2
 3234 00fc A522     		movs	r2, #165
 3235 00fe 1A71     		strb	r2, [r3, #4]
 517:.\RFServerStackImpl.c ****                 puartdisp->_messagetx[puartdisp->_messagelength++] = _RF_NACK_;
 3236              		.loc 1 517 0
 3237 0100 3B69     		ldr	r3, [r7, #16]
 3238 0102 5B88     		ldrh	r3, [r3, #2]	@ movhi
 3239 0104 9BB2     		uxth	r3, r3
 3240 0106 5A1C     		adds	r2, r3, #1
 3241 0108 91B2     		uxth	r1, r2
 3242 010a 3A69     		ldr	r2, [r7, #16]
 3243 010c 5180     		strh	r1, [r2, #2]	@ movhi
 3244 010e 1A46     		mov	r2, r3
 3245 0110 3B69     		ldr	r3, [r7, #16]
 3246 0112 1344     		add	r3, r3, r2
 3247 0114 0422     		movs	r2, #4
 3248 0116 1A71     		strb	r2, [r3, #4]
 518:.\RFServerStackImpl.c ****                 puartdisp->_messagetx[puartdisp->_messagelength] = RawCRCCheck((PSTR)puartdisp->_me
 3249              		.loc 1 518 0
 3250 0118 3B69     		ldr	r3, [r7, #16]
 3251 011a 5B88     		ldrh	r3, [r3, #2]	@ movhi
 3252 011c 9BB2     		uxth	r3, r3
 3253 011e 1C46     		mov	r4, r3
 3254 0120 3B69     		ldr	r3, [r7, #16]
 3255 0122 1A1D     		adds	r2, r3, #4
 3256 0124 3B69     		ldr	r3, [r7, #16]
 3257 0126 5B88     		ldrh	r3, [r3, #2]	@ movhi
 3258 0128 9BB2     		uxth	r3, r3
 3259 012a 013B     		subs	r3, r3, #1
 3260 012c 9BB2     		uxth	r3, r3
 3261 012e 1046     		mov	r0, r2
 3262 0130 1946     		mov	r1, r3
 3263 0132 FFF7FEFF 		bl	RawCRCCheck
 3264 0136 0346     		mov	r3, r0
 3265 0138 1A46     		mov	r2, r3
 3266 013a 3B69     		ldr	r3, [r7, #16]
 3267 013c 2344     		add	r3, r3, r4
 3268 013e 1A71     		strb	r2, [r3, #4]
 519:.\RFServerStackImpl.c ****                 puartdisp->_messagelength++;
 3269              		.loc 1 519 0
 3270 0140 3B69     		ldr	r3, [r7, #16]
 3271 0142 5B88     		ldrh	r3, [r3, #2]	@ movhi
 3272 0144 9BB2     		uxth	r3, r3
 3273 0146 0133     		adds	r3, r3, #1
ARM GAS  C:\Users\RECEPC~1\AppData\Local\Temp\cc5EIyCe.s 			page 68


 3274 0148 9AB2     		uxth	r2, r3
 3275 014a 3B69     		ldr	r3, [r7, #16]
 3276 014c 5A80     		strh	r2, [r3, #2]	@ movhi
 520:.\RFServerStackImpl.c **** 
 521:.\RFServerStackImpl.c ****                 puartdisp->_messagestate = PENDING;
 3277              		.loc 1 521 0
 3278 014e 3B69     		ldr	r3, [r7, #16]
 3279 0150 C222     		movs	r2, #194
 3280 0152 1A70     		strb	r2, [r3]
 3281              	.L85:
 522:.\RFServerStackImpl.c ****             }
 523:.\RFServerStackImpl.c ****             return retval;
 3282              		.loc 1 523 0
 3283 0154 7B7F     		ldrb	r3, [r7, #29]	@ zero_extendqisi2
 3284 0156 88E0     		b	.L86
 3285              	.L84:
 3286              	.LBE22:
 524:.\RFServerStackImpl.c ****         }
 525:.\RFServerStackImpl.c ****         if(!retval)
 3287              		.loc 1 525 0
 3288 0158 7B7F     		ldrb	r3, [r7, #29]
 3289 015a 83F00103 		eor	r3, r3, #1
 3290 015e DBB2     		uxtb	r3, r3
 3291 0160 002B     		cmp	r3, #0
 3292 0162 00F08180 		beq	.L83
 3293              	.LBB23:
 526:.\RFServerStackImpl.c ****         {
 527:.\RFServerStackImpl.c ****             bool bfound = false;
 3294              		.loc 1 527 0
 3295 0166 0023     		movs	r3, #0
 3296 0168 FB77     		strb	r3, [r7, #31]
 528:.\RFServerStackImpl.c ****             FOR(uint8 index = 0x00, index < _g_dispenserlayoutinfo._numpositions, index++)
 3297              		.loc 1 528 0
 3298 016a 0023     		movs	r3, #0
 3299 016c BB77     		strb	r3, [r7, #30]
 3300 016e 2AE0     		b	.L87
 3301              	.L90:
 529:.\RFServerStackImpl.c ****             {
 530:.\RFServerStackImpl.c ****                 if(_g_pumps[index]._pumpid  == (pmsg->_buffer[_RF_STREAM_POSITION_INDEX_] - _g_disp
 3302              		.loc 1 530 0
 3303 0170 BB7F     		ldrb	r3, [r7, #30]	@ zero_extendqisi2
 3304 0172 424A     		ldr	r2, .L96+8
 3305 0174 4FF41961 		mov	r1, #2448
 3306 0178 01FB03F3 		mul	r3, r1, r3
 3307 017c 1344     		add	r3, r3, r2
 3308 017e 1B78     		ldrb	r3, [r3]	@ zero_extendqisi2
 3309 0180 1A46     		mov	r2, r3
 3310 0182 BB69     		ldr	r3, [r7, #24]
 3311 0184 5B7C     		ldrb	r3, [r3, #17]	@ zero_extendqisi2
 3312 0186 1946     		mov	r1, r3
 3313 0188 3D4B     		ldr	r3, .L96+12
 3314 018a 9B7C     		ldrb	r3, [r3, #18]	@ zero_extendqisi2
 3315 018c CB1A     		subs	r3, r1, r3
 3316 018e 9A42     		cmp	r2, r3
 3317 0190 16D1     		bne	.L88
 531:.\RFServerStackImpl.c ****                 {
 532:.\RFServerStackImpl.c ****                     bfound = _g_pumps[index].PumpTransQueueFind(&_g_pumps[index], RF_MUX_TOTALS_REP
ARM GAS  C:\Users\RECEPC~1\AppData\Local\Temp\cc5EIyCe.s 			page 69


 3318              		.loc 1 532 0
 3319 0192 BB7F     		ldrb	r3, [r7, #30]	@ zero_extendqisi2
 3320 0194 394A     		ldr	r2, .L96+8
 3321 0196 4FF41961 		mov	r1, #2448
 3322 019a 01FB03F3 		mul	r3, r1, r3
 3323 019e 1344     		add	r3, r3, r2
 3324 01a0 03F51163 		add	r3, r3, #2320
 3325 01a4 5B68     		ldr	r3, [r3, #4]
 3326 01a6 BA7F     		ldrb	r2, [r7, #30]	@ zero_extendqisi2
 3327 01a8 4FF41961 		mov	r1, #2448
 3328 01ac 01FB02F2 		mul	r2, r1, r2
 3329 01b0 3249     		ldr	r1, .L96+8
 3330 01b2 0A44     		add	r2, r2, r1
 3331 01b4 1046     		mov	r0, r2
 3332 01b6 E821     		movs	r1, #232
 3333 01b8 9847     		blx	r3
 3334 01ba 0346     		mov	r3, r0
 3335 01bc FB77     		strb	r3, [r7, #31]
 533:.\RFServerStackImpl.c ****                     break;
 3336              		.loc 1 533 0
 3337 01be 07E0     		b	.L89
 3338              	.L88:
 528:.\RFServerStackImpl.c ****             {
 3339              		.loc 1 528 0 discriminator 2
 3340 01c0 BB7F     		ldrb	r3, [r7, #30]	@ zero_extendqisi2
 3341 01c2 0133     		adds	r3, r3, #1
 3342 01c4 BB77     		strb	r3, [r7, #30]
 3343              	.L87:
 528:.\RFServerStackImpl.c ****             {
 3344              		.loc 1 528 0 is_stmt 0 discriminator 1
 3345 01c6 2E4B     		ldr	r3, .L96+12
 3346 01c8 9B78     		ldrb	r3, [r3, #2]	@ zero_extendqisi2
 3347 01ca BA7F     		ldrb	r2, [r7, #30]	@ zero_extendqisi2
 3348 01cc 9A42     		cmp	r2, r3
 3349 01ce CFD3     		bcc	.L90
 3350              	.L89:
 534:.\RFServerStackImpl.c ****                 }
 535:.\RFServerStackImpl.c ****             }
 536:.\RFServerStackImpl.c ****             if(!bfound)
 3351              		.loc 1 536 0 is_stmt 1
 3352 01d0 FB7F     		ldrb	r3, [r7, #31]
 3353 01d2 83F00103 		eor	r3, r3, #1
 3354 01d6 DBB2     		uxtb	r3, r3
 3355 01d8 002B     		cmp	r3, #0
 3356 01da 45D0     		beq	.L83
 3357              	.LBB24:
 537:.\RFServerStackImpl.c ****             {
 538:.\RFServerStackImpl.c ****                 PSINKMESSAGEPTR *parrsinkmsg = AllocateMessageArraySlotConditional(DISPENSER_ACQUIR
 3358              		.loc 1 538 0
 3359 01dc 1320     		movs	r0, #19
 3360 01de FFF7FEFF 		bl	AllocateMessageArraySlotConditional
 3361 01e2 F860     		str	r0, [r7, #12]
 539:.\RFServerStackImpl.c ****                 FOR(index = 0, index < 0x04, index++)
 3362              		.loc 1 539 0
 3363 01e4 0023     		movs	r3, #0
 3364 01e6 BB77     		strb	r3, [r7, #30]
 3365 01e8 1CE0     		b	.L91
ARM GAS  C:\Users\RECEPC~1\AppData\Local\Temp\cc5EIyCe.s 			page 70


 3366              	.L95:
 540:.\RFServerStackImpl.c ****                 {
 541:.\RFServerStackImpl.c ****                     if(parrsinkmsg[index] == PNEAR_NULLPTR)
 3367              		.loc 1 541 0
 3368 01ea BB7F     		ldrb	r3, [r7, #30]	@ zero_extendqisi2
 3369 01ec 9B00     		lsls	r3, r3, #2
 3370 01ee FA68     		ldr	r2, [r7, #12]
 3371 01f0 1344     		add	r3, r3, r2
 3372 01f2 1B68     		ldr	r3, [r3]
 3373 01f4 002B     		cmp	r3, #0
 3374 01f6 00D1     		bne	.L92
 542:.\RFServerStackImpl.c ****                         break;
 3375              		.loc 1 542 0
 3376 01f8 17E0     		b	.L93
 3377              	.L92:
 543:.\RFServerStackImpl.c **** 
 544:.\RFServerStackImpl.c ****                     if(parrsinkmsg[index]->_buffer[0x00] == (pmsg->_buffer[_RF_STREAM_POSITION_INDE
 3378              		.loc 1 544 0
 3379 01fa BB7F     		ldrb	r3, [r7, #30]	@ zero_extendqisi2
 3380 01fc 9B00     		lsls	r3, r3, #2
 3381 01fe FA68     		ldr	r2, [r7, #12]
 3382 0200 1344     		add	r3, r3, r2
 3383 0202 1B68     		ldr	r3, [r3]
 3384 0204 1B7B     		ldrb	r3, [r3, #12]	@ zero_extendqisi2
 3385 0206 1A46     		mov	r2, r3
 3386 0208 BB69     		ldr	r3, [r7, #24]
 3387 020a 5B7C     		ldrb	r3, [r3, #17]	@ zero_extendqisi2
 3388 020c 1946     		mov	r1, r3
 3389 020e 1C4B     		ldr	r3, .L96+12
 3390 0210 9B7C     		ldrb	r3, [r3, #18]	@ zero_extendqisi2
 3391 0212 CB1A     		subs	r3, r1, r3
 3392 0214 9A42     		cmp	r2, r3
 3393 0216 02D1     		bne	.L94
 545:.\RFServerStackImpl.c ****                     {
 546:.\RFServerStackImpl.c ****                         bfound = true;
 3394              		.loc 1 546 0
 3395 0218 0123     		movs	r3, #1
 3396 021a FB77     		strb	r3, [r7, #31]
 547:.\RFServerStackImpl.c ****                         break;
 3397              		.loc 1 547 0
 3398 021c 05E0     		b	.L93
 3399              	.L94:
 539:.\RFServerStackImpl.c ****                 {
 3400              		.loc 1 539 0 discriminator 2
 3401 021e BB7F     		ldrb	r3, [r7, #30]	@ zero_extendqisi2
 3402 0220 0133     		adds	r3, r3, #1
 3403 0222 BB77     		strb	r3, [r7, #30]
 3404              	.L91:
 539:.\RFServerStackImpl.c ****                 {
 3405              		.loc 1 539 0 is_stmt 0 discriminator 1
 3406 0224 BB7F     		ldrb	r3, [r7, #30]	@ zero_extendqisi2
 3407 0226 032B     		cmp	r3, #3
 3408 0228 DFD9     		bls	.L95
 3409              	.L93:
 548:.\RFServerStackImpl.c ****                     }
 549:.\RFServerStackImpl.c ****                 }
 550:.\RFServerStackImpl.c ****                 if(!bfound)
ARM GAS  C:\Users\RECEPC~1\AppData\Local\Temp\cc5EIyCe.s 			page 71


 3410              		.loc 1 550 0 is_stmt 1
 3411 022a FB7F     		ldrb	r3, [r7, #31]
 3412 022c 83F00103 		eor	r3, r3, #1
 3413 0230 DBB2     		uxtb	r3, r3
 3414 0232 002B     		cmp	r3, #0
 3415 0234 18D0     		beq	.L83
 3416              	.LBB25:
 551:.\RFServerStackImpl.c ****                 {
 552:.\RFServerStackImpl.c ****                     PSINKMESSAGEPTR psinkmsg = AllocateMessageSlot(DISPENSER_ACQUIRE_TOTALS);
 3417              		.loc 1 552 0
 3418 0236 1320     		movs	r0, #19
 3419 0238 FFF7FEFF 		bl	AllocateMessageSlot
 3420 023c B860     		str	r0, [r7, #8]
 553:.\RFServerStackImpl.c ****                     psinkmsg->_messageid = DISPENSER_ACQUIRE_TOTALS;
 3421              		.loc 1 553 0
 3422 023e BB68     		ldr	r3, [r7, #8]
 3423 0240 1322     		movs	r2, #19
 3424 0242 5A70     		strb	r2, [r3, #1]
 554:.\RFServerStackImpl.c ****                     psinkmsg->_messagetype = FIRSTFOUND;
 3425              		.loc 1 554 0
 3426 0244 BB68     		ldr	r3, [r7, #8]
 3427 0246 0322     		movs	r2, #3
 3428 0248 9A70     		strb	r2, [r3, #2]
 555:.\RFServerStackImpl.c ****                     psinkmsg->_buffer[0x00] = (pmsg->_buffer[_RF_STREAM_POSITION_INDEX_] - _g_dispe
 3429              		.loc 1 555 0
 3430 024a BB69     		ldr	r3, [r7, #24]
 3431 024c 5A7C     		ldrb	r2, [r3, #17]	@ zero_extendqisi2
 3432 024e 0C4B     		ldr	r3, .L96+12
 3433 0250 9B7C     		ldrb	r3, [r3, #18]	@ zero_extendqisi2
 3434 0252 D31A     		subs	r3, r2, r3
 3435 0254 DAB2     		uxtb	r2, r3
 3436 0256 BB68     		ldr	r3, [r7, #8]
 3437 0258 1A73     		strb	r2, [r3, #12]
 556:.\RFServerStackImpl.c ****                     psinkmsg->_buffersize = 0x01;
 3438              		.loc 1 556 0
 3439 025a BB68     		ldr	r3, [r7, #8]
 3440 025c 0122     		movs	r2, #1
 3441 025e A3F88C21 		strh	r2, [r3, #396]	@ movhi
 557:.\RFServerStackImpl.c ****                     
 558:.\RFServerStackImpl.c ****                     psinkmsg->_messagestate = SINK_BUSY;
 3442              		.loc 1 558 0
 3443 0262 BB68     		ldr	r3, [r7, #8]
 3444 0264 0322     		movs	r2, #3
 3445 0266 DA70     		strb	r2, [r3, #3]
 3446              	.L83:
 3447              	.LBE25:
 3448              	.LBE24:
 3449              	.LBE23:
 3450              	.LBE21:
 559:.\RFServerStackImpl.c ****                 }
 560:.\RFServerStackImpl.c ****             }
 561:.\RFServerStackImpl.c ****         }
 562:.\RFServerStackImpl.c ****     }
 563:.\RFServerStackImpl.c ****     return retval;
 3451              		.loc 1 563 0
 3452 0268 7B7F     		ldrb	r3, [r7, #29]	@ zero_extendqisi2
 3453              	.L86:
ARM GAS  C:\Users\RECEPC~1\AppData\Local\Temp\cc5EIyCe.s 			page 72


 564:.\RFServerStackImpl.c **** }
 3454              		.loc 1 564 0
 3455 026a 1846     		mov	r0, r3
 3456 026c 2437     		adds	r7, r7, #36
 3457              		.cfi_def_cfa_offset 12
 3458 026e BD46     		mov	sp, r7
 3459              		.cfi_def_cfa_register 13
 3460              		@ sp needed
 3461 0270 90BD     		pop	{r4, r7, pc}
 3462              	.L97:
 3463 0272 00BF     		.align	2
 3464              	.L96:
 3465 0274 00000000 		.word	_g_rfslaveheader
 3466 0278 00000000 		.word	_g_stationidentifier
 3467 027c 00000000 		.word	_g_pumps
 3468 0280 00000000 		.word	_g_dispenserlayoutinfo
 3469              		.cfi_endproc
 3470              	.LFE69:
 3471              		.size	RFTotalsDataReqResp, .-RFTotalsDataReqResp
 3472              		.section	.text.RFTotalsDataReportReqResp,"ax",%progbits
 3473              		.align	2
 3474              		.global	RFTotalsDataReportReqResp
 3475              		.thumb
 3476              		.thumb_func
 3477              		.type	RFTotalsDataReportReqResp, %function
 3478              	RFTotalsDataReportReqResp:
 3479              	.LFB70:
 565:.\RFServerStackImpl.c **** 
 566:.\RFServerStackImpl.c **** //@Created By: HIJH
 567:.\RFServerStackImpl.c **** //@Septembre de 2016
 568:.\RFServerStackImpl.c **** bool RFTotalsDataReportReqResp(void *pparam)
 569:.\RFServerStackImpl.c **** {
 3480              		.loc 1 569 0
 3481              		.cfi_startproc
 3482              		@ args = 0, pretend = 0, frame = 48
 3483              		@ frame_needed = 1, uses_anonymous_args = 0
 3484 0000 90B5     		push	{r4, r7, lr}
 3485              		.cfi_def_cfa_offset 12
 3486              		.cfi_offset 4, -12
 3487              		.cfi_offset 7, -8
 3488              		.cfi_offset 14, -4
 3489 0002 8DB0     		sub	sp, sp, #52
 3490              		.cfi_def_cfa_offset 64
 3491 0004 00AF     		add	r7, sp, #0
 3492              		.cfi_def_cfa_register 7
 3493 0006 7860     		str	r0, [r7, #4]
 570:.\RFServerStackImpl.c ****     bool retval = false;
 3494              		.loc 1 570 0
 3495 0008 0023     		movs	r3, #0
 3496 000a 87F82F30 		strb	r3, [r7, #47]
 571:.\RFServerStackImpl.c ****     PSINKMESSAGEPTR pmsg = (PSINKMESSAGEPTR)pparam;
 3497              		.loc 1 571 0
 3498 000e 7B68     		ldr	r3, [r7, #4]
 3499 0010 7B62     		str	r3, [r7, #36]
 572:.\RFServerStackImpl.c ****     if(pmsg)
 3500              		.loc 1 572 0
 3501 0012 7B6A     		ldr	r3, [r7, #36]
ARM GAS  C:\Users\RECEPC~1\AppData\Local\Temp\cc5EIyCe.s 			page 73


 3502 0014 002B     		cmp	r3, #0
 3503 0016 00F05287 		beq	.L99
 3504              	.LBB26:
 573:.\RFServerStackImpl.c ****     {
 574:.\RFServerStackImpl.c ****         //Checking the CRC first to proceed
 575:.\RFServerStackImpl.c ****         //CRC must be located at this position for this message (See the protocol description file)
 576:.\RFServerStackImpl.c ****         uint8 crc = RawCRCCheck(pmsg->_buffer, pmsg->_buffersize - 1);
 3505              		.loc 1 576 0
 3506 001a 7B6A     		ldr	r3, [r7, #36]
 3507 001c 03F10C02 		add	r2, r3, #12
 3508 0020 7B6A     		ldr	r3, [r7, #36]
 3509 0022 B3F88C31 		ldrh	r3, [r3, #396]	@ movhi
 3510 0026 9BB2     		uxth	r3, r3
 3511 0028 013B     		subs	r3, r3, #1
 3512 002a 9BB2     		uxth	r3, r3
 3513 002c 1046     		mov	r0, r2
 3514 002e 1946     		mov	r1, r3
 3515 0030 FFF7FEFF 		bl	RawCRCCheck
 3516 0034 0346     		mov	r3, r0
 3517 0036 87F82330 		strb	r3, [r7, #35]
 577:.\RFServerStackImpl.c ****         if(crc != RFGetCRC(pmsg->_buffer[_RF_STREAM_COMMAND_INDEX_], PBYTECAST(pmsg->_buffer)))//If
 3518              		.loc 1 577 0
 3519 003a 7B6A     		ldr	r3, [r7, #36]
 3520 003c 9A7C     		ldrb	r2, [r3, #18]	@ zero_extendqisi2
 3521 003e 7B6A     		ldr	r3, [r7, #36]
 3522 0040 0C33     		adds	r3, r3, #12
 3523 0042 1046     		mov	r0, r2
 3524 0044 1946     		mov	r1, r3
 3525 0046 FFF7FEFF 		bl	RFGetCRC
 3526 004a 0346     		mov	r3, r0
 3527 004c 1A46     		mov	r2, r3
 3528 004e 97F82330 		ldrb	r3, [r7, #35]	@ zero_extendqisi2
 3529 0052 9342     		cmp	r3, r2
 3530 0054 00F08580 		beq	.L100
 3531              	.LBB27:
 578:.\RFServerStackImpl.c ****         {
 579:.\RFServerStackImpl.c ****             PUARTMESSAGEPTR puartdisp = GetUARTMessageSlot(UART_RF);
 3532              		.loc 1 579 0
 3533 0058 A020     		movs	r0, #160
 3534 005a FFF7FEFF 		bl	GetUARTMessageSlot
 3535 005e F861     		str	r0, [r7, #28]
 580:.\RFServerStackImpl.c ****             if(puartdisp)
 3536              		.loc 1 580 0
 3537 0060 FB69     		ldr	r3, [r7, #28]
 3538 0062 002B     		cmp	r3, #0
 3539 0064 79D0     		beq	.L101
 581:.\RFServerStackImpl.c ****             {
 582:.\RFServerStackImpl.c ****                 puartdisp->_messagelength = 0;
 3540              		.loc 1 582 0
 3541 0066 FB69     		ldr	r3, [r7, #28]
 3542 0068 0022     		movs	r2, #0
 3543 006a 5A80     		strh	r2, [r3, #2]	@ movhi
 583:.\RFServerStackImpl.c ****                 memset(puartdisp->_messagetx, 0x00, sizeof(puartdisp->_messagetx));
 3544              		.loc 1 583 0
 3545 006c FB69     		ldr	r3, [r7, #28]
 3546 006e 0433     		adds	r3, r3, #4
 3547 0070 1846     		mov	r0, r3
ARM GAS  C:\Users\RECEPC~1\AppData\Local\Temp\cc5EIyCe.s 			page 74


 3548 0072 0021     		movs	r1, #0
 3549 0074 4FF48072 		mov	r2, #256
 3550 0078 FFF7FEFF 		bl	memset
 584:.\RFServerStackImpl.c ****                 memcpy(puartdisp->_messagetx, _g_rfslaveheader, 0x03); //Explicit buffer length to 
 3551              		.loc 1 584 0
 3552 007c FB69     		ldr	r3, [r7, #28]
 3553 007e 0433     		adds	r3, r3, #4
 3554 0080 AA4A     		ldr	r2, .L120
 3555 0082 1188     		ldrh	r1, [r2]	@ unaligned
 3556 0084 9278     		ldrb	r2, [r2, #2]
 3557 0086 1980     		strh	r1, [r3]	@ unaligned
 3558 0088 9A70     		strb	r2, [r3, #2]
 585:.\RFServerStackImpl.c ****                 puartdisp->_messagelength += 0x03;
 3559              		.loc 1 585 0
 3560 008a FB69     		ldr	r3, [r7, #28]
 3561 008c 5B88     		ldrh	r3, [r3, #2]	@ movhi
 3562 008e 9BB2     		uxth	r3, r3
 3563 0090 0333     		adds	r3, r3, #3
 3564 0092 9AB2     		uxth	r2, r3
 3565 0094 FB69     		ldr	r3, [r7, #28]
 3566 0096 5A80     		strh	r2, [r3, #2]	@ movhi
 586:.\RFServerStackImpl.c ****                 puartdisp->_messagetx[puartdisp->_messagelength++] = (uint8)(_g_stationidentifier &
 3567              		.loc 1 586 0
 3568 0098 FB69     		ldr	r3, [r7, #28]
 3569 009a 5B88     		ldrh	r3, [r3, #2]	@ movhi
 3570 009c 9BB2     		uxth	r3, r3
 3571 009e 5A1C     		adds	r2, r3, #1
 3572 00a0 91B2     		uxth	r1, r2
 3573 00a2 FA69     		ldr	r2, [r7, #28]
 3574 00a4 5180     		strh	r1, [r2, #2]	@ movhi
 3575 00a6 1946     		mov	r1, r3
 3576 00a8 A14B     		ldr	r3, .L120+4
 3577 00aa 1B88     		ldrh	r3, [r3]
 3578 00ac DAB2     		uxtb	r2, r3
 3579 00ae FB69     		ldr	r3, [r7, #28]
 3580 00b0 0B44     		add	r3, r3, r1
 3581 00b2 1A71     		strb	r2, [r3, #4]
 587:.\RFServerStackImpl.c ****                 puartdisp->_messagetx[puartdisp->_messagelength++] = (uint8)((_g_stationidentifier 
 3582              		.loc 1 587 0
 3583 00b4 FB69     		ldr	r3, [r7, #28]
 3584 00b6 5B88     		ldrh	r3, [r3, #2]	@ movhi
 3585 00b8 9BB2     		uxth	r3, r3
 3586 00ba 5A1C     		adds	r2, r3, #1
 3587 00bc 91B2     		uxth	r1, r2
 3588 00be FA69     		ldr	r2, [r7, #28]
 3589 00c0 5180     		strh	r1, [r2, #2]	@ movhi
 3590 00c2 1946     		mov	r1, r3
 3591 00c4 9A4B     		ldr	r3, .L120+4
 3592 00c6 1B88     		ldrh	r3, [r3]
 3593 00c8 1B0A     		lsrs	r3, r3, #8
 3594 00ca 9BB2     		uxth	r3, r3
 3595 00cc DAB2     		uxtb	r2, r3
 3596 00ce FB69     		ldr	r3, [r7, #28]
 3597 00d0 0B44     		add	r3, r3, r1
 3598 00d2 1A71     		strb	r2, [r3, #4]
 588:.\RFServerStackImpl.c ****                 puartdisp->_messagetx[puartdisp->_messagelength++] = pmsg->_buffer[_RF_STREAM_POSIT
 3599              		.loc 1 588 0
ARM GAS  C:\Users\RECEPC~1\AppData\Local\Temp\cc5EIyCe.s 			page 75


 3600 00d4 FB69     		ldr	r3, [r7, #28]
 3601 00d6 5B88     		ldrh	r3, [r3, #2]	@ movhi
 3602 00d8 9BB2     		uxth	r3, r3
 3603 00da 5A1C     		adds	r2, r3, #1
 3604 00dc 91B2     		uxth	r1, r2
 3605 00de FA69     		ldr	r2, [r7, #28]
 3606 00e0 5180     		strh	r1, [r2, #2]	@ movhi
 3607 00e2 1946     		mov	r1, r3
 3608 00e4 7B6A     		ldr	r3, [r7, #36]
 3609 00e6 5A7C     		ldrb	r2, [r3, #17]	@ zero_extendqisi2
 3610 00e8 FB69     		ldr	r3, [r7, #28]
 3611 00ea 0B44     		add	r3, r3, r1
 3612 00ec 1A71     		strb	r2, [r3, #4]
 589:.\RFServerStackImpl.c ****                 puartdisp->_messagetx[puartdisp->_messagelength++] = RF_MUX_TOTALS_REPORT_RESPONSE;
 3613              		.loc 1 589 0
 3614 00ee FB69     		ldr	r3, [r7, #28]
 3615 00f0 5B88     		ldrh	r3, [r3, #2]	@ movhi
 3616 00f2 9BB2     		uxth	r3, r3
 3617 00f4 5A1C     		adds	r2, r3, #1
 3618 00f6 91B2     		uxth	r1, r2
 3619 00f8 FA69     		ldr	r2, [r7, #28]
 3620 00fa 5180     		strh	r1, [r2, #2]	@ movhi
 3621 00fc 1A46     		mov	r2, r3
 3622 00fe FB69     		ldr	r3, [r7, #28]
 3623 0100 1344     		add	r3, r3, r2
 3624 0102 E822     		movs	r2, #232
 3625 0104 1A71     		strb	r2, [r3, #4]
 590:.\RFServerStackImpl.c ****                 puartdisp->_messagetx[puartdisp->_messagelength++] = _RF_NACK_;
 3626              		.loc 1 590 0
 3627 0106 FB69     		ldr	r3, [r7, #28]
 3628 0108 5B88     		ldrh	r3, [r3, #2]	@ movhi
 3629 010a 9BB2     		uxth	r3, r3
 3630 010c 5A1C     		adds	r2, r3, #1
 3631 010e 91B2     		uxth	r1, r2
 3632 0110 FA69     		ldr	r2, [r7, #28]
 3633 0112 5180     		strh	r1, [r2, #2]	@ movhi
 3634 0114 1A46     		mov	r2, r3
 3635 0116 FB69     		ldr	r3, [r7, #28]
 3636 0118 1344     		add	r3, r3, r2
 3637 011a 0422     		movs	r2, #4
 3638 011c 1A71     		strb	r2, [r3, #4]
 591:.\RFServerStackImpl.c ****                 puartdisp->_messagetx[puartdisp->_messagelength] = RawCRCCheck((PSTR)puartdisp->_me
 3639              		.loc 1 591 0
 3640 011e FB69     		ldr	r3, [r7, #28]
 3641 0120 5B88     		ldrh	r3, [r3, #2]	@ movhi
 3642 0122 9BB2     		uxth	r3, r3
 3643 0124 1C46     		mov	r4, r3
 3644 0126 FB69     		ldr	r3, [r7, #28]
 3645 0128 1A1D     		adds	r2, r3, #4
 3646 012a FB69     		ldr	r3, [r7, #28]
 3647 012c 5B88     		ldrh	r3, [r3, #2]	@ movhi
 3648 012e 9BB2     		uxth	r3, r3
 3649 0130 013B     		subs	r3, r3, #1
 3650 0132 9BB2     		uxth	r3, r3
 3651 0134 1046     		mov	r0, r2
 3652 0136 1946     		mov	r1, r3
 3653 0138 FFF7FEFF 		bl	RawCRCCheck
ARM GAS  C:\Users\RECEPC~1\AppData\Local\Temp\cc5EIyCe.s 			page 76


 3654 013c 0346     		mov	r3, r0
 3655 013e 1A46     		mov	r2, r3
 3656 0140 FB69     		ldr	r3, [r7, #28]
 3657 0142 2344     		add	r3, r3, r4
 3658 0144 1A71     		strb	r2, [r3, #4]
 592:.\RFServerStackImpl.c ****                 puartdisp->_messagelength++;
 3659              		.loc 1 592 0
 3660 0146 FB69     		ldr	r3, [r7, #28]
 3661 0148 5B88     		ldrh	r3, [r3, #2]	@ movhi
 3662 014a 9BB2     		uxth	r3, r3
 3663 014c 0133     		adds	r3, r3, #1
 3664 014e 9AB2     		uxth	r2, r3
 3665 0150 FB69     		ldr	r3, [r7, #28]
 3666 0152 5A80     		strh	r2, [r3, #2]	@ movhi
 593:.\RFServerStackImpl.c **** 
 594:.\RFServerStackImpl.c ****                 puartdisp->_messagestate = PENDING;
 3667              		.loc 1 594 0
 3668 0154 FB69     		ldr	r3, [r7, #28]
 3669 0156 C222     		movs	r2, #194
 3670 0158 1A70     		strb	r2, [r3]
 3671              	.L101:
 595:.\RFServerStackImpl.c ****             }
 596:.\RFServerStackImpl.c ****             return retval;
 3672              		.loc 1 596 0
 3673 015a 97F82F30 		ldrb	r3, [r7, #47]	@ zero_extendqisi2
 3674 015e 00F0B0BE 		b	.L102
 3675              	.L100:
 3676              	.LBE27:
 597:.\RFServerStackImpl.c ****         }
 598:.\RFServerStackImpl.c ****         FOR(uint8 index = 0x00, index < _g_dispenserlayoutinfo._numpositions, index++)
 3677              		.loc 1 598 0
 3678 0162 0023     		movs	r3, #0
 3679 0164 87F82E30 		strb	r3, [r7, #46]
 3680 0168 00F016BE 		b	.L103
 3681              	.L118:
 599:.\RFServerStackImpl.c ****         {
 600:.\RFServerStackImpl.c ****             if((_g_pumps[index]._pumpid + _g_dispenserlayoutinfo._positionoffset) == pmsg->_buffer[
 3682              		.loc 1 600 0
 3683 016c 97F82E30 		ldrb	r3, [r7, #46]	@ zero_extendqisi2
 3684 0170 704A     		ldr	r2, .L120+8
 3685 0172 4FF41961 		mov	r1, #2448
 3686 0176 01FB03F3 		mul	r3, r1, r3
 3687 017a 1344     		add	r3, r3, r2
 3688 017c 1B78     		ldrb	r3, [r3]	@ zero_extendqisi2
 3689 017e 1A46     		mov	r2, r3
 3690 0180 6D4B     		ldr	r3, .L120+12
 3691 0182 9B7C     		ldrb	r3, [r3, #18]	@ zero_extendqisi2
 3692 0184 1344     		add	r3, r3, r2
 3693 0186 7A6A     		ldr	r2, [r7, #36]
 3694 0188 527C     		ldrb	r2, [r2, #17]	@ zero_extendqisi2
 3695 018a 9342     		cmp	r3, r2
 3696 018c 40F0FF85 		bne	.L104
 3697              	.LBB28:
 601:.\RFServerStackImpl.c ****             {
 602:.\RFServerStackImpl.c ****                 _g_pumps[index].PumpTransQueueLock(&_g_pumps[index]);
 3698              		.loc 1 602 0
 3699 0190 97F82E30 		ldrb	r3, [r7, #46]	@ zero_extendqisi2
ARM GAS  C:\Users\RECEPC~1\AppData\Local\Temp\cc5EIyCe.s 			page 77


 3700 0194 674A     		ldr	r2, .L120+8
 3701 0196 4FF41961 		mov	r1, #2448
 3702 019a 01FB03F3 		mul	r3, r1, r3
 3703 019e 1344     		add	r3, r3, r2
 3704 01a0 03F60813 		addw	r3, r3, #2312
 3705 01a4 5B68     		ldr	r3, [r3, #4]
 3706 01a6 97F82E20 		ldrb	r2, [r7, #46]	@ zero_extendqisi2
 3707 01aa 4FF41961 		mov	r1, #2448
 3708 01ae 01FB02F2 		mul	r2, r1, r2
 3709 01b2 6049     		ldr	r1, .L120+8
 3710 01b4 0A44     		add	r2, r2, r1
 3711 01b6 1046     		mov	r0, r2
 3712 01b8 9847     		blx	r3
 603:.\RFServerStackImpl.c ****                 //We always pick the top most item of the Pump's Transactional Queue
 604:.\RFServerStackImpl.c ****                 PNEAR_PUMPTRANSACTIONALSTATEPTR pumptrans = _g_pumps[index].PumpTransQueueDequeue(&
 3713              		.loc 1 604 0
 3714 01ba 97F82E30 		ldrb	r3, [r7, #46]	@ zero_extendqisi2
 3715 01be 5D4A     		ldr	r2, .L120+8
 3716 01c0 4FF41961 		mov	r1, #2448
 3717 01c4 01FB03F3 		mul	r3, r1, r3
 3718 01c8 1344     		add	r3, r3, r2
 3719 01ca 03F51263 		add	r3, r3, #2336
 3720 01ce 5B68     		ldr	r3, [r3, #4]
 3721 01d0 97F82E20 		ldrb	r2, [r7, #46]	@ zero_extendqisi2
 3722 01d4 4FF41961 		mov	r1, #2448
 3723 01d8 01FB02F2 		mul	r2, r1, r2
 3724 01dc 5549     		ldr	r1, .L120+8
 3725 01de 0A44     		add	r2, r2, r1
 3726 01e0 1046     		mov	r0, r2
 3727 01e2 9847     		blx	r3
 3728 01e4 B861     		str	r0, [r7, #24]
 605:.\RFServerStackImpl.c ****                 if(pumptrans->_transtate == RF_MUX_TOTALS_REPORT_RESPONSE)
 3729              		.loc 1 605 0
 3730 01e6 BB69     		ldr	r3, [r7, #24]
 3731 01e8 5B78     		ldrb	r3, [r3, #1]	@ zero_extendqisi2
 3732 01ea E82B     		cmp	r3, #232
 3733 01ec 40F0B985 		bne	.L105
 3734              	.LBB29:
 606:.\RFServerStackImpl.c ****                 {
 607:.\RFServerStackImpl.c ****                     PUARTMESSAGEPTR puartdisp = GetUARTMessageSlot(UART_RF);
 3735              		.loc 1 607 0
 3736 01f0 A020     		movs	r0, #160
 3737 01f2 FFF7FEFF 		bl	GetUARTMessageSlot
 3738 01f6 7861     		str	r0, [r7, #20]
 608:.\RFServerStackImpl.c ****                     if(puartdisp)
 3739              		.loc 1 608 0
 3740 01f8 7B69     		ldr	r3, [r7, #20]
 3741 01fa 002B     		cmp	r3, #0
 3742 01fc 00F09885 		beq	.L106
 3743              	.LBB30:
 609:.\RFServerStackImpl.c ****                     {
 610:.\RFServerStackImpl.c ****                         puartdisp->_messagelength = 0x00;
 3744              		.loc 1 610 0
 3745 0200 7B69     		ldr	r3, [r7, #20]
 3746 0202 0022     		movs	r2, #0
 3747 0204 5A80     		strh	r2, [r3, #2]	@ movhi
 611:.\RFServerStackImpl.c ****                         memset(puartdisp->_messagetx, 0x00, sizeof(puartdisp->_messagetx));        
ARM GAS  C:\Users\RECEPC~1\AppData\Local\Temp\cc5EIyCe.s 			page 78


 3748              		.loc 1 611 0
 3749 0206 7B69     		ldr	r3, [r7, #20]
 3750 0208 0433     		adds	r3, r3, #4
 3751 020a 1846     		mov	r0, r3
 3752 020c 0021     		movs	r1, #0
 3753 020e 4FF48072 		mov	r2, #256
 3754 0212 FFF7FEFF 		bl	memset
 612:.\RFServerStackImpl.c ****                         memcpy(puartdisp->_messagetx, _g_rfslaveheader, 0x03); //Explicit buffer le
 3755              		.loc 1 612 0
 3756 0216 7B69     		ldr	r3, [r7, #20]
 3757 0218 0433     		adds	r3, r3, #4
 3758 021a 444A     		ldr	r2, .L120
 3759 021c 1188     		ldrh	r1, [r2]	@ unaligned
 3760 021e 9278     		ldrb	r2, [r2, #2]
 3761 0220 1980     		strh	r1, [r3]	@ unaligned
 3762 0222 9A70     		strb	r2, [r3, #2]
 613:.\RFServerStackImpl.c ****                         puartdisp->_messagelength += 0x03;
 3763              		.loc 1 613 0
 3764 0224 7B69     		ldr	r3, [r7, #20]
 3765 0226 5B88     		ldrh	r3, [r3, #2]	@ movhi
 3766 0228 9BB2     		uxth	r3, r3
 3767 022a 0333     		adds	r3, r3, #3
 3768 022c 9AB2     		uxth	r2, r3
 3769 022e 7B69     		ldr	r3, [r7, #20]
 3770 0230 5A80     		strh	r2, [r3, #2]	@ movhi
 614:.\RFServerStackImpl.c ****                         puartdisp->_messagetx[puartdisp->_messagelength++] = (uint8)(_g_stationiden
 3771              		.loc 1 614 0
 3772 0232 7B69     		ldr	r3, [r7, #20]
 3773 0234 5B88     		ldrh	r3, [r3, #2]	@ movhi
 3774 0236 9BB2     		uxth	r3, r3
 3775 0238 5A1C     		adds	r2, r3, #1
 3776 023a 91B2     		uxth	r1, r2
 3777 023c 7A69     		ldr	r2, [r7, #20]
 3778 023e 5180     		strh	r1, [r2, #2]	@ movhi
 3779 0240 1946     		mov	r1, r3
 3780 0242 3B4B     		ldr	r3, .L120+4
 3781 0244 1B88     		ldrh	r3, [r3]
 3782 0246 DAB2     		uxtb	r2, r3
 3783 0248 7B69     		ldr	r3, [r7, #20]
 3784 024a 0B44     		add	r3, r3, r1
 3785 024c 1A71     		strb	r2, [r3, #4]
 615:.\RFServerStackImpl.c ****                         puartdisp->_messagetx[puartdisp->_messagelength++] = (uint8)((_g_stationide
 3786              		.loc 1 615 0
 3787 024e 7B69     		ldr	r3, [r7, #20]
 3788 0250 5B88     		ldrh	r3, [r3, #2]	@ movhi
 3789 0252 9BB2     		uxth	r3, r3
 3790 0254 5A1C     		adds	r2, r3, #1
 3791 0256 91B2     		uxth	r1, r2
 3792 0258 7A69     		ldr	r2, [r7, #20]
 3793 025a 5180     		strh	r1, [r2, #2]	@ movhi
 3794 025c 1946     		mov	r1, r3
 3795 025e 344B     		ldr	r3, .L120+4
 3796 0260 1B88     		ldrh	r3, [r3]
 3797 0262 1B0A     		lsrs	r3, r3, #8
 3798 0264 9BB2     		uxth	r3, r3
 3799 0266 DAB2     		uxtb	r2, r3
 3800 0268 7B69     		ldr	r3, [r7, #20]
ARM GAS  C:\Users\RECEPC~1\AppData\Local\Temp\cc5EIyCe.s 			page 79


 3801 026a 0B44     		add	r3, r3, r1
 3802 026c 1A71     		strb	r2, [r3, #4]
 616:.\RFServerStackImpl.c ****                         puartdisp->_messagetx[puartdisp->_messagelength++] = pmsg->_buffer[_RF_STRE
 3803              		.loc 1 616 0
 3804 026e 7B69     		ldr	r3, [r7, #20]
 3805 0270 5B88     		ldrh	r3, [r3, #2]	@ movhi
 3806 0272 9BB2     		uxth	r3, r3
 3807 0274 5A1C     		adds	r2, r3, #1
 3808 0276 91B2     		uxth	r1, r2
 3809 0278 7A69     		ldr	r2, [r7, #20]
 3810 027a 5180     		strh	r1, [r2, #2]	@ movhi
 3811 027c 1946     		mov	r1, r3
 3812 027e 7B6A     		ldr	r3, [r7, #36]
 3813 0280 5A7C     		ldrb	r2, [r3, #17]	@ zero_extendqisi2
 3814 0282 7B69     		ldr	r3, [r7, #20]
 3815 0284 0B44     		add	r3, r3, r1
 3816 0286 1A71     		strb	r2, [r3, #4]
 617:.\RFServerStackImpl.c ****                         puartdisp->_messagetx[puartdisp->_messagelength++] = RF_MUX_TOTALS_REPORT_R
 3817              		.loc 1 617 0
 3818 0288 7B69     		ldr	r3, [r7, #20]
 3819 028a 5B88     		ldrh	r3, [r3, #2]	@ movhi
 3820 028c 9BB2     		uxth	r3, r3
 3821 028e 5A1C     		adds	r2, r3, #1
 3822 0290 91B2     		uxth	r1, r2
 3823 0292 7A69     		ldr	r2, [r7, #20]
 3824 0294 5180     		strh	r1, [r2, #2]	@ movhi
 3825 0296 1A46     		mov	r2, r3
 3826 0298 7B69     		ldr	r3, [r7, #20]
 3827 029a 1344     		add	r3, r3, r2
 3828 029c E822     		movs	r2, #232
 3829 029e 1A71     		strb	r2, [r3, #4]
 618:.\RFServerStackImpl.c ****                         puartdisp->_messagetx[puartdisp->_messagelength++] = 0x00;//DATA BLOCK AVAI
 3830              		.loc 1 618 0
 3831 02a0 7B69     		ldr	r3, [r7, #20]
 3832 02a2 5B88     		ldrh	r3, [r3, #2]	@ movhi
 3833 02a4 9BB2     		uxth	r3, r3
 3834 02a6 5A1C     		adds	r2, r3, #1
 3835 02a8 91B2     		uxth	r1, r2
 3836 02aa 7A69     		ldr	r2, [r7, #20]
 3837 02ac 5180     		strh	r1, [r2, #2]	@ movhi
 3838 02ae 1A46     		mov	r2, r3
 3839 02b0 7B69     		ldr	r3, [r7, #20]
 3840 02b2 1344     		add	r3, r3, r2
 3841 02b4 0022     		movs	r2, #0
 3842 02b6 1A71     		strb	r2, [r3, #4]
 619:.\RFServerStackImpl.c ****                         
 620:.\RFServerStackImpl.c ****                         uint8 numhoses = 0x00;
 3843              		.loc 1 620 0
 3844 02b8 0023     		movs	r3, #0
 3845 02ba 87F82D30 		strb	r3, [r7, #45]
 621:.\RFServerStackImpl.c ****                         switch(index)
 3846              		.loc 1 621 0
 3847 02be 97F82E30 		ldrb	r3, [r7, #46]	@ zero_extendqisi2
 3848 02c2 032B     		cmp	r3, #3
 3849 02c4 1ED8     		bhi	.L107
 3850 02c6 01A2     		adr	r2, .L109
 3851 02c8 52F823F0 		ldr	pc, [r2, r3, lsl #2]
ARM GAS  C:\Users\RECEPC~1\AppData\Local\Temp\cc5EIyCe.s 			page 80


 3852              		.p2align 2
 3853              	.L109:
 3854 02cc DD020000 		.word	.L108+1
 3855 02d0 E7020000 		.word	.L110+1
 3856 02d4 F1020000 		.word	.L111+1
 3857 02d8 FB020000 		.word	.L112+1
 3858              		.p2align 1
 3859              	.L108:
 622:.\RFServerStackImpl.c ****                         {
 623:.\RFServerStackImpl.c ****                             case 0x00:
 624:.\RFServerStackImpl.c ****                             numhoses = _g_dispenserlayoutinfo._hosesposition1;
 3860              		.loc 1 624 0
 3861 02dc 164B     		ldr	r3, .L120+12
 3862 02de DB78     		ldrb	r3, [r3, #3]
 3863 02e0 87F82D30 		strb	r3, [r7, #45]
 625:.\RFServerStackImpl.c ****                             break;
 3864              		.loc 1 625 0
 3865 02e4 0EE0     		b	.L107
 3866              	.L110:
 626:.\RFServerStackImpl.c ****                             case 0x01:
 627:.\RFServerStackImpl.c ****                             numhoses = _g_dispenserlayoutinfo._hosesposition2;
 3867              		.loc 1 627 0
 3868 02e6 144B     		ldr	r3, .L120+12
 3869 02e8 1B79     		ldrb	r3, [r3, #4]
 3870 02ea 87F82D30 		strb	r3, [r7, #45]
 628:.\RFServerStackImpl.c ****                             break;
 3871              		.loc 1 628 0
 3872 02ee 09E0     		b	.L107
 3873              	.L111:
 629:.\RFServerStackImpl.c ****                             case 0x02:
 630:.\RFServerStackImpl.c ****                             numhoses = _g_dispenserlayoutinfo._hosesposition3;
 3874              		.loc 1 630 0
 3875 02f0 114B     		ldr	r3, .L120+12
 3876 02f2 5B79     		ldrb	r3, [r3, #5]
 3877 02f4 87F82D30 		strb	r3, [r7, #45]
 631:.\RFServerStackImpl.c ****                             break;
 3878              		.loc 1 631 0
 3879 02f8 04E0     		b	.L107
 3880              	.L112:
 632:.\RFServerStackImpl.c ****                             case 0x03:
 633:.\RFServerStackImpl.c ****                             numhoses = _g_dispenserlayoutinfo._hosesposition4;
 3881              		.loc 1 633 0
 3882 02fa 0F4B     		ldr	r3, .L120+12
 3883 02fc 9B79     		ldrb	r3, [r3, #6]
 3884 02fe 87F82D30 		strb	r3, [r7, #45]
 634:.\RFServerStackImpl.c ****                             break;
 3885              		.loc 1 634 0
 3886 0302 00BF     		nop
 3887              	.L107:
 635:.\RFServerStackImpl.c ****                         }
 636:.\RFServerStackImpl.c ****                         
 637:.\RFServerStackImpl.c ****                         uint8 payloadlengthindex = puartdisp->_messagelength;
 3888              		.loc 1 637 0
 3889 0304 7B69     		ldr	r3, [r7, #20]
 3890 0306 5B88     		ldrh	r3, [r3, #2]	@ movhi
 3891 0308 9BB2     		uxth	r3, r3
 3892 030a FB74     		strb	r3, [r7, #19]
ARM GAS  C:\Users\RECEPC~1\AppData\Local\Temp\cc5EIyCe.s 			page 81


 638:.\RFServerStackImpl.c ****                         puartdisp->_messagelength++;//Advance one position to point to the payload 
 3893              		.loc 1 638 0
 3894 030c 7B69     		ldr	r3, [r7, #20]
 3895 030e 5B88     		ldrh	r3, [r3, #2]	@ movhi
 3896 0310 9BB2     		uxth	r3, r3
 3897 0312 0133     		adds	r3, r3, #1
 3898 0314 9AB2     		uxth	r2, r3
 3899 0316 7B69     		ldr	r3, [r7, #20]
 3900 0318 5A80     		strh	r2, [r3, #2]	@ movhi
 639:.\RFServerStackImpl.c ****                         //PROCESS THE ENTIRE BUFFER FOR ALL OF THE HOSES
 640:.\RFServerStackImpl.c ****                         uint8 blkindex = 0;
 3901              		.loc 1 640 0
 3902 031a 0023     		movs	r3, #0
 3903 031c 87F82C30 		strb	r3, [r7, #44]
 641:.\RFServerStackImpl.c ****                         FOR(uint8 hoseindex = 0, hoseindex < numhoses, hoseindex++)
 3904              		.loc 1 641 0
 3905 0320 0023     		movs	r3, #0
 3906 0322 87F82B30 		strb	r3, [r7, #43]
 3907 0326 00F0CBBC 		b	.L113
 3908              	.L121:
 3909 032a 00BF     		.align	2
 3910              	.L120:
 3911 032c 00000000 		.word	_g_rfslaveheader
 3912 0330 00000000 		.word	_g_stationidentifier
 3913 0334 00000000 		.word	_g_pumps
 3914 0338 00000000 		.word	_g_dispenserlayoutinfo
 3915              	.L116:
 642:.\RFServerStackImpl.c ****                         {
 643:.\RFServerStackImpl.c ****                             if(_g_dispenserlayoutinfo._displaydigitsmode == 0x06)
 3916              		.loc 1 643 0
 3917 033c 024B     		ldr	r3, .L122
 3918 033e 1B7C     		ldrb	r3, [r3, #16]	@ zero_extendqisi2
 3919 0340 062B     		cmp	r3, #6
 3920 0342 40F02E82 		bne	.L114
 3921 0346 01E0     		b	.L123
 3922              	.L124:
 3923              		.align	2
 3924              	.L122:
 3925 0348 00000000 		.word	_g_dispenserlayoutinfo
 3926              	.L123:
 644:.\RFServerStackImpl.c ****                             {
 645:.\RFServerStackImpl.c ****                                 //All indexes were taken according to the documentation
 646:.\RFServerStackImpl.c ****                                 puartdisp->_messagetx[puartdisp->_messagelength + blkindex++] = (pu
 3927              		.loc 1 646 0
 3928 034c 7B69     		ldr	r3, [r7, #20]
 3929 034e 5B88     		ldrh	r3, [r3, #2]	@ movhi
 3930 0350 9BB2     		uxth	r3, r3
 3931 0352 1A46     		mov	r2, r3
 3932 0354 97F82C30 		ldrb	r3, [r7, #44]	@ zero_extendqisi2
 3933 0358 591C     		adds	r1, r3, #1
 3934 035a 87F82C10 		strb	r1, [r7, #44]
 3935 035e D118     		adds	r1, r2, r3
 3936 0360 97F82B20 		ldrb	r2, [r7, #43]	@ zero_extendqisi2
 3937 0364 1346     		mov	r3, r2
 3938 0366 1B01     		lsls	r3, r3, #4
 3939 0368 9B1A     		subs	r3, r3, r2
 3940 036a 5B00     		lsls	r3, r3, #1
ARM GAS  C:\Users\RECEPC~1\AppData\Local\Temp\cc5EIyCe.s 			page 82


 3941 036c 0233     		adds	r3, r3, #2
 3942 036e BA69     		ldr	r2, [r7, #24]
 3943 0370 1344     		add	r3, r3, r2
 3944 0372 9B78     		ldrb	r3, [r3, #2]	@ zero_extendqisi2
 3945 0374 03F00F03 		and	r3, r3, #15
 3946 0378 DAB2     		uxtb	r2, r3
 3947 037a 7B69     		ldr	r3, [r7, #20]
 3948 037c 0B44     		add	r3, r3, r1
 3949 037e 1A71     		strb	r2, [r3, #4]
 647:.\RFServerStackImpl.c **** 
 648:.\RFServerStackImpl.c ****                                 //Bytes from index 0x04 + _PUMP_TOTALS_BUFFER_SHIFT_*index to 0x0F 
 649:.\RFServerStackImpl.c ****                                 //are the digits for the total fuel volume delivered until now on t
 650:.\RFServerStackImpl.c ****                                 //Digits are in BCD format
 651:.\RFServerStackImpl.c ****                                 puartdisp->_messagetx[puartdisp->_messagelength + blkindex++] = (pu
 3950              		.loc 1 651 0
 3951 0380 7B69     		ldr	r3, [r7, #20]
 3952 0382 5B88     		ldrh	r3, [r3, #2]	@ movhi
 3953 0384 9BB2     		uxth	r3, r3
 3954 0386 1A46     		mov	r2, r3
 3955 0388 97F82C30 		ldrb	r3, [r7, #44]	@ zero_extendqisi2
 3956 038c 591C     		adds	r1, r3, #1
 3957 038e 87F82C10 		strb	r1, [r7, #44]
 3958 0392 D118     		adds	r1, r2, r3
 3959 0394 97F82B20 		ldrb	r2, [r7, #43]	@ zero_extendqisi2
 3960 0398 1346     		mov	r3, r2
 3961 039a 1B01     		lsls	r3, r3, #4
 3962 039c 9B1A     		subs	r3, r3, r2
 3963 039e 5B00     		lsls	r3, r3, #1
 3964 03a0 0433     		adds	r3, r3, #4
 3965 03a2 BA69     		ldr	r2, [r7, #24]
 3966 03a4 1344     		add	r3, r3, r2
 3967 03a6 9B78     		ldrb	r3, [r3, #2]	@ zero_extendqisi2
 3968 03a8 03F00F03 		and	r3, r3, #15
 3969 03ac DAB2     		uxtb	r2, r3
 3970 03ae 7B69     		ldr	r3, [r7, #20]
 3971 03b0 0B44     		add	r3, r3, r1
 3972 03b2 1A71     		strb	r2, [r3, #4]
 652:.\RFServerStackImpl.c ****                                 puartdisp->_messagetx[puartdisp->_messagelength + blkindex++] = (pu
 3973              		.loc 1 652 0
 3974 03b4 7B69     		ldr	r3, [r7, #20]
 3975 03b6 5B88     		ldrh	r3, [r3, #2]	@ movhi
 3976 03b8 9BB2     		uxth	r3, r3
 3977 03ba 1A46     		mov	r2, r3
 3978 03bc 97F82C30 		ldrb	r3, [r7, #44]	@ zero_extendqisi2
 3979 03c0 591C     		adds	r1, r3, #1
 3980 03c2 87F82C10 		strb	r1, [r7, #44]
 3981 03c6 D118     		adds	r1, r2, r3
 3982 03c8 97F82B20 		ldrb	r2, [r7, #43]	@ zero_extendqisi2
 3983 03cc 1346     		mov	r3, r2
 3984 03ce 1B01     		lsls	r3, r3, #4
 3985 03d0 9B1A     		subs	r3, r3, r2
 3986 03d2 5B00     		lsls	r3, r3, #1
 3987 03d4 0533     		adds	r3, r3, #5
 3988 03d6 BA69     		ldr	r2, [r7, #24]
 3989 03d8 1344     		add	r3, r3, r2
 3990 03da 9B78     		ldrb	r3, [r3, #2]	@ zero_extendqisi2
 3991 03dc 03F00F03 		and	r3, r3, #15
ARM GAS  C:\Users\RECEPC~1\AppData\Local\Temp\cc5EIyCe.s 			page 83


 3992 03e0 DAB2     		uxtb	r2, r3
 3993 03e2 7B69     		ldr	r3, [r7, #20]
 3994 03e4 0B44     		add	r3, r3, r1
 3995 03e6 1A71     		strb	r2, [r3, #4]
 653:.\RFServerStackImpl.c ****                                 puartdisp->_messagetx[puartdisp->_messagelength + blkindex++] = (pu
 3996              		.loc 1 653 0
 3997 03e8 7B69     		ldr	r3, [r7, #20]
 3998 03ea 5B88     		ldrh	r3, [r3, #2]	@ movhi
 3999 03ec 9BB2     		uxth	r3, r3
 4000 03ee 1A46     		mov	r2, r3
 4001 03f0 97F82C30 		ldrb	r3, [r7, #44]	@ zero_extendqisi2
 4002 03f4 591C     		adds	r1, r3, #1
 4003 03f6 87F82C10 		strb	r1, [r7, #44]
 4004 03fa D118     		adds	r1, r2, r3
 4005 03fc 97F82B20 		ldrb	r2, [r7, #43]	@ zero_extendqisi2
 4006 0400 1346     		mov	r3, r2
 4007 0402 1B01     		lsls	r3, r3, #4
 4008 0404 9B1A     		subs	r3, r3, r2
 4009 0406 5B00     		lsls	r3, r3, #1
 4010 0408 0633     		adds	r3, r3, #6
 4011 040a BA69     		ldr	r2, [r7, #24]
 4012 040c 1344     		add	r3, r3, r2
 4013 040e 9B78     		ldrb	r3, [r3, #2]	@ zero_extendqisi2
 4014 0410 03F00F03 		and	r3, r3, #15
 4015 0414 DAB2     		uxtb	r2, r3
 4016 0416 7B69     		ldr	r3, [r7, #20]
 4017 0418 0B44     		add	r3, r3, r1
 4018 041a 1A71     		strb	r2, [r3, #4]
 654:.\RFServerStackImpl.c ****                                 puartdisp->_messagetx[puartdisp->_messagelength + blkindex++] = (pu
 4019              		.loc 1 654 0
 4020 041c 7B69     		ldr	r3, [r7, #20]
 4021 041e 5B88     		ldrh	r3, [r3, #2]	@ movhi
 4022 0420 9BB2     		uxth	r3, r3
 4023 0422 1A46     		mov	r2, r3
 4024 0424 97F82C30 		ldrb	r3, [r7, #44]	@ zero_extendqisi2
 4025 0428 591C     		adds	r1, r3, #1
 4026 042a 87F82C10 		strb	r1, [r7, #44]
 4027 042e D118     		adds	r1, r2, r3
 4028 0430 97F82B20 		ldrb	r2, [r7, #43]	@ zero_extendqisi2
 4029 0434 1346     		mov	r3, r2
 4030 0436 1B01     		lsls	r3, r3, #4
 4031 0438 9B1A     		subs	r3, r3, r2
 4032 043a 5B00     		lsls	r3, r3, #1
 4033 043c 0733     		adds	r3, r3, #7
 4034 043e BA69     		ldr	r2, [r7, #24]
 4035 0440 1344     		add	r3, r3, r2
 4036 0442 9B78     		ldrb	r3, [r3, #2]	@ zero_extendqisi2
 4037 0444 03F00F03 		and	r3, r3, #15
 4038 0448 DAB2     		uxtb	r2, r3
 4039 044a 7B69     		ldr	r3, [r7, #20]
 4040 044c 0B44     		add	r3, r3, r1
 4041 044e 1A71     		strb	r2, [r3, #4]
 655:.\RFServerStackImpl.c ****                                 puartdisp->_messagetx[puartdisp->_messagelength + blkindex++] = (pu
 4042              		.loc 1 655 0
 4043 0450 7B69     		ldr	r3, [r7, #20]
 4044 0452 5B88     		ldrh	r3, [r3, #2]	@ movhi
 4045 0454 9BB2     		uxth	r3, r3
ARM GAS  C:\Users\RECEPC~1\AppData\Local\Temp\cc5EIyCe.s 			page 84


 4046 0456 1A46     		mov	r2, r3
 4047 0458 97F82C30 		ldrb	r3, [r7, #44]	@ zero_extendqisi2
 4048 045c 591C     		adds	r1, r3, #1
 4049 045e 87F82C10 		strb	r1, [r7, #44]
 4050 0462 D118     		adds	r1, r2, r3
 4051 0464 97F82B20 		ldrb	r2, [r7, #43]	@ zero_extendqisi2
 4052 0468 1346     		mov	r3, r2
 4053 046a 1B01     		lsls	r3, r3, #4
 4054 046c 9B1A     		subs	r3, r3, r2
 4055 046e 5B00     		lsls	r3, r3, #1
 4056 0470 0833     		adds	r3, r3, #8
 4057 0472 BA69     		ldr	r2, [r7, #24]
 4058 0474 1344     		add	r3, r3, r2
 4059 0476 9B78     		ldrb	r3, [r3, #2]	@ zero_extendqisi2
 4060 0478 03F00F03 		and	r3, r3, #15
 4061 047c DAB2     		uxtb	r2, r3
 4062 047e 7B69     		ldr	r3, [r7, #20]
 4063 0480 0B44     		add	r3, r3, r1
 4064 0482 1A71     		strb	r2, [r3, #4]
 656:.\RFServerStackImpl.c ****                                 puartdisp->_messagetx[puartdisp->_messagelength + blkindex++] = (pu
 4065              		.loc 1 656 0
 4066 0484 7B69     		ldr	r3, [r7, #20]
 4067 0486 5B88     		ldrh	r3, [r3, #2]	@ movhi
 4068 0488 9BB2     		uxth	r3, r3
 4069 048a 1A46     		mov	r2, r3
 4070 048c 97F82C30 		ldrb	r3, [r7, #44]	@ zero_extendqisi2
 4071 0490 591C     		adds	r1, r3, #1
 4072 0492 87F82C10 		strb	r1, [r7, #44]
 4073 0496 D118     		adds	r1, r2, r3
 4074 0498 97F82B20 		ldrb	r2, [r7, #43]	@ zero_extendqisi2
 4075 049c 1346     		mov	r3, r2
 4076 049e 1B01     		lsls	r3, r3, #4
 4077 04a0 9B1A     		subs	r3, r3, r2
 4078 04a2 5B00     		lsls	r3, r3, #1
 4079 04a4 0933     		adds	r3, r3, #9
 4080 04a6 BA69     		ldr	r2, [r7, #24]
 4081 04a8 1344     		add	r3, r3, r2
 4082 04aa 9B78     		ldrb	r3, [r3, #2]	@ zero_extendqisi2
 4083 04ac 03F00F03 		and	r3, r3, #15
 4084 04b0 DAB2     		uxtb	r2, r3
 4085 04b2 7B69     		ldr	r3, [r7, #20]
 4086 04b4 0B44     		add	r3, r3, r1
 4087 04b6 1A71     		strb	r2, [r3, #4]
 657:.\RFServerStackImpl.c ****                                 puartdisp->_messagetx[puartdisp->_messagelength + blkindex++] = (pu
 4088              		.loc 1 657 0
 4089 04b8 7B69     		ldr	r3, [r7, #20]
 4090 04ba 5B88     		ldrh	r3, [r3, #2]	@ movhi
 4091 04bc 9BB2     		uxth	r3, r3
 4092 04be 1A46     		mov	r2, r3
 4093 04c0 97F82C30 		ldrb	r3, [r7, #44]	@ zero_extendqisi2
 4094 04c4 591C     		adds	r1, r3, #1
 4095 04c6 87F82C10 		strb	r1, [r7, #44]
 4096 04ca D118     		adds	r1, r2, r3
 4097 04cc 97F82B20 		ldrb	r2, [r7, #43]	@ zero_extendqisi2
 4098 04d0 1346     		mov	r3, r2
 4099 04d2 1B01     		lsls	r3, r3, #4
 4100 04d4 9B1A     		subs	r3, r3, r2
ARM GAS  C:\Users\RECEPC~1\AppData\Local\Temp\cc5EIyCe.s 			page 85


 4101 04d6 5B00     		lsls	r3, r3, #1
 4102 04d8 0A33     		adds	r3, r3, #10
 4103 04da BA69     		ldr	r2, [r7, #24]
 4104 04dc 1344     		add	r3, r3, r2
 4105 04de 9B78     		ldrb	r3, [r3, #2]	@ zero_extendqisi2
 4106 04e0 03F00F03 		and	r3, r3, #15
 4107 04e4 DAB2     		uxtb	r2, r3
 4108 04e6 7B69     		ldr	r3, [r7, #20]
 4109 04e8 0B44     		add	r3, r3, r1
 4110 04ea 1A71     		strb	r2, [r3, #4]
 658:.\RFServerStackImpl.c ****                                 puartdisp->_messagetx[puartdisp->_messagelength + blkindex++] = (pu
 4111              		.loc 1 658 0
 4112 04ec 7B69     		ldr	r3, [r7, #20]
 4113 04ee 5B88     		ldrh	r3, [r3, #2]	@ movhi
 4114 04f0 9BB2     		uxth	r3, r3
 4115 04f2 1A46     		mov	r2, r3
 4116 04f4 97F82C30 		ldrb	r3, [r7, #44]	@ zero_extendqisi2
 4117 04f8 591C     		adds	r1, r3, #1
 4118 04fa 87F82C10 		strb	r1, [r7, #44]
 4119 04fe D118     		adds	r1, r2, r3
 4120 0500 97F82B20 		ldrb	r2, [r7, #43]	@ zero_extendqisi2
 4121 0504 1346     		mov	r3, r2
 4122 0506 1B01     		lsls	r3, r3, #4
 4123 0508 9B1A     		subs	r3, r3, r2
 4124 050a 5B00     		lsls	r3, r3, #1
 4125 050c 0B33     		adds	r3, r3, #11
 4126 050e BA69     		ldr	r2, [r7, #24]
 4127 0510 1344     		add	r3, r3, r2
 4128 0512 9B78     		ldrb	r3, [r3, #2]	@ zero_extendqisi2
 4129 0514 03F00F03 		and	r3, r3, #15
 4130 0518 DAB2     		uxtb	r2, r3
 4131 051a 7B69     		ldr	r3, [r7, #20]
 4132 051c 0B44     		add	r3, r3, r1
 4133 051e 1A71     		strb	r2, [r3, #4]
 659:.\RFServerStackImpl.c ****                                 puartdisp->_messagetx[puartdisp->_messagelength + blkindex++] = 0x0
 4134              		.loc 1 659 0
 4135 0520 7B69     		ldr	r3, [r7, #20]
 4136 0522 5B88     		ldrh	r3, [r3, #2]	@ movhi
 4137 0524 9BB2     		uxth	r3, r3
 4138 0526 1A46     		mov	r2, r3
 4139 0528 97F82C30 		ldrb	r3, [r7, #44]	@ zero_extendqisi2
 4140 052c 591C     		adds	r1, r3, #1
 4141 052e 87F82C10 		strb	r1, [r7, #44]
 4142 0532 1344     		add	r3, r3, r2
 4143 0534 7A69     		ldr	r2, [r7, #20]
 4144 0536 1344     		add	r3, r3, r2
 4145 0538 0022     		movs	r2, #0
 4146 053a 1A71     		strb	r2, [r3, #4]
 660:.\RFServerStackImpl.c ****                                 puartdisp->_messagetx[puartdisp->_messagelength + blkindex++] = 0x0
 4147              		.loc 1 660 0
 4148 053c 7B69     		ldr	r3, [r7, #20]
 4149 053e 5B88     		ldrh	r3, [r3, #2]	@ movhi
 4150 0540 9BB2     		uxth	r3, r3
 4151 0542 1A46     		mov	r2, r3
 4152 0544 97F82C30 		ldrb	r3, [r7, #44]	@ zero_extendqisi2
 4153 0548 591C     		adds	r1, r3, #1
 4154 054a 87F82C10 		strb	r1, [r7, #44]
ARM GAS  C:\Users\RECEPC~1\AppData\Local\Temp\cc5EIyCe.s 			page 86


 4155 054e 1344     		add	r3, r3, r2
 4156 0550 7A69     		ldr	r2, [r7, #20]
 4157 0552 1344     		add	r3, r3, r2
 4158 0554 0022     		movs	r2, #0
 4159 0556 1A71     		strb	r2, [r3, #4]
 661:.\RFServerStackImpl.c ****                                 puartdisp->_messagetx[puartdisp->_messagelength + blkindex++] = 0x0
 4160              		.loc 1 661 0
 4161 0558 7B69     		ldr	r3, [r7, #20]
 4162 055a 5B88     		ldrh	r3, [r3, #2]	@ movhi
 4163 055c 9BB2     		uxth	r3, r3
 4164 055e 1A46     		mov	r2, r3
 4165 0560 97F82C30 		ldrb	r3, [r7, #44]	@ zero_extendqisi2
 4166 0564 591C     		adds	r1, r3, #1
 4167 0566 87F82C10 		strb	r1, [r7, #44]
 4168 056a 1344     		add	r3, r3, r2
 4169 056c 7A69     		ldr	r2, [r7, #20]
 4170 056e 1344     		add	r3, r3, r2
 4171 0570 0022     		movs	r2, #0
 4172 0572 1A71     		strb	r2, [r3, #4]
 662:.\RFServerStackImpl.c ****                                 puartdisp->_messagetx[puartdisp->_messagelength + blkindex++] = 0x0
 4173              		.loc 1 662 0
 4174 0574 7B69     		ldr	r3, [r7, #20]
 4175 0576 5B88     		ldrh	r3, [r3, #2]	@ movhi
 4176 0578 9BB2     		uxth	r3, r3
 4177 057a 1A46     		mov	r2, r3
 4178 057c 97F82C30 		ldrb	r3, [r7, #44]	@ zero_extendqisi2
 4179 0580 591C     		adds	r1, r3, #1
 4180 0582 87F82C10 		strb	r1, [r7, #44]
 4181 0586 1344     		add	r3, r3, r2
 4182 0588 7A69     		ldr	r2, [r7, #20]
 4183 058a 1344     		add	r3, r3, r2
 4184 058c 0022     		movs	r2, #0
 4185 058e 1A71     		strb	r2, [r3, #4]
 663:.\RFServerStackImpl.c **** 
 664:.\RFServerStackImpl.c ****                                 //Bytes from index 0x11 + _PUMP_TOTALS_BUFFER_SHIFT_*index to 0x1C 
 665:.\RFServerStackImpl.c ****                                 //are the digits for the total money charged until now on this pump
 666:.\RFServerStackImpl.c ****                                 //Digits are in BCD format
 667:.\RFServerStackImpl.c ****                                 puartdisp->_messagetx[puartdisp->_messagelength + blkindex++] = (pu
 4186              		.loc 1 667 0
 4187 0590 7B69     		ldr	r3, [r7, #20]
 4188 0592 5B88     		ldrh	r3, [r3, #2]	@ movhi
 4189 0594 9BB2     		uxth	r3, r3
 4190 0596 1A46     		mov	r2, r3
 4191 0598 97F82C30 		ldrb	r3, [r7, #44]	@ zero_extendqisi2
 4192 059c 591C     		adds	r1, r3, #1
 4193 059e 87F82C10 		strb	r1, [r7, #44]
 4194 05a2 D118     		adds	r1, r2, r3
 4195 05a4 97F82B20 		ldrb	r2, [r7, #43]	@ zero_extendqisi2
 4196 05a8 1346     		mov	r3, r2
 4197 05aa 1B01     		lsls	r3, r3, #4
 4198 05ac 9B1A     		subs	r3, r3, r2
 4199 05ae 5B00     		lsls	r3, r3, #1
 4200 05b0 0D33     		adds	r3, r3, #13
 4201 05b2 BA69     		ldr	r2, [r7, #24]
 4202 05b4 1344     		add	r3, r3, r2
 4203 05b6 9B78     		ldrb	r3, [r3, #2]	@ zero_extendqisi2
 4204 05b8 03F00F03 		and	r3, r3, #15
ARM GAS  C:\Users\RECEPC~1\AppData\Local\Temp\cc5EIyCe.s 			page 87


 4205 05bc DAB2     		uxtb	r2, r3
 4206 05be 7B69     		ldr	r3, [r7, #20]
 4207 05c0 0B44     		add	r3, r3, r1
 4208 05c2 1A71     		strb	r2, [r3, #4]
 668:.\RFServerStackImpl.c ****                                 puartdisp->_messagetx[puartdisp->_messagelength + blkindex++] = (pu
 4209              		.loc 1 668 0
 4210 05c4 7B69     		ldr	r3, [r7, #20]
 4211 05c6 5B88     		ldrh	r3, [r3, #2]	@ movhi
 4212 05c8 9BB2     		uxth	r3, r3
 4213 05ca 1A46     		mov	r2, r3
 4214 05cc 97F82C30 		ldrb	r3, [r7, #44]	@ zero_extendqisi2
 4215 05d0 591C     		adds	r1, r3, #1
 4216 05d2 87F82C10 		strb	r1, [r7, #44]
 4217 05d6 D118     		adds	r1, r2, r3
 4218 05d8 97F82B20 		ldrb	r2, [r7, #43]	@ zero_extendqisi2
 4219 05dc 1346     		mov	r3, r2
 4220 05de 1B01     		lsls	r3, r3, #4
 4221 05e0 9B1A     		subs	r3, r3, r2
 4222 05e2 5B00     		lsls	r3, r3, #1
 4223 05e4 0E33     		adds	r3, r3, #14
 4224 05e6 BA69     		ldr	r2, [r7, #24]
 4225 05e8 1344     		add	r3, r3, r2
 4226 05ea 9B78     		ldrb	r3, [r3, #2]	@ zero_extendqisi2
 4227 05ec 03F00F03 		and	r3, r3, #15
 4228 05f0 DAB2     		uxtb	r2, r3
 4229 05f2 7B69     		ldr	r3, [r7, #20]
 4230 05f4 0B44     		add	r3, r3, r1
 4231 05f6 1A71     		strb	r2, [r3, #4]
 669:.\RFServerStackImpl.c ****                                 puartdisp->_messagetx[puartdisp->_messagelength + blkindex++] = (pu
 4232              		.loc 1 669 0
 4233 05f8 7B69     		ldr	r3, [r7, #20]
 4234 05fa 5B88     		ldrh	r3, [r3, #2]	@ movhi
 4235 05fc 9BB2     		uxth	r3, r3
 4236 05fe 1A46     		mov	r2, r3
 4237 0600 97F82C30 		ldrb	r3, [r7, #44]	@ zero_extendqisi2
 4238 0604 591C     		adds	r1, r3, #1
 4239 0606 87F82C10 		strb	r1, [r7, #44]
 4240 060a D118     		adds	r1, r2, r3
 4241 060c 97F82B20 		ldrb	r2, [r7, #43]	@ zero_extendqisi2
 4242 0610 1346     		mov	r3, r2
 4243 0612 1B01     		lsls	r3, r3, #4
 4244 0614 9B1A     		subs	r3, r3, r2
 4245 0616 5B00     		lsls	r3, r3, #1
 4246 0618 0F33     		adds	r3, r3, #15
 4247 061a BA69     		ldr	r2, [r7, #24]
 4248 061c 1344     		add	r3, r3, r2
 4249 061e 9B78     		ldrb	r3, [r3, #2]	@ zero_extendqisi2
 4250 0620 03F00F03 		and	r3, r3, #15
 4251 0624 DAB2     		uxtb	r2, r3
 4252 0626 7B69     		ldr	r3, [r7, #20]
 4253 0628 0B44     		add	r3, r3, r1
 4254 062a 1A71     		strb	r2, [r3, #4]
 670:.\RFServerStackImpl.c ****                                 puartdisp->_messagetx[puartdisp->_messagelength + blkindex++] = (pu
 4255              		.loc 1 670 0
 4256 062c 7B69     		ldr	r3, [r7, #20]
 4257 062e 5B88     		ldrh	r3, [r3, #2]	@ movhi
 4258 0630 9BB2     		uxth	r3, r3
ARM GAS  C:\Users\RECEPC~1\AppData\Local\Temp\cc5EIyCe.s 			page 88


 4259 0632 1A46     		mov	r2, r3
 4260 0634 97F82C30 		ldrb	r3, [r7, #44]	@ zero_extendqisi2
 4261 0638 591C     		adds	r1, r3, #1
 4262 063a 87F82C10 		strb	r1, [r7, #44]
 4263 063e D118     		adds	r1, r2, r3
 4264 0640 97F82B20 		ldrb	r2, [r7, #43]	@ zero_extendqisi2
 4265 0644 1346     		mov	r3, r2
 4266 0646 1B01     		lsls	r3, r3, #4
 4267 0648 9B1A     		subs	r3, r3, r2
 4268 064a 5B00     		lsls	r3, r3, #1
 4269 064c 1033     		adds	r3, r3, #16
 4270 064e BA69     		ldr	r2, [r7, #24]
 4271 0650 1344     		add	r3, r3, r2
 4272 0652 9B78     		ldrb	r3, [r3, #2]	@ zero_extendqisi2
 4273 0654 03F00F03 		and	r3, r3, #15
 4274 0658 DAB2     		uxtb	r2, r3
 4275 065a 7B69     		ldr	r3, [r7, #20]
 4276 065c 0B44     		add	r3, r3, r1
 4277 065e 1A71     		strb	r2, [r3, #4]
 671:.\RFServerStackImpl.c ****                                 puartdisp->_messagetx[puartdisp->_messagelength + blkindex++] = (pu
 4278              		.loc 1 671 0
 4279 0660 7B69     		ldr	r3, [r7, #20]
 4280 0662 5B88     		ldrh	r3, [r3, #2]	@ movhi
 4281 0664 9BB2     		uxth	r3, r3
 4282 0666 1A46     		mov	r2, r3
 4283 0668 97F82C30 		ldrb	r3, [r7, #44]	@ zero_extendqisi2
 4284 066c 591C     		adds	r1, r3, #1
 4285 066e 87F82C10 		strb	r1, [r7, #44]
 4286 0672 D118     		adds	r1, r2, r3
 4287 0674 97F82B20 		ldrb	r2, [r7, #43]	@ zero_extendqisi2
 4288 0678 1346     		mov	r3, r2
 4289 067a 1B01     		lsls	r3, r3, #4
 4290 067c 9B1A     		subs	r3, r3, r2
 4291 067e 5B00     		lsls	r3, r3, #1
 4292 0680 1133     		adds	r3, r3, #17
 4293 0682 BA69     		ldr	r2, [r7, #24]
 4294 0684 1344     		add	r3, r3, r2
 4295 0686 9B78     		ldrb	r3, [r3, #2]	@ zero_extendqisi2
 4296 0688 03F00F03 		and	r3, r3, #15
 4297 068c DAB2     		uxtb	r2, r3
 4298 068e 7B69     		ldr	r3, [r7, #20]
 4299 0690 0B44     		add	r3, r3, r1
 4300 0692 1A71     		strb	r2, [r3, #4]
 672:.\RFServerStackImpl.c ****                                 puartdisp->_messagetx[puartdisp->_messagelength + blkindex++] = (pu
 4301              		.loc 1 672 0
 4302 0694 7B69     		ldr	r3, [r7, #20]
 4303 0696 5B88     		ldrh	r3, [r3, #2]	@ movhi
 4304 0698 9BB2     		uxth	r3, r3
 4305 069a 1A46     		mov	r2, r3
 4306 069c 97F82C30 		ldrb	r3, [r7, #44]	@ zero_extendqisi2
 4307 06a0 591C     		adds	r1, r3, #1
 4308 06a2 87F82C10 		strb	r1, [r7, #44]
 4309 06a6 D118     		adds	r1, r2, r3
 4310 06a8 97F82B20 		ldrb	r2, [r7, #43]	@ zero_extendqisi2
 4311 06ac 1346     		mov	r3, r2
 4312 06ae 1B01     		lsls	r3, r3, #4
 4313 06b0 9B1A     		subs	r3, r3, r2
ARM GAS  C:\Users\RECEPC~1\AppData\Local\Temp\cc5EIyCe.s 			page 89


 4314 06b2 5B00     		lsls	r3, r3, #1
 4315 06b4 1233     		adds	r3, r3, #18
 4316 06b6 BA69     		ldr	r2, [r7, #24]
 4317 06b8 1344     		add	r3, r3, r2
 4318 06ba 9B78     		ldrb	r3, [r3, #2]	@ zero_extendqisi2
 4319 06bc 03F00F03 		and	r3, r3, #15
 4320 06c0 DAB2     		uxtb	r2, r3
 4321 06c2 7B69     		ldr	r3, [r7, #20]
 4322 06c4 0B44     		add	r3, r3, r1
 4323 06c6 1A71     		strb	r2, [r3, #4]
 673:.\RFServerStackImpl.c ****                                 puartdisp->_messagetx[puartdisp->_messagelength + blkindex++] = (pu
 4324              		.loc 1 673 0
 4325 06c8 7B69     		ldr	r3, [r7, #20]
 4326 06ca 5B88     		ldrh	r3, [r3, #2]	@ movhi
 4327 06cc 9BB2     		uxth	r3, r3
 4328 06ce 1A46     		mov	r2, r3
 4329 06d0 97F82C30 		ldrb	r3, [r7, #44]	@ zero_extendqisi2
 4330 06d4 591C     		adds	r1, r3, #1
 4331 06d6 87F82C10 		strb	r1, [r7, #44]
 4332 06da D118     		adds	r1, r2, r3
 4333 06dc 97F82B20 		ldrb	r2, [r7, #43]	@ zero_extendqisi2
 4334 06e0 1346     		mov	r3, r2
 4335 06e2 1B01     		lsls	r3, r3, #4
 4336 06e4 9B1A     		subs	r3, r3, r2
 4337 06e6 5B00     		lsls	r3, r3, #1
 4338 06e8 1333     		adds	r3, r3, #19
 4339 06ea BA69     		ldr	r2, [r7, #24]
 4340 06ec 1344     		add	r3, r3, r2
 4341 06ee 9B78     		ldrb	r3, [r3, #2]	@ zero_extendqisi2
 4342 06f0 03F00F03 		and	r3, r3, #15
 4343 06f4 DAB2     		uxtb	r2, r3
 4344 06f6 7B69     		ldr	r3, [r7, #20]
 4345 06f8 0B44     		add	r3, r3, r1
 4346 06fa 1A71     		strb	r2, [r3, #4]
 674:.\RFServerStackImpl.c ****                                 puartdisp->_messagetx[puartdisp->_messagelength + blkindex++] = (pu
 4347              		.loc 1 674 0
 4348 06fc 7B69     		ldr	r3, [r7, #20]
 4349 06fe 5B88     		ldrh	r3, [r3, #2]	@ movhi
 4350 0700 9BB2     		uxth	r3, r3
 4351 0702 1A46     		mov	r2, r3
 4352 0704 97F82C30 		ldrb	r3, [r7, #44]	@ zero_extendqisi2
 4353 0708 591C     		adds	r1, r3, #1
 4354 070a 87F82C10 		strb	r1, [r7, #44]
 4355 070e D118     		adds	r1, r2, r3
 4356 0710 97F82B20 		ldrb	r2, [r7, #43]	@ zero_extendqisi2
 4357 0714 1346     		mov	r3, r2
 4358 0716 1B01     		lsls	r3, r3, #4
 4359 0718 9B1A     		subs	r3, r3, r2
 4360 071a 5B00     		lsls	r3, r3, #1
 4361 071c 1433     		adds	r3, r3, #20
 4362 071e BA69     		ldr	r2, [r7, #24]
 4363 0720 1344     		add	r3, r3, r2
 4364 0722 9B78     		ldrb	r3, [r3, #2]	@ zero_extendqisi2
 4365 0724 03F00F03 		and	r3, r3, #15
 4366 0728 DAB2     		uxtb	r2, r3
 4367 072a 7B69     		ldr	r3, [r7, #20]
 4368 072c 0B44     		add	r3, r3, r1
ARM GAS  C:\Users\RECEPC~1\AppData\Local\Temp\cc5EIyCe.s 			page 90


 4369 072e 1A71     		strb	r2, [r3, #4]
 675:.\RFServerStackImpl.c ****                                 puartdisp->_messagetx[puartdisp->_messagelength + blkindex++] = 0x0
 4370              		.loc 1 675 0
 4371 0730 7B69     		ldr	r3, [r7, #20]
 4372 0732 5B88     		ldrh	r3, [r3, #2]	@ movhi
 4373 0734 9BB2     		uxth	r3, r3
 4374 0736 1A46     		mov	r2, r3
 4375 0738 97F82C30 		ldrb	r3, [r7, #44]	@ zero_extendqisi2
 4376 073c 591C     		adds	r1, r3, #1
 4377 073e 87F82C10 		strb	r1, [r7, #44]
 4378 0742 1344     		add	r3, r3, r2
 4379 0744 7A69     		ldr	r2, [r7, #20]
 4380 0746 1344     		add	r3, r3, r2
 4381 0748 0022     		movs	r2, #0
 4382 074a 1A71     		strb	r2, [r3, #4]
 676:.\RFServerStackImpl.c ****                                 puartdisp->_messagetx[puartdisp->_messagelength + blkindex++] = 0x0
 4383              		.loc 1 676 0
 4384 074c 7B69     		ldr	r3, [r7, #20]
 4385 074e 5B88     		ldrh	r3, [r3, #2]	@ movhi
 4386 0750 9BB2     		uxth	r3, r3
 4387 0752 1A46     		mov	r2, r3
 4388 0754 97F82C30 		ldrb	r3, [r7, #44]	@ zero_extendqisi2
 4389 0758 591C     		adds	r1, r3, #1
 4390 075a 87F82C10 		strb	r1, [r7, #44]
 4391 075e 1344     		add	r3, r3, r2
 4392 0760 7A69     		ldr	r2, [r7, #20]
 4393 0762 1344     		add	r3, r3, r2
 4394 0764 0022     		movs	r2, #0
 4395 0766 1A71     		strb	r2, [r3, #4]
 677:.\RFServerStackImpl.c ****                                 puartdisp->_messagetx[puartdisp->_messagelength + blkindex++] = 0x0
 4396              		.loc 1 677 0
 4397 0768 7B69     		ldr	r3, [r7, #20]
 4398 076a 5B88     		ldrh	r3, [r3, #2]	@ movhi
 4399 076c 9BB2     		uxth	r3, r3
 4400 076e 1A46     		mov	r2, r3
 4401 0770 97F82C30 		ldrb	r3, [r7, #44]	@ zero_extendqisi2
 4402 0774 591C     		adds	r1, r3, #1
 4403 0776 87F82C10 		strb	r1, [r7, #44]
 4404 077a 1344     		add	r3, r3, r2
 4405 077c 7A69     		ldr	r2, [r7, #20]
 4406 077e 1344     		add	r3, r3, r2
 4407 0780 0022     		movs	r2, #0
 4408 0782 1A71     		strb	r2, [r3, #4]
 678:.\RFServerStackImpl.c ****                                 puartdisp->_messagetx[puartdisp->_messagelength + blkindex++] = 0x0
 4409              		.loc 1 678 0
 4410 0784 7B69     		ldr	r3, [r7, #20]
 4411 0786 5B88     		ldrh	r3, [r3, #2]	@ movhi
 4412 0788 9BB2     		uxth	r3, r3
 4413 078a 1A46     		mov	r2, r3
 4414 078c 97F82C30 		ldrb	r3, [r7, #44]	@ zero_extendqisi2
 4415 0790 591C     		adds	r1, r3, #1
 4416 0792 87F82C10 		strb	r1, [r7, #44]
 4417 0796 1344     		add	r3, r3, r2
 4418 0798 7A69     		ldr	r2, [r7, #20]
 4419 079a 1344     		add	r3, r3, r2
 4420 079c 0022     		movs	r2, #0
 4421 079e 1A71     		strb	r2, [r3, #4]
ARM GAS  C:\Users\RECEPC~1\AppData\Local\Temp\cc5EIyCe.s 			page 91


 4422 07a0 89E2     		b	.L115
 4423              	.L114:
 679:.\RFServerStackImpl.c ****                                 
 680:.\RFServerStackImpl.c ****                             }
 681:.\RFServerStackImpl.c ****                             else
 682:.\RFServerStackImpl.c ****                             {            
 683:.\RFServerStackImpl.c ****                                 
 684:.\RFServerStackImpl.c ****                                 //All indexes were taken according to the documentation
 685:.\RFServerStackImpl.c ****                                 puartdisp->_messagetx[puartdisp->_messagelength + blkindex++] = (pu
 4424              		.loc 1 685 0
 4425 07a2 7B69     		ldr	r3, [r7, #20]
 4426 07a4 5B88     		ldrh	r3, [r3, #2]	@ movhi
 4427 07a6 9BB2     		uxth	r3, r3
 4428 07a8 1A46     		mov	r2, r3
 4429 07aa 97F82C30 		ldrb	r3, [r7, #44]	@ zero_extendqisi2
 4430 07ae 591C     		adds	r1, r3, #1
 4431 07b0 87F82C10 		strb	r1, [r7, #44]
 4432 07b4 1344     		add	r3, r3, r2
 4433 07b6 97F82B20 		ldrb	r2, [r7, #43]	@ zero_extendqisi2
 4434 07ba 2A21     		movs	r1, #42
 4435 07bc 01FB02F2 		mul	r2, r1, r2
 4436 07c0 0232     		adds	r2, r2, #2
 4437 07c2 B969     		ldr	r1, [r7, #24]
 4438 07c4 0A44     		add	r2, r2, r1
 4439 07c6 9278     		ldrb	r2, [r2, #2]	@ zero_extendqisi2
 4440 07c8 02F00F02 		and	r2, r2, #15
 4441 07cc D1B2     		uxtb	r1, r2
 4442 07ce 7A69     		ldr	r2, [r7, #20]
 4443 07d0 1344     		add	r3, r3, r2
 4444 07d2 0A46     		mov	r2, r1
 4445 07d4 1A71     		strb	r2, [r3, #4]
 686:.\RFServerStackImpl.c **** 
 687:.\RFServerStackImpl.c ****                                 //Bytes from index 0x04 + _PUMP_TOTALS_BUFFER_SHIFT_*index to 0x0F 
 688:.\RFServerStackImpl.c ****                                 //are the digits for the total fuel volume delivered until now on t
 689:.\RFServerStackImpl.c ****                                 //Digits are in BCD format
 690:.\RFServerStackImpl.c ****                                 puartdisp->_messagetx[puartdisp->_messagelength + blkindex++] = (pu
 4446              		.loc 1 690 0
 4447 07d6 7B69     		ldr	r3, [r7, #20]
 4448 07d8 5B88     		ldrh	r3, [r3, #2]	@ movhi
 4449 07da 9BB2     		uxth	r3, r3
 4450 07dc 1A46     		mov	r2, r3
 4451 07de 97F82C30 		ldrb	r3, [r7, #44]	@ zero_extendqisi2
 4452 07e2 591C     		adds	r1, r3, #1
 4453 07e4 87F82C10 		strb	r1, [r7, #44]
 4454 07e8 1344     		add	r3, r3, r2
 4455 07ea 97F82B20 		ldrb	r2, [r7, #43]	@ zero_extendqisi2
 4456 07ee 2A21     		movs	r1, #42
 4457 07f0 01FB02F2 		mul	r2, r1, r2
 4458 07f4 0432     		adds	r2, r2, #4
 4459 07f6 B969     		ldr	r1, [r7, #24]
 4460 07f8 0A44     		add	r2, r2, r1
 4461 07fa 9278     		ldrb	r2, [r2, #2]	@ zero_extendqisi2
 4462 07fc 02F00F02 		and	r2, r2, #15
 4463 0800 D1B2     		uxtb	r1, r2
 4464 0802 7A69     		ldr	r2, [r7, #20]
 4465 0804 1344     		add	r3, r3, r2
 4466 0806 0A46     		mov	r2, r1
ARM GAS  C:\Users\RECEPC~1\AppData\Local\Temp\cc5EIyCe.s 			page 92


 4467 0808 1A71     		strb	r2, [r3, #4]
 691:.\RFServerStackImpl.c ****                                 puartdisp->_messagetx[puartdisp->_messagelength + blkindex++] = (pu
 4468              		.loc 1 691 0
 4469 080a 7B69     		ldr	r3, [r7, #20]
 4470 080c 5B88     		ldrh	r3, [r3, #2]	@ movhi
 4471 080e 9BB2     		uxth	r3, r3
 4472 0810 1A46     		mov	r2, r3
 4473 0812 97F82C30 		ldrb	r3, [r7, #44]	@ zero_extendqisi2
 4474 0816 591C     		adds	r1, r3, #1
 4475 0818 87F82C10 		strb	r1, [r7, #44]
 4476 081c 1344     		add	r3, r3, r2
 4477 081e 97F82B20 		ldrb	r2, [r7, #43]	@ zero_extendqisi2
 4478 0822 2A21     		movs	r1, #42
 4479 0824 01FB02F2 		mul	r2, r1, r2
 4480 0828 0532     		adds	r2, r2, #5
 4481 082a B969     		ldr	r1, [r7, #24]
 4482 082c 0A44     		add	r2, r2, r1
 4483 082e 9278     		ldrb	r2, [r2, #2]	@ zero_extendqisi2
 4484 0830 02F00F02 		and	r2, r2, #15
 4485 0834 D1B2     		uxtb	r1, r2
 4486 0836 7A69     		ldr	r2, [r7, #20]
 4487 0838 1344     		add	r3, r3, r2
 4488 083a 0A46     		mov	r2, r1
 4489 083c 1A71     		strb	r2, [r3, #4]
 692:.\RFServerStackImpl.c ****                                 puartdisp->_messagetx[puartdisp->_messagelength + blkindex++] = (pu
 4490              		.loc 1 692 0
 4491 083e 7B69     		ldr	r3, [r7, #20]
 4492 0840 5B88     		ldrh	r3, [r3, #2]	@ movhi
 4493 0842 9BB2     		uxth	r3, r3
 4494 0844 1A46     		mov	r2, r3
 4495 0846 97F82C30 		ldrb	r3, [r7, #44]	@ zero_extendqisi2
 4496 084a 591C     		adds	r1, r3, #1
 4497 084c 87F82C10 		strb	r1, [r7, #44]
 4498 0850 1344     		add	r3, r3, r2
 4499 0852 97F82B20 		ldrb	r2, [r7, #43]	@ zero_extendqisi2
 4500 0856 2A21     		movs	r1, #42
 4501 0858 01FB02F2 		mul	r2, r1, r2
 4502 085c 0632     		adds	r2, r2, #6
 4503 085e B969     		ldr	r1, [r7, #24]
 4504 0860 0A44     		add	r2, r2, r1
 4505 0862 9278     		ldrb	r2, [r2, #2]	@ zero_extendqisi2
 4506 0864 02F00F02 		and	r2, r2, #15
 4507 0868 D1B2     		uxtb	r1, r2
 4508 086a 7A69     		ldr	r2, [r7, #20]
 4509 086c 1344     		add	r3, r3, r2
 4510 086e 0A46     		mov	r2, r1
 4511 0870 1A71     		strb	r2, [r3, #4]
 693:.\RFServerStackImpl.c ****                                 puartdisp->_messagetx[puartdisp->_messagelength + blkindex++] = (pu
 4512              		.loc 1 693 0
 4513 0872 7B69     		ldr	r3, [r7, #20]
 4514 0874 5B88     		ldrh	r3, [r3, #2]	@ movhi
 4515 0876 9BB2     		uxth	r3, r3
 4516 0878 1A46     		mov	r2, r3
 4517 087a 97F82C30 		ldrb	r3, [r7, #44]	@ zero_extendqisi2
 4518 087e 591C     		adds	r1, r3, #1
 4519 0880 87F82C10 		strb	r1, [r7, #44]
 4520 0884 1344     		add	r3, r3, r2
ARM GAS  C:\Users\RECEPC~1\AppData\Local\Temp\cc5EIyCe.s 			page 93


 4521 0886 97F82B20 		ldrb	r2, [r7, #43]	@ zero_extendqisi2
 4522 088a 2A21     		movs	r1, #42
 4523 088c 01FB02F2 		mul	r2, r1, r2
 4524 0890 0732     		adds	r2, r2, #7
 4525 0892 B969     		ldr	r1, [r7, #24]
 4526 0894 0A44     		add	r2, r2, r1
 4527 0896 9278     		ldrb	r2, [r2, #2]	@ zero_extendqisi2
 4528 0898 02F00F02 		and	r2, r2, #15
 4529 089c D1B2     		uxtb	r1, r2
 4530 089e 7A69     		ldr	r2, [r7, #20]
 4531 08a0 1344     		add	r3, r3, r2
 4532 08a2 0A46     		mov	r2, r1
 4533 08a4 1A71     		strb	r2, [r3, #4]
 694:.\RFServerStackImpl.c ****                                 puartdisp->_messagetx[puartdisp->_messagelength + blkindex++] = (pu
 4534              		.loc 1 694 0
 4535 08a6 7B69     		ldr	r3, [r7, #20]
 4536 08a8 5B88     		ldrh	r3, [r3, #2]	@ movhi
 4537 08aa 9BB2     		uxth	r3, r3
 4538 08ac 1A46     		mov	r2, r3
 4539 08ae 97F82C30 		ldrb	r3, [r7, #44]	@ zero_extendqisi2
 4540 08b2 591C     		adds	r1, r3, #1
 4541 08b4 87F82C10 		strb	r1, [r7, #44]
 4542 08b8 1344     		add	r3, r3, r2
 4543 08ba 97F82B20 		ldrb	r2, [r7, #43]	@ zero_extendqisi2
 4544 08be 2A21     		movs	r1, #42
 4545 08c0 01FB02F2 		mul	r2, r1, r2
 4546 08c4 0832     		adds	r2, r2, #8
 4547 08c6 B969     		ldr	r1, [r7, #24]
 4548 08c8 0A44     		add	r2, r2, r1
 4549 08ca 9278     		ldrb	r2, [r2, #2]	@ zero_extendqisi2
 4550 08cc 02F00F02 		and	r2, r2, #15
 4551 08d0 D1B2     		uxtb	r1, r2
 4552 08d2 7A69     		ldr	r2, [r7, #20]
 4553 08d4 1344     		add	r3, r3, r2
 4554 08d6 0A46     		mov	r2, r1
 4555 08d8 1A71     		strb	r2, [r3, #4]
 695:.\RFServerStackImpl.c ****                                 puartdisp->_messagetx[puartdisp->_messagelength + blkindex++] = (pu
 4556              		.loc 1 695 0
 4557 08da 7B69     		ldr	r3, [r7, #20]
 4558 08dc 5B88     		ldrh	r3, [r3, #2]	@ movhi
 4559 08de 9BB2     		uxth	r3, r3
 4560 08e0 1A46     		mov	r2, r3
 4561 08e2 97F82C30 		ldrb	r3, [r7, #44]	@ zero_extendqisi2
 4562 08e6 591C     		adds	r1, r3, #1
 4563 08e8 87F82C10 		strb	r1, [r7, #44]
 4564 08ec 1344     		add	r3, r3, r2
 4565 08ee 97F82B20 		ldrb	r2, [r7, #43]	@ zero_extendqisi2
 4566 08f2 2A21     		movs	r1, #42
 4567 08f4 01FB02F2 		mul	r2, r1, r2
 4568 08f8 0932     		adds	r2, r2, #9
 4569 08fa B969     		ldr	r1, [r7, #24]
 4570 08fc 0A44     		add	r2, r2, r1
 4571 08fe 9278     		ldrb	r2, [r2, #2]	@ zero_extendqisi2
 4572 0900 02F00F02 		and	r2, r2, #15
 4573 0904 D1B2     		uxtb	r1, r2
 4574 0906 7A69     		ldr	r2, [r7, #20]
 4575 0908 1344     		add	r3, r3, r2
ARM GAS  C:\Users\RECEPC~1\AppData\Local\Temp\cc5EIyCe.s 			page 94


 4576 090a 0A46     		mov	r2, r1
 4577 090c 1A71     		strb	r2, [r3, #4]
 696:.\RFServerStackImpl.c ****                                 puartdisp->_messagetx[puartdisp->_messagelength + blkindex++] = (pu
 4578              		.loc 1 696 0
 4579 090e 7B69     		ldr	r3, [r7, #20]
 4580 0910 5B88     		ldrh	r3, [r3, #2]	@ movhi
 4581 0912 9BB2     		uxth	r3, r3
 4582 0914 1A46     		mov	r2, r3
 4583 0916 97F82C30 		ldrb	r3, [r7, #44]	@ zero_extendqisi2
 4584 091a 591C     		adds	r1, r3, #1
 4585 091c 87F82C10 		strb	r1, [r7, #44]
 4586 0920 1344     		add	r3, r3, r2
 4587 0922 97F82B20 		ldrb	r2, [r7, #43]	@ zero_extendqisi2
 4588 0926 2A21     		movs	r1, #42
 4589 0928 01FB02F2 		mul	r2, r1, r2
 4590 092c 0A32     		adds	r2, r2, #10
 4591 092e B969     		ldr	r1, [r7, #24]
 4592 0930 0A44     		add	r2, r2, r1
 4593 0932 9278     		ldrb	r2, [r2, #2]	@ zero_extendqisi2
 4594 0934 02F00F02 		and	r2, r2, #15
 4595 0938 D1B2     		uxtb	r1, r2
 4596 093a 7A69     		ldr	r2, [r7, #20]
 4597 093c 1344     		add	r3, r3, r2
 4598 093e 0A46     		mov	r2, r1
 4599 0940 1A71     		strb	r2, [r3, #4]
 697:.\RFServerStackImpl.c ****                                 puartdisp->_messagetx[puartdisp->_messagelength + blkindex++] = (pu
 4600              		.loc 1 697 0
 4601 0942 7B69     		ldr	r3, [r7, #20]
 4602 0944 5B88     		ldrh	r3, [r3, #2]	@ movhi
 4603 0946 9BB2     		uxth	r3, r3
 4604 0948 1A46     		mov	r2, r3
 4605 094a 97F82C30 		ldrb	r3, [r7, #44]	@ zero_extendqisi2
 4606 094e 591C     		adds	r1, r3, #1
 4607 0950 87F82C10 		strb	r1, [r7, #44]
 4608 0954 1344     		add	r3, r3, r2
 4609 0956 97F82B20 		ldrb	r2, [r7, #43]	@ zero_extendqisi2
 4610 095a 2A21     		movs	r1, #42
 4611 095c 01FB02F2 		mul	r2, r1, r2
 4612 0960 0B32     		adds	r2, r2, #11
 4613 0962 B969     		ldr	r1, [r7, #24]
 4614 0964 0A44     		add	r2, r2, r1
 4615 0966 9278     		ldrb	r2, [r2, #2]	@ zero_extendqisi2
 4616 0968 02F00F02 		and	r2, r2, #15
 4617 096c D1B2     		uxtb	r1, r2
 4618 096e 7A69     		ldr	r2, [r7, #20]
 4619 0970 1344     		add	r3, r3, r2
 4620 0972 0A46     		mov	r2, r1
 4621 0974 1A71     		strb	r2, [r3, #4]
 698:.\RFServerStackImpl.c ****                                 puartdisp->_messagetx[puartdisp->_messagelength + blkindex++] = (pu
 4622              		.loc 1 698 0
 4623 0976 7B69     		ldr	r3, [r7, #20]
 4624 0978 5B88     		ldrh	r3, [r3, #2]	@ movhi
 4625 097a 9BB2     		uxth	r3, r3
 4626 097c 1A46     		mov	r2, r3
 4627 097e 97F82C30 		ldrb	r3, [r7, #44]	@ zero_extendqisi2
 4628 0982 591C     		adds	r1, r3, #1
 4629 0984 87F82C10 		strb	r1, [r7, #44]
ARM GAS  C:\Users\RECEPC~1\AppData\Local\Temp\cc5EIyCe.s 			page 95


 4630 0988 1344     		add	r3, r3, r2
 4631 098a 97F82B20 		ldrb	r2, [r7, #43]	@ zero_extendqisi2
 4632 098e 2A21     		movs	r1, #42
 4633 0990 01FB02F2 		mul	r2, r1, r2
 4634 0994 0C32     		adds	r2, r2, #12
 4635 0996 B969     		ldr	r1, [r7, #24]
 4636 0998 0A44     		add	r2, r2, r1
 4637 099a 9278     		ldrb	r2, [r2, #2]	@ zero_extendqisi2
 4638 099c 02F00F02 		and	r2, r2, #15
 4639 09a0 D1B2     		uxtb	r1, r2
 4640 09a2 7A69     		ldr	r2, [r7, #20]
 4641 09a4 1344     		add	r3, r3, r2
 4642 09a6 0A46     		mov	r2, r1
 4643 09a8 1A71     		strb	r2, [r3, #4]
 699:.\RFServerStackImpl.c ****                                 puartdisp->_messagetx[puartdisp->_messagelength + blkindex++] = (pu
 4644              		.loc 1 699 0
 4645 09aa 7B69     		ldr	r3, [r7, #20]
 4646 09ac 5B88     		ldrh	r3, [r3, #2]	@ movhi
 4647 09ae 9BB2     		uxth	r3, r3
 4648 09b0 1A46     		mov	r2, r3
 4649 09b2 97F82C30 		ldrb	r3, [r7, #44]	@ zero_extendqisi2
 4650 09b6 591C     		adds	r1, r3, #1
 4651 09b8 87F82C10 		strb	r1, [r7, #44]
 4652 09bc 1344     		add	r3, r3, r2
 4653 09be 97F82B20 		ldrb	r2, [r7, #43]	@ zero_extendqisi2
 4654 09c2 2A21     		movs	r1, #42
 4655 09c4 01FB02F2 		mul	r2, r1, r2
 4656 09c8 0D32     		adds	r2, r2, #13
 4657 09ca B969     		ldr	r1, [r7, #24]
 4658 09cc 0A44     		add	r2, r2, r1
 4659 09ce 9278     		ldrb	r2, [r2, #2]	@ zero_extendqisi2
 4660 09d0 02F00F02 		and	r2, r2, #15
 4661 09d4 D1B2     		uxtb	r1, r2
 4662 09d6 7A69     		ldr	r2, [r7, #20]
 4663 09d8 1344     		add	r3, r3, r2
 4664 09da 0A46     		mov	r2, r1
 4665 09dc 1A71     		strb	r2, [r3, #4]
 700:.\RFServerStackImpl.c ****                                 puartdisp->_messagetx[puartdisp->_messagelength + blkindex++] = (pu
 4666              		.loc 1 700 0
 4667 09de 7B69     		ldr	r3, [r7, #20]
 4668 09e0 5B88     		ldrh	r3, [r3, #2]	@ movhi
 4669 09e2 9BB2     		uxth	r3, r3
 4670 09e4 1A46     		mov	r2, r3
 4671 09e6 97F82C30 		ldrb	r3, [r7, #44]	@ zero_extendqisi2
 4672 09ea 591C     		adds	r1, r3, #1
 4673 09ec 87F82C10 		strb	r1, [r7, #44]
 4674 09f0 1344     		add	r3, r3, r2
 4675 09f2 97F82B20 		ldrb	r2, [r7, #43]	@ zero_extendqisi2
 4676 09f6 2A21     		movs	r1, #42
 4677 09f8 01FB02F2 		mul	r2, r1, r2
 4678 09fc 0E32     		adds	r2, r2, #14
 4679 09fe B969     		ldr	r1, [r7, #24]
 4680 0a00 0A44     		add	r2, r2, r1
 4681 0a02 9278     		ldrb	r2, [r2, #2]	@ zero_extendqisi2
 4682 0a04 02F00F02 		and	r2, r2, #15
 4683 0a08 D1B2     		uxtb	r1, r2
 4684 0a0a 7A69     		ldr	r2, [r7, #20]
