ARM GAS  C:\Users\RECEPC~1\AppData\Local\Temp\cciM7gRQ.s 			page 1


   1              		.syntax unified
   2              		.cpu cortex-m3
   3              		.fpu softvfp
   4              		.eabi_attribute 20, 1
   5              		.eabi_attribute 21, 1
   6              		.eabi_attribute 23, 3
   7              		.eabi_attribute 24, 1
   8              		.eabi_attribute 25, 1
   9              		.eabi_attribute 26, 1
  10              		.eabi_attribute 30, 6
  11              		.eabi_attribute 34, 1
  12              		.eabi_attribute 18, 4
  13              		.thumb
  14              		.file	"RFSink.c"
  15              		.text
  16              	.Ltext0:
  17              		.cfi_sections	.debug_frame
  18              		.comm	_g_rfautorun,10,4
  19              		.section	.text.RFSinkRegistration,"ax",%progbits
  20              		.align	2
  21              		.global	RFSinkRegistration
  22              		.thumb
  23              		.thumb_func
  24              		.type	RFSinkRegistration, %function
  25              	RFSinkRegistration:
  26              	.LFB63:
  27              		.file 1 ".\\RFSink.c"
   1:.\RFSink.c    **** /* ========================================
   2:.\RFSink.c    ****  *
   3:.\RFSink.c    ****  * Copyright YOUR COMPANY, THE YEAR
   4:.\RFSink.c    ****  * All Rights Reserved
   5:.\RFSink.c    ****  * UNPUBLISHED, LICENSED SOFTWARE.
   6:.\RFSink.c    ****  *
   7:.\RFSink.c    ****  * CONFIDENTIAL AND PROPRIETARY INFORMATION
   8:.\RFSink.c    ****  * WHICH IS THE PROPERTY OF your company.
   9:.\RFSink.c    ****  *
  10:.\RFSink.c    ****  * ========================================
  11:.\RFSink.c    **** */
  12:.\RFSink.c    **** #include <project.h>
  13:.\RFSink.c    **** #include "GlobalDefinitions.h"
  14:.\RFSink.c    **** #include "SinkManager.h"
  15:.\RFSink.c    **** #include "SinkObservables.h"
  16:.\RFSink.c    **** #include "UARTManager.h"
  17:.\RFSink.c    **** #include "Configuration.h"
  18:.\RFSink.c    **** #include "RFLink.h"
  19:.\RFSink.c    **** #include "Eeprom.h"
  20:.\RFSink.c    **** 
  21:.\RFSink.c    **** //extern uint8 _g_rfslaveheader[];
  22:.\RFSink.c    **** //void RFTEST(LPVOID pparam);
  23:.\RFSink.c    **** 
  24:.\RFSink.c    **** RFAutoRun _g_rfautorun;
  25:.\RFSink.c    **** 
  26:.\RFSink.c    **** void RFServerRequestHandler(LPVOID pparam);
  27:.\RFSink.c    **** void RFServerAutonomousMonitor(LPVOID pparam);
  28:.\RFSink.c    **** 
  29:.\RFSink.c    **** //@Created By: HIJH
  30:.\RFSink.c    **** //@Septembre de 2016
ARM GAS  C:\Users\RECEPC~1\AppData\Local\Temp\cciM7gRQ.s 			page 2


  31:.\RFSink.c    **** void RFSinkRegistration()
  32:.\RFSink.c    **** {
  28              		.loc 1 32 0
  29              		.cfi_startproc
  30              		@ args = 0, pretend = 0, frame = 16
  31              		@ frame_needed = 1, uses_anonymous_args = 0
  32 0000 80B5     		push	{r7, lr}
  33              		.cfi_def_cfa_offset 8
  34              		.cfi_offset 7, -8
  35              		.cfi_offset 14, -4
  36 0002 84B0     		sub	sp, sp, #16
  37              		.cfi_def_cfa_offset 24
  38 0004 00AF     		add	r7, sp, #0
  39              		.cfi_def_cfa_register 7
  33:.\RFSink.c    ****     PSINKSUBSCRIBERPTR psubscriber = AllocateSubscriberSlot();
  40              		.loc 1 33 0
  41 0006 FFF7FEFF 		bl	AllocateSubscriberSlot
  42 000a F860     		str	r0, [r7, #12]
  34:.\RFSink.c    ****     if(psubscriber)
  43              		.loc 1 34 0
  44 000c FB68     		ldr	r3, [r7, #12]
  45 000e 002B     		cmp	r3, #0
  46 0010 1DD0     		beq	.L2
  47              	.LBB2:
  35:.\RFSink.c    ****     {
  36:.\RFSink.c    ****         uint8 index = 0;
  48              		.loc 1 36 0
  49 0012 0023     		movs	r3, #0
  50 0014 FB72     		strb	r3, [r7, #11]
  37:.\RFSink.c    ****         //The maximum number of observable identifiers is _OBSERVED_IDENTIFIERS_
  38:.\RFSink.c    ****         //located in the header file "SinkManager.h"
  39:.\RFSink.c    ****         //Every identifier is paired with its respective Callback method pointer
  40:.\RFSink.c    ****         
  41:.\RFSink.c    ****         psubscriber->_arrmsgid[index] = UART_RF_RECEPTION;
  51              		.loc 1 41 0
  52 0016 FB7A     		ldrb	r3, [r7, #11]	@ zero_extendqisi2
  53 0018 FA68     		ldr	r2, [r7, #12]
  54 001a 1344     		add	r3, r3, r2
  55 001c 0122     		movs	r2, #1
  56 001e 5A70     		strb	r2, [r3, #1]
  42:.\RFSink.c    ****         psubscriber->Callback[index++] = RFServerRequestHandler;
  57              		.loc 1 42 0
  58 0020 FB7A     		ldrb	r3, [r7, #11]	@ zero_extendqisi2
  59 0022 5A1C     		adds	r2, r3, #1
  60 0024 FA72     		strb	r2, [r7, #11]
  61 0026 FA68     		ldr	r2, [r7, #12]
  62 0028 0233     		adds	r3, r3, #2
  63 002a 9B00     		lsls	r3, r3, #2
  64 002c 1344     		add	r3, r3, r2
  65 002e 274A     		ldr	r2, .L4
  66 0030 5A60     		str	r2, [r3, #4]
  43:.\RFSink.c    **** 
  44:.\RFSink.c    ****         psubscriber->_arrmsgid[index] = UART_RF_AUTONOMOUS_MONITOR;
  67              		.loc 1 44 0
  68 0032 FB7A     		ldrb	r3, [r7, #11]	@ zero_extendqisi2
  69 0034 FA68     		ldr	r2, [r7, #12]
  70 0036 1344     		add	r3, r3, r2
ARM GAS  C:\Users\RECEPC~1\AppData\Local\Temp\cciM7gRQ.s 			page 3


  71 0038 0322     		movs	r2, #3
  72 003a 5A70     		strb	r2, [r3, #1]
  45:.\RFSink.c    ****         psubscriber->Callback[index++] = RFServerAutonomousMonitor;
  73              		.loc 1 45 0
  74 003c FB7A     		ldrb	r3, [r7, #11]	@ zero_extendqisi2
  75 003e 5A1C     		adds	r2, r3, #1
  76 0040 FA72     		strb	r2, [r7, #11]
  77 0042 FA68     		ldr	r2, [r7, #12]
  78 0044 0233     		adds	r3, r3, #2
  79 0046 9B00     		lsls	r3, r3, #2
  80 0048 1344     		add	r3, r3, r2
  81 004a 214A     		ldr	r2, .L4+4
  82 004c 5A60     		str	r2, [r3, #4]
  83              	.L2:
  84              	.LBE2:
  46:.\RFSink.c    ****         
  47:.\RFSink.c    ****         //psubscriber->_arrmsgid[index] = UART_RF_TEST;
  48:.\RFSink.c    ****         //psubscriber->Callback[index++] = RFTEST;
  49:.\RFSink.c    ****     }
  50:.\RFSink.c    ****     
  51:.\RFSink.c    ****     /*_ALLOCATE_SINKMESSAGE_SLOT(psinkmsg);
  52:.\RFSink.c    ****     if(psinkmsg)
  53:.\RFSink.c    ****     {
  54:.\RFSink.c    ****         psinkmsg->_messageid = UART_RF_TEST;
  55:.\RFSink.c    ****         psinkmsg->_messagetimeoutlimit = _SINK_TIMEOUT_1S_;
  56:.\RFSink.c    ****         psinkmsg->_messagetype = FIRSTFOUNDFOREVER;
  57:.\RFSink.c    ****         psinkmsg->_messagestate = SINK_BUSY;
  58:.\RFSink.c    ****     }
  59:.\RFSink.c    ****     */
  60:.\RFSink.c    **** 
  61:.\RFSink.c    ****     _ALLOCATE_SINKMESSAGE_SLOT(psinkmsg);
  85              		.loc 1 61 0
  86 004e FFF7FEFF 		bl	AllocateMessageSlot
  87 0052 7860     		str	r0, [r7, #4]
  62:.\RFSink.c    ****     if(psinkmsg)
  88              		.loc 1 62 0
  89 0054 7B68     		ldr	r3, [r7, #4]
  90 0056 002B     		cmp	r3, #0
  91 0058 10D0     		beq	.L3
  63:.\RFSink.c    ****     {
  64:.\RFSink.c    ****         psinkmsg->_messageid = UART_RF_AUTONOMOUS_MONITOR;
  92              		.loc 1 64 0
  93 005a 7B68     		ldr	r3, [r7, #4]
  94 005c 0322     		movs	r2, #3
  95 005e 5A70     		strb	r2, [r3, #1]
  65:.\RFSink.c    ****         psinkmsg->_messagedelay = _SINK_TIMEOUT_10S_;
  96              		.loc 1 65 0
  97 0060 7B68     		ldr	r3, [r7, #4]
  98 0062 42F21072 		movw	r2, #10000
  99 0066 9A80     		strh	r2, [r3, #4]	@ movhi
  66:.\RFSink.c    ****         psinkmsg->_messagetimeoutlimit = _SINK_TIMEOUT_1S_;
 100              		.loc 1 66 0
 101 0068 7B68     		ldr	r3, [r7, #4]
 102 006a 4FF47A72 		mov	r2, #1000
 103 006e 5A81     		strh	r2, [r3, #10]	@ movhi
  67:.\RFSink.c    ****         psinkmsg->_messagetype = FIRSTFOUNDFOREVER;
 104              		.loc 1 67 0
ARM GAS  C:\Users\RECEPC~1\AppData\Local\Temp\cciM7gRQ.s 			page 4


 105 0070 7B68     		ldr	r3, [r7, #4]
 106 0072 0622     		movs	r2, #6
 107 0074 9A70     		strb	r2, [r3, #2]
  68:.\RFSink.c    ****         psinkmsg->_messagestate = SINK_BUSY;
 108              		.loc 1 68 0
 109 0076 7B68     		ldr	r3, [r7, #4]
 110 0078 0322     		movs	r2, #3
 111 007a DA70     		strb	r2, [r3, #3]
 112              	.L3:
  69:.\RFSink.c    ****     }
  70:.\RFSink.c    ****     
  71:.\RFSink.c    ****     _g_rfautorun._state = RF_NON_AUTONOMOUS;
 113              		.loc 1 71 0
 114 007c 154B     		ldr	r3, .L4+8
 115 007e 0222     		movs	r2, #2
 116 0080 1A70     		strb	r2, [r3]
  72:.\RFSink.c    ****     _g_rfautorun._toautonomoustimetoken = 0x0000;
 117              		.loc 1 72 0
 118 0082 144B     		ldr	r3, .L4+8
 119 0084 0022     		movs	r2, #0
 120 0086 5A80     		strh	r2, [r3, #2]	@ movhi
  73:.\RFSink.c    ****     
  74:.\RFSink.c    ****     _g_rfautorun._timeouttoreceive = 2*_SINK_TIMEOUT_100MS_;
 121              		.loc 1 74 0
 122 0088 124B     		ldr	r3, .L4+8
 123 008a C822     		movs	r2, #200
 124 008c DA80     		strh	r2, [r3, #6]	@ movhi
  75:.\RFSink.c    ****     _g_rfautorun._timeouttoreceivemultiplier = 0x0000;
 125              		.loc 1 75 0
 126 008e 114B     		ldr	r3, .L4+8
 127 0090 0022     		movs	r2, #0
 128 0092 1A81     		strh	r2, [r3, #8]	@ movhi
  76:.\RFSink.c    ****     
  77:.\RFSink.c    ****     I2CBusLock();
 129              		.loc 1 77 0
 130 0094 FFF7FEFF 		bl	I2CBusLock
  78:.\RFSink.c    ****     ClearEepromBuffer();
 131              		.loc 1 78 0
 132 0098 FFF7FEFF 		bl	ClearEepromBuffer
  79:.\RFSink.c    ****     LoadEepromPage(EEPROM_CONFIGURATION_PAGE7);
 133              		.loc 1 79 0
 134 009c 4FF4E070 		mov	r0, #448
 135 00a0 FFF7FEFF 		bl	LoadEepromPage
  80:.\RFSink.c    ****     //Timeout to autonomous mode in seconds, 1 byte (see Eeprom.h for the memory layout)
  81:.\RFSink.c    ****     _g_rfautorun._timeouttoautonomous = (uint8)GetEepromBuffer()[0x0A];
 136              		.loc 1 81 0
 137 00a4 FFF7FEFF 		bl	GetEepromBuffer
 138 00a8 0346     		mov	r3, r0
 139 00aa 9A7A     		ldrb	r2, [r3, #10]	@ zero_extendqisi2
 140 00ac 094B     		ldr	r3, .L4+8
 141 00ae 1A71     		strb	r2, [r3, #4]
  82:.\RFSink.c    ****     I2CBusUnlock();
 142              		.loc 1 82 0
 143 00b0 FFF7FEFF 		bl	I2CBusUnlock
  83:.\RFSink.c    ****     
  84:.\RFSink.c    ****     _g_rfrx._rfcounter = 0x0000;
 144              		.loc 1 84 0
ARM GAS  C:\Users\RECEPC~1\AppData\Local\Temp\cciM7gRQ.s 			page 5


 145 00b4 084B     		ldr	r3, .L4+12
 146 00b6 0022     		movs	r2, #0
 147 00b8 1A80     		strh	r2, [r3]	@ movhi
  85:.\RFSink.c    ****     _g_rfrx._rftimeoutmultiplier = 0x0000;
 148              		.loc 1 85 0
 149 00ba 074B     		ldr	r3, .L4+12
 150 00bc 0022     		movs	r2, #0
 151 00be 5A60     		str	r2, [r3, #4]
  86:.\RFSink.c    ****     _g_rfrx._rfperpetualcounter = 0x0000;
 152              		.loc 1 86 0
 153 00c0 054B     		ldr	r3, .L4+12
 154 00c2 0022     		movs	r2, #0
 155 00c4 9A60     		str	r2, [r3, #8]
  87:.\RFSink.c    ****     
  88:.\RFSink.c    **** }
 156              		.loc 1 88 0
 157 00c6 1037     		adds	r7, r7, #16
 158              		.cfi_def_cfa_offset 8
 159 00c8 BD46     		mov	sp, r7
 160              		.cfi_def_cfa_register 13
 161              		@ sp needed
 162 00ca 80BD     		pop	{r7, pc}
 163              	.L5:
 164              		.align	2
 165              	.L4:
 166 00cc 00000000 		.word	RFServerRequestHandler
 167 00d0 00000000 		.word	RFServerAutonomousMonitor
 168 00d4 00000000 		.word	_g_rfautorun
 169 00d8 00000000 		.word	_g_rfrx
 170              		.cfi_endproc
 171              	.LFE63:
 172              		.size	RFSinkRegistration, .-RFSinkRegistration
 173              		.section	.text.RFServerAutonomousMonitor,"ax",%progbits
 174              		.align	2
 175              		.global	RFServerAutonomousMonitor
 176              		.thumb
 177              		.thumb_func
 178              		.type	RFServerAutonomousMonitor, %function
 179              	RFServerAutonomousMonitor:
 180              	.LFB64:
  89:.\RFSink.c    **** 
  90:.\RFSink.c    **** /*void RFTEST(LPVOID pparam)
  91:.\RFSink.c    **** {
  92:.\RFSink.c    ****     PUARTMESSAGEPTR puartdisp = GetUARTMessageSlot(UART_RF);
  93:.\RFSink.c    ****     if(puartdisp)
  94:.\RFSink.c    ****     {
  95:.\RFSink.c    ****         puartdisp->_messagelength = 0;
  96:.\RFSink.c    ****         memset(puartdisp->_messagetx, 0x00, sizeof(puartdisp->_messagetx));
  97:.\RFSink.c    ****         memcpy(puartdisp->_messagetx, _g_rfslaveheader, 0x03); //Explicit buffer length to avoid wa
  98:.\RFSink.c    ****         puartdisp->_messagelength += 0x03;
  99:.\RFSink.c    ****         puartdisp->_messagetx[puartdisp->_messagelength++] = (uint8)(_g_stationidentifier & 0xFF);
 100:.\RFSink.c    ****         puartdisp->_messagetx[puartdisp->_messagelength++] = (uint8)((_g_stationidentifier >> 8) & 
 101:.\RFSink.c    ****         puartdisp->_messagetx[puartdisp->_messagelength++] = 0x01;
 102:.\RFSink.c    ****         puartdisp->_messagetx[puartdisp->_messagelength++] = 0xA1;
 103:.\RFSink.c    ****         puartdisp->_messagetx[puartdisp->_messagelength] = RawCRCCheck((char*)puartdisp->_messagetx
 104:.\RFSink.c    ****         puartdisp->_messagelength++;
 105:.\RFSink.c    **** 
ARM GAS  C:\Users\RECEPC~1\AppData\Local\Temp\cciM7gRQ.s 			page 6


 106:.\RFSink.c    ****         puartdisp->_messagestate = PENDING;
 107:.\RFSink.c    ****     }
 108:.\RFSink.c    **** }*/
 109:.\RFSink.c    **** 
 110:.\RFSink.c    **** //@Created By: HIJH
 111:.\RFSink.c    **** //@Octobre de 2016
 112:.\RFSink.c    **** //This is to detect the "Autonomous Condition", meaning that there is no Remote Peer (NSX).
 113:.\RFSink.c    **** //Upon this condition the unit works just with a few options available.
 114:.\RFSink.c    **** void RFServerAutonomousMonitor(LPVOID pparam)
 115:.\RFSink.c    **** {
 181              		.loc 1 115 0
 182              		.cfi_startproc
 183              		@ args = 0, pretend = 0, frame = 16
 184              		@ frame_needed = 1, uses_anonymous_args = 0
 185              		@ link register save eliminated.
 186 0000 80B4     		push	{r7}
 187              		.cfi_def_cfa_offset 4
 188              		.cfi_offset 7, -4
 189 0002 85B0     		sub	sp, sp, #20
 190              		.cfi_def_cfa_offset 24
 191 0004 00AF     		add	r7, sp, #0
 192              		.cfi_def_cfa_register 7
 193 0006 7860     		str	r0, [r7, #4]
 116:.\RFSink.c    ****     //PSINKMESSAGEPTR psinkmsg = (PSINKMESSAGEPTR)pparam;
 117:.\RFSink.c    ****     
 118:.\RFSink.c    ****     uint16 rolloverref = _g_rfautorun._toautonomoustimetoken;
 194              		.loc 1 118 0
 195 0008 154B     		ldr	r3, .L10
 196 000a 5B88     		ldrh	r3, [r3, #2]	@ movhi
 197 000c FB81     		strh	r3, [r7, #14]	@ movhi
 119:.\RFSink.c    ****     _g_rfautorun._toautonomoustimetoken++;
 198              		.loc 1 119 0
 199 000e 144B     		ldr	r3, .L10
 200 0010 5B88     		ldrh	r3, [r3, #2]	@ movhi
 201 0012 9BB2     		uxth	r3, r3
 202 0014 0133     		adds	r3, r3, #1
 203 0016 9AB2     		uxth	r2, r3
 204 0018 114B     		ldr	r3, .L10
 205 001a 5A80     		strh	r2, [r3, #2]	@ movhi
 120:.\RFSink.c    ****     //This is to detect the rollover condition on the "timetoken counter" and keep the module "Auto
 121:.\RFSink.c    ****     if(rolloverref > _g_rfautorun._toautonomoustimetoken)
 206              		.loc 1 121 0
 207 001c 104B     		ldr	r3, .L10
 208 001e 5B88     		ldrh	r3, [r3, #2]	@ movhi
 209 0020 9BB2     		uxth	r3, r3
 210 0022 FA89     		ldrh	r2, [r7, #14]
 211 0024 9A42     		cmp	r2, r3
 212 0026 05D9     		bls	.L7
 122:.\RFSink.c    ****         _g_rfautorun._toautonomoustimetoken = _g_rfautorun._timeouttoautonomous;
 213              		.loc 1 122 0
 214 0028 0D4B     		ldr	r3, .L10
 215 002a 1B79     		ldrb	r3, [r3, #4]
 216 002c DBB2     		uxtb	r3, r3
 217 002e 9AB2     		uxth	r2, r3
 218 0030 0B4B     		ldr	r3, .L10
 219 0032 5A80     		strh	r2, [r3, #2]	@ movhi
 220              	.L7:
ARM GAS  C:\Users\RECEPC~1\AppData\Local\Temp\cciM7gRQ.s 			page 7


 123:.\RFSink.c    ****     
 124:.\RFSink.c    ****     if(_g_rfautorun._toautonomoustimetoken >= _g_rfautorun._timeouttoautonomous)
 221              		.loc 1 124 0
 222 0034 0A4B     		ldr	r3, .L10
 223 0036 5B88     		ldrh	r3, [r3, #2]	@ movhi
 224 0038 9AB2     		uxth	r2, r3
 225 003a 094B     		ldr	r3, .L10
 226 003c 1B79     		ldrb	r3, [r3, #4]
 227 003e DBB2     		uxtb	r3, r3
 228 0040 9BB2     		uxth	r3, r3
 229 0042 9A42     		cmp	r2, r3
 230 0044 03D3     		bcc	.L8
 125:.\RFSink.c    ****         _g_rfautorun._state = RF_AUTONOMOUS;
 231              		.loc 1 125 0
 232 0046 064B     		ldr	r3, .L10
 233 0048 0122     		movs	r2, #1
 234 004a 1A70     		strb	r2, [r3]
 235 004c 02E0     		b	.L6
 236              	.L8:
 126:.\RFSink.c    ****     else
 127:.\RFSink.c    ****         _g_rfautorun._state = RF_NON_AUTONOMOUS;
 237              		.loc 1 127 0
 238 004e 044B     		ldr	r3, .L10
 239 0050 0222     		movs	r2, #2
 240 0052 1A70     		strb	r2, [r3]
 241              	.L6:
 128:.\RFSink.c    ****     
 129:.\RFSink.c    **** }
 242              		.loc 1 129 0
 243 0054 1437     		adds	r7, r7, #20
 244              		.cfi_def_cfa_offset 4
 245 0056 BD46     		mov	sp, r7
 246              		.cfi_def_cfa_register 13
 247              		@ sp needed
 248 0058 5DF8047B 		ldr	r7, [sp], #4
 249              		.cfi_restore 7
 250              		.cfi_def_cfa_offset 0
 251 005c 7047     		bx	lr
 252              	.L11:
 253 005e 00BF     		.align	2
 254              	.L10:
 255 0060 00000000 		.word	_g_rfautorun
 256              		.cfi_endproc
 257              	.LFE64:
 258              		.size	RFServerAutonomousMonitor, .-RFServerAutonomousMonitor
 259              		.text
 260              	.Letext0:
 261              		.file 2 "c:\\program files (x86)\\cypress\\psoc creator\\3.3\\psoc creator\\import\\gnu\\arm\\4.9.
 262              		.file 3 "c:\\program files (x86)\\cypress\\psoc creator\\3.3\\psoc creator\\import\\gnu\\arm\\4.9.
 263              		.file 4 "Generated_Source\\PSoC5/cytypes.h"
 264              		.file 5 ".\\GlobalDefinitions.h"
 265              		.file 6 ".\\SinkManager.h"
 266              		.file 7 ".\\SinkObservables.h"
 267              		.file 8 ".\\RFLink.h"
 268              		.file 9 ".\\Eeprom.h"
 269              		.file 10 "Generated_Source\\PSoC5/core_cm3.h"