ARM GAS  C:\Users\RECEPC~1\AppData\Local\Temp\ccpxJpee.s 			page 1


   1              		.syntax unified
   2              		.cpu cortex-m3
   3              		.fpu softvfp
   4              		.eabi_attribute 20, 1
   5              		.eabi_attribute 21, 1
   6              		.eabi_attribute 23, 3
   7              		.eabi_attribute 24, 1
   8              		.eabi_attribute 25, 1
   9              		.eabi_attribute 26, 1
  10              		.eabi_attribute 30, 6
  11              		.eabi_attribute 34, 1
  12              		.eabi_attribute 18, 4
  13              		.thumb
  14              		.file	"RtcManager.c"
  15              		.text
  16              	.Ltext0:
  17              		.cfi_sections	.debug_frame
  18              		.comm	HoseDispenser,1,1
  19              		.comm	_g_rtc,16,4
  20              		.section	.text.GetRtcBuffer,"ax",%progbits
  21              		.align	2
  22              		.global	GetRtcBuffer
  23              		.thumb
  24              		.thumb_func
  25              		.type	GetRtcBuffer, %function
  26              	GetRtcBuffer:
  27              	.LFB0:
  28              		.file 1 ".\\RtcManager.c"
   1:.\RtcManager.c **** /* ========================================
   2:.\RtcManager.c ****  *
   3:.\RtcManager.c ****  * Copyright INSEPET SISTEMAS, 2016
   4:.\RtcManager.c ****  * All Rights Reserved
   5:.\RtcManager.c ****  * UNPUBLISHED, LICENSED SOFTWARE.
   6:.\RtcManager.c ****  *
   7:.\RtcManager.c ****  * CONFIDENTIAL AND PROPRIETARY INFORMATION
   8:.\RtcManager.c ****  * WHICH IS THE PROPERTY OF your company.
   9:.\RtcManager.c ****  *
  10:.\RtcManager.c ****  * ========================================
  11:.\RtcManager.c **** @Created by: HIJH
  12:.\RtcManager.c **** @Date: Septembre 2 de 2016
  13:.\RtcManager.c **** */
  14:.\RtcManager.c **** #include "GlobalDefinitions.h"
  15:.\RtcManager.c **** #include "Rtc.h"
  16:.\RtcManager.c **** #include "I2C_Bus.h"
  17:.\RtcManager.c **** 
  18:.\RtcManager.c **** extern volatile bool _g_i2cbuslock;
  19:.\RtcManager.c **** 
  20:.\RtcManager.c **** char8 _g_rtc[_RTC_BUFFER_SIZE_];
  21:.\RtcManager.c **** 
  22:.\RtcManager.c **** char8* GetRtcBuffer()
  23:.\RtcManager.c **** {
  29              		.loc 1 23 0
  30              		.cfi_startproc
  31              		@ args = 0, pretend = 0, frame = 0
  32              		@ frame_needed = 1, uses_anonymous_args = 0
  33              		@ link register save eliminated.
  34 0000 80B4     		push	{r7}
ARM GAS  C:\Users\RECEPC~1\AppData\Local\Temp\ccpxJpee.s 			page 2


  35              		.cfi_def_cfa_offset 4
  36              		.cfi_offset 7, -4
  37 0002 00AF     		add	r7, sp, #0
  38              		.cfi_def_cfa_register 7
  24:.\RtcManager.c ****     return _g_rtc;
  39              		.loc 1 24 0
  40 0004 024B     		ldr	r3, .L3
  25:.\RtcManager.c **** }
  41              		.loc 1 25 0
  42 0006 1846     		mov	r0, r3
  43 0008 BD46     		mov	sp, r7
  44              		.cfi_def_cfa_register 13
  45              		@ sp needed
  46 000a 5DF8047B 		ldr	r7, [sp], #4
  47              		.cfi_restore 7
  48              		.cfi_def_cfa_offset 0
  49 000e 7047     		bx	lr
  50              	.L4:
  51              		.align	2
  52              	.L3:
  53 0010 00000000 		.word	_g_rtc
  54              		.cfi_endproc
  55              	.LFE0:
  56              		.size	GetRtcBuffer, .-GetRtcBuffer
  57              		.section	.text.ClearRtcBuffer,"ax",%progbits
  58              		.align	2
  59              		.global	ClearRtcBuffer
  60              		.thumb
  61              		.thumb_func
  62              		.type	ClearRtcBuffer, %function
  63              	ClearRtcBuffer:
  64              	.LFB1:
  26:.\RtcManager.c **** 
  27:.\RtcManager.c **** void ClearRtcBuffer()
  28:.\RtcManager.c **** {
  65              		.loc 1 28 0
  66              		.cfi_startproc
  67              		@ args = 0, pretend = 0, frame = 0
  68              		@ frame_needed = 1, uses_anonymous_args = 0
  69 0000 80B5     		push	{r7, lr}
  70              		.cfi_def_cfa_offset 8
  71              		.cfi_offset 7, -8
  72              		.cfi_offset 14, -4
  73 0002 00AF     		add	r7, sp, #0
  74              		.cfi_def_cfa_register 7
  29:.\RtcManager.c ****     memset(_g_rtc, 0x00, _RTC_BUFFER_SIZE_);
  75              		.loc 1 29 0
  76 0004 0248     		ldr	r0, .L6
  77 0006 0021     		movs	r1, #0
  78 0008 1022     		movs	r2, #16
  79 000a FFF7FEFF 		bl	memset
  30:.\RtcManager.c **** }
  80              		.loc 1 30 0
  81 000e 80BD     		pop	{r7, pc}
  82              	.L7:
  83              		.align	2
  84              	.L6:
ARM GAS  C:\Users\RECEPC~1\AppData\Local\Temp\ccpxJpee.s 			page 3


  85 0010 00000000 		.word	_g_rtc
  86              		.cfi_endproc
  87              	.LFE1:
  88              		.size	ClearRtcBuffer, .-ClearRtcBuffer
  89              		.section	.text.UpdateRTC,"ax",%progbits
  90              		.align	2
  91              		.global	UpdateRTC
  92              		.thumb
  93              		.thumb_func
  94              		.type	UpdateRTC, %function
  95              	UpdateRTC:
  96              	.LFB2:
  31:.\RtcManager.c **** 
  32:.\RtcManager.c **** //@Created By: HIJH
  33:.\RtcManager.c **** //@Septembre de 2016
  34:.\RtcManager.c **** void UpdateRTC()
  35:.\RtcManager.c **** {
  97              		.loc 1 35 0
  98              		.cfi_startproc
  99              		@ args = 0, pretend = 0, frame = 8
 100              		@ frame_needed = 1, uses_anonymous_args = 0
 101 0000 80B5     		push	{r7, lr}
 102              		.cfi_def_cfa_offset 8
 103              		.cfi_offset 7, -8
 104              		.cfi_offset 14, -4
 105 0002 82B0     		sub	sp, sp, #8
 106              		.cfi_def_cfa_offset 16
 107 0004 00AF     		add	r7, sp, #0
 108              		.cfi_def_cfa_register 7
  36:.\RtcManager.c ****     uint8 index = 0;
 109              		.loc 1 36 0
 110 0006 0023     		movs	r3, #0
 111 0008 FB71     		strb	r3, [r7, #7]
  37:.\RtcManager.c ****     I2C_Bus_MasterClearStatus();
 112              		.loc 1 37 0
 113 000a FFF7FEFF 		bl	I2C_Bus_MasterClearStatus
  38:.\RtcManager.c ****                 
  39:.\RtcManager.c ****     uint8 status = I2C_Bus_MasterSendStart(_RTC_I2C_SLAVE_ADDRESS_, I2C_Bus_WRITE_XFER_MODE);
 114              		.loc 1 39 0
 115 000e 6820     		movs	r0, #104
 116 0010 0021     		movs	r1, #0
 117 0012 FFF7FEFF 		bl	I2C_Bus_MasterSendStart
 118 0016 0346     		mov	r3, r0
 119 0018 BB71     		strb	r3, [r7, #6]
  40:.\RtcManager.c ****     if(I2C_Bus_MSTR_NO_ERROR == status)
 120              		.loc 1 40 0
 121 001a BB79     		ldrb	r3, [r7, #6]	@ zero_extendqisi2
 122 001c 002B     		cmp	r3, #0
 123 001e 53D1     		bne	.L9
  41:.\RtcManager.c ****     {
  42:.\RtcManager.c ****         //Positioning on the Seconds Register
  43:.\RtcManager.c ****         I2C_Bus_MasterWriteByte(CTRL_REG1);
 124              		.loc 1 43 0
 125 0020 0020     		movs	r0, #0
 126 0022 FFF7FEFF 		bl	I2C_Bus_MasterWriteByte
  44:.\RtcManager.c ****         //Now start writing
  45:.\RtcManager.c ****         //Seconds
ARM GAS  C:\Users\RECEPC~1\AppData\Local\Temp\ccpxJpee.s 			page 4


  46:.\RtcManager.c ****         I2C_Bus_MasterWriteByte(_g_rtc[index++] & 0x7F);
 127              		.loc 1 46 0
 128 0026 FB79     		ldrb	r3, [r7, #7]	@ zero_extendqisi2
 129 0028 5A1C     		adds	r2, r3, #1
 130 002a FA71     		strb	r2, [r7, #7]
 131 002c 1A46     		mov	r2, r3
 132 002e 314B     		ldr	r3, .L11
 133 0030 9B5C     		ldrb	r3, [r3, r2]	@ zero_extendqisi2
 134 0032 03F07F03 		and	r3, r3, #127
 135 0036 DBB2     		uxtb	r3, r3
 136 0038 1846     		mov	r0, r3
 137 003a FFF7FEFF 		bl	I2C_Bus_MasterWriteByte
  47:.\RtcManager.c ****         //Minutes
  48:.\RtcManager.c ****         I2C_Bus_MasterWriteByte(_g_rtc[index++] & 0x7F);
 138              		.loc 1 48 0
 139 003e FB79     		ldrb	r3, [r7, #7]	@ zero_extendqisi2
 140 0040 5A1C     		adds	r2, r3, #1
 141 0042 FA71     		strb	r2, [r7, #7]
 142 0044 1A46     		mov	r2, r3
 143 0046 2B4B     		ldr	r3, .L11
 144 0048 9B5C     		ldrb	r3, [r3, r2]	@ zero_extendqisi2
 145 004a 03F07F03 		and	r3, r3, #127
 146 004e DBB2     		uxtb	r3, r3
 147 0050 1846     		mov	r0, r3
 148 0052 FFF7FEFF 		bl	I2C_Bus_MasterWriteByte
  49:.\RtcManager.c ****         //Hour
  50:.\RtcManager.c ****         I2C_Bus_MasterWriteByte((_g_rtc[index++] & 0b00111111));
 149              		.loc 1 50 0
 150 0056 FB79     		ldrb	r3, [r7, #7]	@ zero_extendqisi2
 151 0058 5A1C     		adds	r2, r3, #1
 152 005a FA71     		strb	r2, [r7, #7]
 153 005c 1A46     		mov	r2, r3
 154 005e 254B     		ldr	r3, .L11
 155 0060 9B5C     		ldrb	r3, [r3, r2]	@ zero_extendqisi2
 156 0062 03F03F03 		and	r3, r3, #63
 157 0066 DBB2     		uxtb	r3, r3
 158 0068 1846     		mov	r0, r3
 159 006a FFF7FEFF 		bl	I2C_Bus_MasterWriteByte
  51:.\RtcManager.c ****         //Day of Week
  52:.\RtcManager.c ****         I2C_Bus_MasterWriteByte(_g_rtc[index++] & 0x07);
 160              		.loc 1 52 0
 161 006e FB79     		ldrb	r3, [r7, #7]	@ zero_extendqisi2
 162 0070 5A1C     		adds	r2, r3, #1
 163 0072 FA71     		strb	r2, [r7, #7]
 164 0074 1A46     		mov	r2, r3
 165 0076 1F4B     		ldr	r3, .L11
 166 0078 9B5C     		ldrb	r3, [r3, r2]	@ zero_extendqisi2
 167 007a 03F00703 		and	r3, r3, #7
 168 007e DBB2     		uxtb	r3, r3
 169 0080 1846     		mov	r0, r3
 170 0082 FFF7FEFF 		bl	I2C_Bus_MasterWriteByte
  53:.\RtcManager.c ****         //Day
  54:.\RtcManager.c ****         I2C_Bus_MasterWriteByte(_g_rtc[index++] & 0x3F);
 171              		.loc 1 54 0
 172 0086 FB79     		ldrb	r3, [r7, #7]	@ zero_extendqisi2
 173 0088 5A1C     		adds	r2, r3, #1
 174 008a FA71     		strb	r2, [r7, #7]
ARM GAS  C:\Users\RECEPC~1\AppData\Local\Temp\ccpxJpee.s 			page 5


 175 008c 1A46     		mov	r2, r3
 176 008e 194B     		ldr	r3, .L11
 177 0090 9B5C     		ldrb	r3, [r3, r2]	@ zero_extendqisi2
 178 0092 03F03F03 		and	r3, r3, #63
 179 0096 DBB2     		uxtb	r3, r3
 180 0098 1846     		mov	r0, r3
 181 009a FFF7FEFF 		bl	I2C_Bus_MasterWriteByte
  55:.\RtcManager.c ****         //Month
  56:.\RtcManager.c ****         I2C_Bus_MasterWriteByte(_g_rtc[index++] & 0x1F);
 182              		.loc 1 56 0
 183 009e FB79     		ldrb	r3, [r7, #7]	@ zero_extendqisi2
 184 00a0 5A1C     		adds	r2, r3, #1
 185 00a2 FA71     		strb	r2, [r7, #7]
 186 00a4 1A46     		mov	r2, r3
 187 00a6 134B     		ldr	r3, .L11
 188 00a8 9B5C     		ldrb	r3, [r3, r2]	@ zero_extendqisi2
 189 00aa 03F01F03 		and	r3, r3, #31
 190 00ae DBB2     		uxtb	r3, r3
 191 00b0 1846     		mov	r0, r3
 192 00b2 FFF7FEFF 		bl	I2C_Bus_MasterWriteByte
  57:.\RtcManager.c ****         //Year
  58:.\RtcManager.c ****         I2C_Bus_MasterWriteByte(_g_rtc[index++] & 0xFF);
 193              		.loc 1 58 0
 194 00b6 FB79     		ldrb	r3, [r7, #7]	@ zero_extendqisi2
 195 00b8 5A1C     		adds	r2, r3, #1
 196 00ba FA71     		strb	r2, [r7, #7]
 197 00bc 1A46     		mov	r2, r3
 198 00be 0D4B     		ldr	r3, .L11
 199 00c0 9B5C     		ldrb	r3, [r3, r2]	@ zero_extendqisi2
 200 00c2 1846     		mov	r0, r3
 201 00c4 FFF7FEFF 		bl	I2C_Bus_MasterWriteByte
 202              	.L9:
  59:.\RtcManager.c **** 
  60:.\RtcManager.c ****     }
  61:.\RtcManager.c ****     I2C_Bus_MasterSendStop();
 203              		.loc 1 61 0
 204 00c8 FFF7FEFF 		bl	I2C_Bus_MasterSendStop
  62:.\RtcManager.c ****     
  63:.\RtcManager.c ****     //Turning on the RTC
  64:.\RtcManager.c ****     status = I2C_Bus_MasterSendStart(_RTC_I2C_SLAVE_ADDRESS_, I2C_Bus_WRITE_XFER_MODE);
 205              		.loc 1 64 0
 206 00cc 6820     		movs	r0, #104
 207 00ce 0021     		movs	r1, #0
 208 00d0 FFF7FEFF 		bl	I2C_Bus_MasterSendStart
 209 00d4 0346     		mov	r3, r0
 210 00d6 BB71     		strb	r3, [r7, #6]
  65:.\RtcManager.c ****     if(I2C_Bus_MSTR_NO_ERROR == status)
 211              		.loc 1 65 0
 212 00d8 BB79     		ldrb	r3, [r7, #6]	@ zero_extendqisi2
 213 00da 002B     		cmp	r3, #0
 214 00dc 07D1     		bne	.L8
  66:.\RtcManager.c ****     {
  67:.\RtcManager.c ****         I2C_Bus_MasterWriteByte(0x0E);
 215              		.loc 1 67 0
 216 00de 0E20     		movs	r0, #14
 217 00e0 FFF7FEFF 		bl	I2C_Bus_MasterWriteByte
  68:.\RtcManager.c ****         I2C_Bus_MasterWriteByte(0x04);
ARM GAS  C:\Users\RECEPC~1\AppData\Local\Temp\ccpxJpee.s 			page 6


 218              		.loc 1 68 0
 219 00e4 0420     		movs	r0, #4
 220 00e6 FFF7FEFF 		bl	I2C_Bus_MasterWriteByte
  69:.\RtcManager.c ****         I2C_Bus_MasterSendStop();
 221              		.loc 1 69 0
 222 00ea FFF7FEFF 		bl	I2C_Bus_MasterSendStop
 223              	.L8:
  70:.\RtcManager.c ****     }
  71:.\RtcManager.c **** }
 224              		.loc 1 71 0
 225 00ee 0837     		adds	r7, r7, #8
 226              		.cfi_def_cfa_offset 8
 227 00f0 BD46     		mov	sp, r7
 228              		.cfi_def_cfa_register 13
 229              		@ sp needed
 230 00f2 80BD     		pop	{r7, pc}
 231              	.L12:
 232              		.align	2
 233              	.L11:
 234 00f4 00000000 		.word	_g_rtc
 235              		.cfi_endproc
 236              	.LFE2:
 237              		.size	UpdateRTC, .-UpdateRTC
 238              		.section	.text.ReadRTC,"ax",%progbits
 239              		.align	2
 240              		.global	ReadRTC
 241              		.thumb
 242              		.thumb_func
 243              		.type	ReadRTC, %function
 244              	ReadRTC:
 245              	.LFB3:
  72:.\RtcManager.c **** 
  73:.\RtcManager.c **** //@Created By: HIJH
  74:.\RtcManager.c **** //@Septembre de 2016
  75:.\RtcManager.c **** void ReadRTC()
  76:.\RtcManager.c **** {
 246              		.loc 1 76 0
 247              		.cfi_startproc
 248              		@ args = 0, pretend = 0, frame = 8
 249              		@ frame_needed = 1, uses_anonymous_args = 0
 250 0000 90B5     		push	{r4, r7, lr}
 251              		.cfi_def_cfa_offset 12
 252              		.cfi_offset 4, -12
 253              		.cfi_offset 7, -8
 254              		.cfi_offset 14, -4
 255 0002 83B0     		sub	sp, sp, #12
 256              		.cfi_def_cfa_offset 24
 257 0004 00AF     		add	r7, sp, #0
 258              		.cfi_def_cfa_register 7
  77:.\RtcManager.c ****     I2C_Bus_MasterClearStatus();
 259              		.loc 1 77 0
 260 0006 FFF7FEFF 		bl	I2C_Bus_MasterClearStatus
  78:.\RtcManager.c ****     uint16 status = I2C_Bus_MasterSendStart(_RTC_I2C_SLAVE_ADDRESS_, I2C_Bus_WRITE_XFER_MODE);
 261              		.loc 1 78 0
 262 000a 6820     		movs	r0, #104
 263 000c 0021     		movs	r1, #0
 264 000e FFF7FEFF 		bl	I2C_Bus_MasterSendStart
ARM GAS  C:\Users\RECEPC~1\AppData\Local\Temp\ccpxJpee.s 			page 7


 265 0012 0346     		mov	r3, r0
 266 0014 BB80     		strh	r3, [r7, #4]	@ movhi
  79:.\RtcManager.c ****     if(I2C_Bus_MSTR_NO_ERROR == status)
 267              		.loc 1 79 0
 268 0016 BB88     		ldrh	r3, [r7, #4]
 269 0018 002B     		cmp	r3, #0
 270 001a 02D1     		bne	.L14
  80:.\RtcManager.c ****         I2C_Bus_MasterWriteByte(CTRL_REG1);
 271              		.loc 1 80 0
 272 001c 0020     		movs	r0, #0
 273 001e FFF7FEFF 		bl	I2C_Bus_MasterWriteByte
 274              	.L14:
  81:.\RtcManager.c **** 
  82:.\RtcManager.c ****     I2C_Bus_MasterSendStop();
 275              		.loc 1 82 0
 276 0022 FFF7FEFF 		bl	I2C_Bus_MasterSendStop
  83:.\RtcManager.c ****         
  84:.\RtcManager.c ****     I2C_Bus_MasterClearStatus();
 277              		.loc 1 84 0
 278 0026 FFF7FEFF 		bl	I2C_Bus_MasterClearStatus
  85:.\RtcManager.c ****     status = I2C_Bus_MasterSendStart(_RTC_I2C_SLAVE_ADDRESS_, I2C_Bus_READ_XFER_MODE);
 279              		.loc 1 85 0
 280 002a 6820     		movs	r0, #104
 281 002c 0121     		movs	r1, #1
 282 002e FFF7FEFF 		bl	I2C_Bus_MasterSendStart
 283 0032 0346     		mov	r3, r0
 284 0034 BB80     		strh	r3, [r7, #4]	@ movhi
  86:.\RtcManager.c ****     if(I2C_Bus_MSTR_NO_ERROR == status)
 285              		.loc 1 86 0
 286 0036 BB88     		ldrh	r3, [r7, #4]
 287 0038 002B     		cmp	r3, #0
 288 003a 1CD1     		bne	.L15
 289              	.LBB2:
  87:.\RtcManager.c ****     {
  88:.\RtcManager.c ****         //Reading 7 bytes from the RTC starting at the CTRL_REG1 register address
  89:.\RtcManager.c ****         FOR(uint8 index = 0, index < 7, index++)
 290              		.loc 1 89 0
 291 003c 0023     		movs	r3, #0
 292 003e FB71     		strb	r3, [r7, #7]
 293 0040 16E0     		b	.L16
 294              	.L19:
  90:.\RtcManager.c ****         {
  91:.\RtcManager.c ****             if(index < 6)
 295              		.loc 1 91 0
 296 0042 FB79     		ldrb	r3, [r7, #7]	@ zero_extendqisi2
 297 0044 052B     		cmp	r3, #5
 298 0046 08D8     		bhi	.L17
  92:.\RtcManager.c ****                 _g_rtc[index] = I2C_Bus_MasterReadByte(I2C_Bus_ACK_DATA);
 299              		.loc 1 92 0
 300 0048 FC79     		ldrb	r4, [r7, #7]	@ zero_extendqisi2
 301 004a 0120     		movs	r0, #1
 302 004c FFF7FEFF 		bl	I2C_Bus_MasterReadByte
 303 0050 0346     		mov	r3, r0
 304 0052 1A46     		mov	r2, r3
 305 0054 0A4B     		ldr	r3, .L20
 306 0056 1A55     		strb	r2, [r3, r4]
 307 0058 07E0     		b	.L18
ARM GAS  C:\Users\RECEPC~1\AppData\Local\Temp\ccpxJpee.s 			page 8


 308              	.L17:
  93:.\RtcManager.c ****             else
  94:.\RtcManager.c ****                 _g_rtc[index] = I2C_Bus_MasterReadByte(I2C_Bus_NAK_DATA);
 309              		.loc 1 94 0
 310 005a FC79     		ldrb	r4, [r7, #7]	@ zero_extendqisi2
 311 005c 0020     		movs	r0, #0
 312 005e FFF7FEFF 		bl	I2C_Bus_MasterReadByte
 313 0062 0346     		mov	r3, r0
 314 0064 1A46     		mov	r2, r3
 315 0066 064B     		ldr	r3, .L20
 316 0068 1A55     		strb	r2, [r3, r4]
 317              	.L18:
  89:.\RtcManager.c ****         {
 318              		.loc 1 89 0 discriminator 2
 319 006a FB79     		ldrb	r3, [r7, #7]	@ zero_extendqisi2
 320 006c 0133     		adds	r3, r3, #1
 321 006e FB71     		strb	r3, [r7, #7]
 322              	.L16:
  89:.\RtcManager.c ****         {
 323              		.loc 1 89 0 is_stmt 0 discriminator 1
 324 0070 FB79     		ldrb	r3, [r7, #7]	@ zero_extendqisi2
 325 0072 062B     		cmp	r3, #6
 326 0074 E5D9     		bls	.L19
 327              	.L15:
 328              	.LBE2:
  95:.\RtcManager.c ****                 
  96:.\RtcManager.c ****         }
  97:.\RtcManager.c ****     }
  98:.\RtcManager.c ****     I2C_Bus_MasterSendStop();
 329              		.loc 1 98 0 is_stmt 1
 330 0076 FFF7FEFF 		bl	I2C_Bus_MasterSendStop
  99:.\RtcManager.c **** }
 331              		.loc 1 99 0
 332 007a 0C37     		adds	r7, r7, #12
 333              		.cfi_def_cfa_offset 12
 334 007c BD46     		mov	sp, r7
 335              		.cfi_def_cfa_register 13
 336              		@ sp needed
 337 007e 90BD     		pop	{r4, r7, pc}
 338              	.L21:
 339              		.align	2
 340              	.L20:
 341 0080 00000000 		.word	_g_rtc
 342              		.cfi_endproc
 343              	.LFE3:
 344              		.size	ReadRTC, .-ReadRTC
 345              		.section	.text.StartRtc,"ax",%progbits
 346              		.align	2
 347              		.global	StartRtc
 348              		.thumb
 349              		.thumb_func
 350              		.type	StartRtc, %function
 351              	StartRtc:
 352              	.LFB4:
 100:.\RtcManager.c **** 
 101:.\RtcManager.c **** void StartRtc()
 102:.\RtcManager.c **** {
ARM GAS  C:\Users\RECEPC~1\AppData\Local\Temp\ccpxJpee.s 			page 9


 353              		.loc 1 102 0
 354              		.cfi_startproc
 355              		@ args = 0, pretend = 0, frame = 8
 356              		@ frame_needed = 1, uses_anonymous_args = 0
 357 0000 80B5     		push	{r7, lr}
 358              		.cfi_def_cfa_offset 8
 359              		.cfi_offset 7, -8
 360              		.cfi_offset 14, -4
 361 0002 82B0     		sub	sp, sp, #8
 362              		.cfi_def_cfa_offset 16
 363 0004 00AF     		add	r7, sp, #0
 364              		.cfi_def_cfa_register 7
 103:.\RtcManager.c ****     //Turning on the RTC
 104:.\RtcManager.c ****     uint8 status = I2C_Bus_MasterSendStart(_RTC_I2C_SLAVE_ADDRESS_, I2C_Bus_WRITE_XFER_MODE);
 365              		.loc 1 104 0
 366 0006 6820     		movs	r0, #104
 367 0008 0021     		movs	r1, #0
 368 000a FFF7FEFF 		bl	I2C_Bus_MasterSendStart
 369 000e 0346     		mov	r3, r0
 370 0010 FB71     		strb	r3, [r7, #7]
 105:.\RtcManager.c ****     if(I2C_Bus_MSTR_NO_ERROR == status)
 371              		.loc 1 105 0
 372 0012 FB79     		ldrb	r3, [r7, #7]	@ zero_extendqisi2
 373 0014 002B     		cmp	r3, #0
 374 0016 07D1     		bne	.L22
 106:.\RtcManager.c ****     {
 107:.\RtcManager.c ****         I2C_Bus_MasterWriteByte(0x0E);
 375              		.loc 1 107 0
 376 0018 0E20     		movs	r0, #14
 377 001a FFF7FEFF 		bl	I2C_Bus_MasterWriteByte
 108:.\RtcManager.c ****         I2C_Bus_MasterWriteByte(0x04);
 378              		.loc 1 108 0
 379 001e 0420     		movs	r0, #4
 380 0020 FFF7FEFF 		bl	I2C_Bus_MasterWriteByte
 109:.\RtcManager.c ****         I2C_Bus_MasterSendStop();
 381              		.loc 1 109 0
 382 0024 FFF7FEFF 		bl	I2C_Bus_MasterSendStop
 383              	.L22:
 110:.\RtcManager.c ****     }
 111:.\RtcManager.c **** }
 384              		.loc 1 111 0
 385 0028 0837     		adds	r7, r7, #8
 386              		.cfi_def_cfa_offset 8
 387 002a BD46     		mov	sp, r7
 388              		.cfi_def_cfa_register 13
 389              		@ sp needed
 390 002c 80BD     		pop	{r7, pc}
 391              		.cfi_endproc
 392              	.LFE4:
 393              		.size	StartRtc, .-StartRtc
 394 002e 00BF     		.text
 395              	.Letext0:
 396              		.file 2 "Generated_Source\\PSoC5/cytypes.h"
 397              		.file 3 ".\\GlobalDefinitions.h"
 398              		.file 4 ".\\Rtc.h"