ARM GAS  C:\Users\Lenovo\AppData\Local\Temp\ccQob1qP.s 			page 1


   1              		.syntax unified
   2              		.cpu cortex-m3
   3              		.fpu softvfp
   4              		.eabi_attribute 20, 1
   5              		.eabi_attribute 21, 1
   6              		.eabi_attribute 23, 3
   7              		.eabi_attribute 24, 1
   8              		.eabi_attribute 25, 1
   9              		.eabi_attribute 26, 1
  10              		.eabi_attribute 30, 6
  11              		.eabi_attribute 34, 1
  12              		.eabi_attribute 18, 4
  13              		.thumb
  14              		.file	"Security.c"
  15              		.text
  16              	.Ltext0:
  17              		.cfi_sections	.debug_frame
  18              		.comm	HoseDispenser,1,1
  19              		.section	.text.StartSecurityLayer,"ax",%progbits
  20              		.align	2
  21              		.global	StartSecurityLayer
  22              		.thumb
  23              		.thumb_func
  24              		.type	StartSecurityLayer, %function
  25              	StartSecurityLayer:
  26              	.LFB63:
  27              		.file 1 ".\\Security.c"
   1:.\Security.c  **** /* ========================================
   2:.\Security.c  ****  *
   3:.\Security.c  ****  * Copyright INSEPET SISTEMAS, 2016
   4:.\Security.c  ****  * All Rights Reserved
   5:.\Security.c  ****  * UNPUBLISHED, LICENSED SOFTWARE.
   6:.\Security.c  ****  *
   7:.\Security.c  ****  * CONFIDENTIAL AND PROPRIETARY INFORMATION
   8:.\Security.c  ****  * WHICH IS THE PROPERTY OF your company.
   9:.\Security.c  ****  *
  10:.\Security.c  ****  * ========================================
  11:.\Security.c  **** @Created by: HIJH
  12:.\Security.c  **** @Date: Septembre 2 de 2016
  13:.\Security.c  **** */
  14:.\Security.c  **** 
  15:.\Security.c  **** #include <project.h>
  16:.\Security.c  **** #include "GlobalDefinitions.h"
  17:.\Security.c  **** 
  18:.\Security.c  **** void ClockCRC();
  19:.\Security.c  **** 
  20:.\Security.c  **** //@Created By: HIJH
  21:.\Security.c  **** //@Septembre de 2016
  22:.\Security.c  **** void StartSecurityLayer()
  23:.\Security.c  **** {
  28              		.loc 1 23 0
  29              		.cfi_startproc
  30              		@ args = 0, pretend = 0, frame = 0
  31              		@ frame_needed = 1, uses_anonymous_args = 0
  32 0000 80B5     		push	{r7, lr}
  33              		.cfi_def_cfa_offset 8
  34              		.cfi_offset 7, -8
ARM GAS  C:\Users\Lenovo\AppData\Local\Temp\ccQob1qP.s 			page 2


  35              		.cfi_offset 14, -4
  36 0002 00AF     		add	r7, sp, #0
  37              		.cfi_def_cfa_register 7
  24:.\Security.c  ****     //ShiftReg_Scramble_Start();
  25:.\Security.c  ****     ShiftReg_Security_Start();
  38              		.loc 1 25 0
  39 0004 FFF7FEFF 		bl	ShiftReg_Security_Start
  26:.\Security.c  ****     CRC_Security_Start();
  40              		.loc 1 26 0
  41 0008 FFF7FEFF 		bl	CRC_Security_Start
  27:.\Security.c  **** }
  42              		.loc 1 27 0
  43 000c 80BD     		pop	{r7, pc}
  44              		.cfi_endproc
  45              	.LFE63:
  46              		.size	StartSecurityLayer, .-StartSecurityLayer
  47 000e 00BF     		.section	.text.ClockCRC,"ax",%progbits
  48              		.align	2
  49              		.global	ClockCRC
  50              		.thumb
  51              		.thumb_func
  52              		.type	ClockCRC, %function
  53              	ClockCRC:
  54              	.LFB64:
  28:.\Security.c  **** 
  29:.\Security.c  **** //*******************************************************************************************
  30:.\Security.c  **** //@Created by: HIJH
  31:.\Security.c  **** //@Septembre 1 de 2016
  32:.\Security.c  **** //@Comments: RESERVED FOR FUTURE USE
  33:.\Security.c  **** //This set of numbers have been discretionarily but carefully chosen for the Scramble/Unscramble pr
  34:.\Security.c  **** //This procedure has the purpose of giving some sort of encryption OTA.
  35:.\Security.c  **** //uint8 _primenumberset[] = { 0x0b, 0x07, 0x11, 0x17, 0x03 };
  36:.\Security.c  **** //*******************************************************************************************
  37:.\Security.c  **** 
  38:.\Security.c  **** void ClockCRC()
  39:.\Security.c  **** {
  55              		.loc 1 39 0
  56              		.cfi_startproc
  57              		@ args = 0, pretend = 0, frame = 0
  58              		@ frame_needed = 1, uses_anonymous_args = 0
  59 0000 80B5     		push	{r7, lr}
  60              		.cfi_def_cfa_offset 8
  61              		.cfi_offset 7, -8
  62              		.cfi_offset 14, -4
  63 0002 00AF     		add	r7, sp, #0
  64              		.cfi_def_cfa_register 7
  40:.\Security.c  ****     Clock_CRC_Write(1u);
  65              		.loc 1 40 0
  66 0004 0120     		movs	r0, #1
  67 0006 FFF7FEFF 		bl	Clock_CRC_Write
  41:.\Security.c  ****     CyDelay(1u);
  68              		.loc 1 41 0
  69 000a 0120     		movs	r0, #1
  70 000c FFF7FEFF 		bl	CyDelay
  42:.\Security.c  ****     Clock_CRC_Write(0u);
  71              		.loc 1 42 0
  72 0010 0020     		movs	r0, #0
ARM GAS  C:\Users\Lenovo\AppData\Local\Temp\ccQob1qP.s 			page 3


  73 0012 FFF7FEFF 		bl	Clock_CRC_Write
  43:.\Security.c  ****     CyDelay(1u);
  74              		.loc 1 43 0
  75 0016 0120     		movs	r0, #1
  76 0018 FFF7FEFF 		bl	CyDelay
  44:.\Security.c  **** }
  77              		.loc 1 44 0
  78 001c 80BD     		pop	{r7, pc}
  79              		.cfi_endproc
  80              	.LFE64:
  81              		.size	ClockCRC, .-ClockCRC
  82 001e 00BF     		.section	.text.CalcCRC,"ax",%progbits
  83              		.align	2
  84              		.global	CalcCRC
  85              		.thumb
  86              		.thumb_func
  87              		.type	CalcCRC, %function
  88              	CalcCRC:
  89              	.LFB65:
  45:.\Security.c  **** 
  46:.\Security.c  **** //@Created By: HIJH
  47:.\Security.c  **** //@Septembre de 2016
  48:.\Security.c  **** char8 CalcCRC(char8 *pbuffer, uint8 buffersize)
  49:.\Security.c  **** {
  90              		.loc 1 49 0
  91              		.cfi_startproc
  92              		@ args = 0, pretend = 0, frame = 16
  93              		@ frame_needed = 1, uses_anonymous_args = 0
  94 0000 80B5     		push	{r7, lr}
  95              		.cfi_def_cfa_offset 8
  96              		.cfi_offset 7, -8
  97              		.cfi_offset 14, -4
  98 0002 84B0     		sub	sp, sp, #16
  99              		.cfi_def_cfa_offset 24
 100 0004 00AF     		add	r7, sp, #0
 101              		.cfi_def_cfa_register 7
 102 0006 7860     		str	r0, [r7, #4]
 103 0008 0B46     		mov	r3, r1
 104 000a FB70     		strb	r3, [r7, #3]
  50:.\Security.c  ****     uint8 index = 0;
 105              		.loc 1 50 0
 106 000c 0023     		movs	r3, #0
 107 000e FB73     		strb	r3, [r7, #15]
  51:.\Security.c  ****     uint8 byteindex = 0;
 108              		.loc 1 51 0
 109 0010 0023     		movs	r3, #0
 110 0012 BB73     		strb	r3, [r7, #14]
  52:.\Security.c  ****     char8 retval = 0x00;
 111              		.loc 1 52 0
 112 0014 0023     		movs	r3, #0
 113 0016 7B73     		strb	r3, [r7, #13]
  53:.\Security.c  ****     
  54:.\Security.c  ****     Reset_CRC_Write(1u);
 114              		.loc 1 54 0
 115 0018 0120     		movs	r0, #1
 116 001a FFF7FEFF 		bl	Reset_CRC_Write
  55:.\Security.c  ****     CyDelay(1u);
ARM GAS  C:\Users\Lenovo\AppData\Local\Temp\ccQob1qP.s 			page 4


 117              		.loc 1 55 0
 118 001e 0120     		movs	r0, #1
 119 0020 FFF7FEFF 		bl	CyDelay
  56:.\Security.c  ****     ClockCRC();
 120              		.loc 1 56 0
 121 0024 FFF7FEFF 		bl	ClockCRC
  57:.\Security.c  ****     Reset_CRC_Write(0u);
 122              		.loc 1 57 0
 123 0028 0020     		movs	r0, #0
 124 002a FFF7FEFF 		bl	Reset_CRC_Write
  58:.\Security.c  ****     for(;index < buffersize; index++)
 125              		.loc 1 58 0
 126 002e 12E0     		b	.L4
 127              	.L7:
  59:.\Security.c  ****     {
  60:.\Security.c  ****         ShiftReg_Security_WriteRegValue(pbuffer[index]);
 128              		.loc 1 60 0
 129 0030 FB7B     		ldrb	r3, [r7, #15]	@ zero_extendqisi2
 130 0032 7A68     		ldr	r2, [r7, #4]
 131 0034 1344     		add	r3, r3, r2
 132 0036 1B78     		ldrb	r3, [r3]	@ zero_extendqisi2
 133 0038 1846     		mov	r0, r3
 134 003a FFF7FEFF 		bl	ShiftReg_Security_WriteRegValue
  61:.\Security.c  ****         //Shifting current byte bits from the Shift Register 
  62:.\Security.c  ****         //into the CRC UDB to apply the polynomial
  63:.\Security.c  ****         //This should count from 0 to 7 (meaning 8 bits = byte)
  64:.\Security.c  ****         for(; byteindex < 8; byteindex++)
 135              		.loc 1 64 0
 136 003e 04E0     		b	.L5
 137              	.L6:
  65:.\Security.c  ****             ClockCRC();
 138              		.loc 1 65 0 discriminator 2
 139 0040 FFF7FEFF 		bl	ClockCRC
  64:.\Security.c  ****             ClockCRC();
 140              		.loc 1 64 0 discriminator 2
 141 0044 BB7B     		ldrb	r3, [r7, #14]	@ zero_extendqisi2
 142 0046 0133     		adds	r3, r3, #1
 143 0048 BB73     		strb	r3, [r7, #14]
 144              	.L5:
  64:.\Security.c  ****             ClockCRC();
 145              		.loc 1 64 0 is_stmt 0 discriminator 1
 146 004a BB7B     		ldrb	r3, [r7, #14]	@ zero_extendqisi2
 147 004c 072B     		cmp	r3, #7
 148 004e F7D9     		bls	.L6
  58:.\Security.c  ****     {
 149              		.loc 1 58 0 is_stmt 1
 150 0050 FB7B     		ldrb	r3, [r7, #15]	@ zero_extendqisi2
 151 0052 0133     		adds	r3, r3, #1
 152 0054 FB73     		strb	r3, [r7, #15]
 153              	.L4:
  58:.\Security.c  ****     {
 154              		.loc 1 58 0 is_stmt 0 discriminator 1
 155 0056 FA7B     		ldrb	r2, [r7, #15]	@ zero_extendqisi2
 156 0058 FB78     		ldrb	r3, [r7, #3]	@ zero_extendqisi2
 157 005a 9A42     		cmp	r2, r3
 158 005c E8D3     		bcc	.L7
  66:.\Security.c  **** 
ARM GAS  C:\Users\Lenovo\AppData\Local\Temp\ccQob1qP.s 			page 5


  67:.\Security.c  ****     }
  68:.\Security.c  ****     retval = CRC_Security_ReadCRC();
 159              		.loc 1 68 0 is_stmt 1
 160 005e FFF7FEFF 		bl	CRC_Security_ReadCRC
 161 0062 0346     		mov	r3, r0
 162 0064 7B73     		strb	r3, [r7, #13]
  69:.\Security.c  ****     
  70:.\Security.c  ****     return retval;
 163              		.loc 1 70 0
 164 0066 7B7B     		ldrb	r3, [r7, #13]	@ zero_extendqisi2
  71:.\Security.c  **** }
 165              		.loc 1 71 0
 166 0068 1846     		mov	r0, r3
 167 006a 1037     		adds	r7, r7, #16
 168              		.cfi_def_cfa_offset 8
 169 006c BD46     		mov	sp, r7
 170              		.cfi_def_cfa_register 13
 171              		@ sp needed
 172 006e 80BD     		pop	{r7, pc}
 173              		.cfi_endproc
 174              	.LFE65:
 175              		.size	CalcCRC, .-CalcCRC
 176              		.section	.text.CRCCheck,"ax",%progbits
 177              		.align	2
 178              		.global	CRCCheck
 179              		.thumb
 180              		.thumb_func
 181              		.type	CRCCheck, %function
 182              	CRCCheck:
 183              	.LFB66:
  72:.\Security.c  **** 
  73:.\Security.c  **** uint8 CRCCheck(char8 crcseed, uint8 data)
  74:.\Security.c  **** {
 184              		.loc 1 74 0
 185              		.cfi_startproc
 186              		@ args = 0, pretend = 0, frame = 16
 187              		@ frame_needed = 1, uses_anonymous_args = 0
 188              		@ link register save eliminated.
 189 0000 80B4     		push	{r7}
 190              		.cfi_def_cfa_offset 4
 191              		.cfi_offset 7, -4
 192 0002 85B0     		sub	sp, sp, #20
 193              		.cfi_def_cfa_offset 24
 194 0004 00AF     		add	r7, sp, #0
 195              		.cfi_def_cfa_register 7
 196 0006 0346     		mov	r3, r0
 197 0008 0A46     		mov	r2, r1
 198 000a FB71     		strb	r3, [r7, #7]
 199 000c 1346     		mov	r3, r2
 200 000e BB71     		strb	r3, [r7, #6]
  75:.\Security.c  ****     uint8 i;
  76:.\Security.c  ****     crcseed = crcseed ^ data;
 201              		.loc 1 76 0
 202 0010 FA79     		ldrb	r2, [r7, #7]
 203 0012 BB79     		ldrb	r3, [r7, #6]
 204 0014 5340     		eors	r3, r3, r2
 205 0016 FB71     		strb	r3, [r7, #7]
ARM GAS  C:\Users\Lenovo\AppData\Local\Temp\ccQob1qP.s 			page 6


  77:.\Security.c  ****     for (i = 0; i < 8; i++)
 206              		.loc 1 77 0
 207 0018 0023     		movs	r3, #0
 208 001a FB73     		strb	r3, [r7, #15]
 209 001c 12E0     		b	.L10
 210              	.L13:
  78:.\Security.c  ****     {
  79:.\Security.c  ****         if (crcseed & 0x01){
 211              		.loc 1 79 0
 212 001e FB79     		ldrb	r3, [r7, #7]	@ zero_extendqisi2
 213 0020 03F00103 		and	r3, r3, #1
 214 0024 002B     		cmp	r3, #0
 215 0026 07D0     		beq	.L11
  80:.\Security.c  ****             crcseed = (crcseed >> 1) ^ 0x8C;
 216              		.loc 1 80 0
 217 0028 FB79     		ldrb	r3, [r7, #7]	@ zero_extendqisi2
 218 002a 5B08     		lsrs	r3, r3, #1
 219 002c DBB2     		uxtb	r3, r3
 220 002e 83F07303 		eor	r3, r3, #115
 221 0032 DB43     		mvns	r3, r3
 222 0034 FB71     		strb	r3, [r7, #7]
 223 0036 02E0     		b	.L12
 224              	.L11:
  81:.\Security.c  **** 		}	
  82:.\Security.c  ****         else{
  83:.\Security.c  ****             crcseed >>= 1;
 225              		.loc 1 83 0
 226 0038 FB79     		ldrb	r3, [r7, #7]	@ zero_extendqisi2
 227 003a 5B08     		lsrs	r3, r3, #1
 228 003c FB71     		strb	r3, [r7, #7]
 229              	.L12:
  77:.\Security.c  ****     {
 230              		.loc 1 77 0 discriminator 2
 231 003e FB7B     		ldrb	r3, [r7, #15]	@ zero_extendqisi2
 232 0040 0133     		adds	r3, r3, #1
 233 0042 FB73     		strb	r3, [r7, #15]
 234              	.L10:
  77:.\Security.c  ****     {
 235              		.loc 1 77 0 is_stmt 0 discriminator 1
 236 0044 FB7B     		ldrb	r3, [r7, #15]	@ zero_extendqisi2
 237 0046 072B     		cmp	r3, #7
 238 0048 E9D9     		bls	.L13
  84:.\Security.c  **** 		}	
  85:.\Security.c  ****     }
  86:.\Security.c  ****     return crcseed;
 239              		.loc 1 86 0 is_stmt 1
 240 004a FB79     		ldrb	r3, [r7, #7]	@ zero_extendqisi2
  87:.\Security.c  **** }
 241              		.loc 1 87 0
 242 004c 1846     		mov	r0, r3
 243 004e 1437     		adds	r7, r7, #20
 244              		.cfi_def_cfa_offset 4
 245 0050 BD46     		mov	sp, r7
 246              		.cfi_def_cfa_register 13
 247              		@ sp needed
 248 0052 5DF8047B 		ldr	r7, [sp], #4
 249              		.cfi_restore 7
ARM GAS  C:\Users\Lenovo\AppData\Local\Temp\ccQob1qP.s 			page 7


 250              		.cfi_def_cfa_offset 0
 251 0056 7047     		bx	lr
 252              		.cfi_endproc
 253              	.LFE66:
 254              		.size	CRCCheck, .-CRCCheck
 255              		.section	.text.RawCRCCheck,"ax",%progbits
 256              		.align	2
 257              		.global	RawCRCCheck
 258              		.thumb
 259              		.thumb_func
 260              		.type	RawCRCCheck, %function
 261              	RawCRCCheck:
 262              	.LFB67:
  88:.\Security.c  **** 
  89:.\Security.c  **** //@Created By: HIJH
  90:.\Security.c  **** //@Septembre de 2016
  91:.\Security.c  **** uint8 RawCRCCheck(char8 *pdata, uint16 buffersize)
  92:.\Security.c  **** {
 263              		.loc 1 92 0
 264              		.cfi_startproc
 265              		@ args = 0, pretend = 0, frame = 16
 266              		@ frame_needed = 1, uses_anonymous_args = 0
 267 0000 80B5     		push	{r7, lr}
 268              		.cfi_def_cfa_offset 8
 269              		.cfi_offset 7, -8
 270              		.cfi_offset 14, -4
 271 0002 84B0     		sub	sp, sp, #16
 272              		.cfi_def_cfa_offset 24
 273 0004 00AF     		add	r7, sp, #0
 274              		.cfi_def_cfa_register 7
 275 0006 7860     		str	r0, [r7, #4]
 276 0008 0B46     		mov	r3, r1
 277 000a 7B80     		strh	r3, [r7, #2]	@ movhi
  93:.\Security.c  ****     uint8 crcseed = 0x00;
 278              		.loc 1 93 0
 279 000c 0023     		movs	r3, #0
 280 000e FB73     		strb	r3, [r7, #15]
  94:.\Security.c  ****     FOR(uint16 index = 0, index < buffersize, index++)
 281              		.loc 1 94 0
 282 0010 0023     		movs	r3, #0
 283 0012 BB81     		strh	r3, [r7, #12]	@ movhi
 284 0014 0DE0     		b	.L16
 285              	.L17:
  95:.\Security.c  ****         crcseed = CRCCheck(crcseed, pdata[index]);
 286              		.loc 1 95 0 discriminator 3
 287 0016 BB89     		ldrh	r3, [r7, #12]
 288 0018 7A68     		ldr	r2, [r7, #4]
 289 001a 1344     		add	r3, r3, r2
 290 001c 1B78     		ldrb	r3, [r3]	@ zero_extendqisi2
 291 001e FA7B     		ldrb	r2, [r7, #15]	@ zero_extendqisi2
 292 0020 1046     		mov	r0, r2
 293 0022 1946     		mov	r1, r3
 294 0024 FFF7FEFF 		bl	CRCCheck
 295 0028 0346     		mov	r3, r0
 296 002a FB73     		strb	r3, [r7, #15]
  94:.\Security.c  ****     FOR(uint16 index = 0, index < buffersize, index++)
 297              		.loc 1 94 0 discriminator 3
ARM GAS  C:\Users\Lenovo\AppData\Local\Temp\ccQob1qP.s 			page 8


 298 002c BB89     		ldrh	r3, [r7, #12]
 299 002e 0133     		adds	r3, r3, #1
 300 0030 BB81     		strh	r3, [r7, #12]	@ movhi
 301              	.L16:
  94:.\Security.c  ****     FOR(uint16 index = 0, index < buffersize, index++)
 302              		.loc 1 94 0 is_stmt 0 discriminator 1
 303 0032 BA89     		ldrh	r2, [r7, #12]
 304 0034 7B88     		ldrh	r3, [r7, #2]
 305 0036 9A42     		cmp	r2, r3
 306 0038 EDD3     		bcc	.L17
  96:.\Security.c  ****         
  97:.\Security.c  ****     return crcseed;
 307              		.loc 1 97 0 is_stmt 1
 308 003a FB7B     		ldrb	r3, [r7, #15]	@ zero_extendqisi2
  98:.\Security.c  **** }
 309              		.loc 1 98 0
 310 003c 1846     		mov	r0, r3
 311 003e 1037     		adds	r7, r7, #16
 312              		.cfi_def_cfa_offset 8
 313 0040 BD46     		mov	sp, r7
 314              		.cfi_def_cfa_register 13
 315              		@ sp needed
 316 0042 80BD     		pop	{r7, pc}
 317              		.cfi_endproc
 318              	.LFE67:
 319              		.size	RawCRCCheck, .-RawCRCCheck
 320              		.text
 321              	.Letext0:
 322              		.file 2 "c:\\program files (x86)\\cypress\\psoc creator\\3.3\\psoc creator\\import\\gnu\\arm\\4.9.
 323              		.file 3 "c:\\program files (x86)\\cypress\\psoc creator\\3.3\\psoc creator\\import\\gnu\\arm\\4.9.
 324              		.file 4 "Generated_Source\\PSoC5/cytypes.h"
 325              		.file 5 "Generated_Source\\PSoC5/core_cm3.h"
 326              		.file 6 ".\\GlobalDefinitions.h"