ARM GAS  C:\Users\RECEPC~1\AppData\Local\Temp\ccJ7VxCK.s 			page 1


   1              		.syntax unified
   2              		.cpu cortex-m3
   3              		.fpu softvfp
   4              		.eabi_attribute 20, 1
   5              		.eabi_attribute 21, 1
   6              		.eabi_attribute 23, 3
   7              		.eabi_attribute 24, 1
   8              		.eabi_attribute 25, 1
   9              		.eabi_attribute 26, 1
  10              		.eabi_attribute 30, 6
  11              		.eabi_attribute 34, 1
  12              		.eabi_attribute 18, 4
  13              		.thumb
  14              		.file	"ShiftReg_Security.c"
  15              		.text
  16              	.Ltext0:
  17              		.cfi_sections	.debug_frame
  18              		.global	ShiftReg_Security_initVar
  19              		.bss
  20              		.type	ShiftReg_Security_initVar, %object
  21              		.size	ShiftReg_Security_initVar, 1
  22              	ShiftReg_Security_initVar:
  23 0000 00       		.space	1
  24              		.section	.text.ShiftReg_Security_Start,"ax",%progbits
  25              		.align	2
  26              		.global	ShiftReg_Security_Start
  27              		.thumb
  28              		.thumb_func
  29              		.type	ShiftReg_Security_Start, %function
  30              	ShiftReg_Security_Start:
  31              	.LFB0:
  32              		.file 1 ".\\Generated_Source\\PSoC5\\ShiftReg_Security.c"
   1:.\Generated_Source\PSoC5/ShiftReg_Security.c **** /*******************************************************************************
   2:.\Generated_Source\PSoC5/ShiftReg_Security.c **** * File Name: ShiftReg_Security.c
   3:.\Generated_Source\PSoC5/ShiftReg_Security.c **** * Version 2.30
   4:.\Generated_Source\PSoC5/ShiftReg_Security.c **** *
   5:.\Generated_Source\PSoC5/ShiftReg_Security.c **** * Description:
   6:.\Generated_Source\PSoC5/ShiftReg_Security.c **** *  This file provides the API source code for the Shift Register component.
   7:.\Generated_Source\PSoC5/ShiftReg_Security.c **** *
   8:.\Generated_Source\PSoC5/ShiftReg_Security.c **** * Note: none
   9:.\Generated_Source\PSoC5/ShiftReg_Security.c **** *
  10:.\Generated_Source\PSoC5/ShiftReg_Security.c **** ********************************************************************************
  11:.\Generated_Source\PSoC5/ShiftReg_Security.c **** * Copyright 2008-2013, Cypress Semiconductor Corporation.  All rights reserved.
  12:.\Generated_Source\PSoC5/ShiftReg_Security.c **** * You may use this file only in accordance with the license, terms, conditions,
  13:.\Generated_Source\PSoC5/ShiftReg_Security.c **** * disclaimers, and limitations in the end user license agreement accompanying
  14:.\Generated_Source\PSoC5/ShiftReg_Security.c **** * the software package with which this file was provided.
  15:.\Generated_Source\PSoC5/ShiftReg_Security.c **** ********************************************************************************/
  16:.\Generated_Source\PSoC5/ShiftReg_Security.c **** 
  17:.\Generated_Source\PSoC5/ShiftReg_Security.c **** #include "ShiftReg_Security.h"
  18:.\Generated_Source\PSoC5/ShiftReg_Security.c **** 
  19:.\Generated_Source\PSoC5/ShiftReg_Security.c **** uint8 ShiftReg_Security_initVar = 0u;
  20:.\Generated_Source\PSoC5/ShiftReg_Security.c **** 
  21:.\Generated_Source\PSoC5/ShiftReg_Security.c **** 
  22:.\Generated_Source\PSoC5/ShiftReg_Security.c **** /*******************************************************************************
  23:.\Generated_Source\PSoC5/ShiftReg_Security.c **** * Function Name: ShiftReg_Security_Start
  24:.\Generated_Source\PSoC5/ShiftReg_Security.c **** ********************************************************************************
  25:.\Generated_Source\PSoC5/ShiftReg_Security.c **** *
ARM GAS  C:\Users\RECEPC~1\AppData\Local\Temp\ccJ7VxCK.s 			page 2


  26:.\Generated_Source\PSoC5/ShiftReg_Security.c **** * Summary:
  27:.\Generated_Source\PSoC5/ShiftReg_Security.c **** *  Starts the Shift Register.
  28:.\Generated_Source\PSoC5/ShiftReg_Security.c **** *
  29:.\Generated_Source\PSoC5/ShiftReg_Security.c **** * Parameters:
  30:.\Generated_Source\PSoC5/ShiftReg_Security.c **** *  None.
  31:.\Generated_Source\PSoC5/ShiftReg_Security.c **** *
  32:.\Generated_Source\PSoC5/ShiftReg_Security.c **** * Return:
  33:.\Generated_Source\PSoC5/ShiftReg_Security.c **** *  None.
  34:.\Generated_Source\PSoC5/ShiftReg_Security.c **** *
  35:.\Generated_Source\PSoC5/ShiftReg_Security.c **** * Global Variables:
  36:.\Generated_Source\PSoC5/ShiftReg_Security.c **** *  ShiftReg_Security_initVar - used to check initial configuration, modified on
  37:.\Generated_Source\PSoC5/ShiftReg_Security.c **** *  first function call.
  38:.\Generated_Source\PSoC5/ShiftReg_Security.c **** *
  39:.\Generated_Source\PSoC5/ShiftReg_Security.c **** * Reentrant:
  40:.\Generated_Source\PSoC5/ShiftReg_Security.c **** *  No.
  41:.\Generated_Source\PSoC5/ShiftReg_Security.c **** *
  42:.\Generated_Source\PSoC5/ShiftReg_Security.c **** *******************************************************************************/
  43:.\Generated_Source\PSoC5/ShiftReg_Security.c **** void ShiftReg_Security_Start(void) 
  44:.\Generated_Source\PSoC5/ShiftReg_Security.c **** {
  33              		.loc 1 44 0
  34              		.cfi_startproc
  35              		@ args = 0, pretend = 0, frame = 0
  36              		@ frame_needed = 1, uses_anonymous_args = 0
  37 0000 80B5     		push	{r7, lr}
  38              		.cfi_def_cfa_offset 8
  39              		.cfi_offset 7, -8
  40              		.cfi_offset 14, -4
  41 0002 00AF     		add	r7, sp, #0
  42              		.cfi_def_cfa_register 7
  45:.\Generated_Source\PSoC5/ShiftReg_Security.c ****     if(0u == ShiftReg_Security_initVar)
  43              		.loc 1 45 0
  44 0004 054B     		ldr	r3, .L3
  45 0006 1B78     		ldrb	r3, [r3]	@ zero_extendqisi2
  46 0008 002B     		cmp	r3, #0
  47 000a 04D1     		bne	.L2
  46:.\Generated_Source\PSoC5/ShiftReg_Security.c ****     {
  47:.\Generated_Source\PSoC5/ShiftReg_Security.c ****         ShiftReg_Security_Init();
  48              		.loc 1 47 0
  49 000c FFF7FEFF 		bl	ShiftReg_Security_Init
  48:.\Generated_Source\PSoC5/ShiftReg_Security.c ****         ShiftReg_Security_initVar = 1u; /* Component initialized */
  50              		.loc 1 48 0
  51 0010 024B     		ldr	r3, .L3
  52 0012 0122     		movs	r2, #1
  53 0014 1A70     		strb	r2, [r3]
  54              	.L2:
  49:.\Generated_Source\PSoC5/ShiftReg_Security.c ****     }
  50:.\Generated_Source\PSoC5/ShiftReg_Security.c **** 
  51:.\Generated_Source\PSoC5/ShiftReg_Security.c ****     ShiftReg_Security_Enable();
  55              		.loc 1 51 0
  56 0016 FFF7FEFF 		bl	ShiftReg_Security_Enable
  52:.\Generated_Source\PSoC5/ShiftReg_Security.c **** }
  57              		.loc 1 52 0
  58 001a 80BD     		pop	{r7, pc}
  59              	.L4:
  60              		.align	2
  61              	.L3:
  62 001c 00000000 		.word	ShiftReg_Security_initVar
ARM GAS  C:\Users\RECEPC~1\AppData\Local\Temp\ccJ7VxCK.s 			page 3


  63              		.cfi_endproc
  64              	.LFE0:
  65              		.size	ShiftReg_Security_Start, .-ShiftReg_Security_Start
  66              		.section	.text.ShiftReg_Security_Enable,"ax",%progbits
  67              		.align	2
  68              		.global	ShiftReg_Security_Enable
  69              		.thumb
  70              		.thumb_func
  71              		.type	ShiftReg_Security_Enable, %function
  72              	ShiftReg_Security_Enable:
  73              	.LFB1:
  53:.\Generated_Source\PSoC5/ShiftReg_Security.c **** 
  54:.\Generated_Source\PSoC5/ShiftReg_Security.c **** 
  55:.\Generated_Source\PSoC5/ShiftReg_Security.c **** /*******************************************************************************
  56:.\Generated_Source\PSoC5/ShiftReg_Security.c **** * Function Name: ShiftReg_Security_Enable
  57:.\Generated_Source\PSoC5/ShiftReg_Security.c **** ********************************************************************************
  58:.\Generated_Source\PSoC5/ShiftReg_Security.c **** *
  59:.\Generated_Source\PSoC5/ShiftReg_Security.c **** * Summary:
  60:.\Generated_Source\PSoC5/ShiftReg_Security.c **** *  Enables the Shift Register.
  61:.\Generated_Source\PSoC5/ShiftReg_Security.c **** *
  62:.\Generated_Source\PSoC5/ShiftReg_Security.c **** * Parameters:
  63:.\Generated_Source\PSoC5/ShiftReg_Security.c **** *  void.
  64:.\Generated_Source\PSoC5/ShiftReg_Security.c **** *
  65:.\Generated_Source\PSoC5/ShiftReg_Security.c **** * Return:
  66:.\Generated_Source\PSoC5/ShiftReg_Security.c **** *  void.
  67:.\Generated_Source\PSoC5/ShiftReg_Security.c **** *
  68:.\Generated_Source\PSoC5/ShiftReg_Security.c **** *******************************************************************************/
  69:.\Generated_Source\PSoC5/ShiftReg_Security.c **** void ShiftReg_Security_Enable(void) 
  70:.\Generated_Source\PSoC5/ShiftReg_Security.c **** {
  74              		.loc 1 70 0
  75              		.cfi_startproc
  76              		@ args = 0, pretend = 0, frame = 0
  77              		@ frame_needed = 1, uses_anonymous_args = 0
  78 0000 80B5     		push	{r7, lr}
  79              		.cfi_def_cfa_offset 8
  80              		.cfi_offset 7, -8
  81              		.cfi_offset 14, -4
  82 0002 00AF     		add	r7, sp, #0
  83              		.cfi_def_cfa_register 7
  71:.\Generated_Source\PSoC5/ShiftReg_Security.c ****     /* Changing address in Datapath Control Store
  72:.\Generated_Source\PSoC5/ShiftReg_Security.c ****        from NOP to component state machine commands space */
  73:.\Generated_Source\PSoC5/ShiftReg_Security.c ****     ShiftReg_Security_SR_CONTROL |= ShiftReg_Security_CLK_EN;
  84              		.loc 1 73 0
  85 0004 054A     		ldr	r2, .L6
  86 0006 054B     		ldr	r3, .L6
  87 0008 1B78     		ldrb	r3, [r3]
  88 000a DBB2     		uxtb	r3, r3
  89 000c 43F00103 		orr	r3, r3, #1
  90 0010 DBB2     		uxtb	r3, r3
  91 0012 1370     		strb	r3, [r2]
  74:.\Generated_Source\PSoC5/ShiftReg_Security.c **** 
  75:.\Generated_Source\PSoC5/ShiftReg_Security.c ****     ShiftReg_Security_EnableInt();
  92              		.loc 1 75 0
  93 0014 FFF7FEFF 		bl	ShiftReg_Security_EnableInt
  76:.\Generated_Source\PSoC5/ShiftReg_Security.c **** }
  94              		.loc 1 76 0
  95 0018 80BD     		pop	{r7, pc}
ARM GAS  C:\Users\RECEPC~1\AppData\Local\Temp\ccJ7VxCK.s 			page 4


  96              	.L7:
  97 001a 00BF     		.align	2
  98              	.L6:
  99 001c 7B650040 		.word	1073767803
 100              		.cfi_endproc
 101              	.LFE1:
 102              		.size	ShiftReg_Security_Enable, .-ShiftReg_Security_Enable
 103              		.section	.text.ShiftReg_Security_Init,"ax",%progbits
 104              		.align	2
 105              		.global	ShiftReg_Security_Init
 106              		.thumb
 107              		.thumb_func
 108              		.type	ShiftReg_Security_Init, %function
 109              	ShiftReg_Security_Init:
 110              	.LFB2:
  77:.\Generated_Source\PSoC5/ShiftReg_Security.c **** 
  78:.\Generated_Source\PSoC5/ShiftReg_Security.c **** 
  79:.\Generated_Source\PSoC5/ShiftReg_Security.c **** /*******************************************************************************
  80:.\Generated_Source\PSoC5/ShiftReg_Security.c **** * Function Name: ShiftReg_Security_Init
  81:.\Generated_Source\PSoC5/ShiftReg_Security.c **** ********************************************************************************
  82:.\Generated_Source\PSoC5/ShiftReg_Security.c **** *
  83:.\Generated_Source\PSoC5/ShiftReg_Security.c **** * Summary:
  84:.\Generated_Source\PSoC5/ShiftReg_Security.c **** *  Initializes Tx and/or Rx interrupt sources with initial values.
  85:.\Generated_Source\PSoC5/ShiftReg_Security.c **** *
  86:.\Generated_Source\PSoC5/ShiftReg_Security.c **** * Parameters:
  87:.\Generated_Source\PSoC5/ShiftReg_Security.c **** *  void.
  88:.\Generated_Source\PSoC5/ShiftReg_Security.c **** *
  89:.\Generated_Source\PSoC5/ShiftReg_Security.c **** * Return:
  90:.\Generated_Source\PSoC5/ShiftReg_Security.c **** *  void.
  91:.\Generated_Source\PSoC5/ShiftReg_Security.c **** *
  92:.\Generated_Source\PSoC5/ShiftReg_Security.c **** *******************************************************************************/
  93:.\Generated_Source\PSoC5/ShiftReg_Security.c **** void ShiftReg_Security_Init(void) 
  94:.\Generated_Source\PSoC5/ShiftReg_Security.c **** {
 111              		.loc 1 94 0
 112              		.cfi_startproc
 113              		@ args = 0, pretend = 0, frame = 0
 114              		@ frame_needed = 1, uses_anonymous_args = 0
 115 0000 80B5     		push	{r7, lr}
 116              		.cfi_def_cfa_offset 8
 117              		.cfi_offset 7, -8
 118              		.cfi_offset 14, -4
 119 0002 00AF     		add	r7, sp, #0
 120              		.cfi_def_cfa_register 7
  95:.\Generated_Source\PSoC5/ShiftReg_Security.c ****     ShiftReg_Security_SetIntMode(ShiftReg_Security_INT_SRC);
 121              		.loc 1 95 0
 122 0004 0020     		movs	r0, #0
 123 0006 FFF7FEFF 		bl	ShiftReg_Security_SetIntMode
  96:.\Generated_Source\PSoC5/ShiftReg_Security.c **** }
 124              		.loc 1 96 0
 125 000a 80BD     		pop	{r7, pc}
 126              		.cfi_endproc
 127              	.LFE2:
 128              		.size	ShiftReg_Security_Init, .-ShiftReg_Security_Init
 129              		.section	.text.ShiftReg_Security_Stop,"ax",%progbits
 130              		.align	2
 131              		.global	ShiftReg_Security_Stop
 132              		.thumb
ARM GAS  C:\Users\RECEPC~1\AppData\Local\Temp\ccJ7VxCK.s 			page 5


 133              		.thumb_func
 134              		.type	ShiftReg_Security_Stop, %function
 135              	ShiftReg_Security_Stop:
 136              	.LFB3:
  97:.\Generated_Source\PSoC5/ShiftReg_Security.c **** 
  98:.\Generated_Source\PSoC5/ShiftReg_Security.c **** 
  99:.\Generated_Source\PSoC5/ShiftReg_Security.c **** /*******************************************************************************
 100:.\Generated_Source\PSoC5/ShiftReg_Security.c **** * Function Name: ShiftReg_Security_Stop
 101:.\Generated_Source\PSoC5/ShiftReg_Security.c **** ********************************************************************************
 102:.\Generated_Source\PSoC5/ShiftReg_Security.c **** *
 103:.\Generated_Source\PSoC5/ShiftReg_Security.c **** * Summary:
 104:.\Generated_Source\PSoC5/ShiftReg_Security.c **** *  Disables the Shift Register
 105:.\Generated_Source\PSoC5/ShiftReg_Security.c **** *
 106:.\Generated_Source\PSoC5/ShiftReg_Security.c **** * Parameters:
 107:.\Generated_Source\PSoC5/ShiftReg_Security.c **** *  None.
 108:.\Generated_Source\PSoC5/ShiftReg_Security.c **** *
 109:.\Generated_Source\PSoC5/ShiftReg_Security.c **** * Return:
 110:.\Generated_Source\PSoC5/ShiftReg_Security.c **** *  None.
 111:.\Generated_Source\PSoC5/ShiftReg_Security.c **** *
 112:.\Generated_Source\PSoC5/ShiftReg_Security.c **** *******************************************************************************/
 113:.\Generated_Source\PSoC5/ShiftReg_Security.c **** void ShiftReg_Security_Stop(void) 
 114:.\Generated_Source\PSoC5/ShiftReg_Security.c **** {
 137              		.loc 1 114 0
 138              		.cfi_startproc
 139              		@ args = 0, pretend = 0, frame = 0
 140              		@ frame_needed = 1, uses_anonymous_args = 0
 141 0000 80B5     		push	{r7, lr}
 142              		.cfi_def_cfa_offset 8
 143              		.cfi_offset 7, -8
 144              		.cfi_offset 14, -4
 145 0002 00AF     		add	r7, sp, #0
 146              		.cfi_def_cfa_register 7
 115:.\Generated_Source\PSoC5/ShiftReg_Security.c ****     /*changing Datapath Control Store address to NOP space*/
 116:.\Generated_Source\PSoC5/ShiftReg_Security.c ****     ShiftReg_Security_SR_CONTROL &= ((uint8) ~ShiftReg_Security_CLK_EN);
 147              		.loc 1 116 0
 148 0004 054A     		ldr	r2, .L10
 149 0006 054B     		ldr	r3, .L10
 150 0008 1B78     		ldrb	r3, [r3]
 151 000a DBB2     		uxtb	r3, r3
 152 000c 23F00103 		bic	r3, r3, #1
 153 0010 DBB2     		uxtb	r3, r3
 154 0012 1370     		strb	r3, [r2]
 117:.\Generated_Source\PSoC5/ShiftReg_Security.c ****     ShiftReg_Security_DisableInt();
 155              		.loc 1 117 0
 156 0014 FFF7FEFF 		bl	ShiftReg_Security_DisableInt
 118:.\Generated_Source\PSoC5/ShiftReg_Security.c **** }
 157              		.loc 1 118 0
 158 0018 80BD     		pop	{r7, pc}
 159              	.L11:
 160 001a 00BF     		.align	2
 161              	.L10:
 162 001c 7B650040 		.word	1073767803
 163              		.cfi_endproc
 164              	.LFE3:
 165              		.size	ShiftReg_Security_Stop, .-ShiftReg_Security_Stop
 166              		.section	.text.ShiftReg_Security_EnableInt,"ax",%progbits
 167              		.align	2
ARM GAS  C:\Users\RECEPC~1\AppData\Local\Temp\ccJ7VxCK.s 			page 6


 168              		.global	ShiftReg_Security_EnableInt
 169              		.thumb
 170              		.thumb_func
 171              		.type	ShiftReg_Security_EnableInt, %function
 172              	ShiftReg_Security_EnableInt:
 173              	.LFB4:
 119:.\Generated_Source\PSoC5/ShiftReg_Security.c **** 
 120:.\Generated_Source\PSoC5/ShiftReg_Security.c **** 
 121:.\Generated_Source\PSoC5/ShiftReg_Security.c **** /*******************************************************************************
 122:.\Generated_Source\PSoC5/ShiftReg_Security.c **** * Function Name: ShiftReg_Security_EnableInt
 123:.\Generated_Source\PSoC5/ShiftReg_Security.c **** ********************************************************************************
 124:.\Generated_Source\PSoC5/ShiftReg_Security.c **** *
 125:.\Generated_Source\PSoC5/ShiftReg_Security.c **** * Summary:
 126:.\Generated_Source\PSoC5/ShiftReg_Security.c **** *  Enables the Shift Register interrupt.
 127:.\Generated_Source\PSoC5/ShiftReg_Security.c **** *
 128:.\Generated_Source\PSoC5/ShiftReg_Security.c **** * Parameters:
 129:.\Generated_Source\PSoC5/ShiftReg_Security.c **** *  None.
 130:.\Generated_Source\PSoC5/ShiftReg_Security.c **** *
 131:.\Generated_Source\PSoC5/ShiftReg_Security.c **** * Return:
 132:.\Generated_Source\PSoC5/ShiftReg_Security.c **** *  None.
 133:.\Generated_Source\PSoC5/ShiftReg_Security.c **** *
 134:.\Generated_Source\PSoC5/ShiftReg_Security.c **** *******************************************************************************/
 135:.\Generated_Source\PSoC5/ShiftReg_Security.c **** void ShiftReg_Security_EnableInt(void) 
 136:.\Generated_Source\PSoC5/ShiftReg_Security.c **** {
 174              		.loc 1 136 0
 175              		.cfi_startproc
 176              		@ args = 0, pretend = 0, frame = 8
 177              		@ frame_needed = 1, uses_anonymous_args = 0
 178 0000 80B5     		push	{r7, lr}
 179              		.cfi_def_cfa_offset 8
 180              		.cfi_offset 7, -8
 181              		.cfi_offset 14, -4
 182 0002 82B0     		sub	sp, sp, #8
 183              		.cfi_def_cfa_offset 16
 184 0004 00AF     		add	r7, sp, #0
 185              		.cfi_def_cfa_register 7
 137:.\Generated_Source\PSoC5/ShiftReg_Security.c ****     uint8 interruptState;
 138:.\Generated_Source\PSoC5/ShiftReg_Security.c **** 
 139:.\Generated_Source\PSoC5/ShiftReg_Security.c ****     interruptState = CyEnterCriticalSection();
 186              		.loc 1 139 0
 187 0006 FFF7FEFF 		bl	CyEnterCriticalSection
 188 000a 0346     		mov	r3, r0
 189 000c FB71     		strb	r3, [r7, #7]
 140:.\Generated_Source\PSoC5/ShiftReg_Security.c ****     ShiftReg_Security_SR_AUX_CONTROL |= ShiftReg_Security_INTERRUPTS_ENABLE;
 190              		.loc 1 140 0
 191 000e 074A     		ldr	r2, .L13
 192 0010 064B     		ldr	r3, .L13
 193 0012 1B78     		ldrb	r3, [r3]
 194 0014 DBB2     		uxtb	r3, r3
 195 0016 43F01003 		orr	r3, r3, #16
 196 001a DBB2     		uxtb	r3, r3
 197 001c 1370     		strb	r3, [r2]
 141:.\Generated_Source\PSoC5/ShiftReg_Security.c ****     CyExitCriticalSection(interruptState);
 198              		.loc 1 141 0
 199 001e FB79     		ldrb	r3, [r7, #7]	@ zero_extendqisi2
 200 0020 1846     		mov	r0, r3
 201 0022 FFF7FEFF 		bl	CyExitCriticalSection
ARM GAS  C:\Users\RECEPC~1\AppData\Local\Temp\ccJ7VxCK.s 			page 7


 142:.\Generated_Source\PSoC5/ShiftReg_Security.c **** }
 202              		.loc 1 142 0
 203 0026 0837     		adds	r7, r7, #8
 204              		.cfi_def_cfa_offset 8
 205 0028 BD46     		mov	sp, r7
 206              		.cfi_def_cfa_register 13
 207              		@ sp needed
 208 002a 80BD     		pop	{r7, pc}
 209              	.L14:
 210              		.align	2
 211              	.L13:
 212 002c 9B650040 		.word	1073767835
 213              		.cfi_endproc
 214              	.LFE4:
 215              		.size	ShiftReg_Security_EnableInt, .-ShiftReg_Security_EnableInt
 216              		.section	.text.ShiftReg_Security_DisableInt,"ax",%progbits
 217              		.align	2
 218              		.global	ShiftReg_Security_DisableInt
 219              		.thumb
 220              		.thumb_func
 221              		.type	ShiftReg_Security_DisableInt, %function
 222              	ShiftReg_Security_DisableInt:
 223              	.LFB5:
 143:.\Generated_Source\PSoC5/ShiftReg_Security.c **** 
 144:.\Generated_Source\PSoC5/ShiftReg_Security.c **** 
 145:.\Generated_Source\PSoC5/ShiftReg_Security.c **** /*******************************************************************************
 146:.\Generated_Source\PSoC5/ShiftReg_Security.c **** * Function Name: ShiftReg_Security_DisableInt
 147:.\Generated_Source\PSoC5/ShiftReg_Security.c **** ********************************************************************************
 148:.\Generated_Source\PSoC5/ShiftReg_Security.c **** *
 149:.\Generated_Source\PSoC5/ShiftReg_Security.c **** * Summary:
 150:.\Generated_Source\PSoC5/ShiftReg_Security.c **** *  Disables the Shift Register interrupt.
 151:.\Generated_Source\PSoC5/ShiftReg_Security.c **** *
 152:.\Generated_Source\PSoC5/ShiftReg_Security.c **** * Parameters:
 153:.\Generated_Source\PSoC5/ShiftReg_Security.c **** *  None.
 154:.\Generated_Source\PSoC5/ShiftReg_Security.c **** *
 155:.\Generated_Source\PSoC5/ShiftReg_Security.c **** * Return:
 156:.\Generated_Source\PSoC5/ShiftReg_Security.c **** *  None.
 157:.\Generated_Source\PSoC5/ShiftReg_Security.c **** *
 158:.\Generated_Source\PSoC5/ShiftReg_Security.c **** *******************************************************************************/
 159:.\Generated_Source\PSoC5/ShiftReg_Security.c **** void ShiftReg_Security_DisableInt(void) 
 160:.\Generated_Source\PSoC5/ShiftReg_Security.c **** {
 224              		.loc 1 160 0
 225              		.cfi_startproc
 226              		@ args = 0, pretend = 0, frame = 8
 227              		@ frame_needed = 1, uses_anonymous_args = 0
 228 0000 80B5     		push	{r7, lr}
 229              		.cfi_def_cfa_offset 8
 230              		.cfi_offset 7, -8
 231              		.cfi_offset 14, -4
 232 0002 82B0     		sub	sp, sp, #8
 233              		.cfi_def_cfa_offset 16
 234 0004 00AF     		add	r7, sp, #0
 235              		.cfi_def_cfa_register 7
 161:.\Generated_Source\PSoC5/ShiftReg_Security.c ****     uint8 interruptState;
 162:.\Generated_Source\PSoC5/ShiftReg_Security.c **** 
 163:.\Generated_Source\PSoC5/ShiftReg_Security.c ****     interruptState = CyEnterCriticalSection();
 236              		.loc 1 163 0
ARM GAS  C:\Users\RECEPC~1\AppData\Local\Temp\ccJ7VxCK.s 			page 8


 237 0006 FFF7FEFF 		bl	CyEnterCriticalSection
 238 000a 0346     		mov	r3, r0
 239 000c FB71     		strb	r3, [r7, #7]
 164:.\Generated_Source\PSoC5/ShiftReg_Security.c ****     ShiftReg_Security_SR_AUX_CONTROL &= ((uint8) ~ShiftReg_Security_INTERRUPTS_ENABLE);
 240              		.loc 1 164 0
 241 000e 074A     		ldr	r2, .L16
 242 0010 064B     		ldr	r3, .L16
 243 0012 1B78     		ldrb	r3, [r3]
 244 0014 DBB2     		uxtb	r3, r3
 245 0016 23F01003 		bic	r3, r3, #16
 246 001a DBB2     		uxtb	r3, r3
 247 001c 1370     		strb	r3, [r2]
 165:.\Generated_Source\PSoC5/ShiftReg_Security.c ****     CyExitCriticalSection(interruptState);
 248              		.loc 1 165 0
 249 001e FB79     		ldrb	r3, [r7, #7]	@ zero_extendqisi2
 250 0020 1846     		mov	r0, r3
 251 0022 FFF7FEFF 		bl	CyExitCriticalSection
 166:.\Generated_Source\PSoC5/ShiftReg_Security.c **** }
 252              		.loc 1 166 0
 253 0026 0837     		adds	r7, r7, #8
 254              		.cfi_def_cfa_offset 8
 255 0028 BD46     		mov	sp, r7
 256              		.cfi_def_cfa_register 13
 257              		@ sp needed
 258 002a 80BD     		pop	{r7, pc}
 259              	.L17:
 260              		.align	2
 261              	.L16:
 262 002c 9B650040 		.word	1073767835
 263              		.cfi_endproc
 264              	.LFE5:
 265              		.size	ShiftReg_Security_DisableInt, .-ShiftReg_Security_DisableInt
 266              		.section	.text.ShiftReg_Security_GetFIFOStatus,"ax",%progbits
 267              		.align	2
 268              		.global	ShiftReg_Security_GetFIFOStatus
 269              		.thumb
 270              		.thumb_func
 271              		.type	ShiftReg_Security_GetFIFOStatus, %function
 272              	ShiftReg_Security_GetFIFOStatus:
 273              	.LFB6:
 167:.\Generated_Source\PSoC5/ShiftReg_Security.c **** 
 168:.\Generated_Source\PSoC5/ShiftReg_Security.c **** 
 169:.\Generated_Source\PSoC5/ShiftReg_Security.c **** /*******************************************************************************
 170:.\Generated_Source\PSoC5/ShiftReg_Security.c **** * Function Name: ShiftReg_Security_GetFIFOStatus
 171:.\Generated_Source\PSoC5/ShiftReg_Security.c **** ********************************************************************************
 172:.\Generated_Source\PSoC5/ShiftReg_Security.c **** *
 173:.\Generated_Source\PSoC5/ShiftReg_Security.c **** * Summary:
 174:.\Generated_Source\PSoC5/ShiftReg_Security.c **** *  Returns current status of input or output FIFO.
 175:.\Generated_Source\PSoC5/ShiftReg_Security.c **** *
 176:.\Generated_Source\PSoC5/ShiftReg_Security.c **** * Parameters:
 177:.\Generated_Source\PSoC5/ShiftReg_Security.c **** *  fifoId.
 178:.\Generated_Source\PSoC5/ShiftReg_Security.c **** *
 179:.\Generated_Source\PSoC5/ShiftReg_Security.c **** * Return:
 180:.\Generated_Source\PSoC5/ShiftReg_Security.c **** *  FIFO status.
 181:.\Generated_Source\PSoC5/ShiftReg_Security.c **** *
 182:.\Generated_Source\PSoC5/ShiftReg_Security.c **** *******************************************************************************/
 183:.\Generated_Source\PSoC5/ShiftReg_Security.c **** uint8 ShiftReg_Security_GetFIFOStatus(uint8 fifoId) 
ARM GAS  C:\Users\RECEPC~1\AppData\Local\Temp\ccJ7VxCK.s 			page 9


 184:.\Generated_Source\PSoC5/ShiftReg_Security.c **** {
 274              		.loc 1 184 0
 275              		.cfi_startproc
 276              		@ args = 0, pretend = 0, frame = 16
 277              		@ frame_needed = 1, uses_anonymous_args = 0
 278              		@ link register save eliminated.
 279 0000 80B4     		push	{r7}
 280              		.cfi_def_cfa_offset 4
 281              		.cfi_offset 7, -4
 282 0002 85B0     		sub	sp, sp, #20
 283              		.cfi_def_cfa_offset 24
 284 0004 00AF     		add	r7, sp, #0
 285              		.cfi_def_cfa_register 7
 286 0006 0346     		mov	r3, r0
 287 0008 FB71     		strb	r3, [r7, #7]
 185:.\Generated_Source\PSoC5/ShiftReg_Security.c ****     uint8 result;
 186:.\Generated_Source\PSoC5/ShiftReg_Security.c **** 
 187:.\Generated_Source\PSoC5/ShiftReg_Security.c ****     result = ShiftReg_Security_RET_FIFO_NOT_DEFINED;
 288              		.loc 1 187 0
 289 000a FE23     		movs	r3, #254
 290 000c FB73     		strb	r3, [r7, #15]
 188:.\Generated_Source\PSoC5/ShiftReg_Security.c **** 
 189:.\Generated_Source\PSoC5/ShiftReg_Security.c ****     #if(0u != ShiftReg_Security_USE_INPUT_FIFO)
 190:.\Generated_Source\PSoC5/ShiftReg_Security.c ****         if(ShiftReg_Security_IN_FIFO == fifoId)
 191:.\Generated_Source\PSoC5/ShiftReg_Security.c ****         {
 192:.\Generated_Source\PSoC5/ShiftReg_Security.c ****             switch(ShiftReg_Security_GET_IN_FIFO_STS)
 193:.\Generated_Source\PSoC5/ShiftReg_Security.c ****             {
 194:.\Generated_Source\PSoC5/ShiftReg_Security.c ****                 case ShiftReg_Security_IN_FIFO_FULL :
 195:.\Generated_Source\PSoC5/ShiftReg_Security.c ****                     result = ShiftReg_Security_RET_FIFO_FULL;
 196:.\Generated_Source\PSoC5/ShiftReg_Security.c ****                     break;
 197:.\Generated_Source\PSoC5/ShiftReg_Security.c **** 
 198:.\Generated_Source\PSoC5/ShiftReg_Security.c ****                 case ShiftReg_Security_IN_FIFO_EMPTY :
 199:.\Generated_Source\PSoC5/ShiftReg_Security.c ****                     result = ShiftReg_Security_RET_FIFO_EMPTY;
 200:.\Generated_Source\PSoC5/ShiftReg_Security.c ****                     break;
 201:.\Generated_Source\PSoC5/ShiftReg_Security.c **** 
 202:.\Generated_Source\PSoC5/ShiftReg_Security.c ****                 case ShiftReg_Security_IN_FIFO_PARTIAL:
 203:.\Generated_Source\PSoC5/ShiftReg_Security.c ****                     result = ShiftReg_Security_RET_FIFO_PARTIAL;
 204:.\Generated_Source\PSoC5/ShiftReg_Security.c ****                     break;
 205:.\Generated_Source\PSoC5/ShiftReg_Security.c ****                     
 206:.\Generated_Source\PSoC5/ShiftReg_Security.c ****                 default:
 207:.\Generated_Source\PSoC5/ShiftReg_Security.c ****                     /* Initial result value, while 
 208:.\Generated_Source\PSoC5/ShiftReg_Security.c ****                        IN_FIFO_EMPTY case is false 
 209:.\Generated_Source\PSoC5/ShiftReg_Security.c ****                      */
 210:.\Generated_Source\PSoC5/ShiftReg_Security.c ****                     result = ShiftReg_Security_RET_FIFO_EMPTY;
 211:.\Generated_Source\PSoC5/ShiftReg_Security.c ****                     break;
 212:.\Generated_Source\PSoC5/ShiftReg_Security.c ****             }   
 213:.\Generated_Source\PSoC5/ShiftReg_Security.c ****         }
 214:.\Generated_Source\PSoC5/ShiftReg_Security.c ****     #endif /* (0u != ShiftReg_Security_USE_INPUT_FIFO) */
 215:.\Generated_Source\PSoC5/ShiftReg_Security.c **** 
 216:.\Generated_Source\PSoC5/ShiftReg_Security.c ****     if(ShiftReg_Security_OUT_FIFO == fifoId)
 291              		.loc 1 216 0
 292 000e FB79     		ldrb	r3, [r7, #7]	@ zero_extendqisi2
 293 0010 022B     		cmp	r3, #2
 294 0012 18D1     		bne	.L19
 217:.\Generated_Source\PSoC5/ShiftReg_Security.c ****     {
 218:.\Generated_Source\PSoC5/ShiftReg_Security.c ****         switch(ShiftReg_Security_GET_OUT_FIFO_STS)
 295              		.loc 1 218 0
ARM GAS  C:\Users\RECEPC~1\AppData\Local\Temp\ccJ7VxCK.s 			page 10


 296 0014 0F4B     		ldr	r3, .L26
 297 0016 1B78     		ldrb	r3, [r3]
 298 0018 DBB2     		uxtb	r3, r3
 299 001a 03F06003 		and	r3, r3, #96
 300 001e 5B09     		lsrs	r3, r3, #5
 301 0020 012B     		cmp	r3, #1
 302 0022 04D0     		beq	.L21
 303 0024 012B     		cmp	r3, #1
 304 0026 05D3     		bcc	.L22
 305 0028 022B     		cmp	r3, #2
 306 002a 06D0     		beq	.L23
 307 002c 08E0     		b	.L25
 308              	.L21:
 219:.\Generated_Source\PSoC5/ShiftReg_Security.c ****         {
 220:.\Generated_Source\PSoC5/ShiftReg_Security.c ****             case ShiftReg_Security_OUT_FIFO_FULL :
 221:.\Generated_Source\PSoC5/ShiftReg_Security.c ****                 result = ShiftReg_Security_RET_FIFO_FULL;
 309              		.loc 1 221 0
 310 002e 0023     		movs	r3, #0
 311 0030 FB73     		strb	r3, [r7, #15]
 222:.\Generated_Source\PSoC5/ShiftReg_Security.c ****                 break;
 312              		.loc 1 222 0
 313 0032 08E0     		b	.L19
 314              	.L22:
 223:.\Generated_Source\PSoC5/ShiftReg_Security.c **** 
 224:.\Generated_Source\PSoC5/ShiftReg_Security.c ****             case ShiftReg_Security_OUT_FIFO_EMPTY :
 225:.\Generated_Source\PSoC5/ShiftReg_Security.c ****                 result = ShiftReg_Security_RET_FIFO_EMPTY;
 315              		.loc 1 225 0
 316 0034 0223     		movs	r3, #2
 317 0036 FB73     		strb	r3, [r7, #15]
 226:.\Generated_Source\PSoC5/ShiftReg_Security.c ****                 break;
 318              		.loc 1 226 0
 319 0038 05E0     		b	.L19
 320              	.L23:
 227:.\Generated_Source\PSoC5/ShiftReg_Security.c **** 
 228:.\Generated_Source\PSoC5/ShiftReg_Security.c ****             case ShiftReg_Security_OUT_FIFO_PARTIAL :
 229:.\Generated_Source\PSoC5/ShiftReg_Security.c ****                 result = ShiftReg_Security_RET_FIFO_PARTIAL;
 321              		.loc 1 229 0
 322 003a 0123     		movs	r3, #1
 323 003c FB73     		strb	r3, [r7, #15]
 230:.\Generated_Source\PSoC5/ShiftReg_Security.c ****                 break;
 324              		.loc 1 230 0
 325 003e 02E0     		b	.L19
 326              	.L25:
 231:.\Generated_Source\PSoC5/ShiftReg_Security.c **** 
 232:.\Generated_Source\PSoC5/ShiftReg_Security.c ****             default:
 233:.\Generated_Source\PSoC5/ShiftReg_Security.c ****                 /* Initial result value, while 
 234:.\Generated_Source\PSoC5/ShiftReg_Security.c ****                    OUT_FIFO_FULL case is false 
 235:.\Generated_Source\PSoC5/ShiftReg_Security.c ****                  */
 236:.\Generated_Source\PSoC5/ShiftReg_Security.c ****                 result = ShiftReg_Security_RET_FIFO_FULL;
 327              		.loc 1 236 0
 328 0040 0023     		movs	r3, #0
 329 0042 FB73     		strb	r3, [r7, #15]
 237:.\Generated_Source\PSoC5/ShiftReg_Security.c ****                 break;
 330              		.loc 1 237 0
 331 0044 00BF     		nop
 332              	.L19:
 238:.\Generated_Source\PSoC5/ShiftReg_Security.c ****         }
ARM GAS  C:\Users\RECEPC~1\AppData\Local\Temp\ccJ7VxCK.s 			page 11


 239:.\Generated_Source\PSoC5/ShiftReg_Security.c ****     }
 240:.\Generated_Source\PSoC5/ShiftReg_Security.c **** 
 241:.\Generated_Source\PSoC5/ShiftReg_Security.c ****     return(result);
 333              		.loc 1 241 0
 334 0046 FB7B     		ldrb	r3, [r7, #15]	@ zero_extendqisi2
 242:.\Generated_Source\PSoC5/ShiftReg_Security.c **** }
 335              		.loc 1 242 0
 336 0048 1846     		mov	r0, r3
 337 004a 1437     		adds	r7, r7, #20
 338              		.cfi_def_cfa_offset 4
 339 004c BD46     		mov	sp, r7
 340              		.cfi_def_cfa_register 13
 341              		@ sp needed
 342 004e 5DF8047B 		ldr	r7, [sp], #4
 343              		.cfi_restore 7
 344              		.cfi_def_cfa_offset 0
 345 0052 7047     		bx	lr
 346              	.L27:
 347              		.align	2
 348              	.L26:
 349 0054 6B650040 		.word	1073767787
 350              		.cfi_endproc
 351              	.LFE6:
 352              		.size	ShiftReg_Security_GetFIFOStatus, .-ShiftReg_Security_GetFIFOStatus
 353              		.section	.text.ShiftReg_Security_SetIntMode,"ax",%progbits
 354              		.align	2
 355              		.global	ShiftReg_Security_SetIntMode
 356              		.thumb
 357              		.thumb_func
 358              		.type	ShiftReg_Security_SetIntMode, %function
 359              	ShiftReg_Security_SetIntMode:
 360              	.LFB7:
 243:.\Generated_Source\PSoC5/ShiftReg_Security.c **** 
 244:.\Generated_Source\PSoC5/ShiftReg_Security.c **** 
 245:.\Generated_Source\PSoC5/ShiftReg_Security.c **** /*******************************************************************************
 246:.\Generated_Source\PSoC5/ShiftReg_Security.c **** * Function Name: ShiftReg_Security_SetIntMode
 247:.\Generated_Source\PSoC5/ShiftReg_Security.c **** ********************************************************************************
 248:.\Generated_Source\PSoC5/ShiftReg_Security.c **** *
 249:.\Generated_Source\PSoC5/ShiftReg_Security.c **** * Summary:
 250:.\Generated_Source\PSoC5/ShiftReg_Security.c **** *  Sets the Interrupt Source for the Shift Register interrupt. Multiple
 251:.\Generated_Source\PSoC5/ShiftReg_Security.c **** *  sources may be ORed together
 252:.\Generated_Source\PSoC5/ShiftReg_Security.c **** *
 253:.\Generated_Source\PSoC5/ShiftReg_Security.c **** * Parameters:
 254:.\Generated_Source\PSoC5/ShiftReg_Security.c **** *  interruptSource: Byte containing the constant for the selected interrupt
 255:.\Generated_Source\PSoC5/ShiftReg_Security.c **** *  source/s.
 256:.\Generated_Source\PSoC5/ShiftReg_Security.c **** *
 257:.\Generated_Source\PSoC5/ShiftReg_Security.c **** * Return:
 258:.\Generated_Source\PSoC5/ShiftReg_Security.c **** *  None.
 259:.\Generated_Source\PSoC5/ShiftReg_Security.c **** *
 260:.\Generated_Source\PSoC5/ShiftReg_Security.c **** *******************************************************************************/
 261:.\Generated_Source\PSoC5/ShiftReg_Security.c **** void ShiftReg_Security_SetIntMode(uint8 interruptSource) 
 262:.\Generated_Source\PSoC5/ShiftReg_Security.c **** {
 361              		.loc 1 262 0
 362              		.cfi_startproc
 363              		@ args = 0, pretend = 0, frame = 8
 364              		@ frame_needed = 1, uses_anonymous_args = 0
 365              		@ link register save eliminated.
ARM GAS  C:\Users\RECEPC~1\AppData\Local\Temp\ccJ7VxCK.s 			page 12


 366 0000 80B4     		push	{r7}
 367              		.cfi_def_cfa_offset 4
 368              		.cfi_offset 7, -4
 369 0002 83B0     		sub	sp, sp, #12
 370              		.cfi_def_cfa_offset 16
 371 0004 00AF     		add	r7, sp, #0
 372              		.cfi_def_cfa_register 7
 373 0006 0346     		mov	r3, r0
 374 0008 FB71     		strb	r3, [r7, #7]
 263:.\Generated_Source\PSoC5/ShiftReg_Security.c ****     ShiftReg_Security_SR_STATUS_MASK &= ((uint8) ~ShiftReg_Security_INTS_EN_MASK);          /* Clea
 375              		.loc 1 263 0
 376 000a 0C4A     		ldr	r2, .L29
 377 000c 0B4B     		ldr	r3, .L29
 378 000e 1B78     		ldrb	r3, [r3]
 379 0010 DBB2     		uxtb	r3, r3
 380 0012 23F00703 		bic	r3, r3, #7
 381 0016 DBB2     		uxtb	r3, r3
 382 0018 1370     		strb	r3, [r2]
 264:.\Generated_Source\PSoC5/ShiftReg_Security.c ****     ShiftReg_Security_SR_STATUS_MASK |= (interruptSource & ShiftReg_Security_INTS_EN_MASK); /* Set 
 383              		.loc 1 264 0
 384 001a 0849     		ldr	r1, .L29
 385 001c 074B     		ldr	r3, .L29
 386 001e 1B78     		ldrb	r3, [r3]
 387 0020 DAB2     		uxtb	r2, r3
 388 0022 FB79     		ldrb	r3, [r7, #7]
 389 0024 03F00703 		and	r3, r3, #7
 390 0028 DBB2     		uxtb	r3, r3
 391 002a 1343     		orrs	r3, r3, r2
 392 002c DBB2     		uxtb	r3, r3
 393 002e 0B70     		strb	r3, [r1]
 265:.\Generated_Source\PSoC5/ShiftReg_Security.c **** }
 394              		.loc 1 265 0
 395 0030 0C37     		adds	r7, r7, #12
 396              		.cfi_def_cfa_offset 4
 397 0032 BD46     		mov	sp, r7
 398              		.cfi_def_cfa_register 13
 399              		@ sp needed
 400 0034 5DF8047B 		ldr	r7, [sp], #4
 401              		.cfi_restore 7
 402              		.cfi_def_cfa_offset 0
 403 0038 7047     		bx	lr
 404              	.L30:
 405 003a 00BF     		.align	2
 406              	.L29:
 407 003c 8B650040 		.word	1073767819
 408              		.cfi_endproc
 409              	.LFE7:
 410              		.size	ShiftReg_Security_SetIntMode, .-ShiftReg_Security_SetIntMode
 411              		.section	.text.ShiftReg_Security_GetIntStatus,"ax",%progbits
 412              		.align	2
 413              		.global	ShiftReg_Security_GetIntStatus
 414              		.thumb
 415              		.thumb_func
 416              		.type	ShiftReg_Security_GetIntStatus, %function
 417              	ShiftReg_Security_GetIntStatus:
 418              	.LFB8:
 266:.\Generated_Source\PSoC5/ShiftReg_Security.c **** 
ARM GAS  C:\Users\RECEPC~1\AppData\Local\Temp\ccJ7VxCK.s 			page 13


 267:.\Generated_Source\PSoC5/ShiftReg_Security.c **** 
 268:.\Generated_Source\PSoC5/ShiftReg_Security.c **** /*******************************************************************************
 269:.\Generated_Source\PSoC5/ShiftReg_Security.c **** * Function Name: ShiftReg_Security_GetIntStatus
 270:.\Generated_Source\PSoC5/ShiftReg_Security.c **** ********************************************************************************
 271:.\Generated_Source\PSoC5/ShiftReg_Security.c **** *
 272:.\Generated_Source\PSoC5/ShiftReg_Security.c **** * Summary:
 273:.\Generated_Source\PSoC5/ShiftReg_Security.c **** *  Gets the Shift Register Interrupt status.
 274:.\Generated_Source\PSoC5/ShiftReg_Security.c **** *
 275:.\Generated_Source\PSoC5/ShiftReg_Security.c **** * Parameters:
 276:.\Generated_Source\PSoC5/ShiftReg_Security.c **** *  None.
 277:.\Generated_Source\PSoC5/ShiftReg_Security.c **** *
 278:.\Generated_Source\PSoC5/ShiftReg_Security.c **** * Return:
 279:.\Generated_Source\PSoC5/ShiftReg_Security.c **** *  Byte containing the constant for the selected interrupt source/s.
 280:.\Generated_Source\PSoC5/ShiftReg_Security.c **** *
 281:.\Generated_Source\PSoC5/ShiftReg_Security.c **** *******************************************************************************/
 282:.\Generated_Source\PSoC5/ShiftReg_Security.c **** uint8 ShiftReg_Security_GetIntStatus(void) 
 283:.\Generated_Source\PSoC5/ShiftReg_Security.c **** {
 419              		.loc 1 283 0
 420              		.cfi_startproc
 421              		@ args = 0, pretend = 0, frame = 0
 422              		@ frame_needed = 1, uses_anonymous_args = 0
 423              		@ link register save eliminated.
 424 0000 80B4     		push	{r7}
 425              		.cfi_def_cfa_offset 4
 426              		.cfi_offset 7, -4
 427 0002 00AF     		add	r7, sp, #0
 428              		.cfi_def_cfa_register 7
 284:.\Generated_Source\PSoC5/ShiftReg_Security.c ****     return(ShiftReg_Security_SR_STATUS & ShiftReg_Security_INTS_EN_MASK);
 429              		.loc 1 284 0
 430 0004 054B     		ldr	r3, .L33
 431 0006 1B78     		ldrb	r3, [r3]
 432 0008 DBB2     		uxtb	r3, r3
 433 000a 03F00703 		and	r3, r3, #7
 434 000e DBB2     		uxtb	r3, r3
 285:.\Generated_Source\PSoC5/ShiftReg_Security.c **** }
 435              		.loc 1 285 0
 436 0010 1846     		mov	r0, r3
 437 0012 BD46     		mov	sp, r7
 438              		.cfi_def_cfa_register 13
 439              		@ sp needed
 440 0014 5DF8047B 		ldr	r7, [sp], #4
 441              		.cfi_restore 7
 442              		.cfi_def_cfa_offset 0
 443 0018 7047     		bx	lr
 444              	.L34:
 445 001a 00BF     		.align	2
 446              	.L33:
 447 001c 6B650040 		.word	1073767787
 448              		.cfi_endproc
 449              	.LFE8:
 450              		.size	ShiftReg_Security_GetIntStatus, .-ShiftReg_Security_GetIntStatus
 451              		.section	.text.ShiftReg_Security_WriteRegValue,"ax",%progbits
 452              		.align	2
 453              		.global	ShiftReg_Security_WriteRegValue
 454              		.thumb
 455              		.thumb_func
 456              		.type	ShiftReg_Security_WriteRegValue, %function
ARM GAS  C:\Users\RECEPC~1\AppData\Local\Temp\ccJ7VxCK.s 			page 14


 457              	ShiftReg_Security_WriteRegValue:
 458              	.LFB9:
 286:.\Generated_Source\PSoC5/ShiftReg_Security.c **** 
 287:.\Generated_Source\PSoC5/ShiftReg_Security.c **** 
 288:.\Generated_Source\PSoC5/ShiftReg_Security.c **** /*******************************************************************************
 289:.\Generated_Source\PSoC5/ShiftReg_Security.c **** * Function Name: ShiftReg_Security_WriteRegValue
 290:.\Generated_Source\PSoC5/ShiftReg_Security.c **** ********************************************************************************
 291:.\Generated_Source\PSoC5/ShiftReg_Security.c **** *
 292:.\Generated_Source\PSoC5/ShiftReg_Security.c **** * Summary:
 293:.\Generated_Source\PSoC5/ShiftReg_Security.c **** *  Send state directly to shift register
 294:.\Generated_Source\PSoC5/ShiftReg_Security.c **** *
 295:.\Generated_Source\PSoC5/ShiftReg_Security.c **** * Parameters:
 296:.\Generated_Source\PSoC5/ShiftReg_Security.c **** *  shiftData: containing shift register state.
 297:.\Generated_Source\PSoC5/ShiftReg_Security.c **** *
 298:.\Generated_Source\PSoC5/ShiftReg_Security.c **** * Return:
 299:.\Generated_Source\PSoC5/ShiftReg_Security.c **** *  None.
 300:.\Generated_Source\PSoC5/ShiftReg_Security.c **** *
 301:.\Generated_Source\PSoC5/ShiftReg_Security.c **** *******************************************************************************/
 302:.\Generated_Source\PSoC5/ShiftReg_Security.c **** void ShiftReg_Security_WriteRegValue(uint8 shiftData)
 303:.\Generated_Source\PSoC5/ShiftReg_Security.c ****                                                                      
 304:.\Generated_Source\PSoC5/ShiftReg_Security.c **** {
 459              		.loc 1 304 0
 460              		.cfi_startproc
 461              		@ args = 0, pretend = 0, frame = 8
 462              		@ frame_needed = 1, uses_anonymous_args = 0
 463              		@ link register save eliminated.
 464 0000 80B4     		push	{r7}
 465              		.cfi_def_cfa_offset 4
 466              		.cfi_offset 7, -4
 467 0002 83B0     		sub	sp, sp, #12
 468              		.cfi_def_cfa_offset 16
 469 0004 00AF     		add	r7, sp, #0
 470              		.cfi_def_cfa_register 7
 471 0006 0346     		mov	r3, r0
 472 0008 FB71     		strb	r3, [r7, #7]
 305:.\Generated_Source\PSoC5/ShiftReg_Security.c ****     CY_SET_REG8(ShiftReg_Security_SHIFT_REG_LSB_PTR, shiftData);
 473              		.loc 1 305 0
 474 000a 044A     		ldr	r2, .L36
 475 000c FB79     		ldrb	r3, [r7, #7]
 476 000e 1370     		strb	r3, [r2]
 306:.\Generated_Source\PSoC5/ShiftReg_Security.c **** }
 477              		.loc 1 306 0
 478 0010 0C37     		adds	r7, r7, #12
 479              		.cfi_def_cfa_offset 4
 480 0012 BD46     		mov	sp, r7
 481              		.cfi_def_cfa_register 13
 482              		@ sp needed
 483 0014 5DF8047B 		ldr	r7, [sp], #4
 484              		.cfi_restore 7
 485              		.cfi_def_cfa_offset 0
 486 0018 7047     		bx	lr
 487              	.L37:
 488 001a 00BF     		.align	2
 489              	.L36:
 490 001c 07640040 		.word	1073767431
 491              		.cfi_endproc
 492              	.LFE9:
ARM GAS  C:\Users\RECEPC~1\AppData\Local\Temp\ccJ7VxCK.s 			page 15


 493              		.size	ShiftReg_Security_WriteRegValue, .-ShiftReg_Security_WriteRegValue
 494              		.section	.text.ShiftReg_Security_ReadRegValue,"ax",%progbits
 495              		.align	2
 496              		.global	ShiftReg_Security_ReadRegValue
 497              		.thumb
 498              		.thumb_func
 499              		.type	ShiftReg_Security_ReadRegValue, %function
 500              	ShiftReg_Security_ReadRegValue:
 501              	.LFB10:
 307:.\Generated_Source\PSoC5/ShiftReg_Security.c **** 
 308:.\Generated_Source\PSoC5/ShiftReg_Security.c **** 
 309:.\Generated_Source\PSoC5/ShiftReg_Security.c **** #if(0u != ShiftReg_Security_USE_INPUT_FIFO)
 310:.\Generated_Source\PSoC5/ShiftReg_Security.c ****     /*******************************************************************************
 311:.\Generated_Source\PSoC5/ShiftReg_Security.c ****     * Function Name: ShiftReg_Security_WriteData
 312:.\Generated_Source\PSoC5/ShiftReg_Security.c ****     ********************************************************************************
 313:.\Generated_Source\PSoC5/ShiftReg_Security.c ****     *
 314:.\Generated_Source\PSoC5/ShiftReg_Security.c ****     * Summary:
 315:.\Generated_Source\PSoC5/ShiftReg_Security.c ****     *  Send state to FIFO for later transfer to shift register based on the Load
 316:.\Generated_Source\PSoC5/ShiftReg_Security.c ****     *  input
 317:.\Generated_Source\PSoC5/ShiftReg_Security.c ****     *
 318:.\Generated_Source\PSoC5/ShiftReg_Security.c ****     * Parameters:
 319:.\Generated_Source\PSoC5/ShiftReg_Security.c ****     *  shiftData: containing shift register state.
 320:.\Generated_Source\PSoC5/ShiftReg_Security.c ****     *
 321:.\Generated_Source\PSoC5/ShiftReg_Security.c ****     * Return:
 322:.\Generated_Source\PSoC5/ShiftReg_Security.c ****     *  Indicates: successful execution of function
 323:.\Generated_Source\PSoC5/ShiftReg_Security.c ****     *  when FIFO is empty; and error when FIFO is full.
 324:.\Generated_Source\PSoC5/ShiftReg_Security.c ****     *
 325:.\Generated_Source\PSoC5/ShiftReg_Security.c ****     * Reentrant:
 326:.\Generated_Source\PSoC5/ShiftReg_Security.c ****     *  No.
 327:.\Generated_Source\PSoC5/ShiftReg_Security.c ****     *
 328:.\Generated_Source\PSoC5/ShiftReg_Security.c ****     *******************************************************************************/
 329:.\Generated_Source\PSoC5/ShiftReg_Security.c ****     cystatus ShiftReg_Security_WriteData(uint8 shiftData)
 330:.\Generated_Source\PSoC5/ShiftReg_Security.c ****                                                                          
 331:.\Generated_Source\PSoC5/ShiftReg_Security.c ****     {
 332:.\Generated_Source\PSoC5/ShiftReg_Security.c ****         cystatus result;
 333:.\Generated_Source\PSoC5/ShiftReg_Security.c **** 
 334:.\Generated_Source\PSoC5/ShiftReg_Security.c ****         result = CYRET_INVALID_STATE;
 335:.\Generated_Source\PSoC5/ShiftReg_Security.c **** 
 336:.\Generated_Source\PSoC5/ShiftReg_Security.c ****         /* Writes data into the input FIFO if it is not FULL */
 337:.\Generated_Source\PSoC5/ShiftReg_Security.c ****         if(ShiftReg_Security_RET_FIFO_FULL != (ShiftReg_Security_GetFIFOStatus(ShiftReg_Security_IN
 338:.\Generated_Source\PSoC5/ShiftReg_Security.c ****         {
 339:.\Generated_Source\PSoC5/ShiftReg_Security.c ****             CY_SET_REG8(ShiftReg_Security_IN_FIFO_VAL_LSB_PTR, shiftData);
 340:.\Generated_Source\PSoC5/ShiftReg_Security.c ****             result = CYRET_SUCCESS;
 341:.\Generated_Source\PSoC5/ShiftReg_Security.c ****         }
 342:.\Generated_Source\PSoC5/ShiftReg_Security.c **** 
 343:.\Generated_Source\PSoC5/ShiftReg_Security.c ****         return(result);
 344:.\Generated_Source\PSoC5/ShiftReg_Security.c ****     }
 345:.\Generated_Source\PSoC5/ShiftReg_Security.c **** #endif /* (0u != ShiftReg_Security_USE_INPUT_FIFO) */
 346:.\Generated_Source\PSoC5/ShiftReg_Security.c **** 
 347:.\Generated_Source\PSoC5/ShiftReg_Security.c **** 
 348:.\Generated_Source\PSoC5/ShiftReg_Security.c **** #if(0u != ShiftReg_Security_USE_OUTPUT_FIFO)
 349:.\Generated_Source\PSoC5/ShiftReg_Security.c ****     /*******************************************************************************
 350:.\Generated_Source\PSoC5/ShiftReg_Security.c ****     * Function Name: ShiftReg_Security_ReadData
 351:.\Generated_Source\PSoC5/ShiftReg_Security.c ****     ********************************************************************************
 352:.\Generated_Source\PSoC5/ShiftReg_Security.c ****     *
 353:.\Generated_Source\PSoC5/ShiftReg_Security.c ****     * Summary:
 354:.\Generated_Source\PSoC5/ShiftReg_Security.c ****     *  Returns state in FIFO due to Store input.
ARM GAS  C:\Users\RECEPC~1\AppData\Local\Temp\ccJ7VxCK.s 			page 16


 355:.\Generated_Source\PSoC5/ShiftReg_Security.c ****     *
 356:.\Generated_Source\PSoC5/ShiftReg_Security.c ****     * Parameters:
 357:.\Generated_Source\PSoC5/ShiftReg_Security.c ****     *  None.
 358:.\Generated_Source\PSoC5/ShiftReg_Security.c ****     *
 359:.\Generated_Source\PSoC5/ShiftReg_Security.c ****     * Return:
 360:.\Generated_Source\PSoC5/ShiftReg_Security.c ****     *  Shift Register state
 361:.\Generated_Source\PSoC5/ShiftReg_Security.c ****     *
 362:.\Generated_Source\PSoC5/ShiftReg_Security.c ****     * Reentrant:
 363:.\Generated_Source\PSoC5/ShiftReg_Security.c ****     *  No.
 364:.\Generated_Source\PSoC5/ShiftReg_Security.c ****     *
 365:.\Generated_Source\PSoC5/ShiftReg_Security.c ****     *******************************************************************************/
 366:.\Generated_Source\PSoC5/ShiftReg_Security.c ****     uint8 ShiftReg_Security_ReadData(void) 
 367:.\Generated_Source\PSoC5/ShiftReg_Security.c ****     {
 368:.\Generated_Source\PSoC5/ShiftReg_Security.c ****         return(CY_GET_REG8(ShiftReg_Security_OUT_FIFO_VAL_LSB_PTR));
 369:.\Generated_Source\PSoC5/ShiftReg_Security.c ****     }
 370:.\Generated_Source\PSoC5/ShiftReg_Security.c **** #endif /* (0u != ShiftReg_Security_USE_OUTPUT_FIFO) */
 371:.\Generated_Source\PSoC5/ShiftReg_Security.c **** 
 372:.\Generated_Source\PSoC5/ShiftReg_Security.c **** 
 373:.\Generated_Source\PSoC5/ShiftReg_Security.c **** /*******************************************************************************
 374:.\Generated_Source\PSoC5/ShiftReg_Security.c **** * Function Name: ShiftReg_Security_ReadRegValue
 375:.\Generated_Source\PSoC5/ShiftReg_Security.c **** ********************************************************************************
 376:.\Generated_Source\PSoC5/ShiftReg_Security.c **** *
 377:.\Generated_Source\PSoC5/ShiftReg_Security.c **** * Summary:
 378:.\Generated_Source\PSoC5/ShiftReg_Security.c **** *  Directly returns current state in shift register, not data in FIFO due
 379:.\Generated_Source\PSoC5/ShiftReg_Security.c **** *  to Store input.
 380:.\Generated_Source\PSoC5/ShiftReg_Security.c **** *
 381:.\Generated_Source\PSoC5/ShiftReg_Security.c **** * Parameters:
 382:.\Generated_Source\PSoC5/ShiftReg_Security.c **** *  None.
 383:.\Generated_Source\PSoC5/ShiftReg_Security.c **** *
 384:.\Generated_Source\PSoC5/ShiftReg_Security.c **** * Return:
 385:.\Generated_Source\PSoC5/ShiftReg_Security.c **** *  Shift Register state. Clears output FIFO.
 386:.\Generated_Source\PSoC5/ShiftReg_Security.c **** *
 387:.\Generated_Source\PSoC5/ShiftReg_Security.c **** * Reentrant:
 388:.\Generated_Source\PSoC5/ShiftReg_Security.c **** *  No.
 389:.\Generated_Source\PSoC5/ShiftReg_Security.c **** *
 390:.\Generated_Source\PSoC5/ShiftReg_Security.c **** *******************************************************************************/
 391:.\Generated_Source\PSoC5/ShiftReg_Security.c **** uint8 ShiftReg_Security_ReadRegValue(void) 
 392:.\Generated_Source\PSoC5/ShiftReg_Security.c **** {
 502              		.loc 1 392 0
 503              		.cfi_startproc
 504              		@ args = 0, pretend = 0, frame = 8
 505              		@ frame_needed = 1, uses_anonymous_args = 0
 506 0000 80B5     		push	{r7, lr}
 507              		.cfi_def_cfa_offset 8
 508              		.cfi_offset 7, -8
 509              		.cfi_offset 14, -4
 510 0002 82B0     		sub	sp, sp, #8
 511              		.cfi_def_cfa_offset 16
 512 0004 00AF     		add	r7, sp, #0
 513              		.cfi_def_cfa_register 7
 393:.\Generated_Source\PSoC5/ShiftReg_Security.c ****     uint8 result;
 394:.\Generated_Source\PSoC5/ShiftReg_Security.c **** 
 395:.\Generated_Source\PSoC5/ShiftReg_Security.c ****     /* Clear FIFO before software capture */
 396:.\Generated_Source\PSoC5/ShiftReg_Security.c ****     while(ShiftReg_Security_RET_FIFO_EMPTY != ShiftReg_Security_GetFIFOStatus(ShiftReg_Security_OUT
 514              		.loc 1 396 0
 515 0006 01E0     		b	.L39
 516              	.L40:
ARM GAS  C:\Users\RECEPC~1\AppData\Local\Temp\ccJ7VxCK.s 			page 17


 397:.\Generated_Source\PSoC5/ShiftReg_Security.c ****     {
 398:.\Generated_Source\PSoC5/ShiftReg_Security.c ****         (void) CY_GET_REG8(ShiftReg_Security_OUT_FIFO_VAL_LSB_PTR);
 517              		.loc 1 398 0
 518 0008 084B     		ldr	r3, .L42
 519 000a 1B78     		ldrb	r3, [r3]
 520              	.L39:
 396:.\Generated_Source\PSoC5/ShiftReg_Security.c ****     {
 521              		.loc 1 396 0
 522 000c 0220     		movs	r0, #2
 523 000e FFF7FEFF 		bl	ShiftReg_Security_GetFIFOStatus
 524 0012 0346     		mov	r3, r0
 525 0014 022B     		cmp	r3, #2
 526 0016 F7D1     		bne	.L40
 399:.\Generated_Source\PSoC5/ShiftReg_Security.c ****     }
 400:.\Generated_Source\PSoC5/ShiftReg_Security.c **** 
 401:.\Generated_Source\PSoC5/ShiftReg_Security.c ****     /* Read of 8 bits from A1 causes capture to output FIFO */
 402:.\Generated_Source\PSoC5/ShiftReg_Security.c ****     (void) CY_GET_REG8(ShiftReg_Security_SHIFT_REG_CAPTURE_PTR);
 527              		.loc 1 402 0
 528 0018 054B     		ldr	r3, .L42+4
 529 001a 1B78     		ldrb	r3, [r3]
 403:.\Generated_Source\PSoC5/ShiftReg_Security.c **** 
 404:.\Generated_Source\PSoC5/ShiftReg_Security.c ****     /* Read output FIFO */
 405:.\Generated_Source\PSoC5/ShiftReg_Security.c ****     result  = CY_GET_REG8(ShiftReg_Security_OUT_FIFO_VAL_LSB_PTR);
 530              		.loc 1 405 0
 531 001c 034B     		ldr	r3, .L42
 532 001e 1B78     		ldrb	r3, [r3]
 533 0020 FB71     		strb	r3, [r7, #7]
 406:.\Generated_Source\PSoC5/ShiftReg_Security.c ****     
 407:.\Generated_Source\PSoC5/ShiftReg_Security.c ****     #if(0u != (ShiftReg_Security_SR_SIZE % 8u))
 408:.\Generated_Source\PSoC5/ShiftReg_Security.c ****         result &= ((uint8) ShiftReg_Security_SR_MASK);
 409:.\Generated_Source\PSoC5/ShiftReg_Security.c ****     #endif /* (0u != (ShiftReg_Security_SR_SIZE % 8u)) */
 410:.\Generated_Source\PSoC5/ShiftReg_Security.c ****     
 411:.\Generated_Source\PSoC5/ShiftReg_Security.c ****     return(result);
 534              		.loc 1 411 0
 535 0022 FB79     		ldrb	r3, [r7, #7]	@ zero_extendqisi2
 412:.\Generated_Source\PSoC5/ShiftReg_Security.c **** }
 536              		.loc 1 412 0
 537 0024 1846     		mov	r0, r3
 538 0026 0837     		adds	r7, r7, #8
 539              		.cfi_def_cfa_offset 8
 540 0028 BD46     		mov	sp, r7
 541              		.cfi_def_cfa_register 13
 542              		@ sp needed
 543 002a 80BD     		pop	{r7, pc}
 544              	.L43:
 545              		.align	2
 546              	.L42:
 547 002c 57640040 		.word	1073767511
 548 0030 17640040 		.word	1073767447
 549              		.cfi_endproc
 550              	.LFE10:
 551              		.size	ShiftReg_Security_ReadRegValue, .-ShiftReg_Security_ReadRegValue
 552              		.text
 553              	.Letext0:
 554              		.file 2 ".\\Generated_Source\\PSoC5\\cytypes.h"