ARM GAS  C:\Users\RECEPC~1\AppData\Local\Temp\ccXijmEh.s 			page 1


   1              		.syntax unified
   2              		.cpu cortex-m3
   3              		.fpu softvfp
   4              		.eabi_attribute 20, 1
   5              		.eabi_attribute 21, 1
   6              		.eabi_attribute 23, 3
   7              		.eabi_attribute 24, 1
   8              		.eabi_attribute 25, 1
   9              		.eabi_attribute 26, 1
  10              		.eabi_attribute 30, 6
  11              		.eabi_attribute 34, 1
  12              		.eabi_attribute 18, 4
  13              		.thumb
  14              		.file	"SinkManager.c"
  15              		.text
  16              	.Ltext0:
  17              		.cfi_sections	.debug_frame
  18              		.comm	_g_pretval,16,4
  19              		.comm	_g_sinkmessagequeue,19584,4
  20              		.comm	_g_sinksubscriberqueue,704,4
  21              		.section	.text.SinkManagerRegistration,"ax",%progbits
  22              		.align	2
  23              		.global	SinkManagerRegistration
  24              		.thumb
  25              		.thumb_func
  26              		.type	SinkManagerRegistration, %function
  27              	SinkManagerRegistration:
  28              	.LFB63:
  29              		.file 1 ".\\SinkManager.c"
   1:.\SinkManager.c **** /* ========================================
   2:.\SinkManager.c ****  *
   3:.\SinkManager.c ****  * Copyright INSEPET SISTEMAS, 2016
   4:.\SinkManager.c ****  * All Rights Reserved
   5:.\SinkManager.c ****  * UNPUBLISHED, LICENSED SOFTWARE.
   6:.\SinkManager.c ****  *
   7:.\SinkManager.c ****  * CONFIDENTIAL AND PROPRIETARY INFORMATION
   8:.\SinkManager.c ****  * WHICH IS THE PROPERTY OF your company.
   9:.\SinkManager.c ****  *
  10:.\SinkManager.c ****  * ========================================
  11:.\SinkManager.c **** @Created by: HIJH
  12:.\SinkManager.c **** @Date: Septembre 2 de 2016
  13:.\SinkManager.c **** */
  14:.\SinkManager.c **** 
  15:.\SinkManager.c **** #include <project.h>
  16:.\SinkManager.c **** 
  17:.\SinkManager.c **** #include "GlobalDefinitions.h"
  18:.\SinkManager.c **** #include "SinkManager.h"
  19:.\SinkManager.c **** #include "SinkObservables.h"
  20:.\SinkManager.c **** 
  21:.\SinkManager.c **** void SinkHandler();
  22:.\SinkManager.c **** void SinkBroadcast(SinkMessage *pmsg);
  23:.\SinkManager.c **** void SinkFirstFound(SinkMessage *pmsg);
  24:.\SinkManager.c **** void SinkAllInterested(SinkMessage *pmsg);
  25:.\SinkManager.c **** void SinkBroadcastForever(SinkMessage *pmsg);
  26:.\SinkManager.c **** void SinkCounterUpdateCallback(void *pdata);
  27:.\SinkManager.c **** void SinkReleaseByIDCallback(void *pparam);
  28:.\SinkManager.c **** void SinkReleaseByPtrCallback(void *pparam);
ARM GAS  C:\Users\RECEPC~1\AppData\Local\Temp\ccXijmEh.s 			page 2


  29:.\SinkManager.c **** 
  30:.\SinkManager.c **** PSINKMESSAGEPTR _g_pretval[0x04];
  31:.\SinkManager.c **** 
  32:.\SinkManager.c **** SinkMessage _g_sinkmessagequeue[_MESSAGE_QUEUE_DEPTH_];
  33:.\SinkManager.c **** SinkSubscriber _g_sinksubscriberqueue[_SUBSCRIBER_QUEUE_DEPTH_];
  34:.\SinkManager.c **** 
  35:.\SinkManager.c **** //@Created By: HIJH
  36:.\SinkManager.c **** //@Septembre de 2016
  37:.\SinkManager.c **** void SinkManagerRegistration()
  38:.\SinkManager.c **** {
  30              		.loc 1 38 0
  31              		.cfi_startproc
  32              		@ args = 0, pretend = 0, frame = 16
  33              		@ frame_needed = 1, uses_anonymous_args = 0
  34 0000 80B5     		push	{r7, lr}
  35              		.cfi_def_cfa_offset 8
  36              		.cfi_offset 7, -8
  37              		.cfi_offset 14, -4
  38 0002 84B0     		sub	sp, sp, #16
  39              		.cfi_def_cfa_offset 24
  40 0004 00AF     		add	r7, sp, #0
  41              		.cfi_def_cfa_register 7
  39:.\SinkManager.c ****     uint8 index = 0;
  42              		.loc 1 39 0
  43 0006 0023     		movs	r3, #0
  44 0008 FB73     		strb	r3, [r7, #15]
  40:.\SinkManager.c ****     for(; index < _MESSAGE_QUEUE_DEPTH_; index++)
  45              		.loc 1 40 0
  46 000a 2CE0     		b	.L2
  47              	.L3:
  41:.\SinkManager.c ****     {
  42:.\SinkManager.c ****         _g_sinkmessagequeue[index]._messageid = 0x00;
  48              		.loc 1 42 0 discriminator 2
  49 000c FB7B     		ldrb	r3, [r7, #15]	@ zero_extendqisi2
  50 000e 484A     		ldr	r2, .L7
  51 0010 4FF4CC71 		mov	r1, #408
  52 0014 01FB03F3 		mul	r3, r1, r3
  53 0018 1344     		add	r3, r3, r2
  54 001a 0022     		movs	r2, #0
  55 001c 5A70     		strb	r2, [r3, #1]
  43:.\SinkManager.c ****         _g_sinkmessagequeue[index]._messagestate = SINK_FREE;
  56              		.loc 1 43 0 discriminator 2
  57 001e FB7B     		ldrb	r3, [r7, #15]	@ zero_extendqisi2
  58 0020 434A     		ldr	r2, .L7
  59 0022 4FF4CC71 		mov	r1, #408
  60 0026 01FB03F3 		mul	r3, r1, r3
  61 002a 1344     		add	r3, r3, r2
  62 002c 0122     		movs	r2, #1
  63 002e DA70     		strb	r2, [r3, #3]
  44:.\SinkManager.c ****         _g_sinkmessagequeue[index]._messagetype = NONE;
  64              		.loc 1 44 0 discriminator 2
  65 0030 FB7B     		ldrb	r3, [r7, #15]	@ zero_extendqisi2
  66 0032 3F4A     		ldr	r2, .L7
  67 0034 4FF4CC71 		mov	r1, #408
  68 0038 01FB03F3 		mul	r3, r1, r3
  69 003c 1344     		add	r3, r3, r2
  70 003e 0122     		movs	r2, #1
ARM GAS  C:\Users\RECEPC~1\AppData\Local\Temp\ccXijmEh.s 			page 3


  71 0040 9A70     		strb	r2, [r3, #2]
  45:.\SinkManager.c ****         memset(_g_sinkmessagequeue[index]._buffer, 0x00, sizeof(_g_sinkmessagequeue[index]._buffer)
  72              		.loc 1 45 0 discriminator 2
  73 0042 FB7B     		ldrb	r3, [r7, #15]	@ zero_extendqisi2
  74 0044 4FF4CC72 		mov	r2, #408
  75 0048 02FB03F3 		mul	r3, r2, r3
  76 004c 0833     		adds	r3, r3, #8
  77 004e 384A     		ldr	r2, .L7
  78 0050 1344     		add	r3, r3, r2
  79 0052 0433     		adds	r3, r3, #4
  80 0054 1846     		mov	r0, r3
  81 0056 0021     		movs	r1, #0
  82 0058 4FF4C072 		mov	r2, #384
  83 005c FFF7FEFF 		bl	memset
  40:.\SinkManager.c ****     {
  84              		.loc 1 40 0 discriminator 2
  85 0060 FB7B     		ldrb	r3, [r7, #15]	@ zero_extendqisi2
  86 0062 0133     		adds	r3, r3, #1
  87 0064 FB73     		strb	r3, [r7, #15]
  88              	.L2:
  40:.\SinkManager.c ****     {
  89              		.loc 1 40 0 is_stmt 0 discriminator 1
  90 0066 FB7B     		ldrb	r3, [r7, #15]	@ zero_extendqisi2
  91 0068 2F2B     		cmp	r3, #47
  92 006a CFD9     		bls	.L3
  46:.\SinkManager.c ****     }
  47:.\SinkManager.c **** 
  48:.\SinkManager.c ****     for(index = 0; index < _SUBSCRIBER_QUEUE_DEPTH_; index++)
  93              		.loc 1 48 0 is_stmt 1
  94 006c 0023     		movs	r3, #0
  95 006e FB73     		strb	r3, [r7, #15]
  96 0070 23E0     		b	.L4
  97              	.L5:
  49:.\SinkManager.c ****     {
  50:.\SinkManager.c ****         _g_sinksubscriberqueue[index]._state = SINK_FREE;
  98              		.loc 1 50 0 discriminator 3
  99 0072 FB7B     		ldrb	r3, [r7, #15]	@ zero_extendqisi2
 100 0074 2F4A     		ldr	r2, .L7+4
 101 0076 2C21     		movs	r1, #44
 102 0078 01FB03F3 		mul	r3, r1, r3
 103 007c 1344     		add	r3, r3, r2
 104 007e 0122     		movs	r2, #1
 105 0080 1A70     		strb	r2, [r3]
  51:.\SinkManager.c ****         memset(_g_sinksubscriberqueue[index]._arrmsgid, 0x00, sizeof(_g_sinksubscriberqueue[index].
 106              		.loc 1 51 0 discriminator 3
 107 0082 FB7B     		ldrb	r3, [r7, #15]	@ zero_extendqisi2
 108 0084 2C22     		movs	r2, #44
 109 0086 02FB03F3 		mul	r3, r2, r3
 110 008a 2A4A     		ldr	r2, .L7+4
 111 008c 1344     		add	r3, r3, r2
 112 008e 0133     		adds	r3, r3, #1
 113 0090 1846     		mov	r0, r3
 114 0092 0021     		movs	r1, #0
 115 0094 0822     		movs	r2, #8
 116 0096 FFF7FEFF 		bl	memset
  52:.\SinkManager.c ****         memset(_g_sinksubscriberqueue[index].Callback, 0x00, sizeof(_g_sinksubscriberqueue[index]._
 117              		.loc 1 52 0 discriminator 3
ARM GAS  C:\Users\RECEPC~1\AppData\Local\Temp\ccXijmEh.s 			page 4


 118 009a FB7B     		ldrb	r3, [r7, #15]	@ zero_extendqisi2
 119 009c 2C22     		movs	r2, #44
 120 009e 02FB03F3 		mul	r3, r2, r3
 121 00a2 0833     		adds	r3, r3, #8
 122 00a4 234A     		ldr	r2, .L7+4
 123 00a6 1344     		add	r3, r3, r2
 124 00a8 0433     		adds	r3, r3, #4
 125 00aa 1846     		mov	r0, r3
 126 00ac 0021     		movs	r1, #0
 127 00ae 0822     		movs	r2, #8
 128 00b0 FFF7FEFF 		bl	memset
  48:.\SinkManager.c ****     {
 129              		.loc 1 48 0 discriminator 3
 130 00b4 FB7B     		ldrb	r3, [r7, #15]	@ zero_extendqisi2
 131 00b6 0133     		adds	r3, r3, #1
 132 00b8 FB73     		strb	r3, [r7, #15]
 133              	.L4:
  48:.\SinkManager.c ****     {
 134              		.loc 1 48 0 is_stmt 0 discriminator 1
 135 00ba FB7B     		ldrb	r3, [r7, #15]	@ zero_extendqisi2
 136 00bc 0F2B     		cmp	r3, #15
 137 00be D8D9     		bls	.L5
  53:.\SinkManager.c ****     }
  54:.\SinkManager.c ****     
  55:.\SinkManager.c ****     //This subscriber from the very own SinkManager is the entry point
  56:.\SinkManager.c ****     //that will be used to update the timeout multipliers for the BROADCASTFOREVER messages.
  57:.\SinkManager.c ****     PSINKSUBSCRIBERPTR psubscriber = AllocateSubscriberSlot();
 138              		.loc 1 57 0 is_stmt 1
 139 00c0 FFF7FEFF 		bl	AllocateSubscriberSlot
 140 00c4 B860     		str	r0, [r7, #8]
  58:.\SinkManager.c ****     if(psubscriber)
 141              		.loc 1 58 0
 142 00c6 BB68     		ldr	r3, [r7, #8]
 143 00c8 002B     		cmp	r3, #0
 144 00ca 2BD0     		beq	.L6
 145              	.LBB2:
  59:.\SinkManager.c ****     {
  60:.\SinkManager.c ****         uint8 index = 0;
 146              		.loc 1 60 0
 147 00cc 0023     		movs	r3, #0
 148 00ce FB71     		strb	r3, [r7, #7]
  61:.\SinkManager.c ****         //The maximum number of observable identifiers is _OBSERVED_IDENTIFIERS_
  62:.\SinkManager.c ****         //located in the header file "SinkManager.h"
  63:.\SinkManager.c ****         //Every identifier is paired with its respective Callback method pointer
  64:.\SinkManager.c ****         psubscriber->_arrmsgid[index] = SINK_UPDATE_COUNTERS;
 149              		.loc 1 64 0
 150 00d0 FB79     		ldrb	r3, [r7, #7]	@ zero_extendqisi2
 151 00d2 BA68     		ldr	r2, [r7, #8]
 152 00d4 1344     		add	r3, r3, r2
 153 00d6 0422     		movs	r2, #4
 154 00d8 5A70     		strb	r2, [r3, #1]
  65:.\SinkManager.c ****         psubscriber->Callback[index++] = SinkCounterUpdateCallback;
 155              		.loc 1 65 0
 156 00da FB79     		ldrb	r3, [r7, #7]	@ zero_extendqisi2
 157 00dc 5A1C     		adds	r2, r3, #1
 158 00de FA71     		strb	r2, [r7, #7]
 159 00e0 BA68     		ldr	r2, [r7, #8]
ARM GAS  C:\Users\RECEPC~1\AppData\Local\Temp\ccXijmEh.s 			page 5


 160 00e2 0233     		adds	r3, r3, #2
 161 00e4 9B00     		lsls	r3, r3, #2
 162 00e6 1344     		add	r3, r3, r2
 163 00e8 134A     		ldr	r2, .L7+8
 164 00ea 5A60     		str	r2, [r3, #4]
  66:.\SinkManager.c ****         
  67:.\SinkManager.c ****         psubscriber->_arrmsgid[index] = SINK_RELEASE_BY_ID;
 165              		.loc 1 67 0
 166 00ec FB79     		ldrb	r3, [r7, #7]	@ zero_extendqisi2
 167 00ee BA68     		ldr	r2, [r7, #8]
 168 00f0 1344     		add	r3, r3, r2
 169 00f2 0522     		movs	r2, #5
 170 00f4 5A70     		strb	r2, [r3, #1]
  68:.\SinkManager.c ****         psubscriber->Callback[index++] = SinkReleaseByIDCallback;        
 171              		.loc 1 68 0
 172 00f6 FB79     		ldrb	r3, [r7, #7]	@ zero_extendqisi2
 173 00f8 5A1C     		adds	r2, r3, #1
 174 00fa FA71     		strb	r2, [r7, #7]
 175 00fc BA68     		ldr	r2, [r7, #8]
 176 00fe 0233     		adds	r3, r3, #2
 177 0100 9B00     		lsls	r3, r3, #2
 178 0102 1344     		add	r3, r3, r2
 179 0104 0D4A     		ldr	r2, .L7+12
 180 0106 5A60     		str	r2, [r3, #4]
  69:.\SinkManager.c ****         
  70:.\SinkManager.c ****         psubscriber->_arrmsgid[index] = SINK_RELEASE_BY_PTR;
 181              		.loc 1 70 0
 182 0108 FB79     		ldrb	r3, [r7, #7]	@ zero_extendqisi2
 183 010a BA68     		ldr	r2, [r7, #8]
 184 010c 1344     		add	r3, r3, r2
 185 010e 0622     		movs	r2, #6
 186 0110 5A70     		strb	r2, [r3, #1]
  71:.\SinkManager.c ****         psubscriber->Callback[index++] = SinkReleaseByPtrCallback;        
 187              		.loc 1 71 0
 188 0112 FB79     		ldrb	r3, [r7, #7]	@ zero_extendqisi2
 189 0114 5A1C     		adds	r2, r3, #1
 190 0116 FA71     		strb	r2, [r7, #7]
 191 0118 BA68     		ldr	r2, [r7, #8]
 192 011a 0233     		adds	r3, r3, #2
 193 011c 9B00     		lsls	r3, r3, #2
 194 011e 1344     		add	r3, r3, r2
 195 0120 074A     		ldr	r2, .L7+16
 196 0122 5A60     		str	r2, [r3, #4]
 197              	.L6:
 198              	.LBE2:
  72:.\SinkManager.c ****     }
  73:.\SinkManager.c ****     
  74:.\SinkManager.c ****     GLOBAL_LOOP_PUSH(SinkHandler);
 199              		.loc 1 74 0
 200 0124 0748     		ldr	r0, .L7+20
 201 0126 FFF7FEFF 		bl	loop_push
  75:.\SinkManager.c **** }
 202              		.loc 1 75 0
 203 012a 1037     		adds	r7, r7, #16
 204              		.cfi_def_cfa_offset 8
 205 012c BD46     		mov	sp, r7
 206              		.cfi_def_cfa_register 13
ARM GAS  C:\Users\RECEPC~1\AppData\Local\Temp\ccXijmEh.s 			page 6


 207              		@ sp needed
 208 012e 80BD     		pop	{r7, pc}
 209              	.L8:
 210              		.align	2
 211              	.L7:
 212 0130 00000000 		.word	_g_sinkmessagequeue
 213 0134 00000000 		.word	_g_sinksubscriberqueue
 214 0138 00000000 		.word	SinkCounterUpdateCallback
 215 013c 00000000 		.word	SinkReleaseByIDCallback
 216 0140 00000000 		.word	SinkReleaseByPtrCallback
 217 0144 00000000 		.word	SinkHandler
 218              		.cfi_endproc
 219              	.LFE63:
 220              		.size	SinkManagerRegistration, .-SinkManagerRegistration
 221              		.global	__aeabi_i2d
 222              		.global	__aeabi_ddiv
 223              		.global	__aeabi_dmul
 224              		.global	__aeabi_dadd
 225              		.global	__aeabi_d2uiz
 226              		.section	.text.AllocateMessageSlot,"ax",%progbits
 227              		.align	2
 228              		.global	AllocateMessageSlot
 229              		.thumb
 230              		.thumb_func
 231              		.type	AllocateMessageSlot, %function
 232              	AllocateMessageSlot:
 233              	.LFB64:
  76:.\SinkManager.c **** 
  77:.\SinkManager.c **** //@Created By: HIJH
  78:.\SinkManager.c **** //@Septembre de 2016
  79:.\SinkManager.c **** PSINKMESSAGEPTR AllocateMessageSlot()
  80:.\SinkManager.c **** {
 234              		.loc 1 80 0
 235              		.cfi_startproc
 236              		@ args = 0, pretend = 0, frame = 16
 237              		@ frame_needed = 1, uses_anonymous_args = 0
 238 0000 90B5     		push	{r4, r7, lr}
 239              		.cfi_def_cfa_offset 12
 240              		.cfi_offset 4, -12
 241              		.cfi_offset 7, -8
 242              		.cfi_offset 14, -4
 243 0002 85B0     		sub	sp, sp, #20
 244              		.cfi_def_cfa_offset 32
 245 0004 00AF     		add	r7, sp, #0
 246              		.cfi_def_cfa_register 7
  81:.\SinkManager.c ****     PSINKMESSAGEPTR pretval = NULL;
 247              		.loc 1 81 0
 248 0006 0023     		movs	r3, #0
 249 0008 FB60     		str	r3, [r7, #12]
 250              	.LBB3:
  82:.\SinkManager.c ****     
  83:.\SinkManager.c ****     //HIJH
  84:.\SinkManager.c ****     //This is to De-synchronize REENTRANT calls
  85:.\SinkManager.c ****     //CyDelayUs((uint16)((double)rand()/(double)RAND_MAX) + 1);
  86:.\SinkManager.c ****     RANDOMDELAY;
 251              		.loc 1 86 0
 252 000a FFF7FEFF 		bl	rand
ARM GAS  C:\Users\RECEPC~1\AppData\Local\Temp\ccXijmEh.s 			page 7


 253 000e 0346     		mov	r3, r0
 254 0010 1846     		mov	r0, r3
 255 0012 FFF7FEFF 		bl	__aeabi_i2d
 256 0016 0246     		mov	r2, r0
 257 0018 0B46     		mov	r3, r1
 258 001a 1046     		mov	r0, r2
 259 001c 1946     		mov	r1, r3
 260 001e 46A3     		adr	r3, .L16
 261 0020 D3E90023 		ldrd	r2, [r3]
 262 0024 FFF7FEFF 		bl	__aeabi_ddiv
 263 0028 0246     		mov	r2, r0
 264 002a 0B46     		mov	r3, r1
 265 002c 1046     		mov	r0, r2
 266 002e 1946     		mov	r1, r3
 267 0030 4FF00002 		mov	r2, #0
 268 0034 424B     		ldr	r3, .L16+8
 269 0036 FFF7FEFF 		bl	__aeabi_dmul
 270 003a 0246     		mov	r2, r0
 271 003c 0B46     		mov	r3, r1
 272 003e 1046     		mov	r0, r2
 273 0040 1946     		mov	r1, r3
 274 0042 4FF00002 		mov	r2, #0
 275 0046 3F4B     		ldr	r3, .L16+12
 276 0048 FFF7FEFF 		bl	__aeabi_dadd
 277 004c 0246     		mov	r2, r0
 278 004e 0B46     		mov	r3, r1
 279 0050 1046     		mov	r0, r2
 280 0052 1946     		mov	r1, r3
 281 0054 FFF7FEFF 		bl	__aeabi_d2uiz
 282 0058 0346     		mov	r3, r0
 283 005a FB80     		strh	r3, [r7, #6]	@ movhi
 284 005c 0023     		movs	r3, #0
 285 005e 7B81     		strh	r3, [r7, #10]	@ movhi
 286 0060 00BF     		nop
 287              	.L10:
 288              		.loc 1 86 0 is_stmt 0 discriminator 2
 289 0062 7B89     		ldrh	r3, [r7, #10]
 290 0064 5A1C     		adds	r2, r3, #1
 291 0066 7A81     		strh	r2, [r7, #10]	@ movhi
 292 0068 FA88     		ldrh	r2, [r7, #6]
 293 006a 9A42     		cmp	r2, r3
 294 006c F9D8     		bhi	.L10
 295              	.LBE3:
  87:.\SinkManager.c **** 
  88:.\SinkManager.c ****     FOR(uint8 index = 0, index < _MESSAGE_QUEUE_DEPTH_, index++)
 296              		.loc 1 88 0 is_stmt 1
 297 006e 0023     		movs	r3, #0
 298 0070 7B72     		strb	r3, [r7, #9]
 299 0072 57E0     		b	.L11
 300              	.L14:
  89:.\SinkManager.c ****     {
  90:.\SinkManager.c ****         if(_g_sinkmessagequeue[index]._messagestate == SINK_FREE)
 301              		.loc 1 90 0
 302 0074 7B7A     		ldrb	r3, [r7, #9]	@ zero_extendqisi2
 303 0076 344A     		ldr	r2, .L16+16
 304 0078 4FF4CC71 		mov	r1, #408
 305 007c 01FB03F3 		mul	r3, r1, r3
ARM GAS  C:\Users\RECEPC~1\AppData\Local\Temp\ccXijmEh.s 			page 8


 306 0080 1344     		add	r3, r3, r2
 307 0082 DB78     		ldrb	r3, [r3, #3]
 308 0084 DBB2     		uxtb	r3, r3
 309 0086 012B     		cmp	r3, #1
 310 0088 49D1     		bne	.L12
  91:.\SinkManager.c ****         {
  92:.\SinkManager.c ****             _g_sinkmessagequeue[index]._selfkill = false;
 311              		.loc 1 92 0
 312 008a 7B7A     		ldrb	r3, [r7, #9]	@ zero_extendqisi2
 313 008c 2E4A     		ldr	r2, .L16+16
 314 008e 4FF4CC71 		mov	r1, #408
 315 0092 01FB03F3 		mul	r3, r1, r3
 316 0096 1344     		add	r3, r3, r2
 317 0098 0022     		movs	r2, #0
 318 009a 1A70     		strb	r2, [r3]
  93:.\SinkManager.c ****             _g_sinkmessagequeue[index]._messagedelay = 0x0000;
 319              		.loc 1 93 0
 320 009c 7B7A     		ldrb	r3, [r7, #9]	@ zero_extendqisi2
 321 009e 2A4A     		ldr	r2, .L16+16
 322 00a0 4FF4CC71 		mov	r1, #408
 323 00a4 01FB03F3 		mul	r3, r1, r3
 324 00a8 1344     		add	r3, r3, r2
 325 00aa 0022     		movs	r2, #0
 326 00ac 9A80     		strh	r2, [r3, #4]	@ movhi
  94:.\SinkManager.c ****             _g_sinkmessagequeue[index]._messagestate = SINK_ALLOCATED;
 327              		.loc 1 94 0
 328 00ae 7B7A     		ldrb	r3, [r7, #9]	@ zero_extendqisi2
 329 00b0 254A     		ldr	r2, .L16+16
 330 00b2 4FF4CC71 		mov	r1, #408
 331 00b6 01FB03F3 		mul	r3, r1, r3
 332 00ba 1344     		add	r3, r3, r2
 333 00bc 0222     		movs	r2, #2
 334 00be DA70     		strb	r2, [r3, #3]
  95:.\SinkManager.c ****             _g_sinkmessagequeue[index]._messagetimeout = Timer_Tick_ReadCounter();
 335              		.loc 1 95 0
 336 00c0 7C7A     		ldrb	r4, [r7, #9]	@ zero_extendqisi2
 337 00c2 FFF7FEFF 		bl	Timer_Tick_ReadCounter
 338 00c6 0346     		mov	r3, r0
 339 00c8 1946     		mov	r1, r3
 340 00ca 1F4A     		ldr	r2, .L16+16
 341 00cc 4FF4CC73 		mov	r3, #408
 342 00d0 03FB04F3 		mul	r3, r3, r4
 343 00d4 1344     		add	r3, r3, r2
 344 00d6 0A46     		mov	r2, r1	@ movhi
 345 00d8 DA80     		strh	r2, [r3, #6]	@ movhi
  96:.\SinkManager.c ****             _g_sinkmessagequeue[index]._messagetimeoutmultiplier = 0;
 346              		.loc 1 96 0
 347 00da 7B7A     		ldrb	r3, [r7, #9]	@ zero_extendqisi2
 348 00dc 1A4A     		ldr	r2, .L16+16
 349 00de 4FF4CC71 		mov	r1, #408
 350 00e2 01FB03F3 		mul	r3, r1, r3
 351 00e6 1344     		add	r3, r3, r2
 352 00e8 0833     		adds	r3, r3, #8
 353 00ea 0022     		movs	r2, #0
 354 00ec 1A80     		strh	r2, [r3]	@ movhi
  97:.\SinkManager.c ****             memset(_g_sinkmessagequeue[index]._buffer, 0x00, _MESSAGE_LENGTH_);
 355              		.loc 1 97 0
ARM GAS  C:\Users\RECEPC~1\AppData\Local\Temp\ccXijmEh.s 			page 9


 356 00ee 7B7A     		ldrb	r3, [r7, #9]	@ zero_extendqisi2
 357 00f0 4FF4CC72 		mov	r2, #408
 358 00f4 02FB03F3 		mul	r3, r2, r3
 359 00f8 0833     		adds	r3, r3, #8
 360 00fa 134A     		ldr	r2, .L16+16
 361 00fc 1344     		add	r3, r3, r2
 362 00fe 0433     		adds	r3, r3, #4
 363 0100 1846     		mov	r0, r3
 364 0102 0021     		movs	r1, #0
 365 0104 4FF4C072 		mov	r2, #384
 366 0108 FFF7FEFF 		bl	memset
  98:.\SinkManager.c ****             pretval = &_g_sinkmessagequeue[index];
 367              		.loc 1 98 0
 368 010c 7B7A     		ldrb	r3, [r7, #9]	@ zero_extendqisi2
 369 010e 4FF4CC72 		mov	r2, #408
 370 0112 02FB03F3 		mul	r3, r2, r3
 371 0116 0C4A     		ldr	r2, .L16+16
 372 0118 1344     		add	r3, r3, r2
 373 011a FB60     		str	r3, [r7, #12]
  99:.\SinkManager.c ****             break;
 374              		.loc 1 99 0
 375 011c 05E0     		b	.L13
 376              	.L12:
  88:.\SinkManager.c ****     {
 377              		.loc 1 88 0 discriminator 2
 378 011e 7B7A     		ldrb	r3, [r7, #9]	@ zero_extendqisi2
 379 0120 0133     		adds	r3, r3, #1
 380 0122 7B72     		strb	r3, [r7, #9]
 381              	.L11:
  88:.\SinkManager.c ****     {
 382              		.loc 1 88 0 is_stmt 0 discriminator 1
 383 0124 7B7A     		ldrb	r3, [r7, #9]	@ zero_extendqisi2
 384 0126 2F2B     		cmp	r3, #47
 385 0128 A4D9     		bls	.L14
 386              	.L13:
 100:.\SinkManager.c ****         }
 101:.\SinkManager.c ****     }
 102:.\SinkManager.c ****     
 103:.\SinkManager.c ****     return pretval;
 387              		.loc 1 103 0 is_stmt 1
 388 012a FB68     		ldr	r3, [r7, #12]
 104:.\SinkManager.c **** }
 389              		.loc 1 104 0
 390 012c 1846     		mov	r0, r3
 391 012e 1437     		adds	r7, r7, #20
 392              		.cfi_def_cfa_offset 12
 393 0130 BD46     		mov	sp, r7
 394              		.cfi_def_cfa_register 13
 395              		@ sp needed
 396 0132 90BD     		pop	{r4, r7, pc}
 397              	.L17:
 398 0134 AFF30080 		.align	3
 399              	.L16:
 400 0138 0000C0FF 		.word	-4194304
 401 013c FFFFDF41 		.word	1105199103
 402 0140 00009040 		.word	1083179008
 403 0144 00002440 		.word	1076101120
ARM GAS  C:\Users\RECEPC~1\AppData\Local\Temp\ccXijmEh.s 			page 10


 404 0148 00000000 		.word	_g_sinkmessagequeue
 405              		.cfi_endproc
 406              	.LFE64:
 407              		.size	AllocateMessageSlot, .-AllocateMessageSlot
 408 014c AFF30080 		.section	.text.FindSinkMessage,"ax",%progbits
 409              		.align	2
 410              		.global	FindSinkMessage
 411              		.thumb
 412              		.thumb_func
 413              		.type	FindSinkMessage, %function
 414              	FindSinkMessage:
 415              	.LFB65:
 105:.\SinkManager.c **** 
 106:.\SinkManager.c **** //@Created By: HIJH
 107:.\SinkManager.c **** //@Septembre de 2016
 108:.\SinkManager.c **** bool FindSinkMessage(uint8 messageid)
 109:.\SinkManager.c **** {
 416              		.loc 1 109 0
 417              		.cfi_startproc
 418              		@ args = 0, pretend = 0, frame = 16
 419              		@ frame_needed = 1, uses_anonymous_args = 0
 420 0000 80B5     		push	{r7, lr}
 421              		.cfi_def_cfa_offset 8
 422              		.cfi_offset 7, -8
 423              		.cfi_offset 14, -4
 424 0002 84B0     		sub	sp, sp, #16
 425              		.cfi_def_cfa_offset 24
 426 0004 00AF     		add	r7, sp, #0
 427              		.cfi_def_cfa_register 7
 428 0006 0346     		mov	r3, r0
 429 0008 FB71     		strb	r3, [r7, #7]
 110:.\SinkManager.c ****     bool retval = false;
 430              		.loc 1 110 0
 431 000a 0023     		movs	r3, #0
 432 000c FB73     		strb	r3, [r7, #15]
 433              	.LBB4:
 111:.\SinkManager.c ****     
 112:.\SinkManager.c ****     //HIJH
 113:.\SinkManager.c ****     //This is to De-synchronize REENTRANT calls
 114:.\SinkManager.c ****     //CyDelayUs((uint16)((double)rand()/(double)RAND_MAX) + 1);
 115:.\SinkManager.c ****     RANDOMDELAY;
 434              		.loc 1 115 0
 435 000e FFF7FEFF 		bl	rand
 436 0012 0346     		mov	r3, r0
 437 0014 1846     		mov	r0, r3
 438 0016 FFF7FEFF 		bl	__aeabi_i2d
 439 001a 0246     		mov	r2, r0
 440 001c 0B46     		mov	r3, r1
 441 001e 1046     		mov	r0, r2
 442 0020 1946     		mov	r1, r3
 443 0022 23A3     		adr	r3, .L25
 444 0024 D3E90023 		ldrd	r2, [r3]
 445 0028 FFF7FEFF 		bl	__aeabi_ddiv
 446 002c 0246     		mov	r2, r0
 447 002e 0B46     		mov	r3, r1
 448 0030 1046     		mov	r0, r2
 449 0032 1946     		mov	r1, r3
ARM GAS  C:\Users\RECEPC~1\AppData\Local\Temp\ccXijmEh.s 			page 11


 450 0034 4FF00002 		mov	r2, #0
 451 0038 1F4B     		ldr	r3, .L25+8
 452 003a FFF7FEFF 		bl	__aeabi_dmul
 453 003e 0246     		mov	r2, r0
 454 0040 0B46     		mov	r3, r1
 455 0042 1046     		mov	r0, r2
 456 0044 1946     		mov	r1, r3
 457 0046 4FF00002 		mov	r2, #0
 458 004a 1C4B     		ldr	r3, .L25+12
 459 004c FFF7FEFF 		bl	__aeabi_dadd
 460 0050 0246     		mov	r2, r0
 461 0052 0B46     		mov	r3, r1
 462 0054 1046     		mov	r0, r2
 463 0056 1946     		mov	r1, r3
 464 0058 FFF7FEFF 		bl	__aeabi_d2uiz
 465 005c 0346     		mov	r3, r0
 466 005e 3B81     		strh	r3, [r7, #8]	@ movhi
 467 0060 0023     		movs	r3, #0
 468 0062 BB81     		strh	r3, [r7, #12]	@ movhi
 469 0064 00BF     		nop
 470              	.L19:
 471              		.loc 1 115 0 is_stmt 0 discriminator 2
 472 0066 BB89     		ldrh	r3, [r7, #12]
 473 0068 5A1C     		adds	r2, r3, #1
 474 006a BA81     		strh	r2, [r7, #12]	@ movhi
 475 006c 3A89     		ldrh	r2, [r7, #8]
 476 006e 9A42     		cmp	r2, r3
 477 0070 F9D8     		bhi	.L19
 478              	.LBE4:
 116:.\SinkManager.c ****     
 117:.\SinkManager.c ****     FOR(uint8 index = 0, index < _MESSAGE_QUEUE_DEPTH_, index++)
 479              		.loc 1 117 0 is_stmt 1
 480 0072 0023     		movs	r3, #0
 481 0074 FB72     		strb	r3, [r7, #11]
 482 0076 11E0     		b	.L20
 483              	.L23:
 118:.\SinkManager.c ****     {
 119:.\SinkManager.c ****         if(_g_sinkmessagequeue[index]._messageid == messageid)
 484              		.loc 1 119 0
 485 0078 FB7A     		ldrb	r3, [r7, #11]	@ zero_extendqisi2
 486 007a 114A     		ldr	r2, .L25+16
 487 007c 4FF4CC71 		mov	r1, #408
 488 0080 01FB03F3 		mul	r3, r1, r3
 489 0084 1344     		add	r3, r3, r2
 490 0086 5B78     		ldrb	r3, [r3, #1]
 491 0088 DBB2     		uxtb	r3, r3
 492 008a FA79     		ldrb	r2, [r7, #7]	@ zero_extendqisi2
 493 008c 9A42     		cmp	r2, r3
 494 008e 02D1     		bne	.L21
 120:.\SinkManager.c ****         {
 121:.\SinkManager.c ****             retval = true;
 495              		.loc 1 121 0
 496 0090 0123     		movs	r3, #1
 497 0092 FB73     		strb	r3, [r7, #15]
 122:.\SinkManager.c ****             break;
 498              		.loc 1 122 0
 499 0094 05E0     		b	.L22
ARM GAS  C:\Users\RECEPC~1\AppData\Local\Temp\ccXijmEh.s 			page 12


 500              	.L21:
 117:.\SinkManager.c ****     {
 501              		.loc 1 117 0 discriminator 2
 502 0096 FB7A     		ldrb	r3, [r7, #11]	@ zero_extendqisi2
 503 0098 0133     		adds	r3, r3, #1
 504 009a FB72     		strb	r3, [r7, #11]
 505              	.L20:
 117:.\SinkManager.c ****     {
 506              		.loc 1 117 0 is_stmt 0 discriminator 1
 507 009c FB7A     		ldrb	r3, [r7, #11]	@ zero_extendqisi2
 508 009e 2F2B     		cmp	r3, #47
 509 00a0 EAD9     		bls	.L23
 510              	.L22:
 123:.\SinkManager.c ****         }
 124:.\SinkManager.c ****     }
 125:.\SinkManager.c ****     return retval;
 511              		.loc 1 125 0 is_stmt 1
 512 00a2 FB7B     		ldrb	r3, [r7, #15]	@ zero_extendqisi2
 126:.\SinkManager.c **** }
 513              		.loc 1 126 0
 514 00a4 1846     		mov	r0, r3
 515 00a6 1037     		adds	r7, r7, #16
 516              		.cfi_def_cfa_offset 8
 517 00a8 BD46     		mov	sp, r7
 518              		.cfi_def_cfa_register 13
 519              		@ sp needed
 520 00aa 80BD     		pop	{r7, pc}
 521              	.L26:
 522 00ac AFF30080 		.align	3
 523              	.L25:
 524 00b0 0000C0FF 		.word	-4194304
 525 00b4 FFFFDF41 		.word	1105199103
 526 00b8 00009040 		.word	1083179008
 527 00bc 00002440 		.word	1076101120
 528 00c0 00000000 		.word	_g_sinkmessagequeue
 529              		.cfi_endproc
 530              	.LFE65:
 531              		.size	FindSinkMessage, .-FindSinkMessage
 532 00c4 AFF30080 		.section	.text.AllocateMessageSlotConditional,"ax",%progbits
 533              		.align	2
 534              		.global	AllocateMessageSlotConditional
 535              		.thumb
 536              		.thumb_func
 537              		.type	AllocateMessageSlotConditional, %function
 538              	AllocateMessageSlotConditional:
 539              	.LFB66:
 127:.\SinkManager.c **** 
 128:.\SinkManager.c **** //@Created By: HIJH
 129:.\SinkManager.c **** //@Septembre de 2016
 130:.\SinkManager.c **** PSINKMESSAGEPTR AllocateMessageSlotConditional(uint8 messageid)
 131:.\SinkManager.c **** {
 540              		.loc 1 131 0
 541              		.cfi_startproc
 542              		@ args = 0, pretend = 0, frame = 24
 543              		@ frame_needed = 1, uses_anonymous_args = 0
 544 0000 90B5     		push	{r4, r7, lr}
 545              		.cfi_def_cfa_offset 12
ARM GAS  C:\Users\RECEPC~1\AppData\Local\Temp\ccXijmEh.s 			page 13


 546              		.cfi_offset 4, -12
 547              		.cfi_offset 7, -8
 548              		.cfi_offset 14, -4
 549 0002 87B0     		sub	sp, sp, #28
 550              		.cfi_def_cfa_offset 40
 551 0004 00AF     		add	r7, sp, #0
 552              		.cfi_def_cfa_register 7
 553 0006 0346     		mov	r3, r0
 554 0008 FB71     		strb	r3, [r7, #7]
 132:.\SinkManager.c ****     PSINKMESSAGEPTR pretval = NULL;
 555              		.loc 1 132 0
 556 000a 0023     		movs	r3, #0
 557 000c 7B61     		str	r3, [r7, #20]
 558              	.LBB5:
 133:.\SinkManager.c ****     
 134:.\SinkManager.c ****     //HIJH
 135:.\SinkManager.c ****     //This is to De-synchronize REENTRANT calls
 136:.\SinkManager.c ****     //CyDelayUs((uint16)((double)rand()/(double)RAND_MAX) + 1);
 137:.\SinkManager.c ****     RANDOMDELAY;
 559              		.loc 1 137 0
 560 000e FFF7FEFF 		bl	rand
 561 0012 0346     		mov	r3, r0
 562 0014 1846     		mov	r0, r3
 563 0016 FFF7FEFF 		bl	__aeabi_i2d
 564 001a 0246     		mov	r2, r0
 565 001c 0B46     		mov	r3, r1
 566 001e 1046     		mov	r0, r2
 567 0020 1946     		mov	r1, r3
 568 0022 55A3     		adr	r3, .L37
 569 0024 D3E90023 		ldrd	r2, [r3]
 570 0028 FFF7FEFF 		bl	__aeabi_ddiv
 571 002c 0246     		mov	r2, r0
 572 002e 0B46     		mov	r3, r1
 573 0030 1046     		mov	r0, r2
 574 0032 1946     		mov	r1, r3
 575 0034 4FF00002 		mov	r2, #0
 576 0038 514B     		ldr	r3, .L37+8
 577 003a FFF7FEFF 		bl	__aeabi_dmul
 578 003e 0246     		mov	r2, r0
 579 0040 0B46     		mov	r3, r1
 580 0042 1046     		mov	r0, r2
 581 0044 1946     		mov	r1, r3
 582 0046 4FF00002 		mov	r2, #0
 583 004a 4E4B     		ldr	r3, .L37+12
 584 004c FFF7FEFF 		bl	__aeabi_dadd
 585 0050 0246     		mov	r2, r0
 586 0052 0B46     		mov	r3, r1
 587 0054 1046     		mov	r0, r2
 588 0056 1946     		mov	r1, r3
 589 0058 FFF7FEFF 		bl	__aeabi_d2uiz
 590 005c 0346     		mov	r3, r0
 591 005e FB81     		strh	r3, [r7, #14]	@ movhi
 592 0060 0023     		movs	r3, #0
 593 0062 7B82     		strh	r3, [r7, #18]	@ movhi
 594 0064 00BF     		nop
 595              	.L28:
 596              		.loc 1 137 0 is_stmt 0 discriminator 2
ARM GAS  C:\Users\RECEPC~1\AppData\Local\Temp\ccXijmEh.s 			page 14


 597 0066 7B8A     		ldrh	r3, [r7, #18]
 598 0068 5A1C     		adds	r2, r3, #1
 599 006a 7A82     		strh	r2, [r7, #18]	@ movhi
 600 006c FA89     		ldrh	r2, [r7, #14]
 601 006e 9A42     		cmp	r2, r3
 602 0070 F9D8     		bhi	.L28
 603              	.LBE5:
 138:.\SinkManager.c ****     
 139:.\SinkManager.c ****     FOR(uint8 index = 0, index < _MESSAGE_QUEUE_DEPTH_, index++)
 604              		.loc 1 139 0 is_stmt 1
 605 0072 0023     		movs	r3, #0
 606 0074 7B74     		strb	r3, [r7, #17]
 607 0076 18E0     		b	.L29
 608              	.L32:
 140:.\SinkManager.c ****     {
 141:.\SinkManager.c ****         if(_g_sinkmessagequeue[index]._messageid == messageid)
 609              		.loc 1 141 0
 610 0078 7B7C     		ldrb	r3, [r7, #17]	@ zero_extendqisi2
 611 007a 434A     		ldr	r2, .L37+16
 612 007c 4FF4CC71 		mov	r1, #408
 613 0080 01FB03F3 		mul	r3, r1, r3
 614 0084 1344     		add	r3, r3, r2
 615 0086 5B78     		ldrb	r3, [r3, #1]
 616 0088 DBB2     		uxtb	r3, r3
 617 008a FA79     		ldrb	r2, [r7, #7]	@ zero_extendqisi2
 618 008c 9A42     		cmp	r2, r3
 619 008e 09D1     		bne	.L30
 142:.\SinkManager.c ****         {
 143:.\SinkManager.c ****             //_g_sinkmessagequeue[index]._selfkill = true;
 144:.\SinkManager.c ****             pretval = &_g_sinkmessagequeue[index];
 620              		.loc 1 144 0
 621 0090 7B7C     		ldrb	r3, [r7, #17]	@ zero_extendqisi2
 622 0092 4FF4CC72 		mov	r2, #408
 623 0096 02FB03F3 		mul	r3, r2, r3
 624 009a 3B4A     		ldr	r2, .L37+16
 625 009c 1344     		add	r3, r3, r2
 626 009e 7B61     		str	r3, [r7, #20]
 145:.\SinkManager.c ****             return pretval;
 627              		.loc 1 145 0
 628 00a0 7B69     		ldr	r3, [r7, #20]
 629 00a2 64E0     		b	.L31
 630              	.L30:
 139:.\SinkManager.c ****     {
 631              		.loc 1 139 0 discriminator 2
 632 00a4 7B7C     		ldrb	r3, [r7, #17]	@ zero_extendqisi2
 633 00a6 0133     		adds	r3, r3, #1
 634 00a8 7B74     		strb	r3, [r7, #17]
 635              	.L29:
 139:.\SinkManager.c ****     {
 636              		.loc 1 139 0 is_stmt 0 discriminator 1
 637 00aa 7B7C     		ldrb	r3, [r7, #17]	@ zero_extendqisi2
 638 00ac 2F2B     		cmp	r3, #47
 639 00ae E3D9     		bls	.L32
 146:.\SinkManager.c ****         }
 147:.\SinkManager.c ****     }
 148:.\SinkManager.c **** 
 149:.\SinkManager.c ****     FOR(index = 0, index < _MESSAGE_QUEUE_DEPTH_, index++)
ARM GAS  C:\Users\RECEPC~1\AppData\Local\Temp\ccXijmEh.s 			page 15


 640              		.loc 1 149 0 is_stmt 1
 641 00b0 0023     		movs	r3, #0
 642 00b2 7B74     		strb	r3, [r7, #17]
 643 00b4 57E0     		b	.L33
 644              	.L36:
 150:.\SinkManager.c ****     {
 151:.\SinkManager.c ****         if(_g_sinkmessagequeue[index]._messagestate == SINK_FREE)
 645              		.loc 1 151 0
 646 00b6 7B7C     		ldrb	r3, [r7, #17]	@ zero_extendqisi2
 647 00b8 334A     		ldr	r2, .L37+16
 648 00ba 4FF4CC71 		mov	r1, #408
 649 00be 01FB03F3 		mul	r3, r1, r3
 650 00c2 1344     		add	r3, r3, r2
 651 00c4 DB78     		ldrb	r3, [r3, #3]
 652 00c6 DBB2     		uxtb	r3, r3
 653 00c8 012B     		cmp	r3, #1
 654 00ca 49D1     		bne	.L34
 152:.\SinkManager.c ****         {
 153:.\SinkManager.c ****             _g_sinkmessagequeue[index]._selfkill = false;
 655              		.loc 1 153 0
 656 00cc 7B7C     		ldrb	r3, [r7, #17]	@ zero_extendqisi2
 657 00ce 2E4A     		ldr	r2, .L37+16
 658 00d0 4FF4CC71 		mov	r1, #408
 659 00d4 01FB03F3 		mul	r3, r1, r3
 660 00d8 1344     		add	r3, r3, r2
 661 00da 0022     		movs	r2, #0
 662 00dc 1A70     		strb	r2, [r3]
 154:.\SinkManager.c ****             _g_sinkmessagequeue[index]._messagestate = SINK_ALLOCATED;
 663              		.loc 1 154 0
 664 00de 7B7C     		ldrb	r3, [r7, #17]	@ zero_extendqisi2
 665 00e0 294A     		ldr	r2, .L37+16
 666 00e2 4FF4CC71 		mov	r1, #408
 667 00e6 01FB03F3 		mul	r3, r1, r3
 668 00ea 1344     		add	r3, r3, r2
 669 00ec 0222     		movs	r2, #2
 670 00ee DA70     		strb	r2, [r3, #3]
 155:.\SinkManager.c ****             _g_sinkmessagequeue[index]._messagetimeout = Timer_Tick_ReadCounter();
 671              		.loc 1 155 0
 672 00f0 7C7C     		ldrb	r4, [r7, #17]	@ zero_extendqisi2
 673 00f2 FFF7FEFF 		bl	Timer_Tick_ReadCounter
 674 00f6 0346     		mov	r3, r0
 675 00f8 1946     		mov	r1, r3
 676 00fa 234A     		ldr	r2, .L37+16
 677 00fc 4FF4CC73 		mov	r3, #408
 678 0100 03FB04F3 		mul	r3, r3, r4
 679 0104 1344     		add	r3, r3, r2
 680 0106 0A46     		mov	r2, r1	@ movhi
 681 0108 DA80     		strh	r2, [r3, #6]	@ movhi
 156:.\SinkManager.c ****             _g_sinkmessagequeue[index]._messagetimeoutmultiplier = 0x0000;
 682              		.loc 1 156 0
 683 010a 7B7C     		ldrb	r3, [r7, #17]	@ zero_extendqisi2
 684 010c 1E4A     		ldr	r2, .L37+16
 685 010e 4FF4CC71 		mov	r1, #408
 686 0112 01FB03F3 		mul	r3, r1, r3
 687 0116 1344     		add	r3, r3, r2
 688 0118 0833     		adds	r3, r3, #8
 689 011a 0022     		movs	r2, #0
ARM GAS  C:\Users\RECEPC~1\AppData\Local\Temp\ccXijmEh.s 			page 16


 690 011c 1A80     		strh	r2, [r3]	@ movhi
 157:.\SinkManager.c ****             _g_sinkmessagequeue[index]._messagedelay = 0x0000;
 691              		.loc 1 157 0
 692 011e 7B7C     		ldrb	r3, [r7, #17]	@ zero_extendqisi2
 693 0120 194A     		ldr	r2, .L37+16
 694 0122 4FF4CC71 		mov	r1, #408
 695 0126 01FB03F3 		mul	r3, r1, r3
 696 012a 1344     		add	r3, r3, r2
 697 012c 0022     		movs	r2, #0
 698 012e 9A80     		strh	r2, [r3, #4]	@ movhi
 158:.\SinkManager.c ****             memset(_g_sinkmessagequeue[index]._buffer, 0x00, _MESSAGE_LENGTH_);
 699              		.loc 1 158 0
 700 0130 7B7C     		ldrb	r3, [r7, #17]	@ zero_extendqisi2
 701 0132 4FF4CC72 		mov	r2, #408
 702 0136 02FB03F3 		mul	r3, r2, r3
 703 013a 0833     		adds	r3, r3, #8
 704 013c 124A     		ldr	r2, .L37+16
 705 013e 1344     		add	r3, r3, r2
 706 0140 0433     		adds	r3, r3, #4
 707 0142 1846     		mov	r0, r3
 708 0144 0021     		movs	r1, #0
 709 0146 4FF4C072 		mov	r2, #384
 710 014a FFF7FEFF 		bl	memset
 159:.\SinkManager.c ****             pretval = &_g_sinkmessagequeue[index];
 711              		.loc 1 159 0
 712 014e 7B7C     		ldrb	r3, [r7, #17]	@ zero_extendqisi2
 713 0150 4FF4CC72 		mov	r2, #408
 714 0154 02FB03F3 		mul	r3, r2, r3
 715 0158 0B4A     		ldr	r2, .L37+16
 716 015a 1344     		add	r3, r3, r2
 717 015c 7B61     		str	r3, [r7, #20]
 160:.\SinkManager.c ****             break;
 718              		.loc 1 160 0
 719 015e 05E0     		b	.L35
 720              	.L34:
 149:.\SinkManager.c ****     {
 721              		.loc 1 149 0 discriminator 2
 722 0160 7B7C     		ldrb	r3, [r7, #17]	@ zero_extendqisi2
 723 0162 0133     		adds	r3, r3, #1
 724 0164 7B74     		strb	r3, [r7, #17]
 725              	.L33:
 149:.\SinkManager.c ****     {
 726              		.loc 1 149 0 is_stmt 0 discriminator 1
 727 0166 7B7C     		ldrb	r3, [r7, #17]	@ zero_extendqisi2
 728 0168 2F2B     		cmp	r3, #47
 729 016a A4D9     		bls	.L36
 730              	.L35:
 161:.\SinkManager.c ****         }
 162:.\SinkManager.c ****     }
 163:.\SinkManager.c ****     
 164:.\SinkManager.c ****     return pretval;
 731              		.loc 1 164 0 is_stmt 1
 732 016c 7B69     		ldr	r3, [r7, #20]
 733              	.L31:
 165:.\SinkManager.c **** }
 734              		.loc 1 165 0
 735 016e 1846     		mov	r0, r3
ARM GAS  C:\Users\RECEPC~1\AppData\Local\Temp\ccXijmEh.s 			page 17


 736 0170 1C37     		adds	r7, r7, #28
 737              		.cfi_def_cfa_offset 12
 738 0172 BD46     		mov	sp, r7
 739              		.cfi_def_cfa_register 13
 740              		@ sp needed
 741 0174 90BD     		pop	{r4, r7, pc}
 742              	.L38:
 743 0176 00BF     		.align	3
 744              	.L37:
 745 0178 0000C0FF 		.word	-4194304
 746 017c FFFFDF41 		.word	1105199103
 747 0180 00009040 		.word	1083179008
 748 0184 00002440 		.word	1076101120
 749 0188 00000000 		.word	_g_sinkmessagequeue
 750              		.cfi_endproc
 751              	.LFE66:
 752              		.size	AllocateMessageSlotConditional, .-AllocateMessageSlotConditional
 753 018c AFF30080 		.section	.text.AllocateMessageArraySlotConditional,"ax",%progbits
 754              		.align	2
 755              		.global	AllocateMessageArraySlotConditional
 756              		.thumb
 757              		.thumb_func
 758              		.type	AllocateMessageArraySlotConditional, %function
 759              	AllocateMessageArraySlotConditional:
 760              	.LFB67:
 166:.\SinkManager.c **** 
 167:.\SinkManager.c **** PSINKMESSAGEPTR* AllocateMessageArraySlotConditional(uint8 messageid)
 168:.\SinkManager.c **** {
 761              		.loc 1 168 0
 762              		.cfi_startproc
 763              		@ args = 0, pretend = 0, frame = 16
 764              		@ frame_needed = 1, uses_anonymous_args = 0
 765 0000 80B5     		push	{r7, lr}
 766              		.cfi_def_cfa_offset 8
 767              		.cfi_offset 7, -8
 768              		.cfi_offset 14, -4
 769 0002 84B0     		sub	sp, sp, #16
 770              		.cfi_def_cfa_offset 24
 771 0004 00AF     		add	r7, sp, #0
 772              		.cfi_def_cfa_register 7
 773 0006 0346     		mov	r3, r0
 774 0008 FB71     		strb	r3, [r7, #7]
 169:.\SinkManager.c ****     FOR(uint8 arrindex = 0, arrindex < 0x04, arrindex++)
 775              		.loc 1 169 0
 776 000a 0023     		movs	r3, #0
 777 000c FB73     		strb	r3, [r7, #15]
 778 000e 07E0     		b	.L40
 779              	.L41:
 170:.\SinkManager.c ****         _g_pretval[arrindex] = PNEAR_NULLPTR;
 780              		.loc 1 170 0 discriminator 3
 781 0010 FB7B     		ldrb	r3, [r7, #15]	@ zero_extendqisi2
 782 0012 374A     		ldr	r2, .L48+8
 783 0014 0021     		movs	r1, #0
 784 0016 42F82310 		str	r1, [r2, r3, lsl #2]
 169:.\SinkManager.c ****     FOR(uint8 arrindex = 0, arrindex < 0x04, arrindex++)
 785              		.loc 1 169 0 discriminator 3
 786 001a FB7B     		ldrb	r3, [r7, #15]	@ zero_extendqisi2
ARM GAS  C:\Users\RECEPC~1\AppData\Local\Temp\ccXijmEh.s 			page 18


 787 001c 0133     		adds	r3, r3, #1
 788 001e FB73     		strb	r3, [r7, #15]
 789              	.L40:
 169:.\SinkManager.c ****     FOR(uint8 arrindex = 0, arrindex < 0x04, arrindex++)
 790              		.loc 1 169 0 is_stmt 0 discriminator 1
 791 0020 FB7B     		ldrb	r3, [r7, #15]	@ zero_extendqisi2
 792 0022 032B     		cmp	r3, #3
 793 0024 F4D9     		bls	.L41
 794              	.LBB6:
 171:.\SinkManager.c ****     
 172:.\SinkManager.c ****     //HIJH
 173:.\SinkManager.c ****     //This is to De-synchronize REENTRANT calls
 174:.\SinkManager.c ****     //CyDelayUs((uint16)((double)rand()/(double)RAND_MAX) + 1);
 175:.\SinkManager.c ****     RANDOMDELAY;
 795              		.loc 1 175 0 is_stmt 1
 796 0026 FFF7FEFF 		bl	rand
 797 002a 0346     		mov	r3, r0
 798 002c 1846     		mov	r0, r3
 799 002e FFF7FEFF 		bl	__aeabi_i2d
 800 0032 0246     		mov	r2, r0
 801 0034 0B46     		mov	r3, r1
 802 0036 1046     		mov	r0, r2
 803 0038 1946     		mov	r1, r3
 804 003a 2BA3     		adr	r3, .L48
 805 003c D3E90023 		ldrd	r2, [r3]
 806 0040 FFF7FEFF 		bl	__aeabi_ddiv
 807 0044 0246     		mov	r2, r0
 808 0046 0B46     		mov	r3, r1
 809 0048 1046     		mov	r0, r2
 810 004a 1946     		mov	r1, r3
 811 004c 4FF00002 		mov	r2, #0
 812 0050 284B     		ldr	r3, .L48+12
 813 0052 FFF7FEFF 		bl	__aeabi_dmul
 814 0056 0246     		mov	r2, r0
 815 0058 0B46     		mov	r3, r1
 816 005a 1046     		mov	r0, r2
 817 005c 1946     		mov	r1, r3
 818 005e 4FF00002 		mov	r2, #0
 819 0062 254B     		ldr	r3, .L48+16
 820 0064 FFF7FEFF 		bl	__aeabi_dadd
 821 0068 0246     		mov	r2, r0
 822 006a 0B46     		mov	r3, r1
 823 006c 1046     		mov	r0, r2
 824 006e 1946     		mov	r1, r3
 825 0070 FFF7FEFF 		bl	__aeabi_d2uiz
 826 0074 0346     		mov	r3, r0
 827 0076 3B81     		strh	r3, [r7, #8]	@ movhi
 828 0078 0023     		movs	r3, #0
 829 007a BB81     		strh	r3, [r7, #12]	@ movhi
 830 007c 00BF     		nop
 831              	.L42:
 832              		.loc 1 175 0 is_stmt 0 discriminator 2
 833 007e BB89     		ldrh	r3, [r7, #12]
 834 0080 5A1C     		adds	r2, r3, #1
 835 0082 BA81     		strh	r2, [r7, #12]	@ movhi
 836 0084 3A89     		ldrh	r2, [r7, #8]
 837 0086 9A42     		cmp	r2, r3
ARM GAS  C:\Users\RECEPC~1\AppData\Local\Temp\ccXijmEh.s 			page 19


 838 0088 F9D8     		bhi	.L42
 839              	.LBE6:
 176:.\SinkManager.c **** 
 177:.\SinkManager.c ****     arrindex = 0;
 840              		.loc 1 177 0 is_stmt 1
 841 008a 0023     		movs	r3, #0
 842 008c FB73     		strb	r3, [r7, #15]
 178:.\SinkManager.c ****     FOR(uint8 index = 0, (index < _MESSAGE_QUEUE_DEPTH_) && (arrindex < 0x04), index++)
 843              		.loc 1 178 0
 844 008e 0023     		movs	r3, #0
 845 0090 FB72     		strb	r3, [r7, #11]
 846 0092 1CE0     		b	.L43
 847              	.L46:
 179:.\SinkManager.c ****     {
 180:.\SinkManager.c ****         if(_g_sinkmessagequeue[index]._messageid == messageid)
 848              		.loc 1 180 0
 849 0094 FB7A     		ldrb	r3, [r7, #11]	@ zero_extendqisi2
 850 0096 194A     		ldr	r2, .L48+20
 851 0098 4FF4CC71 		mov	r1, #408
 852 009c 01FB03F3 		mul	r3, r1, r3
 853 00a0 1344     		add	r3, r3, r2
 854 00a2 5B78     		ldrb	r3, [r3, #1]
 855 00a4 DBB2     		uxtb	r3, r3
 856 00a6 FA79     		ldrb	r2, [r7, #7]	@ zero_extendqisi2
 857 00a8 9A42     		cmp	r2, r3
 858 00aa 0DD1     		bne	.L44
 181:.\SinkManager.c ****             _g_pretval[arrindex++] = &_g_sinkmessagequeue[index];
 859              		.loc 1 181 0
 860 00ac FB7B     		ldrb	r3, [r7, #15]	@ zero_extendqisi2
 861 00ae 5A1C     		adds	r2, r3, #1
 862 00b0 FA73     		strb	r2, [r7, #15]
 863 00b2 1946     		mov	r1, r3
 864 00b4 FB7A     		ldrb	r3, [r7, #11]	@ zero_extendqisi2
 865 00b6 4FF4CC72 		mov	r2, #408
 866 00ba 02FB03F3 		mul	r3, r2, r3
 867 00be 0F4A     		ldr	r2, .L48+20
 868 00c0 1344     		add	r3, r3, r2
 869 00c2 0B4A     		ldr	r2, .L48+8
 870 00c4 42F82130 		str	r3, [r2, r1, lsl #2]
 871              	.L44:
 178:.\SinkManager.c ****     FOR(uint8 index = 0, (index < _MESSAGE_QUEUE_DEPTH_) && (arrindex < 0x04), index++)
 872              		.loc 1 178 0 discriminator 2
 873 00c8 FB7A     		ldrb	r3, [r7, #11]	@ zero_extendqisi2
 874 00ca 0133     		adds	r3, r3, #1
 875 00cc FB72     		strb	r3, [r7, #11]
 876              	.L43:
 178:.\SinkManager.c ****     FOR(uint8 index = 0, (index < _MESSAGE_QUEUE_DEPTH_) && (arrindex < 0x04), index++)
 877              		.loc 1 178 0 is_stmt 0 discriminator 1
 878 00ce FB7A     		ldrb	r3, [r7, #11]	@ zero_extendqisi2
 879 00d0 2F2B     		cmp	r3, #47
 880 00d2 02D8     		bhi	.L45
 178:.\SinkManager.c ****     FOR(uint8 index = 0, (index < _MESSAGE_QUEUE_DEPTH_) && (arrindex < 0x04), index++)
 881              		.loc 1 178 0 discriminator 3
 882 00d4 FB7B     		ldrb	r3, [r7, #15]	@ zero_extendqisi2
 883 00d6 032B     		cmp	r3, #3
 884 00d8 DCD9     		bls	.L46
 885              	.L45:
ARM GAS  C:\Users\RECEPC~1\AppData\Local\Temp\ccXijmEh.s 			page 20


 182:.\SinkManager.c ****     }
 183:.\SinkManager.c ****     
 184:.\SinkManager.c ****     return _g_pretval;
 886              		.loc 1 184 0 is_stmt 1
 887 00da 054B     		ldr	r3, .L48+8
 185:.\SinkManager.c **** }
 888              		.loc 1 185 0
 889 00dc 1846     		mov	r0, r3
 890 00de 1037     		adds	r7, r7, #16
 891              		.cfi_def_cfa_offset 8
 892 00e0 BD46     		mov	sp, r7
 893              		.cfi_def_cfa_register 13
 894              		@ sp needed
 895 00e2 80BD     		pop	{r7, pc}
 896              	.L49:
 897 00e4 AFF30080 		.align	3
 898              	.L48:
 899 00e8 0000C0FF 		.word	-4194304
 900 00ec FFFFDF41 		.word	1105199103
 901 00f0 00000000 		.word	_g_pretval
 902 00f4 00009040 		.word	1083179008
 903 00f8 00002440 		.word	1076101120
 904 00fc 00000000 		.word	_g_sinkmessagequeue
 905              		.cfi_endproc
 906              	.LFE67:
 907              		.size	AllocateMessageArraySlotConditional, .-AllocateMessageArraySlotConditional
 908              		.section	.text.ReleaseSinkMessage,"ax",%progbits
 909              		.align	2
 910              		.global	ReleaseSinkMessage
 911              		.thumb
 912              		.thumb_func
 913              		.type	ReleaseSinkMessage, %function
 914              	ReleaseSinkMessage:
 915              	.LFB68:
 186:.\SinkManager.c **** 
 187:.\SinkManager.c **** //@Created By: HIJH
 188:.\SinkManager.c **** //@Septembre de 2016
 189:.\SinkManager.c **** void ReleaseSinkMessage(PSINKMESSAGEPTR pmessage)
 190:.\SinkManager.c **** {
 916              		.loc 1 190 0
 917              		.cfi_startproc
 918              		@ args = 0, pretend = 0, frame = 8
 919              		@ frame_needed = 1, uses_anonymous_args = 0
 920              		@ link register save eliminated.
 921 0000 80B4     		push	{r7}
 922              		.cfi_def_cfa_offset 4
 923              		.cfi_offset 7, -4
 924 0002 83B0     		sub	sp, sp, #12
 925              		.cfi_def_cfa_offset 16
 926 0004 00AF     		add	r7, sp, #0
 927              		.cfi_def_cfa_register 7
 928 0006 7860     		str	r0, [r7, #4]
 191:.\SinkManager.c ****     pmessage->_messageid = 0x00;
 929              		.loc 1 191 0
 930 0008 7B68     		ldr	r3, [r7, #4]
 931 000a 0022     		movs	r2, #0
 932 000c 5A70     		strb	r2, [r3, #1]
ARM GAS  C:\Users\RECEPC~1\AppData\Local\Temp\ccXijmEh.s 			page 21


 192:.\SinkManager.c ****     pmessage->_messagestate = SINK_FREE;
 933              		.loc 1 192 0
 934 000e 7B68     		ldr	r3, [r7, #4]
 935 0010 0122     		movs	r2, #1
 936 0012 DA70     		strb	r2, [r3, #3]
 193:.\SinkManager.c ****     pmessage->_messagetype = NONE;
 937              		.loc 1 193 0
 938 0014 7B68     		ldr	r3, [r7, #4]
 939 0016 0122     		movs	r2, #1
 940 0018 9A70     		strb	r2, [r3, #2]
 194:.\SinkManager.c ****     pmessage->_messagetimeout = 0x00;
 941              		.loc 1 194 0
 942 001a 7B68     		ldr	r3, [r7, #4]
 943 001c 0022     		movs	r2, #0
 944 001e DA80     		strh	r2, [r3, #6]	@ movhi
 195:.\SinkManager.c **** }
 945              		.loc 1 195 0
 946 0020 0C37     		adds	r7, r7, #12
 947              		.cfi_def_cfa_offset 4
 948 0022 BD46     		mov	sp, r7
 949              		.cfi_def_cfa_register 13
 950              		@ sp needed
 951 0024 5DF8047B 		ldr	r7, [sp], #4
 952              		.cfi_restore 7
 953              		.cfi_def_cfa_offset 0
 954 0028 7047     		bx	lr
 955              		.cfi_endproc
 956              	.LFE68:
 957              		.size	ReleaseSinkMessage, .-ReleaseSinkMessage
 958 002a 00BF     		.section	.text.ReleaseSinkMessageByID,"ax",%progbits
 959              		.align	2
 960              		.global	ReleaseSinkMessageByID
 961              		.thumb
 962              		.thumb_func
 963              		.type	ReleaseSinkMessageByID, %function
 964              	ReleaseSinkMessageByID:
 965              	.LFB69:
 196:.\SinkManager.c **** 
 197:.\SinkManager.c **** //@Created By: HIJH
 198:.\SinkManager.c **** //@Septembre de 2016
 199:.\SinkManager.c **** void ReleaseSinkMessageByID(uint8 messageid)
 200:.\SinkManager.c **** {
 966              		.loc 1 200 0
 967              		.cfi_startproc
 968              		@ args = 0, pretend = 0, frame = 16
 969              		@ frame_needed = 1, uses_anonymous_args = 0
 970 0000 80B5     		push	{r7, lr}
 971              		.cfi_def_cfa_offset 8
 972              		.cfi_offset 7, -8
 973              		.cfi_offset 14, -4
 974 0002 84B0     		sub	sp, sp, #16
 975              		.cfi_def_cfa_offset 24
 976 0004 00AF     		add	r7, sp, #0
 977              		.cfi_def_cfa_register 7
 978 0006 0346     		mov	r3, r0
 979 0008 FB71     		strb	r3, [r7, #7]
 201:.\SinkManager.c ****     FOR(uint8 index = 0, index < _MESSAGE_QUEUE_DEPTH_, index++)
ARM GAS  C:\Users\RECEPC~1\AppData\Local\Temp\ccXijmEh.s 			page 22


 980              		.loc 1 201 0
 981 000a 0023     		movs	r3, #0
 982 000c FB73     		strb	r3, [r7, #15]
 983 000e 14E0     		b	.L52
 984              	.L55:
 985              	.LBB7:
 202:.\SinkManager.c ****     {        
 203:.\SinkManager.c ****         PSINKMESSAGEPTR pmsg = &_g_sinkmessagequeue[index];
 986              		.loc 1 203 0
 987 0010 FB7B     		ldrb	r3, [r7, #15]	@ zero_extendqisi2
 988 0012 4FF4CC72 		mov	r2, #408
 989 0016 02FB03F3 		mul	r3, r2, r3
 990 001a 0B4A     		ldr	r2, .L56
 991 001c 1344     		add	r3, r3, r2
 992 001e BB60     		str	r3, [r7, #8]
 204:.\SinkManager.c ****         if(pmsg->_messageid == messageid)
 993              		.loc 1 204 0
 994 0020 BB68     		ldr	r3, [r7, #8]
 995 0022 5B78     		ldrb	r3, [r3, #1]
 996 0024 DBB2     		uxtb	r3, r3
 997 0026 FA79     		ldrb	r2, [r7, #7]	@ zero_extendqisi2
 998 0028 9A42     		cmp	r2, r3
 999 002a 03D1     		bne	.L53
 205:.\SinkManager.c ****         {
 206:.\SinkManager.c ****             ReleaseSinkMessage(pmsg);
 1000              		.loc 1 206 0
 1001 002c B868     		ldr	r0, [r7, #8]
 1002 002e FFF7FEFF 		bl	ReleaseSinkMessage
 207:.\SinkManager.c ****             break;
 1003              		.loc 1 207 0
 1004 0032 05E0     		b	.L51
 1005              	.L53:
 1006              	.LBE7:
 201:.\SinkManager.c ****     {        
 1007              		.loc 1 201 0 discriminator 2
 1008 0034 FB7B     		ldrb	r3, [r7, #15]	@ zero_extendqisi2
 1009 0036 0133     		adds	r3, r3, #1
 1010 0038 FB73     		strb	r3, [r7, #15]
 1011              	.L52:
 201:.\SinkManager.c ****     {        
 1012              		.loc 1 201 0 is_stmt 0 discriminator 1
 1013 003a FB7B     		ldrb	r3, [r7, #15]	@ zero_extendqisi2
 1014 003c 2F2B     		cmp	r3, #47
 1015 003e E7D9     		bls	.L55
 1016              	.L51:
 208:.\SinkManager.c ****         }
 209:.\SinkManager.c ****     }
 210:.\SinkManager.c **** }
 1017              		.loc 1 210 0 is_stmt 1
 1018 0040 1037     		adds	r7, r7, #16
 1019              		.cfi_def_cfa_offset 8
 1020 0042 BD46     		mov	sp, r7
 1021              		.cfi_def_cfa_register 13
 1022              		@ sp needed
 1023 0044 80BD     		pop	{r7, pc}
 1024              	.L57:
 1025 0046 00BF     		.align	2
ARM GAS  C:\Users\RECEPC~1\AppData\Local\Temp\ccXijmEh.s 			page 23


 1026              	.L56:
 1027 0048 00000000 		.word	_g_sinkmessagequeue
 1028              		.cfi_endproc
 1029              	.LFE69:
 1030              		.size	ReleaseSinkMessageByID, .-ReleaseSinkMessageByID
 1031              		.section	.text.AllocateSubscriberSlot,"ax",%progbits
 1032              		.align	2
 1033              		.global	AllocateSubscriberSlot
 1034              		.thumb
 1035              		.thumb_func
 1036              		.type	AllocateSubscriberSlot, %function
 1037              	AllocateSubscriberSlot:
 1038              	.LFB70:
 211:.\SinkManager.c **** 
 212:.\SinkManager.c **** //@Created By: HIJH
 213:.\SinkManager.c **** //@Septembre de 2016
 214:.\SinkManager.c **** PSINKSUBSCRIBERPTR AllocateSubscriberSlot()
 215:.\SinkManager.c **** {
 1039              		.loc 1 215 0
 1040              		.cfi_startproc
 1041              		@ args = 0, pretend = 0, frame = 8
 1042              		@ frame_needed = 1, uses_anonymous_args = 0
 1043              		@ link register save eliminated.
 1044 0000 80B4     		push	{r7}
 1045              		.cfi_def_cfa_offset 4
 1046              		.cfi_offset 7, -4
 1047 0002 83B0     		sub	sp, sp, #12
 1048              		.cfi_def_cfa_offset 16
 1049 0004 00AF     		add	r7, sp, #0
 1050              		.cfi_def_cfa_register 7
 216:.\SinkManager.c ****     PSINKSUBSCRIBERPTR pretval = NULL;
 1051              		.loc 1 216 0
 1052 0006 0023     		movs	r3, #0
 1053 0008 7B60     		str	r3, [r7, #4]
 217:.\SinkManager.c **** 
 218:.\SinkManager.c ****     uint8 index = 0;
 1054              		.loc 1 218 0
 1055 000a 0023     		movs	r3, #0
 1056 000c FB70     		strb	r3, [r7, #3]
 219:.\SinkManager.c ****     for(index = 0; index < _SUBSCRIBER_QUEUE_DEPTH_; index++)
 1057              		.loc 1 219 0
 1058 000e 0023     		movs	r3, #0
 1059 0010 FB70     		strb	r3, [r7, #3]
 1060 0012 1CE0     		b	.L59
 1061              	.L62:
 220:.\SinkManager.c ****     {
 221:.\SinkManager.c ****         if(_g_sinksubscriberqueue[index]._state == SINK_FREE)
 1062              		.loc 1 221 0
 1063 0014 FB78     		ldrb	r3, [r7, #3]	@ zero_extendqisi2
 1064 0016 134A     		ldr	r2, .L64
 1065 0018 2C21     		movs	r1, #44
 1066 001a 01FB03F3 		mul	r3, r1, r3
 1067 001e 1344     		add	r3, r3, r2
 1068 0020 1B78     		ldrb	r3, [r3]
 1069 0022 DBB2     		uxtb	r3, r3
 1070 0024 012B     		cmp	r3, #1
 1071 0026 0FD1     		bne	.L60
ARM GAS  C:\Users\RECEPC~1\AppData\Local\Temp\ccXijmEh.s 			page 24


 222:.\SinkManager.c ****         {
 223:.\SinkManager.c ****             _g_sinksubscriberqueue[index]._state = SINK_BUSY;
 1072              		.loc 1 223 0
 1073 0028 FB78     		ldrb	r3, [r7, #3]	@ zero_extendqisi2
 1074 002a 0E4A     		ldr	r2, .L64
 1075 002c 2C21     		movs	r1, #44
 1076 002e 01FB03F3 		mul	r3, r1, r3
 1077 0032 1344     		add	r3, r3, r2
 1078 0034 0322     		movs	r2, #3
 1079 0036 1A70     		strb	r2, [r3]
 224:.\SinkManager.c ****             pretval = &_g_sinksubscriberqueue[index];
 1080              		.loc 1 224 0
 1081 0038 FB78     		ldrb	r3, [r7, #3]	@ zero_extendqisi2
 1082 003a 2C22     		movs	r2, #44
 1083 003c 02FB03F3 		mul	r3, r2, r3
 1084 0040 084A     		ldr	r2, .L64
 1085 0042 1344     		add	r3, r3, r2
 1086 0044 7B60     		str	r3, [r7, #4]
 225:.\SinkManager.c ****             break;
 1087              		.loc 1 225 0
 1088 0046 05E0     		b	.L61
 1089              	.L60:
 219:.\SinkManager.c ****     {
 1090              		.loc 1 219 0 discriminator 2
 1091 0048 FB78     		ldrb	r3, [r7, #3]	@ zero_extendqisi2
 1092 004a 0133     		adds	r3, r3, #1
 1093 004c FB70     		strb	r3, [r7, #3]
 1094              	.L59:
 219:.\SinkManager.c ****     {
 1095              		.loc 1 219 0 is_stmt 0 discriminator 1
 1096 004e FB78     		ldrb	r3, [r7, #3]	@ zero_extendqisi2
 1097 0050 0F2B     		cmp	r3, #15
 1098 0052 DFD9     		bls	.L62
 1099              	.L61:
 226:.\SinkManager.c ****         }
 227:.\SinkManager.c ****     }
 228:.\SinkManager.c ****     return pretval;
 1100              		.loc 1 228 0 is_stmt 1
 1101 0054 7B68     		ldr	r3, [r7, #4]
 229:.\SinkManager.c **** }
 1102              		.loc 1 229 0
 1103 0056 1846     		mov	r0, r3
 1104 0058 0C37     		adds	r7, r7, #12
 1105              		.cfi_def_cfa_offset 4
 1106 005a BD46     		mov	sp, r7
 1107              		.cfi_def_cfa_register 13
 1108              		@ sp needed
 1109 005c 5DF8047B 		ldr	r7, [sp], #4
 1110              		.cfi_restore 7
 1111              		.cfi_def_cfa_offset 0
 1112 0060 7047     		bx	lr
 1113              	.L65:
 1114 0062 00BF     		.align	2
 1115              	.L64:
 1116 0064 00000000 		.word	_g_sinksubscriberqueue
 1117              		.cfi_endproc
 1118              	.LFE70:
ARM GAS  C:\Users\RECEPC~1\AppData\Local\Temp\ccXijmEh.s 			page 25


 1119              		.size	AllocateSubscriberSlot, .-AllocateSubscriberSlot
 1120              		.global	__aeabi_dcmpgt
 1121              		.section	.text.SinkHandler,"ax",%progbits
 1122              		.align	2
 1123              		.global	SinkHandler
 1124              		.thumb
 1125              		.thumb_func
 1126              		.type	SinkHandler, %function
 1127              	SinkHandler:
 1128              	.LFB71:
 230:.\SinkManager.c **** 
 231:.\SinkManager.c **** //@Created By: HIJH
 232:.\SinkManager.c **** //@Septembre de 2016
 233:.\SinkManager.c **** void SinkHandler()
 234:.\SinkManager.c **** {
 1129              		.loc 1 234 0
 1130              		.cfi_startproc
 1131              		@ args = 0, pretend = 0, frame = 24
 1132              		@ frame_needed = 1, uses_anonymous_args = 0
 1133 0000 B0B5     		push	{r4, r5, r7, lr}
 1134              		.cfi_def_cfa_offset 16
 1135              		.cfi_offset 4, -16
 1136              		.cfi_offset 5, -12
 1137              		.cfi_offset 7, -8
 1138              		.cfi_offset 14, -4
 1139 0002 86B0     		sub	sp, sp, #24
 1140              		.cfi_def_cfa_offset 40
 1141 0004 00AF     		add	r7, sp, #0
 1142              		.cfi_def_cfa_register 7
 235:.\SinkManager.c ****     FOR(uint8 index = 0, index < _MESSAGE_QUEUE_DEPTH_, index++)
 1143              		.loc 1 235 0
 1144 0006 0023     		movs	r3, #0
 1145 0008 FB75     		strb	r3, [r7, #23]
 1146 000a CEE2     		b	.L67
 1147              	.L89:
 1148              	.LBB8:
 236:.\SinkManager.c ****     {        
 237:.\SinkManager.c ****         PSINKMESSAGEPTR pmsg = &_g_sinkmessagequeue[index];
 1149              		.loc 1 237 0
 1150 000c FB7D     		ldrb	r3, [r7, #23]	@ zero_extendqisi2
 1151 000e 4FF4CC72 		mov	r2, #408
 1152 0012 02FB03F3 		mul	r3, r2, r3
 1153 0016 B44A     		ldr	r2, .L98
 1154 0018 1344     		add	r3, r3, r2
 1155 001a 3B61     		str	r3, [r7, #16]
 238:.\SinkManager.c ****         if(pmsg->_messagestate == SINK_BUSY)
 1156              		.loc 1 238 0
 1157 001c 3B69     		ldr	r3, [r7, #16]
 1158 001e DB78     		ldrb	r3, [r3, #3]
 1159 0020 DBB2     		uxtb	r3, r3
 1160 0022 032B     		cmp	r3, #3
 1161 0024 40F0BE82 		bne	.L68
 239:.\SinkManager.c ****         {            
 240:.\SinkManager.c ****             switch(pmsg->_messagetype)
 1162              		.loc 1 240 0
 1163 0028 3B69     		ldr	r3, [r7, #16]
 1164 002a 9B78     		ldrb	r3, [r3, #2]
ARM GAS  C:\Users\RECEPC~1\AppData\Local\Temp\ccXijmEh.s 			page 26


 1165 002c DBB2     		uxtb	r3, r3
 1166 002e 013B     		subs	r3, r3, #1
 1167 0030 072B     		cmp	r3, #7
 1168 0032 00F2B782 		bhi	.L68
 1169 0036 01A2     		adr	r2, .L70
 1170 0038 52F823F0 		ldr	pc, [r2, r3, lsl #2]
 1171              		.p2align 2
 1172              	.L70:
 1173 003c A5050000 		.word	.L68+1
 1174 0040 5D000000 		.word	.L71+1
 1175 0044 87000000 		.word	.L72+1
 1176 0048 B1000000 		.word	.L73+1
 1177 004c DB000000 		.word	.L74+1
 1178 0050 8F010000 		.word	.L75+1
 1179 0054 F1020000 		.word	.L76+1
 1180 0058 4B040000 		.word	.L77+1
 1181              		.p2align 1
 1182              	.L71:
 241:.\SinkManager.c ****             {
 242:.\SinkManager.c ****                 case BROADCAST:
 243:.\SinkManager.c ****                 {
 244:.\SinkManager.c ****                     SinkBroadcast(&_g_sinkmessagequeue[index]);
 1183              		.loc 1 244 0
 1184 005c FB7D     		ldrb	r3, [r7, #23]	@ zero_extendqisi2
 1185 005e 4FF4CC72 		mov	r2, #408
 1186 0062 02FB03F3 		mul	r3, r2, r3
 1187 0066 A04A     		ldr	r2, .L98
 1188 0068 1344     		add	r3, r3, r2
 1189 006a 1846     		mov	r0, r3
 1190 006c FFF7FEFF 		bl	SinkBroadcast
 245:.\SinkManager.c ****                     ReleaseSinkMessage(&_g_sinkmessagequeue[index]);
 1191              		.loc 1 245 0
 1192 0070 FB7D     		ldrb	r3, [r7, #23]	@ zero_extendqisi2
 1193 0072 4FF4CC72 		mov	r2, #408
 1194 0076 02FB03F3 		mul	r3, r2, r3
 1195 007a 9B4A     		ldr	r2, .L98
 1196 007c 1344     		add	r3, r3, r2
 1197 007e 1846     		mov	r0, r3
 1198 0080 FFF7FEFF 		bl	ReleaseSinkMessage
 246:.\SinkManager.c ****                     break;
 1199              		.loc 1 246 0
 1200 0084 8EE2     		b	.L68
 1201              	.L72:
 247:.\SinkManager.c ****                 }
 248:.\SinkManager.c ****                 case FIRSTFOUND:
 249:.\SinkManager.c ****                 {
 250:.\SinkManager.c ****                     SinkFirstFound(&_g_sinkmessagequeue[index]);
 1202              		.loc 1 250 0
 1203 0086 FB7D     		ldrb	r3, [r7, #23]	@ zero_extendqisi2
 1204 0088 4FF4CC72 		mov	r2, #408
 1205 008c 02FB03F3 		mul	r3, r2, r3
 1206 0090 954A     		ldr	r2, .L98
 1207 0092 1344     		add	r3, r3, r2
 1208 0094 1846     		mov	r0, r3
 1209 0096 FFF7FEFF 		bl	SinkFirstFound
 251:.\SinkManager.c ****                     ReleaseSinkMessage(&_g_sinkmessagequeue[index]);
 1210              		.loc 1 251 0
ARM GAS  C:\Users\RECEPC~1\AppData\Local\Temp\ccXijmEh.s 			page 27


 1211 009a FB7D     		ldrb	r3, [r7, #23]	@ zero_extendqisi2
 1212 009c 4FF4CC72 		mov	r2, #408
 1213 00a0 02FB03F3 		mul	r3, r2, r3
 1214 00a4 904A     		ldr	r2, .L98
 1215 00a6 1344     		add	r3, r3, r2
 1216 00a8 1846     		mov	r0, r3
 1217 00aa FFF7FEFF 		bl	ReleaseSinkMessage
 252:.\SinkManager.c ****                     break;
 1218              		.loc 1 252 0
 1219 00ae 79E2     		b	.L68
 1220              	.L73:
 253:.\SinkManager.c ****                 }
 254:.\SinkManager.c ****                 case ALLINTERESTED:
 255:.\SinkManager.c ****                 {
 256:.\SinkManager.c ****                     SinkAllInterested(&_g_sinkmessagequeue[index]);
 1221              		.loc 1 256 0
 1222 00b0 FB7D     		ldrb	r3, [r7, #23]	@ zero_extendqisi2
 1223 00b2 4FF4CC72 		mov	r2, #408
 1224 00b6 02FB03F3 		mul	r3, r2, r3
 1225 00ba 8B4A     		ldr	r2, .L98
 1226 00bc 1344     		add	r3, r3, r2
 1227 00be 1846     		mov	r0, r3
 1228 00c0 FFF7FEFF 		bl	SinkAllInterested
 257:.\SinkManager.c ****                     ReleaseSinkMessage(&_g_sinkmessagequeue[index]);
 1229              		.loc 1 257 0
 1230 00c4 FB7D     		ldrb	r3, [r7, #23]	@ zero_extendqisi2
 1231 00c6 4FF4CC72 		mov	r2, #408
 1232 00ca 02FB03F3 		mul	r3, r2, r3
 1233 00ce 864A     		ldr	r2, .L98
 1234 00d0 1344     		add	r3, r3, r2
 1235 00d2 1846     		mov	r0, r3
 1236 00d4 FFF7FEFF 		bl	ReleaseSinkMessage
 258:.\SinkManager.c ****                     break;
 1237              		.loc 1 258 0
 1238 00d8 64E2     		b	.L68
 1239              	.L74:
 1240              	.LBB9:
 259:.\SinkManager.c ****                 }
 260:.\SinkManager.c ****                 case DELAYEDALLINTERESTED:
 261:.\SinkManager.c ****                 {
 262:.\SinkManager.c ****                     int32 timespan = ((Timer_Tick_ReadCounter() + _TIMEOUT_BASE_TIME_*_g_sinkmessag
 1241              		.loc 1 262 0
 1242 00da FFF7FEFF 		bl	Timer_Tick_ReadCounter
 1243 00de 0346     		mov	r3, r0
 1244 00e0 1846     		mov	r0, r3
 1245 00e2 FB7D     		ldrb	r3, [r7, #23]	@ zero_extendqisi2
 1246 00e4 804A     		ldr	r2, .L98
 1247 00e6 4FF4CC71 		mov	r1, #408
 1248 00ea 01FB03F3 		mul	r3, r1, r3
 1249 00ee 1344     		add	r3, r3, r2
 1250 00f0 0833     		adds	r3, r3, #8
 1251 00f2 1B88     		ldrh	r3, [r3]	@ movhi
 1252 00f4 9BB2     		uxth	r3, r3
 1253 00f6 1A46     		mov	r2, r3
 1254 00f8 4FF47A73 		mov	r3, #1000
 1255 00fc 03FB02F3 		mul	r3, r3, r2
 1256 0100 0344     		add	r3, r3, r0
ARM GAS  C:\Users\RECEPC~1\AppData\Local\Temp\ccXijmEh.s 			page 28


 1257 0102 FA7D     		ldrb	r2, [r7, #23]	@ zero_extendqisi2
 1258 0104 7849     		ldr	r1, .L98
 1259 0106 4FF4CC70 		mov	r0, #408
 1260 010a 00FB02F2 		mul	r2, r0, r2
 1261 010e 0A44     		add	r2, r2, r1
 1262 0110 D288     		ldrh	r2, [r2, #6]	@ movhi
 1263 0112 92B2     		uxth	r2, r2
 1264 0114 9B1A     		subs	r3, r3, r2
 1265 0116 FB60     		str	r3, [r7, #12]
 263:.\SinkManager.c ****                     if(((double)timespan / (double)_TIMEOUT_BASE_TIME_) > _g_sinkmessagequeue[index
 1266              		.loc 1 263 0
 1267 0118 F868     		ldr	r0, [r7, #12]
 1268 011a FFF7FEFF 		bl	__aeabi_i2d
 1269 011e 0246     		mov	r2, r0
 1270 0120 0B46     		mov	r3, r1
 1271 0122 1046     		mov	r0, r2
 1272 0124 1946     		mov	r1, r3
 1273 0126 4FF00002 		mov	r2, #0
 1274 012a 704B     		ldr	r3, .L98+4
 1275 012c FFF7FEFF 		bl	__aeabi_ddiv
 1276 0130 0246     		mov	r2, r0
 1277 0132 0B46     		mov	r3, r1
 1278 0134 1446     		mov	r4, r2
 1279 0136 1D46     		mov	r5, r3
 1280 0138 FB7D     		ldrb	r3, [r7, #23]	@ zero_extendqisi2
 1281 013a 6B4A     		ldr	r2, .L98
 1282 013c 4FF4CC71 		mov	r1, #408
 1283 0140 01FB03F3 		mul	r3, r1, r3
 1284 0144 1344     		add	r3, r3, r2
 1285 0146 9B88     		ldrh	r3, [r3, #4]	@ movhi
 1286 0148 9BB2     		uxth	r3, r3
 1287 014a 1846     		mov	r0, r3
 1288 014c FFF7FEFF 		bl	__aeabi_i2d
 1289 0150 0246     		mov	r2, r0
 1290 0152 0B46     		mov	r3, r1
 1291 0154 2046     		mov	r0, r4
 1292 0156 2946     		mov	r1, r5
 1293 0158 FFF7FEFF 		bl	__aeabi_dcmpgt
 1294 015c 0346     		mov	r3, r0
 1295 015e 002B     		cmp	r3, #0
 1296 0160 00D1     		bne	.L90
 264:.\SinkManager.c ****                     {
 265:.\SinkManager.c ****                         SinkAllInterested(&_g_sinkmessagequeue[index]);
 266:.\SinkManager.c ****                         ReleaseSinkMessage(&_g_sinkmessagequeue[index]);
 267:.\SinkManager.c ****                         
 268:.\SinkManager.c ****                     }
 269:.\SinkManager.c ****                     break;
 1297              		.loc 1 269 0
 1298 0162 1FE2     		b	.L68
 1299              	.L90:
 265:.\SinkManager.c ****                         ReleaseSinkMessage(&_g_sinkmessagequeue[index]);
 1300              		.loc 1 265 0
 1301 0164 FB7D     		ldrb	r3, [r7, #23]	@ zero_extendqisi2
 1302 0166 4FF4CC72 		mov	r2, #408
 1303 016a 02FB03F3 		mul	r3, r2, r3
 1304 016e 5E4A     		ldr	r2, .L98
 1305 0170 1344     		add	r3, r3, r2
ARM GAS  C:\Users\RECEPC~1\AppData\Local\Temp\ccXijmEh.s 			page 29


 1306 0172 1846     		mov	r0, r3
 1307 0174 FFF7FEFF 		bl	SinkAllInterested
 266:.\SinkManager.c ****                         
 1308              		.loc 1 266 0
 1309 0178 FB7D     		ldrb	r3, [r7, #23]	@ zero_extendqisi2
 1310 017a 4FF4CC72 		mov	r2, #408
 1311 017e 02FB03F3 		mul	r3, r2, r3
 1312 0182 594A     		ldr	r2, .L98
 1313 0184 1344     		add	r3, r3, r2
 1314 0186 1846     		mov	r0, r3
 1315 0188 FFF7FEFF 		bl	ReleaseSinkMessage
 1316              		.loc 1 269 0
 1317 018c 0AE2     		b	.L68
 1318              	.L75:
 1319              	.LBE9:
 1320              	.LBB10:
 270:.\SinkManager.c ****                 }
 271:.\SinkManager.c ****                 case FIRSTFOUNDFOREVER:
 272:.\SinkManager.c ****                 {
 273:.\SinkManager.c ****                     int32 timespan = ((Timer_Tick_ReadCounter() + _TIMEOUT_BASE_TIME_*_g_sinkmessag
 1321              		.loc 1 273 0
 1322 018e FFF7FEFF 		bl	Timer_Tick_ReadCounter
 1323 0192 0346     		mov	r3, r0
 1324 0194 1846     		mov	r0, r3
 1325 0196 FB7D     		ldrb	r3, [r7, #23]	@ zero_extendqisi2
 1326 0198 534A     		ldr	r2, .L98
 1327 019a 4FF4CC71 		mov	r1, #408
 1328 019e 01FB03F3 		mul	r3, r1, r3
 1329 01a2 1344     		add	r3, r3, r2
 1330 01a4 0833     		adds	r3, r3, #8
 1331 01a6 1B88     		ldrh	r3, [r3]	@ movhi
 1332 01a8 9BB2     		uxth	r3, r3
 1333 01aa 1A46     		mov	r2, r3
 1334 01ac 4FF47A73 		mov	r3, #1000
 1335 01b0 03FB02F3 		mul	r3, r3, r2
 1336 01b4 0344     		add	r3, r3, r0
 1337 01b6 FA7D     		ldrb	r2, [r7, #23]	@ zero_extendqisi2
 1338 01b8 4B49     		ldr	r1, .L98
 1339 01ba 4FF4CC70 		mov	r0, #408
 1340 01be 00FB02F2 		mul	r2, r0, r2
 1341 01c2 0A44     		add	r2, r2, r1
 1342 01c4 D288     		ldrh	r2, [r2, #6]	@ movhi
 1343 01c6 92B2     		uxth	r2, r2
 1344 01c8 9B1A     		subs	r3, r3, r2
 1345 01ca BB60     		str	r3, [r7, #8]
 274:.\SinkManager.c ****                     if(((double)timespan / (double)_TIMEOUT_BASE_TIME_) > _g_sinkmessagequeue[index
 1346              		.loc 1 274 0
 1347 01cc B868     		ldr	r0, [r7, #8]
 1348 01ce FFF7FEFF 		bl	__aeabi_i2d
 1349 01d2 0246     		mov	r2, r0
 1350 01d4 0B46     		mov	r3, r1
 1351 01d6 1046     		mov	r0, r2
 1352 01d8 1946     		mov	r1, r3
 1353 01da 4FF00002 		mov	r2, #0
 1354 01de 434B     		ldr	r3, .L98+4
 1355 01e0 FFF7FEFF 		bl	__aeabi_ddiv
 1356 01e4 0246     		mov	r2, r0
ARM GAS  C:\Users\RECEPC~1\AppData\Local\Temp\ccXijmEh.s 			page 30


 1357 01e6 0B46     		mov	r3, r1
 1358 01e8 1446     		mov	r4, r2
 1359 01ea 1D46     		mov	r5, r3
 1360 01ec FB7D     		ldrb	r3, [r7, #23]	@ zero_extendqisi2
 1361 01ee 3E4A     		ldr	r2, .L98
 1362 01f0 4FF4CC71 		mov	r1, #408
 1363 01f4 01FB03F3 		mul	r3, r1, r3
 1364 01f8 1344     		add	r3, r3, r2
 1365 01fa 0833     		adds	r3, r3, #8
 1366 01fc 5B88     		ldrh	r3, [r3, #2]	@ movhi
 1367 01fe 9BB2     		uxth	r3, r3
 1368 0200 1846     		mov	r0, r3
 1369 0202 FFF7FEFF 		bl	__aeabi_i2d
 1370 0206 0246     		mov	r2, r0
 1371 0208 0B46     		mov	r3, r1
 1372 020a 2046     		mov	r0, r4
 1373 020c 2946     		mov	r1, r5
 1374 020e FFF7FEFF 		bl	__aeabi_dcmpgt
 1375 0212 0346     		mov	r3, r0
 1376 0214 002B     		cmp	r3, #0
 1377 0216 00D1     		bne	.L91
 275:.\SinkManager.c ****                     {
 276:.\SinkManager.c ****                         if(((double)timespan / (double)_TIMEOUT_BASE_TIME_) > _g_sinkmessagequeue[i
 277:.\SinkManager.c ****                         {                            
 278:.\SinkManager.c ****                             SinkFirstFound(&_g_sinkmessagequeue[index]);
 279:.\SinkManager.c ****                             _g_sinkmessagequeue[index]._messagetimeout = Timer_Tick_ReadCounter();
 280:.\SinkManager.c ****                             _g_sinkmessagequeue[index]._messagetimeoutmultiplier = 0;
 281:.\SinkManager.c ****                             _g_sinkmessagequeue[index]._messagedelay = 0x0000;
 282:.\SinkManager.c ****                             if(_g_sinkmessagequeue[index]._selfkill)
 283:.\SinkManager.c ****                                 ReleaseSinkMessage(&_g_sinkmessagequeue[index]);
 284:.\SinkManager.c ****                         }
 285:.\SinkManager.c **** 
 286:.\SinkManager.c ****                     }
 287:.\SinkManager.c ****                     break;
 1378              		.loc 1 287 0
 1379 0218 C4E1     		b	.L68
 1380              	.L91:
 276:.\SinkManager.c ****                         {                            
 1381              		.loc 1 276 0
 1382 021a B868     		ldr	r0, [r7, #8]
 1383 021c FFF7FEFF 		bl	__aeabi_i2d
 1384 0220 0246     		mov	r2, r0
 1385 0222 0B46     		mov	r3, r1
 1386 0224 1046     		mov	r0, r2
 1387 0226 1946     		mov	r1, r3
 1388 0228 4FF00002 		mov	r2, #0
 1389 022c 2F4B     		ldr	r3, .L98+4
 1390 022e FFF7FEFF 		bl	__aeabi_ddiv
 1391 0232 0246     		mov	r2, r0
 1392 0234 0B46     		mov	r3, r1
 1393 0236 1446     		mov	r4, r2
 1394 0238 1D46     		mov	r5, r3
 1395 023a FB7D     		ldrb	r3, [r7, #23]	@ zero_extendqisi2
 1396 023c 2A4A     		ldr	r2, .L98
 1397 023e 4FF4CC71 		mov	r1, #408
 1398 0242 01FB03F3 		mul	r3, r1, r3
 1399 0246 1344     		add	r3, r3, r2
ARM GAS  C:\Users\RECEPC~1\AppData\Local\Temp\ccXijmEh.s 			page 31


 1400 0248 9B88     		ldrh	r3, [r3, #4]	@ movhi
 1401 024a 9BB2     		uxth	r3, r3
 1402 024c 1846     		mov	r0, r3
 1403 024e FFF7FEFF 		bl	__aeabi_i2d
 1404 0252 0246     		mov	r2, r0
 1405 0254 0B46     		mov	r3, r1
 1406 0256 2046     		mov	r0, r4
 1407 0258 2946     		mov	r1, r5
 1408 025a FFF7FEFF 		bl	__aeabi_dcmpgt
 1409 025e 0346     		mov	r3, r0
 1410 0260 002B     		cmp	r3, #0
 1411 0262 00D1     		bne	.L92
 1412              		.loc 1 287 0
 1413 0264 9EE1     		b	.L68
 1414              	.L92:
 278:.\SinkManager.c ****                             _g_sinkmessagequeue[index]._messagetimeout = Timer_Tick_ReadCounter();
 1415              		.loc 1 278 0
 1416 0266 FB7D     		ldrb	r3, [r7, #23]	@ zero_extendqisi2
 1417 0268 4FF4CC72 		mov	r2, #408
 1418 026c 02FB03F3 		mul	r3, r2, r3
 1419 0270 1D4A     		ldr	r2, .L98
 1420 0272 1344     		add	r3, r3, r2
 1421 0274 1846     		mov	r0, r3
 1422 0276 FFF7FEFF 		bl	SinkFirstFound
 279:.\SinkManager.c ****                             _g_sinkmessagequeue[index]._messagetimeoutmultiplier = 0;
 1423              		.loc 1 279 0
 1424 027a FC7D     		ldrb	r4, [r7, #23]	@ zero_extendqisi2
 1425 027c FFF7FEFF 		bl	Timer_Tick_ReadCounter
 1426 0280 0346     		mov	r3, r0
 1427 0282 1946     		mov	r1, r3
 1428 0284 184A     		ldr	r2, .L98
 1429 0286 4FF4CC73 		mov	r3, #408
 1430 028a 03FB04F3 		mul	r3, r3, r4
 1431 028e 1344     		add	r3, r3, r2
 1432 0290 0A46     		mov	r2, r1	@ movhi
 1433 0292 DA80     		strh	r2, [r3, #6]	@ movhi
 280:.\SinkManager.c ****                             _g_sinkmessagequeue[index]._messagedelay = 0x0000;
 1434              		.loc 1 280 0
 1435 0294 FB7D     		ldrb	r3, [r7, #23]	@ zero_extendqisi2
 1436 0296 144A     		ldr	r2, .L98
 1437 0298 4FF4CC71 		mov	r1, #408
 1438 029c 01FB03F3 		mul	r3, r1, r3
 1439 02a0 1344     		add	r3, r3, r2
 1440 02a2 0833     		adds	r3, r3, #8
 1441 02a4 0022     		movs	r2, #0
 1442 02a6 1A80     		strh	r2, [r3]	@ movhi
 281:.\SinkManager.c ****                             if(_g_sinkmessagequeue[index]._selfkill)
 1443              		.loc 1 281 0
 1444 02a8 FB7D     		ldrb	r3, [r7, #23]	@ zero_extendqisi2
 1445 02aa 0F4A     		ldr	r2, .L98
 1446 02ac 4FF4CC71 		mov	r1, #408
 1447 02b0 01FB03F3 		mul	r3, r1, r3
 1448 02b4 1344     		add	r3, r3, r2
 1449 02b6 0022     		movs	r2, #0
 1450 02b8 9A80     		strh	r2, [r3, #4]	@ movhi
 282:.\SinkManager.c ****                                 ReleaseSinkMessage(&_g_sinkmessagequeue[index]);
 1451              		.loc 1 282 0
ARM GAS  C:\Users\RECEPC~1\AppData\Local\Temp\ccXijmEh.s 			page 32


 1452 02ba FB7D     		ldrb	r3, [r7, #23]	@ zero_extendqisi2
 1453 02bc 0A4A     		ldr	r2, .L98
 1454 02be 4FF4CC71 		mov	r1, #408
 1455 02c2 01FB03F3 		mul	r3, r1, r3
 1456 02c6 1344     		add	r3, r3, r2
 1457 02c8 1B78     		ldrb	r3, [r3]
 1458 02ca DBB2     		uxtb	r3, r3
 1459 02cc 002B     		cmp	r3, #0
 1460 02ce 0AD0     		beq	.L80
 283:.\SinkManager.c ****                         }
 1461              		.loc 1 283 0
 1462 02d0 FB7D     		ldrb	r3, [r7, #23]	@ zero_extendqisi2
 1463 02d2 4FF4CC72 		mov	r2, #408
 1464 02d6 02FB03F3 		mul	r3, r2, r3
 1465 02da 034A     		ldr	r2, .L98
 1466 02dc 1344     		add	r3, r3, r2
 1467 02de 1846     		mov	r0, r3
 1468 02e0 FFF7FEFF 		bl	ReleaseSinkMessage
 1469              		.loc 1 287 0
 1470 02e4 5EE1     		b	.L68
 1471              	.L80:
 1472 02e6 5DE1     		b	.L68
 1473              	.L99:
 1474              		.align	2
 1475              	.L98:
 1476 02e8 00000000 		.word	_g_sinkmessagequeue
 1477 02ec 00408F40 		.word	1083129856
 1478              	.L76:
 1479              	.LBE10:
 1480              	.LBB11:
 288:.\SinkManager.c ****                 }
 289:.\SinkManager.c ****                 case BROADCASTFOREVER:
 290:.\SinkManager.c ****                 {
 291:.\SinkManager.c ****                     int32 timespan = ((Timer_Tick_ReadCounter() + _TIMEOUT_BASE_TIME_*_g_sinkmessag
 1481              		.loc 1 291 0
 1482 02f0 FFF7FEFF 		bl	Timer_Tick_ReadCounter
 1483 02f4 0346     		mov	r3, r0
 1484 02f6 1846     		mov	r0, r3
 1485 02f8 FB7D     		ldrb	r3, [r7, #23]	@ zero_extendqisi2
 1486 02fa AF4A     		ldr	r2, .L100
 1487 02fc 4FF4CC71 		mov	r1, #408
 1488 0300 01FB03F3 		mul	r3, r1, r3
 1489 0304 1344     		add	r3, r3, r2
 1490 0306 0833     		adds	r3, r3, #8
 1491 0308 1B88     		ldrh	r3, [r3]	@ movhi
 1492 030a 9BB2     		uxth	r3, r3
 1493 030c 1A46     		mov	r2, r3
 1494 030e 4FF47A73 		mov	r3, #1000
 1495 0312 03FB02F3 		mul	r3, r3, r2
 1496 0316 0344     		add	r3, r3, r0
 1497 0318 FA7D     		ldrb	r2, [r7, #23]	@ zero_extendqisi2
 1498 031a A749     		ldr	r1, .L100
 1499 031c 4FF4CC70 		mov	r0, #408
 1500 0320 00FB02F2 		mul	r2, r0, r2
 1501 0324 0A44     		add	r2, r2, r1
 1502 0326 D288     		ldrh	r2, [r2, #6]	@ movhi
 1503 0328 92B2     		uxth	r2, r2
ARM GAS  C:\Users\RECEPC~1\AppData\Local\Temp\ccXijmEh.s 			page 33


 1504 032a 9B1A     		subs	r3, r3, r2
 1505 032c 7B60     		str	r3, [r7, #4]
 292:.\SinkManager.c ****                     if(((double)timespan / (double)_TIMEOUT_BASE_TIME_) > _g_sinkmessagequeue[index
 1506              		.loc 1 292 0
 1507 032e 7868     		ldr	r0, [r7, #4]
 1508 0330 FFF7FEFF 		bl	__aeabi_i2d
 1509 0334 0246     		mov	r2, r0
 1510 0336 0B46     		mov	r3, r1
 1511 0338 1046     		mov	r0, r2
 1512 033a 1946     		mov	r1, r3
 1513 033c 4FF00002 		mov	r2, #0
 1514 0340 9E4B     		ldr	r3, .L100+4
 1515 0342 FFF7FEFF 		bl	__aeabi_ddiv
 1516 0346 0246     		mov	r2, r0
 1517 0348 0B46     		mov	r3, r1
 1518 034a 1446     		mov	r4, r2
 1519 034c 1D46     		mov	r5, r3
 1520 034e FB7D     		ldrb	r3, [r7, #23]	@ zero_extendqisi2
 1521 0350 994A     		ldr	r2, .L100
 1522 0352 4FF4CC71 		mov	r1, #408
 1523 0356 01FB03F3 		mul	r3, r1, r3
 1524 035a 1344     		add	r3, r3, r2
 1525 035c 0833     		adds	r3, r3, #8
 1526 035e 5B88     		ldrh	r3, [r3, #2]	@ movhi
 1527 0360 9BB2     		uxth	r3, r3
 1528 0362 1846     		mov	r0, r3
 1529 0364 FFF7FEFF 		bl	__aeabi_i2d
 1530 0368 0246     		mov	r2, r0
 1531 036a 0B46     		mov	r3, r1
 1532 036c 2046     		mov	r0, r4
 1533 036e 2946     		mov	r1, r5
 1534 0370 FFF7FEFF 		bl	__aeabi_dcmpgt
 1535 0374 0346     		mov	r3, r0
 1536 0376 002B     		cmp	r3, #0
 1537 0378 00D1     		bne	.L93
 293:.\SinkManager.c ****                     {
 294:.\SinkManager.c ****                         if(((double)timespan / (double)_TIMEOUT_BASE_TIME_) > _g_sinkmessagequeue[i
 295:.\SinkManager.c ****                         {                            
 296:.\SinkManager.c ****                             SinkBroadcastForever(&_g_sinkmessagequeue[index]);
 297:.\SinkManager.c ****                             _g_sinkmessagequeue[index]._messagetimeout = Timer_Tick_ReadCounter();
 298:.\SinkManager.c ****                             _g_sinkmessagequeue[index]._messagetimeoutmultiplier = 0;
 299:.\SinkManager.c ****                             _g_sinkmessagequeue[index]._messagedelay = 0x0000;
 300:.\SinkManager.c ****                             if(_g_sinkmessagequeue[index]._selfkill)
 301:.\SinkManager.c ****                                 ReleaseSinkMessage(&_g_sinkmessagequeue[index]);
 302:.\SinkManager.c ****                         }
 303:.\SinkManager.c ****                     }
 304:.\SinkManager.c ****                     break;
 1538              		.loc 1 304 0
 1539 037a 13E1     		b	.L68
 1540              	.L93:
 294:.\SinkManager.c ****                         {                            
 1541              		.loc 1 294 0
 1542 037c 7868     		ldr	r0, [r7, #4]
 1543 037e FFF7FEFF 		bl	__aeabi_i2d
 1544 0382 0246     		mov	r2, r0
 1545 0384 0B46     		mov	r3, r1
 1546 0386 1046     		mov	r0, r2
ARM GAS  C:\Users\RECEPC~1\AppData\Local\Temp\ccXijmEh.s 			page 34


 1547 0388 1946     		mov	r1, r3
 1548 038a 4FF00002 		mov	r2, #0
 1549 038e 8B4B     		ldr	r3, .L100+4
 1550 0390 FFF7FEFF 		bl	__aeabi_ddiv
 1551 0394 0246     		mov	r2, r0
 1552 0396 0B46     		mov	r3, r1
 1553 0398 1446     		mov	r4, r2
 1554 039a 1D46     		mov	r5, r3
 1555 039c FB7D     		ldrb	r3, [r7, #23]	@ zero_extendqisi2
 1556 039e 864A     		ldr	r2, .L100
 1557 03a0 4FF4CC71 		mov	r1, #408
 1558 03a4 01FB03F3 		mul	r3, r1, r3
 1559 03a8 1344     		add	r3, r3, r2
 1560 03aa 9B88     		ldrh	r3, [r3, #4]	@ movhi
 1561 03ac 9BB2     		uxth	r3, r3
 1562 03ae 1846     		mov	r0, r3
 1563 03b0 FFF7FEFF 		bl	__aeabi_i2d
 1564 03b4 0246     		mov	r2, r0
 1565 03b6 0B46     		mov	r3, r1
 1566 03b8 2046     		mov	r0, r4
 1567 03ba 2946     		mov	r1, r5
 1568 03bc FFF7FEFF 		bl	__aeabi_dcmpgt
 1569 03c0 0346     		mov	r3, r0
 1570 03c2 002B     		cmp	r3, #0
 1571 03c4 00D1     		bne	.L94
 1572              		.loc 1 304 0
 1573 03c6 EDE0     		b	.L68
 1574              	.L94:
 296:.\SinkManager.c ****                             _g_sinkmessagequeue[index]._messagetimeout = Timer_Tick_ReadCounter();
 1575              		.loc 1 296 0
 1576 03c8 FB7D     		ldrb	r3, [r7, #23]	@ zero_extendqisi2
 1577 03ca 4FF4CC72 		mov	r2, #408
 1578 03ce 02FB03F3 		mul	r3, r2, r3
 1579 03d2 794A     		ldr	r2, .L100
 1580 03d4 1344     		add	r3, r3, r2
 1581 03d6 1846     		mov	r0, r3
 1582 03d8 FFF7FEFF 		bl	SinkBroadcastForever
 297:.\SinkManager.c ****                             _g_sinkmessagequeue[index]._messagetimeoutmultiplier = 0;
 1583              		.loc 1 297 0
 1584 03dc FC7D     		ldrb	r4, [r7, #23]	@ zero_extendqisi2
 1585 03de FFF7FEFF 		bl	Timer_Tick_ReadCounter
 1586 03e2 0346     		mov	r3, r0
 1587 03e4 1946     		mov	r1, r3
 1588 03e6 744A     		ldr	r2, .L100
 1589 03e8 4FF4CC73 		mov	r3, #408
 1590 03ec 03FB04F3 		mul	r3, r3, r4
 1591 03f0 1344     		add	r3, r3, r2
 1592 03f2 0A46     		mov	r2, r1	@ movhi
 1593 03f4 DA80     		strh	r2, [r3, #6]	@ movhi
 298:.\SinkManager.c ****                             _g_sinkmessagequeue[index]._messagedelay = 0x0000;
 1594              		.loc 1 298 0
 1595 03f6 FB7D     		ldrb	r3, [r7, #23]	@ zero_extendqisi2
 1596 03f8 6F4A     		ldr	r2, .L100
 1597 03fa 4FF4CC71 		mov	r1, #408
 1598 03fe 01FB03F3 		mul	r3, r1, r3
 1599 0402 1344     		add	r3, r3, r2
 1600 0404 0833     		adds	r3, r3, #8
ARM GAS  C:\Users\RECEPC~1\AppData\Local\Temp\ccXijmEh.s 			page 35


 1601 0406 0022     		movs	r2, #0
 1602 0408 1A80     		strh	r2, [r3]	@ movhi
 299:.\SinkManager.c ****                             if(_g_sinkmessagequeue[index]._selfkill)
 1603              		.loc 1 299 0
 1604 040a FB7D     		ldrb	r3, [r7, #23]	@ zero_extendqisi2
 1605 040c 6A4A     		ldr	r2, .L100
 1606 040e 4FF4CC71 		mov	r1, #408
 1607 0412 01FB03F3 		mul	r3, r1, r3
 1608 0416 1344     		add	r3, r3, r2
 1609 0418 0022     		movs	r2, #0
 1610 041a 9A80     		strh	r2, [r3, #4]	@ movhi
 300:.\SinkManager.c ****                                 ReleaseSinkMessage(&_g_sinkmessagequeue[index]);
 1611              		.loc 1 300 0
 1612 041c FB7D     		ldrb	r3, [r7, #23]	@ zero_extendqisi2
 1613 041e 664A     		ldr	r2, .L100
 1614 0420 4FF4CC71 		mov	r1, #408
 1615 0424 01FB03F3 		mul	r3, r1, r3
 1616 0428 1344     		add	r3, r3, r2
 1617 042a 1B78     		ldrb	r3, [r3]
 1618 042c DBB2     		uxtb	r3, r3
 1619 042e 002B     		cmp	r3, #0
 1620 0430 0AD0     		beq	.L83
 301:.\SinkManager.c ****                         }
 1621              		.loc 1 301 0
 1622 0432 FB7D     		ldrb	r3, [r7, #23]	@ zero_extendqisi2
 1623 0434 4FF4CC72 		mov	r2, #408
 1624 0438 02FB03F3 		mul	r3, r2, r3
 1625 043c 5E4A     		ldr	r2, .L100
 1626 043e 1344     		add	r3, r3, r2
 1627 0440 1846     		mov	r0, r3
 1628 0442 FFF7FEFF 		bl	ReleaseSinkMessage
 1629              		.loc 1 304 0
 1630 0446 ADE0     		b	.L68
 1631              	.L83:
 1632 0448 ACE0     		b	.L68
 1633              	.L77:
 1634              	.LBE11:
 1635              	.LBB12:
 305:.\SinkManager.c ****                 }
 306:.\SinkManager.c ****                 case ALLINTERESTEDFOREVER:
 307:.\SinkManager.c ****                 {
 308:.\SinkManager.c ****                     int32 timespan = ((Timer_Tick_ReadCounter() + _TIMEOUT_BASE_TIME_*_g_sinkmessag
 1636              		.loc 1 308 0
 1637 044a FFF7FEFF 		bl	Timer_Tick_ReadCounter
 1638 044e 0346     		mov	r3, r0
 1639 0450 1846     		mov	r0, r3
 1640 0452 FB7D     		ldrb	r3, [r7, #23]	@ zero_extendqisi2
 1641 0454 584A     		ldr	r2, .L100
 1642 0456 4FF4CC71 		mov	r1, #408
 1643 045a 01FB03F3 		mul	r3, r1, r3
 1644 045e 1344     		add	r3, r3, r2
 1645 0460 0833     		adds	r3, r3, #8
 1646 0462 1B88     		ldrh	r3, [r3]	@ movhi
 1647 0464 9BB2     		uxth	r3, r3
 1648 0466 1A46     		mov	r2, r3
 1649 0468 4FF47A73 		mov	r3, #1000
 1650 046c 03FB02F3 		mul	r3, r3, r2
ARM GAS  C:\Users\RECEPC~1\AppData\Local\Temp\ccXijmEh.s 			page 36


 1651 0470 0344     		add	r3, r3, r0
 1652 0472 FA7D     		ldrb	r2, [r7, #23]	@ zero_extendqisi2
 1653 0474 5049     		ldr	r1, .L100
 1654 0476 4FF4CC70 		mov	r0, #408
 1655 047a 00FB02F2 		mul	r2, r0, r2
 1656 047e 0A44     		add	r2, r2, r1
 1657 0480 D288     		ldrh	r2, [r2, #6]	@ movhi
 1658 0482 92B2     		uxth	r2, r2
 1659 0484 9B1A     		subs	r3, r3, r2
 1660 0486 3B60     		str	r3, [r7]
 309:.\SinkManager.c ****                     if(((double)timespan / (double)_TIMEOUT_BASE_TIME_) > _g_sinkmessagequeue[index
 1661              		.loc 1 309 0
 1662 0488 3868     		ldr	r0, [r7]
 1663 048a FFF7FEFF 		bl	__aeabi_i2d
 1664 048e 0246     		mov	r2, r0
 1665 0490 0B46     		mov	r3, r1
 1666 0492 1046     		mov	r0, r2
 1667 0494 1946     		mov	r1, r3
 1668 0496 4FF00002 		mov	r2, #0
 1669 049a 484B     		ldr	r3, .L100+4
 1670 049c FFF7FEFF 		bl	__aeabi_ddiv
 1671 04a0 0246     		mov	r2, r0
 1672 04a2 0B46     		mov	r3, r1
 1673 04a4 1446     		mov	r4, r2
 1674 04a6 1D46     		mov	r5, r3
 1675 04a8 FB7D     		ldrb	r3, [r7, #23]	@ zero_extendqisi2
 1676 04aa 434A     		ldr	r2, .L100
 1677 04ac 4FF4CC71 		mov	r1, #408
 1678 04b0 01FB03F3 		mul	r3, r1, r3
 1679 04b4 1344     		add	r3, r3, r2
 1680 04b6 0833     		adds	r3, r3, #8
 1681 04b8 5B88     		ldrh	r3, [r3, #2]	@ movhi
 1682 04ba 9BB2     		uxth	r3, r3
 1683 04bc 1846     		mov	r0, r3
 1684 04be FFF7FEFF 		bl	__aeabi_i2d
 1685 04c2 0246     		mov	r2, r0
 1686 04c4 0B46     		mov	r3, r1
 1687 04c6 2046     		mov	r0, r4
 1688 04c8 2946     		mov	r1, r5
 1689 04ca FFF7FEFF 		bl	__aeabi_dcmpgt
 1690 04ce 0346     		mov	r3, r0
 1691 04d0 002B     		cmp	r3, #0
 1692 04d2 00D1     		bne	.L95
 310:.\SinkManager.c ****                     {
 311:.\SinkManager.c ****                         if(((double)timespan / (double)_TIMEOUT_BASE_TIME_) > _g_sinkmessagequeue[i
 312:.\SinkManager.c ****                         {                            
 313:.\SinkManager.c ****                             SinkAllInterested(&_g_sinkmessagequeue[index]);
 314:.\SinkManager.c ****                             _g_sinkmessagequeue[index]._messagetimeout = Timer_Tick_ReadCounter();
 315:.\SinkManager.c ****                             _g_sinkmessagequeue[index]._messagetimeoutmultiplier = 0;
 316:.\SinkManager.c ****                             _g_sinkmessagequeue[index]._messagedelay = 0x0000;
 317:.\SinkManager.c ****                             if(_g_sinkmessagequeue[index]._selfkill)
 318:.\SinkManager.c ****                                 ReleaseSinkMessage(&_g_sinkmessagequeue[index]);
 319:.\SinkManager.c ****                         }
 320:.\SinkManager.c ****                     }
 321:.\SinkManager.c ****                              
 322:.\SinkManager.c ****                     break;
 1693              		.loc 1 322 0
ARM GAS  C:\Users\RECEPC~1\AppData\Local\Temp\ccXijmEh.s 			page 37


 1694 04d4 65E0     		b	.L97
 1695              	.L95:
 311:.\SinkManager.c ****                         {                            
 1696              		.loc 1 311 0
 1697 04d6 3868     		ldr	r0, [r7]
 1698 04d8 FFF7FEFF 		bl	__aeabi_i2d
 1699 04dc 0246     		mov	r2, r0
 1700 04de 0B46     		mov	r3, r1
 1701 04e0 1046     		mov	r0, r2
 1702 04e2 1946     		mov	r1, r3
 1703 04e4 4FF00002 		mov	r2, #0
 1704 04e8 344B     		ldr	r3, .L100+4
 1705 04ea FFF7FEFF 		bl	__aeabi_ddiv
 1706 04ee 0246     		mov	r2, r0
 1707 04f0 0B46     		mov	r3, r1
 1708 04f2 1446     		mov	r4, r2
 1709 04f4 1D46     		mov	r5, r3
 1710 04f6 FB7D     		ldrb	r3, [r7, #23]	@ zero_extendqisi2
 1711 04f8 2F4A     		ldr	r2, .L100
 1712 04fa 4FF4CC71 		mov	r1, #408
 1713 04fe 01FB03F3 		mul	r3, r1, r3
 1714 0502 1344     		add	r3, r3, r2
 1715 0504 9B88     		ldrh	r3, [r3, #4]	@ movhi
 1716 0506 9BB2     		uxth	r3, r3
 1717 0508 1846     		mov	r0, r3
 1718 050a FFF7FEFF 		bl	__aeabi_i2d
 1719 050e 0246     		mov	r2, r0
 1720 0510 0B46     		mov	r3, r1
 1721 0512 2046     		mov	r0, r4
 1722 0514 2946     		mov	r1, r5
 1723 0516 FFF7FEFF 		bl	__aeabi_dcmpgt
 1724 051a 0346     		mov	r3, r0
 1725 051c 002B     		cmp	r3, #0
 1726 051e 00D1     		bne	.L96
 1727              		.loc 1 322 0
 1728 0520 3FE0     		b	.L97
 1729              	.L96:
 313:.\SinkManager.c ****                             _g_sinkmessagequeue[index]._messagetimeout = Timer_Tick_ReadCounter();
 1730              		.loc 1 313 0
 1731 0522 FB7D     		ldrb	r3, [r7, #23]	@ zero_extendqisi2
 1732 0524 4FF4CC72 		mov	r2, #408
 1733 0528 02FB03F3 		mul	r3, r2, r3
 1734 052c 224A     		ldr	r2, .L100
 1735 052e 1344     		add	r3, r3, r2
 1736 0530 1846     		mov	r0, r3
 1737 0532 FFF7FEFF 		bl	SinkAllInterested
 314:.\SinkManager.c ****                             _g_sinkmessagequeue[index]._messagetimeoutmultiplier = 0;
 1738              		.loc 1 314 0
 1739 0536 FC7D     		ldrb	r4, [r7, #23]	@ zero_extendqisi2
 1740 0538 FFF7FEFF 		bl	Timer_Tick_ReadCounter
 1741 053c 0346     		mov	r3, r0
 1742 053e 1946     		mov	r1, r3
 1743 0540 1D4A     		ldr	r2, .L100
 1744 0542 4FF4CC73 		mov	r3, #408
 1745 0546 03FB04F3 		mul	r3, r3, r4
 1746 054a 1344     		add	r3, r3, r2
 1747 054c 0A46     		mov	r2, r1	@ movhi
ARM GAS  C:\Users\RECEPC~1\AppData\Local\Temp\ccXijmEh.s 			page 38


 1748 054e DA80     		strh	r2, [r3, #6]	@ movhi
 315:.\SinkManager.c ****                             _g_sinkmessagequeue[index]._messagedelay = 0x0000;
 1749              		.loc 1 315 0
 1750 0550 FB7D     		ldrb	r3, [r7, #23]	@ zero_extendqisi2
 1751 0552 194A     		ldr	r2, .L100
 1752 0554 4FF4CC71 		mov	r1, #408
 1753 0558 01FB03F3 		mul	r3, r1, r3
 1754 055c 1344     		add	r3, r3, r2
 1755 055e 0833     		adds	r3, r3, #8
 1756 0560 0022     		movs	r2, #0
 1757 0562 1A80     		strh	r2, [r3]	@ movhi
 316:.\SinkManager.c ****                             if(_g_sinkmessagequeue[index]._selfkill)
 1758              		.loc 1 316 0
 1759 0564 FB7D     		ldrb	r3, [r7, #23]	@ zero_extendqisi2
 1760 0566 144A     		ldr	r2, .L100
 1761 0568 4FF4CC71 		mov	r1, #408
 1762 056c 01FB03F3 		mul	r3, r1, r3
 1763 0570 1344     		add	r3, r3, r2
 1764 0572 0022     		movs	r2, #0
 1765 0574 9A80     		strh	r2, [r3, #4]	@ movhi
 317:.\SinkManager.c ****                                 ReleaseSinkMessage(&_g_sinkmessagequeue[index]);
 1766              		.loc 1 317 0
 1767 0576 FB7D     		ldrb	r3, [r7, #23]	@ zero_extendqisi2
 1768 0578 0F4A     		ldr	r2, .L100
 1769 057a 4FF4CC71 		mov	r1, #408
 1770 057e 01FB03F3 		mul	r3, r1, r3
 1771 0582 1344     		add	r3, r3, r2
 1772 0584 1B78     		ldrb	r3, [r3]
 1773 0586 DBB2     		uxtb	r3, r3
 1774 0588 002B     		cmp	r3, #0
 1775 058a 0AD0     		beq	.L86
 318:.\SinkManager.c ****                         }
 1776              		.loc 1 318 0
 1777 058c FB7D     		ldrb	r3, [r7, #23]	@ zero_extendqisi2
 1778 058e 4FF4CC72 		mov	r2, #408
 1779 0592 02FB03F3 		mul	r3, r2, r3
 1780 0596 084A     		ldr	r2, .L100
 1781 0598 1344     		add	r3, r3, r2
 1782 059a 1846     		mov	r0, r3
 1783 059c FFF7FEFF 		bl	ReleaseSinkMessage
 1784              		.loc 1 322 0
 1785 05a0 FFE7     		b	.L97
 1786              	.L86:
 1787              	.L97:
 1788 05a2 00BF     		nop
 1789              	.L68:
 1790              	.LBE12:
 1791              	.LBE8:
 235:.\SinkManager.c ****     {        
 1792              		.loc 1 235 0 discriminator 2
 1793 05a4 FB7D     		ldrb	r3, [r7, #23]	@ zero_extendqisi2
 1794 05a6 0133     		adds	r3, r3, #1
 1795 05a8 FB75     		strb	r3, [r7, #23]
 1796              	.L67:
 235:.\SinkManager.c ****     {        
 1797              		.loc 1 235 0 is_stmt 0 discriminator 1
 1798 05aa FB7D     		ldrb	r3, [r7, #23]	@ zero_extendqisi2
ARM GAS  C:\Users\RECEPC~1\AppData\Local\Temp\ccXijmEh.s 			page 39


 1799 05ac 2F2B     		cmp	r3, #47
 1800 05ae 7FF62DAD 		bls	.L89
 323:.\SinkManager.c ****                 }
 324:.\SinkManager.c ****                 case NONE:
 325:.\SinkManager.c ****                     continue;
 326:.\SinkManager.c ****             }
 327:.\SinkManager.c ****         }
 328:.\SinkManager.c ****     }
 329:.\SinkManager.c **** }
 1801              		.loc 1 329 0 is_stmt 1
 1802 05b2 1837     		adds	r7, r7, #24
 1803              		.cfi_def_cfa_offset 16
 1804 05b4 BD46     		mov	sp, r7
 1805              		.cfi_def_cfa_register 13
 1806              		@ sp needed
 1807 05b6 B0BD     		pop	{r4, r5, r7, pc}
 1808              	.L101:
 1809              		.align	2
 1810              	.L100:
 1811 05b8 00000000 		.word	_g_sinkmessagequeue
 1812 05bc 00408F40 		.word	1083129856
 1813              		.cfi_endproc
 1814              	.LFE71:
 1815              		.size	SinkHandler, .-SinkHandler
 1816              		.section	.text.SinkBroadcast,"ax",%progbits
 1817              		.align	2
 1818              		.global	SinkBroadcast
 1819              		.thumb
 1820              		.thumb_func
 1821              		.type	SinkBroadcast, %function
 1822              	SinkBroadcast:
 1823              	.LFB72:
 330:.\SinkManager.c **** 
 331:.\SinkManager.c **** ///@void SinkBroadcast(SinkMessage *pmsg)
 332:.\SinkManager.c **** ///@Created by: HIJH
 333:.\SinkManager.c **** ///@Date: Septembre 2 de 2016
 334:.\SinkManager.c **** ///@Broadcasts to all of the registered observers and forwards the message to all of its observer m
 335:.\SinkManager.c **** void SinkBroadcast(PSINKMESSAGEPTR pmsg)
 336:.\SinkManager.c **** {
 1824              		.loc 1 336 0
 1825              		.cfi_startproc
 1826              		@ args = 0, pretend = 0, frame = 16
 1827              		@ frame_needed = 1, uses_anonymous_args = 0
 1828 0000 80B5     		push	{r7, lr}
 1829              		.cfi_def_cfa_offset 8
 1830              		.cfi_offset 7, -8
 1831              		.cfi_offset 14, -4
 1832 0002 84B0     		sub	sp, sp, #16
 1833              		.cfi_def_cfa_offset 24
 1834 0004 00AF     		add	r7, sp, #0
 1835              		.cfi_def_cfa_register 7
 1836 0006 7860     		str	r0, [r7, #4]
 337:.\SinkManager.c ****     uint8 index0 = 0, index1 = 0;
 1837              		.loc 1 337 0
 1838 0008 0023     		movs	r3, #0
 1839 000a FB73     		strb	r3, [r7, #15]
 1840 000c 0023     		movs	r3, #0
ARM GAS  C:\Users\RECEPC~1\AppData\Local\Temp\ccXijmEh.s 			page 40


 1841 000e BB73     		strb	r3, [r7, #14]
 338:.\SinkManager.c ****     for(index0 = 0; index0 < _SUBSCRIBER_QUEUE_DEPTH_; index0++)
 1842              		.loc 1 338 0
 1843 0010 0023     		movs	r3, #0
 1844 0012 FB73     		strb	r3, [r7, #15]
 1845 0014 37E0     		b	.L103
 1846              	.L110:
 339:.\SinkManager.c ****         for(index1 = 0; index1 < _OBSERVED_IDENTIFIERS_; index1++)
 1847              		.loc 1 339 0
 1848 0016 0023     		movs	r3, #0
 1849 0018 BB73     		strb	r3, [r7, #14]
 1850 001a 2EE0     		b	.L104
 1851              	.L109:
 340:.\SinkManager.c ****         {
 341:.\SinkManager.c ****             if(_g_sinksubscriberqueue[index0]._arrmsgid[index1] == 0x00)
 1852              		.loc 1 341 0
 1853 001c FA7B     		ldrb	r2, [r7, #15]	@ zero_extendqisi2
 1854 001e BB7B     		ldrb	r3, [r7, #14]	@ zero_extendqisi2
 1855 0020 1C49     		ldr	r1, .L112
 1856 0022 2C20     		movs	r0, #44
 1857 0024 00FB02F2 		mul	r2, r0, r2
 1858 0028 1344     		add	r3, r3, r2
 1859 002a 0B44     		add	r3, r3, r1
 1860 002c 5B78     		ldrb	r3, [r3, #1]	@ zero_extendqisi2
 1861 002e 002B     		cmp	r3, #0
 1862 0030 00D1     		bne	.L105
 342:.\SinkManager.c ****                 break;
 1863              		.loc 1 342 0
 1864 0032 25E0     		b	.L106
 1865              	.L105:
 343:.\SinkManager.c ****             
 344:.\SinkManager.c ****             if(_g_sinksubscriberqueue[index0].Callback[index1])
 1866              		.loc 1 344 0
 1867 0034 FA7B     		ldrb	r2, [r7, #15]	@ zero_extendqisi2
 1868 0036 B97B     		ldrb	r1, [r7, #14]	@ zero_extendqisi2
 1869 0038 1648     		ldr	r0, .L112
 1870 003a 1346     		mov	r3, r2
 1871 003c 9B00     		lsls	r3, r3, #2
 1872 003e 1344     		add	r3, r3, r2
 1873 0040 5B00     		lsls	r3, r3, #1
 1874 0042 1344     		add	r3, r3, r2
 1875 0044 0B44     		add	r3, r3, r1
 1876 0046 0233     		adds	r3, r3, #2
 1877 0048 9B00     		lsls	r3, r3, #2
 1878 004a 0344     		add	r3, r3, r0
 1879 004c 5B68     		ldr	r3, [r3, #4]
 1880 004e 002B     		cmp	r3, #0
 1881 0050 0FD0     		beq	.L107
 345:.\SinkManager.c ****                 _g_sinksubscriberqueue[index0].Callback[index1](pmsg);
 1882              		.loc 1 345 0
 1883 0052 FA7B     		ldrb	r2, [r7, #15]	@ zero_extendqisi2
 1884 0054 B97B     		ldrb	r1, [r7, #14]	@ zero_extendqisi2
 1885 0056 0F48     		ldr	r0, .L112
 1886 0058 1346     		mov	r3, r2
 1887 005a 9B00     		lsls	r3, r3, #2
 1888 005c 1344     		add	r3, r3, r2
 1889 005e 5B00     		lsls	r3, r3, #1
ARM GAS  C:\Users\RECEPC~1\AppData\Local\Temp\ccXijmEh.s 			page 41


 1890 0060 1344     		add	r3, r3, r2
 1891 0062 0B44     		add	r3, r3, r1
 1892 0064 0233     		adds	r3, r3, #2
 1893 0066 9B00     		lsls	r3, r3, #2
 1894 0068 0344     		add	r3, r3, r0
 1895 006a 5B68     		ldr	r3, [r3, #4]
 1896 006c 7868     		ldr	r0, [r7, #4]
 1897 006e 9847     		blx	r3
 1898 0070 00E0     		b	.L111
 1899              	.L107:
 346:.\SinkManager.c ****             else
 347:.\SinkManager.c ****                 break;
 1900              		.loc 1 347 0
 1901 0072 05E0     		b	.L106
 1902              	.L111:
 339:.\SinkManager.c ****         {
 1903              		.loc 1 339 0 discriminator 2
 1904 0074 BB7B     		ldrb	r3, [r7, #14]	@ zero_extendqisi2
 1905 0076 0133     		adds	r3, r3, #1
 1906 0078 BB73     		strb	r3, [r7, #14]
 1907              	.L104:
 339:.\SinkManager.c ****         {
 1908              		.loc 1 339 0 is_stmt 0 discriminator 1
 1909 007a BB7B     		ldrb	r3, [r7, #14]	@ zero_extendqisi2
 1910 007c 072B     		cmp	r3, #7
 1911 007e CDD9     		bls	.L109
 1912              	.L106:
 338:.\SinkManager.c ****         for(index1 = 0; index1 < _OBSERVED_IDENTIFIERS_; index1++)
 1913              		.loc 1 338 0 is_stmt 1 discriminator 2
 1914 0080 FB7B     		ldrb	r3, [r7, #15]	@ zero_extendqisi2
 1915 0082 0133     		adds	r3, r3, #1
 1916 0084 FB73     		strb	r3, [r7, #15]
 1917              	.L103:
 338:.\SinkManager.c ****         for(index1 = 0; index1 < _OBSERVED_IDENTIFIERS_; index1++)
 1918              		.loc 1 338 0 is_stmt 0 discriminator 1
 1919 0086 FB7B     		ldrb	r3, [r7, #15]	@ zero_extendqisi2
 1920 0088 0F2B     		cmp	r3, #15
 1921 008a C4D9     		bls	.L110
 348:.\SinkManager.c ****         }
 349:.\SinkManager.c **** }
 1922              		.loc 1 349 0 is_stmt 1
 1923 008c 1037     		adds	r7, r7, #16
 1924              		.cfi_def_cfa_offset 8
 1925 008e BD46     		mov	sp, r7
 1926              		.cfi_def_cfa_register 13
 1927              		@ sp needed
 1928 0090 80BD     		pop	{r7, pc}
 1929              	.L113:
 1930 0092 00BF     		.align	2
 1931              	.L112:
 1932 0094 00000000 		.word	_g_sinksubscriberqueue
 1933              		.cfi_endproc
 1934              	.LFE72:
 1935              		.size	SinkBroadcast, .-SinkBroadcast
 1936              		.section	.text.SinkFirstFound,"ax",%progbits
 1937              		.align	2
 1938              		.global	SinkFirstFound
ARM GAS  C:\Users\RECEPC~1\AppData\Local\Temp\ccXijmEh.s 			page 42


 1939              		.thumb
 1940              		.thumb_func
 1941              		.type	SinkFirstFound, %function
 1942              	SinkFirstFound:
 1943              	.LFB73:
 350:.\SinkManager.c **** 
 351:.\SinkManager.c **** ///@void SinkFirstFound(SinkMessage *pmsg)
 352:.\SinkManager.c **** ///@Created by: HIJH
 353:.\SinkManager.c **** ///@Date: Septembre 2 de 2016
 354:.\SinkManager.c **** ///@Invokes the first observer registered for the messageid and forwards the message to the matchin
 355:.\SinkManager.c **** void SinkFirstFound(PSINKMESSAGEPTR pmsg)
 356:.\SinkManager.c **** {
 1944              		.loc 1 356 0
 1945              		.cfi_startproc
 1946              		@ args = 0, pretend = 0, frame = 16
 1947              		@ frame_needed = 1, uses_anonymous_args = 0
 1948 0000 80B5     		push	{r7, lr}
 1949              		.cfi_def_cfa_offset 8
 1950              		.cfi_offset 7, -8
 1951              		.cfi_offset 14, -4
 1952 0002 84B0     		sub	sp, sp, #16
 1953              		.cfi_def_cfa_offset 24
 1954 0004 00AF     		add	r7, sp, #0
 1955              		.cfi_def_cfa_register 7
 1956 0006 7860     		str	r0, [r7, #4]
 357:.\SinkManager.c ****     bool exit = false;
 1957              		.loc 1 357 0
 1958 0008 0023     		movs	r3, #0
 1959 000a FB73     		strb	r3, [r7, #15]
 358:.\SinkManager.c ****     uint8 index0 = 0, index1 = 0;
 1960              		.loc 1 358 0
 1961 000c 0023     		movs	r3, #0
 1962 000e BB73     		strb	r3, [r7, #14]
 1963 0010 0023     		movs	r3, #0
 1964 0012 7B73     		strb	r3, [r7, #13]
 359:.\SinkManager.c ****     for(index0 = 0; index0 < _SUBSCRIBER_QUEUE_DEPTH_; index0++)
 1965              		.loc 1 359 0
 1966 0014 0023     		movs	r3, #0
 1967 0016 BB73     		strb	r3, [r7, #14]
 1968 0018 4AE0     		b	.L115
 1969              	.L124:
 360:.\SinkManager.c ****     {
 361:.\SinkManager.c ****         for(index1 = 0; index1 < _OBSERVED_IDENTIFIERS_; index1++)
 1970              		.loc 1 361 0
 1971 001a 0023     		movs	r3, #0
 1972 001c 7B73     		strb	r3, [r7, #13]
 1973 001e 3DE0     		b	.L116
 1974              	.L121:
 362:.\SinkManager.c ****         {
 363:.\SinkManager.c ****             if(_g_sinksubscriberqueue[index0]._arrmsgid[index1] == 0x00)
 1975              		.loc 1 363 0
 1976 0020 BA7B     		ldrb	r2, [r7, #14]	@ zero_extendqisi2
 1977 0022 7B7B     		ldrb	r3, [r7, #13]	@ zero_extendqisi2
 1978 0024 2549     		ldr	r1, .L125
 1979 0026 2C20     		movs	r0, #44
 1980 0028 00FB02F2 		mul	r2, r0, r2
 1981 002c 1344     		add	r3, r3, r2
ARM GAS  C:\Users\RECEPC~1\AppData\Local\Temp\ccXijmEh.s 			page 43


 1982 002e 0B44     		add	r3, r3, r1
 1983 0030 5B78     		ldrb	r3, [r3, #1]	@ zero_extendqisi2
 1984 0032 002B     		cmp	r3, #0
 1985 0034 00D1     		bne	.L117
 364:.\SinkManager.c ****                 break;
 1986              		.loc 1 364 0
 1987 0036 34E0     		b	.L118
 1988              	.L117:
 365:.\SinkManager.c ****             
 366:.\SinkManager.c ****             if(_g_sinksubscriberqueue[index0]._arrmsgid[index1] == pmsg->_messageid)
 1989              		.loc 1 366 0
 1990 0038 BA7B     		ldrb	r2, [r7, #14]	@ zero_extendqisi2
 1991 003a 7B7B     		ldrb	r3, [r7, #13]	@ zero_extendqisi2
 1992 003c 1F49     		ldr	r1, .L125
 1993 003e 2C20     		movs	r0, #44
 1994 0040 00FB02F2 		mul	r2, r0, r2
 1995 0044 1344     		add	r3, r3, r2
 1996 0046 0B44     		add	r3, r3, r1
 1997 0048 5A78     		ldrb	r2, [r3, #1]	@ zero_extendqisi2
 1998 004a 7B68     		ldr	r3, [r7, #4]
 1999 004c 5B78     		ldrb	r3, [r3, #1]
 2000 004e DBB2     		uxtb	r3, r3
 2001 0050 9A42     		cmp	r2, r3
 2002 0052 20D1     		bne	.L119
 367:.\SinkManager.c ****             {
 368:.\SinkManager.c ****                 if(_g_sinksubscriberqueue[index0].Callback[index1])
 2003              		.loc 1 368 0
 2004 0054 BA7B     		ldrb	r2, [r7, #14]	@ zero_extendqisi2
 2005 0056 797B     		ldrb	r1, [r7, #13]	@ zero_extendqisi2
 2006 0058 1848     		ldr	r0, .L125
 2007 005a 1346     		mov	r3, r2
 2008 005c 9B00     		lsls	r3, r3, #2
 2009 005e 1344     		add	r3, r3, r2
 2010 0060 5B00     		lsls	r3, r3, #1
 2011 0062 1344     		add	r3, r3, r2
 2012 0064 0B44     		add	r3, r3, r1
 2013 0066 0233     		adds	r3, r3, #2
 2014 0068 9B00     		lsls	r3, r3, #2
 2015 006a 0344     		add	r3, r3, r0
 2016 006c 5B68     		ldr	r3, [r3, #4]
 2017 006e 002B     		cmp	r3, #0
 2018 0070 0ED0     		beq	.L120
 369:.\SinkManager.c ****                     _g_sinksubscriberqueue[index0].Callback[index1](pmsg);
 2019              		.loc 1 369 0
 2020 0072 BA7B     		ldrb	r2, [r7, #14]	@ zero_extendqisi2
 2021 0074 797B     		ldrb	r1, [r7, #13]	@ zero_extendqisi2
 2022 0076 1148     		ldr	r0, .L125
 2023 0078 1346     		mov	r3, r2
 2024 007a 9B00     		lsls	r3, r3, #2
 2025 007c 1344     		add	r3, r3, r2
 2026 007e 5B00     		lsls	r3, r3, #1
 2027 0080 1344     		add	r3, r3, r2
 2028 0082 0B44     		add	r3, r3, r1
 2029 0084 0233     		adds	r3, r3, #2
 2030 0086 9B00     		lsls	r3, r3, #2
 2031 0088 0344     		add	r3, r3, r0
 2032 008a 5B68     		ldr	r3, [r3, #4]
ARM GAS  C:\Users\RECEPC~1\AppData\Local\Temp\ccXijmEh.s 			page 44


 2033 008c 7868     		ldr	r0, [r7, #4]
 2034 008e 9847     		blx	r3
 2035              	.L120:
 370:.\SinkManager.c ****                     
 371:.\SinkManager.c ****                 exit = true;
 2036              		.loc 1 371 0
 2037 0090 0123     		movs	r3, #1
 2038 0092 FB73     		strb	r3, [r7, #15]
 372:.\SinkManager.c ****                 break;
 2039              		.loc 1 372 0
 2040 0094 05E0     		b	.L118
 2041              	.L119:
 361:.\SinkManager.c ****         {
 2042              		.loc 1 361 0 discriminator 2
 2043 0096 7B7B     		ldrb	r3, [r7, #13]	@ zero_extendqisi2
 2044 0098 0133     		adds	r3, r3, #1
 2045 009a 7B73     		strb	r3, [r7, #13]
 2046              	.L116:
 361:.\SinkManager.c ****         {
 2047              		.loc 1 361 0 is_stmt 0 discriminator 1
 2048 009c 7B7B     		ldrb	r3, [r7, #13]	@ zero_extendqisi2
 2049 009e 072B     		cmp	r3, #7
 2050 00a0 BED9     		bls	.L121
 2051              	.L118:
 373:.\SinkManager.c ****             }
 374:.\SinkManager.c ****         }
 375:.\SinkManager.c ****         if(exit)
 2052              		.loc 1 375 0 is_stmt 1
 2053 00a2 FB7B     		ldrb	r3, [r7, #15]	@ zero_extendqisi2
 2054 00a4 002B     		cmp	r3, #0
 2055 00a6 00D0     		beq	.L122
 376:.\SinkManager.c ****             break;
 2056              		.loc 1 376 0
 2057 00a8 05E0     		b	.L114
 2058              	.L122:
 359:.\SinkManager.c ****     {
 2059              		.loc 1 359 0 discriminator 2
 2060 00aa BB7B     		ldrb	r3, [r7, #14]	@ zero_extendqisi2
 2061 00ac 0133     		adds	r3, r3, #1
 2062 00ae BB73     		strb	r3, [r7, #14]
 2063              	.L115:
 359:.\SinkManager.c ****     {
 2064              		.loc 1 359 0 is_stmt 0 discriminator 1
 2065 00b0 BB7B     		ldrb	r3, [r7, #14]	@ zero_extendqisi2
 2066 00b2 0F2B     		cmp	r3, #15
 2067 00b4 B1D9     		bls	.L124
 2068              	.L114:
 377:.\SinkManager.c ****     }
 378:.\SinkManager.c **** }
 2069              		.loc 1 378 0 is_stmt 1
 2070 00b6 1037     		adds	r7, r7, #16
 2071              		.cfi_def_cfa_offset 8
 2072 00b8 BD46     		mov	sp, r7
 2073              		.cfi_def_cfa_register 13
 2074              		@ sp needed
 2075 00ba 80BD     		pop	{r7, pc}
 2076              	.L126:
ARM GAS  C:\Users\RECEPC~1\AppData\Local\Temp\ccXijmEh.s 			page 45


 2077              		.align	2
 2078              	.L125:
 2079 00bc 00000000 		.word	_g_sinksubscriberqueue
 2080              		.cfi_endproc
 2081              	.LFE73:
 2082              		.size	SinkFirstFound, .-SinkFirstFound
 2083              		.section	.text.SinkAllInterested,"ax",%progbits
 2084              		.align	2
 2085              		.global	SinkAllInterested
 2086              		.thumb
 2087              		.thumb_func
 2088              		.type	SinkAllInterested, %function
 2089              	SinkAllInterested:
 2090              	.LFB74:
 379:.\SinkManager.c **** 
 380:.\SinkManager.c **** ///@void SinkAllInterested(SinkMessage *pmsg)
 381:.\SinkManager.c **** ///@Created by: HIJH
 382:.\SinkManager.c **** ///@Date: Septembre 2 de 2016
 383:.\SinkManager.c **** ///@Invokes all the observers registered for the messageid and forwards the message to the matching
 384:.\SinkManager.c **** void SinkAllInterested(PSINKMESSAGEPTR pmsg)
 385:.\SinkManager.c **** {
 2091              		.loc 1 385 0
 2092              		.cfi_startproc
 2093              		@ args = 0, pretend = 0, frame = 16
 2094              		@ frame_needed = 1, uses_anonymous_args = 0
 2095 0000 80B5     		push	{r7, lr}
 2096              		.cfi_def_cfa_offset 8
 2097              		.cfi_offset 7, -8
 2098              		.cfi_offset 14, -4
 2099 0002 84B0     		sub	sp, sp, #16
 2100              		.cfi_def_cfa_offset 24
 2101 0004 00AF     		add	r7, sp, #0
 2102              		.cfi_def_cfa_register 7
 2103 0006 7860     		str	r0, [r7, #4]
 386:.\SinkManager.c ****     uint8 index0 = 0, index1 = 0;
 2104              		.loc 1 386 0
 2105 0008 0023     		movs	r3, #0
 2106 000a FB73     		strb	r3, [r7, #15]
 2107 000c 0023     		movs	r3, #0
 2108 000e BB73     		strb	r3, [r7, #14]
 387:.\SinkManager.c ****     for(index0 = 0; index0 < _SUBSCRIBER_QUEUE_DEPTH_; index0++)
 2109              		.loc 1 387 0
 2110 0010 0023     		movs	r3, #0
 2111 0012 FB73     		strb	r3, [r7, #15]
 2112 0014 45E0     		b	.L128
 2113              	.L135:
 388:.\SinkManager.c ****     {
 389:.\SinkManager.c ****         for(index1 = 0; index1 < _OBSERVED_IDENTIFIERS_; index1++)
 2114              		.loc 1 389 0
 2115 0016 0023     		movs	r3, #0
 2116 0018 BB73     		strb	r3, [r7, #14]
 2117 001a 3CE0     		b	.L129
 2118              	.L134:
 390:.\SinkManager.c ****         {
 391:.\SinkManager.c ****             if(_g_sinksubscriberqueue[index0]._arrmsgid[index1] == 0x00)
 2119              		.loc 1 391 0
 2120 001c FA7B     		ldrb	r2, [r7, #15]	@ zero_extendqisi2
ARM GAS  C:\Users\RECEPC~1\AppData\Local\Temp\ccXijmEh.s 			page 46


 2121 001e BB7B     		ldrb	r3, [r7, #14]	@ zero_extendqisi2
 2122 0020 2349     		ldr	r1, .L136
 2123 0022 2C20     		movs	r0, #44
 2124 0024 00FB02F2 		mul	r2, r0, r2
 2125 0028 1344     		add	r3, r3, r2
 2126 002a 0B44     		add	r3, r3, r1
 2127 002c 5B78     		ldrb	r3, [r3, #1]	@ zero_extendqisi2
 2128 002e 002B     		cmp	r3, #0
 2129 0030 00D1     		bne	.L130
 392:.\SinkManager.c ****                 break;
 2130              		.loc 1 392 0
 2131 0032 33E0     		b	.L131
 2132              	.L130:
 393:.\SinkManager.c ****             
 394:.\SinkManager.c ****             if(_g_sinksubscriberqueue[index0]._arrmsgid[index1] == pmsg->_messageid)
 2133              		.loc 1 394 0
 2134 0034 FA7B     		ldrb	r2, [r7, #15]	@ zero_extendqisi2
 2135 0036 BB7B     		ldrb	r3, [r7, #14]	@ zero_extendqisi2
 2136 0038 1D49     		ldr	r1, .L136
 2137 003a 2C20     		movs	r0, #44
 2138 003c 00FB02F2 		mul	r2, r0, r2
 2139 0040 1344     		add	r3, r3, r2
 2140 0042 0B44     		add	r3, r3, r1
 2141 0044 5A78     		ldrb	r2, [r3, #1]	@ zero_extendqisi2
 2142 0046 7B68     		ldr	r3, [r7, #4]
 2143 0048 5B78     		ldrb	r3, [r3, #1]
 2144 004a DBB2     		uxtb	r3, r3
 2145 004c 9A42     		cmp	r2, r3
 2146 004e 1FD1     		bne	.L132
 395:.\SinkManager.c ****             {
 396:.\SinkManager.c ****                 if(_g_sinksubscriberqueue[index0].Callback[index1])
 2147              		.loc 1 396 0
 2148 0050 FA7B     		ldrb	r2, [r7, #15]	@ zero_extendqisi2
 2149 0052 B97B     		ldrb	r1, [r7, #14]	@ zero_extendqisi2
 2150 0054 1648     		ldr	r0, .L136
 2151 0056 1346     		mov	r3, r2
 2152 0058 9B00     		lsls	r3, r3, #2
 2153 005a 1344     		add	r3, r3, r2
 2154 005c 5B00     		lsls	r3, r3, #1
 2155 005e 1344     		add	r3, r3, r2
 2156 0060 0B44     		add	r3, r3, r1
 2157 0062 0233     		adds	r3, r3, #2
 2158 0064 9B00     		lsls	r3, r3, #2
 2159 0066 0344     		add	r3, r3, r0
 2160 0068 5B68     		ldr	r3, [r3, #4]
 2161 006a 002B     		cmp	r3, #0
 2162 006c 0FD0     		beq	.L133
 397:.\SinkManager.c ****                     _g_sinksubscriberqueue[index0].Callback[index1](pmsg);
 2163              		.loc 1 397 0
 2164 006e FA7B     		ldrb	r2, [r7, #15]	@ zero_extendqisi2
 2165 0070 B97B     		ldrb	r1, [r7, #14]	@ zero_extendqisi2
 2166 0072 0F48     		ldr	r0, .L136
 2167 0074 1346     		mov	r3, r2
 2168 0076 9B00     		lsls	r3, r3, #2
 2169 0078 1344     		add	r3, r3, r2
 2170 007a 5B00     		lsls	r3, r3, #1
 2171 007c 1344     		add	r3, r3, r2
ARM GAS  C:\Users\RECEPC~1\AppData\Local\Temp\ccXijmEh.s 			page 47


 2172 007e 0B44     		add	r3, r3, r1
 2173 0080 0233     		adds	r3, r3, #2
 2174 0082 9B00     		lsls	r3, r3, #2
 2175 0084 0344     		add	r3, r3, r0
 2176 0086 5B68     		ldr	r3, [r3, #4]
 2177 0088 7868     		ldr	r0, [r7, #4]
 2178 008a 9847     		blx	r3
 398:.\SinkManager.c ****                 
 399:.\SinkManager.c ****                 break;
 2179              		.loc 1 399 0
 2180 008c 06E0     		b	.L131
 2181              	.L133:
 2182 008e 05E0     		b	.L131
 2183              	.L132:
 389:.\SinkManager.c ****         {
 2184              		.loc 1 389 0 discriminator 2
 2185 0090 BB7B     		ldrb	r3, [r7, #14]	@ zero_extendqisi2
 2186 0092 0133     		adds	r3, r3, #1
 2187 0094 BB73     		strb	r3, [r7, #14]
 2188              	.L129:
 389:.\SinkManager.c ****         {
 2189              		.loc 1 389 0 is_stmt 0 discriminator 1
 2190 0096 BB7B     		ldrb	r3, [r7, #14]	@ zero_extendqisi2
 2191 0098 072B     		cmp	r3, #7
 2192 009a BFD9     		bls	.L134
 2193              	.L131:
 387:.\SinkManager.c ****     {
 2194              		.loc 1 387 0 is_stmt 1 discriminator 2
 2195 009c FB7B     		ldrb	r3, [r7, #15]	@ zero_extendqisi2
 2196 009e 0133     		adds	r3, r3, #1
 2197 00a0 FB73     		strb	r3, [r7, #15]
 2198              	.L128:
 387:.\SinkManager.c ****     {
 2199              		.loc 1 387 0 is_stmt 0 discriminator 1
 2200 00a2 FB7B     		ldrb	r3, [r7, #15]	@ zero_extendqisi2
 2201 00a4 0F2B     		cmp	r3, #15
 2202 00a6 B6D9     		bls	.L135
 400:.\SinkManager.c ****             }
 401:.\SinkManager.c ****         }
 402:.\SinkManager.c ****     }
 403:.\SinkManager.c **** }
 2203              		.loc 1 403 0 is_stmt 1
 2204 00a8 1037     		adds	r7, r7, #16
 2205              		.cfi_def_cfa_offset 8
 2206 00aa BD46     		mov	sp, r7
 2207              		.cfi_def_cfa_register 13
 2208              		@ sp needed
 2209 00ac 80BD     		pop	{r7, pc}
 2210              	.L137:
 2211 00ae 00BF     		.align	2
 2212              	.L136:
 2213 00b0 00000000 		.word	_g_sinksubscriberqueue
 2214              		.cfi_endproc
 2215              	.LFE74:
 2216              		.size	SinkAllInterested, .-SinkAllInterested
 2217              		.section	.text.SinkBroadcastForever,"ax",%progbits
 2218              		.align	2
ARM GAS  C:\Users\RECEPC~1\AppData\Local\Temp\ccXijmEh.s 			page 48


 2219              		.global	SinkBroadcastForever
 2220              		.thumb
 2221              		.thumb_func
 2222              		.type	SinkBroadcastForever, %function
 2223              	SinkBroadcastForever:
 2224              	.LFB75:
 404:.\SinkManager.c **** 
 405:.\SinkManager.c **** ///@void SinkBroadcastForever(SinkMessage *pmsg)
 406:.\SinkManager.c **** ///@Created by: HIJH
 407:.\SinkManager.c **** ///@Date: Septembre 2 de 2016
 408:.\SinkManager.c **** ///@Invokes all the observers registered and forwards the message to all of them
 409:.\SinkManager.c **** void SinkBroadcastForever(PSINKMESSAGEPTR pmsg)
 410:.\SinkManager.c **** {
 2225              		.loc 1 410 0
 2226              		.cfi_startproc
 2227              		@ args = 0, pretend = 0, frame = 16
 2228              		@ frame_needed = 1, uses_anonymous_args = 0
 2229 0000 80B5     		push	{r7, lr}
 2230              		.cfi_def_cfa_offset 8
 2231              		.cfi_offset 7, -8
 2232              		.cfi_offset 14, -4
 2233 0002 84B0     		sub	sp, sp, #16
 2234              		.cfi_def_cfa_offset 24
 2235 0004 00AF     		add	r7, sp, #0
 2236              		.cfi_def_cfa_register 7
 2237 0006 7860     		str	r0, [r7, #4]
 411:.\SinkManager.c ****     uint8 index0 = 0, index1 = 0;
 2238              		.loc 1 411 0
 2239 0008 0023     		movs	r3, #0
 2240 000a FB73     		strb	r3, [r7, #15]
 2241 000c 0023     		movs	r3, #0
 2242 000e BB73     		strb	r3, [r7, #14]
 412:.\SinkManager.c ****     for(index0 = 0; index0 < _SUBSCRIBER_QUEUE_DEPTH_; index0++)
 2243              		.loc 1 412 0
 2244 0010 0023     		movs	r3, #0
 2245 0012 FB73     		strb	r3, [r7, #15]
 2246 0014 35E0     		b	.L139
 2247              	.L145:
 413:.\SinkManager.c ****     {
 414:.\SinkManager.c ****         for(index1 = 0; index1 < _OBSERVED_IDENTIFIERS_; index1++)
 2248              		.loc 1 414 0
 2249 0016 0023     		movs	r3, #0
 2250 0018 BB73     		strb	r3, [r7, #14]
 2251 001a 2CE0     		b	.L140
 2252              	.L144:
 415:.\SinkManager.c ****         {
 416:.\SinkManager.c ****             if(_g_sinksubscriberqueue[index0]._arrmsgid[index1] == 0x00)
 2253              		.loc 1 416 0
 2254 001c FA7B     		ldrb	r2, [r7, #15]	@ zero_extendqisi2
 2255 001e BB7B     		ldrb	r3, [r7, #14]	@ zero_extendqisi2
 2256 0020 1B49     		ldr	r1, .L146
 2257 0022 2C20     		movs	r0, #44
 2258 0024 00FB02F2 		mul	r2, r0, r2
 2259 0028 1344     		add	r3, r3, r2
 2260 002a 0B44     		add	r3, r3, r1
 2261 002c 5B78     		ldrb	r3, [r3, #1]	@ zero_extendqisi2
 2262 002e 002B     		cmp	r3, #0
ARM GAS  C:\Users\RECEPC~1\AppData\Local\Temp\ccXijmEh.s 			page 49


 2263 0030 00D1     		bne	.L141
 417:.\SinkManager.c ****                 break;
 2264              		.loc 1 417 0
 2265 0032 23E0     		b	.L142
 2266              	.L141:
 418:.\SinkManager.c ****             
 419:.\SinkManager.c ****             if(_g_sinksubscriberqueue[index0].Callback[index1])
 2267              		.loc 1 419 0
 2268 0034 FA7B     		ldrb	r2, [r7, #15]	@ zero_extendqisi2
 2269 0036 B97B     		ldrb	r1, [r7, #14]	@ zero_extendqisi2
 2270 0038 1548     		ldr	r0, .L146
 2271 003a 1346     		mov	r3, r2
 2272 003c 9B00     		lsls	r3, r3, #2
 2273 003e 1344     		add	r3, r3, r2
 2274 0040 5B00     		lsls	r3, r3, #1
 2275 0042 1344     		add	r3, r3, r2
 2276 0044 0B44     		add	r3, r3, r1
 2277 0046 0233     		adds	r3, r3, #2
 2278 0048 9B00     		lsls	r3, r3, #2
 2279 004a 0344     		add	r3, r3, r0
 2280 004c 5B68     		ldr	r3, [r3, #4]
 2281 004e 002B     		cmp	r3, #0
 2282 0050 0ED0     		beq	.L143
 420:.\SinkManager.c ****                 _g_sinksubscriberqueue[index0].Callback[index1](pmsg);
 2283              		.loc 1 420 0
 2284 0052 FA7B     		ldrb	r2, [r7, #15]	@ zero_extendqisi2
 2285 0054 B97B     		ldrb	r1, [r7, #14]	@ zero_extendqisi2
 2286 0056 0E48     		ldr	r0, .L146
 2287 0058 1346     		mov	r3, r2
 2288 005a 9B00     		lsls	r3, r3, #2
 2289 005c 1344     		add	r3, r3, r2
 2290 005e 5B00     		lsls	r3, r3, #1
 2291 0060 1344     		add	r3, r3, r2
 2292 0062 0B44     		add	r3, r3, r1
 2293 0064 0233     		adds	r3, r3, #2
 2294 0066 9B00     		lsls	r3, r3, #2
 2295 0068 0344     		add	r3, r3, r0
 2296 006a 5B68     		ldr	r3, [r3, #4]
 2297 006c 7868     		ldr	r0, [r7, #4]
 2298 006e 9847     		blx	r3
 2299              	.L143:
 414:.\SinkManager.c ****         {
 2300              		.loc 1 414 0 discriminator 2
 2301 0070 BB7B     		ldrb	r3, [r7, #14]	@ zero_extendqisi2
 2302 0072 0133     		adds	r3, r3, #1
 2303 0074 BB73     		strb	r3, [r7, #14]
 2304              	.L140:
 414:.\SinkManager.c ****         {
 2305              		.loc 1 414 0 is_stmt 0 discriminator 1
 2306 0076 BB7B     		ldrb	r3, [r7, #14]	@ zero_extendqisi2
 2307 0078 072B     		cmp	r3, #7
 2308 007a CFD9     		bls	.L144
 2309              	.L142:
 412:.\SinkManager.c ****     {
 2310              		.loc 1 412 0 is_stmt 1 discriminator 2
 2311 007c FB7B     		ldrb	r3, [r7, #15]	@ zero_extendqisi2
 2312 007e 0133     		adds	r3, r3, #1
ARM GAS  C:\Users\RECEPC~1\AppData\Local\Temp\ccXijmEh.s 			page 50


 2313 0080 FB73     		strb	r3, [r7, #15]
 2314              	.L139:
 412:.\SinkManager.c ****     {
 2315              		.loc 1 412 0 is_stmt 0 discriminator 1
 2316 0082 FB7B     		ldrb	r3, [r7, #15]	@ zero_extendqisi2
 2317 0084 0F2B     		cmp	r3, #15
 2318 0086 C6D9     		bls	.L145
 421:.\SinkManager.c ****         }
 422:.\SinkManager.c ****     }
 423:.\SinkManager.c **** }
 2319              		.loc 1 423 0 is_stmt 1
 2320 0088 1037     		adds	r7, r7, #16
 2321              		.cfi_def_cfa_offset 8
 2322 008a BD46     		mov	sp, r7
 2323              		.cfi_def_cfa_register 13
 2324              		@ sp needed
 2325 008c 80BD     		pop	{r7, pc}
 2326              	.L147:
 2327 008e 00BF     		.align	2
 2328              	.L146:
 2329 0090 00000000 		.word	_g_sinksubscriberqueue
 2330              		.cfi_endproc
 2331              	.LFE75:
 2332              		.size	SinkBroadcastForever, .-SinkBroadcastForever
 2333              		.section	.text.SinkCounterUpdateCallback,"ax",%progbits
 2334              		.align	2
 2335              		.global	SinkCounterUpdateCallback
 2336              		.thumb
 2337              		.thumb_func
 2338              		.type	SinkCounterUpdateCallback, %function
 2339              	SinkCounterUpdateCallback:
 2340              	.LFB76:
 424:.\SinkManager.c **** 
 425:.\SinkManager.c **** //@Created By: HIJH
 426:.\SinkManager.c **** //@Septembre de 2016
 427:.\SinkManager.c **** void SinkCounterUpdateCallback(void *pdata)
 428:.\SinkManager.c **** {
 2341              		.loc 1 428 0
 2342              		.cfi_startproc
 2343              		@ args = 0, pretend = 0, frame = 16
 2344              		@ frame_needed = 1, uses_anonymous_args = 0
 2345              		@ link register save eliminated.
 2346 0000 80B4     		push	{r7}
 2347              		.cfi_def_cfa_offset 4
 2348              		.cfi_offset 7, -4
 2349 0002 85B0     		sub	sp, sp, #20
 2350              		.cfi_def_cfa_offset 24
 2351 0004 00AF     		add	r7, sp, #0
 2352              		.cfi_def_cfa_register 7
 2353 0006 7860     		str	r0, [r7, #4]
 429:.\SinkManager.c ****     FOR(uint8 index = 0, index < _MESSAGE_QUEUE_DEPTH_, index++)
 2354              		.loc 1 429 0
 2355 0008 0023     		movs	r3, #0
 2356 000a FB73     		strb	r3, [r7, #15]
 2357 000c 25E0     		b	.L149
 2358              	.L152:
 2359              	.LBB13:
ARM GAS  C:\Users\RECEPC~1\AppData\Local\Temp\ccXijmEh.s 			page 51


 430:.\SinkManager.c ****     {        
 431:.\SinkManager.c ****         SinkMessage *pmsg = &_g_sinkmessagequeue[index];
 2360              		.loc 1 431 0
 2361 000e FB7B     		ldrb	r3, [r7, #15]	@ zero_extendqisi2
 2362 0010 4FF4CC72 		mov	r2, #408
 2363 0014 02FB03F3 		mul	r3, r2, r3
 2364 0018 144A     		ldr	r2, .L153
 2365 001a 1344     		add	r3, r3, r2
 2366 001c BB60     		str	r3, [r7, #8]
 432:.\SinkManager.c ****         if(pmsg->_messagetype == BROADCASTFOREVER || 
 2367              		.loc 1 432 0
 2368 001e BB68     		ldr	r3, [r7, #8]
 2369 0020 9B78     		ldrb	r3, [r3, #2]
 2370 0022 DBB2     		uxtb	r3, r3
 2371 0024 072B     		cmp	r3, #7
 2372 0026 0ED0     		beq	.L150
 433:.\SinkManager.c ****             pmsg->_messagetype == FIRSTFOUNDFOREVER ||
 2373              		.loc 1 433 0 discriminator 1
 2374 0028 BB68     		ldr	r3, [r7, #8]
 2375 002a 9B78     		ldrb	r3, [r3, #2]
 2376 002c DBB2     		uxtb	r3, r3
 432:.\SinkManager.c ****         if(pmsg->_messagetype == BROADCASTFOREVER || 
 2377              		.loc 1 432 0 discriminator 1
 2378 002e 062B     		cmp	r3, #6
 2379 0030 09D0     		beq	.L150
 434:.\SinkManager.c ****             pmsg->_messagetype == ALLINTERESTEDFOREVER ||
 2380              		.loc 1 434 0
 2381 0032 BB68     		ldr	r3, [r7, #8]
 2382 0034 9B78     		ldrb	r3, [r3, #2]
 2383 0036 DBB2     		uxtb	r3, r3
 433:.\SinkManager.c ****             pmsg->_messagetype == FIRSTFOUNDFOREVER ||
 2384              		.loc 1 433 0
 2385 0038 082B     		cmp	r3, #8
 2386 003a 04D0     		beq	.L150
 435:.\SinkManager.c ****             pmsg->_messagetype == DELAYEDALLINTERESTED)
 2387              		.loc 1 435 0
 2388 003c BB68     		ldr	r3, [r7, #8]
 2389 003e 9B78     		ldrb	r3, [r3, #2]
 2390 0040 DBB2     		uxtb	r3, r3
 434:.\SinkManager.c ****             pmsg->_messagetype == ALLINTERESTEDFOREVER ||
 2391              		.loc 1 434 0
 2392 0042 052B     		cmp	r3, #5
 2393 0044 06D1     		bne	.L151
 2394              	.L150:
 436:.\SinkManager.c ****             pmsg->_messagetimeoutmultiplier++;
 2395              		.loc 1 436 0
 2396 0046 BB68     		ldr	r3, [r7, #8]
 2397 0048 1B89     		ldrh	r3, [r3, #8]	@ movhi
 2398 004a 9BB2     		uxth	r3, r3
 2399 004c 0133     		adds	r3, r3, #1
 2400 004e 9AB2     		uxth	r2, r3
 2401 0050 BB68     		ldr	r3, [r7, #8]
 2402 0052 1A81     		strh	r2, [r3, #8]	@ movhi
 2403              	.L151:
 2404              	.LBE13:
 429:.\SinkManager.c ****     {        
 2405              		.loc 1 429 0 discriminator 2
ARM GAS  C:\Users\RECEPC~1\AppData\Local\Temp\ccXijmEh.s 			page 52


 2406 0054 FB7B     		ldrb	r3, [r7, #15]	@ zero_extendqisi2
 2407 0056 0133     		adds	r3, r3, #1
 2408 0058 FB73     		strb	r3, [r7, #15]
 2409              	.L149:
 429:.\SinkManager.c ****     {        
 2410              		.loc 1 429 0 is_stmt 0 discriminator 1
 2411 005a FB7B     		ldrb	r3, [r7, #15]	@ zero_extendqisi2
 2412 005c 2F2B     		cmp	r3, #47
 2413 005e D6D9     		bls	.L152
 437:.\SinkManager.c ****     }
 438:.\SinkManager.c **** }
 2414              		.loc 1 438 0 is_stmt 1
 2415 0060 1437     		adds	r7, r7, #20
 2416              		.cfi_def_cfa_offset 4
 2417 0062 BD46     		mov	sp, r7
 2418              		.cfi_def_cfa_register 13
 2419              		@ sp needed
 2420 0064 5DF8047B 		ldr	r7, [sp], #4
 2421              		.cfi_restore 7
 2422              		.cfi_def_cfa_offset 0
 2423 0068 7047     		bx	lr
 2424              	.L154:
 2425 006a 00BF     		.align	2
 2426              	.L153:
 2427 006c 00000000 		.word	_g_sinkmessagequeue
 2428              		.cfi_endproc
 2429              	.LFE76:
 2430              		.size	SinkCounterUpdateCallback, .-SinkCounterUpdateCallback
 2431              		.section	.text.SinkReleaseByIDCallback,"ax",%progbits
 2432              		.align	2
 2433              		.global	SinkReleaseByIDCallback
 2434              		.thumb
 2435              		.thumb_func
 2436              		.type	SinkReleaseByIDCallback, %function
 2437              	SinkReleaseByIDCallback:
 2438              	.LFB77:
 439:.\SinkManager.c **** 
 440:.\SinkManager.c **** //@Created By: HIJH
 441:.\SinkManager.c **** //@Septembre de 2016
 442:.\SinkManager.c **** void SinkReleaseByIDCallback(void *pparam)
 443:.\SinkManager.c **** {
 2439              		.loc 1 443 0
 2440              		.cfi_startproc
 2441              		@ args = 0, pretend = 0, frame = 16
 2442              		@ frame_needed = 1, uses_anonymous_args = 0
 2443 0000 80B5     		push	{r7, lr}
 2444              		.cfi_def_cfa_offset 8
 2445              		.cfi_offset 7, -8
 2446              		.cfi_offset 14, -4
 2447 0002 84B0     		sub	sp, sp, #16
 2448              		.cfi_def_cfa_offset 24
 2449 0004 00AF     		add	r7, sp, #0
 2450              		.cfi_def_cfa_register 7
 2451 0006 7860     		str	r0, [r7, #4]
 444:.\SinkManager.c ****     PSINKMESSAGEPTR pmsg = (PSINKMESSAGEPTR)pparam;
 2452              		.loc 1 444 0
 2453 0008 7B68     		ldr	r3, [r7, #4]
ARM GAS  C:\Users\RECEPC~1\AppData\Local\Temp\ccXijmEh.s 			page 53


 2454 000a FB60     		str	r3, [r7, #12]
 445:.\SinkManager.c ****     ReleaseSinkMessageByID(pmsg->_buffer[0]);
 2455              		.loc 1 445 0
 2456 000c FB68     		ldr	r3, [r7, #12]
 2457 000e 1B7B     		ldrb	r3, [r3, #12]	@ zero_extendqisi2
 2458 0010 1846     		mov	r0, r3
 2459 0012 FFF7FEFF 		bl	ReleaseSinkMessageByID
 446:.\SinkManager.c **** }
 2460              		.loc 1 446 0
 2461 0016 1037     		adds	r7, r7, #16
 2462              		.cfi_def_cfa_offset 8
 2463 0018 BD46     		mov	sp, r7
 2464              		.cfi_def_cfa_register 13
 2465              		@ sp needed
 2466 001a 80BD     		pop	{r7, pc}
 2467              		.cfi_endproc
 2468              	.LFE77:
 2469              		.size	SinkReleaseByIDCallback, .-SinkReleaseByIDCallback
 2470              		.section	.text.SinkReleaseByPtrCallback,"ax",%progbits
 2471              		.align	2
 2472              		.global	SinkReleaseByPtrCallback
 2473              		.thumb
 2474              		.thumb_func
 2475              		.type	SinkReleaseByPtrCallback, %function
 2476              	SinkReleaseByPtrCallback:
 2477              	.LFB78:
 447:.\SinkManager.c **** 
 448:.\SinkManager.c **** //@Created By: HIJH
 449:.\SinkManager.c **** //@Septembre de 2016
 450:.\SinkManager.c **** void SinkReleaseByPtrCallback(void *pparam)
 451:.\SinkManager.c **** {
 2478              		.loc 1 451 0
 2479              		.cfi_startproc
 2480              		@ args = 0, pretend = 0, frame = 16
 2481              		@ frame_needed = 1, uses_anonymous_args = 0
 2482 0000 80B5     		push	{r7, lr}
 2483              		.cfi_def_cfa_offset 8
 2484              		.cfi_offset 7, -8
 2485              		.cfi_offset 14, -4
 2486 0002 84B0     		sub	sp, sp, #16
 2487              		.cfi_def_cfa_offset 24
 2488 0004 00AF     		add	r7, sp, #0
 2489              		.cfi_def_cfa_register 7
 2490 0006 7860     		str	r0, [r7, #4]
 452:.\SinkManager.c ****     PSINKMESSAGEPTR pmsg = (PSINKMESSAGEPTR)pparam;
 2491              		.loc 1 452 0
 2492 0008 7B68     		ldr	r3, [r7, #4]
 2493 000a FB60     		str	r3, [r7, #12]
 453:.\SinkManager.c ****     ReleaseSinkMessage((PSINKMESSAGEPTR)pmsg->_pdata);
 2494              		.loc 1 453 0
 2495 000c FB68     		ldr	r3, [r7, #12]
 2496 000e D3F89031 		ldr	r3, [r3, #400]
 2497 0012 1846     		mov	r0, r3
 2498 0014 FFF7FEFF 		bl	ReleaseSinkMessage
 454:.\SinkManager.c **** }
 2499              		.loc 1 454 0
 2500 0018 1037     		adds	r7, r7, #16
ARM GAS  C:\Users\RECEPC~1\AppData\Local\Temp\ccXijmEh.s 			page 54


 2501              		.cfi_def_cfa_offset 8
 2502 001a BD46     		mov	sp, r7
 2503              		.cfi_def_cfa_register 13
 2504              		@ sp needed
 2505 001c 80BD     		pop	{r7, pc}
 2506              		.cfi_endproc
 2507              	.LFE78:
 2508              		.size	SinkReleaseByPtrCallback, .-SinkReleaseByPtrCallback
 2509 001e 00BF     		.text
 2510              	.Letext0:
 2511              		.file 2 "c:\\program files (x86)\\cypress\\psoc creator\\3.3\\psoc creator\\import\\gnu\\arm\\4.9.
 2512              		.file 3 "c:\\program files (x86)\\cypress\\psoc creator\\3.3\\psoc creator\\import\\gnu\\arm\\4.9.
 2513              		.file 4 "Generated_Source\\PSoC5/cytypes.h"
 2514              		.file 5 ".\\SinkManager.h"
 2515              		.file 6 ".\\SinkObservables.h"
 2516              		.file 7 "Generated_Source\\PSoC5/core_cm3.h"