ARM GAS  C:\Users\Lenovo\AppData\Local\Temp\ccUD29df.s 			page 1


   1              		.syntax unified
   2              		.cpu cortex-m3
   3              		.fpu softvfp
   4              		.eabi_attribute 20, 1
   5              		.eabi_attribute 21, 1
   6              		.eabi_attribute 23, 3
   7              		.eabi_attribute 24, 1
   8              		.eabi_attribute 25, 1
   9              		.eabi_attribute 26, 1
  10              		.eabi_attribute 30, 6
  11              		.eabi_attribute 34, 1
  12              		.eabi_attribute 18, 4
  13              		.thumb
  14              		.file	"TestFile.c"
  15              		.text
  16              	.Ltext0:
  17              		.cfi_sections	.debug_frame
  18              		.section	.text.InitTest,"ax",%progbits
  19              		.align	2
  20              		.global	InitTest
  21              		.thumb
  22              		.thumb_func
  23              		.type	InitTest, %function
  24              	InitTest:
  25              	.LFB63:
  26              		.file 1 ".\\TestFile.c"
   1:.\TestFile.c  **** /* ========================================
   2:.\TestFile.c  ****  *
   3:.\TestFile.c  ****  * Copyright YOUR COMPANY, THE YEAR
   4:.\TestFile.c  ****  * All Rights Reserved
   5:.\TestFile.c  ****  * UNPUBLISHED, LICENSED SOFTWARE.
   6:.\TestFile.c  ****  *
   7:.\TestFile.c  ****  * CONFIDENTIAL AND PROPRIETARY INFORMATION
   8:.\TestFile.c  ****  * WHICH IS THE PROPERTY OF your company.
   9:.\TestFile.c  ****  *
  10:.\TestFile.c  ****  * ========================================
  11:.\TestFile.c  ****  THIS FILE IS INTENDED FOR TEST PURPOSES ONLY!!!
  12:.\TestFile.c  ****  MUST BE REMOVED DISCRETIONARILY
  13:.\TestFile.c  **** */
  14:.\TestFile.c  **** #include <project.h>
  15:.\TestFile.c  **** #include "SinkManager.h"
  16:.\TestFile.c  **** #include "SinkObservables.h"
  17:.\TestFile.c  **** 
  18:.\TestFile.c  **** #include "UARTManager.h"
  19:.\TestFile.c  **** 
  20:.\TestFile.c  **** void BlinkLEDOniButton2(void *pparam);
  21:.\TestFile.c  **** 
  22:.\TestFile.c  **** void InitTest()
  23:.\TestFile.c  **** {
  27              		.loc 1 23 0
  28              		.cfi_startproc
  29              		@ args = 0, pretend = 0, frame = 0
  30              		@ frame_needed = 1, uses_anonymous_args = 0
  31              		@ link register save eliminated.
  32 0000 80B4     		push	{r7}
  33              		.cfi_def_cfa_offset 4
  34              		.cfi_offset 7, -4
ARM GAS  C:\Users\Lenovo\AppData\Local\Temp\ccUD29df.s 			page 2


  35 0002 00AF     		add	r7, sp, #0
  36              		.cfi_def_cfa_register 7
  24:.\TestFile.c  **** /*
  25:.\TestFile.c  ****     SinkSubscriber* subscriber = AllocateSubscriberSlot();
  26:.\TestFile.c  ****     if(subscriber)
  27:.\TestFile.c  ****     {
  28:.\TestFile.c  ****         uint8 index = 0;
  29:.\TestFile.c  ****         //The maximum number of observable identifiers is _OBSERVED_IDENTIFIERS_
  30:.\TestFile.c  ****         //located in the header file "SinkManager.h"
  31:.\TestFile.c  ****         //Every identifier is paired with its respective Callback method pointer
  32:.\TestFile.c  ****         subscriber->_arrmsgid[index] = BLINK_LED_ON_IBUTTON2_PORT;
  33:.\TestFile.c  ****         subscriber->Callback[index++] = BlinkLEDOniButton2;
  34:.\TestFile.c  ****     }
  35:.\TestFile.c  **** 
  36:.\TestFile.c  ****     SinkMessage* sinkmsg = AllocateMessageSlot();    
  37:.\TestFile.c  ****     if(sinkmsg)
  38:.\TestFile.c  ****     {
  39:.\TestFile.c  ****         sinkmsg->_messageid = BLINK_LED_ON_IBUTTON2_PORT;
  40:.\TestFile.c  ****         sinkmsg->_messagetype = ALLINTERESTEDFOREVER;
  41:.\TestFile.c  ****         sinkmsg->_messagetimeoutlimit = _SINK_TIMEOUT_1S_;
  42:.\TestFile.c  ****         memcpy(sinkmsg->_buffer, (const void*)NULL, 0x00);
  43:.\TestFile.c  ****         sinkmsg->_messagestate = SINK_BUSY;
  44:.\TestFile.c  ****     }
  45:.\TestFile.c  **** */
  46:.\TestFile.c  **** }
  37              		.loc 1 46 0
  38 0004 BD46     		mov	sp, r7
  39              		.cfi_def_cfa_register 13
  40              		@ sp needed
  41 0006 5DF8047B 		ldr	r7, [sp], #4
  42              		.cfi_restore 7
  43              		.cfi_def_cfa_offset 0
  44 000a 7047     		bx	lr
  45              		.cfi_endproc
  46              	.LFE63:
  47              		.size	InitTest, .-InitTest
  48              		.section	.text.BlinkLEDOniButton2,"ax",%progbits
  49              		.align	2
  50              		.global	BlinkLEDOniButton2
  51              		.thumb
  52              		.thumb_func
  53              		.type	BlinkLEDOniButton2, %function
  54              	BlinkLEDOniButton2:
  55              	.LFB64:
  47:.\TestFile.c  **** 
  48:.\TestFile.c  **** void BlinkLEDOniButton2(void *pparam)
  49:.\TestFile.c  **** {
  56              		.loc 1 49 0
  57              		.cfi_startproc
  58              		@ args = 0, pretend = 0, frame = 8
  59              		@ frame_needed = 1, uses_anonymous_args = 0
  60 0000 80B5     		push	{r7, lr}
  61              		.cfi_def_cfa_offset 8
  62              		.cfi_offset 7, -8
  63              		.cfi_offset 14, -4
  64 0002 82B0     		sub	sp, sp, #8
  65              		.cfi_def_cfa_offset 16
ARM GAS  C:\Users\Lenovo\AppData\Local\Temp\ccUD29df.s 			page 3


  66 0004 00AF     		add	r7, sp, #0
  67              		.cfi_def_cfa_register 7
  68 0006 7860     		str	r0, [r7, #4]
  50:.\TestFile.c  ****     //LED TOGGLING
  51:.\TestFile.c  ****     iButton2_Write(!iButton2_Read());
  69              		.loc 1 51 0
  70 0008 FFF7FEFF 		bl	iButton2_Read
  71 000c 0346     		mov	r3, r0
  72 000e 002B     		cmp	r3, #0
  73 0010 0CBF     		ite	eq
  74 0012 0123     		moveq	r3, #1
  75 0014 0023     		movne	r3, #0
  76 0016 DBB2     		uxtb	r3, r3
  77 0018 1846     		mov	r0, r3
  78 001a FFF7FEFF 		bl	iButton2_Write
  52:.\TestFile.c  **** }
  79              		.loc 1 52 0
  80 001e 0837     		adds	r7, r7, #8
  81              		.cfi_def_cfa_offset 8
  82 0020 BD46     		mov	sp, r7
  83              		.cfi_def_cfa_register 13
  84              		@ sp needed
  85 0022 80BD     		pop	{r7, pc}
  86              		.cfi_endproc
  87              	.LFE64:
  88              		.size	BlinkLEDOniButton2, .-BlinkLEDOniButton2
  89              		.text
  90              	.Letext0:
  91              		.file 2 "c:\\program files (x86)\\cypress\\psoc creator\\3.3\\psoc creator\\import\\gnu\\arm\\4.9.
  92              		.file 3 "c:\\program files (x86)\\cypress\\psoc creator\\3.3\\psoc creator\\import\\gnu\\arm\\4.9.
  93              		.file 4 "Generated_Source\\PSoC5/core_cm3.h"