ARM GAS  C:\Users\RECEPC~1\AppData\Local\Temp\ccHriZ0g.s 			page 1


   1              		.syntax unified
   2              		.cpu cortex-m3
   3              		.fpu softvfp
   4              		.eabi_attribute 20, 1
   5              		.eabi_attribute 21, 1
   6              		.eabi_attribute 23, 3
   7              		.eabi_attribute 24, 1
   8              		.eabi_attribute 25, 1
   9              		.eabi_attribute 26, 1
  10              		.eabi_attribute 30, 6
  11              		.eabi_attribute 34, 1
  12              		.eabi_attribute 18, 4
  13              		.thumb
  14              		.file	"Timers.c"
  15              		.text
  16              	.Ltext0:
  17              		.cfi_sections	.debug_frame
  18              		.section	.text.InitTimers,"ax",%progbits
  19              		.align	2
  20              		.global	InitTimers
  21              		.thumb
  22              		.thumb_func
  23              		.type	InitTimers, %function
  24              	InitTimers:
  25              	.LFB63:
  26              		.file 1 ".\\Timers.c"
   1:.\Timers.c    **** /* ========================================
   2:.\Timers.c    ****  *
   3:.\Timers.c    ****  * Copyright YOUR COMPANY, THE YEAR
   4:.\Timers.c    ****  * All Rights Reserved
   5:.\Timers.c    ****  * UNPUBLISHED, LICENSED SOFTWARE.
   6:.\Timers.c    ****  *
   7:.\Timers.c    ****  * CONFIDENTIAL AND PROPRIETARY INFORMATION
   8:.\Timers.c    ****  * WHICH IS THE PROPERTY OF your company.
   9:.\Timers.c    ****  *
  10:.\Timers.c    ****  * ========================================
  11:.\Timers.c    **** */
  12:.\Timers.c    **** #include <project.h>
  13:.\Timers.c    **** #include "GlobalDefinitions.h"
  14:.\Timers.c    **** 
  15:.\Timers.c    **** #include "SinkManager.h"
  16:.\Timers.c    **** #include "SinkObservables.h"
  17:.\Timers.c    **** #include "RFLink.h"
  18:.\Timers.c    **** 
  19:.\Timers.c    **** CY_ISR_PROTO(CounterIsr);
  20:.\Timers.c    **** CY_ISR_PROTO(DispenserStateIsr);
  21:.\Timers.c    **** 
  22:.\Timers.c    **** void InitTimers()
  23:.\Timers.c    **** {
  27              		.loc 1 23 0
  28              		.cfi_startproc
  29              		@ args = 0, pretend = 0, frame = 0
  30              		@ frame_needed = 1, uses_anonymous_args = 0
  31 0000 80B5     		push	{r7, lr}
  32              		.cfi_def_cfa_offset 8
  33              		.cfi_offset 7, -8
  34              		.cfi_offset 14, -4
ARM GAS  C:\Users\RECEPC~1\AppData\Local\Temp\ccHriZ0g.s 			page 2


  35 0002 00AF     		add	r7, sp, #0
  36              		.cfi_def_cfa_register 7
  24:.\Timers.c    ****     Timer_Tick_Start();
  37              		.loc 1 24 0
  38 0004 FFF7FEFF 		bl	Timer_Tick_Start
  25:.\Timers.c    ****     Counter_ISR_StartEx(CounterIsr);
  39              		.loc 1 25 0
  40 0008 0448     		ldr	r0, .L2
  41 000a FFF7FEFF 		bl	Counter_ISR_StartEx
  26:.\Timers.c    ****     
  27:.\Timers.c    ****     Timer_DispenserState_Start();
  42              		.loc 1 27 0
  43 000e FFF7FEFF 		bl	Timer_DispenserState_Start
  28:.\Timers.c    ****     DispenserStateTimeout_ISR_StartEx(DispenserStateIsr);
  44              		.loc 1 28 0
  45 0012 0348     		ldr	r0, .L2+4
  46 0014 FFF7FEFF 		bl	DispenserStateTimeout_ISR_StartEx
  29:.\Timers.c    ****     
  30:.\Timers.c    **** }
  47              		.loc 1 30 0
  48 0018 80BD     		pop	{r7, pc}
  49              	.L3:
  50 001a 00BF     		.align	2
  51              	.L2:
  52 001c 00000000 		.word	CounterIsr
  53 0020 00000000 		.word	DispenserStateIsr
  54              		.cfi_endproc
  55              	.LFE63:
  56              		.size	InitTimers, .-InitTimers
  57              		.section	.text.CounterIsr,"ax",%progbits
  58              		.align	2
  59              		.global	CounterIsr
  60              		.thumb
  61              		.thumb_func
  62              		.type	CounterIsr, %function
  63              	CounterIsr:
  64              	.LFB64:
  31:.\Timers.c    **** 
  32:.\Timers.c    **** CY_ISR(CounterIsr)
  33:.\Timers.c    **** {
  65              		.loc 1 33 0
  66              		.cfi_startproc
  67              		@ args = 0, pretend = 0, frame = 8
  68              		@ frame_needed = 1, uses_anonymous_args = 0
  69 0000 80B5     		push	{r7, lr}
  70              		.cfi_def_cfa_offset 8
  71              		.cfi_offset 7, -8
  72              		.cfi_offset 14, -4
  73 0002 82B0     		sub	sp, sp, #8
  74              		.cfi_def_cfa_offset 16
  75 0004 00AF     		add	r7, sp, #0
  76              		.cfi_def_cfa_register 7
  34:.\Timers.c    ****     Timer_Tick_ReadStatusRegister();
  77              		.loc 1 34 0
  78 0006 FFF7FEFF 		bl	Timer_Tick_ReadStatusRegister
  35:.\Timers.c    ****     PSINKMESSAGEPTR psinkmsg = AllocateMessageSlotConditional(SINK_UPDATE_COUNTERS);
  79              		.loc 1 35 0
ARM GAS  C:\Users\RECEPC~1\AppData\Local\Temp\ccHriZ0g.s 			page 3


  80 000a 0420     		movs	r0, #4
  81 000c FFF7FEFF 		bl	AllocateMessageSlotConditional
  82 0010 7860     		str	r0, [r7, #4]
  36:.\Timers.c    ****     if(psinkmsg)
  83              		.loc 1 36 0
  84 0012 7B68     		ldr	r3, [r7, #4]
  85 0014 002B     		cmp	r3, #0
  86 0016 08D0     		beq	.L5
  37:.\Timers.c    ****     {
  38:.\Timers.c    ****         psinkmsg->_messageid = SINK_UPDATE_COUNTERS;
  87              		.loc 1 38 0
  88 0018 7B68     		ldr	r3, [r7, #4]
  89 001a 0422     		movs	r2, #4
  90 001c 5A70     		strb	r2, [r3, #1]
  39:.\Timers.c    ****         psinkmsg->_messagetype = FIRSTFOUND;
  91              		.loc 1 39 0
  92 001e 7B68     		ldr	r3, [r7, #4]
  93 0020 0322     		movs	r2, #3
  94 0022 9A70     		strb	r2, [r3, #2]
  40:.\Timers.c    ****         psinkmsg->_messagestate = SINK_BUSY;
  95              		.loc 1 40 0
  96 0024 7B68     		ldr	r3, [r7, #4]
  97 0026 0322     		movs	r2, #3
  98 0028 DA70     		strb	r2, [r3, #3]
  99              	.L5:
  41:.\Timers.c    ****     } 
  42:.\Timers.c    ****     _g_rfrx._rftimeoutmultiplier++;
 100              		.loc 1 42 0
 101 002a 044B     		ldr	r3, .L6
 102 002c 5B68     		ldr	r3, [r3, #4]
 103 002e 0133     		adds	r3, r3, #1
 104 0030 024A     		ldr	r2, .L6
 105 0032 5360     		str	r3, [r2, #4]
  43:.\Timers.c    **** }
 106              		.loc 1 43 0
 107 0034 0837     		adds	r7, r7, #8
 108              		.cfi_def_cfa_offset 8
 109 0036 BD46     		mov	sp, r7
 110              		.cfi_def_cfa_register 13
 111              		@ sp needed
 112 0038 80BD     		pop	{r7, pc}
 113              	.L7:
 114 003a 00BF     		.align	2
 115              	.L6:
 116 003c 00000000 		.word	_g_rfrx
 117              		.cfi_endproc
 118              	.LFE64:
 119              		.size	CounterIsr, .-CounterIsr
 120              		.section	.text.DispenserStateIsr,"ax",%progbits
 121              		.align	2
 122              		.global	DispenserStateIsr
 123              		.thumb
 124              		.thumb_func
 125              		.type	DispenserStateIsr, %function
 126              	DispenserStateIsr:
 127              	.LFB65:
  44:.\Timers.c    **** 
ARM GAS  C:\Users\RECEPC~1\AppData\Local\Temp\ccHriZ0g.s 			page 4


  45:.\Timers.c    **** CY_ISR(DispenserStateIsr)
  46:.\Timers.c    **** {
 128              		.loc 1 46 0
 129              		.cfi_startproc
 130              		@ args = 0, pretend = 0, frame = 8
 131              		@ frame_needed = 1, uses_anonymous_args = 0
 132 0000 80B5     		push	{r7, lr}
 133              		.cfi_def_cfa_offset 8
 134              		.cfi_offset 7, -8
 135              		.cfi_offset 14, -4
 136 0002 82B0     		sub	sp, sp, #8
 137              		.cfi_def_cfa_offset 16
 138 0004 00AF     		add	r7, sp, #0
 139              		.cfi_def_cfa_register 7
  47:.\Timers.c    ****     Timer_DispenserState_ReadStatusRegister();
 140              		.loc 1 47 0
 141 0006 FFF7FEFF 		bl	Timer_DispenserState_ReadStatusRegister
  48:.\Timers.c    ****     PSINKMESSAGEPTR psinkmsg = AllocateMessageSlotConditional(DISPENSER_UPDATE_PUMP_TRANSACTION_TIM
 142              		.loc 1 48 0
 143 000a 0720     		movs	r0, #7
 144 000c FFF7FEFF 		bl	AllocateMessageSlotConditional
 145 0010 7860     		str	r0, [r7, #4]
  49:.\Timers.c    ****     if(psinkmsg)
 146              		.loc 1 49 0
 147 0012 7B68     		ldr	r3, [r7, #4]
 148 0014 002B     		cmp	r3, #0
 149 0016 08D0     		beq	.L8
  50:.\Timers.c    ****     {
  51:.\Timers.c    ****         psinkmsg->_messageid = DISPENSER_UPDATE_PUMP_TRANSACTION_TIMEOUTS;
 150              		.loc 1 51 0
 151 0018 7B68     		ldr	r3, [r7, #4]
 152 001a 0722     		movs	r2, #7
 153 001c 5A70     		strb	r2, [r3, #1]
  52:.\Timers.c    ****         psinkmsg->_messagetype = FIRSTFOUND;
 154              		.loc 1 52 0
 155 001e 7B68     		ldr	r3, [r7, #4]
 156 0020 0322     		movs	r2, #3
 157 0022 9A70     		strb	r2, [r3, #2]
  53:.\Timers.c    ****         psinkmsg->_messagestate = SINK_BUSY;
 158              		.loc 1 53 0
 159 0024 7B68     		ldr	r3, [r7, #4]
 160 0026 0322     		movs	r2, #3
 161 0028 DA70     		strb	r2, [r3, #3]
 162              	.L8:
  54:.\Timers.c    ****     }
  55:.\Timers.c    **** }
 163              		.loc 1 55 0
 164 002a 0837     		adds	r7, r7, #8
 165              		.cfi_def_cfa_offset 8
 166 002c BD46     		mov	sp, r7
 167              		.cfi_def_cfa_register 13
 168              		@ sp needed
 169 002e 80BD     		pop	{r7, pc}
 170              		.cfi_endproc
 171              	.LFE65:
 172              		.size	DispenserStateIsr, .-DispenserStateIsr
 173              		.text
ARM GAS  C:\Users\RECEPC~1\AppData\Local\Temp\ccHriZ0g.s 			page 5


 174              	.Letext0:
 175              		.file 2 "c:\\program files (x86)\\cypress\\psoc creator\\3.3\\psoc creator\\import\\gnu\\arm\\4.9.
 176              		.file 3 "c:\\program files (x86)\\cypress\\psoc creator\\3.3\\psoc creator\\import\\gnu\\arm\\4.9.
 177              		.file 4 "Generated_Source\\PSoC5/cytypes.h"
 178              		.file 5 ".\\SinkManager.h"
 179              		.file 6 ".\\SinkObservables.h"
 180              		.file 7 ".\\RFLink.h"
 181              		.file 8 "Generated_Source\\PSoC5/core_cm3.h"