ARM GAS  C:\Users\RECEPC~1\AppData\Local\Temp\ccLPSkkB.s 			page 1


   1              		.syntax unified
   2              		.cpu cortex-m3
   3              		.fpu softvfp
   4              		.eabi_attribute 20, 1
   5              		.eabi_attribute 21, 1
   6              		.eabi_attribute 23, 3
   7              		.eabi_attribute 24, 1
   8              		.eabi_attribute 25, 1
   9              		.eabi_attribute 26, 1
  10              		.eabi_attribute 30, 6
  11              		.eabi_attribute 34, 1
  12              		.eabi_attribute 18, 4
  13              		.thumb
  14              		.file	"UARTManagerSink.c"
  15              		.text
  16              	.Ltext0:
  17              		.cfi_sections	.debug_frame
  18              		.section	.text.UARTSinkRegistration,"ax",%progbits
  19              		.align	2
  20              		.global	UARTSinkRegistration
  21              		.thumb
  22              		.thumb_func
  23              		.type	UARTSinkRegistration, %function
  24              	UARTSinkRegistration:
  25              	.LFB0:
  26              		.file 1 ".\\UARTManagerSink.c"
   1:.\UARTManagerSink.c **** /* ========================================
   2:.\UARTManagerSink.c ****  *
   3:.\UARTManagerSink.c ****  * Copyright YOUR COMPANY, THE YEAR
   4:.\UARTManagerSink.c ****  * All Rights Reserved
   5:.\UARTManagerSink.c ****  * UNPUBLISHED, LICENSED SOFTWARE.
   6:.\UARTManagerSink.c ****  *
   7:.\UARTManagerSink.c ****  * CONFIDENTIAL AND PROPRIETARY INFORMATION
   8:.\UARTManagerSink.c ****  * WHICH IS THE PROPERTY OF your company.
   9:.\UARTManagerSink.c ****  *
  10:.\UARTManagerSink.c ****  * ========================================
  11:.\UARTManagerSink.c **** */
  12:.\UARTManagerSink.c **** #include "SinkManager.h"
  13:.\UARTManagerSink.c **** #include "SinkObservables.h"
  14:.\UARTManagerSink.c **** 
  15:.\UARTManagerSink.c **** void UARTSinkRegistration()
  16:.\UARTManagerSink.c **** {
  27              		.loc 1 16 0
  28              		.cfi_startproc
  29              		@ args = 0, pretend = 0, frame = 0
  30              		@ frame_needed = 1, uses_anonymous_args = 0
  31              		@ link register save eliminated.
  32 0000 80B4     		push	{r7}
  33              		.cfi_def_cfa_offset 4
  34              		.cfi_offset 7, -4
  35 0002 00AF     		add	r7, sp, #0
  36              		.cfi_def_cfa_register 7
  17:.\UARTManagerSink.c ****     //RESERVED FOR FUTURE USE
  18:.\UARTManagerSink.c **** }
  37              		.loc 1 18 0
  38 0004 BD46     		mov	sp, r7
  39              		.cfi_def_cfa_register 13
ARM GAS  C:\Users\RECEPC~1\AppData\Local\Temp\ccLPSkkB.s 			page 2


  40              		@ sp needed
  41 0006 5DF8047B 		ldr	r7, [sp], #4
  42              		.cfi_restore 7
  43              		.cfi_def_cfa_offset 0
  44 000a 7047     		bx	lr
  45              		.cfi_endproc
  46              	.LFE0:
  47              		.size	UARTSinkRegistration, .-UARTSinkRegistration
  48              		.text
  49              	.Letext0: