ARM GAS  C:\Users\RECEPC~1\AppData\Local\Temp\ccBCv3DT.s 			page 1


   1              		.syntax unified
   2              		.cpu cortex-m3
   3              		.fpu softvfp
   4              		.eabi_attribute 20, 1
   5              		.eabi_attribute 21, 1
   6              		.eabi_attribute 23, 3
   7              		.eabi_attribute 24, 1
   8              		.eabi_attribute 25, 1
   9              		.eabi_attribute 26, 1
  10              		.eabi_attribute 30, 6
  11              		.eabi_attribute 34, 1
  12              		.eabi_attribute 18, 4
  13              		.thumb
  14              		.file	"UARTResolver.c"
  15              		.text
  16              	.Ltext0:
  17              		.cfi_sections	.debug_frame
  18              		.global	_g_uartresolvers
  19              		.data
  20              		.align	2
  21              		.type	_g_uartresolvers, %object
  22              		.size	_g_uartresolvers, 48
  23              	_g_uartresolvers:
  24 0000 A0       		.byte	-96
  25 0001 000000   		.space	3
  26 0004 00000000 		.word	RFUARTBufferResolver
  27 0008 A1       		.byte	-95
  28 0009 000000   		.space	3
  29 000c 00000000 		.word	0
  30 0010 A2       		.byte	-94
  31 0011 000000   		.space	3
  32 0014 00000000 		.word	DispenserBufferResolver
  33 0018 A3       		.byte	-93
  34 0019 000000   		.space	3
  35 001c 00000000 		.word	Display1BufferResolver
  36 0020 A4       		.byte	-92
  37 0021 000000   		.space	3
  38 0024 00000000 		.word	Display2BufferResolver
  39 0028 A5       		.byte	-91
  40 0029 000000   		.space	3
  41 002c 00000000 		.word	0
  42              		.section	.text.InvokeResolver,"ax",%progbits
  43              		.align	2
  44              		.global	InvokeResolver
  45              		.thumb
  46              		.thumb_func
  47              		.type	InvokeResolver, %function
  48              	InvokeResolver:
  49              	.LFB0:
  50              		.file 1 ".\\UARTResolver.c"
   1:.\UARTResolver.c **** /* ========================================
   2:.\UARTResolver.c ****  *
   3:.\UARTResolver.c ****  * Copyright YOUR COMPANY, THE YEAR
   4:.\UARTResolver.c ****  * All Rights Reserved
   5:.\UARTResolver.c ****  * UNPUBLISHED, LICENSED SOFTWARE.
   6:.\UARTResolver.c ****  *
   7:.\UARTResolver.c ****  * CONFIDENTIAL AND PROPRIETARY INFORMATION
ARM GAS  C:\Users\RECEPC~1\AppData\Local\Temp\ccBCv3DT.s 			page 2


   8:.\UARTResolver.c ****  * WHICH IS THE PROPERTY OF your company.
   9:.\UARTResolver.c ****  *
  10:.\UARTResolver.c ****  * ========================================
  11:.\UARTResolver.c **** */
  12:.\UARTResolver.c **** 
  13:.\UARTResolver.c **** #include "UARTManager.h"
  14:.\UARTResolver.c **** 
  15:.\UARTResolver.c **** bool RFUARTBufferResolver(uint8* pbuffer, uint16 buffersize);
  16:.\UARTResolver.c **** bool Display1BufferResolver(uint8* pbuffer, uint16 buffersize);
  17:.\UARTResolver.c **** bool Display2BufferResolver(uint8* pbuffer, uint16 buffersize);
  18:.\UARTResolver.c **** bool DispenserBufferResolver(uint8* pbuffer, uint16 buffersize);
  19:.\UARTResolver.c **** 
  20:.\UARTResolver.c **** //@Created by: HIJH
  21:.\UARTResolver.c **** //@Date: Septembre 3 de 2016
  22:.\UARTResolver.c **** //This array of Resolvers handle the incoming data for each UART port. They parse the incoming data
  23:.\UARTResolver.c **** //and decide when the data is complete to be pushed into the SinkManager.
  24:.\UARTResolver.c **** UARTResolver _g_uartresolvers[] =  
  25:.\UARTResolver.c **** {
  26:.\UARTResolver.c ****     { UART_RF, RFUARTBufferResolver }, 
  27:.\UARTResolver.c ****     { UART_PRINTER, NULL }, 
  28:.\UARTResolver.c ****     { UART_DISPENSER, DispenserBufferResolver }, 
  29:.\UARTResolver.c ****     { UART_DISPLAY1, Display1BufferResolver }, 
  30:.\UARTResolver.c ****     { UART_DISPLAY2, Display2BufferResolver }, 
  31:.\UARTResolver.c ****     { UART_NULL, NULL }
  32:.\UARTResolver.c **** };
  33:.\UARTResolver.c **** 
  34:.\UARTResolver.c **** /*
  35:.\UARTResolver.c **** @bool InvokeUARTResolver(uint8 identifier, char* pbuffer, uint16 buffersize)
  36:.\UARTResolver.c **** @Created by: HIJH
  37:.\UARTResolver.c **** @Date: Août 30 de 2016
  38:.\UARTResolver.c **** 
  39:.\UARTResolver.c **** This method handles the entire incoming stream and acts according to the status of the Networking S
  40:.\UARTResolver.c **** and the block size.
  41:.\UARTResolver.c **** 
  42:.\UARTResolver.c **** Once a complete stream (block) has been received, this method checks for the length of the block an
  43:.\UARTResolver.c **** its content.
  44:.\UARTResolver.c **** */
  45:.\UARTResolver.c **** bool InvokeResolver(uint8 identifier, uint8* pbuffer, uint16 buffersize)
  46:.\UARTResolver.c **** {
  51              		.loc 1 46 0
  52              		.cfi_startproc
  53              		@ args = 0, pretend = 0, frame = 16
  54              		@ frame_needed = 1, uses_anonymous_args = 0
  55 0000 80B5     		push	{r7, lr}
  56              		.cfi_def_cfa_offset 8
  57              		.cfi_offset 7, -8
  58              		.cfi_offset 14, -4
  59 0002 84B0     		sub	sp, sp, #16
  60              		.cfi_def_cfa_offset 24
  61 0004 00AF     		add	r7, sp, #0
  62              		.cfi_def_cfa_register 7
  63 0006 0346     		mov	r3, r0
  64 0008 3960     		str	r1, [r7]
  65 000a FB71     		strb	r3, [r7, #7]
  66 000c 1346     		mov	r3, r2	@ movhi
  67 000e BB80     		strh	r3, [r7, #4]	@ movhi
  47:.\UARTResolver.c ****     bool retval = false;
ARM GAS  C:\Users\RECEPC~1\AppData\Local\Temp\ccBCv3DT.s 			page 3


  68              		.loc 1 47 0
  69 0010 0023     		movs	r3, #0
  70 0012 FB73     		strb	r3, [r7, #15]
  48:.\UARTResolver.c ****     PNEAR_UARTRESOLVERPTR ptresolveriterator = &_g_uartresolvers[0];
  71              		.loc 1 48 0
  72 0014 0E4B     		ldr	r3, .L7
  73 0016 BB60     		str	r3, [r7, #8]
  49:.\UARTResolver.c ****     while(ptresolveriterator->_identifier != UART_NULL)
  74              		.loc 1 49 0
  75 0018 10E0     		b	.L2
  76              	.L5:
  50:.\UARTResolver.c ****     {
  51:.\UARTResolver.c ****         if(ptresolveriterator->_identifier == identifier)
  77              		.loc 1 51 0
  78 001a BB68     		ldr	r3, [r7, #8]
  79 001c 1B78     		ldrb	r3, [r3]	@ zero_extendqisi2
  80 001e FA79     		ldrb	r2, [r7, #7]	@ zero_extendqisi2
  81 0020 9A42     		cmp	r2, r3
  82 0022 08D1     		bne	.L3
  52:.\UARTResolver.c ****         {
  53:.\UARTResolver.c ****             retval = ptresolveriterator->PtrResolver(pbuffer, buffersize);
  83              		.loc 1 53 0
  84 0024 BB68     		ldr	r3, [r7, #8]
  85 0026 5B68     		ldr	r3, [r3, #4]
  86 0028 BA88     		ldrh	r2, [r7, #4]
  87 002a 3868     		ldr	r0, [r7]
  88 002c 1146     		mov	r1, r2
  89 002e 9847     		blx	r3
  90 0030 0346     		mov	r3, r0
  91 0032 FB73     		strb	r3, [r7, #15]
  54:.\UARTResolver.c ****             break;
  92              		.loc 1 54 0
  93 0034 06E0     		b	.L4
  94              	.L3:
  55:.\UARTResolver.c ****         }
  56:.\UARTResolver.c ****         ptresolveriterator++;
  95              		.loc 1 56 0
  96 0036 BB68     		ldr	r3, [r7, #8]
  97 0038 0833     		adds	r3, r3, #8
  98 003a BB60     		str	r3, [r7, #8]
  99              	.L2:
  49:.\UARTResolver.c ****     {
 100              		.loc 1 49 0
 101 003c BB68     		ldr	r3, [r7, #8]
 102 003e 1B78     		ldrb	r3, [r3]	@ zero_extendqisi2
 103 0040 A52B     		cmp	r3, #165
 104 0042 EAD1     		bne	.L5
 105              	.L4:
  57:.\UARTResolver.c ****     }
  58:.\UARTResolver.c ****     return retval;
 106              		.loc 1 58 0
 107 0044 FB7B     		ldrb	r3, [r7, #15]	@ zero_extendqisi2
  59:.\UARTResolver.c **** }
 108              		.loc 1 59 0
 109 0046 1846     		mov	r0, r3
 110 0048 1037     		adds	r7, r7, #16
 111              		.cfi_def_cfa_offset 8
ARM GAS  C:\Users\RECEPC~1\AppData\Local\Temp\ccBCv3DT.s 			page 4


 112 004a BD46     		mov	sp, r7
 113              		.cfi_def_cfa_register 13
 114              		@ sp needed
 115 004c 80BD     		pop	{r7, pc}
 116              	.L8:
 117 004e 00BF     		.align	2
 118              	.L7:
 119 0050 00000000 		.word	_g_uartresolvers
 120              		.cfi_endproc
 121              	.LFE0:
 122              		.size	InvokeResolver, .-InvokeResolver
 123              		.text
 124              	.Letext0:
 125              		.file 2 "Generated_Source\\PSoC5/cytypes.h"
 126              		.file 3 ".\\UARTManager.h"