ARM GAS  C:\Users\RECEPC~1\AppData\Local\Temp\ccl4lE1S.s 			page 1


   1              		.syntax unified
   2              		.cpu cortex-m3
   3              		.fpu softvfp
   4              		.eabi_attribute 20, 1
   5              		.eabi_attribute 21, 1
   6              		.eabi_attribute 23, 3
   7              		.eabi_attribute 24, 1
   8              		.eabi_attribute 25, 1
   9              		.eabi_attribute 26, 1
  10              		.eabi_attribute 30, 6
  11              		.eabi_attribute 34, 1
  12              		.eabi_attribute 18, 4
  13              		.thumb
  14              		.file	"UARTManager.c"
  15              		.text
  16              	.Ltext0:
  17              		.cfi_sections	.debug_frame
  18              		.comm	HoseDispenser,1,1
  19              		.global	_g_uartmanagers
  20              		.data
  21              		.align	2
  22              		.type	_g_uartmanagers, %object
  23              		.size	_g_uartmanagers, 456
  24              	_g_uartmanagers:
  25 0000 A0       		.byte	-96
  26 0001 000000   		.space	3
  27 0004 00000000 		.word	RFUARTSend
  28 0008 00000000 		.word	RF_Physical_Start
  29 000c 00000000 		.word	RF_Physical_Stop
  30 0010 00000000 		.word	RF_Physical_ReadControlRegister
  31 0014 00000000 		.word	RF_Physical_WriteControlRegister
  32 0018 00000000 		.word	RF_Physical_ReadRxData
  33 001c 00000000 		.word	RF_Physical_ReadRxStatus
  34 0020 00000000 		.word	RF_Physical_GetChar
  35 0024 00000000 		.word	RF_Physical_GetByte
  36 0028 00000000 		.word	RF_Physical_GetRxBufferSize
  37 002c 00000000 		.word	RF_Physical_ClearRxBuffer
  38 0030 00000000 		.word	RF_Physical_WriteTxData
  39 0034 00000000 		.word	RF_Physical_ReadTxStatus
  40 0038 00000000 		.word	RF_Physical_PutChar
  41 003c 00000000 		.word	RF_Physical_PutString
  42 0040 00000000 		.word	RF_Physical_PutArray
  43 0044 00000000 		.word	RF_Physical_PutCRLF
  44 0048 00000000 		.word	RF_Physical_ClearTxBuffer
  45 004c A1       		.byte	-95
  46 004d 000000   		.space	3
  47 0050 00000000 		.word	PrinterUARTSend
  48 0054 00000000 		.word	Printer_Start
  49 0058 00000000 		.word	Printer_Stop
  50 005c 00000000 		.word	Printer_ReadControlRegister
  51 0060 00000000 		.word	Printer_WriteControlRegister
  52 0064 00000000 		.word	Printer_ReadRxData
  53 0068 00000000 		.word	Printer_ReadRxStatus
  54 006c 00000000 		.word	Printer_GetChar
  55 0070 00000000 		.word	Printer_GetByte
  56 0074 00000000 		.word	Printer_GetRxBufferSize
  57 0078 00000000 		.word	Printer_ClearRxBuffer
ARM GAS  C:\Users\RECEPC~1\AppData\Local\Temp\ccl4lE1S.s 			page 2


  58 007c 00000000 		.word	Printer_WriteTxData
  59 0080 00000000 		.word	Printer_ReadTxStatus
  60 0084 00000000 		.word	Printer_PutChar
  61 0088 00000000 		.word	Printer_PutString
  62 008c 00000000 		.word	Printer_PutArray
  63 0090 00000000 		.word	Printer_PutCRLF
  64 0094 00000000 		.word	Printer_ClearTxBuffer
  65 0098 A2       		.byte	-94
  66 0099 000000   		.space	3
  67 009c 00000000 		.word	DispenserUARTSend
  68 00a0 00000000 		.word	Dispenser_Start
  69 00a4 00000000 		.word	Dispenser_Stop
  70 00a8 00000000 		.word	Dispenser_ReadControlRegister
  71 00ac 00000000 		.word	Dispenser_WriteControlRegister
  72 00b0 00000000 		.word	Dispenser_ReadRxData
  73 00b4 00000000 		.word	Dispenser_ReadRxStatus
  74 00b8 00000000 		.word	Dispenser_GetChar
  75 00bc 00000000 		.word	Dispenser_GetByte
  76 00c0 00000000 		.word	Dispenser_GetRxBufferSize
  77 00c4 00000000 		.word	Dispenser_ClearRxBuffer
  78 00c8 00000000 		.word	Dispenser_WriteTxData
  79 00cc 00000000 		.word	Dispenser_ReadTxStatus
  80 00d0 00000000 		.word	Dispenser_PutChar
  81 00d4 00000000 		.word	Dispenser_PutString
  82 00d8 00000000 		.word	Dispenser_PutArray
  83 00dc 00000000 		.word	Dispenser_PutCRLF
  84 00e0 00000000 		.word	Dispenser_ClearTxBuffer
  85 00e4 A3       		.byte	-93
  86 00e5 000000   		.space	3
  87 00e8 00000000 		.word	Dislay1UARTSend
  88 00ec 00000000 		.word	Display1_Start
  89 00f0 00000000 		.word	Display1_Stop
  90 00f4 00000000 		.word	Display1_ReadControlRegister
  91 00f8 00000000 		.word	Display1_WriteControlRegister
  92 00fc 00000000 		.word	Display1_ReadRxData
  93 0100 00000000 		.word	Display1_ReadRxStatus
  94 0104 00000000 		.word	Display1_GetChar
  95 0108 00000000 		.word	Display1_GetByte
  96 010c 00000000 		.word	Display1_GetRxBufferSize
  97 0110 00000000 		.word	Display1_ClearRxBuffer
  98 0114 00000000 		.word	Display1_WriteTxData
  99 0118 00000000 		.word	Display1_ReadTxStatus
 100 011c 00000000 		.word	Display1_PutChar
 101 0120 00000000 		.word	Display1_PutString
 102 0124 00000000 		.word	Display1_PutArray
 103 0128 00000000 		.word	Display1_PutCRLF
 104 012c 00000000 		.word	Display1_ClearTxBuffer
 105 0130 A4       		.byte	-92
 106 0131 000000   		.space	3
 107 0134 00000000 		.word	Dislay1UARTSend
 108 0138 00000000 		.word	Display2_Start
 109 013c 00000000 		.word	Display2_Stop
 110 0140 00000000 		.word	Display2_ReadControlRegister
 111 0144 00000000 		.word	Display2_WriteControlRegister
 112 0148 00000000 		.word	Display2_ReadRxData
 113 014c 00000000 		.word	Display2_ReadRxStatus
 114 0150 00000000 		.word	Display2_GetChar
ARM GAS  C:\Users\RECEPC~1\AppData\Local\Temp\ccl4lE1S.s 			page 3


 115 0154 00000000 		.word	Display2_GetByte
 116 0158 00000000 		.word	Display2_GetRxBufferSize
 117 015c 00000000 		.word	Display2_ClearRxBuffer
 118 0160 00000000 		.word	Display2_WriteTxData
 119 0164 00000000 		.word	Display2_ReadTxStatus
 120 0168 00000000 		.word	Display2_PutChar
 121 016c 00000000 		.word	Display2_PutString
 122 0170 00000000 		.word	Display2_PutArray
 123 0174 00000000 		.word	Display2_PutCRLF
 124 0178 00000000 		.word	Display2_ClearTxBuffer
 125 017c A5       		.byte	-91
 126 017d 000000   		.space	3
 127 0180 00000000 		.word	0
 128 0184 00000000 		.word	0
 129 0188 00000000 		.word	0
 130 018c 00000000 		.word	0
 131 0190 00000000 		.word	0
 132 0194 00000000 		.word	0
 133 0198 00000000 		.word	0
 134 019c 00000000 		.word	0
 135 01a0 00000000 		.word	0
 136 01a4 00000000 		.word	0
 137 01a8 00000000 		.word	0
 138 01ac 00000000 		.word	0
 139 01b0 00000000 		.word	0
 140 01b4 00000000 		.word	0
 141 01b8 00000000 		.word	0
 142 01bc 00000000 		.word	0
 143 01c0 00000000 		.word	0
 144 01c4 00000000 		.word	0
 145              		.comm	_g_uartmessages,5360,4
 146              		.section	.text.UARTGlobalHandler,"ax",%progbits
 147              		.align	2
 148              		.global	UARTGlobalHandler
 149              		.thumb
 150              		.thumb_func
 151              		.type	UARTGlobalHandler, %function
 152              	UARTGlobalHandler:
 153              	.LFB63:
 154              		.file 1 ".\\UARTManager.c"
   1:.\UARTManager.c **** /* ========================================
   2:.\UARTManager.c ****  *
   3:.\UARTManager.c ****  * Copyright INSEPET SISTEMAS, 2016
   4:.\UARTManager.c ****  * All Rights Reserved
   5:.\UARTManager.c ****  * UNPUBLISHED, LICENSED SOFTWARE.
   6:.\UARTManager.c ****  *
   7:.\UARTManager.c ****  * CONFIDENTIAL AND PROPRIETARY INFORMATION
   8:.\UARTManager.c ****  * WHICH IS THE PROPERTY OF your company.
   9:.\UARTManager.c ****  *
  10:.\UARTManager.c ****  * ========================================
  11:.\UARTManager.c **** @Created By: HIJH
  12:.\UARTManager.c **** @Date: Septembre de 2016
  13:.\UARTManager.c **** */
  14:.\UARTManager.c **** #include <project.h>
  15:.\UARTManager.c **** 
  16:.\UARTManager.c **** #include "GlobalDefinitions.h"
  17:.\UARTManager.c **** #include "SinkManager.h"
ARM GAS  C:\Users\RECEPC~1\AppData\Local\Temp\ccl4lE1S.s 			page 4


  18:.\UARTManager.c **** #include "SinkObservables.h"
  19:.\UARTManager.c **** #include "UARTManager.h"
  20:.\UARTManager.c **** 
  21:.\UARTManager.c **** void ReleaseMessage(UARTMessage *pmessage);
  22:.\UARTManager.c **** 
  23:.\UARTManager.c **** void RFUARTSend(void *ptr);
  24:.\UARTManager.c **** void Dislay1UARTSend(void *ptr);
  25:.\UARTManager.c **** void Dislay2UARTSend(void *ptr);
  26:.\UARTManager.c **** void DispenserUARTSend(void *param);
  27:.\UARTManager.c **** void PrinterUARTSend(void *ptr);
  28:.\UARTManager.c **** 
  29:.\UARTManager.c **** //*************************************************************************************************
  30:.\UARTManager.c **** //@Created by: HIJH
  31:.\UARTManager.c **** //@Date: Septembre 1 de 2016    
  32:.\UARTManager.c **** //THIS IS ARRAY CONFIGURES ALL OF THE AVAILABLE UART PORTS TO BE USED BY THE COMMUNICATIONS STACK.
  33:.\UARTManager.c **** //TO AVOID USING MAGIC NUMBERS TO ADDRESS THE APPROPRIATE SET OF POINTERS, AGGREGATE A SUITABLE
  34:.\UARTManager.c **** //"SET-IDENTIFIER" IN THE MANAGER ENUMERATION LOCATED IN THE "UARTManager.h" FILE
  35:.\UARTManager.c **** 
  36:.\UARTManager.c **** UARTManager _g_uartmanagers[] = 
  37:.\UARTManager.c **** {
  38:.\UARTManager.c ****     //Wireless Link entry
  39:.\UARTManager.c ****     { UART_RF, RFUARTSend, RF_Physical_Start, RF_Physical_Stop, RF_Physical_ReadControlRegister, RF
  40:.\UARTManager.c ****     //Printer entry
  41:.\UARTManager.c ****     { UART_PRINTER, PrinterUARTSend, Printer_Start, Printer_Stop, Printer_ReadControlRegister, Prin
  42:.\UARTManager.c ****     //Dispenser/Pump entry
  43:.\UARTManager.c ****     { UART_DISPENSER, DispenserUARTSend, Dispenser_Start, Dispenser_Stop, Dispenser_ReadControlRegi
  44:.\UARTManager.c ****     //Display/LCD 1 entry
  45:.\UARTManager.c ****     { UART_DISPLAY1, Dislay1UARTSend, Display1_Start, Display1_Stop, Display1_ReadControlRegister, 
  46:.\UARTManager.c ****     //Display/LCD 2 entry
  47:.\UARTManager.c ****     { UART_DISPLAY2, Dislay1UARTSend, Display2_Start, Display2_Stop, Display2_ReadControlRegister, 
  48:.\UARTManager.c ****     //NULL entry
  49:.\UARTManager.c ****     { UART_NULL, NULL, NULL, NULL, NULL, NULL, NULL, NULL, NULL, NULL, NULL, NULL, NULL, NULL, NULL
  50:.\UARTManager.c **** };
  51:.\UARTManager.c **** 
  52:.\UARTManager.c **** 
  53:.\UARTManager.c **** /*
  54:.\UARTManager.c **** */
  55:.\UARTManager.c **** //The maximum number of message that could be sent at a time and awaiting for a response
  56:.\UARTManager.c **** UARTMessage _g_uartmessages[_MAX_MESSAGES_];
  57:.\UARTManager.c **** 
  58:.\UARTManager.c **** ///@************USAGE EXAMPLE OF THE UART MANAGER MODEL************
  59:.\UARTManager.c **** ///@TO ACQUIRE A MESSAGE SLOT, INVOKE THE "UARTMessage* GetUARTMessageSlot()" METHOD.
  60:.\UARTManager.c **** ///@FILL THE ACQUIRED MESSAGE WITH THE APPROPRIATE PARAMETERS AS FOLLOW:
  61:.\UARTManager.c **** /*
  62:.\UARTManager.c ****         ptrmessage->_puartmanager = GetUARTManager(UART_RF);
  63:.\UARTManager.c **** 
  64:.\UARTManager.c ****         //FILL THE TRANSMISSION BUFFER WITH THE DATA TO BE TRANSMITTED FOLLOWING THE NEXT CONVENTIO
  65:.\UARTManager.c **** 
  66:.\UARTManager.c ****         ptrmessage->_messagetx <= { _COMMAND_IDENTIFIER, CUSTOM DATA };
  67:.\UARTManager.c **** 
  68:.\UARTManager.c ****         //THE COMMAND IDENTIFIER ALLOWS FOR THE RESPONSE MAPPING TO THE AWAITING MESSAGE.
  69:.\UARTManager.c ****         //THIS MUST BE REPLIED BACK FOLLOWING THE SAME MESSAGE FORMAT SO THE RESPECTIVE
  70:.\UARTManager.c ****         //ISR CAN EXTRACT THE IDENTIFIER AND PUSH THE RESPONSE BUFFER INTO THE MESSAGE BUFFER
  71:.\UARTManager.c **** 
  72:.\UARTManager.c ****         ptrmessage->_messagerx <= ISR_UART_BUFFER;
  73:.\UARTManager.c **** */
  74:.\UARTManager.c **** void UARTGlobalHandler()
ARM GAS  C:\Users\RECEPC~1\AppData\Local\Temp\ccl4lE1S.s 			page 5


  75:.\UARTManager.c **** {
 155              		.loc 1 75 0
 156              		.cfi_startproc
 157              		@ args = 0, pretend = 0, frame = 8
 158              		@ frame_needed = 1, uses_anonymous_args = 0
 159 0000 80B5     		push	{r7, lr}
 160              		.cfi_def_cfa_offset 8
 161              		.cfi_offset 7, -8
 162              		.cfi_offset 14, -4
 163 0002 82B0     		sub	sp, sp, #8
 164              		.cfi_def_cfa_offset 16
 165 0004 00AF     		add	r7, sp, #0
 166              		.cfi_def_cfa_register 7
  76:.\UARTManager.c ****     FOR(uint8 index = 0, index < _MAX_MESSAGES_, index++)
 167              		.loc 1 76 0
 168 0006 0023     		movs	r3, #0
 169 0008 FB71     		strb	r3, [r7, #7]
 170 000a 18E0     		b	.L2
 171              	.L4:
 172              	.LBB2:
  77:.\UARTManager.c ****     {
  78:.\UARTManager.c ****         PUARTMESSAGEPTR pmessage = &_g_uartmessages[index];
 173              		.loc 1 78 0
 174 000c FB79     		ldrb	r3, [r7, #7]	@ zero_extendqisi2
 175 000e 4FF48672 		mov	r2, #268
 176 0012 02FB03F3 		mul	r3, r2, r3
 177 0016 0D4A     		ldr	r2, .L5
 178 0018 1344     		add	r3, r3, r2
 179 001a 3B60     		str	r3, [r7]
  79:.\UARTManager.c ****         //A PENDING message is one that has been acquired recently but 
  80:.\UARTManager.c ****         //has not been posted yet to its destination
  81:.\UARTManager.c ****         if(pmessage->_messagestate == PENDING)
 180              		.loc 1 81 0
 181 001c 3B68     		ldr	r3, [r7]
 182 001e 1B78     		ldrb	r3, [r3]
 183 0020 DBB2     		uxtb	r3, r3
 184 0022 C22B     		cmp	r3, #194
 185 0024 08D1     		bne	.L3
  82:.\UARTManager.c ****         {
  83:.\UARTManager.c ****             pmessage->_puartmanager->CustomUARTSend(pmessage);
 186              		.loc 1 83 0
 187 0026 3B68     		ldr	r3, [r7]
 188 0028 D3F80831 		ldr	r3, [r3, #264]
 189 002c 5B68     		ldr	r3, [r3, #4]
 190 002e 3868     		ldr	r0, [r7]
 191 0030 9847     		blx	r3
  84:.\UARTManager.c ****             ReleaseMessage(pmessage);
 192              		.loc 1 84 0
 193 0032 3868     		ldr	r0, [r7]
 194 0034 FFF7FEFF 		bl	ReleaseMessage
 195              	.L3:
 196              	.LBE2:
  76:.\UARTManager.c ****     {
 197              		.loc 1 76 0 discriminator 2
 198 0038 FB79     		ldrb	r3, [r7, #7]	@ zero_extendqisi2
 199 003a 0133     		adds	r3, r3, #1
 200 003c FB71     		strb	r3, [r7, #7]
ARM GAS  C:\Users\RECEPC~1\AppData\Local\Temp\ccl4lE1S.s 			page 6


 201              	.L2:
  76:.\UARTManager.c ****     {
 202              		.loc 1 76 0 is_stmt 0 discriminator 1
 203 003e FB79     		ldrb	r3, [r7, #7]	@ zero_extendqisi2
 204 0040 132B     		cmp	r3, #19
 205 0042 E3D9     		bls	.L4
  85:.\UARTManager.c ****         }
  86:.\UARTManager.c ****     }
  87:.\UARTManager.c **** }
 206              		.loc 1 87 0 is_stmt 1
 207 0044 0837     		adds	r7, r7, #8
 208              		.cfi_def_cfa_offset 8
 209 0046 BD46     		mov	sp, r7
 210              		.cfi_def_cfa_register 13
 211              		@ sp needed
 212 0048 80BD     		pop	{r7, pc}
 213              	.L6:
 214 004a 00BF     		.align	2
 215              	.L5:
 216 004c 00000000 		.word	_g_uartmessages
 217              		.cfi_endproc
 218              	.LFE63:
 219              		.size	UARTGlobalHandler, .-UARTGlobalHandler
 220              		.section	.text.GetUARTManager,"ax",%progbits
 221              		.align	2
 222              		.global	GetUARTManager
 223              		.thumb
 224              		.thumb_func
 225              		.type	GetUARTManager, %function
 226              	GetUARTManager:
 227              	.LFB64:
  88:.\UARTManager.c **** 
  89:.\UARTManager.c **** ///@UARTManager* GetUARTManager(uint8 manager)
  90:.\UARTManager.c **** ///@Created by: HIJH
  91:.\UARTManager.c **** ///@Date: Septembre 1 de 2016
  92:.\UARTManager.c **** ///Returns the requested UART manager identified by the appropriate identifier
  93:.\UARTManager.c **** PUARTMANAGERPTR GetUARTManager(uint8 manager)
  94:.\UARTManager.c **** {
 228              		.loc 1 94 0
 229              		.cfi_startproc
 230              		@ args = 0, pretend = 0, frame = 16
 231              		@ frame_needed = 1, uses_anonymous_args = 0
 232              		@ link register save eliminated.
 233 0000 80B4     		push	{r7}
 234              		.cfi_def_cfa_offset 4
 235              		.cfi_offset 7, -4
 236 0002 85B0     		sub	sp, sp, #20
 237              		.cfi_def_cfa_offset 24
 238 0004 00AF     		add	r7, sp, #0
 239              		.cfi_def_cfa_register 7
 240 0006 0346     		mov	r3, r0
 241 0008 FB71     		strb	r3, [r7, #7]
  95:.\UARTManager.c ****     PUARTMANAGERPTR pretvaliterator = _g_uartmanagers;
 242              		.loc 1 95 0
 243 000a 0B4B     		ldr	r3, .L13
 244 000c FB60     		str	r3, [r7, #12]
  96:.\UARTManager.c ****     while(pretvaliterator->_identifier != UART_NULL)
ARM GAS  C:\Users\RECEPC~1\AppData\Local\Temp\ccl4lE1S.s 			page 7


 245              		.loc 1 96 0
 246 000e 08E0     		b	.L8
 247              	.L11:
  97:.\UARTManager.c ****     {
  98:.\UARTManager.c ****         if(pretvaliterator->_identifier == manager)
 248              		.loc 1 98 0
 249 0010 FB68     		ldr	r3, [r7, #12]
 250 0012 1B78     		ldrb	r3, [r3]	@ zero_extendqisi2
 251 0014 FA79     		ldrb	r2, [r7, #7]	@ zero_extendqisi2
 252 0016 9A42     		cmp	r2, r3
 253 0018 00D1     		bne	.L9
  99:.\UARTManager.c ****             break;
 254              		.loc 1 99 0
 255 001a 06E0     		b	.L10
 256              	.L9:
 100:.\UARTManager.c ****         
 101:.\UARTManager.c ****         pretvaliterator++;
 257              		.loc 1 101 0
 258 001c FB68     		ldr	r3, [r7, #12]
 259 001e 4C33     		adds	r3, r3, #76
 260 0020 FB60     		str	r3, [r7, #12]
 261              	.L8:
  96:.\UARTManager.c ****     {
 262              		.loc 1 96 0
 263 0022 FB68     		ldr	r3, [r7, #12]
 264 0024 1B78     		ldrb	r3, [r3]	@ zero_extendqisi2
 265 0026 A52B     		cmp	r3, #165
 266 0028 F2D1     		bne	.L11
 267              	.L10:
 102:.\UARTManager.c ****     }
 103:.\UARTManager.c ****     return pretvaliterator;
 268              		.loc 1 103 0
 269 002a FB68     		ldr	r3, [r7, #12]
 104:.\UARTManager.c **** }
 270              		.loc 1 104 0
 271 002c 1846     		mov	r0, r3
 272 002e 1437     		adds	r7, r7, #20
 273              		.cfi_def_cfa_offset 4
 274 0030 BD46     		mov	sp, r7
 275              		.cfi_def_cfa_register 13
 276              		@ sp needed
 277 0032 5DF8047B 		ldr	r7, [sp], #4
 278              		.cfi_restore 7
 279              		.cfi_def_cfa_offset 0
 280 0036 7047     		bx	lr
 281              	.L14:
 282              		.align	2
 283              	.L13:
 284 0038 00000000 		.word	_g_uartmanagers
 285              		.cfi_endproc
 286              	.LFE64:
 287              		.size	GetUARTManager, .-GetUARTManager
 288              		.section	.text.GetUARTMessageSlot,"ax",%progbits
 289              		.align	2
 290              		.global	GetUARTMessageSlot
 291              		.thumb
 292              		.thumb_func
ARM GAS  C:\Users\RECEPC~1\AppData\Local\Temp\ccl4lE1S.s 			page 8


 293              		.type	GetUARTMessageSlot, %function
 294              	GetUARTMessageSlot:
 295              	.LFB65:
 105:.\UARTManager.c **** 
 106:.\UARTManager.c **** ///@UARTMessage* GetUARTMessageSlot()
 107:.\UARTManager.c **** ///@Created by: HIJH
 108:.\UARTManager.c **** ///@Date: Septembre 1 de 2016
 109:.\UARTManager.c **** ///This function search for an available slot in the array of messages and returns a pointer
 110:.\UARTManager.c **** ///to the first availabe. If there isn't any available slot, then returns NULL.
 111:.\UARTManager.c **** PUARTMESSAGEPTR GetUARTMessageSlot(uint8 manager)
 112:.\UARTManager.c **** {
 296              		.loc 1 112 0
 297              		.cfi_startproc
 298              		@ args = 0, pretend = 0, frame = 16
 299              		@ frame_needed = 1, uses_anonymous_args = 0
 300 0000 90B5     		push	{r4, r7, lr}
 301              		.cfi_def_cfa_offset 12
 302              		.cfi_offset 4, -12
 303              		.cfi_offset 7, -8
 304              		.cfi_offset 14, -4
 305 0002 85B0     		sub	sp, sp, #20
 306              		.cfi_def_cfa_offset 32
 307 0004 00AF     		add	r7, sp, #0
 308              		.cfi_def_cfa_register 7
 309 0006 0346     		mov	r3, r0
 310 0008 FB71     		strb	r3, [r7, #7]
 113:.\UARTManager.c ****     PUARTMESSAGEPTR pretval = NULL;
 311              		.loc 1 113 0
 312 000a 0023     		movs	r3, #0
 313 000c FB60     		str	r3, [r7, #12]
 114:.\UARTManager.c ****     FOR(uint8 index = 0, index < _MAX_MESSAGES_, index++)
 314              		.loc 1 114 0
 315 000e 0023     		movs	r3, #0
 316 0010 FB72     		strb	r3, [r7, #11]
 317 0012 45E0     		b	.L16
 318              	.L19:
 115:.\UARTManager.c ****     {
 116:.\UARTManager.c ****         if(_g_uartmessages[index]._messagestate == FREE)
 319              		.loc 1 116 0
 320 0014 FB7A     		ldrb	r3, [r7, #11]	@ zero_extendqisi2
 321 0016 264A     		ldr	r2, .L21
 322 0018 4FF48671 		mov	r1, #268
 323 001c 01FB03F3 		mul	r3, r1, r3
 324 0020 1344     		add	r3, r3, r2
 325 0022 1B78     		ldrb	r3, [r3]
 326 0024 DBB2     		uxtb	r3, r3
 327 0026 C02B     		cmp	r3, #192
 328 0028 37D1     		bne	.L17
 117:.\UARTManager.c ****         {
 118:.\UARTManager.c ****             _g_uartmessages[index]._messagestate = ALLOCATED;                        
 329              		.loc 1 118 0
 330 002a FB7A     		ldrb	r3, [r7, #11]	@ zero_extendqisi2
 331 002c 204A     		ldr	r2, .L21
 332 002e 4FF48671 		mov	r1, #268
 333 0032 01FB03F3 		mul	r3, r1, r3
 334 0036 1344     		add	r3, r3, r2
 335 0038 C122     		movs	r2, #193
ARM GAS  C:\Users\RECEPC~1\AppData\Local\Temp\ccl4lE1S.s 			page 9


 336 003a 1A70     		strb	r2, [r3]
 119:.\UARTManager.c ****             _g_uartmessages[index]._messagelength = 0x0000;
 337              		.loc 1 119 0
 338 003c FB7A     		ldrb	r3, [r7, #11]	@ zero_extendqisi2
 339 003e 1C4A     		ldr	r2, .L21
 340 0040 4FF48671 		mov	r1, #268
 341 0044 01FB03F3 		mul	r3, r1, r3
 342 0048 1344     		add	r3, r3, r2
 343 004a 0022     		movs	r2, #0
 344 004c 5A80     		strh	r2, [r3, #2]	@ movhi
 120:.\UARTManager.c ****             _g_uartmessages[index]._puartmanager = GetUARTManager(manager);
 345              		.loc 1 120 0
 346 004e FC7A     		ldrb	r4, [r7, #11]	@ zero_extendqisi2
 347 0050 FB79     		ldrb	r3, [r7, #7]	@ zero_extendqisi2
 348 0052 1846     		mov	r0, r3
 349 0054 FFF7FEFF 		bl	GetUARTManager
 350 0058 0146     		mov	r1, r0
 351 005a 154A     		ldr	r2, .L21
 352 005c 4FF48673 		mov	r3, #268
 353 0060 03FB04F3 		mul	r3, r3, r4
 354 0064 1344     		add	r3, r3, r2
 355 0066 03F58473 		add	r3, r3, #264
 356 006a 1960     		str	r1, [r3]
 121:.\UARTManager.c ****             memset(_g_uartmessages[index]._messagetx, 0x00, _MAX_MESSAGE_SIZE_);
 357              		.loc 1 121 0
 358 006c FB7A     		ldrb	r3, [r7, #11]	@ zero_extendqisi2
 359 006e 4FF48672 		mov	r2, #268
 360 0072 02FB03F3 		mul	r3, r2, r3
 361 0076 0E4A     		ldr	r2, .L21
 362 0078 1344     		add	r3, r3, r2
 363 007a 0433     		adds	r3, r3, #4
 364 007c 1846     		mov	r0, r3
 365 007e 0021     		movs	r1, #0
 366 0080 4FF48072 		mov	r2, #256
 367 0084 FFF7FEFF 		bl	memset
 122:.\UARTManager.c ****             
 123:.\UARTManager.c ****             pretval = &_g_uartmessages[index];
 368              		.loc 1 123 0
 369 0088 FB7A     		ldrb	r3, [r7, #11]	@ zero_extendqisi2
 370 008a 4FF48672 		mov	r2, #268
 371 008e 02FB03F3 		mul	r3, r2, r3
 372 0092 074A     		ldr	r2, .L21
 373 0094 1344     		add	r3, r3, r2
 374 0096 FB60     		str	r3, [r7, #12]
 124:.\UARTManager.c ****             break;
 375              		.loc 1 124 0
 376 0098 05E0     		b	.L18
 377              	.L17:
 114:.\UARTManager.c ****     {
 378              		.loc 1 114 0 discriminator 2
 379 009a FB7A     		ldrb	r3, [r7, #11]	@ zero_extendqisi2
 380 009c 0133     		adds	r3, r3, #1
 381 009e FB72     		strb	r3, [r7, #11]
 382              	.L16:
 114:.\UARTManager.c ****     {
 383              		.loc 1 114 0 is_stmt 0 discriminator 1
 384 00a0 FB7A     		ldrb	r3, [r7, #11]	@ zero_extendqisi2
ARM GAS  C:\Users\RECEPC~1\AppData\Local\Temp\ccl4lE1S.s 			page 10


 385 00a2 132B     		cmp	r3, #19
 386 00a4 B6D9     		bls	.L19
 387              	.L18:
 125:.\UARTManager.c ****         }
 126:.\UARTManager.c ****     }
 127:.\UARTManager.c ****     return pretval;
 388              		.loc 1 127 0 is_stmt 1
 389 00a6 FB68     		ldr	r3, [r7, #12]
 128:.\UARTManager.c **** }
 390              		.loc 1 128 0
 391 00a8 1846     		mov	r0, r3
 392 00aa 1437     		adds	r7, r7, #20
 393              		.cfi_def_cfa_offset 12
 394 00ac BD46     		mov	sp, r7
 395              		.cfi_def_cfa_register 13
 396              		@ sp needed
 397 00ae 90BD     		pop	{r4, r7, pc}
 398              	.L22:
 399              		.align	2
 400              	.L21:
 401 00b0 00000000 		.word	_g_uartmessages
 402              		.cfi_endproc
 403              	.LFE65:
 404              		.size	GetUARTMessageSlot, .-GetUARTMessageSlot
 405              		.section	.text.InitUARTManager,"ax",%progbits
 406              		.align	2
 407              		.global	InitUARTManager
 408              		.thumb
 409              		.thumb_func
 410              		.type	InitUARTManager, %function
 411              	InitUARTManager:
 412              	.LFB66:
 129:.\UARTManager.c **** 
 130:.\UARTManager.c **** void InitUARTManager()
 131:.\UARTManager.c **** {
 413              		.loc 1 131 0
 414              		.cfi_startproc
 415              		@ args = 0, pretend = 0, frame = 8
 416              		@ frame_needed = 1, uses_anonymous_args = 0
 417 0000 80B5     		push	{r7, lr}
 418              		.cfi_def_cfa_offset 8
 419              		.cfi_offset 7, -8
 420              		.cfi_offset 14, -4
 421 0002 82B0     		sub	sp, sp, #8
 422              		.cfi_def_cfa_offset 16
 423 0004 00AF     		add	r7, sp, #0
 424              		.cfi_def_cfa_register 7
 132:.\UARTManager.c ****     FOR(uint8 index = 0, index < _MAX_MESSAGES_, index++)
 425              		.loc 1 132 0
 426 0006 0023     		movs	r3, #0
 427 0008 FB71     		strb	r3, [r7, #7]
 428 000a 2DE0     		b	.L24
 429              	.L25:
 133:.\UARTManager.c ****     {
 134:.\UARTManager.c ****         _g_uartmessages[index]._messagestate = FREE;        
 430              		.loc 1 134 0 discriminator 3
 431 000c FB79     		ldrb	r3, [r7, #7]	@ zero_extendqisi2
ARM GAS  C:\Users\RECEPC~1\AppData\Local\Temp\ccl4lE1S.s 			page 11


 432 000e 1B4A     		ldr	r2, .L26
 433 0010 4FF48671 		mov	r1, #268
 434 0014 01FB03F3 		mul	r3, r1, r3
 435 0018 1344     		add	r3, r3, r2
 436 001a C022     		movs	r2, #192
 437 001c 1A70     		strb	r2, [r3]
 135:.\UARTManager.c ****         _g_uartmessages[index]._messagelength = 0x0000;
 438              		.loc 1 135 0 discriminator 3
 439 001e FB79     		ldrb	r3, [r7, #7]	@ zero_extendqisi2
 440 0020 164A     		ldr	r2, .L26
 441 0022 4FF48671 		mov	r1, #268
 442 0026 01FB03F3 		mul	r3, r1, r3
 443 002a 1344     		add	r3, r3, r2
 444 002c 0022     		movs	r2, #0
 445 002e 5A80     		strh	r2, [r3, #2]	@ movhi
 136:.\UARTManager.c ****         memset(_g_uartmessages[index]._messagetx, 0x00, _MAX_MESSAGE_SIZE_);
 446              		.loc 1 136 0 discriminator 3
 447 0030 FB79     		ldrb	r3, [r7, #7]	@ zero_extendqisi2
 448 0032 4FF48672 		mov	r2, #268
 449 0036 02FB03F3 		mul	r3, r2, r3
 450 003a 104A     		ldr	r2, .L26
 451 003c 1344     		add	r3, r3, r2
 452 003e 0433     		adds	r3, r3, #4
 453 0040 1846     		mov	r0, r3
 454 0042 0021     		movs	r1, #0
 455 0044 4FF48072 		mov	r2, #256
 456 0048 FFF7FEFF 		bl	memset
 137:.\UARTManager.c ****         _g_uartmessages[index]._puartmanager = NULL;
 457              		.loc 1 137 0 discriminator 3
 458 004c FB79     		ldrb	r3, [r7, #7]	@ zero_extendqisi2
 459 004e 0B4A     		ldr	r2, .L26
 460 0050 4FF48671 		mov	r1, #268
 461 0054 01FB03F3 		mul	r3, r1, r3
 462 0058 1344     		add	r3, r3, r2
 463 005a 03F58473 		add	r3, r3, #264
 464 005e 0022     		movs	r2, #0
 465 0060 1A60     		str	r2, [r3]
 132:.\UARTManager.c ****     {
 466              		.loc 1 132 0 discriminator 3
 467 0062 FB79     		ldrb	r3, [r7, #7]	@ zero_extendqisi2
 468 0064 0133     		adds	r3, r3, #1
 469 0066 FB71     		strb	r3, [r7, #7]
 470              	.L24:
 132:.\UARTManager.c ****     {
 471              		.loc 1 132 0 is_stmt 0 discriminator 1
 472 0068 FB79     		ldrb	r3, [r7, #7]	@ zero_extendqisi2
 473 006a 132B     		cmp	r3, #19
 474 006c CED9     		bls	.L25
 138:.\UARTManager.c ****     }
 139:.\UARTManager.c ****         
 140:.\UARTManager.c ****     GLOBAL_LOOP_PUSH(UARTGlobalHandler);
 475              		.loc 1 140 0 is_stmt 1
 476 006e 0448     		ldr	r0, .L26+4
 477 0070 FFF7FEFF 		bl	loop_push
 141:.\UARTManager.c **** }
 478              		.loc 1 141 0
 479 0074 0837     		adds	r7, r7, #8
ARM GAS  C:\Users\RECEPC~1\AppData\Local\Temp\ccl4lE1S.s 			page 12


 480              		.cfi_def_cfa_offset 8
 481 0076 BD46     		mov	sp, r7
 482              		.cfi_def_cfa_register 13
 483              		@ sp needed
 484 0078 80BD     		pop	{r7, pc}
 485              	.L27:
 486 007a 00BF     		.align	2
 487              	.L26:
 488 007c 00000000 		.word	_g_uartmessages
 489 0080 00000000 		.word	UARTGlobalHandler
 490              		.cfi_endproc
 491              	.LFE66:
 492              		.size	InitUARTManager, .-InitUARTManager
 493              		.section	.text.ReleaseMessage,"ax",%progbits
 494              		.align	2
 495              		.global	ReleaseMessage
 496              		.thumb
 497              		.thumb_func
 498              		.type	ReleaseMessage, %function
 499              	ReleaseMessage:
 500              	.LFB67:
 142:.\UARTManager.c **** 
 143:.\UARTManager.c **** /*
 144:.\UARTManager.c **** @RFUARTSend standard method used for the UART Manager
 145:.\UARTManager.c **** @Created by: HIJH
 146:.\UARTManager.c **** @Date: Août 30 de 2016
 147:.\UARTManager.c **** Since all of the communications are posted through the same channel, the state machine carry all of
 148:.\UARTManager.c **** flags required to notify through the layers.
 149:.\UARTManager.c **** 
 150:.\UARTManager.c **** */
 151:.\UARTManager.c **** 
 152:.\UARTManager.c **** void ReleaseMessage(UARTMessage *pmessage)
 153:.\UARTManager.c **** {
 501              		.loc 1 153 0
 502              		.cfi_startproc
 503              		@ args = 0, pretend = 0, frame = 8
 504              		@ frame_needed = 1, uses_anonymous_args = 0
 505 0000 80B5     		push	{r7, lr}
 506              		.cfi_def_cfa_offset 8
 507              		.cfi_offset 7, -8
 508              		.cfi_offset 14, -4
 509 0002 82B0     		sub	sp, sp, #8
 510              		.cfi_def_cfa_offset 16
 511 0004 00AF     		add	r7, sp, #0
 512              		.cfi_def_cfa_register 7
 513 0006 7860     		str	r0, [r7, #4]
 154:.\UARTManager.c ****     pmessage->_messagestate = FREE;
 514              		.loc 1 154 0
 515 0008 7B68     		ldr	r3, [r7, #4]
 516 000a C022     		movs	r2, #192
 517 000c 1A70     		strb	r2, [r3]
 155:.\UARTManager.c ****     pmessage->_messagelength = 0x0000;
 518              		.loc 1 155 0
 519 000e 7B68     		ldr	r3, [r7, #4]
 520 0010 0022     		movs	r2, #0
 521 0012 5A80     		strh	r2, [r3, #2]	@ movhi
 156:.\UARTManager.c ****     memset(pmessage->_messagetx, 0x00, _MAX_MESSAGE_SIZE_);
ARM GAS  C:\Users\RECEPC~1\AppData\Local\Temp\ccl4lE1S.s 			page 13


 522              		.loc 1 156 0
 523 0014 7B68     		ldr	r3, [r7, #4]
 524 0016 0433     		adds	r3, r3, #4
 525 0018 1846     		mov	r0, r3
 526 001a 0021     		movs	r1, #0
 527 001c 4FF48072 		mov	r2, #256
 528 0020 FFF7FEFF 		bl	memset
 157:.\UARTManager.c ****     pmessage->_puartmanager = NULL;
 529              		.loc 1 157 0
 530 0024 7B68     		ldr	r3, [r7, #4]
 531 0026 0022     		movs	r2, #0
 532 0028 C3F80821 		str	r2, [r3, #264]
 158:.\UARTManager.c **** }
 533              		.loc 1 158 0
 534 002c 0837     		adds	r7, r7, #8
 535              		.cfi_def_cfa_offset 8
 536 002e BD46     		mov	sp, r7
 537              		.cfi_def_cfa_register 13
 538              		@ sp needed
 539 0030 80BD     		pop	{r7, pc}
 540              		.cfi_endproc
 541              	.LFE67:
 542              		.size	ReleaseMessage, .-ReleaseMessage
 543 0032 00BF     		.text
 544              	.Letext0:
 545              		.file 2 "c:\\program files (x86)\\cypress\\psoc creator\\3.3\\psoc creator\\import\\gnu\\arm\\4.9.
 546              		.file 3 "c:\\program files (x86)\\cypress\\psoc creator\\3.3\\psoc creator\\import\\gnu\\arm\\4.9.
 547              		.file 4 "Generated_Source\\PSoC5/cytypes.h"
 548              		.file 5 ".\\UARTManager.h"
 549              		.file 6 "Generated_Source\\PSoC5/core_cm3.h"
 550              		.file 7 ".\\GlobalDefinitions.h"