ARM GAS  C:\Users\Lenovo\AppData\Local\Temp\ccBukUSZ.s 			page 1


   1              		.syntax unified
   2              		.cpu cortex-m3
   3              		.fpu softvfp
   4              		.eabi_attribute 20, 1
   5              		.eabi_attribute 21, 1
   6              		.eabi_attribute 23, 3
   7              		.eabi_attribute 24, 1
   8              		.eabi_attribute 25, 1
   9              		.eabi_attribute 26, 1
  10              		.eabi_attribute 30, 6
  11              		.eabi_attribute 34, 1
  12              		.eabi_attribute 18, 4
  13              		.thumb
  14              		.file	"Utils.c"
  15              		.text
  16              	.Ltext0:
  17              		.cfi_sections	.debug_frame
  18              		.comm	HoseDispenser,1,1
  19              		.global	__aeabi_ui2d
  20              		.global	__aeabi_i2d
  21              		.global	__aeabi_dmul
  22              		.global	__aeabi_ul2d
  23              		.global	__aeabi_dadd
  24              		.global	__aeabi_d2ulz
  25              		.section	.text.BCDPositiveValueToUInt,"ax",%progbits
  26              		.align	2
  27              		.global	BCDPositiveValueToUInt
  28              		.thumb
  29              		.thumb_func
  30              		.type	BCDPositiveValueToUInt, %function
  31              	BCDPositiveValueToUInt:
  32              	.LFB0:
  33              		.file 1 ".\\Utils.c"
   1:.\Utils.c     **** /* ========================================
   2:.\Utils.c     ****  *
   3:.\Utils.c     ****  * Copyright YOUR COMPANY, THE YEAR
   4:.\Utils.c     ****  * All Rights Reserved
   5:.\Utils.c     ****  * UNPUBLISHED, LICENSED SOFTWARE.
   6:.\Utils.c     ****  *
   7:.\Utils.c     ****  * CONFIDENTIAL AND PROPRIETARY INFORMATION
   8:.\Utils.c     ****  * WHICH IS THE PROPERTY OF your company.
   9:.\Utils.c     ****  *
  10:.\Utils.c     ****  * ========================================
  11:.\Utils.c     **** */
  12:.\Utils.c     **** 
  13:.\Utils.c     **** #include "GlobalDefinitions.h"
  14:.\Utils.c     **** 
  15:.\Utils.c     **** //@Created By: HIJH
  16:.\Utils.c     **** //@Date: Septembre de 2016
  17:.\Utils.c     **** uint64 BCDPositiveValueToUInt(uint8 *pbuffer, uint8 buffersize, uint8 mask)
  18:.\Utils.c     **** {
  34              		.loc 1 18 0
  35              		.cfi_startproc
  36              		@ args = 0, pretend = 0, frame = 24
  37              		@ frame_needed = 1, uses_anonymous_args = 0
  38 0000 B0B5     		push	{r4, r5, r7, lr}
  39              		.cfi_def_cfa_offset 16
ARM GAS  C:\Users\Lenovo\AppData\Local\Temp\ccBukUSZ.s 			page 2


  40              		.cfi_offset 4, -16
  41              		.cfi_offset 5, -12
  42              		.cfi_offset 7, -8
  43              		.cfi_offset 14, -4
  44 0002 86B0     		sub	sp, sp, #24
  45              		.cfi_def_cfa_offset 40
  46 0004 00AF     		add	r7, sp, #0
  47              		.cfi_def_cfa_register 7
  48 0006 7860     		str	r0, [r7, #4]
  49 0008 0B46     		mov	r3, r1
  50 000a FB70     		strb	r3, [r7, #3]
  51 000c 1346     		mov	r3, r2
  52 000e BB70     		strb	r3, [r7, #2]
  19:.\Utils.c     ****     uint64 retval = 0;
  53              		.loc 1 19 0
  54 0010 4FF00002 		mov	r2, #0
  55 0014 4FF00003 		mov	r3, #0
  56 0018 C7E90423 		strd	r2, [r7, #16]
  20:.\Utils.c     ****     FOR(uint8 index = 0, index < buffersize, index++)
  57              		.loc 1 20 0
  58 001c 0023     		movs	r3, #0
  59 001e FB73     		strb	r3, [r7, #15]
  60 0020 48E0     		b	.L2
  61              	.L5:
  21:.\Utils.c     ****     {
  22:.\Utils.c     ****         retval += pow10(index)*(pbuffer[index] & mask);
  62              		.loc 1 22 0
  63 0022 FB7B     		ldrb	r3, [r7, #15]	@ zero_extendqisi2
  64 0024 1846     		mov	r0, r3
  65 0026 FFF7FEFF 		bl	__aeabi_ui2d
  66 002a 0246     		mov	r2, r0
  67 002c 0B46     		mov	r3, r1
  68 002e 1046     		mov	r0, r2
  69 0030 1946     		mov	r1, r3
  70 0032 FFF7FEFF 		bl	pow10
  71 0036 0446     		mov	r4, r0
  72 0038 0D46     		mov	r5, r1
  73 003a FB7B     		ldrb	r3, [r7, #15]	@ zero_extendqisi2
  74 003c 7A68     		ldr	r2, [r7, #4]
  75 003e 1344     		add	r3, r3, r2
  76 0040 1A78     		ldrb	r2, [r3]	@ zero_extendqisi2
  77 0042 BB78     		ldrb	r3, [r7, #2]
  78 0044 1340     		ands	r3, r3, r2
  79 0046 DBB2     		uxtb	r3, r3
  80 0048 1846     		mov	r0, r3
  81 004a FFF7FEFF 		bl	__aeabi_i2d
  82 004e 0246     		mov	r2, r0
  83 0050 0B46     		mov	r3, r1
  84 0052 2046     		mov	r0, r4
  85 0054 2946     		mov	r1, r5
  86 0056 FFF7FEFF 		bl	__aeabi_dmul
  87 005a 0246     		mov	r2, r0
  88 005c 0B46     		mov	r3, r1
  89 005e 1446     		mov	r4, r2
  90 0060 1D46     		mov	r5, r3
  91 0062 D7E90401 		ldrd	r0, [r7, #16]
  92 0066 FFF7FEFF 		bl	__aeabi_ul2d
ARM GAS  C:\Users\Lenovo\AppData\Local\Temp\ccBukUSZ.s 			page 3


  93 006a 0246     		mov	r2, r0
  94 006c 0B46     		mov	r3, r1
  95 006e 1046     		mov	r0, r2
  96 0070 1946     		mov	r1, r3
  97 0072 2246     		mov	r2, r4
  98 0074 2B46     		mov	r3, r5
  99 0076 FFF7FEFF 		bl	__aeabi_dadd
 100 007a 0246     		mov	r2, r0
 101 007c 0B46     		mov	r3, r1
 102 007e 1046     		mov	r0, r2
 103 0080 1946     		mov	r1, r3
 104 0082 FFF7FEFF 		bl	__aeabi_d2ulz
 105 0086 0246     		mov	r2, r0
 106 0088 0B46     		mov	r3, r1
 107 008a C7E90423 		strd	r2, [r7, #16]
  23:.\Utils.c     ****         //Not a BCD formatted value
  24:.\Utils.c     ****         if((pbuffer[index] & mask) > 0x09)
 108              		.loc 1 24 0
 109 008e FB7B     		ldrb	r3, [r7, #15]	@ zero_extendqisi2
 110 0090 7A68     		ldr	r2, [r7, #4]
 111 0092 1344     		add	r3, r3, r2
 112 0094 1A78     		ldrb	r2, [r3]	@ zero_extendqisi2
 113 0096 BB78     		ldrb	r3, [r7, #2]
 114 0098 1340     		ands	r3, r3, r2
 115 009a DBB2     		uxtb	r3, r3
 116 009c 092B     		cmp	r3, #9
 117 009e 06D9     		bls	.L3
  25:.\Utils.c     ****         {
  26:.\Utils.c     ****             retval = 0;
 118              		.loc 1 26 0
 119 00a0 4FF00002 		mov	r2, #0
 120 00a4 4FF00003 		mov	r3, #0
 121 00a8 C7E90423 		strd	r2, [r7, #16]
  27:.\Utils.c     ****             break;
 122              		.loc 1 27 0
 123 00ac 06E0     		b	.L4
 124              	.L3:
  20:.\Utils.c     ****     {
 125              		.loc 1 20 0 discriminator 2
 126 00ae FB7B     		ldrb	r3, [r7, #15]	@ zero_extendqisi2
 127 00b0 0133     		adds	r3, r3, #1
 128 00b2 FB73     		strb	r3, [r7, #15]
 129              	.L2:
  20:.\Utils.c     ****     {
 130              		.loc 1 20 0 is_stmt 0 discriminator 1
 131 00b4 FA7B     		ldrb	r2, [r7, #15]	@ zero_extendqisi2
 132 00b6 FB78     		ldrb	r3, [r7, #3]	@ zero_extendqisi2
 133 00b8 9A42     		cmp	r2, r3
 134 00ba B2D3     		bcc	.L5
 135              	.L4:
  28:.\Utils.c     ****         }
  29:.\Utils.c     ****     }
  30:.\Utils.c     ****     return retval;
 136              		.loc 1 30 0 is_stmt 1
 137 00bc D7E90423 		ldrd	r2, [r7, #16]
  31:.\Utils.c     **** }
 138              		.loc 1 31 0
ARM GAS  C:\Users\Lenovo\AppData\Local\Temp\ccBukUSZ.s 			page 4


 139 00c0 1046     		mov	r0, r2
 140 00c2 1946     		mov	r1, r3
 141 00c4 1837     		adds	r7, r7, #24
 142              		.cfi_def_cfa_offset 16
 143 00c6 BD46     		mov	sp, r7
 144              		.cfi_def_cfa_register 13
 145              		@ sp needed
 146 00c8 B0BD     		pop	{r4, r5, r7, pc}
 147              		.cfi_endproc
 148              	.LFE0:
 149              		.size	BCDPositiveValueToUInt, .-BCDPositiveValueToUInt
 150              		.global	__aeabi_d2uiz
 151              		.global	__aeabi_uldivmod
 152 00ca 00BF     		.section	.text.B78AD90CF552D9B30A,"ax",%progbits
 153              		.align	2
 154              		.global	B78AD90CF552D9B30A
 155              		.thumb
 156              		.thumb_func
 157              		.type	B78AD90CF552D9B30A, %function
 158              	B78AD90CF552D9B30A:
 159              	.LFB1:
  32:.\Utils.c     **** 
  33:.\Utils.c     **** //@Created By: HIJH
  34:.\Utils.c     **** //@Date: Septembre de 2016
  35:.\Utils.c     **** void B78AD90CF552D9B30A(uint64 number, uint8 *pbuffer)
  36:.\Utils.c     **** {
 160              		.loc 1 36 0
 161              		.cfi_startproc
 162              		@ args = 0, pretend = 0, frame = 24
 163              		@ frame_needed = 1, uses_anonymous_args = 0
 164 0000 F0B5     		push	{r4, r5, r6, r7, lr}
 165              		.cfi_def_cfa_offset 20
 166              		.cfi_offset 4, -20
 167              		.cfi_offset 5, -16
 168              		.cfi_offset 6, -12
 169              		.cfi_offset 7, -8
 170              		.cfi_offset 14, -4
 171 0002 87B0     		sub	sp, sp, #28
 172              		.cfi_def_cfa_offset 48
 173 0004 00AF     		add	r7, sp, #0
 174              		.cfi_def_cfa_register 7
 175 0006 C7E90201 		strd	r0, [r7, #8]
 176 000a 7A60     		str	r2, [r7, #4]
  37:.\Utils.c     ****     uint8 index = 1;
 177              		.loc 1 37 0
 178 000c 0123     		movs	r3, #1
 179 000e FB75     		strb	r3, [r7, #23]
  38:.\Utils.c     ****     while(number != (number % (uint32)pow(10, index)))
 180              		.loc 1 38 0
 181 0010 5FE0     		b	.L8
 182              	.L9:
  39:.\Utils.c     ****     {
  40:.\Utils.c     ****         pbuffer[index - 1] = (char8)(((number % (uint32)pow(10, index)) - (number % (uint32)pow(10,
 183              		.loc 1 40 0
 184 0012 FB7D     		ldrb	r3, [r7, #23]	@ zero_extendqisi2
 185 0014 013B     		subs	r3, r3, #1
 186 0016 7A68     		ldr	r2, [r7, #4]
ARM GAS  C:\Users\Lenovo\AppData\Local\Temp\ccBukUSZ.s 			page 5


 187 0018 D618     		adds	r6, r2, r3
 188 001a FB7D     		ldrb	r3, [r7, #23]	@ zero_extendqisi2
 189 001c 1846     		mov	r0, r3
 190 001e FFF7FEFF 		bl	__aeabi_ui2d
 191 0022 0246     		mov	r2, r0
 192 0024 0B46     		mov	r3, r1
 193 0026 4FF00000 		mov	r0, #0
 194 002a 6B49     		ldr	r1, .L10
 195 002c FFF7FEFF 		bl	pow
 196 0030 0246     		mov	r2, r0
 197 0032 0B46     		mov	r3, r1
 198 0034 1046     		mov	r0, r2
 199 0036 1946     		mov	r1, r3
 200 0038 FFF7FEFF 		bl	__aeabi_d2uiz
 201 003c 0346     		mov	r3, r0
 202 003e 1A46     		mov	r2, r3
 203 0040 4FF00003 		mov	r3, #0
 204 0044 D7E90201 		ldrd	r0, [r7, #8]
 205 0048 FFF7FEFF 		bl	__aeabi_uldivmod
 206 004c 1446     		mov	r4, r2
 207 004e 1D46     		mov	r5, r3
 208 0050 FB7D     		ldrb	r3, [r7, #23]	@ zero_extendqisi2
 209 0052 013B     		subs	r3, r3, #1
 210 0054 1846     		mov	r0, r3
 211 0056 FFF7FEFF 		bl	__aeabi_i2d
 212 005a 0246     		mov	r2, r0
 213 005c 0B46     		mov	r3, r1
 214 005e 4FF00000 		mov	r0, #0
 215 0062 5D49     		ldr	r1, .L10
 216 0064 FFF7FEFF 		bl	pow
 217 0068 0246     		mov	r2, r0
 218 006a 0B46     		mov	r3, r1
 219 006c 1046     		mov	r0, r2
 220 006e 1946     		mov	r1, r3
 221 0070 FFF7FEFF 		bl	__aeabi_d2uiz
 222 0074 0346     		mov	r3, r0
 223 0076 1A46     		mov	r2, r3
 224 0078 4FF00003 		mov	r3, #0
 225 007c D7E90201 		ldrd	r0, [r7, #8]
 226 0080 FFF7FEFF 		bl	__aeabi_uldivmod
 227 0084 A41A     		subs	r4, r4, r2
 228 0086 65EB0305 		sbc	r5, r5, r3
 229 008a FB7D     		ldrb	r3, [r7, #23]	@ zero_extendqisi2
 230 008c 013B     		subs	r3, r3, #1
 231 008e 1846     		mov	r0, r3
 232 0090 FFF7FEFF 		bl	__aeabi_i2d
 233 0094 0246     		mov	r2, r0
 234 0096 0B46     		mov	r3, r1
 235 0098 4FF00000 		mov	r0, #0
 236 009c 4E49     		ldr	r1, .L10
 237 009e FFF7FEFF 		bl	pow
 238 00a2 0246     		mov	r2, r0
 239 00a4 0B46     		mov	r3, r1
 240 00a6 1046     		mov	r0, r2
 241 00a8 1946     		mov	r1, r3
 242 00aa FFF7FEFF 		bl	__aeabi_d2uiz
 243 00ae 0346     		mov	r3, r0
ARM GAS  C:\Users\Lenovo\AppData\Local\Temp\ccBukUSZ.s 			page 6


 244 00b0 1A46     		mov	r2, r3
 245 00b2 4FF00003 		mov	r3, #0
 246 00b6 2046     		mov	r0, r4
 247 00b8 2946     		mov	r1, r5
 248 00ba FFF7FEFF 		bl	__aeabi_uldivmod
 249 00be 0246     		mov	r2, r0
 250 00c0 0B46     		mov	r3, r1
 251 00c2 D3B2     		uxtb	r3, r2
 252 00c4 43F03003 		orr	r3, r3, #48
 253 00c8 DBB2     		uxtb	r3, r3
 254 00ca 3370     		strb	r3, [r6]
  41:.\Utils.c     ****         index++;
 255              		.loc 1 41 0
 256 00cc FB7D     		ldrb	r3, [r7, #23]	@ zero_extendqisi2
 257 00ce 0133     		adds	r3, r3, #1
 258 00d0 FB75     		strb	r3, [r7, #23]
 259              	.L8:
  38:.\Utils.c     ****     while(number != (number % (uint32)pow(10, index)))
 260              		.loc 1 38 0
 261 00d2 FB7D     		ldrb	r3, [r7, #23]	@ zero_extendqisi2
 262 00d4 1846     		mov	r0, r3
 263 00d6 FFF7FEFF 		bl	__aeabi_ui2d
 264 00da 0246     		mov	r2, r0
 265 00dc 0B46     		mov	r3, r1
 266 00de 4FF00000 		mov	r0, #0
 267 00e2 3D49     		ldr	r1, .L10
 268 00e4 FFF7FEFF 		bl	pow
 269 00e8 0246     		mov	r2, r0
 270 00ea 0B46     		mov	r3, r1
 271 00ec 1046     		mov	r0, r2
 272 00ee 1946     		mov	r1, r3
 273 00f0 FFF7FEFF 		bl	__aeabi_d2uiz
 274 00f4 0346     		mov	r3, r0
 275 00f6 1A46     		mov	r2, r3
 276 00f8 4FF00003 		mov	r3, #0
 277 00fc D7E90201 		ldrd	r0, [r7, #8]
 278 0100 FFF7FEFF 		bl	__aeabi_uldivmod
 279 0104 1046     		mov	r0, r2
 280 0106 1946     		mov	r1, r3
 281 0108 D7E90223 		ldrd	r2, [r7, #8]
 282 010c 9942     		cmp	r1, r3
 283 010e 08BF     		it	eq
 284 0110 9042     		cmpeq	r0, r2
 285 0112 7FF47EAF 		bne	.L9
  42:.\Utils.c     ****     }
  43:.\Utils.c     ****     pbuffer[index - 1] = (char8)(((number % (uint32)pow(10, index)) - (number % (uint32)pow(10, ind
 286              		.loc 1 43 0
 287 0116 FB7D     		ldrb	r3, [r7, #23]	@ zero_extendqisi2
 288 0118 013B     		subs	r3, r3, #1
 289 011a 7A68     		ldr	r2, [r7, #4]
 290 011c D618     		adds	r6, r2, r3
 291 011e FB7D     		ldrb	r3, [r7, #23]	@ zero_extendqisi2
 292 0120 1846     		mov	r0, r3
 293 0122 FFF7FEFF 		bl	__aeabi_ui2d
 294 0126 0246     		mov	r2, r0
 295 0128 0B46     		mov	r3, r1
 296 012a 4FF00000 		mov	r0, #0
ARM GAS  C:\Users\Lenovo\AppData\Local\Temp\ccBukUSZ.s 			page 7


 297 012e 2A49     		ldr	r1, .L10
 298 0130 FFF7FEFF 		bl	pow
 299 0134 0246     		mov	r2, r0
 300 0136 0B46     		mov	r3, r1
 301 0138 1046     		mov	r0, r2
 302 013a 1946     		mov	r1, r3
 303 013c FFF7FEFF 		bl	__aeabi_d2uiz
 304 0140 0346     		mov	r3, r0
 305 0142 1A46     		mov	r2, r3
 306 0144 4FF00003 		mov	r3, #0
 307 0148 D7E90201 		ldrd	r0, [r7, #8]
 308 014c FFF7FEFF 		bl	__aeabi_uldivmod
 309 0150 1446     		mov	r4, r2
 310 0152 1D46     		mov	r5, r3
 311 0154 FB7D     		ldrb	r3, [r7, #23]	@ zero_extendqisi2
 312 0156 013B     		subs	r3, r3, #1
 313 0158 1846     		mov	r0, r3
 314 015a FFF7FEFF 		bl	__aeabi_i2d
 315 015e 0246     		mov	r2, r0
 316 0160 0B46     		mov	r3, r1
 317 0162 4FF00000 		mov	r0, #0
 318 0166 1C49     		ldr	r1, .L10
 319 0168 FFF7FEFF 		bl	pow
 320 016c 0246     		mov	r2, r0
 321 016e 0B46     		mov	r3, r1
 322 0170 1046     		mov	r0, r2
 323 0172 1946     		mov	r1, r3
 324 0174 FFF7FEFF 		bl	__aeabi_d2uiz
 325 0178 0346     		mov	r3, r0
 326 017a 1A46     		mov	r2, r3
 327 017c 4FF00003 		mov	r3, #0
 328 0180 D7E90201 		ldrd	r0, [r7, #8]
 329 0184 FFF7FEFF 		bl	__aeabi_uldivmod
 330 0188 A41A     		subs	r4, r4, r2
 331 018a 65EB0305 		sbc	r5, r5, r3
 332 018e FB7D     		ldrb	r3, [r7, #23]	@ zero_extendqisi2
 333 0190 013B     		subs	r3, r3, #1
 334 0192 1846     		mov	r0, r3
 335 0194 FFF7FEFF 		bl	__aeabi_i2d
 336 0198 0246     		mov	r2, r0
 337 019a 0B46     		mov	r3, r1
 338 019c 4FF00000 		mov	r0, #0
 339 01a0 0D49     		ldr	r1, .L10
 340 01a2 FFF7FEFF 		bl	pow
 341 01a6 0246     		mov	r2, r0
 342 01a8 0B46     		mov	r3, r1
 343 01aa 1046     		mov	r0, r2
 344 01ac 1946     		mov	r1, r3
 345 01ae FFF7FEFF 		bl	__aeabi_d2uiz
 346 01b2 0346     		mov	r3, r0
 347 01b4 1A46     		mov	r2, r3
 348 01b6 4FF00003 		mov	r3, #0
 349 01ba 2046     		mov	r0, r4
 350 01bc 2946     		mov	r1, r5
 351 01be FFF7FEFF 		bl	__aeabi_uldivmod
 352 01c2 0246     		mov	r2, r0
 353 01c4 0B46     		mov	r3, r1
ARM GAS  C:\Users\Lenovo\AppData\Local\Temp\ccBukUSZ.s 			page 8


 354 01c6 D3B2     		uxtb	r3, r2
 355 01c8 43F03003 		orr	r3, r3, #48
 356 01cc DBB2     		uxtb	r3, r3
 357 01ce 3370     		strb	r3, [r6]
  44:.\Utils.c     **** }
 358              		.loc 1 44 0
 359 01d0 1C37     		adds	r7, r7, #28
 360              		.cfi_def_cfa_offset 20
 361 01d2 BD46     		mov	sp, r7
 362              		.cfi_def_cfa_register 13
 363              		@ sp needed
 364 01d4 F0BD     		pop	{r4, r5, r6, r7, pc}
 365              	.L11:
 366 01d6 00BF     		.align	2
 367              	.L10:
 368 01d8 00002440 		.word	1076101120
 369              		.cfi_endproc
 370              	.LFE1:
 371              		.size	B78AD90CF552D9B30A, .-B78AD90CF552D9B30A
 372              		.section	.text.PSTRBUFFTOGG,"ax",%progbits
 373              		.align	2
 374              		.global	PSTRBUFFTOGG
 375              		.thumb
 376              		.thumb_func
 377              		.type	PSTRBUFFTOGG, %function
 378              	PSTRBUFFTOGG:
 379              	.LFB2:
  45:.\Utils.c     **** 
  46:.\Utils.c     **** //@Created By: HIJH
  47:.\Utils.c     **** //@Date: Septembre de 2016
  48:.\Utils.c     **** void PSTRBUFFTOGG(uint8 *pbuffer, uint8 buffersize)
  49:.\Utils.c     **** {
 380              		.loc 1 49 0
 381              		.cfi_startproc
 382              		@ args = 0, pretend = 0, frame = 16
 383              		@ frame_needed = 1, uses_anonymous_args = 0
 384              		@ link register save eliminated.
 385 0000 80B4     		push	{r7}
 386              		.cfi_def_cfa_offset 4
 387              		.cfi_offset 7, -4
 388 0002 85B0     		sub	sp, sp, #20
 389              		.cfi_def_cfa_offset 24
 390 0004 00AF     		add	r7, sp, #0
 391              		.cfi_def_cfa_register 7
 392 0006 7860     		str	r0, [r7, #4]
 393 0008 0B46     		mov	r3, r1
 394 000a FB70     		strb	r3, [r7, #3]
  50:.\Utils.c     ****     uint8 valndx = 0x00;
 395              		.loc 1 50 0
 396 000c 0023     		movs	r3, #0
 397 000e 7B73     		strb	r3, [r7, #13]
  51:.\Utils.c     ****     FOR(uint8 index0 = 0, index0 < (buffersize - 1), index0++)
 398              		.loc 1 51 0
 399 0010 0023     		movs	r3, #0
 400 0012 FB73     		strb	r3, [r7, #15]
 401 0014 27E0     		b	.L13
 402              	.L16:
ARM GAS  C:\Users\Lenovo\AppData\Local\Temp\ccBukUSZ.s 			page 9


 403              	.LBB2:
  52:.\Utils.c     ****     {
  53:.\Utils.c     ****         valndx = pbuffer[buffersize - 1];
 404              		.loc 1 53 0
 405 0016 FB78     		ldrb	r3, [r7, #3]	@ zero_extendqisi2
 406 0018 013B     		subs	r3, r3, #1
 407 001a 7A68     		ldr	r2, [r7, #4]
 408 001c 1344     		add	r3, r3, r2
 409 001e 1B78     		ldrb	r3, [r3]
 410 0020 7B73     		strb	r3, [r7, #13]
  54:.\Utils.c     ****         FOR(int8 index1 = (buffersize - 2), index1 >= index0, index1--)
 411              		.loc 1 54 0
 412 0022 FB78     		ldrb	r3, [r7, #3]
 413 0024 023B     		subs	r3, r3, #2
 414 0026 DBB2     		uxtb	r3, r3
 415 0028 BB73     		strb	r3, [r7, #14]
 416 002a 0FE0     		b	.L14
 417              	.L15:
  55:.\Utils.c     ****             pbuffer[index1 + 1] = pbuffer[index1];
 418              		.loc 1 55 0 discriminator 3
 419 002c 97F90E30 		ldrsb	r3, [r7, #14]
 420 0030 0133     		adds	r3, r3, #1
 421 0032 7A68     		ldr	r2, [r7, #4]
 422 0034 1344     		add	r3, r3, r2
 423 0036 97F90E20 		ldrsb	r2, [r7, #14]
 424 003a 7968     		ldr	r1, [r7, #4]
 425 003c 0A44     		add	r2, r2, r1
 426 003e 1278     		ldrb	r2, [r2]	@ zero_extendqisi2
 427 0040 1A70     		strb	r2, [r3]
  54:.\Utils.c     ****         FOR(int8 index1 = (buffersize - 2), index1 >= index0, index1--)
 428              		.loc 1 54 0 discriminator 3
 429 0042 BB7B     		ldrb	r3, [r7, #14]	@ zero_extendqisi2
 430 0044 DBB2     		uxtb	r3, r3
 431 0046 013B     		subs	r3, r3, #1
 432 0048 DBB2     		uxtb	r3, r3
 433 004a BB73     		strb	r3, [r7, #14]
 434              	.L14:
  54:.\Utils.c     ****         FOR(int8 index1 = (buffersize - 2), index1 >= index0, index1--)
 435              		.loc 1 54 0 is_stmt 0 discriminator 1
 436 004c 97F90E20 		ldrsb	r2, [r7, #14]
 437 0050 FB7B     		ldrb	r3, [r7, #15]	@ zero_extendqisi2
 438 0052 9A42     		cmp	r2, r3
 439 0054 EADA     		bge	.L15
  56:.\Utils.c     **** 
  57:.\Utils.c     ****         pbuffer[index0] = valndx;
 440              		.loc 1 57 0 is_stmt 1 discriminator 2
 441 0056 FB7B     		ldrb	r3, [r7, #15]	@ zero_extendqisi2
 442 0058 7A68     		ldr	r2, [r7, #4]
 443 005a 1344     		add	r3, r3, r2
 444 005c 7A7B     		ldrb	r2, [r7, #13]
 445 005e 1A70     		strb	r2, [r3]
 446              	.LBE2:
  51:.\Utils.c     ****     {
 447              		.loc 1 51 0 discriminator 2
 448 0060 FB7B     		ldrb	r3, [r7, #15]	@ zero_extendqisi2
 449 0062 0133     		adds	r3, r3, #1
 450 0064 FB73     		strb	r3, [r7, #15]
ARM GAS  C:\Users\Lenovo\AppData\Local\Temp\ccBukUSZ.s 			page 10


 451              	.L13:
  51:.\Utils.c     ****     {
 452              		.loc 1 51 0 is_stmt 0 discriminator 1
 453 0066 FA7B     		ldrb	r2, [r7, #15]	@ zero_extendqisi2
 454 0068 FB78     		ldrb	r3, [r7, #3]	@ zero_extendqisi2
 455 006a 013B     		subs	r3, r3, #1
 456 006c 9A42     		cmp	r2, r3
 457 006e D2DB     		blt	.L16
  58:.\Utils.c     ****     }
  59:.\Utils.c     **** }
 458              		.loc 1 59 0 is_stmt 1
 459 0070 1437     		adds	r7, r7, #20
 460              		.cfi_def_cfa_offset 4
 461 0072 BD46     		mov	sp, r7
 462              		.cfi_def_cfa_register 13
 463              		@ sp needed
 464 0074 5DF8047B 		ldr	r7, [sp], #4
 465              		.cfi_restore 7
 466              		.cfi_def_cfa_offset 0
 467 0078 7047     		bx	lr
 468              		.cfi_endproc
 469              	.LFE2:
 470              		.size	PSTRBUFFTOGG, .-PSTRBUFFTOGG
 471 007a 00BF     		.section	.text.DLSDBCDBUFF2HEX,"ax",%progbits
 472              		.align	2
 473              		.global	DLSDBCDBUFF2HEX
 474              		.thumb
 475              		.thumb_func
 476              		.type	DLSDBCDBUFF2HEX, %function
 477              	DLSDBCDBUFF2HEX:
 478              	.LFB3:
  60:.\Utils.c     **** 
  61:.\Utils.c     **** //@Created By: HIJH
  62:.\Utils.c     **** //@Date: Septembre de 2016
  63:.\Utils.c     **** double DLSDBCDBUFF2HEX(PNEAR_BYTE_PTR pbuffer, uint16 buffersize)
  64:.\Utils.c     **** {
 479              		.loc 1 64 0
 480              		.cfi_startproc
 481              		@ args = 0, pretend = 0, frame = 24
 482              		@ frame_needed = 1, uses_anonymous_args = 0
 483 0000 B0B5     		push	{r4, r5, r7, lr}
 484              		.cfi_def_cfa_offset 16
 485              		.cfi_offset 4, -16
 486              		.cfi_offset 5, -12
 487              		.cfi_offset 7, -8
 488              		.cfi_offset 14, -4
 489 0002 86B0     		sub	sp, sp, #24
 490              		.cfi_def_cfa_offset 40
 491 0004 00AF     		add	r7, sp, #0
 492              		.cfi_def_cfa_register 7
 493 0006 7860     		str	r0, [r7, #4]
 494 0008 0B46     		mov	r3, r1
 495 000a 7B80     		strh	r3, [r7, #2]	@ movhi
  65:.\Utils.c     ****     double retval = 0.0;
 496              		.loc 1 65 0
 497 000c 4FF00002 		mov	r2, #0
 498 0010 4FF00003 		mov	r3, #0
ARM GAS  C:\Users\Lenovo\AppData\Local\Temp\ccBukUSZ.s 			page 11


 499 0014 C7E90423 		strd	r2, [r7, #16]
  66:.\Utils.c     ****     FOR(uint8 index = 0, index < buffersize, index++)
 500              		.loc 1 66 0
 501 0018 0023     		movs	r3, #0
 502 001a FB73     		strb	r3, [r7, #15]
 503 001c 27E0     		b	.L18
 504              	.L19:
  67:.\Utils.c     ****         retval += pow10(index)*(pbuffer[index] & 0x0F);
 505              		.loc 1 67 0 discriminator 3
 506 001e FB7B     		ldrb	r3, [r7, #15]	@ zero_extendqisi2
 507 0020 1846     		mov	r0, r3
 508 0022 FFF7FEFF 		bl	__aeabi_ui2d
 509 0026 0246     		mov	r2, r0
 510 0028 0B46     		mov	r3, r1
 511 002a 1046     		mov	r0, r2
 512 002c 1946     		mov	r1, r3
 513 002e FFF7FEFF 		bl	pow10
 514 0032 0446     		mov	r4, r0
 515 0034 0D46     		mov	r5, r1
 516 0036 FB7B     		ldrb	r3, [r7, #15]	@ zero_extendqisi2
 517 0038 7A68     		ldr	r2, [r7, #4]
 518 003a 1344     		add	r3, r3, r2
 519 003c 1B78     		ldrb	r3, [r3]	@ zero_extendqisi2
 520 003e 03F00F03 		and	r3, r3, #15
 521 0042 1846     		mov	r0, r3
 522 0044 FFF7FEFF 		bl	__aeabi_i2d
 523 0048 0246     		mov	r2, r0
 524 004a 0B46     		mov	r3, r1
 525 004c 2046     		mov	r0, r4
 526 004e 2946     		mov	r1, r5
 527 0050 FFF7FEFF 		bl	__aeabi_dmul
 528 0054 0246     		mov	r2, r0
 529 0056 0B46     		mov	r3, r1
 530 0058 D7E90401 		ldrd	r0, [r7, #16]
 531 005c FFF7FEFF 		bl	__aeabi_dadd
 532 0060 0246     		mov	r2, r0
 533 0062 0B46     		mov	r3, r1
 534 0064 C7E90423 		strd	r2, [r7, #16]
  66:.\Utils.c     ****     FOR(uint8 index = 0, index < buffersize, index++)
 535              		.loc 1 66 0 discriminator 3
 536 0068 FB7B     		ldrb	r3, [r7, #15]	@ zero_extendqisi2
 537 006a 0133     		adds	r3, r3, #1
 538 006c FB73     		strb	r3, [r7, #15]
 539              	.L18:
  66:.\Utils.c     ****     FOR(uint8 index = 0, index < buffersize, index++)
 540              		.loc 1 66 0 is_stmt 0 discriminator 1
 541 006e FB7B     		ldrb	r3, [r7, #15]	@ zero_extendqisi2
 542 0070 9BB2     		uxth	r3, r3
 543 0072 7A88     		ldrh	r2, [r7, #2]
 544 0074 9A42     		cmp	r2, r3
 545 0076 D2D8     		bhi	.L19
  68:.\Utils.c     ****         
  69:.\Utils.c     ****     return retval;
 546              		.loc 1 69 0 is_stmt 1
 547 0078 D7E90423 		ldrd	r2, [r7, #16]
  70:.\Utils.c     **** }
 548              		.loc 1 70 0
ARM GAS  C:\Users\Lenovo\AppData\Local\Temp\ccBukUSZ.s 			page 12


 549 007c 1046     		mov	r0, r2
 550 007e 1946     		mov	r1, r3
 551 0080 1837     		adds	r7, r7, #24
 552              		.cfi_def_cfa_offset 16
 553 0082 BD46     		mov	sp, r7
 554              		.cfi_def_cfa_register 13
 555              		@ sp needed
 556 0084 B0BD     		pop	{r4, r5, r7, pc}
 557              		.cfi_endproc
 558              	.LFE3:
 559              		.size	DLSDBCDBUFF2HEX, .-DLSDBCDBUFF2HEX
 560 0086 00BF     		.section	.text.LSDBCDBUFF2HEX,"ax",%progbits
 561              		.align	2
 562              		.global	LSDBCDBUFF2HEX
 563              		.thumb
 564              		.thumb_func
 565              		.type	LSDBCDBUFF2HEX, %function
 566              	LSDBCDBUFF2HEX:
 567              	.LFB4:
  71:.\Utils.c     **** 
  72:.\Utils.c     **** //@Created By: HIJH
  73:.\Utils.c     **** //@Date: Septembre de 2016
  74:.\Utils.c     **** uint32 LSDBCDBUFF2HEX(PNEAR_BYTE_PTR pbuffer, uint16 buffersize)
  75:.\Utils.c     **** {
 568              		.loc 1 75 0
 569              		.cfi_startproc
 570              		@ args = 0, pretend = 0, frame = 16
 571              		@ frame_needed = 1, uses_anonymous_args = 0
 572 0000 B0B5     		push	{r4, r5, r7, lr}
 573              		.cfi_def_cfa_offset 16
 574              		.cfi_offset 4, -16
 575              		.cfi_offset 5, -12
 576              		.cfi_offset 7, -8
 577              		.cfi_offset 14, -4
 578 0002 84B0     		sub	sp, sp, #16
 579              		.cfi_def_cfa_offset 32
 580 0004 00AF     		add	r7, sp, #0
 581              		.cfi_def_cfa_register 7
 582 0006 7860     		str	r0, [r7, #4]
 583 0008 0B46     		mov	r3, r1
 584 000a 7B80     		strh	r3, [r7, #2]	@ movhi
  76:.\Utils.c     ****     uint32 retval = 0x00000000;
 585              		.loc 1 76 0
 586 000c 0023     		movs	r3, #0
 587 000e FB60     		str	r3, [r7, #12]
  77:.\Utils.c     ****     FOR(uint8 index = 0, index < buffersize, index++)
 588              		.loc 1 77 0
 589 0010 0023     		movs	r3, #0
 590 0012 FB72     		strb	r3, [r7, #11]
 591 0014 34E0     		b	.L22
 592              	.L23:
  78:.\Utils.c     ****         retval += pow10(index)*(pbuffer[index] & 0x0F);
 593              		.loc 1 78 0 discriminator 3
 594 0016 FB7A     		ldrb	r3, [r7, #11]	@ zero_extendqisi2
 595 0018 1846     		mov	r0, r3
 596 001a FFF7FEFF 		bl	__aeabi_ui2d
 597 001e 0246     		mov	r2, r0
ARM GAS  C:\Users\Lenovo\AppData\Local\Temp\ccBukUSZ.s 			page 13


 598 0020 0B46     		mov	r3, r1
 599 0022 1046     		mov	r0, r2
 600 0024 1946     		mov	r1, r3
 601 0026 FFF7FEFF 		bl	pow10
 602 002a 0446     		mov	r4, r0
 603 002c 0D46     		mov	r5, r1
 604 002e FB7A     		ldrb	r3, [r7, #11]	@ zero_extendqisi2
 605 0030 7A68     		ldr	r2, [r7, #4]
 606 0032 1344     		add	r3, r3, r2
 607 0034 1B78     		ldrb	r3, [r3]	@ zero_extendqisi2
 608 0036 03F00F03 		and	r3, r3, #15
 609 003a 1846     		mov	r0, r3
 610 003c FFF7FEFF 		bl	__aeabi_i2d
 611 0040 0246     		mov	r2, r0
 612 0042 0B46     		mov	r3, r1
 613 0044 2046     		mov	r0, r4
 614 0046 2946     		mov	r1, r5
 615 0048 FFF7FEFF 		bl	__aeabi_dmul
 616 004c 0246     		mov	r2, r0
 617 004e 0B46     		mov	r3, r1
 618 0050 1446     		mov	r4, r2
 619 0052 1D46     		mov	r5, r3
 620 0054 F868     		ldr	r0, [r7, #12]
 621 0056 FFF7FEFF 		bl	__aeabi_ui2d
 622 005a 0246     		mov	r2, r0
 623 005c 0B46     		mov	r3, r1
 624 005e 1046     		mov	r0, r2
 625 0060 1946     		mov	r1, r3
 626 0062 2246     		mov	r2, r4
 627 0064 2B46     		mov	r3, r5
 628 0066 FFF7FEFF 		bl	__aeabi_dadd
 629 006a 0246     		mov	r2, r0
 630 006c 0B46     		mov	r3, r1
 631 006e 1046     		mov	r0, r2
 632 0070 1946     		mov	r1, r3
 633 0072 FFF7FEFF 		bl	__aeabi_d2uiz
 634 0076 0346     		mov	r3, r0
 635 0078 FB60     		str	r3, [r7, #12]
  77:.\Utils.c     ****     FOR(uint8 index = 0, index < buffersize, index++)
 636              		.loc 1 77 0 discriminator 3
 637 007a FB7A     		ldrb	r3, [r7, #11]	@ zero_extendqisi2
 638 007c 0133     		adds	r3, r3, #1
 639 007e FB72     		strb	r3, [r7, #11]
 640              	.L22:
  77:.\Utils.c     ****     FOR(uint8 index = 0, index < buffersize, index++)
 641              		.loc 1 77 0 is_stmt 0 discriminator 1
 642 0080 FB7A     		ldrb	r3, [r7, #11]	@ zero_extendqisi2
 643 0082 9BB2     		uxth	r3, r3
 644 0084 7A88     		ldrh	r2, [r7, #2]
 645 0086 9A42     		cmp	r2, r3
 646 0088 C5D8     		bhi	.L23
  79:.\Utils.c     ****         
  80:.\Utils.c     ****     return retval;
 647              		.loc 1 80 0 is_stmt 1
 648 008a FB68     		ldr	r3, [r7, #12]
  81:.\Utils.c     **** }
 649              		.loc 1 81 0
ARM GAS  C:\Users\Lenovo\AppData\Local\Temp\ccBukUSZ.s 			page 14


 650 008c 1846     		mov	r0, r3
 651 008e 1037     		adds	r7, r7, #16
 652              		.cfi_def_cfa_offset 16
 653 0090 BD46     		mov	sp, r7
 654              		.cfi_def_cfa_register 13
 655              		@ sp needed
 656 0092 B0BD     		pop	{r4, r5, r7, pc}
 657              		.cfi_endproc
 658              	.LFE4:
 659              		.size	LSDBCDBUFF2HEX, .-LSDBCDBUFF2HEX
 660              		.section	.text.MSDBCDBUFF2HEX,"ax",%progbits
 661              		.align	2
 662              		.global	MSDBCDBUFF2HEX
 663              		.thumb
 664              		.thumb_func
 665              		.type	MSDBCDBUFF2HEX, %function
 666              	MSDBCDBUFF2HEX:
 667              	.LFB5:
  82:.\Utils.c     **** 
  83:.\Utils.c     **** //@Created By: HIJH
  84:.\Utils.c     **** //@Date: Septembre de 2016
  85:.\Utils.c     **** uint32 MSDBCDBUFF2HEX(PNEAR_BYTE_PTR pbuffer, uint16 buffersize)
  86:.\Utils.c     **** {
 668              		.loc 1 86 0
 669              		.cfi_startproc
 670              		@ args = 0, pretend = 0, frame = 16
 671              		@ frame_needed = 1, uses_anonymous_args = 0
 672 0000 B0B5     		push	{r4, r5, r7, lr}
 673              		.cfi_def_cfa_offset 16
 674              		.cfi_offset 4, -16
 675              		.cfi_offset 5, -12
 676              		.cfi_offset 7, -8
 677              		.cfi_offset 14, -4
 678 0002 84B0     		sub	sp, sp, #16
 679              		.cfi_def_cfa_offset 32
 680 0004 00AF     		add	r7, sp, #0
 681              		.cfi_def_cfa_register 7
 682 0006 7860     		str	r0, [r7, #4]
 683 0008 0B46     		mov	r3, r1
 684 000a 7B80     		strh	r3, [r7, #2]	@ movhi
  87:.\Utils.c     ****     uint32 retval = 0x00000000;
 685              		.loc 1 87 0
 686 000c 0023     		movs	r3, #0
 687 000e FB60     		str	r3, [r7, #12]
  88:.\Utils.c     ****     FOR(int8 index = (buffersize - 1), index >= 0, index--)
 688              		.loc 1 88 0
 689 0010 7B88     		ldrh	r3, [r7, #2]	@ movhi
 690 0012 DBB2     		uxtb	r3, r3
 691 0014 013B     		subs	r3, r3, #1
 692 0016 DBB2     		uxtb	r3, r3
 693 0018 FB72     		strb	r3, [r7, #11]
 694 001a 38E0     		b	.L26
 695              	.L27:
  89:.\Utils.c     ****         retval += pow10(index)*(pbuffer[index] & 0x0F);
 696              		.loc 1 89 0 discriminator 3
 697 001c 97F90B30 		ldrsb	r3, [r7, #11]
 698 0020 1846     		mov	r0, r3
ARM GAS  C:\Users\Lenovo\AppData\Local\Temp\ccBukUSZ.s 			page 15


 699 0022 FFF7FEFF 		bl	__aeabi_i2d
 700 0026 0246     		mov	r2, r0
 701 0028 0B46     		mov	r3, r1
 702 002a 1046     		mov	r0, r2
 703 002c 1946     		mov	r1, r3
 704 002e FFF7FEFF 		bl	pow10
 705 0032 0446     		mov	r4, r0
 706 0034 0D46     		mov	r5, r1
 707 0036 97F90B30 		ldrsb	r3, [r7, #11]
 708 003a 7A68     		ldr	r2, [r7, #4]
 709 003c 1344     		add	r3, r3, r2
 710 003e 1B78     		ldrb	r3, [r3]	@ zero_extendqisi2
 711 0040 03F00F03 		and	r3, r3, #15
 712 0044 1846     		mov	r0, r3
 713 0046 FFF7FEFF 		bl	__aeabi_i2d
 714 004a 0246     		mov	r2, r0
 715 004c 0B46     		mov	r3, r1
 716 004e 2046     		mov	r0, r4
 717 0050 2946     		mov	r1, r5
 718 0052 FFF7FEFF 		bl	__aeabi_dmul
 719 0056 0246     		mov	r2, r0
 720 0058 0B46     		mov	r3, r1
 721 005a 1446     		mov	r4, r2
 722 005c 1D46     		mov	r5, r3
 723 005e F868     		ldr	r0, [r7, #12]
 724 0060 FFF7FEFF 		bl	__aeabi_ui2d
 725 0064 0246     		mov	r2, r0
 726 0066 0B46     		mov	r3, r1
 727 0068 1046     		mov	r0, r2
 728 006a 1946     		mov	r1, r3
 729 006c 2246     		mov	r2, r4
 730 006e 2B46     		mov	r3, r5
 731 0070 FFF7FEFF 		bl	__aeabi_dadd
 732 0074 0246     		mov	r2, r0
 733 0076 0B46     		mov	r3, r1
 734 0078 1046     		mov	r0, r2
 735 007a 1946     		mov	r1, r3
 736 007c FFF7FEFF 		bl	__aeabi_d2uiz
 737 0080 0346     		mov	r3, r0
 738 0082 FB60     		str	r3, [r7, #12]
  88:.\Utils.c     ****     FOR(int8 index = (buffersize - 1), index >= 0, index--)
 739              		.loc 1 88 0 discriminator 3
 740 0084 FB7A     		ldrb	r3, [r7, #11]	@ zero_extendqisi2
 741 0086 DBB2     		uxtb	r3, r3
 742 0088 013B     		subs	r3, r3, #1
 743 008a DBB2     		uxtb	r3, r3
 744 008c FB72     		strb	r3, [r7, #11]
 745              	.L26:
  88:.\Utils.c     ****     FOR(int8 index = (buffersize - 1), index >= 0, index--)
 746              		.loc 1 88 0 is_stmt 0 discriminator 1
 747 008e 97F90B30 		ldrsb	r3, [r7, #11]
 748 0092 002B     		cmp	r3, #0
 749 0094 C2DA     		bge	.L27
  90:.\Utils.c     ****         
  91:.\Utils.c     ****     return retval;
 750              		.loc 1 91 0 is_stmt 1
 751 0096 FB68     		ldr	r3, [r7, #12]
ARM GAS  C:\Users\Lenovo\AppData\Local\Temp\ccBukUSZ.s 			page 16


  92:.\Utils.c     **** }
 752              		.loc 1 92 0
 753 0098 1846     		mov	r0, r3
 754 009a 1037     		adds	r7, r7, #16
 755              		.cfi_def_cfa_offset 16
 756 009c BD46     		mov	sp, r7
 757              		.cfi_def_cfa_register 13
 758              		@ sp needed
 759 009e B0BD     		pop	{r4, r5, r7, pc}
 760              		.cfi_endproc
 761              	.LFE5:
 762              		.size	MSDBCDBUFF2HEX, .-MSDBCDBUFF2HEX
 763              		.section	.text.ISVALIDBCD,"ax",%progbits
 764              		.align	2
 765              		.global	ISVALIDBCD
 766              		.thumb
 767              		.thumb_func
 768              		.type	ISVALIDBCD, %function
 769              	ISVALIDBCD:
 770              	.LFB6:
  93:.\Utils.c     **** 
  94:.\Utils.c     **** //@Created By: HIJH
  95:.\Utils.c     **** //@Date: Septembre de 2016
  96:.\Utils.c     **** bool ISVALIDBCD(PNEAR_BYTE_PTR pbuffer, uint16 buffersize)
  97:.\Utils.c     **** {
 771              		.loc 1 97 0
 772              		.cfi_startproc
 773              		@ args = 0, pretend = 0, frame = 16
 774              		@ frame_needed = 1, uses_anonymous_args = 0
 775              		@ link register save eliminated.
 776 0000 80B4     		push	{r7}
 777              		.cfi_def_cfa_offset 4
 778              		.cfi_offset 7, -4
 779 0002 85B0     		sub	sp, sp, #20
 780              		.cfi_def_cfa_offset 24
 781 0004 00AF     		add	r7, sp, #0
 782              		.cfi_def_cfa_register 7
 783 0006 7860     		str	r0, [r7, #4]
 784 0008 0B46     		mov	r3, r1
 785 000a 7B80     		strh	r3, [r7, #2]	@ movhi
  98:.\Utils.c     ****     bool retval = true;
 786              		.loc 1 98 0
 787 000c 0123     		movs	r3, #1
 788 000e FB73     		strb	r3, [r7, #15]
  99:.\Utils.c     ****     FOR(uint8 index = 0, index < buffersize, index++)
 789              		.loc 1 99 0
 790 0010 0023     		movs	r3, #0
 791 0012 BB73     		strb	r3, [r7, #14]
 792 0014 0DE0     		b	.L30
 793              	.L33:
 100:.\Utils.c     ****     {
 101:.\Utils.c     ****         if((pbuffer[index] & 0x0F) > 0x09 || (pbuffer[index] & 0x0F) < 0x00)
 794              		.loc 1 101 0
 795 0016 BB7B     		ldrb	r3, [r7, #14]	@ zero_extendqisi2
 796 0018 7A68     		ldr	r2, [r7, #4]
 797 001a 1344     		add	r3, r3, r2
 798 001c 1B78     		ldrb	r3, [r3]	@ zero_extendqisi2
ARM GAS  C:\Users\Lenovo\AppData\Local\Temp\ccBukUSZ.s 			page 17


 799 001e 03F00F03 		and	r3, r3, #15
 800 0022 092B     		cmp	r3, #9
 801 0024 02DD     		ble	.L31
 102:.\Utils.c     ****         {
 103:.\Utils.c     ****             retval = false;
 802              		.loc 1 103 0
 803 0026 0023     		movs	r3, #0
 804 0028 FB73     		strb	r3, [r7, #15]
 104:.\Utils.c     ****             break;
 805              		.loc 1 104 0
 806 002a 07E0     		b	.L32
 807              	.L31:
  99:.\Utils.c     ****     {
 808              		.loc 1 99 0 discriminator 2
 809 002c BB7B     		ldrb	r3, [r7, #14]	@ zero_extendqisi2
 810 002e 0133     		adds	r3, r3, #1
 811 0030 BB73     		strb	r3, [r7, #14]
 812              	.L30:
  99:.\Utils.c     ****     {
 813              		.loc 1 99 0 is_stmt 0 discriminator 1
 814 0032 BB7B     		ldrb	r3, [r7, #14]	@ zero_extendqisi2
 815 0034 9BB2     		uxth	r3, r3
 816 0036 7A88     		ldrh	r2, [r7, #2]
 817 0038 9A42     		cmp	r2, r3
 818 003a ECD8     		bhi	.L33
 819              	.L32:
 105:.\Utils.c     ****         }
 106:.\Utils.c     ****     }
 107:.\Utils.c     ****     return retval;
 820              		.loc 1 107 0 is_stmt 1
 821 003c FB7B     		ldrb	r3, [r7, #15]	@ zero_extendqisi2
 108:.\Utils.c     **** }
 822              		.loc 1 108 0
 823 003e 1846     		mov	r0, r3
 824 0040 1437     		adds	r7, r7, #20
 825              		.cfi_def_cfa_offset 4
 826 0042 BD46     		mov	sp, r7
 827              		.cfi_def_cfa_register 13
 828              		@ sp needed
 829 0044 5DF8047B 		ldr	r7, [sp], #4
 830              		.cfi_restore 7
 831              		.cfi_def_cfa_offset 0
 832 0048 7047     		bx	lr
 833              		.cfi_endproc
 834              	.LFE6:
 835              		.size	ISVALIDBCD, .-ISVALIDBCD
 836              		.global	__aeabi_d2iz
 837              		.global	__aeabi_dsub
 838              		.global	__aeabi_dcmplt
 839 004a 00BF     		.section	.text.Ceil,"ax",%progbits
 840              		.align	2
 841              		.global	Ceil
 842              		.thumb
 843              		.thumb_func
 844              		.type	Ceil, %function
 845              	Ceil:
 846              	.LFB7:
ARM GAS  C:\Users\Lenovo\AppData\Local\Temp\ccBukUSZ.s 			page 18


 109:.\Utils.c     **** 
 110:.\Utils.c     **** double Ceil(double val)
 111:.\Utils.c     **** {
 847              		.loc 1 111 0
 848              		.cfi_startproc
 849              		@ args = 0, pretend = 0, frame = 16
 850              		@ frame_needed = 1, uses_anonymous_args = 0
 851 0000 80B5     		push	{r7, lr}
 852              		.cfi_def_cfa_offset 8
 853              		.cfi_offset 7, -8
 854              		.cfi_offset 14, -4
 855 0002 84B0     		sub	sp, sp, #16
 856              		.cfi_def_cfa_offset 24
 857 0004 00AF     		add	r7, sp, #0
 858              		.cfi_def_cfa_register 7
 859 0006 C7E90001 		strd	r0, [r7]
 112:.\Utils.c     ****     int32 retval = (int32)val;
 860              		.loc 1 112 0
 861 000a D7E90001 		ldrd	r0, [r7]
 862 000e FFF7FEFF 		bl	__aeabi_d2iz
 863 0012 0346     		mov	r3, r0
 864 0014 FB60     		str	r3, [r7, #12]
 113:.\Utils.c     ****     return ((retval - val) < 0)? (retval + 1): retval;
 865              		.loc 1 113 0
 866 0016 F868     		ldr	r0, [r7, #12]
 867 0018 FFF7FEFF 		bl	__aeabi_i2d
 868 001c 0246     		mov	r2, r0
 869 001e 0B46     		mov	r3, r1
 870 0020 1046     		mov	r0, r2
 871 0022 1946     		mov	r1, r3
 872 0024 D7E90023 		ldrd	r2, [r7]
 873 0028 FFF7FEFF 		bl	__aeabi_dsub
 874 002c 0246     		mov	r2, r0
 875 002e 0B46     		mov	r3, r1
 876 0030 1046     		mov	r0, r2
 877 0032 1946     		mov	r1, r3
 878 0034 4FF00002 		mov	r2, #0
 879 0038 4FF00003 		mov	r3, #0
 880 003c FFF7FEFF 		bl	__aeabi_dcmplt
 881 0040 0346     		mov	r3, r0
 882 0042 002B     		cmp	r3, #0
 883 0044 07D0     		beq	.L41
 884              		.loc 1 113 0 is_stmt 0 discriminator 1
 885 0046 FB68     		ldr	r3, [r7, #12]
 886 0048 0133     		adds	r3, r3, #1
 887 004a 1846     		mov	r0, r3
 888 004c FFF7FEFF 		bl	__aeabi_i2d
 889 0050 0246     		mov	r2, r0
 890 0052 0B46     		mov	r3, r1
 891 0054 04E0     		b	.L38
 892              	.L41:
 893              		.loc 1 113 0 discriminator 2
 894 0056 F868     		ldr	r0, [r7, #12]
 895 0058 FFF7FEFF 		bl	__aeabi_i2d
 896 005c 0246     		mov	r2, r0
 897 005e 0B46     		mov	r3, r1
 898              	.L38:
ARM GAS  C:\Users\Lenovo\AppData\Local\Temp\ccBukUSZ.s 			page 19


 114:.\Utils.c     **** }
 899              		.loc 1 114 0 is_stmt 1 discriminator 4
 900 0060 1046     		mov	r0, r2
 901 0062 1946     		mov	r1, r3
 902 0064 1037     		adds	r7, r7, #16
 903              		.cfi_def_cfa_offset 8
 904 0066 BD46     		mov	sp, r7
 905              		.cfi_def_cfa_register 13
 906              		@ sp needed
 907 0068 80BD     		pop	{r7, pc}
 908              		.cfi_endproc
 909              	.LFE7:
 910              		.size	Ceil, .-Ceil
 911 006a 00BF     		.section	.text.RGB216BITS,"ax",%progbits
 912              		.align	2
 913              		.global	RGB216BITS
 914              		.thumb
 915              		.thumb_func
 916              		.type	RGB216BITS, %function
 917              	RGB216BITS:
 918              	.LFB8:
 115:.\Utils.c     **** 
 116:.\Utils.c     **** uint16 RGB216BITS(uint8 r, uint8 g, uint8 b)
 117:.\Utils.c     **** {
 919              		.loc 1 117 0
 920              		.cfi_startproc
 921              		@ args = 0, pretend = 0, frame = 16
 922              		@ frame_needed = 1, uses_anonymous_args = 0
 923              		@ link register save eliminated.
 924 0000 80B4     		push	{r7}
 925              		.cfi_def_cfa_offset 4
 926              		.cfi_offset 7, -4
 927 0002 85B0     		sub	sp, sp, #20
 928              		.cfi_def_cfa_offset 24
 929 0004 00AF     		add	r7, sp, #0
 930              		.cfi_def_cfa_register 7
 931 0006 0346     		mov	r3, r0
 932 0008 FB71     		strb	r3, [r7, #7]
 933 000a 0B46     		mov	r3, r1
 934 000c BB71     		strb	r3, [r7, #6]
 935 000e 1346     		mov	r3, r2
 936 0010 7B71     		strb	r3, [r7, #5]
 118:.\Utils.c     ****     uint16 code = 0x0000;
 937              		.loc 1 118 0
 938 0012 0023     		movs	r3, #0
 939 0014 FB81     		strh	r3, [r7, #14]	@ movhi
 119:.\Utils.c     ****     
 120:.\Utils.c     ****     code = (r & 0x1f) << 11;
 940              		.loc 1 120 0
 941 0016 FB79     		ldrb	r3, [r7, #7]	@ zero_extendqisi2
 942 0018 DB02     		lsls	r3, r3, #11
 943 001a FB81     		strh	r3, [r7, #14]	@ movhi
 121:.\Utils.c     ****     code |= (g & 0x3f) << 5;
 944              		.loc 1 121 0
 945 001c BB79     		ldrb	r3, [r7, #6]	@ zero_extendqisi2
 946 001e 03F03F03 		and	r3, r3, #63
 947 0022 5B01     		lsls	r3, r3, #5
ARM GAS  C:\Users\Lenovo\AppData\Local\Temp\ccBukUSZ.s 			page 20


 948 0024 9AB2     		uxth	r2, r3
 949 0026 FB89     		ldrh	r3, [r7, #14]
 950 0028 1343     		orrs	r3, r3, r2
 951 002a 9BB2     		uxth	r3, r3
 952 002c FB81     		strh	r3, [r7, #14]	@ movhi
 122:.\Utils.c     ****     code |= (b & 0x1f) << 0;
 953              		.loc 1 122 0
 954 002e 7B79     		ldrb	r3, [r7, #5]	@ zero_extendqisi2
 955 0030 9BB2     		uxth	r3, r3
 956 0032 03F01F03 		and	r3, r3, #31
 957 0036 9AB2     		uxth	r2, r3
 958 0038 FB89     		ldrh	r3, [r7, #14]
 959 003a 1343     		orrs	r3, r3, r2
 960 003c 9BB2     		uxth	r3, r3
 961 003e FB81     		strh	r3, [r7, #14]	@ movhi
 123:.\Utils.c     ****     
 124:.\Utils.c     ****     return code;
 962              		.loc 1 124 0
 963 0040 FB89     		ldrh	r3, [r7, #14]
 125:.\Utils.c     **** }
 964              		.loc 1 125 0
 965 0042 1846     		mov	r0, r3
 966 0044 1437     		adds	r7, r7, #20
 967              		.cfi_def_cfa_offset 4
 968 0046 BD46     		mov	sp, r7
 969              		.cfi_def_cfa_register 13
 970              		@ sp needed
 971 0048 5DF8047B 		ldr	r7, [sp], #4
 972              		.cfi_restore 7
 973              		.cfi_def_cfa_offset 0
 974 004c 7047     		bx	lr
 975              		.cfi_endproc
 976              	.LFE8:
 977              		.size	RGB216BITS, .-RGB216BITS
 978 004e 00BF     		.section	.text.ISASCIIPRNBLE,"ax",%progbits
 979              		.align	2
 980              		.global	ISASCIIPRNBLE
 981              		.thumb
 982              		.thumb_func
 983              		.type	ISASCIIPRNBLE, %function
 984              	ISASCIIPRNBLE:
 985              	.LFB9:
 126:.\Utils.c     **** 
 127:.\Utils.c     **** //@Created By: HIJH
 128:.\Utils.c     **** //@Date: Septembre de 2016
 129:.\Utils.c     **** bool ISASCIIPRNBLE(PNEAR_BYTE_PTR pbuffer, uint8 buffersize)
 130:.\Utils.c     **** {
 986              		.loc 1 130 0
 987              		.cfi_startproc
 988              		@ args = 0, pretend = 0, frame = 16
 989              		@ frame_needed = 1, uses_anonymous_args = 0
 990              		@ link register save eliminated.
 991 0000 80B4     		push	{r7}
 992              		.cfi_def_cfa_offset 4
 993              		.cfi_offset 7, -4
 994 0002 85B0     		sub	sp, sp, #20
 995              		.cfi_def_cfa_offset 24
ARM GAS  C:\Users\Lenovo\AppData\Local\Temp\ccBukUSZ.s 			page 21


 996 0004 00AF     		add	r7, sp, #0
 997              		.cfi_def_cfa_register 7
 998 0006 7860     		str	r0, [r7, #4]
 999 0008 0B46     		mov	r3, r1
 1000 000a FB70     		strb	r3, [r7, #3]
 131:.\Utils.c     ****     bool retval = true;
 1001              		.loc 1 131 0
 1002 000c 0123     		movs	r3, #1
 1003 000e FB73     		strb	r3, [r7, #15]
 132:.\Utils.c     ****     FOR(uint8 index = 0, index < buffersize, index++)
 1004              		.loc 1 132 0
 1005 0010 0023     		movs	r3, #0
 1006 0012 BB73     		strb	r3, [r7, #14]
 1007 0014 0BE0     		b	.L45
 1008              	.L48:
 133:.\Utils.c     ****     {
 134:.\Utils.c     ****         //This is approximately the range of printable ASCII characters that we require
 135:.\Utils.c     ****         if(pbuffer[index] < 0x20)        
 1009              		.loc 1 135 0
 1010 0016 BB7B     		ldrb	r3, [r7, #14]	@ zero_extendqisi2
 1011 0018 7A68     		ldr	r2, [r7, #4]
 1012 001a 1344     		add	r3, r3, r2
 1013 001c 1B78     		ldrb	r3, [r3]	@ zero_extendqisi2
 1014 001e 1F2B     		cmp	r3, #31
 1015 0020 02D8     		bhi	.L46
 136:.\Utils.c     ****         {
 137:.\Utils.c     ****             retval = false;
 1016              		.loc 1 137 0
 1017 0022 0023     		movs	r3, #0
 1018 0024 FB73     		strb	r3, [r7, #15]
 138:.\Utils.c     ****             break;
 1019              		.loc 1 138 0
 1020 0026 06E0     		b	.L47
 1021              	.L46:
 132:.\Utils.c     ****     {
 1022              		.loc 1 132 0 discriminator 2
 1023 0028 BB7B     		ldrb	r3, [r7, #14]	@ zero_extendqisi2
 1024 002a 0133     		adds	r3, r3, #1
 1025 002c BB73     		strb	r3, [r7, #14]
 1026              	.L45:
 132:.\Utils.c     ****     {
 1027              		.loc 1 132 0 is_stmt 0 discriminator 1
 1028 002e BA7B     		ldrb	r2, [r7, #14]	@ zero_extendqisi2
 1029 0030 FB78     		ldrb	r3, [r7, #3]	@ zero_extendqisi2
 1030 0032 9A42     		cmp	r2, r3
 1031 0034 EFD3     		bcc	.L48
 1032              	.L47:
 139:.\Utils.c     ****         }
 140:.\Utils.c     ****     }
 141:.\Utils.c     ****     return retval;
 1033              		.loc 1 141 0 is_stmt 1
 1034 0036 FB7B     		ldrb	r3, [r7, #15]	@ zero_extendqisi2
 142:.\Utils.c     **** }
 1035              		.loc 1 142 0
 1036 0038 1846     		mov	r0, r3
 1037 003a 1437     		adds	r7, r7, #20
 1038              		.cfi_def_cfa_offset 4
ARM GAS  C:\Users\Lenovo\AppData\Local\Temp\ccBukUSZ.s 			page 22


 1039 003c BD46     		mov	sp, r7
 1040              		.cfi_def_cfa_register 13
 1041              		@ sp needed
 1042 003e 5DF8047B 		ldr	r7, [sp], #4
 1043              		.cfi_restore 7
 1044              		.cfi_def_cfa_offset 0
 1045 0042 7047     		bx	lr
 1046              		.cfi_endproc
 1047              	.LFE9:
 1048              		.size	ISASCIIPRNBLE, .-ISASCIIPRNBLE
 1049              		.text
 1050              	.Letext0:
 1051              		.file 2 "Generated_Source\\PSoC5/cytypes.h"
 1052              		.file 3 ".\\GlobalDefinitions.h"