ARM GAS  C:\Users\RECEPC~1\AppData\Local\Temp\cci8D3iQ.s 			page 1


   1              		.syntax unified
   2              		.cpu cortex-m3
   3              		.fpu softvfp
   4              		.eabi_attribute 20, 1
   5              		.eabi_attribute 21, 1
   6              		.eabi_attribute 23, 3
   7              		.eabi_attribute 24, 1
   8              		.eabi_attribute 25, 1
   9              		.eabi_attribute 26, 1
  10              		.eabi_attribute 30, 6
  11              		.eabi_attribute 34, 1
  12              		.eabi_attribute 18, 4
  13              		.thumb
  14              		.file	"WatchDogReset.c"
  15              		.text
  16              	.Ltext0:
  17              		.cfi_sections	.debug_frame
  18              		.global	_g_wdtstarted
  19              		.bss
  20              		.type	_g_wdtstarted, %object
  21              		.size	_g_wdtstarted, 1
  22              	_g_wdtstarted:
  23 0000 00       		.space	1
  24              		.section	.text.WatchDogInitialize,"ax",%progbits
  25              		.align	2
  26              		.global	WatchDogInitialize
  27              		.thumb
  28              		.thumb_func
  29              		.type	WatchDogInitialize, %function
  30              	WatchDogInitialize:
  31              	.LFB63:
  32              		.file 1 ".\\WatchDogReset.c"
   1:.\WatchDogReset.c **** /* ========================================
   2:.\WatchDogReset.c ****  *
   3:.\WatchDogReset.c ****  * Copyright INSEPET SISTEMAS, 2016
   4:.\WatchDogReset.c ****  * All Rights Reserved
   5:.\WatchDogReset.c ****  * UNPUBLISHED, LICENSED SOFTWARE.
   6:.\WatchDogReset.c ****  *
   7:.\WatchDogReset.c ****  * CONFIDENTIAL AND PROPRIETARY INFORMATION
   8:.\WatchDogReset.c ****  * WHICH IS THE PROPERTY OF your company.
   9:.\WatchDogReset.c ****  *
  10:.\WatchDogReset.c ****  * ========================================
  11:.\WatchDogReset.c **** @Created by: HIJH
  12:.\WatchDogReset.c **** @Date: Janvier 1 de 2017
  13:.\WatchDogReset.c **** */
  14:.\WatchDogReset.c **** 
  15:.\WatchDogReset.c **** #include <project.h>
  16:.\WatchDogReset.c **** #include "GlobalDefinitions.h"
  17:.\WatchDogReset.c **** #include "SinkObservables.h"
  18:.\WatchDogReset.c **** #include "SinkManager.h"
  19:.\WatchDogReset.c **** 
  20:.\WatchDogReset.c **** /* [] END OF FILE */
  21:.\WatchDogReset.c **** 
  22:.\WatchDogReset.c **** volatile bool _g_wdtstarted = false;
  23:.\WatchDogReset.c **** 
  24:.\WatchDogReset.c **** void WatchDogStartup();
  25:.\WatchDogReset.c **** void WatchDogHandler();
ARM GAS  C:\Users\RECEPC~1\AppData\Local\Temp\cci8D3iQ.s 			page 2


  26:.\WatchDogReset.c **** 
  27:.\WatchDogReset.c **** //@Created By: HIJH
  28:.\WatchDogReset.c **** //@Janvier 1 de 2017
  29:.\WatchDogReset.c **** void WatchDogInitialize()
  30:.\WatchDogReset.c **** {
  33              		.loc 1 30 0
  34              		.cfi_startproc
  35              		@ args = 0, pretend = 0, frame = 8
  36              		@ frame_needed = 1, uses_anonymous_args = 0
  37 0000 80B5     		push	{r7, lr}
  38              		.cfi_def_cfa_offset 8
  39              		.cfi_offset 7, -8
  40              		.cfi_offset 14, -4
  41 0002 82B0     		sub	sp, sp, #8
  42              		.cfi_def_cfa_offset 16
  43 0004 00AF     		add	r7, sp, #0
  44              		.cfi_def_cfa_register 7
  31:.\WatchDogReset.c ****     PSINKSUBSCRIBERPTR psubscriber = AllocateSubscriberSlot();
  45              		.loc 1 31 0
  46 0006 FFF7FEFF 		bl	AllocateSubscriberSlot
  47 000a 7860     		str	r0, [r7, #4]
  32:.\WatchDogReset.c ****     if(psubscriber)
  48              		.loc 1 32 0
  49 000c 7B68     		ldr	r3, [r7, #4]
  50 000e 002B     		cmp	r3, #0
  51 0010 0FD0     		beq	.L2
  52              	.LBB2:
  33:.\WatchDogReset.c ****     {
  34:.\WatchDogReset.c ****         uint8 index = 0;
  53              		.loc 1 34 0
  54 0012 0023     		movs	r3, #0
  55 0014 FB70     		strb	r3, [r7, #3]
  35:.\WatchDogReset.c ****         //The maximum number of observable identifiers is _OBSERVED_IDENTIFIERS_
  36:.\WatchDogReset.c ****         //located in the header file "SinkManager.h"
  37:.\WatchDogReset.c ****         //Every identifier is paired with its respective Callback method pointer
  38:.\WatchDogReset.c ****         psubscriber->_arrmsgid[index] = WATCHDOG_STARTUP;
  56              		.loc 1 38 0
  57 0016 FB78     		ldrb	r3, [r7, #3]	@ zero_extendqisi2
  58 0018 7A68     		ldr	r2, [r7, #4]
  59 001a 1344     		add	r3, r3, r2
  60 001c 2922     		movs	r2, #41
  61 001e 5A70     		strb	r2, [r3, #1]
  39:.\WatchDogReset.c ****         psubscriber->Callback[index++] = WatchDogStartup;
  62              		.loc 1 39 0
  63 0020 FB78     		ldrb	r3, [r7, #3]	@ zero_extendqisi2
  64 0022 5A1C     		adds	r2, r3, #1
  65 0024 FA70     		strb	r2, [r7, #3]
  66 0026 7A68     		ldr	r2, [r7, #4]
  67 0028 0233     		adds	r3, r3, #2
  68 002a 9B00     		lsls	r3, r3, #2
  69 002c 1344     		add	r3, r3, r2
  70 002e 044A     		ldr	r2, .L3
  71 0030 5A60     		str	r2, [r3, #4]
  72              	.L2:
  73              	.LBE2:
  40:.\WatchDogReset.c ****     }
  41:.\WatchDogReset.c ****     
ARM GAS  C:\Users\RECEPC~1\AppData\Local\Temp\cci8D3iQ.s 			page 3


  42:.\WatchDogReset.c ****     GLOBAL_LOOP_PUSH(WatchDogHandler);
  74              		.loc 1 42 0
  75 0032 0448     		ldr	r0, .L3+4
  76 0034 FFF7FEFF 		bl	loop_push
  43:.\WatchDogReset.c **** }
  77              		.loc 1 43 0
  78 0038 0837     		adds	r7, r7, #8
  79              		.cfi_def_cfa_offset 8
  80 003a BD46     		mov	sp, r7
  81              		.cfi_def_cfa_register 13
  82              		@ sp needed
  83 003c 80BD     		pop	{r7, pc}
  84              	.L4:
  85 003e 00BF     		.align	2
  86              	.L3:
  87 0040 00000000 		.word	WatchDogStartup
  88 0044 00000000 		.word	WatchDogHandler
  89              		.cfi_endproc
  90              	.LFE63:
  91              		.size	WatchDogInitialize, .-WatchDogInitialize
  92              		.section	.text.WatchDogHandler,"ax",%progbits
  93              		.align	2
  94              		.global	WatchDogHandler
  95              		.thumb
  96              		.thumb_func
  97              		.type	WatchDogHandler, %function
  98              	WatchDogHandler:
  99              	.LFB64:
  44:.\WatchDogReset.c **** 
  45:.\WatchDogReset.c **** //@Created By: HIJH
  46:.\WatchDogReset.c **** //@Janvier 1 de 2017
  47:.\WatchDogReset.c **** void WatchDogHandler()
  48:.\WatchDogReset.c **** {
 100              		.loc 1 48 0
 101              		.cfi_startproc
 102              		@ args = 0, pretend = 0, frame = 0
 103              		@ frame_needed = 1, uses_anonymous_args = 0
 104 0000 80B5     		push	{r7, lr}
 105              		.cfi_def_cfa_offset 8
 106              		.cfi_offset 7, -8
 107              		.cfi_offset 14, -4
 108 0002 00AF     		add	r7, sp, #0
 109              		.cfi_def_cfa_register 7
  49:.\WatchDogReset.c ****     if(_g_wdtstarted)
 110              		.loc 1 49 0
 111 0004 034B     		ldr	r3, .L7
 112 0006 1B78     		ldrb	r3, [r3]
 113 0008 DBB2     		uxtb	r3, r3
 114 000a 002B     		cmp	r3, #0
 115 000c 01D0     		beq	.L5
  50:.\WatchDogReset.c ****         CyWdtClear();
 116              		.loc 1 50 0
 117 000e FFF7FEFF 		bl	CyWdtClear
 118              	.L5:
  51:.\WatchDogReset.c **** }
 119              		.loc 1 51 0
 120 0012 80BD     		pop	{r7, pc}
ARM GAS  C:\Users\RECEPC~1\AppData\Local\Temp\cci8D3iQ.s 			page 4


 121              	.L8:
 122              		.align	2
 123              	.L7:
 124 0014 00000000 		.word	_g_wdtstarted
 125              		.cfi_endproc
 126              	.LFE64:
 127              		.size	WatchDogHandler, .-WatchDogHandler
 128              		.section	.text.WatchDogStartup,"ax",%progbits
 129              		.align	2
 130              		.global	WatchDogStartup
 131              		.thumb
 132              		.thumb_func
 133              		.type	WatchDogStartup, %function
 134              	WatchDogStartup:
 135              	.LFB65:
  52:.\WatchDogReset.c **** 
  53:.\WatchDogReset.c **** //@Created By: HIJH
  54:.\WatchDogReset.c **** //@Janvier 1 de 2017
  55:.\WatchDogReset.c **** void WatchDogStartup()
  56:.\WatchDogReset.c **** {
 136              		.loc 1 56 0
 137              		.cfi_startproc
 138              		@ args = 0, pretend = 0, frame = 0
 139              		@ frame_needed = 1, uses_anonymous_args = 0
 140 0000 80B5     		push	{r7, lr}
 141              		.cfi_def_cfa_offset 8
 142              		.cfi_offset 7, -8
 143              		.cfi_offset 14, -4
 144 0002 00AF     		add	r7, sp, #0
 145              		.cfi_def_cfa_register 7
  57:.\WatchDogReset.c ****     _g_wdtstarted = true;
 146              		.loc 1 57 0
 147 0004 034B     		ldr	r3, .L10
 148 0006 0122     		movs	r2, #1
 149 0008 1A70     		strb	r2, [r3]
  58:.\WatchDogReset.c ****     CyWdtStart(CYWDT_1024_TICKS,CYWDT_LPMODE_NOCHANGE);
 150              		.loc 1 58 0
 151 000a 0320     		movs	r0, #3
 152 000c 0021     		movs	r1, #0
 153 000e FFF7FEFF 		bl	CyWdtStart
  59:.\WatchDogReset.c **** }
 154              		.loc 1 59 0
 155 0012 80BD     		pop	{r7, pc}
 156              	.L11:
 157              		.align	2
 158              	.L10:
 159 0014 00000000 		.word	_g_wdtstarted
 160              		.cfi_endproc
 161              	.LFE65:
 162              		.size	WatchDogStartup, .-WatchDogStartup
 163              		.text
 164              	.Letext0:
 165              		.file 2 "c:\\program files (x86)\\cypress\\psoc creator\\3.3\\psoc creator\\import\\gnu\\arm\\4.9.
 166              		.file 3 "c:\\program files (x86)\\cypress\\psoc creator\\3.3\\psoc creator\\import\\gnu\\arm\\4.9.
 167              		.file 4 "Generated_Source\\PSoC5/cytypes.h"
 168              		.file 5 ".\\SinkManager.h"
 169              		.file 6 "Generated_Source\\PSoC5/core_cm3.h"
ARM GAS  C:\Users\RECEPC~1\AppData\Local\Temp\cci8D3iQ.s 			page 5


 170              		.file 7 ".\\SinkObservables.h"